; Listing generated by Microsoft (R) Optimizing Compiler Version 19.16.27026.1 

	TITLE	Z:\Sources\Lunor\Repos\rougemeilland\Palmtree.Math.Core.Uint\Palmtree.Math.Core.Uint\pmc_divrem.c
	.686P
	.XMM
	include listing.inc
	.model	flat

INCLUDELIB MSVCRT
INCLUDELIB OLDNAMES

PUBLIC	_DivRem_X_1W
PUBLIC	_DivRem_X_X
PUBLIC	_Initialize_DivRem
PUBLIC	_PMC_DivRem_I_X@16
PUBLIC	_PMC_DivRem_L_X@20
PUBLIC	_PMC_DivRem_X_I@16
PUBLIC	_PMC_DivRem_X_L@20
PUBLIC	_PMC_DivRem_X_X@16
EXTRN	_AllocateBlock:PROC
EXTRN	_DeallocateBlock:PROC
EXTRN	_CheckBlockLight:PROC
EXTRN	_AllocateNumber:PROC
EXTRN	_DeallocateNumber:PROC
EXTRN	_CommitNumber:PROC
EXTRN	_CheckNumber:PROC
EXTRN	_DuplicateNumber:PROC
EXTRN	_RightShift_Imp_DIV:PROC
EXTRN	_LeftShift_Imp_DIV:PROC
EXTRN	@__security_check_cookie@4:PROC
EXTRN	__aulldiv:PROC
EXTRN	__aulldvrm:PROC
EXTRN	__aullrem:PROC
EXTRN	_number_zero:BYTE
EXTRN	_statistics_info:BYTE
EXTRN	___security_cookie:DWORD
_BSS	SEGMENT
_fp_DivRem_X_X DD 01H DUP (?)
_BSS	ENDS
; Function compile flags: /Ogtp
; File z:\sources\lunor\repos\rougemeilland\palmtree.math.core.uint\palmtree.math.core.uint\pmc_divrem.c
; File z:\sources\lunor\repos\rougemeilland\palmtree.math.core.uint\palmtree.math.core.uint\pmc_inline_func.h
; File z:\sources\lunor\repos\rougemeilland\palmtree.math.core.uint\palmtree.math.core.uint\pmc_divrem.c
; File z:\sources\lunor\repos\rougemeilland\palmtree.math.core.uint\palmtree.math.core.uint\pmc_inline_func.h
; File z:\sources\lunor\repos\rougemeilland\palmtree.math.core.uint\palmtree.math.core.uint\pmc_divrem.c
; File z:\sources\lunor\repos\rougemeilland\palmtree.math.core.uint\palmtree.math.core.uint\pmc_inline_func.h
; File z:\sources\lunor\repos\rougemeilland\palmtree.math.core.uint\palmtree.math.core.uint\pmc_divrem.c
; File z:\sources\lunor\repos\rougemeilland\palmtree.math.core.uint\palmtree.math.core.uint\pmc_uint_internal.h
; File z:\sources\lunor\repos\rougemeilland\palmtree.math.core.uint\palmtree.math.core.uint\pmc_inline_func.h
; File z:\sources\lunor\repos\rougemeilland\palmtree.math.core.uint\palmtree.math.core.uint\pmc_divrem.c
; File z:\sources\lunor\repos\rougemeilland\palmtree.math.core.uint\palmtree.math.core.uint\pmc_inline_func.h
; File z:\sources\lunor\repos\rougemeilland\palmtree.math.core.uint\palmtree.math.core.uint\pmc_uint_internal.h
; File z:\sources\lunor\repos\rougemeilland\palmtree.math.core.uint\palmtree.math.core.uint\pmc_inline_func.h
; File z:\sources\lunor\repos\rougemeilland\palmtree.math.core.uint\palmtree.math.core.uint\pmc_uint_internal.h
; File z:\sources\lunor\repos\rougemeilland\palmtree.math.core.uint\palmtree.math.core.uint\pmc_divrem.c
; File z:\sources\lunor\repos\rougemeilland\palmtree.math.core.uint\palmtree.math.core.uint\pmc_inline_func.h
; File z:\sources\lunor\repos\rougemeilland\palmtree.math.core.uint\palmtree.math.core.uint\pmc_divrem.c
; File z:\sources\lunor\repos\rougemeilland\palmtree.math.core.uint\palmtree.math.core.uint\pmc_inline_func.h
; File z:\sources\lunor\repos\rougemeilland\palmtree.math.core.uint\palmtree.math.core.uint\pmc_uint_internal.h
; File z:\sources\lunor\repos\rougemeilland\palmtree.math.core.uint\palmtree.math.core.uint\pmc_inline_func.h
; File z:\sources\lunor\repos\rougemeilland\palmtree.math.core.uint\palmtree.math.core.uint\pmc_uint_internal.h
; File z:\sources\lunor\repos\rougemeilland\palmtree.math.core.uint\palmtree.math.core.uint\pmc_divrem.c
;	COMDAT _DivRem_X_X_using_ADX_MULX
_TEXT	SEGMENT
tv647 = -40						; size = 4
_lh_mi$1$ = -36						; size = 4
_value$1$ = -36						; size = 4
_lh_mi$1$ = -32						; size = 4
_value$1$ = -32						; size = 4
_rh_mi$1$ = -28						; size = 4
tv646 = -24						; size = 4
$T1 = -20						; size = 4
tv643 = -16						; size = 4
_rh_mi$1$ = -12						; size = 4
_v1$1$ = -8						; size = 4
_v2$1$ = -4						; size = 4
_u_buf$ = 8						; size = 4
_u_buf_len$ = 12					; size = 4
_rh_hi$1$ = 16						; size = 4
_v_buf$ = 16						; size = 4
_v_buf_len$ = 20					; size = 4
_work_v_buf$ = 24					; size = 4
_q_buf$ = 28						; size = 4
_r_buf$ = 32						; size = 4
_DivRem_X_X_using_ADX_MULX PROC				; COMDAT

; 972  : {

	push	ebp
	mov	ebp, esp
	sub	esp, 40					; 00000028H
	push	ebx

; 973  :     // u および v の最上位ワードは 0 でありうることに注意すること。
; 974  :     if (sizeof(__UNIT_TYPE) != sizeof(__UNIT_TYPE_DIV))
; 975  :     {
; 976  :         while (u_buf[u_buf_len - 1] == 0)
; 977  :             --u_buf_len;
; 978  :         while (v_buf[v_buf_len - 1] == 0)
; 979  :             --v_buf_len;
; 980  :     }
; 981  : 
; 982  : #ifdef _DEBUG
; 983  :     if (v_buf[v_buf_len - 1] == 0)
; 984  :     {
; 985  :         ; // このルートには到達しないはず。デバッグ用。
; 986  :     }
; 987  : #endif
; 988  : 
; 989  : #ifdef DO_TRACE
; 990  :     ReportLabel("uとvのシフト");
; 991  :     ReportDump("u", (__UNIT_TYPE*)u_buf, _DIVIDE_CEILING_UNIT(u_buf_len * sizeof(__UNIT_TYPE_DIV), sizeof(__UNIT_TYPE)));
; 992  :     ReportDump("v", (__UNIT_TYPE*)v_buf, _DIVIDE_CEILING_UNIT(v_buf_len * sizeof(__UNIT_TYPE_DIV), sizeof(__UNIT_TYPE)));
; 993  : #endif
; 994  : 
; 995  :     __UNIT_TYPE_DIV d_factor = _LZCNT_ALT_UNIT_DIV(v_buf[v_buf_len - 1]);

	mov	ebx, DWORD PTR _v_buf_len$[ebp]
	push	esi
	mov	esi, DWORD PTR _v_buf$[ebp]
	push	edi
	mov	eax, DWORD PTR [esi+ebx*4-4]
; File z:\sources\lunor\repos\rougemeilland\palmtree.math.core.uint\palmtree.math.core.uint\pmc_inline_func.h

; 659  :         if (x == 0)

	test	eax, eax
	jne	SHORT $LN18@DivRem_X_X

; 660  :             return (sizeof(x) * 8);

	mov	edi, 32					; 00000020H
	mov	DWORD PTR $T1[ebp], edi
$LN10@DivRem_X_X:
; File z:\sources\lunor\repos\rougemeilland\palmtree.math.core.uint\palmtree.math.core.uint\pmc_divrem.c

; 1004 :         LeftShift_Imp_DIV(u_buf, u_buf_len, d_factor, r_buf, FALSE);

	push	0
	push	DWORD PTR _r_buf$[ebp]
	push	edi
	push	DWORD PTR _u_buf_len$[ebp]
	push	DWORD PTR _u_buf$[ebp]
	call	_LeftShift_Imp_DIV

; 1005 :         LeftShift_Imp_DIV(v_buf, v_buf_len, d_factor, work_v_buf, FALSE);

	push	0
	push	DWORD PTR _work_v_buf$[ebp]
	push	edi
	push	ebx
	push	esi
	call	_LeftShift_Imp_DIV
	mov	eax, DWORD PTR _r_buf$[ebp]
	add	esp, 40					; 00000028H
	mov	edx, DWORD PTR _u_buf_len$[ebp]
$LN11@DivRem_X_X:

; 1006 :     }
; 1007 : #ifdef DO_TRACE
; 1008 :     ReportDump("⇒u", (__UNIT_TYPE*)r_buf, _DIVIDE_CEILING_UNIT((u_buf_len + 1) * sizeof(__UNIT_TYPE_DIV), sizeof(__UNIT_TYPE)));
; 1009 :     ReportDump("⇒v", (__UNIT_TYPE*)work_v_buf, _DIVIDE_CEILING_UNIT(v_buf_len * sizeof(__UNIT_TYPE_DIV), sizeof(__UNIT_TYPE)));
; 1010 : #endif
; 1011 : 
; 1012 :     __UNIT_TYPE_DIV* work_u_buf = r_buf;
; 1013 :     __UNIT_TYPE q_index = u_buf_len - v_buf_len;

	mov	ecx, DWORD PTR _work_v_buf$[ebp]
	lea	esi, DWORD PTR [ebx-1]
	mov	edi, edx
	sub	edi, ebx
	lea	esi, DWORD PTR [ecx+esi*4]
	lea	ecx, DWORD PTR [ecx+ebx*4]
	mov	DWORD PTR tv647[ebp], esi
	add	ecx, -8					; fffffff8H
	lea	ebx, DWORD PTR [edx-2]
	mov	DWORD PTR tv646[ebp], ecx
	lea	ebx, DWORD PTR [eax+ebx*4]
$LL6@DivRem_X_X:

; 370  :     __UNIT_TYPE_DIV uj_2 = u_buf[u_index - 2];

	mov	ecx, DWORD PTR [ebx]
	mov	eax, DWORD PTR [ebx+8]

; 371  :     __UNIT_TYPE_DIV v1 = v_buf[v_buf_len - 1];

	mov	esi, DWORD PTR [esi]
	mov	edx, DWORD PTR [ebx+4]
	mov	DWORD PTR tv643[ebp], ecx

; 372  :     __UNIT_TYPE_DIV v2 = v_buf[v_buf_len - 2];

	mov	ecx, DWORD PTR tv646[ebp]
	mov	DWORD PTR _rh_hi$1$[ebp], eax
	mov	DWORD PTR _rh_mi$1$[ebp], edx
	mov	DWORD PTR _v1$1$[ebp], esi
	mov	ecx, DWORD PTR [ecx]
	mov	DWORD PTR _v2$1$[ebp], ecx

; 250  :     if (uj == v1)

	cmp	eax, esi
	jne	SHORT $LN29@DivRem_X_X

; 251  :         return (-1);

	or	esi, -1
	jmp	SHORT $LN28@DivRem_X_X
$LN18@DivRem_X_X:
; File z:\sources\lunor\repos\rougemeilland\palmtree.math.core.uint\palmtree.math.core.uint\pmc_inline_func.h

; 664  :         _BitScanReverse(&pos, x);

	bsr	eax, eax

; 665  : #elif defined(__GNUC__)
; 666  :         __asm__("bsrl %1, %0" : "=r"(pos) : "rm"(x));
; 667  : #else
; 668  : #error unknown compiler
; 669  : #endif
; 670  : #elif defined(_M_X64)
; 671  : #ifdef _MSC_VER
; 672  :         _UINT32_T pos;
; 673  :         _BitScanReverse(&pos, x);
; 674  : #elif defined(__GNUC__)
; 675  :         _UINT64_T pos;
; 676  :         __asm__("bsrq %1, %0" : "=r"(pos) : "rm"(x));
; 677  : #else
; 678  : #error unknown compiler
; 679  : #endif
; 680  : #else
; 681  : #error unknown platform
; 682  : #endif
; 683  :         return (sizeof(x) * 8 - 1 - pos);

	mov	edi, 31					; 0000001fH
	sub	edi, eax
	mov	DWORD PTR $T1[ebp], edi
; File z:\sources\lunor\repos\rougemeilland\palmtree.math.core.uint\palmtree.math.core.uint\pmc_divrem.c

; 996  :     if (d_factor == 0)

	jne	SHORT $LN10@DivRem_X_X
; File z:\sources\lunor\repos\rougemeilland\palmtree.math.core.uint\palmtree.math.core.uint\pmc_inline_func.h

; 79   :         __movsd((unsigned long *)d, (unsigned long *)s, (unsigned long)count);

	mov	eax, DWORD PTR _r_buf$[ebp]
	mov	edi, eax
	mov	edx, DWORD PTR _u_buf_len$[ebp]
	mov	ecx, edx
	mov	esi, DWORD PTR _u_buf$[ebp]
	rep movsd
	mov	edi, DWORD PTR _work_v_buf$[ebp]
	mov	ecx, ebx
	mov	esi, DWORD PTR _v_buf$[ebp]
	rep movsd
; File z:\sources\lunor\repos\rougemeilland\palmtree.math.core.uint\palmtree.math.core.uint\pmc_divrem.c

; 1000 :         r_buf[u_buf_len] = 0;

	mov	DWORD PTR [eax+edx*4], 0

; 1001 :     }

	jmp	SHORT $LN11@DivRem_X_X
$LN29@DivRem_X_X:
; File z:\sources\lunor\repos\rougemeilland\palmtree.math.core.uint\palmtree.math.core.uint\pmc_uint_internal.h

; 317  :         _InterlockedIncrement(&statistics_info.COUNT_DIV32);

	lock	 inc	 (null) PTR _statistics_info+12
; File z:\sources\lunor\repos\rougemeilland\palmtree.math.core.uint\palmtree.math.core.uint\pmc_inline_func.h

; 391  :             return ((_UINT32_T)(t / v));

	push	0
	push	esi

; 178  :         return (((_UINT64_T)value_high << 32) | value_low);

	xor	ecx, ecx
	or	ecx, edx

; 391  :             return ((_UINT32_T)(t / v));

	push	eax
	push	ecx
	call	__aulldiv
	mov	ecx, DWORD PTR _v2$1$[ebp]
; File z:\sources\lunor\repos\rougemeilland\palmtree.math.core.uint\palmtree.math.core.uint\pmc_divrem.c

; 260  :     return (q);

	mov	esi, eax
$LN28@DivRem_X_X:
; File z:\sources\lunor\repos\rougemeilland\palmtree.math.core.uint\palmtree.math.core.uint\pmc_inline_func.h

; 364  :         return (_FROMDWORDTOWORD((_UINT64_T)u * v, w_hi));

	mov	eax, esi
	mul	ecx

; 282  :         return (_subborrow_u32(borrow, u, v, w));

	mov	ecx, DWORD PTR _rh_mi$1$[ebp]

; 364  :         return (_FROMDWORDTOWORD((_UINT64_T)u * v, w_hi));

	mov	DWORD PTR _value$1$[ebp], eax
	mov	eax, esi
	mov	DWORD PTR _lh_mi$1$[ebp], edx
	mul	DWORD PTR _v1$1$[ebp]

; 282  :         return (_subborrow_u32(borrow, u, v, w));

	sub	ecx, eax
; File z:\sources\lunor\repos\rougemeilland\palmtree.math.core.uint\palmtree.math.core.uint\pmc_uint_internal.h

; 352  :         _InterlockedExchangeAdd(&statistics_info.COUNT_MULTI32, value);

	mov	eax, 2
; File z:\sources\lunor\repos\rougemeilland\palmtree.math.core.uint\palmtree.math.core.uint\pmc_inline_func.h

; 282  :         return (_subborrow_u32(borrow, u, v, w));

	mov	DWORD PTR _rh_mi$1$[ebp], ecx
	mov	ecx, DWORD PTR _rh_hi$1$[ebp]
	sbb	ecx, edx
; File z:\sources\lunor\repos\rougemeilland\palmtree.math.core.uint\palmtree.math.core.uint\pmc_uint_internal.h

; 352  :         _InterlockedExchangeAdd(&statistics_info.COUNT_MULTI32, value);

	mov	edx, OFFSET _statistics_info+4
	lock	 xadd	 DWORD PTR [edx], eax
; File z:\sources\lunor\repos\rougemeilland\palmtree.math.core.uint\palmtree.math.core.uint\pmc_divrem.c

; 317  :     if (rh_hi > 0)

	test	ecx, ecx
	jne	SHORT $LN102@DivRem_X_X

; 318  :     {
; 319  : #ifdef DO_TRACE
; 320  :         ReportVar("result", 0);
; 321  : #endif
; 322  :         return (FALSE);
; 323  :     }
; 324  :     else if (lh_mi > rh_mi)

	mov	eax, DWORD PTR _rh_mi$1$[ebp]
	cmp	DWORD PTR _lh_mi$1$[ebp], eax
	ja	SHORT $LN25@DivRem_X_X

; 325  :     {
; 326  : #ifdef DO_TRACE
; 327  :         ReportVar("result", 1);
; 328  : #endif
; 329  :         return (TRUE);
; 330  :     }
; 331  :     else if (lh_mi < rh_mi)

	jb	SHORT $LN102@DivRem_X_X

; 381  :     if (!CheckQ_X(q_, uj, uj_1, uj_2, v1, v2))

	mov	eax, DWORD PTR _value$1$[ebp]
	cmp	eax, DWORD PTR tv643[ebp]
	jbe	SHORT $LN102@DivRem_X_X
$LN25@DivRem_X_X:
; File z:\sources\lunor\repos\rougemeilland\palmtree.math.core.uint\palmtree.math.core.uint\pmc_inline_func.h

; 282  :         return (_subborrow_u32(borrow, u, v, w));

	mov	ecx, DWORD PTR _rh_mi$1$[ebp]
; File z:\sources\lunor\repos\rougemeilland\palmtree.math.core.uint\palmtree.math.core.uint\pmc_divrem.c

; 383  :     --q_;

	dec	esi
; File z:\sources\lunor\repos\rougemeilland\palmtree.math.core.uint\palmtree.math.core.uint\pmc_inline_func.h

; 364  :         return (_FROMDWORDTOWORD((_UINT64_T)u * v, w_hi));

	mov	eax, esi
	mul	DWORD PTR _v2$1$[ebp]
	mov	DWORD PTR _value$1$[ebp], eax
	mov	eax, esi
	mov	DWORD PTR _lh_mi$1$[ebp], edx
	mul	DWORD PTR _v1$1$[ebp]

; 282  :         return (_subborrow_u32(borrow, u, v, w));

	sub	ecx, eax
; File z:\sources\lunor\repos\rougemeilland\palmtree.math.core.uint\palmtree.math.core.uint\pmc_uint_internal.h

; 352  :         _InterlockedExchangeAdd(&statistics_info.COUNT_MULTI32, value);

	mov	eax, 2
; File z:\sources\lunor\repos\rougemeilland\palmtree.math.core.uint\palmtree.math.core.uint\pmc_inline_func.h

; 282  :         return (_subborrow_u32(borrow, u, v, w));

	sbb	DWORD PTR _rh_hi$1$[ebp], edx
; File z:\sources\lunor\repos\rougemeilland\palmtree.math.core.uint\palmtree.math.core.uint\pmc_uint_internal.h

; 352  :         _InterlockedExchangeAdd(&statistics_info.COUNT_MULTI32, value);

	mov	edx, OFFSET _statistics_info+4
	lock	 xadd	 DWORD PTR [edx], eax
; File z:\sources\lunor\repos\rougemeilland\palmtree.math.core.uint\palmtree.math.core.uint\pmc_divrem.c

; 317  :     if (rh_hi > 0)

	cmp	DWORD PTR _rh_hi$1$[ebp], 0
	ja	SHORT $LN102@DivRem_X_X

; 318  :     {
; 319  : #ifdef DO_TRACE
; 320  :         ReportVar("result", 0);
; 321  : #endif
; 322  :         return (FALSE);
; 323  :     }
; 324  :     else if (lh_mi > rh_mi)

	cmp	DWORD PTR _lh_mi$1$[ebp], ecx
	ja	SHORT $LN26@DivRem_X_X

; 325  :     {
; 326  : #ifdef DO_TRACE
; 327  :         ReportVar("result", 1);
; 328  : #endif
; 329  :         return (TRUE);
; 330  :     }
; 331  :     else if (lh_mi < rh_mi)

	jb	SHORT $LN102@DivRem_X_X

; 384  :     if (!CheckQ_X(q_, uj, uj_1, uj_2, v1, v2))

	mov	eax, DWORD PTR _value$1$[ebp]
	cmp	eax, DWORD PTR tv643[ebp]
	jbe	SHORT $LN102@DivRem_X_X
$LN26@DivRem_X_X:

; 385  :         return (q_);
; 386  :     --q_;

	dec	esi
$LN102@DivRem_X_X:

; 1014 : 
; 1015 :     for (;;)
; 1016 :     {
; 1017 :         __UNIT_TYPE_DIV q_ = CalculateQ_X(work_u_buf, work_v_buf, v_buf_len, q_index);
; 1018 : 
; 1019 : #ifdef DO_TRACE
; 1020 :         ReportLabel("uの減算");
; 1021 :         ReportDump("u", (__UNIT_TYPE*)work_u_buf, _DIVIDE_CEILING_UNIT(u_buf_len * sizeof(__UNIT_TYPE_DIV), sizeof(__UNIT_TYPE)));
; 1022 :         ReportDump("v", (__UNIT_TYPE*)work_v_buf, _DIVIDE_CEILING_UNIT(v_buf_len * sizeof(__UNIT_TYPE_DIV), sizeof(__UNIT_TYPE)));
; 1023 :         ReportVar("q_", q_);
; 1024 : #endif
; 1025 :         if (SubtructOneLineX(work_u_buf, u_buf_len, work_v_buf, v_buf_len, q_index, q_))

	push	esi
	push	edi
	push	DWORD PTR _v_buf_len$[ebp]
	push	DWORD PTR _work_v_buf$[ebp]
	push	DWORD PTR _u_buf_len$[ebp]
	push	DWORD PTR _r_buf$[ebp]
	call	_SubtructOneLineX
	add	esp, 24					; 00000018H
	test	eax, eax
	je	SHORT $LN12@DivRem_X_X

; 1026 :         {
; 1027 : #ifdef DO_TRACE
; 1028 :             ReportDump("⇒u", (__UNIT_TYPE*)work_u_buf, _DIVIDE_CEILING_UNIT(u_buf_len * sizeof(__UNIT_TYPE_DIV), sizeof(__UNIT_TYPE)));
; 1029 : #endif
; 1030 :             // 桁借りが発生した場合
; 1031 : 
; 1032 : #ifdef DO_TRACE
; 1033 :             ReportLabel("uの加え戻しとq_の更新");
; 1034 :             ReportDump("u", (__UNIT_TYPE*)work_u_buf, _DIVIDE_CEILING_UNIT(u_buf_len * sizeof(__UNIT_TYPE_DIV), sizeof(__UNIT_TYPE)));
; 1035 : #endif
; 1036 :             --q_;
; 1037 :             AddOneLineX(work_u_buf, u_buf_len, work_v_buf, v_buf_len, q_index);

	push	edi
	push	DWORD PTR _v_buf_len$[ebp]
	dec	esi
	push	DWORD PTR _work_v_buf$[ebp]
	push	DWORD PTR _u_buf_len$[ebp]
	push	DWORD PTR _r_buf$[ebp]
	call	_AddOneLineX
	add	esp, 20					; 00000014H
$LN12@DivRem_X_X:

; 1038 : #ifdef DO_TRACE
; 1039 :             ReportVar("q_", q_);
; 1040 :             ReportDump("⇒u", (__UNIT_TYPE*)work_u_buf, _DIVIDE_CEILING_UNIT(u_buf_len * sizeof(__UNIT_TYPE_DIV), sizeof(__UNIT_TYPE)));
; 1041 : #endif
; 1042 :         }
; 1043 :         else
; 1044 :         {
; 1045 : #ifdef DO_TRACE
; 1046 :             ReportDump("⇒u", (__UNIT_TYPE*)work_u_buf, _DIVIDE_CEILING_UNIT(u_buf_len * sizeof(__UNIT_TYPE_DIV), sizeof(__UNIT_TYPE)));
; 1047 : #endif
; 1048 :         }
; 1049 : 
; 1050 :         q_buf[q_index] = q_;

	mov	eax, DWORD PTR _q_buf$[ebp]
	mov	DWORD PTR [eax+edi*4], esi

; 1051 : 
; 1052 : #ifdef DO_TRACE
; 1053 :         ReportLabel("qの現在値");
; 1054 :         ReportDump("q", (__UNIT_TYPE*)q_buf, _DIVIDE_CEILING_UNIT((u_buf_len - v_buf_len) * sizeof(__UNIT_TYPE_DIV), sizeof(__UNIT_TYPE)));
; 1055 : #endif
; 1056 : 
; 1057 :         if (q_index == 0)

	test	edi, edi
	je	SHORT $LN99@DivRem_X_X

; 1058 :             break;
; 1059 :         --q_index;
; 1060 :     }

	mov	esi, DWORD PTR tv647[ebp]
	dec	edi
	sub	ebx, 4
	jmp	$LL6@DivRem_X_X
$LN99@DivRem_X_X:

; 1061 : 
; 1062 :     if (d_factor > 0)

	mov	eax, DWORD PTR $T1[ebp]
	pop	edi
	pop	esi
	pop	ebx
	test	eax, eax
	je	SHORT $LN15@DivRem_X_X

; 1063 :         RightShift_Imp_DIV(work_u_buf, u_buf_len + 1, d_factor, work_u_buf, FALSE);

	mov	ecx, DWORD PTR _r_buf$[ebp]
	push	0
	push	ecx
	push	eax
	mov	eax, DWORD PTR _u_buf_len$[ebp]
	inc	eax
	push	eax
	push	ecx
	call	_RightShift_Imp_DIV
	add	esp, 20					; 00000014H
$LN15@DivRem_X_X:

; 1064 : 
; 1065 : #ifdef DO_TRACE
; 1066 :     ReportLabel("計算終了");
; 1067 :     ReportDump("q", (__UNIT_TYPE*)q_buf, _DIVIDE_CEILING_UNIT((u_buf_len - v_buf_len) * sizeof(__UNIT_TYPE_DIV), sizeof(__UNIT_TYPE)));
; 1068 :     ReportDump("r", (__UNIT_TYPE*)work_u_buf, _DIVIDE_CEILING_UNIT((u_buf_len + 1) * sizeof(__UNIT_TYPE_DIV), sizeof(__UNIT_TYPE)));
; 1069 : #endif
; 1070 : }

	mov	esp, ebp
	pop	ebp
	ret	0
_DivRem_X_X_using_ADX_MULX ENDP
_TEXT	ENDS
; Function compile flags: /Ogtp
; File z:\sources\lunor\repos\rougemeilland\palmtree.math.core.uint\palmtree.math.core.uint\pmc_divrem.c
; File z:\sources\lunor\repos\rougemeilland\palmtree.math.core.uint\palmtree.math.core.uint\pmc_inline_func.h
; File z:\sources\lunor\repos\rougemeilland\palmtree.math.core.uint\palmtree.math.core.uint\pmc_divrem.c
; File z:\sources\lunor\repos\rougemeilland\palmtree.math.core.uint\palmtree.math.core.uint\pmc_inline_func.h
; File z:\sources\lunor\repos\rougemeilland\palmtree.math.core.uint\palmtree.math.core.uint\pmc_divrem.c
; File z:\sources\lunor\repos\rougemeilland\palmtree.math.core.uint\palmtree.math.core.uint\pmc_inline_func.h
; File z:\sources\lunor\repos\rougemeilland\palmtree.math.core.uint\palmtree.math.core.uint\pmc_divrem.c
; File z:\sources\lunor\repos\rougemeilland\palmtree.math.core.uint\palmtree.math.core.uint\pmc_uint_internal.h
; File z:\sources\lunor\repos\rougemeilland\palmtree.math.core.uint\palmtree.math.core.uint\pmc_inline_func.h
; File z:\sources\lunor\repos\rougemeilland\palmtree.math.core.uint\palmtree.math.core.uint\pmc_divrem.c
; File z:\sources\lunor\repos\rougemeilland\palmtree.math.core.uint\palmtree.math.core.uint\pmc_inline_func.h
; File z:\sources\lunor\repos\rougemeilland\palmtree.math.core.uint\palmtree.math.core.uint\pmc_uint_internal.h
; File z:\sources\lunor\repos\rougemeilland\palmtree.math.core.uint\palmtree.math.core.uint\pmc_inline_func.h
; File z:\sources\lunor\repos\rougemeilland\palmtree.math.core.uint\palmtree.math.core.uint\pmc_uint_internal.h
; File z:\sources\lunor\repos\rougemeilland\palmtree.math.core.uint\palmtree.math.core.uint\pmc_divrem.c
; File z:\sources\lunor\repos\rougemeilland\palmtree.math.core.uint\palmtree.math.core.uint\pmc_inline_func.h
; File z:\sources\lunor\repos\rougemeilland\palmtree.math.core.uint\palmtree.math.core.uint\pmc_divrem.c
; File z:\sources\lunor\repos\rougemeilland\palmtree.math.core.uint\palmtree.math.core.uint\pmc_inline_func.h
; File z:\sources\lunor\repos\rougemeilland\palmtree.math.core.uint\palmtree.math.core.uint\pmc_uint_internal.h
; File z:\sources\lunor\repos\rougemeilland\palmtree.math.core.uint\palmtree.math.core.uint\pmc_inline_func.h
; File z:\sources\lunor\repos\rougemeilland\palmtree.math.core.uint\palmtree.math.core.uint\pmc_uint_internal.h
; File z:\sources\lunor\repos\rougemeilland\palmtree.math.core.uint\palmtree.math.core.uint\pmc_divrem.c
;	COMDAT _DivRem_X_X_using_ADC_MUL
_TEXT	SEGMENT
tv647 = -40						; size = 4
_lh_mi$1$ = -36						; size = 4
_value$1$ = -36						; size = 4
_lh_mi$1$ = -32						; size = 4
_value$1$ = -32						; size = 4
_rh_mi$1$ = -28						; size = 4
tv646 = -24						; size = 4
$T1 = -20						; size = 4
tv643 = -16						; size = 4
_rh_mi$1$ = -12						; size = 4
_v1$1$ = -8						; size = 4
_v2$1$ = -4						; size = 4
_u_buf$ = 8						; size = 4
_u_buf_len$ = 12					; size = 4
_rh_hi$1$ = 16						; size = 4
_v_buf$ = 16						; size = 4
_v_buf_len$ = 20					; size = 4
_work_v_buf$ = 24					; size = 4
_q_buf$ = 28						; size = 4
_r_buf$ = 32						; size = 4
_DivRem_X_X_using_ADC_MUL PROC				; COMDAT

; 916  : {

	push	ebp
	mov	ebp, esp
	sub	esp, 40					; 00000028H
	push	ebx

; 917  :     // u および v の最上位ワードは 0 でありうることに注意すること。
; 918  :     if (sizeof(__UNIT_TYPE) != sizeof(__UNIT_TYPE_DIV))
; 919  :     {
; 920  :         while (u_buf[u_buf_len - 1] == 0)
; 921  :             --u_buf_len;
; 922  :         while (v_buf[v_buf_len - 1] == 0)
; 923  :             --v_buf_len;
; 924  :     }
; 925  : 
; 926  : #ifdef _DEBUG
; 927  :     if (v_buf[v_buf_len - 1] == 0)
; 928  :     {
; 929  :         ; // このルートには到達しないはず。デバッグ用。
; 930  :     }
; 931  : #endif
; 932  : 
; 933  :     __UNIT_TYPE_DIV d_factor = _LZCNT_ALT_UNIT_DIV(v_buf[v_buf_len - 1]);

	mov	ebx, DWORD PTR _v_buf_len$[ebp]
	push	esi
	mov	esi, DWORD PTR _v_buf$[ebp]
	push	edi
	mov	eax, DWORD PTR [esi+ebx*4-4]
; File z:\sources\lunor\repos\rougemeilland\palmtree.math.core.uint\palmtree.math.core.uint\pmc_inline_func.h

; 659  :         if (x == 0)

	test	eax, eax
	jne	SHORT $LN17@DivRem_X_X

; 660  :             return (sizeof(x) * 8);

	mov	edi, 32					; 00000020H
	mov	DWORD PTR $T1[ebp], edi
$LN10@DivRem_X_X:
; File z:\sources\lunor\repos\rougemeilland\palmtree.math.core.uint\palmtree.math.core.uint\pmc_divrem.c

; 942  :         LeftShift_Imp_DIV(u_buf, u_buf_len, d_factor, r_buf, FALSE);

	push	0
	push	DWORD PTR _r_buf$[ebp]
	push	edi
	push	DWORD PTR _u_buf_len$[ebp]
	push	DWORD PTR _u_buf$[ebp]
	call	_LeftShift_Imp_DIV

; 943  :         LeftShift_Imp_DIV(v_buf, v_buf_len, d_factor, work_v_buf, FALSE);

	push	0
	push	DWORD PTR _work_v_buf$[ebp]
	push	edi
	push	ebx
	push	esi
	call	_LeftShift_Imp_DIV
	mov	eax, DWORD PTR _r_buf$[ebp]
	add	esp, 40					; 00000028H
	mov	edx, DWORD PTR _u_buf_len$[ebp]
$LN11@DivRem_X_X:

; 944  :     }
; 945  : 
; 946  :     __UNIT_TYPE_DIV* work_u_buf = r_buf;
; 947  :     __UNIT_TYPE q_index = u_buf_len - v_buf_len;

	mov	ecx, DWORD PTR _work_v_buf$[ebp]
	lea	esi, DWORD PTR [ebx-1]
	mov	edi, edx
	sub	edi, ebx
	lea	esi, DWORD PTR [ecx+esi*4]
	lea	ecx, DWORD PTR [ecx+ebx*4]
	mov	DWORD PTR tv647[ebp], esi
	add	ecx, -8					; fffffff8H
	lea	ebx, DWORD PTR [edx-2]
	mov	DWORD PTR tv646[ebp], ecx
	lea	ebx, DWORD PTR [eax+ebx*4]
$LL6@DivRem_X_X:

; 352  :     __UNIT_TYPE_DIV uj_2 = u_buf[u_index - 2];

	mov	ecx, DWORD PTR [ebx]
	mov	eax, DWORD PTR [ebx+8]

; 353  :     __UNIT_TYPE_DIV v1 = v_buf[v_buf_len - 1];

	mov	esi, DWORD PTR [esi]
	mov	edx, DWORD PTR [ebx+4]
	mov	DWORD PTR tv643[ebp], ecx

; 354  :     __UNIT_TYPE_DIV v2 = v_buf[v_buf_len - 2];

	mov	ecx, DWORD PTR tv646[ebp]
	mov	DWORD PTR _rh_hi$1$[ebp], eax
	mov	DWORD PTR _rh_mi$1$[ebp], edx
	mov	DWORD PTR _v1$1$[ebp], esi
	mov	ecx, DWORD PTR [ecx]
	mov	DWORD PTR _v2$1$[ebp], ecx

; 250  :     if (uj == v1)

	cmp	eax, esi
	jne	SHORT $LN28@DivRem_X_X

; 251  :         return (-1);

	or	esi, -1
	jmp	SHORT $LN27@DivRem_X_X
$LN17@DivRem_X_X:
; File z:\sources\lunor\repos\rougemeilland\palmtree.math.core.uint\palmtree.math.core.uint\pmc_inline_func.h

; 664  :         _BitScanReverse(&pos, x);

	bsr	eax, eax

; 665  : #elif defined(__GNUC__)
; 666  :         __asm__("bsrl %1, %0" : "=r"(pos) : "rm"(x));
; 667  : #else
; 668  : #error unknown compiler
; 669  : #endif
; 670  : #elif defined(_M_X64)
; 671  : #ifdef _MSC_VER
; 672  :         _UINT32_T pos;
; 673  :         _BitScanReverse(&pos, x);
; 674  : #elif defined(__GNUC__)
; 675  :         _UINT64_T pos;
; 676  :         __asm__("bsrq %1, %0" : "=r"(pos) : "rm"(x));
; 677  : #else
; 678  : #error unknown compiler
; 679  : #endif
; 680  : #else
; 681  : #error unknown platform
; 682  : #endif
; 683  :         return (sizeof(x) * 8 - 1 - pos);

	mov	edi, 31					; 0000001fH
	sub	edi, eax
	mov	DWORD PTR $T1[ebp], edi
; File z:\sources\lunor\repos\rougemeilland\palmtree.math.core.uint\palmtree.math.core.uint\pmc_divrem.c

; 934  :     if (d_factor == 0)

	jne	SHORT $LN10@DivRem_X_X
; File z:\sources\lunor\repos\rougemeilland\palmtree.math.core.uint\palmtree.math.core.uint\pmc_inline_func.h

; 79   :         __movsd((unsigned long *)d, (unsigned long *)s, (unsigned long)count);

	mov	eax, DWORD PTR _r_buf$[ebp]
	mov	edi, eax
	mov	edx, DWORD PTR _u_buf_len$[ebp]
	mov	ecx, edx
	mov	esi, DWORD PTR _u_buf$[ebp]
	rep movsd
	mov	edi, DWORD PTR _work_v_buf$[ebp]
	mov	ecx, ebx
	mov	esi, DWORD PTR _v_buf$[ebp]
	rep movsd
; File z:\sources\lunor\repos\rougemeilland\palmtree.math.core.uint\palmtree.math.core.uint\pmc_divrem.c

; 938  :         r_buf[u_buf_len] = 0;

	mov	DWORD PTR [eax+edx*4], 0

; 939  :     }

	jmp	SHORT $LN11@DivRem_X_X
$LN28@DivRem_X_X:
; File z:\sources\lunor\repos\rougemeilland\palmtree.math.core.uint\palmtree.math.core.uint\pmc_uint_internal.h

; 317  :         _InterlockedIncrement(&statistics_info.COUNT_DIV32);

	lock	 inc	 (null) PTR _statistics_info+12
; File z:\sources\lunor\repos\rougemeilland\palmtree.math.core.uint\palmtree.math.core.uint\pmc_inline_func.h

; 391  :             return ((_UINT32_T)(t / v));

	push	0
	push	esi

; 178  :         return (((_UINT64_T)value_high << 32) | value_low);

	xor	ecx, ecx
	or	ecx, edx

; 391  :             return ((_UINT32_T)(t / v));

	push	eax
	push	ecx
	call	__aulldiv
	mov	ecx, DWORD PTR _v2$1$[ebp]
; File z:\sources\lunor\repos\rougemeilland\palmtree.math.core.uint\palmtree.math.core.uint\pmc_divrem.c

; 260  :     return (q);

	mov	esi, eax
$LN27@DivRem_X_X:
; File z:\sources\lunor\repos\rougemeilland\palmtree.math.core.uint\palmtree.math.core.uint\pmc_inline_func.h

; 318  :         return (_FROMDWORDTOWORD((_UINT64_T)u * v, w_hi));

	mov	eax, esi
	mul	ecx

; 282  :         return (_subborrow_u32(borrow, u, v, w));

	mov	ecx, DWORD PTR _rh_mi$1$[ebp]

; 318  :         return (_FROMDWORDTOWORD((_UINT64_T)u * v, w_hi));

	mov	DWORD PTR _value$1$[ebp], eax
	mov	eax, esi
	mov	DWORD PTR _lh_mi$1$[ebp], edx
	mul	DWORD PTR _v1$1$[ebp]

; 282  :         return (_subborrow_u32(borrow, u, v, w));

	sub	ecx, eax
; File z:\sources\lunor\repos\rougemeilland\palmtree.math.core.uint\palmtree.math.core.uint\pmc_uint_internal.h

; 352  :         _InterlockedExchangeAdd(&statistics_info.COUNT_MULTI32, value);

	mov	eax, 2
; File z:\sources\lunor\repos\rougemeilland\palmtree.math.core.uint\palmtree.math.core.uint\pmc_inline_func.h

; 282  :         return (_subborrow_u32(borrow, u, v, w));

	mov	DWORD PTR _rh_mi$1$[ebp], ecx
	mov	ecx, DWORD PTR _rh_hi$1$[ebp]
	sbb	ecx, edx
; File z:\sources\lunor\repos\rougemeilland\palmtree.math.core.uint\palmtree.math.core.uint\pmc_uint_internal.h

; 352  :         _InterlockedExchangeAdd(&statistics_info.COUNT_MULTI32, value);

	mov	edx, OFFSET _statistics_info+4
	lock	 xadd	 DWORD PTR [edx], eax
; File z:\sources\lunor\repos\rougemeilland\palmtree.math.core.uint\palmtree.math.core.uint\pmc_divrem.c

; 280  :     if (rh_hi > 0)

	test	ecx, ecx
	jne	SHORT $LN101@DivRem_X_X

; 281  :         return (FALSE);
; 282  :     else if (lh_mi > rh_mi)

	mov	eax, DWORD PTR _rh_mi$1$[ebp]
	cmp	DWORD PTR _lh_mi$1$[ebp], eax
	ja	SHORT $LN24@DivRem_X_X

; 283  :         return (TRUE);
; 284  :     else if (lh_mi < rh_mi)

	jb	SHORT $LN101@DivRem_X_X

; 356  :     if (!CheckQ_(q_, uj, uj_1, uj_2, v1, v2))

	mov	eax, DWORD PTR _value$1$[ebp]
	cmp	eax, DWORD PTR tv643[ebp]
	jbe	SHORT $LN101@DivRem_X_X
$LN24@DivRem_X_X:
; File z:\sources\lunor\repos\rougemeilland\palmtree.math.core.uint\palmtree.math.core.uint\pmc_inline_func.h

; 282  :         return (_subborrow_u32(borrow, u, v, w));

	mov	ecx, DWORD PTR _rh_mi$1$[ebp]
; File z:\sources\lunor\repos\rougemeilland\palmtree.math.core.uint\palmtree.math.core.uint\pmc_divrem.c

; 358  :     --q_;

	dec	esi
; File z:\sources\lunor\repos\rougemeilland\palmtree.math.core.uint\palmtree.math.core.uint\pmc_inline_func.h

; 318  :         return (_FROMDWORDTOWORD((_UINT64_T)u * v, w_hi));

	mov	eax, esi
	mul	DWORD PTR _v2$1$[ebp]
	mov	DWORD PTR _value$1$[ebp], eax
	mov	eax, esi
	mov	DWORD PTR _lh_mi$1$[ebp], edx
	mul	DWORD PTR _v1$1$[ebp]

; 282  :         return (_subborrow_u32(borrow, u, v, w));

	sub	ecx, eax
; File z:\sources\lunor\repos\rougemeilland\palmtree.math.core.uint\palmtree.math.core.uint\pmc_uint_internal.h

; 352  :         _InterlockedExchangeAdd(&statistics_info.COUNT_MULTI32, value);

	mov	eax, 2
; File z:\sources\lunor\repos\rougemeilland\palmtree.math.core.uint\palmtree.math.core.uint\pmc_inline_func.h

; 282  :         return (_subborrow_u32(borrow, u, v, w));

	sbb	DWORD PTR _rh_hi$1$[ebp], edx
; File z:\sources\lunor\repos\rougemeilland\palmtree.math.core.uint\palmtree.math.core.uint\pmc_uint_internal.h

; 352  :         _InterlockedExchangeAdd(&statistics_info.COUNT_MULTI32, value);

	mov	edx, OFFSET _statistics_info+4
	lock	 xadd	 DWORD PTR [edx], eax
; File z:\sources\lunor\repos\rougemeilland\palmtree.math.core.uint\palmtree.math.core.uint\pmc_divrem.c

; 280  :     if (rh_hi > 0)

	cmp	DWORD PTR _rh_hi$1$[ebp], 0
	ja	SHORT $LN101@DivRem_X_X

; 281  :         return (FALSE);
; 282  :     else if (lh_mi > rh_mi)

	cmp	DWORD PTR _lh_mi$1$[ebp], ecx
	ja	SHORT $LN25@DivRem_X_X

; 283  :         return (TRUE);
; 284  :     else if (lh_mi < rh_mi)

	jb	SHORT $LN101@DivRem_X_X

; 359  :     if (!CheckQ_(q_, uj, uj_1, uj_2, v1, v2))

	mov	eax, DWORD PTR _value$1$[ebp]
	cmp	eax, DWORD PTR tv643[ebp]
	jbe	SHORT $LN101@DivRem_X_X
$LN25@DivRem_X_X:

; 360  :         return (q_);
; 361  :     --q_;

	dec	esi
$LN101@DivRem_X_X:

; 948  : 
; 949  :     for (;;)
; 950  :     {
; 951  :         __UNIT_TYPE_DIV q_ = CalculateQ_(work_u_buf, work_v_buf, v_buf_len, q_index);
; 952  : 
; 953  : 
; 954  :         if (SubtructOneLine(work_u_buf, u_buf_len, work_v_buf, v_buf_len, q_index, q_))

	push	esi
	push	edi
	push	DWORD PTR _v_buf_len$[ebp]
	push	DWORD PTR _work_v_buf$[ebp]
	push	DWORD PTR _u_buf_len$[ebp]
	push	DWORD PTR _r_buf$[ebp]
	call	_SubtructOneLine
	add	esp, 24					; 00000018H
	test	eax, eax
	je	SHORT $LN12@DivRem_X_X

; 955  :         {
; 956  :             // 桁借りが発生した場合
; 957  :             --q_;
; 958  :             AddOneLine(work_u_buf, u_buf_len, work_v_buf, v_buf_len, q_index);

	push	edi
	push	DWORD PTR _v_buf_len$[ebp]
	dec	esi
	push	DWORD PTR _work_v_buf$[ebp]
	push	DWORD PTR _u_buf_len$[ebp]
	push	DWORD PTR _r_buf$[ebp]
	call	_AddOneLine
	add	esp, 20					; 00000014H
$LN12@DivRem_X_X:

; 959  :         }
; 960  : 
; 961  :         q_buf[q_index] = q_;

	mov	eax, DWORD PTR _q_buf$[ebp]
	mov	DWORD PTR [eax+edi*4], esi

; 962  :         if (q_index == 0)

	test	edi, edi
	je	SHORT $LN98@DivRem_X_X

; 963  :             break;
; 964  :         --q_index;
; 965  :     }

	mov	esi, DWORD PTR tv647[ebp]
	dec	edi
	sub	ebx, 4
	jmp	$LL6@DivRem_X_X
$LN98@DivRem_X_X:

; 966  : 
; 967  :     if (d_factor > 0)

	mov	eax, DWORD PTR $T1[ebp]
	pop	edi
	pop	esi
	pop	ebx
	test	eax, eax
	je	SHORT $LN14@DivRem_X_X

; 968  :         RightShift_Imp_DIV(work_u_buf, u_buf_len + 1, d_factor, work_u_buf, FALSE);

	mov	ecx, DWORD PTR _r_buf$[ebp]
	push	0
	push	ecx
	push	eax
	mov	eax, DWORD PTR _u_buf_len$[ebp]
	inc	eax
	push	eax
	push	ecx
	call	_RightShift_Imp_DIV
	add	esp, 20					; 00000014H
$LN14@DivRem_X_X:

; 969  : }

	mov	esp, ebp
	pop	ebp
	ret	0
_DivRem_X_X_using_ADC_MUL ENDP
_TEXT	ENDS
; Function compile flags: /Ogtp
; File z:\sources\lunor\repos\rougemeilland\palmtree.math.core.uint\palmtree.math.core.uint\pmc_divrem.c
; File z:\sources\lunor\repos\rougemeilland\palmtree.math.core.uint\palmtree.math.core.uint\autogenerated_inline_func.h
; File z:\sources\lunor\repos\rougemeilland\palmtree.math.core.uint\palmtree.math.core.uint\pmc_inline_func.h
; File z:\sources\lunor\repos\rougemeilland\palmtree.math.core.uint\palmtree.math.core.uint\autogenerated_inline_func.h
; File z:\sources\lunor\repos\rougemeilland\palmtree.math.core.uint\palmtree.math.core.uint\pmc_inline_func.h
; File z:\sources\lunor\repos\rougemeilland\palmtree.math.core.uint\palmtree.math.core.uint\autogenerated_inline_func.h
; File z:\sources\lunor\repos\rougemeilland\palmtree.math.core.uint\palmtree.math.core.uint\pmc_inline_func.h
; File z:\sources\lunor\repos\rougemeilland\palmtree.math.core.uint\palmtree.math.core.uint\autogenerated_inline_func.h
; File z:\sources\lunor\repos\rougemeilland\palmtree.math.core.uint\palmtree.math.core.uint\pmc_inline_func.h
; File z:\sources\lunor\repos\rougemeilland\palmtree.math.core.uint\palmtree.math.core.uint\autogenerated_inline_func.h
; File z:\sources\lunor\repos\rougemeilland\palmtree.math.core.uint\palmtree.math.core.uint\pmc_inline_func.h
; File z:\sources\lunor\repos\rougemeilland\palmtree.math.core.uint\palmtree.math.core.uint\autogenerated_inline_func.h
; File z:\sources\lunor\repos\rougemeilland\palmtree.math.core.uint\palmtree.math.core.uint\pmc_inline_func.h
; File z:\sources\lunor\repos\rougemeilland\palmtree.math.core.uint\palmtree.math.core.uint\autogenerated_inline_func.h
; File z:\sources\lunor\repos\rougemeilland\palmtree.math.core.uint\palmtree.math.core.uint\pmc_inline_func.h
; File z:\sources\lunor\repos\rougemeilland\palmtree.math.core.uint\palmtree.math.core.uint\autogenerated_inline_func.h
; File z:\sources\lunor\repos\rougemeilland\palmtree.math.core.uint\palmtree.math.core.uint\pmc_inline_func.h
; File z:\sources\lunor\repos\rougemeilland\palmtree.math.core.uint\palmtree.math.core.uint\autogenerated_inline_func.h
; File z:\sources\lunor\repos\rougemeilland\palmtree.math.core.uint\palmtree.math.core.uint\pmc_inline_func.h
; File z:\sources\lunor\repos\rougemeilland\palmtree.math.core.uint\palmtree.math.core.uint\autogenerated_inline_func.h
; File z:\sources\lunor\repos\rougemeilland\palmtree.math.core.uint\palmtree.math.core.uint\pmc_inline_func.h
; File z:\sources\lunor\repos\rougemeilland\palmtree.math.core.uint\palmtree.math.core.uint\autogenerated_inline_func.h
; File z:\sources\lunor\repos\rougemeilland\palmtree.math.core.uint\palmtree.math.core.uint\pmc_inline_func.h
; File z:\sources\lunor\repos\rougemeilland\palmtree.math.core.uint\palmtree.math.core.uint\autogenerated_inline_func.h
; File z:\sources\lunor\repos\rougemeilland\palmtree.math.core.uint\palmtree.math.core.uint\pmc_inline_func.h
; File z:\sources\lunor\repos\rougemeilland\palmtree.math.core.uint\palmtree.math.core.uint\autogenerated_inline_func.h
; File z:\sources\lunor\repos\rougemeilland\palmtree.math.core.uint\palmtree.math.core.uint\pmc_inline_func.h
; File z:\sources\lunor\repos\rougemeilland\palmtree.math.core.uint\palmtree.math.core.uint\autogenerated_inline_func.h
; File z:\sources\lunor\repos\rougemeilland\palmtree.math.core.uint\palmtree.math.core.uint\pmc_inline_func.h
; File z:\sources\lunor\repos\rougemeilland\palmtree.math.core.uint\palmtree.math.core.uint\autogenerated_inline_func.h
; File z:\sources\lunor\repos\rougemeilland\palmtree.math.core.uint\palmtree.math.core.uint\pmc_inline_func.h
; File z:\sources\lunor\repos\rougemeilland\palmtree.math.core.uint\palmtree.math.core.uint\autogenerated_inline_func.h
; File z:\sources\lunor\repos\rougemeilland\palmtree.math.core.uint\palmtree.math.core.uint\pmc_inline_func.h
; File z:\sources\lunor\repos\rougemeilland\palmtree.math.core.uint\palmtree.math.core.uint\autogenerated_inline_func.h
; File z:\sources\lunor\repos\rougemeilland\palmtree.math.core.uint\palmtree.math.core.uint\pmc_inline_func.h
; File z:\sources\lunor\repos\rougemeilland\palmtree.math.core.uint\palmtree.math.core.uint\autogenerated_inline_func.h
; File z:\sources\lunor\repos\rougemeilland\palmtree.math.core.uint\palmtree.math.core.uint\pmc_inline_func.h
; File z:\sources\lunor\repos\rougemeilland\palmtree.math.core.uint\palmtree.math.core.uint\autogenerated_inline_func.h
; File z:\sources\lunor\repos\rougemeilland\palmtree.math.core.uint\palmtree.math.core.uint\pmc_inline_func.h
; File z:\sources\lunor\repos\rougemeilland\palmtree.math.core.uint\palmtree.math.core.uint\autogenerated_inline_func.h
; File z:\sources\lunor\repos\rougemeilland\palmtree.math.core.uint\palmtree.math.core.uint\pmc_inline_func.h
; File z:\sources\lunor\repos\rougemeilland\palmtree.math.core.uint\palmtree.math.core.uint\autogenerated_inline_func.h
; File z:\sources\lunor\repos\rougemeilland\palmtree.math.core.uint\palmtree.math.core.uint\pmc_inline_func.h
; File z:\sources\lunor\repos\rougemeilland\palmtree.math.core.uint\palmtree.math.core.uint\autogenerated_inline_func.h
; File z:\sources\lunor\repos\rougemeilland\palmtree.math.core.uint\palmtree.math.core.uint\pmc_inline_func.h
; File z:\sources\lunor\repos\rougemeilland\palmtree.math.core.uint\palmtree.math.core.uint\autogenerated_inline_func.h
; File z:\sources\lunor\repos\rougemeilland\palmtree.math.core.uint\palmtree.math.core.uint\pmc_inline_func.h
; File z:\sources\lunor\repos\rougemeilland\palmtree.math.core.uint\palmtree.math.core.uint\autogenerated_inline_func.h
; File z:\sources\lunor\repos\rougemeilland\palmtree.math.core.uint\palmtree.math.core.uint\pmc_inline_func.h
; File z:\sources\lunor\repos\rougemeilland\palmtree.math.core.uint\palmtree.math.core.uint\autogenerated_inline_func.h
; File z:\sources\lunor\repos\rougemeilland\palmtree.math.core.uint\palmtree.math.core.uint\pmc_inline_func.h
; File z:\sources\lunor\repos\rougemeilland\palmtree.math.core.uint\palmtree.math.core.uint\autogenerated_inline_func.h
; File z:\sources\lunor\repos\rougemeilland\palmtree.math.core.uint\palmtree.math.core.uint\pmc_inline_func.h
; File z:\sources\lunor\repos\rougemeilland\palmtree.math.core.uint\palmtree.math.core.uint\autogenerated_inline_func.h
; File z:\sources\lunor\repos\rougemeilland\palmtree.math.core.uint\palmtree.math.core.uint\pmc_inline_func.h
; File z:\sources\lunor\repos\rougemeilland\palmtree.math.core.uint\palmtree.math.core.uint\autogenerated_inline_func.h
; File z:\sources\lunor\repos\rougemeilland\palmtree.math.core.uint\palmtree.math.core.uint\pmc_inline_func.h
; File z:\sources\lunor\repos\rougemeilland\palmtree.math.core.uint\palmtree.math.core.uint\autogenerated_inline_func.h
; File z:\sources\lunor\repos\rougemeilland\palmtree.math.core.uint\palmtree.math.core.uint\pmc_inline_func.h
; File z:\sources\lunor\repos\rougemeilland\palmtree.math.core.uint\palmtree.math.core.uint\autogenerated_inline_func.h
; File z:\sources\lunor\repos\rougemeilland\palmtree.math.core.uint\palmtree.math.core.uint\pmc_inline_func.h
; File z:\sources\lunor\repos\rougemeilland\palmtree.math.core.uint\palmtree.math.core.uint\autogenerated_inline_func.h
; File z:\sources\lunor\repos\rougemeilland\palmtree.math.core.uint\palmtree.math.core.uint\pmc_inline_func.h
; File z:\sources\lunor\repos\rougemeilland\palmtree.math.core.uint\palmtree.math.core.uint\autogenerated_inline_func.h
; File z:\sources\lunor\repos\rougemeilland\palmtree.math.core.uint\palmtree.math.core.uint\pmc_inline_func.h
; File z:\sources\lunor\repos\rougemeilland\palmtree.math.core.uint\palmtree.math.core.uint\pmc_divrem.c
; File z:\sources\lunor\repos\rougemeilland\palmtree.math.core.uint\palmtree.math.core.uint\autogenerated_inline_func.h
; File z:\sources\lunor\repos\rougemeilland\palmtree.math.core.uint\palmtree.math.core.uint\pmc_inline_func.h
; File z:\sources\lunor\repos\rougemeilland\palmtree.math.core.uint\palmtree.math.core.uint\autogenerated_inline_func.h
; File z:\sources\lunor\repos\rougemeilland\palmtree.math.core.uint\palmtree.math.core.uint\pmc_inline_func.h
; File z:\sources\lunor\repos\rougemeilland\palmtree.math.core.uint\palmtree.math.core.uint\autogenerated_inline_func.h
; File z:\sources\lunor\repos\rougemeilland\palmtree.math.core.uint\palmtree.math.core.uint\pmc_inline_func.h
; File z:\sources\lunor\repos\rougemeilland\palmtree.math.core.uint\palmtree.math.core.uint\autogenerated_inline_func.h
; File z:\sources\lunor\repos\rougemeilland\palmtree.math.core.uint\palmtree.math.core.uint\pmc_inline_func.h
; File z:\sources\lunor\repos\rougemeilland\palmtree.math.core.uint\palmtree.math.core.uint\autogenerated_inline_func.h
; File z:\sources\lunor\repos\rougemeilland\palmtree.math.core.uint\palmtree.math.core.uint\pmc_inline_func.h
; File z:\sources\lunor\repos\rougemeilland\palmtree.math.core.uint\palmtree.math.core.uint\autogenerated_inline_func.h
; File z:\sources\lunor\repos\rougemeilland\palmtree.math.core.uint\palmtree.math.core.uint\pmc_inline_func.h
; File z:\sources\lunor\repos\rougemeilland\palmtree.math.core.uint\palmtree.math.core.uint\autogenerated_inline_func.h
; File z:\sources\lunor\repos\rougemeilland\palmtree.math.core.uint\palmtree.math.core.uint\pmc_inline_func.h
; File z:\sources\lunor\repos\rougemeilland\palmtree.math.core.uint\palmtree.math.core.uint\autogenerated_inline_func.h
; File z:\sources\lunor\repos\rougemeilland\palmtree.math.core.uint\palmtree.math.core.uint\pmc_inline_func.h
; File z:\sources\lunor\repos\rougemeilland\palmtree.math.core.uint\palmtree.math.core.uint\pmc_divrem.c
; File z:\sources\lunor\repos\rougemeilland\palmtree.math.core.uint\palmtree.math.core.uint\autogenerated_inline_func.h
; File z:\sources\lunor\repos\rougemeilland\palmtree.math.core.uint\palmtree.math.core.uint\pmc_inline_func.h
; File z:\sources\lunor\repos\rougemeilland\palmtree.math.core.uint\palmtree.math.core.uint\autogenerated_inline_func.h
; File z:\sources\lunor\repos\rougemeilland\palmtree.math.core.uint\palmtree.math.core.uint\pmc_inline_func.h
; File z:\sources\lunor\repos\rougemeilland\palmtree.math.core.uint\palmtree.math.core.uint\autogenerated_inline_func.h
; File z:\sources\lunor\repos\rougemeilland\palmtree.math.core.uint\palmtree.math.core.uint\pmc_inline_func.h
; File z:\sources\lunor\repos\rougemeilland\palmtree.math.core.uint\palmtree.math.core.uint\autogenerated_inline_func.h
; File z:\sources\lunor\repos\rougemeilland\palmtree.math.core.uint\palmtree.math.core.uint\pmc_inline_func.h
; File z:\sources\lunor\repos\rougemeilland\palmtree.math.core.uint\palmtree.math.core.uint\pmc_divrem.c
; File z:\sources\lunor\repos\rougemeilland\palmtree.math.core.uint\palmtree.math.core.uint\autogenerated_inline_func.h
; File z:\sources\lunor\repos\rougemeilland\palmtree.math.core.uint\palmtree.math.core.uint\pmc_inline_func.h
; File z:\sources\lunor\repos\rougemeilland\palmtree.math.core.uint\palmtree.math.core.uint\autogenerated_inline_func.h
; File z:\sources\lunor\repos\rougemeilland\palmtree.math.core.uint\palmtree.math.core.uint\pmc_inline_func.h
; File z:\sources\lunor\repos\rougemeilland\palmtree.math.core.uint\palmtree.math.core.uint\pmc_divrem.c
; File z:\sources\lunor\repos\rougemeilland\palmtree.math.core.uint\palmtree.math.core.uint\pmc_inline_func.h
; File z:\sources\lunor\repos\rougemeilland\palmtree.math.core.uint\palmtree.math.core.uint\pmc_divrem.c
; File z:\sources\lunor\repos\rougemeilland\palmtree.math.core.uint\palmtree.math.core.uint\pmc_inline_func.h
; File z:\sources\lunor\repos\rougemeilland\palmtree.math.core.uint\palmtree.math.core.uint\pmc_divrem.c
;	COMDAT _AddOneLineX
_TEXT	SEGMENT
_u_buf$ = 8						; size = 4
_u_buf_len$ = 12					; size = 4
_v_buf$ = 16						; size = 4
_v_buf_len$ = 20					; size = 4
_c$ = 24						; size = 1
_q_index$ = 24						; size = 4
_AddOneLineX PROC					; COMDAT

; 850  : {

	push	ebp
	mov	ebp, esp

; 851  :     __UNIT_TYPE_DIV* u_ptr = &u_buf[q_index];

	mov	eax, DWORD PTR _q_index$[ebp]

; 852  :     __UNIT_TYPE_DIV* v_ptr = &v_buf[0];
; 853  :     __UNIT_TYPE v_count = v_buf_len;
; 854  :     char c = 0;

	xor	dl, dl
	mov	ecx, DWORD PTR _u_buf$[ebp]
	push	ebx

; 855  : 
; 856  :     // まず 32 ワードずつ加算をする。
; 857  :     __UNIT_TYPE count = v_count >> 5;

	mov	ebx, DWORD PTR _v_buf_len$[ebp]
	push	esi
	lea	esi, DWORD PTR [ecx+eax*4]
	mov	BYTE PTR _c$[ebp], dl
	mov	ecx, ebx
	shr	ecx, 5
	push	edi
	mov	edi, DWORD PTR _v_buf$[ebp]

; 858  :     while (count != 0)

	test	ecx, ecx
	je	$LN3@AddOneLine
	npad	9
$LL2@AddOneLine:
; File z:\sources\lunor\repos\rougemeilland\palmtree.math.core.uint\palmtree.math.core.uint\autogenerated_inline_func.h

; 1314 :     c = _ADDX_UNIT_DIV(c, xp[0], yp[0], &zp[0]);

	mov	eax, DWORD PTR [esi]
; File z:\sources\lunor\repos\rougemeilland\palmtree.math.core.uint\palmtree.math.core.uint\pmc_inline_func.h

; 254  :         return (_addcarryx_u32(carry, u, v, w));

	add	dl, 255					; 000000ffH
	adcx	eax, DWORD PTR [edi]
	mov	DWORD PTR [esi], eax
; File z:\sources\lunor\repos\rougemeilland\palmtree.math.core.uint\palmtree.math.core.uint\autogenerated_inline_func.h

; 1315 :     c = _ADDX_UNIT_DIV(c, xp[1], yp[1], &zp[1]);

	mov	eax, DWORD PTR [esi+4]
; File z:\sources\lunor\repos\rougemeilland\palmtree.math.core.uint\palmtree.math.core.uint\pmc_inline_func.h

; 254  :         return (_addcarryx_u32(carry, u, v, w));

	adcx	eax, DWORD PTR [edi+4]
	mov	DWORD PTR [esi+4], eax
; File z:\sources\lunor\repos\rougemeilland\palmtree.math.core.uint\palmtree.math.core.uint\autogenerated_inline_func.h

; 1316 :     c = _ADDX_UNIT_DIV(c, xp[2], yp[2], &zp[2]);

	mov	eax, DWORD PTR [esi+8]
; File z:\sources\lunor\repos\rougemeilland\palmtree.math.core.uint\palmtree.math.core.uint\pmc_inline_func.h

; 254  :         return (_addcarryx_u32(carry, u, v, w));

	adcx	eax, DWORD PTR [edi+8]
	mov	DWORD PTR [esi+8], eax
; File z:\sources\lunor\repos\rougemeilland\palmtree.math.core.uint\palmtree.math.core.uint\autogenerated_inline_func.h

; 1317 :     c = _ADDX_UNIT_DIV(c, xp[3], yp[3], &zp[3]);

	mov	eax, DWORD PTR [esi+12]
; File z:\sources\lunor\repos\rougemeilland\palmtree.math.core.uint\palmtree.math.core.uint\pmc_inline_func.h

; 254  :         return (_addcarryx_u32(carry, u, v, w));

	adcx	eax, DWORD PTR [edi+12]
	mov	DWORD PTR [esi+12], eax
; File z:\sources\lunor\repos\rougemeilland\palmtree.math.core.uint\palmtree.math.core.uint\autogenerated_inline_func.h

; 1318 :     c = _ADDX_UNIT_DIV(c, xp[4], yp[4], &zp[4]);

	mov	eax, DWORD PTR [esi+16]
; File z:\sources\lunor\repos\rougemeilland\palmtree.math.core.uint\palmtree.math.core.uint\pmc_inline_func.h

; 254  :         return (_addcarryx_u32(carry, u, v, w));

	adcx	eax, DWORD PTR [edi+16]
	mov	DWORD PTR [esi+16], eax
; File z:\sources\lunor\repos\rougemeilland\palmtree.math.core.uint\palmtree.math.core.uint\autogenerated_inline_func.h

; 1319 :     c = _ADDX_UNIT_DIV(c, xp[5], yp[5], &zp[5]);

	mov	eax, DWORD PTR [esi+20]
; File z:\sources\lunor\repos\rougemeilland\palmtree.math.core.uint\palmtree.math.core.uint\pmc_inline_func.h

; 254  :         return (_addcarryx_u32(carry, u, v, w));

	adcx	eax, DWORD PTR [edi+20]
	mov	DWORD PTR [esi+20], eax
; File z:\sources\lunor\repos\rougemeilland\palmtree.math.core.uint\palmtree.math.core.uint\autogenerated_inline_func.h

; 1320 :     c = _ADDX_UNIT_DIV(c, xp[6], yp[6], &zp[6]);

	mov	eax, DWORD PTR [esi+24]
; File z:\sources\lunor\repos\rougemeilland\palmtree.math.core.uint\palmtree.math.core.uint\pmc_inline_func.h

; 254  :         return (_addcarryx_u32(carry, u, v, w));

	adcx	eax, DWORD PTR [edi+24]
	mov	DWORD PTR [esi+24], eax
; File z:\sources\lunor\repos\rougemeilland\palmtree.math.core.uint\palmtree.math.core.uint\autogenerated_inline_func.h

; 1321 :     c = _ADDX_UNIT_DIV(c, xp[7], yp[7], &zp[7]);

	mov	eax, DWORD PTR [esi+28]
; File z:\sources\lunor\repos\rougemeilland\palmtree.math.core.uint\palmtree.math.core.uint\pmc_inline_func.h

; 254  :         return (_addcarryx_u32(carry, u, v, w));

	adcx	eax, DWORD PTR [edi+28]
	mov	DWORD PTR [esi+28], eax
; File z:\sources\lunor\repos\rougemeilland\palmtree.math.core.uint\palmtree.math.core.uint\autogenerated_inline_func.h

; 1322 :     c = _ADDX_UNIT_DIV(c, xp[8], yp[8], &zp[8]);

	mov	eax, DWORD PTR [esi+32]
; File z:\sources\lunor\repos\rougemeilland\palmtree.math.core.uint\palmtree.math.core.uint\pmc_inline_func.h

; 254  :         return (_addcarryx_u32(carry, u, v, w));

	adcx	eax, DWORD PTR [edi+32]
	mov	DWORD PTR [esi+32], eax
; File z:\sources\lunor\repos\rougemeilland\palmtree.math.core.uint\palmtree.math.core.uint\autogenerated_inline_func.h

; 1323 :     c = _ADDX_UNIT_DIV(c, xp[9], yp[9], &zp[9]);

	mov	eax, DWORD PTR [esi+36]
; File z:\sources\lunor\repos\rougemeilland\palmtree.math.core.uint\palmtree.math.core.uint\pmc_inline_func.h

; 254  :         return (_addcarryx_u32(carry, u, v, w));

	adcx	eax, DWORD PTR [edi+36]
	mov	DWORD PTR [esi+36], eax
; File z:\sources\lunor\repos\rougemeilland\palmtree.math.core.uint\palmtree.math.core.uint\autogenerated_inline_func.h

; 1324 :     c = _ADDX_UNIT_DIV(c, xp[10], yp[10], &zp[10]);

	mov	eax, DWORD PTR [esi+40]
; File z:\sources\lunor\repos\rougemeilland\palmtree.math.core.uint\palmtree.math.core.uint\pmc_inline_func.h

; 254  :         return (_addcarryx_u32(carry, u, v, w));

	adcx	eax, DWORD PTR [edi+40]
	mov	DWORD PTR [esi+40], eax
; File z:\sources\lunor\repos\rougemeilland\palmtree.math.core.uint\palmtree.math.core.uint\autogenerated_inline_func.h

; 1325 :     c = _ADDX_UNIT_DIV(c, xp[11], yp[11], &zp[11]);

	mov	eax, DWORD PTR [esi+44]
; File z:\sources\lunor\repos\rougemeilland\palmtree.math.core.uint\palmtree.math.core.uint\pmc_inline_func.h

; 254  :         return (_addcarryx_u32(carry, u, v, w));

	adcx	eax, DWORD PTR [edi+44]
	mov	DWORD PTR [esi+44], eax
; File z:\sources\lunor\repos\rougemeilland\palmtree.math.core.uint\palmtree.math.core.uint\autogenerated_inline_func.h

; 1326 :     c = _ADDX_UNIT_DIV(c, xp[12], yp[12], &zp[12]);

	mov	eax, DWORD PTR [esi+48]
; File z:\sources\lunor\repos\rougemeilland\palmtree.math.core.uint\palmtree.math.core.uint\pmc_inline_func.h

; 254  :         return (_addcarryx_u32(carry, u, v, w));

	adcx	eax, DWORD PTR [edi+48]
	mov	DWORD PTR [esi+48], eax
; File z:\sources\lunor\repos\rougemeilland\palmtree.math.core.uint\palmtree.math.core.uint\autogenerated_inline_func.h

; 1327 :     c = _ADDX_UNIT_DIV(c, xp[13], yp[13], &zp[13]);

	mov	eax, DWORD PTR [esi+52]
; File z:\sources\lunor\repos\rougemeilland\palmtree.math.core.uint\palmtree.math.core.uint\pmc_inline_func.h

; 254  :         return (_addcarryx_u32(carry, u, v, w));

	adcx	eax, DWORD PTR [edi+52]
	mov	DWORD PTR [esi+52], eax
; File z:\sources\lunor\repos\rougemeilland\palmtree.math.core.uint\palmtree.math.core.uint\autogenerated_inline_func.h

; 1328 :     c = _ADDX_UNIT_DIV(c, xp[14], yp[14], &zp[14]);

	mov	eax, DWORD PTR [esi+56]
; File z:\sources\lunor\repos\rougemeilland\palmtree.math.core.uint\palmtree.math.core.uint\pmc_inline_func.h

; 254  :         return (_addcarryx_u32(carry, u, v, w));

	adcx	eax, DWORD PTR [edi+56]
	mov	DWORD PTR [esi+56], eax
; File z:\sources\lunor\repos\rougemeilland\palmtree.math.core.uint\palmtree.math.core.uint\autogenerated_inline_func.h

; 1329 :     c = _ADDX_UNIT_DIV(c, xp[15], yp[15], &zp[15]);

	mov	eax, DWORD PTR [esi+60]
; File z:\sources\lunor\repos\rougemeilland\palmtree.math.core.uint\palmtree.math.core.uint\pmc_inline_func.h

; 254  :         return (_addcarryx_u32(carry, u, v, w));

	adcx	eax, DWORD PTR [edi+60]
	mov	DWORD PTR [esi+60], eax
; File z:\sources\lunor\repos\rougemeilland\palmtree.math.core.uint\palmtree.math.core.uint\autogenerated_inline_func.h

; 1330 :     c = _ADDX_UNIT_DIV(c, xp[16], yp[16], &zp[16]);

	mov	eax, DWORD PTR [esi+64]
; File z:\sources\lunor\repos\rougemeilland\palmtree.math.core.uint\palmtree.math.core.uint\pmc_inline_func.h

; 254  :         return (_addcarryx_u32(carry, u, v, w));

	adcx	eax, DWORD PTR [edi+64]
	mov	DWORD PTR [esi+64], eax
; File z:\sources\lunor\repos\rougemeilland\palmtree.math.core.uint\palmtree.math.core.uint\autogenerated_inline_func.h

; 1331 :     c = _ADDX_UNIT_DIV(c, xp[17], yp[17], &zp[17]);

	mov	eax, DWORD PTR [esi+68]
; File z:\sources\lunor\repos\rougemeilland\palmtree.math.core.uint\palmtree.math.core.uint\pmc_inline_func.h

; 254  :         return (_addcarryx_u32(carry, u, v, w));

	adcx	eax, DWORD PTR [edi+68]
	mov	DWORD PTR [esi+68], eax
; File z:\sources\lunor\repos\rougemeilland\palmtree.math.core.uint\palmtree.math.core.uint\autogenerated_inline_func.h

; 1332 :     c = _ADDX_UNIT_DIV(c, xp[18], yp[18], &zp[18]);

	mov	eax, DWORD PTR [esi+72]
; File z:\sources\lunor\repos\rougemeilland\palmtree.math.core.uint\palmtree.math.core.uint\pmc_inline_func.h

; 254  :         return (_addcarryx_u32(carry, u, v, w));

	adcx	eax, DWORD PTR [edi+72]
	mov	DWORD PTR [esi+72], eax
; File z:\sources\lunor\repos\rougemeilland\palmtree.math.core.uint\palmtree.math.core.uint\autogenerated_inline_func.h

; 1333 :     c = _ADDX_UNIT_DIV(c, xp[19], yp[19], &zp[19]);

	mov	eax, DWORD PTR [esi+76]
; File z:\sources\lunor\repos\rougemeilland\palmtree.math.core.uint\palmtree.math.core.uint\pmc_inline_func.h

; 254  :         return (_addcarryx_u32(carry, u, v, w));

	adcx	eax, DWORD PTR [edi+76]
	mov	DWORD PTR [esi+76], eax
; File z:\sources\lunor\repos\rougemeilland\palmtree.math.core.uint\palmtree.math.core.uint\autogenerated_inline_func.h

; 1334 :     c = _ADDX_UNIT_DIV(c, xp[20], yp[20], &zp[20]);

	mov	eax, DWORD PTR [esi+80]
; File z:\sources\lunor\repos\rougemeilland\palmtree.math.core.uint\palmtree.math.core.uint\pmc_inline_func.h

; 254  :         return (_addcarryx_u32(carry, u, v, w));

	adcx	eax, DWORD PTR [edi+80]
	mov	DWORD PTR [esi+80], eax
; File z:\sources\lunor\repos\rougemeilland\palmtree.math.core.uint\palmtree.math.core.uint\autogenerated_inline_func.h

; 1335 :     c = _ADDX_UNIT_DIV(c, xp[21], yp[21], &zp[21]);

	mov	eax, DWORD PTR [esi+84]
; File z:\sources\lunor\repos\rougemeilland\palmtree.math.core.uint\palmtree.math.core.uint\pmc_inline_func.h

; 254  :         return (_addcarryx_u32(carry, u, v, w));

	adcx	eax, DWORD PTR [edi+84]
	mov	DWORD PTR [esi+84], eax
; File z:\sources\lunor\repos\rougemeilland\palmtree.math.core.uint\palmtree.math.core.uint\autogenerated_inline_func.h

; 1336 :     c = _ADDX_UNIT_DIV(c, xp[22], yp[22], &zp[22]);

	mov	eax, DWORD PTR [esi+88]
; File z:\sources\lunor\repos\rougemeilland\palmtree.math.core.uint\palmtree.math.core.uint\pmc_inline_func.h

; 254  :         return (_addcarryx_u32(carry, u, v, w));

	adcx	eax, DWORD PTR [edi+88]
	mov	DWORD PTR [esi+88], eax
; File z:\sources\lunor\repos\rougemeilland\palmtree.math.core.uint\palmtree.math.core.uint\autogenerated_inline_func.h

; 1337 :     c = _ADDX_UNIT_DIV(c, xp[23], yp[23], &zp[23]);

	mov	eax, DWORD PTR [esi+92]
; File z:\sources\lunor\repos\rougemeilland\palmtree.math.core.uint\palmtree.math.core.uint\pmc_inline_func.h

; 254  :         return (_addcarryx_u32(carry, u, v, w));

	adcx	eax, DWORD PTR [edi+92]
	mov	DWORD PTR [esi+92], eax
; File z:\sources\lunor\repos\rougemeilland\palmtree.math.core.uint\palmtree.math.core.uint\autogenerated_inline_func.h

; 1338 :     c = _ADDX_UNIT_DIV(c, xp[24], yp[24], &zp[24]);

	mov	eax, DWORD PTR [esi+96]
; File z:\sources\lunor\repos\rougemeilland\palmtree.math.core.uint\palmtree.math.core.uint\pmc_inline_func.h

; 254  :         return (_addcarryx_u32(carry, u, v, w));

	adcx	eax, DWORD PTR [edi+96]
	mov	DWORD PTR [esi+96], eax
; File z:\sources\lunor\repos\rougemeilland\palmtree.math.core.uint\palmtree.math.core.uint\autogenerated_inline_func.h

; 1339 :     c = _ADDX_UNIT_DIV(c, xp[25], yp[25], &zp[25]);

	mov	eax, DWORD PTR [esi+100]
; File z:\sources\lunor\repos\rougemeilland\palmtree.math.core.uint\palmtree.math.core.uint\pmc_inline_func.h

; 254  :         return (_addcarryx_u32(carry, u, v, w));

	adcx	eax, DWORD PTR [edi+100]
	mov	DWORD PTR [esi+100], eax
; File z:\sources\lunor\repos\rougemeilland\palmtree.math.core.uint\palmtree.math.core.uint\autogenerated_inline_func.h

; 1340 :     c = _ADDX_UNIT_DIV(c, xp[26], yp[26], &zp[26]);

	mov	eax, DWORD PTR [esi+104]
; File z:\sources\lunor\repos\rougemeilland\palmtree.math.core.uint\palmtree.math.core.uint\pmc_inline_func.h

; 254  :         return (_addcarryx_u32(carry, u, v, w));

	adcx	eax, DWORD PTR [edi+104]
	mov	DWORD PTR [esi+104], eax
; File z:\sources\lunor\repos\rougemeilland\palmtree.math.core.uint\palmtree.math.core.uint\autogenerated_inline_func.h

; 1341 :     c = _ADDX_UNIT_DIV(c, xp[27], yp[27], &zp[27]);

	mov	eax, DWORD PTR [esi+108]
; File z:\sources\lunor\repos\rougemeilland\palmtree.math.core.uint\palmtree.math.core.uint\pmc_inline_func.h

; 254  :         return (_addcarryx_u32(carry, u, v, w));

	adcx	eax, DWORD PTR [edi+108]
	mov	DWORD PTR [esi+108], eax
; File z:\sources\lunor\repos\rougemeilland\palmtree.math.core.uint\palmtree.math.core.uint\autogenerated_inline_func.h

; 1342 :     c = _ADDX_UNIT_DIV(c, xp[28], yp[28], &zp[28]);

	mov	eax, DWORD PTR [esi+112]
; File z:\sources\lunor\repos\rougemeilland\palmtree.math.core.uint\palmtree.math.core.uint\pmc_inline_func.h

; 254  :         return (_addcarryx_u32(carry, u, v, w));

	adcx	eax, DWORD PTR [edi+112]
	mov	DWORD PTR [esi+112], eax
; File z:\sources\lunor\repos\rougemeilland\palmtree.math.core.uint\palmtree.math.core.uint\autogenerated_inline_func.h

; 1343 :     c = _ADDX_UNIT_DIV(c, xp[29], yp[29], &zp[29]);

	mov	eax, DWORD PTR [esi+116]
; File z:\sources\lunor\repos\rougemeilland\palmtree.math.core.uint\palmtree.math.core.uint\pmc_inline_func.h

; 254  :         return (_addcarryx_u32(carry, u, v, w));

	adcx	eax, DWORD PTR [edi+116]
	mov	DWORD PTR [esi+116], eax
; File z:\sources\lunor\repos\rougemeilland\palmtree.math.core.uint\palmtree.math.core.uint\autogenerated_inline_func.h

; 1344 :     c = _ADDX_UNIT_DIV(c, xp[30], yp[30], &zp[30]);

	mov	eax, DWORD PTR [esi+120]
; File z:\sources\lunor\repos\rougemeilland\palmtree.math.core.uint\palmtree.math.core.uint\pmc_inline_func.h

; 254  :         return (_addcarryx_u32(carry, u, v, w));

	adcx	eax, DWORD PTR [edi+120]
	mov	DWORD PTR [esi+120], eax
; File z:\sources\lunor\repos\rougemeilland\palmtree.math.core.uint\palmtree.math.core.uint\autogenerated_inline_func.h

; 1345 :     c = _ADDX_UNIT_DIV(c, xp[31], yp[31], &zp[31]);

	mov	eax, DWORD PTR [esi+124]
; File z:\sources\lunor\repos\rougemeilland\palmtree.math.core.uint\palmtree.math.core.uint\pmc_inline_func.h

; 254  :         return (_addcarryx_u32(carry, u, v, w));

	adcx	eax, DWORD PTR [edi+124]
	mov	DWORD PTR [esi+124], eax
	setb	dl
; File z:\sources\lunor\repos\rougemeilland\palmtree.math.core.uint\palmtree.math.core.uint\pmc_divrem.c

; 861  :         u_ptr += 32;

	sub	esi, -128				; ffffff80H

; 862  :         v_ptr += 32;

	sub	edi, -128				; ffffff80H
	mov	BYTE PTR _c$[ebp], dl

; 863  :         --count;

	sub	ecx, 1
	jne	$LL2@AddOneLine
$LN3@AddOneLine:

; 864  :     }
; 865  :     // この時点で未処理の桁は 32 ワード未満のはず
; 866  : 
; 867  :     // 未処理の桁が 16 ワード以上あるなら 16 ワード加算を行う。
; 868  :     if (v_count & 0x10)

	test	bl, 16					; 00000010H
	je	SHORT $LN4@AddOneLine

; 869  :     {
; 870  :         c = _ADD_16WORDS_ADCX_DIV(c, u_ptr, v_ptr, u_ptr);

	push	esi
	push	edi
	push	esi
	push	DWORD PTR _c$[ebp]
	call	__ADD_16WORDS_ADCX_DIV
	add	esp, 16					; 00000010H

; 871  :         u_ptr += 16;

	add	esi, 64					; 00000040H
	mov	dl, al

; 872  :         v_ptr += 16;

	add	edi, 64					; 00000040H
$LN4@AddOneLine:

; 873  :     }
; 874  :     // この時点で未処理の桁は 16 ワード未満のはず
; 875  : 
; 876  :     // 未処理の桁が 8 ワード以上あるなら 8 ワード加算を行う。
; 877  :     if (v_count & 0x8)

	test	bl, 8
	je	SHORT $LN5@AddOneLine
; File z:\sources\lunor\repos\rougemeilland\palmtree.math.core.uint\palmtree.math.core.uint\autogenerated_inline_func.h

; 3626 :     c = _ADDX_UNIT_DIV(c, xp[0], yp[0], &zp[0]);

	mov	ecx, DWORD PTR [esi]
; File z:\sources\lunor\repos\rougemeilland\palmtree.math.core.uint\palmtree.math.core.uint\pmc_inline_func.h

; 254  :         return (_addcarryx_u32(carry, u, v, w));

	add	dl, 255					; 000000ffH
	adcx	ecx, DWORD PTR [edi]
	mov	DWORD PTR [esi], ecx
; File z:\sources\lunor\repos\rougemeilland\palmtree.math.core.uint\palmtree.math.core.uint\autogenerated_inline_func.h

; 3627 :     c = _ADDX_UNIT_DIV(c, xp[1], yp[1], &zp[1]);

	mov	eax, DWORD PTR [esi+4]
; File z:\sources\lunor\repos\rougemeilland\palmtree.math.core.uint\palmtree.math.core.uint\pmc_inline_func.h

; 254  :         return (_addcarryx_u32(carry, u, v, w));

	adcx	eax, DWORD PTR [edi+4]
	mov	DWORD PTR [esi+4], eax
; File z:\sources\lunor\repos\rougemeilland\palmtree.math.core.uint\palmtree.math.core.uint\autogenerated_inline_func.h

; 3628 :     c = _ADDX_UNIT_DIV(c, xp[2], yp[2], &zp[2]);

	mov	eax, DWORD PTR [esi+8]
; File z:\sources\lunor\repos\rougemeilland\palmtree.math.core.uint\palmtree.math.core.uint\pmc_inline_func.h

; 254  :         return (_addcarryx_u32(carry, u, v, w));

	adcx	eax, DWORD PTR [edi+8]
	mov	DWORD PTR [esi+8], eax
; File z:\sources\lunor\repos\rougemeilland\palmtree.math.core.uint\palmtree.math.core.uint\autogenerated_inline_func.h

; 3629 :     c = _ADDX_UNIT_DIV(c, xp[3], yp[3], &zp[3]);

	mov	eax, DWORD PTR [esi+12]
; File z:\sources\lunor\repos\rougemeilland\palmtree.math.core.uint\palmtree.math.core.uint\pmc_inline_func.h

; 254  :         return (_addcarryx_u32(carry, u, v, w));

	adcx	eax, DWORD PTR [edi+12]
	mov	DWORD PTR [esi+12], eax
; File z:\sources\lunor\repos\rougemeilland\palmtree.math.core.uint\palmtree.math.core.uint\autogenerated_inline_func.h

; 3630 :     c = _ADDX_UNIT_DIV(c, xp[4], yp[4], &zp[4]);

	mov	eax, DWORD PTR [esi+16]
; File z:\sources\lunor\repos\rougemeilland\palmtree.math.core.uint\palmtree.math.core.uint\pmc_inline_func.h

; 254  :         return (_addcarryx_u32(carry, u, v, w));

	adcx	eax, DWORD PTR [edi+16]
	mov	DWORD PTR [esi+16], eax
; File z:\sources\lunor\repos\rougemeilland\palmtree.math.core.uint\palmtree.math.core.uint\autogenerated_inline_func.h

; 3631 :     c = _ADDX_UNIT_DIV(c, xp[5], yp[5], &zp[5]);

	mov	eax, DWORD PTR [esi+20]
; File z:\sources\lunor\repos\rougemeilland\palmtree.math.core.uint\palmtree.math.core.uint\pmc_inline_func.h

; 254  :         return (_addcarryx_u32(carry, u, v, w));

	adcx	eax, DWORD PTR [edi+20]
	mov	DWORD PTR [esi+20], eax
; File z:\sources\lunor\repos\rougemeilland\palmtree.math.core.uint\palmtree.math.core.uint\autogenerated_inline_func.h

; 3632 :     c = _ADDX_UNIT_DIV(c, xp[6], yp[6], &zp[6]);

	mov	eax, DWORD PTR [esi+24]
; File z:\sources\lunor\repos\rougemeilland\palmtree.math.core.uint\palmtree.math.core.uint\pmc_inline_func.h

; 254  :         return (_addcarryx_u32(carry, u, v, w));

	adcx	eax, DWORD PTR [edi+24]
	mov	DWORD PTR [esi+24], eax
; File z:\sources\lunor\repos\rougemeilland\palmtree.math.core.uint\palmtree.math.core.uint\autogenerated_inline_func.h

; 3633 :     c = _ADDX_UNIT_DIV(c, xp[7], yp[7], &zp[7]);

	mov	eax, DWORD PTR [esi+28]
; File z:\sources\lunor\repos\rougemeilland\palmtree.math.core.uint\palmtree.math.core.uint\pmc_inline_func.h

; 254  :         return (_addcarryx_u32(carry, u, v, w));

	adcx	eax, DWORD PTR [edi+28]
	mov	DWORD PTR [esi+28], eax
	setb	dl
; File z:\sources\lunor\repos\rougemeilland\palmtree.math.core.uint\palmtree.math.core.uint\pmc_divrem.c

; 880  :         u_ptr += 8;

	add	esi, 32					; 00000020H

; 881  :         v_ptr += 8;

	add	edi, 32					; 00000020H
$LN5@AddOneLine:

; 882  :     }
; 883  :     // この時点で未処理の桁は 8 ワード未満のはず
; 884  : 
; 885  :     // 未処理の桁が 4 ワード以上あるなら 4 ワード加算を行う。
; 886  :     if (v_count & 0x4)

	test	bl, 4
	je	SHORT $LN6@AddOneLine
; File z:\sources\lunor\repos\rougemeilland\palmtree.math.core.uint\palmtree.math.core.uint\autogenerated_inline_func.h

; 4166 :     c = _ADDX_UNIT_DIV(c, xp[0], yp[0], &zp[0]);

	mov	eax, DWORD PTR [esi]
; File z:\sources\lunor\repos\rougemeilland\palmtree.math.core.uint\palmtree.math.core.uint\pmc_inline_func.h

; 254  :         return (_addcarryx_u32(carry, u, v, w));

	add	dl, 255					; 000000ffH
	adcx	eax, DWORD PTR [edi]
	mov	DWORD PTR [esi], eax
; File z:\sources\lunor\repos\rougemeilland\palmtree.math.core.uint\palmtree.math.core.uint\autogenerated_inline_func.h

; 4167 :     c = _ADDX_UNIT_DIV(c, xp[1], yp[1], &zp[1]);

	mov	eax, DWORD PTR [esi+4]
; File z:\sources\lunor\repos\rougemeilland\palmtree.math.core.uint\palmtree.math.core.uint\pmc_inline_func.h

; 254  :         return (_addcarryx_u32(carry, u, v, w));

	adcx	eax, DWORD PTR [edi+4]
	mov	DWORD PTR [esi+4], eax
; File z:\sources\lunor\repos\rougemeilland\palmtree.math.core.uint\palmtree.math.core.uint\autogenerated_inline_func.h

; 4168 :     c = _ADDX_UNIT_DIV(c, xp[2], yp[2], &zp[2]);

	mov	eax, DWORD PTR [esi+8]
; File z:\sources\lunor\repos\rougemeilland\palmtree.math.core.uint\palmtree.math.core.uint\pmc_inline_func.h

; 254  :         return (_addcarryx_u32(carry, u, v, w));

	adcx	eax, DWORD PTR [edi+8]
	mov	DWORD PTR [esi+8], eax
; File z:\sources\lunor\repos\rougemeilland\palmtree.math.core.uint\palmtree.math.core.uint\autogenerated_inline_func.h

; 4169 :     c = _ADDX_UNIT_DIV(c, xp[3], yp[3], &zp[3]);

	mov	eax, DWORD PTR [esi+12]
; File z:\sources\lunor\repos\rougemeilland\palmtree.math.core.uint\palmtree.math.core.uint\pmc_inline_func.h

; 254  :         return (_addcarryx_u32(carry, u, v, w));

	adcx	eax, DWORD PTR [edi+12]
	mov	DWORD PTR [esi+12], eax
	setb	dl
; File z:\sources\lunor\repos\rougemeilland\palmtree.math.core.uint\palmtree.math.core.uint\pmc_divrem.c

; 889  :         u_ptr += 4;

	add	esi, 16					; 00000010H

; 890  :         v_ptr += 4;

	add	edi, 16					; 00000010H
$LN6@AddOneLine:

; 891  :     }
; 892  :     // この時点で未処理の桁は 4 ワード未満のはず
; 893  : 
; 894  :     // 未処理の桁が 2 ワード以上あるなら 2 ワード加算を行う。
; 895  :     if (v_count & 0x2)

	test	bl, 2
	je	SHORT $LN7@AddOneLine
; File z:\sources\lunor\repos\rougemeilland\palmtree.math.core.uint\palmtree.math.core.uint\autogenerated_inline_func.h

; 4552 :     c = _ADDX_UNIT_DIV(c, xp[0], yp[0], &zp[0]);

	mov	eax, DWORD PTR [esi]
; File z:\sources\lunor\repos\rougemeilland\palmtree.math.core.uint\palmtree.math.core.uint\pmc_inline_func.h

; 254  :         return (_addcarryx_u32(carry, u, v, w));

	add	dl, 255					; 000000ffH
	adcx	eax, DWORD PTR [edi]
	mov	DWORD PTR [esi], eax
; File z:\sources\lunor\repos\rougemeilland\palmtree.math.core.uint\palmtree.math.core.uint\autogenerated_inline_func.h

; 4553 :     c = _ADDX_UNIT_DIV(c, xp[1], yp[1], &zp[1]);

	mov	eax, DWORD PTR [esi+4]
; File z:\sources\lunor\repos\rougemeilland\palmtree.math.core.uint\palmtree.math.core.uint\pmc_inline_func.h

; 254  :         return (_addcarryx_u32(carry, u, v, w));

	adcx	eax, DWORD PTR [edi+4]
	mov	DWORD PTR [esi+4], eax
	setb	dl
; File z:\sources\lunor\repos\rougemeilland\palmtree.math.core.uint\palmtree.math.core.uint\pmc_divrem.c

; 898  :         u_ptr += 2;

	add	esi, 8

; 899  :         v_ptr += 2;

	add	edi, 8
$LN7@AddOneLine:

; 900  :     }
; 901  :     // この時点で未処理の桁は 2 ワード未満のはず
; 902  : 
; 903  :     // 未処理の桁が 1 ワード以上あるなら 1 ワード加算を行う。
; 904  :     if (v_count & 0x1)

	test	bl, 1
	je	SHORT $LN8@AddOneLine

; 905  :     {
; 906  :         c = _ADD_UNIT_DIV(c, *u_ptr, *v_ptr, u_ptr);

	mov	eax, DWORD PTR [esi]
; File z:\sources\lunor\repos\rougemeilland\palmtree.math.core.uint\palmtree.math.core.uint\pmc_inline_func.h

; 226  :         return (_addcarry_u32(carry, u, v, w));

	add	dl, 255					; 000000ffH
	adc	eax, DWORD PTR [edi]
	mov	DWORD PTR [esi], eax
	setb	dl
; File z:\sources\lunor\repos\rougemeilland\palmtree.math.core.uint\palmtree.math.core.uint\pmc_divrem.c

; 907  :         ++u_ptr;

	add	esi, 4
$LN8@AddOneLine:

; 908  :         ++v_ptr;
; 909  :     }
; 910  : 
; 911  :     // 残りの桁の繰り上がりを計算する。
; 912  :     DoCarry(c, u_ptr, u_buf + u_buf_len + 1 - u_ptr);

	mov	eax, DWORD PTR _u_buf_len$[ebp]
	lea	ecx, DWORD PTR [eax*4+4]
	sub	ecx, esi
	add	ecx, DWORD PTR _u_buf$[ebp]
	sar	ecx, 2

; 759  :         if (u_count <= 0)

	test	ecx, ecx
	je	SHORT $LN131@AddOneLine
	npad	4
$LL113@AddOneLine:

; 760  :         {
; 761  :             // u の最上位まで達してしまった場合
; 762  :             return;
; 763  :         }
; 764  :         else if (c)

	test	dl, dl
	je	SHORT $LN131@AddOneLine

; 765  :         {
; 766  :             // u の最上位に達しておらず、かつキャリーが立っている場合
; 767  : 
; 768  :             // 繰り上がりを継続する
; 769  :             c = _ADD_UNIT_DIV(c, *u_ptr, 0, u_ptr);

	mov	eax, DWORD PTR [esi]
; File z:\sources\lunor\repos\rougemeilland\palmtree.math.core.uint\palmtree.math.core.uint\pmc_inline_func.h

; 226  :         return (_addcarry_u32(carry, u, v, w));

	add	dl, 255					; 000000ffH
	adc	eax, 0
	mov	DWORD PTR [esi], eax
	setb	dl
; File z:\sources\lunor\repos\rougemeilland\palmtree.math.core.uint\palmtree.math.core.uint\pmc_divrem.c

; 770  :             ++u_ptr;

	add	esi, 4

; 771  :             --u_count;

	sub	ecx, 1
	jne	SHORT $LL113@AddOneLine
$LN131@AddOneLine:
	pop	edi

; 913  : }

	pop	esi
	pop	ebx
	pop	ebp
	ret	0
_AddOneLineX ENDP
_TEXT	ENDS
; Function compile flags: /Ogtp
; File z:\sources\lunor\repos\rougemeilland\palmtree.math.core.uint\palmtree.math.core.uint\pmc_divrem.c
; File z:\sources\lunor\repos\rougemeilland\palmtree.math.core.uint\palmtree.math.core.uint\autogenerated_inline_func.h
; File z:\sources\lunor\repos\rougemeilland\palmtree.math.core.uint\palmtree.math.core.uint\pmc_inline_func.h
; File z:\sources\lunor\repos\rougemeilland\palmtree.math.core.uint\palmtree.math.core.uint\autogenerated_inline_func.h
; File z:\sources\lunor\repos\rougemeilland\palmtree.math.core.uint\palmtree.math.core.uint\pmc_inline_func.h
; File z:\sources\lunor\repos\rougemeilland\palmtree.math.core.uint\palmtree.math.core.uint\autogenerated_inline_func.h
; File z:\sources\lunor\repos\rougemeilland\palmtree.math.core.uint\palmtree.math.core.uint\pmc_inline_func.h
; File z:\sources\lunor\repos\rougemeilland\palmtree.math.core.uint\palmtree.math.core.uint\autogenerated_inline_func.h
; File z:\sources\lunor\repos\rougemeilland\palmtree.math.core.uint\palmtree.math.core.uint\pmc_inline_func.h
; File z:\sources\lunor\repos\rougemeilland\palmtree.math.core.uint\palmtree.math.core.uint\autogenerated_inline_func.h
; File z:\sources\lunor\repos\rougemeilland\palmtree.math.core.uint\palmtree.math.core.uint\pmc_inline_func.h
; File z:\sources\lunor\repos\rougemeilland\palmtree.math.core.uint\palmtree.math.core.uint\autogenerated_inline_func.h
; File z:\sources\lunor\repos\rougemeilland\palmtree.math.core.uint\palmtree.math.core.uint\pmc_inline_func.h
; File z:\sources\lunor\repos\rougemeilland\palmtree.math.core.uint\palmtree.math.core.uint\autogenerated_inline_func.h
; File z:\sources\lunor\repos\rougemeilland\palmtree.math.core.uint\palmtree.math.core.uint\pmc_inline_func.h
; File z:\sources\lunor\repos\rougemeilland\palmtree.math.core.uint\palmtree.math.core.uint\autogenerated_inline_func.h
; File z:\sources\lunor\repos\rougemeilland\palmtree.math.core.uint\palmtree.math.core.uint\pmc_inline_func.h
; File z:\sources\lunor\repos\rougemeilland\palmtree.math.core.uint\palmtree.math.core.uint\autogenerated_inline_func.h
; File z:\sources\lunor\repos\rougemeilland\palmtree.math.core.uint\palmtree.math.core.uint\pmc_inline_func.h
; File z:\sources\lunor\repos\rougemeilland\palmtree.math.core.uint\palmtree.math.core.uint\autogenerated_inline_func.h
; File z:\sources\lunor\repos\rougemeilland\palmtree.math.core.uint\palmtree.math.core.uint\pmc_inline_func.h
; File z:\sources\lunor\repos\rougemeilland\palmtree.math.core.uint\palmtree.math.core.uint\autogenerated_inline_func.h
; File z:\sources\lunor\repos\rougemeilland\palmtree.math.core.uint\palmtree.math.core.uint\pmc_inline_func.h
; File z:\sources\lunor\repos\rougemeilland\palmtree.math.core.uint\palmtree.math.core.uint\autogenerated_inline_func.h
; File z:\sources\lunor\repos\rougemeilland\palmtree.math.core.uint\palmtree.math.core.uint\pmc_inline_func.h
; File z:\sources\lunor\repos\rougemeilland\palmtree.math.core.uint\palmtree.math.core.uint\autogenerated_inline_func.h
; File z:\sources\lunor\repos\rougemeilland\palmtree.math.core.uint\palmtree.math.core.uint\pmc_inline_func.h
; File z:\sources\lunor\repos\rougemeilland\palmtree.math.core.uint\palmtree.math.core.uint\autogenerated_inline_func.h
; File z:\sources\lunor\repos\rougemeilland\palmtree.math.core.uint\palmtree.math.core.uint\pmc_inline_func.h
; File z:\sources\lunor\repos\rougemeilland\palmtree.math.core.uint\palmtree.math.core.uint\autogenerated_inline_func.h
; File z:\sources\lunor\repos\rougemeilland\palmtree.math.core.uint\palmtree.math.core.uint\pmc_inline_func.h
; File z:\sources\lunor\repos\rougemeilland\palmtree.math.core.uint\palmtree.math.core.uint\autogenerated_inline_func.h
; File z:\sources\lunor\repos\rougemeilland\palmtree.math.core.uint\palmtree.math.core.uint\pmc_inline_func.h
; File z:\sources\lunor\repos\rougemeilland\palmtree.math.core.uint\palmtree.math.core.uint\autogenerated_inline_func.h
; File z:\sources\lunor\repos\rougemeilland\palmtree.math.core.uint\palmtree.math.core.uint\pmc_inline_func.h
; File z:\sources\lunor\repos\rougemeilland\palmtree.math.core.uint\palmtree.math.core.uint\autogenerated_inline_func.h
; File z:\sources\lunor\repos\rougemeilland\palmtree.math.core.uint\palmtree.math.core.uint\pmc_inline_func.h
; File z:\sources\lunor\repos\rougemeilland\palmtree.math.core.uint\palmtree.math.core.uint\autogenerated_inline_func.h
; File z:\sources\lunor\repos\rougemeilland\palmtree.math.core.uint\palmtree.math.core.uint\pmc_inline_func.h
; File z:\sources\lunor\repos\rougemeilland\palmtree.math.core.uint\palmtree.math.core.uint\autogenerated_inline_func.h
; File z:\sources\lunor\repos\rougemeilland\palmtree.math.core.uint\palmtree.math.core.uint\pmc_inline_func.h
; File z:\sources\lunor\repos\rougemeilland\palmtree.math.core.uint\palmtree.math.core.uint\autogenerated_inline_func.h
; File z:\sources\lunor\repos\rougemeilland\palmtree.math.core.uint\palmtree.math.core.uint\pmc_inline_func.h
; File z:\sources\lunor\repos\rougemeilland\palmtree.math.core.uint\palmtree.math.core.uint\autogenerated_inline_func.h
; File z:\sources\lunor\repos\rougemeilland\palmtree.math.core.uint\palmtree.math.core.uint\pmc_inline_func.h
; File z:\sources\lunor\repos\rougemeilland\palmtree.math.core.uint\palmtree.math.core.uint\autogenerated_inline_func.h
; File z:\sources\lunor\repos\rougemeilland\palmtree.math.core.uint\palmtree.math.core.uint\pmc_inline_func.h
; File z:\sources\lunor\repos\rougemeilland\palmtree.math.core.uint\palmtree.math.core.uint\autogenerated_inline_func.h
; File z:\sources\lunor\repos\rougemeilland\palmtree.math.core.uint\palmtree.math.core.uint\pmc_inline_func.h
; File z:\sources\lunor\repos\rougemeilland\palmtree.math.core.uint\palmtree.math.core.uint\autogenerated_inline_func.h
; File z:\sources\lunor\repos\rougemeilland\palmtree.math.core.uint\palmtree.math.core.uint\pmc_inline_func.h
; File z:\sources\lunor\repos\rougemeilland\palmtree.math.core.uint\palmtree.math.core.uint\autogenerated_inline_func.h
; File z:\sources\lunor\repos\rougemeilland\palmtree.math.core.uint\palmtree.math.core.uint\pmc_inline_func.h
; File z:\sources\lunor\repos\rougemeilland\palmtree.math.core.uint\palmtree.math.core.uint\autogenerated_inline_func.h
; File z:\sources\lunor\repos\rougemeilland\palmtree.math.core.uint\palmtree.math.core.uint\pmc_inline_func.h
; File z:\sources\lunor\repos\rougemeilland\palmtree.math.core.uint\palmtree.math.core.uint\autogenerated_inline_func.h
; File z:\sources\lunor\repos\rougemeilland\palmtree.math.core.uint\palmtree.math.core.uint\pmc_inline_func.h
; File z:\sources\lunor\repos\rougemeilland\palmtree.math.core.uint\palmtree.math.core.uint\autogenerated_inline_func.h
; File z:\sources\lunor\repos\rougemeilland\palmtree.math.core.uint\palmtree.math.core.uint\pmc_inline_func.h
; File z:\sources\lunor\repos\rougemeilland\palmtree.math.core.uint\palmtree.math.core.uint\autogenerated_inline_func.h
; File z:\sources\lunor\repos\rougemeilland\palmtree.math.core.uint\palmtree.math.core.uint\pmc_inline_func.h
; File z:\sources\lunor\repos\rougemeilland\palmtree.math.core.uint\palmtree.math.core.uint\autogenerated_inline_func.h
; File z:\sources\lunor\repos\rougemeilland\palmtree.math.core.uint\palmtree.math.core.uint\pmc_inline_func.h
; File z:\sources\lunor\repos\rougemeilland\palmtree.math.core.uint\palmtree.math.core.uint\autogenerated_inline_func.h
; File z:\sources\lunor\repos\rougemeilland\palmtree.math.core.uint\palmtree.math.core.uint\pmc_inline_func.h
; File z:\sources\lunor\repos\rougemeilland\palmtree.math.core.uint\palmtree.math.core.uint\pmc_divrem.c
; File z:\sources\lunor\repos\rougemeilland\palmtree.math.core.uint\palmtree.math.core.uint\autogenerated_inline_func.h
; File z:\sources\lunor\repos\rougemeilland\palmtree.math.core.uint\palmtree.math.core.uint\pmc_inline_func.h
; File z:\sources\lunor\repos\rougemeilland\palmtree.math.core.uint\palmtree.math.core.uint\autogenerated_inline_func.h
; File z:\sources\lunor\repos\rougemeilland\palmtree.math.core.uint\palmtree.math.core.uint\pmc_inline_func.h
; File z:\sources\lunor\repos\rougemeilland\palmtree.math.core.uint\palmtree.math.core.uint\autogenerated_inline_func.h
; File z:\sources\lunor\repos\rougemeilland\palmtree.math.core.uint\palmtree.math.core.uint\pmc_inline_func.h
; File z:\sources\lunor\repos\rougemeilland\palmtree.math.core.uint\palmtree.math.core.uint\autogenerated_inline_func.h
; File z:\sources\lunor\repos\rougemeilland\palmtree.math.core.uint\palmtree.math.core.uint\pmc_inline_func.h
; File z:\sources\lunor\repos\rougemeilland\palmtree.math.core.uint\palmtree.math.core.uint\autogenerated_inline_func.h
; File z:\sources\lunor\repos\rougemeilland\palmtree.math.core.uint\palmtree.math.core.uint\pmc_inline_func.h
; File z:\sources\lunor\repos\rougemeilland\palmtree.math.core.uint\palmtree.math.core.uint\autogenerated_inline_func.h
; File z:\sources\lunor\repos\rougemeilland\palmtree.math.core.uint\palmtree.math.core.uint\pmc_inline_func.h
; File z:\sources\lunor\repos\rougemeilland\palmtree.math.core.uint\palmtree.math.core.uint\autogenerated_inline_func.h
; File z:\sources\lunor\repos\rougemeilland\palmtree.math.core.uint\palmtree.math.core.uint\pmc_inline_func.h
; File z:\sources\lunor\repos\rougemeilland\palmtree.math.core.uint\palmtree.math.core.uint\autogenerated_inline_func.h
; File z:\sources\lunor\repos\rougemeilland\palmtree.math.core.uint\palmtree.math.core.uint\pmc_inline_func.h
; File z:\sources\lunor\repos\rougemeilland\palmtree.math.core.uint\palmtree.math.core.uint\pmc_divrem.c
; File z:\sources\lunor\repos\rougemeilland\palmtree.math.core.uint\palmtree.math.core.uint\autogenerated_inline_func.h
; File z:\sources\lunor\repos\rougemeilland\palmtree.math.core.uint\palmtree.math.core.uint\pmc_inline_func.h
; File z:\sources\lunor\repos\rougemeilland\palmtree.math.core.uint\palmtree.math.core.uint\autogenerated_inline_func.h
; File z:\sources\lunor\repos\rougemeilland\palmtree.math.core.uint\palmtree.math.core.uint\pmc_inline_func.h
; File z:\sources\lunor\repos\rougemeilland\palmtree.math.core.uint\palmtree.math.core.uint\autogenerated_inline_func.h
; File z:\sources\lunor\repos\rougemeilland\palmtree.math.core.uint\palmtree.math.core.uint\pmc_inline_func.h
; File z:\sources\lunor\repos\rougemeilland\palmtree.math.core.uint\palmtree.math.core.uint\autogenerated_inline_func.h
; File z:\sources\lunor\repos\rougemeilland\palmtree.math.core.uint\palmtree.math.core.uint\pmc_inline_func.h
; File z:\sources\lunor\repos\rougemeilland\palmtree.math.core.uint\palmtree.math.core.uint\pmc_divrem.c
; File z:\sources\lunor\repos\rougemeilland\palmtree.math.core.uint\palmtree.math.core.uint\autogenerated_inline_func.h
; File z:\sources\lunor\repos\rougemeilland\palmtree.math.core.uint\palmtree.math.core.uint\pmc_inline_func.h
; File z:\sources\lunor\repos\rougemeilland\palmtree.math.core.uint\palmtree.math.core.uint\autogenerated_inline_func.h
; File z:\sources\lunor\repos\rougemeilland\palmtree.math.core.uint\palmtree.math.core.uint\pmc_inline_func.h
; File z:\sources\lunor\repos\rougemeilland\palmtree.math.core.uint\palmtree.math.core.uint\pmc_divrem.c
; File z:\sources\lunor\repos\rougemeilland\palmtree.math.core.uint\palmtree.math.core.uint\pmc_inline_func.h
; File z:\sources\lunor\repos\rougemeilland\palmtree.math.core.uint\palmtree.math.core.uint\pmc_divrem.c
; File z:\sources\lunor\repos\rougemeilland\palmtree.math.core.uint\palmtree.math.core.uint\pmc_inline_func.h
; File z:\sources\lunor\repos\rougemeilland\palmtree.math.core.uint\palmtree.math.core.uint\pmc_divrem.c
;	COMDAT _AddOneLine
_TEXT	SEGMENT
_u_buf$ = 8						; size = 4
_u_buf_len$ = 12					; size = 4
_v_buf$ = 16						; size = 4
_v_buf_len$ = 20					; size = 4
_c$ = 24						; size = 1
_q_index$ = 24						; size = 4
_AddOneLine PROC					; COMDAT

; 784  : {

	push	ebp
	mov	ebp, esp

; 785  :     __UNIT_TYPE_DIV* u_ptr = &u_buf[q_index];

	mov	eax, DWORD PTR _q_index$[ebp]

; 786  :     __UNIT_TYPE_DIV* v_ptr = &v_buf[0];
; 787  :     __UNIT_TYPE v_count = v_buf_len;
; 788  :     char c = 0;

	xor	dl, dl
	mov	ecx, DWORD PTR _u_buf$[ebp]
	push	ebx

; 789  : 
; 790  :     // まず 32 ワードずつ加算をする。
; 791  :     __UNIT_TYPE count = v_count >> 5;

	mov	ebx, DWORD PTR _v_buf_len$[ebp]
	push	esi
	lea	esi, DWORD PTR [ecx+eax*4]
	mov	BYTE PTR _c$[ebp], dl
	mov	ecx, ebx
	shr	ecx, 5
	push	edi
	mov	edi, DWORD PTR _v_buf$[ebp]

; 792  :     while (count != 0)

	test	ecx, ecx
	je	$LN3@AddOneLine
$LL2@AddOneLine:
; File z:\sources\lunor\repos\rougemeilland\palmtree.math.core.uint\palmtree.math.core.uint\autogenerated_inline_func.h

; 1061 :     c = _ADD_UNIT_DIV(c, xp[0], yp[0], &zp[0]);

	mov	eax, DWORD PTR [esi]
; File z:\sources\lunor\repos\rougemeilland\palmtree.math.core.uint\palmtree.math.core.uint\pmc_inline_func.h

; 226  :         return (_addcarry_u32(carry, u, v, w));

	add	dl, 255					; 000000ffH
	adc	eax, DWORD PTR [edi]
	mov	DWORD PTR [esi], eax
; File z:\sources\lunor\repos\rougemeilland\palmtree.math.core.uint\palmtree.math.core.uint\autogenerated_inline_func.h

; 1062 :     c = _ADD_UNIT_DIV(c, xp[1], yp[1], &zp[1]);

	mov	eax, DWORD PTR [esi+4]
; File z:\sources\lunor\repos\rougemeilland\palmtree.math.core.uint\palmtree.math.core.uint\pmc_inline_func.h

; 226  :         return (_addcarry_u32(carry, u, v, w));

	adc	eax, DWORD PTR [edi+4]
	mov	DWORD PTR [esi+4], eax
; File z:\sources\lunor\repos\rougemeilland\palmtree.math.core.uint\palmtree.math.core.uint\autogenerated_inline_func.h

; 1063 :     c = _ADD_UNIT_DIV(c, xp[2], yp[2], &zp[2]);

	mov	eax, DWORD PTR [esi+8]
; File z:\sources\lunor\repos\rougemeilland\palmtree.math.core.uint\palmtree.math.core.uint\pmc_inline_func.h

; 226  :         return (_addcarry_u32(carry, u, v, w));

	adc	eax, DWORD PTR [edi+8]
	mov	DWORD PTR [esi+8], eax
; File z:\sources\lunor\repos\rougemeilland\palmtree.math.core.uint\palmtree.math.core.uint\autogenerated_inline_func.h

; 1064 :     c = _ADD_UNIT_DIV(c, xp[3], yp[3], &zp[3]);

	mov	eax, DWORD PTR [esi+12]
; File z:\sources\lunor\repos\rougemeilland\palmtree.math.core.uint\palmtree.math.core.uint\pmc_inline_func.h

; 226  :         return (_addcarry_u32(carry, u, v, w));

	adc	eax, DWORD PTR [edi+12]
	mov	DWORD PTR [esi+12], eax
; File z:\sources\lunor\repos\rougemeilland\palmtree.math.core.uint\palmtree.math.core.uint\autogenerated_inline_func.h

; 1065 :     c = _ADD_UNIT_DIV(c, xp[4], yp[4], &zp[4]);

	mov	eax, DWORD PTR [esi+16]
; File z:\sources\lunor\repos\rougemeilland\palmtree.math.core.uint\palmtree.math.core.uint\pmc_inline_func.h

; 226  :         return (_addcarry_u32(carry, u, v, w));

	adc	eax, DWORD PTR [edi+16]
	mov	DWORD PTR [esi+16], eax
; File z:\sources\lunor\repos\rougemeilland\palmtree.math.core.uint\palmtree.math.core.uint\autogenerated_inline_func.h

; 1066 :     c = _ADD_UNIT_DIV(c, xp[5], yp[5], &zp[5]);

	mov	eax, DWORD PTR [esi+20]
; File z:\sources\lunor\repos\rougemeilland\palmtree.math.core.uint\palmtree.math.core.uint\pmc_inline_func.h

; 226  :         return (_addcarry_u32(carry, u, v, w));

	adc	eax, DWORD PTR [edi+20]
	mov	DWORD PTR [esi+20], eax
; File z:\sources\lunor\repos\rougemeilland\palmtree.math.core.uint\palmtree.math.core.uint\autogenerated_inline_func.h

; 1067 :     c = _ADD_UNIT_DIV(c, xp[6], yp[6], &zp[6]);

	mov	eax, DWORD PTR [esi+24]
; File z:\sources\lunor\repos\rougemeilland\palmtree.math.core.uint\palmtree.math.core.uint\pmc_inline_func.h

; 226  :         return (_addcarry_u32(carry, u, v, w));

	adc	eax, DWORD PTR [edi+24]
	mov	DWORD PTR [esi+24], eax
; File z:\sources\lunor\repos\rougemeilland\palmtree.math.core.uint\palmtree.math.core.uint\autogenerated_inline_func.h

; 1068 :     c = _ADD_UNIT_DIV(c, xp[7], yp[7], &zp[7]);

	mov	eax, DWORD PTR [esi+28]
; File z:\sources\lunor\repos\rougemeilland\palmtree.math.core.uint\palmtree.math.core.uint\pmc_inline_func.h

; 226  :         return (_addcarry_u32(carry, u, v, w));

	adc	eax, DWORD PTR [edi+28]
	mov	DWORD PTR [esi+28], eax
; File z:\sources\lunor\repos\rougemeilland\palmtree.math.core.uint\palmtree.math.core.uint\autogenerated_inline_func.h

; 1069 :     c = _ADD_UNIT_DIV(c, xp[8], yp[8], &zp[8]);

	mov	eax, DWORD PTR [esi+32]
; File z:\sources\lunor\repos\rougemeilland\palmtree.math.core.uint\palmtree.math.core.uint\pmc_inline_func.h

; 226  :         return (_addcarry_u32(carry, u, v, w));

	adc	eax, DWORD PTR [edi+32]
	mov	DWORD PTR [esi+32], eax
; File z:\sources\lunor\repos\rougemeilland\palmtree.math.core.uint\palmtree.math.core.uint\autogenerated_inline_func.h

; 1070 :     c = _ADD_UNIT_DIV(c, xp[9], yp[9], &zp[9]);

	mov	eax, DWORD PTR [esi+36]
; File z:\sources\lunor\repos\rougemeilland\palmtree.math.core.uint\palmtree.math.core.uint\pmc_inline_func.h

; 226  :         return (_addcarry_u32(carry, u, v, w));

	adc	eax, DWORD PTR [edi+36]
	mov	DWORD PTR [esi+36], eax
; File z:\sources\lunor\repos\rougemeilland\palmtree.math.core.uint\palmtree.math.core.uint\autogenerated_inline_func.h

; 1071 :     c = _ADD_UNIT_DIV(c, xp[10], yp[10], &zp[10]);

	mov	eax, DWORD PTR [esi+40]
; File z:\sources\lunor\repos\rougemeilland\palmtree.math.core.uint\palmtree.math.core.uint\pmc_inline_func.h

; 226  :         return (_addcarry_u32(carry, u, v, w));

	adc	eax, DWORD PTR [edi+40]
	mov	DWORD PTR [esi+40], eax
; File z:\sources\lunor\repos\rougemeilland\palmtree.math.core.uint\palmtree.math.core.uint\autogenerated_inline_func.h

; 1072 :     c = _ADD_UNIT_DIV(c, xp[11], yp[11], &zp[11]);

	mov	eax, DWORD PTR [esi+44]
; File z:\sources\lunor\repos\rougemeilland\palmtree.math.core.uint\palmtree.math.core.uint\pmc_inline_func.h

; 226  :         return (_addcarry_u32(carry, u, v, w));

	adc	eax, DWORD PTR [edi+44]
	mov	DWORD PTR [esi+44], eax
; File z:\sources\lunor\repos\rougemeilland\palmtree.math.core.uint\palmtree.math.core.uint\autogenerated_inline_func.h

; 1073 :     c = _ADD_UNIT_DIV(c, xp[12], yp[12], &zp[12]);

	mov	eax, DWORD PTR [esi+48]
; File z:\sources\lunor\repos\rougemeilland\palmtree.math.core.uint\palmtree.math.core.uint\pmc_inline_func.h

; 226  :         return (_addcarry_u32(carry, u, v, w));

	adc	eax, DWORD PTR [edi+48]
	mov	DWORD PTR [esi+48], eax
; File z:\sources\lunor\repos\rougemeilland\palmtree.math.core.uint\palmtree.math.core.uint\autogenerated_inline_func.h

; 1074 :     c = _ADD_UNIT_DIV(c, xp[13], yp[13], &zp[13]);

	mov	eax, DWORD PTR [esi+52]
; File z:\sources\lunor\repos\rougemeilland\palmtree.math.core.uint\palmtree.math.core.uint\pmc_inline_func.h

; 226  :         return (_addcarry_u32(carry, u, v, w));

	adc	eax, DWORD PTR [edi+52]
	mov	DWORD PTR [esi+52], eax
; File z:\sources\lunor\repos\rougemeilland\palmtree.math.core.uint\palmtree.math.core.uint\autogenerated_inline_func.h

; 1075 :     c = _ADD_UNIT_DIV(c, xp[14], yp[14], &zp[14]);

	mov	eax, DWORD PTR [esi+56]
; File z:\sources\lunor\repos\rougemeilland\palmtree.math.core.uint\palmtree.math.core.uint\pmc_inline_func.h

; 226  :         return (_addcarry_u32(carry, u, v, w));

	adc	eax, DWORD PTR [edi+56]
	mov	DWORD PTR [esi+56], eax
; File z:\sources\lunor\repos\rougemeilland\palmtree.math.core.uint\palmtree.math.core.uint\autogenerated_inline_func.h

; 1076 :     c = _ADD_UNIT_DIV(c, xp[15], yp[15], &zp[15]);

	mov	eax, DWORD PTR [esi+60]
; File z:\sources\lunor\repos\rougemeilland\palmtree.math.core.uint\palmtree.math.core.uint\pmc_inline_func.h

; 226  :         return (_addcarry_u32(carry, u, v, w));

	adc	eax, DWORD PTR [edi+60]
	mov	DWORD PTR [esi+60], eax
; File z:\sources\lunor\repos\rougemeilland\palmtree.math.core.uint\palmtree.math.core.uint\autogenerated_inline_func.h

; 1077 :     c = _ADD_UNIT_DIV(c, xp[16], yp[16], &zp[16]);

	mov	eax, DWORD PTR [esi+64]
; File z:\sources\lunor\repos\rougemeilland\palmtree.math.core.uint\palmtree.math.core.uint\pmc_inline_func.h

; 226  :         return (_addcarry_u32(carry, u, v, w));

	adc	eax, DWORD PTR [edi+64]
	mov	DWORD PTR [esi+64], eax
; File z:\sources\lunor\repos\rougemeilland\palmtree.math.core.uint\palmtree.math.core.uint\autogenerated_inline_func.h

; 1078 :     c = _ADD_UNIT_DIV(c, xp[17], yp[17], &zp[17]);

	mov	eax, DWORD PTR [esi+68]
; File z:\sources\lunor\repos\rougemeilland\palmtree.math.core.uint\palmtree.math.core.uint\pmc_inline_func.h

; 226  :         return (_addcarry_u32(carry, u, v, w));

	adc	eax, DWORD PTR [edi+68]
	mov	DWORD PTR [esi+68], eax
; File z:\sources\lunor\repos\rougemeilland\palmtree.math.core.uint\palmtree.math.core.uint\autogenerated_inline_func.h

; 1079 :     c = _ADD_UNIT_DIV(c, xp[18], yp[18], &zp[18]);

	mov	eax, DWORD PTR [esi+72]
; File z:\sources\lunor\repos\rougemeilland\palmtree.math.core.uint\palmtree.math.core.uint\pmc_inline_func.h

; 226  :         return (_addcarry_u32(carry, u, v, w));

	adc	eax, DWORD PTR [edi+72]
	mov	DWORD PTR [esi+72], eax
; File z:\sources\lunor\repos\rougemeilland\palmtree.math.core.uint\palmtree.math.core.uint\autogenerated_inline_func.h

; 1080 :     c = _ADD_UNIT_DIV(c, xp[19], yp[19], &zp[19]);

	mov	eax, DWORD PTR [esi+76]
; File z:\sources\lunor\repos\rougemeilland\palmtree.math.core.uint\palmtree.math.core.uint\pmc_inline_func.h

; 226  :         return (_addcarry_u32(carry, u, v, w));

	adc	eax, DWORD PTR [edi+76]
	mov	DWORD PTR [esi+76], eax
; File z:\sources\lunor\repos\rougemeilland\palmtree.math.core.uint\palmtree.math.core.uint\autogenerated_inline_func.h

; 1081 :     c = _ADD_UNIT_DIV(c, xp[20], yp[20], &zp[20]);

	mov	eax, DWORD PTR [esi+80]
; File z:\sources\lunor\repos\rougemeilland\palmtree.math.core.uint\palmtree.math.core.uint\pmc_inline_func.h

; 226  :         return (_addcarry_u32(carry, u, v, w));

	adc	eax, DWORD PTR [edi+80]
	mov	DWORD PTR [esi+80], eax
; File z:\sources\lunor\repos\rougemeilland\palmtree.math.core.uint\palmtree.math.core.uint\autogenerated_inline_func.h

; 1082 :     c = _ADD_UNIT_DIV(c, xp[21], yp[21], &zp[21]);

	mov	eax, DWORD PTR [esi+84]
; File z:\sources\lunor\repos\rougemeilland\palmtree.math.core.uint\palmtree.math.core.uint\pmc_inline_func.h

; 226  :         return (_addcarry_u32(carry, u, v, w));

	adc	eax, DWORD PTR [edi+84]
	mov	DWORD PTR [esi+84], eax
; File z:\sources\lunor\repos\rougemeilland\palmtree.math.core.uint\palmtree.math.core.uint\autogenerated_inline_func.h

; 1083 :     c = _ADD_UNIT_DIV(c, xp[22], yp[22], &zp[22]);

	mov	eax, DWORD PTR [esi+88]
; File z:\sources\lunor\repos\rougemeilland\palmtree.math.core.uint\palmtree.math.core.uint\pmc_inline_func.h

; 226  :         return (_addcarry_u32(carry, u, v, w));

	adc	eax, DWORD PTR [edi+88]
	mov	DWORD PTR [esi+88], eax
; File z:\sources\lunor\repos\rougemeilland\palmtree.math.core.uint\palmtree.math.core.uint\autogenerated_inline_func.h

; 1084 :     c = _ADD_UNIT_DIV(c, xp[23], yp[23], &zp[23]);

	mov	eax, DWORD PTR [esi+92]
; File z:\sources\lunor\repos\rougemeilland\palmtree.math.core.uint\palmtree.math.core.uint\pmc_inline_func.h

; 226  :         return (_addcarry_u32(carry, u, v, w));

	adc	eax, DWORD PTR [edi+92]
	mov	DWORD PTR [esi+92], eax
; File z:\sources\lunor\repos\rougemeilland\palmtree.math.core.uint\palmtree.math.core.uint\autogenerated_inline_func.h

; 1085 :     c = _ADD_UNIT_DIV(c, xp[24], yp[24], &zp[24]);

	mov	eax, DWORD PTR [esi+96]
; File z:\sources\lunor\repos\rougemeilland\palmtree.math.core.uint\palmtree.math.core.uint\pmc_inline_func.h

; 226  :         return (_addcarry_u32(carry, u, v, w));

	adc	eax, DWORD PTR [edi+96]
	mov	DWORD PTR [esi+96], eax
; File z:\sources\lunor\repos\rougemeilland\palmtree.math.core.uint\palmtree.math.core.uint\autogenerated_inline_func.h

; 1086 :     c = _ADD_UNIT_DIV(c, xp[25], yp[25], &zp[25]);

	mov	eax, DWORD PTR [esi+100]
; File z:\sources\lunor\repos\rougemeilland\palmtree.math.core.uint\palmtree.math.core.uint\pmc_inline_func.h

; 226  :         return (_addcarry_u32(carry, u, v, w));

	adc	eax, DWORD PTR [edi+100]
	mov	DWORD PTR [esi+100], eax
; File z:\sources\lunor\repos\rougemeilland\palmtree.math.core.uint\palmtree.math.core.uint\autogenerated_inline_func.h

; 1087 :     c = _ADD_UNIT_DIV(c, xp[26], yp[26], &zp[26]);

	mov	eax, DWORD PTR [esi+104]
; File z:\sources\lunor\repos\rougemeilland\palmtree.math.core.uint\palmtree.math.core.uint\pmc_inline_func.h

; 226  :         return (_addcarry_u32(carry, u, v, w));

	adc	eax, DWORD PTR [edi+104]
	mov	DWORD PTR [esi+104], eax
; File z:\sources\lunor\repos\rougemeilland\palmtree.math.core.uint\palmtree.math.core.uint\autogenerated_inline_func.h

; 1088 :     c = _ADD_UNIT_DIV(c, xp[27], yp[27], &zp[27]);

	mov	eax, DWORD PTR [esi+108]
; File z:\sources\lunor\repos\rougemeilland\palmtree.math.core.uint\palmtree.math.core.uint\pmc_inline_func.h

; 226  :         return (_addcarry_u32(carry, u, v, w));

	adc	eax, DWORD PTR [edi+108]
	mov	DWORD PTR [esi+108], eax
; File z:\sources\lunor\repos\rougemeilland\palmtree.math.core.uint\palmtree.math.core.uint\autogenerated_inline_func.h

; 1089 :     c = _ADD_UNIT_DIV(c, xp[28], yp[28], &zp[28]);

	mov	eax, DWORD PTR [esi+112]
; File z:\sources\lunor\repos\rougemeilland\palmtree.math.core.uint\palmtree.math.core.uint\pmc_inline_func.h

; 226  :         return (_addcarry_u32(carry, u, v, w));

	adc	eax, DWORD PTR [edi+112]
	mov	DWORD PTR [esi+112], eax
; File z:\sources\lunor\repos\rougemeilland\palmtree.math.core.uint\palmtree.math.core.uint\autogenerated_inline_func.h

; 1090 :     c = _ADD_UNIT_DIV(c, xp[29], yp[29], &zp[29]);

	mov	eax, DWORD PTR [esi+116]
; File z:\sources\lunor\repos\rougemeilland\palmtree.math.core.uint\palmtree.math.core.uint\pmc_inline_func.h

; 226  :         return (_addcarry_u32(carry, u, v, w));

	adc	eax, DWORD PTR [edi+116]
	mov	DWORD PTR [esi+116], eax
; File z:\sources\lunor\repos\rougemeilland\palmtree.math.core.uint\palmtree.math.core.uint\autogenerated_inline_func.h

; 1091 :     c = _ADD_UNIT_DIV(c, xp[30], yp[30], &zp[30]);

	mov	eax, DWORD PTR [esi+120]
; File z:\sources\lunor\repos\rougemeilland\palmtree.math.core.uint\palmtree.math.core.uint\pmc_inline_func.h

; 226  :         return (_addcarry_u32(carry, u, v, w));

	adc	eax, DWORD PTR [edi+120]
	mov	DWORD PTR [esi+120], eax
; File z:\sources\lunor\repos\rougemeilland\palmtree.math.core.uint\palmtree.math.core.uint\autogenerated_inline_func.h

; 1092 :     c = _ADD_UNIT_DIV(c, xp[31], yp[31], &zp[31]);

	mov	eax, DWORD PTR [esi+124]
; File z:\sources\lunor\repos\rougemeilland\palmtree.math.core.uint\palmtree.math.core.uint\pmc_inline_func.h

; 226  :         return (_addcarry_u32(carry, u, v, w));

	adc	eax, DWORD PTR [edi+124]
	mov	DWORD PTR [esi+124], eax
	setb	dl
; File z:\sources\lunor\repos\rougemeilland\palmtree.math.core.uint\palmtree.math.core.uint\pmc_divrem.c

; 795  :         u_ptr += 32;

	sub	esi, -128				; ffffff80H

; 796  :         v_ptr += 32;

	sub	edi, -128				; ffffff80H
	mov	BYTE PTR _c$[ebp], dl

; 797  :         --count;

	sub	ecx, 1
	jne	$LL2@AddOneLine
$LN3@AddOneLine:

; 798  :     }
; 799  :     // この時点で未処理の桁は 32 ワード未満のはず
; 800  : 
; 801  :     // 未処理の桁が 16 ワード以上あるなら 16 ワード加算を行う。
; 802  :     if (v_count & 0x10)

	test	bl, 16					; 00000010H
	je	SHORT $LN4@AddOneLine

; 803  :     {
; 804  :         c = _ADD_16WORDS_ADC_DIV(c, u_ptr, v_ptr, u_ptr);

	push	esi
	push	edi
	push	esi
	push	DWORD PTR _c$[ebp]
	call	__ADD_16WORDS_ADC_DIV
	add	esp, 16					; 00000010H

; 805  :         u_ptr += 16;

	add	esi, 64					; 00000040H
	mov	dl, al

; 806  :         v_ptr += 16;

	add	edi, 64					; 00000040H
$LN4@AddOneLine:

; 807  :     }
; 808  :     // この時点で未処理の桁は 16 ワード未満のはず
; 809  : 
; 810  :     // 未処理の桁が 8 ワード以上あるなら 8 ワード加算を行う。
; 811  :     if (v_count & 0x8)

	test	bl, 8
	je	SHORT $LN5@AddOneLine
; File z:\sources\lunor\repos\rougemeilland\palmtree.math.core.uint\palmtree.math.core.uint\autogenerated_inline_func.h

; 3541 :     c = _ADD_UNIT_DIV(c, xp[0], yp[0], &zp[0]);

	mov	ecx, DWORD PTR [esi]
; File z:\sources\lunor\repos\rougemeilland\palmtree.math.core.uint\palmtree.math.core.uint\pmc_inline_func.h

; 226  :         return (_addcarry_u32(carry, u, v, w));

	add	dl, 255					; 000000ffH
	adc	ecx, DWORD PTR [edi]
	mov	DWORD PTR [esi], ecx
; File z:\sources\lunor\repos\rougemeilland\palmtree.math.core.uint\palmtree.math.core.uint\autogenerated_inline_func.h

; 3542 :     c = _ADD_UNIT_DIV(c, xp[1], yp[1], &zp[1]);

	mov	eax, DWORD PTR [esi+4]
; File z:\sources\lunor\repos\rougemeilland\palmtree.math.core.uint\palmtree.math.core.uint\pmc_inline_func.h

; 226  :         return (_addcarry_u32(carry, u, v, w));

	adc	eax, DWORD PTR [edi+4]
	mov	DWORD PTR [esi+4], eax
; File z:\sources\lunor\repos\rougemeilland\palmtree.math.core.uint\palmtree.math.core.uint\autogenerated_inline_func.h

; 3543 :     c = _ADD_UNIT_DIV(c, xp[2], yp[2], &zp[2]);

	mov	eax, DWORD PTR [esi+8]
; File z:\sources\lunor\repos\rougemeilland\palmtree.math.core.uint\palmtree.math.core.uint\pmc_inline_func.h

; 226  :         return (_addcarry_u32(carry, u, v, w));

	adc	eax, DWORD PTR [edi+8]
	mov	DWORD PTR [esi+8], eax
; File z:\sources\lunor\repos\rougemeilland\palmtree.math.core.uint\palmtree.math.core.uint\autogenerated_inline_func.h

; 3544 :     c = _ADD_UNIT_DIV(c, xp[3], yp[3], &zp[3]);

	mov	eax, DWORD PTR [esi+12]
; File z:\sources\lunor\repos\rougemeilland\palmtree.math.core.uint\palmtree.math.core.uint\pmc_inline_func.h

; 226  :         return (_addcarry_u32(carry, u, v, w));

	adc	eax, DWORD PTR [edi+12]
	mov	DWORD PTR [esi+12], eax
; File z:\sources\lunor\repos\rougemeilland\palmtree.math.core.uint\palmtree.math.core.uint\autogenerated_inline_func.h

; 3545 :     c = _ADD_UNIT_DIV(c, xp[4], yp[4], &zp[4]);

	mov	eax, DWORD PTR [esi+16]
; File z:\sources\lunor\repos\rougemeilland\palmtree.math.core.uint\palmtree.math.core.uint\pmc_inline_func.h

; 226  :         return (_addcarry_u32(carry, u, v, w));

	adc	eax, DWORD PTR [edi+16]
	mov	DWORD PTR [esi+16], eax
; File z:\sources\lunor\repos\rougemeilland\palmtree.math.core.uint\palmtree.math.core.uint\autogenerated_inline_func.h

; 3546 :     c = _ADD_UNIT_DIV(c, xp[5], yp[5], &zp[5]);

	mov	eax, DWORD PTR [esi+20]
; File z:\sources\lunor\repos\rougemeilland\palmtree.math.core.uint\palmtree.math.core.uint\pmc_inline_func.h

; 226  :         return (_addcarry_u32(carry, u, v, w));

	adc	eax, DWORD PTR [edi+20]
	mov	DWORD PTR [esi+20], eax
; File z:\sources\lunor\repos\rougemeilland\palmtree.math.core.uint\palmtree.math.core.uint\autogenerated_inline_func.h

; 3547 :     c = _ADD_UNIT_DIV(c, xp[6], yp[6], &zp[6]);

	mov	eax, DWORD PTR [esi+24]
; File z:\sources\lunor\repos\rougemeilland\palmtree.math.core.uint\palmtree.math.core.uint\pmc_inline_func.h

; 226  :         return (_addcarry_u32(carry, u, v, w));

	adc	eax, DWORD PTR [edi+24]
	mov	DWORD PTR [esi+24], eax
; File z:\sources\lunor\repos\rougemeilland\palmtree.math.core.uint\palmtree.math.core.uint\autogenerated_inline_func.h

; 3548 :     c = _ADD_UNIT_DIV(c, xp[7], yp[7], &zp[7]);

	mov	eax, DWORD PTR [esi+28]
; File z:\sources\lunor\repos\rougemeilland\palmtree.math.core.uint\palmtree.math.core.uint\pmc_inline_func.h

; 226  :         return (_addcarry_u32(carry, u, v, w));

	adc	eax, DWORD PTR [edi+28]
	mov	DWORD PTR [esi+28], eax
	setb	dl
; File z:\sources\lunor\repos\rougemeilland\palmtree.math.core.uint\palmtree.math.core.uint\pmc_divrem.c

; 814  :         u_ptr += 8;

	add	esi, 32					; 00000020H

; 815  :         v_ptr += 8;

	add	edi, 32					; 00000020H
$LN5@AddOneLine:

; 816  :     }
; 817  :     // この時点で未処理の桁は 8 ワード未満のはず
; 818  : 
; 819  :     // 未処理の桁が 4 ワード以上あるなら 4 ワード加算を行う。
; 820  :     if (v_count & 0x4)

	test	bl, 4
	je	SHORT $LN6@AddOneLine
; File z:\sources\lunor\repos\rougemeilland\palmtree.math.core.uint\palmtree.math.core.uint\autogenerated_inline_func.h

; 4109 :     c = _ADD_UNIT_DIV(c, xp[0], yp[0], &zp[0]);

	mov	eax, DWORD PTR [esi]
; File z:\sources\lunor\repos\rougemeilland\palmtree.math.core.uint\palmtree.math.core.uint\pmc_inline_func.h

; 226  :         return (_addcarry_u32(carry, u, v, w));

	add	dl, 255					; 000000ffH
	adc	eax, DWORD PTR [edi]
	mov	DWORD PTR [esi], eax
; File z:\sources\lunor\repos\rougemeilland\palmtree.math.core.uint\palmtree.math.core.uint\autogenerated_inline_func.h

; 4110 :     c = _ADD_UNIT_DIV(c, xp[1], yp[1], &zp[1]);

	mov	eax, DWORD PTR [esi+4]
; File z:\sources\lunor\repos\rougemeilland\palmtree.math.core.uint\palmtree.math.core.uint\pmc_inline_func.h

; 226  :         return (_addcarry_u32(carry, u, v, w));

	adc	eax, DWORD PTR [edi+4]
	mov	DWORD PTR [esi+4], eax
; File z:\sources\lunor\repos\rougemeilland\palmtree.math.core.uint\palmtree.math.core.uint\autogenerated_inline_func.h

; 4111 :     c = _ADD_UNIT_DIV(c, xp[2], yp[2], &zp[2]);

	mov	eax, DWORD PTR [esi+8]
; File z:\sources\lunor\repos\rougemeilland\palmtree.math.core.uint\palmtree.math.core.uint\pmc_inline_func.h

; 226  :         return (_addcarry_u32(carry, u, v, w));

	adc	eax, DWORD PTR [edi+8]
	mov	DWORD PTR [esi+8], eax
; File z:\sources\lunor\repos\rougemeilland\palmtree.math.core.uint\palmtree.math.core.uint\autogenerated_inline_func.h

; 4112 :     c = _ADD_UNIT_DIV(c, xp[3], yp[3], &zp[3]);

	mov	eax, DWORD PTR [esi+12]
; File z:\sources\lunor\repos\rougemeilland\palmtree.math.core.uint\palmtree.math.core.uint\pmc_inline_func.h

; 226  :         return (_addcarry_u32(carry, u, v, w));

	adc	eax, DWORD PTR [edi+12]
	mov	DWORD PTR [esi+12], eax
	setb	dl
; File z:\sources\lunor\repos\rougemeilland\palmtree.math.core.uint\palmtree.math.core.uint\pmc_divrem.c

; 823  :         u_ptr += 4;

	add	esi, 16					; 00000010H

; 824  :         v_ptr += 4;

	add	edi, 16					; 00000010H
$LN6@AddOneLine:

; 825  :     }
; 826  :     // この時点で未処理の桁は 4 ワード未満のはず
; 827  : 
; 828  :     // 未処理の桁が 2 ワード以上あるなら 2 ワード加算を行う。
; 829  :     if (v_count & 0x2)

	test	bl, 2
	je	SHORT $LN7@AddOneLine
; File z:\sources\lunor\repos\rougemeilland\palmtree.math.core.uint\palmtree.math.core.uint\autogenerated_inline_func.h

; 4509 :     c = _ADD_UNIT_DIV(c, xp[0], yp[0], &zp[0]);

	mov	eax, DWORD PTR [esi]
; File z:\sources\lunor\repos\rougemeilland\palmtree.math.core.uint\palmtree.math.core.uint\pmc_inline_func.h

; 226  :         return (_addcarry_u32(carry, u, v, w));

	add	dl, 255					; 000000ffH
	adc	eax, DWORD PTR [edi]
	mov	DWORD PTR [esi], eax
; File z:\sources\lunor\repos\rougemeilland\palmtree.math.core.uint\palmtree.math.core.uint\autogenerated_inline_func.h

; 4510 :     c = _ADD_UNIT_DIV(c, xp[1], yp[1], &zp[1]);

	mov	eax, DWORD PTR [esi+4]
; File z:\sources\lunor\repos\rougemeilland\palmtree.math.core.uint\palmtree.math.core.uint\pmc_inline_func.h

; 226  :         return (_addcarry_u32(carry, u, v, w));

	adc	eax, DWORD PTR [edi+4]
	mov	DWORD PTR [esi+4], eax
	setb	dl
; File z:\sources\lunor\repos\rougemeilland\palmtree.math.core.uint\palmtree.math.core.uint\pmc_divrem.c

; 832  :         u_ptr += 2;

	add	esi, 8

; 833  :         v_ptr += 2;

	add	edi, 8
$LN7@AddOneLine:

; 834  :     }
; 835  :     // この時点で未処理の桁は 2 ワード未満のはず
; 836  : 
; 837  :     // 未処理の桁が 1 ワード以上あるなら 1 ワード加算を行う。
; 838  :     if (v_count & 0x1)

	test	bl, 1
	je	SHORT $LN8@AddOneLine

; 839  :     {
; 840  :         c = _ADD_UNIT_DIV(c, *u_ptr, *v_ptr, u_ptr);

	mov	eax, DWORD PTR [esi]
; File z:\sources\lunor\repos\rougemeilland\palmtree.math.core.uint\palmtree.math.core.uint\pmc_inline_func.h

; 226  :         return (_addcarry_u32(carry, u, v, w));

	add	dl, 255					; 000000ffH
	adc	eax, DWORD PTR [edi]
	mov	DWORD PTR [esi], eax
	setb	dl
; File z:\sources\lunor\repos\rougemeilland\palmtree.math.core.uint\palmtree.math.core.uint\pmc_divrem.c

; 841  :         ++u_ptr;

	add	esi, 4
$LN8@AddOneLine:

; 842  :         ++v_ptr;
; 843  :     }
; 844  : 
; 845  :     // 残りの桁の繰り上がりを計算する。
; 846  :     DoCarry(c, u_ptr, u_buf + u_buf_len + 1 - u_ptr);

	mov	eax, DWORD PTR _u_buf_len$[ebp]
	lea	ecx, DWORD PTR [eax*4+4]
	sub	ecx, esi
	add	ecx, DWORD PTR _u_buf$[ebp]
	sar	ecx, 2

; 759  :         if (u_count <= 0)

	test	ecx, ecx
	je	SHORT $LN131@AddOneLine
	npad	7
$LL113@AddOneLine:

; 760  :         {
; 761  :             // u の最上位まで達してしまった場合
; 762  :             return;
; 763  :         }
; 764  :         else if (c)

	test	dl, dl
	je	SHORT $LN131@AddOneLine

; 765  :         {
; 766  :             // u の最上位に達しておらず、かつキャリーが立っている場合
; 767  : 
; 768  :             // 繰り上がりを継続する
; 769  :             c = _ADD_UNIT_DIV(c, *u_ptr, 0, u_ptr);

	mov	eax, DWORD PTR [esi]
; File z:\sources\lunor\repos\rougemeilland\palmtree.math.core.uint\palmtree.math.core.uint\pmc_inline_func.h

; 226  :         return (_addcarry_u32(carry, u, v, w));

	add	dl, 255					; 000000ffH
	adc	eax, 0
	mov	DWORD PTR [esi], eax
	setb	dl
; File z:\sources\lunor\repos\rougemeilland\palmtree.math.core.uint\palmtree.math.core.uint\pmc_divrem.c

; 770  :             ++u_ptr;

	add	esi, 4

; 771  :             --u_count;

	sub	ecx, 1
	jne	SHORT $LL113@AddOneLine
$LN131@AddOneLine:
	pop	edi

; 847  : }

	pop	esi
	pop	ebx
	pop	ebp
	ret	0
_AddOneLine ENDP
_TEXT	ENDS
; Function compile flags: /Ogtp
; File z:\sources\lunor\repos\rougemeilland\palmtree.math.core.uint\palmtree.math.core.uint\pmc_divrem.c
; File z:\sources\lunor\repos\rougemeilland\palmtree.math.core.uint\palmtree.math.core.uint\pmc_inline_func.h
; File z:\sources\lunor\repos\rougemeilland\palmtree.math.core.uint\palmtree.math.core.uint\pmc_divrem.c
;	COMDAT _DoCarry
_TEXT	SEGMENT
_c$ = 8							; size = 1
_u_ptr$ = 12						; size = 4
_u_count$ = 16						; size = 4
_DoCarry PROC						; COMDAT

; 755  : {

	push	ebp
	mov	ebp, esp
	push	esi

; 756  :     // 繰り上がりを続く限り行う
; 757  :     for (;;)
; 758  :     {
; 759  :         if (u_count <= 0)

	mov	esi, DWORD PTR _u_count$[ebp]
	test	esi, esi
	je	SHORT $LN16@DoCarry
	mov	edx, DWORD PTR _u_ptr$[ebp]
	mov	al, BYTE PTR _c$[ebp]
$LL2@DoCarry:

; 760  :         {
; 761  :             // u の最上位まで達してしまった場合
; 762  :             return;
; 763  :         }
; 764  :         else if (c)

	test	al, al
	je	SHORT $LN16@DoCarry

; 765  :         {
; 766  :             // u の最上位に達しておらず、かつキャリーが立っている場合
; 767  : 
; 768  :             // 繰り上がりを継続する
; 769  :             c = _ADD_UNIT_DIV(c, *u_ptr, 0, u_ptr);

	mov	ecx, DWORD PTR [edx]
; File z:\sources\lunor\repos\rougemeilland\palmtree.math.core.uint\palmtree.math.core.uint\pmc_inline_func.h

; 226  :         return (_addcarry_u32(carry, u, v, w));

	add	al, 255					; 000000ffH
	adc	ecx, 0
	mov	DWORD PTR [edx], ecx
	setb	al
; File z:\sources\lunor\repos\rougemeilland\palmtree.math.core.uint\palmtree.math.core.uint\pmc_divrem.c

; 770  :             ++u_ptr;

	add	edx, 4

; 771  :             --u_count;

	sub	esi, 1
	jne	SHORT $LL2@DoCarry
$LN16@DoCarry:
	pop	esi

; 772  :         }
; 773  :         else
; 774  :         {
; 775  :             // u の最上位に達しておらず、かつキャリーが立っていない場合
; 776  : 
; 777  :             // 繰り上がりを中断し、復帰する。
; 778  :             return;
; 779  :         }
; 780  :     }
; 781  : }

	pop	ebp
	ret	0
_DoCarry ENDP
_TEXT	ENDS
; Function compile flags: /Ogtp
; File z:\sources\lunor\repos\rougemeilland\palmtree.math.core.uint\palmtree.math.core.uint\pmc_divrem.c
; File z:\sources\lunor\repos\rougemeilland\palmtree.math.core.uint\palmtree.math.core.uint\pmc_inline_func.h
; File z:\sources\lunor\repos\rougemeilland\palmtree.math.core.uint\palmtree.math.core.uint\pmc_divrem.c
; File z:\sources\lunor\repos\rougemeilland\palmtree.math.core.uint\palmtree.math.core.uint\pmc_inline_func.h
; File z:\sources\lunor\repos\rougemeilland\palmtree.math.core.uint\palmtree.math.core.uint\pmc_divrem.c
; File z:\sources\lunor\repos\rougemeilland\palmtree.math.core.uint\palmtree.math.core.uint\pmc_inline_func.h
; File z:\sources\lunor\repos\rougemeilland\palmtree.math.core.uint\palmtree.math.core.uint\pmc_divrem.c
; File z:\sources\lunor\repos\rougemeilland\palmtree.math.core.uint\palmtree.math.core.uint\pmc_inline_func.h
; File z:\sources\lunor\repos\rougemeilland\palmtree.math.core.uint\palmtree.math.core.uint\pmc_divrem.c
; File z:\sources\lunor\repos\rougemeilland\palmtree.math.core.uint\palmtree.math.core.uint\pmc_inline_func.h
; File z:\sources\lunor\repos\rougemeilland\palmtree.math.core.uint\palmtree.math.core.uint\pmc_divrem.c
; File z:\sources\lunor\repos\rougemeilland\palmtree.math.core.uint\palmtree.math.core.uint\pmc_inline_func.h
; File z:\sources\lunor\repos\rougemeilland\palmtree.math.core.uint\palmtree.math.core.uint\pmc_divrem.c
; File z:\sources\lunor\repos\rougemeilland\palmtree.math.core.uint\palmtree.math.core.uint\pmc_inline_func.h
; File z:\sources\lunor\repos\rougemeilland\palmtree.math.core.uint\palmtree.math.core.uint\pmc_divrem.c
; File z:\sources\lunor\repos\rougemeilland\palmtree.math.core.uint\palmtree.math.core.uint\pmc_inline_func.h
; File z:\sources\lunor\repos\rougemeilland\palmtree.math.core.uint\palmtree.math.core.uint\pmc_divrem.c
; File z:\sources\lunor\repos\rougemeilland\palmtree.math.core.uint\palmtree.math.core.uint\pmc_inline_func.h
; File z:\sources\lunor\repos\rougemeilland\palmtree.math.core.uint\palmtree.math.core.uint\pmc_divrem.c
; File z:\sources\lunor\repos\rougemeilland\palmtree.math.core.uint\palmtree.math.core.uint\pmc_inline_func.h
; File z:\sources\lunor\repos\rougemeilland\palmtree.math.core.uint\palmtree.math.core.uint\pmc_divrem.c
; File z:\sources\lunor\repos\rougemeilland\palmtree.math.core.uint\palmtree.math.core.uint\pmc_inline_func.h
; File z:\sources\lunor\repos\rougemeilland\palmtree.math.core.uint\palmtree.math.core.uint\pmc_divrem.c
; File z:\sources\lunor\repos\rougemeilland\palmtree.math.core.uint\palmtree.math.core.uint\pmc_inline_func.h
; File z:\sources\lunor\repos\rougemeilland\palmtree.math.core.uint\palmtree.math.core.uint\pmc_divrem.c
; File z:\sources\lunor\repos\rougemeilland\palmtree.math.core.uint\palmtree.math.core.uint\pmc_inline_func.h
; File z:\sources\lunor\repos\rougemeilland\palmtree.math.core.uint\palmtree.math.core.uint\pmc_divrem.c
; File z:\sources\lunor\repos\rougemeilland\palmtree.math.core.uint\palmtree.math.core.uint\pmc_inline_func.h
; File z:\sources\lunor\repos\rougemeilland\palmtree.math.core.uint\palmtree.math.core.uint\pmc_divrem.c
; File z:\sources\lunor\repos\rougemeilland\palmtree.math.core.uint\palmtree.math.core.uint\pmc_inline_func.h
; File z:\sources\lunor\repos\rougemeilland\palmtree.math.core.uint\palmtree.math.core.uint\pmc_divrem.c
; File z:\sources\lunor\repos\rougemeilland\palmtree.math.core.uint\palmtree.math.core.uint\pmc_inline_func.h
; File z:\sources\lunor\repos\rougemeilland\palmtree.math.core.uint\palmtree.math.core.uint\pmc_divrem.c
; File z:\sources\lunor\repos\rougemeilland\palmtree.math.core.uint\palmtree.math.core.uint\pmc_inline_func.h
; File z:\sources\lunor\repos\rougemeilland\palmtree.math.core.uint\palmtree.math.core.uint\pmc_divrem.c
; File z:\sources\lunor\repos\rougemeilland\palmtree.math.core.uint\palmtree.math.core.uint\pmc_inline_func.h
; File z:\sources\lunor\repos\rougemeilland\palmtree.math.core.uint\palmtree.math.core.uint\pmc_divrem.c
; File z:\sources\lunor\repos\rougemeilland\palmtree.math.core.uint\palmtree.math.core.uint\pmc_inline_func.h
; File z:\sources\lunor\repos\rougemeilland\palmtree.math.core.uint\palmtree.math.core.uint\pmc_divrem.c
; File z:\sources\lunor\repos\rougemeilland\palmtree.math.core.uint\palmtree.math.core.uint\pmc_inline_func.h
; File z:\sources\lunor\repos\rougemeilland\palmtree.math.core.uint\palmtree.math.core.uint\pmc_divrem.c
; File z:\sources\lunor\repos\rougemeilland\palmtree.math.core.uint\palmtree.math.core.uint\pmc_inline_func.h
; File z:\sources\lunor\repos\rougemeilland\palmtree.math.core.uint\palmtree.math.core.uint\pmc_divrem.c
; File z:\sources\lunor\repos\rougemeilland\palmtree.math.core.uint\palmtree.math.core.uint\pmc_inline_func.h
; File z:\sources\lunor\repos\rougemeilland\palmtree.math.core.uint\palmtree.math.core.uint\pmc_divrem.c
; File z:\sources\lunor\repos\rougemeilland\palmtree.math.core.uint\palmtree.math.core.uint\pmc_inline_func.h
; File z:\sources\lunor\repos\rougemeilland\palmtree.math.core.uint\palmtree.math.core.uint\pmc_divrem.c
; File z:\sources\lunor\repos\rougemeilland\palmtree.math.core.uint\palmtree.math.core.uint\pmc_inline_func.h
; File z:\sources\lunor\repos\rougemeilland\palmtree.math.core.uint\palmtree.math.core.uint\pmc_divrem.c
; File z:\sources\lunor\repos\rougemeilland\palmtree.math.core.uint\palmtree.math.core.uint\pmc_inline_func.h
; File z:\sources\lunor\repos\rougemeilland\palmtree.math.core.uint\palmtree.math.core.uint\pmc_divrem.c
; File z:\sources\lunor\repos\rougemeilland\palmtree.math.core.uint\palmtree.math.core.uint\pmc_inline_func.h
; File z:\sources\lunor\repos\rougemeilland\palmtree.math.core.uint\palmtree.math.core.uint\pmc_divrem.c
; File z:\sources\lunor\repos\rougemeilland\palmtree.math.core.uint\palmtree.math.core.uint\pmc_inline_func.h
; File z:\sources\lunor\repos\rougemeilland\palmtree.math.core.uint\palmtree.math.core.uint\pmc_divrem.c
; File z:\sources\lunor\repos\rougemeilland\palmtree.math.core.uint\palmtree.math.core.uint\pmc_inline_func.h
; File z:\sources\lunor\repos\rougemeilland\palmtree.math.core.uint\palmtree.math.core.uint\pmc_divrem.c
; File z:\sources\lunor\repos\rougemeilland\palmtree.math.core.uint\palmtree.math.core.uint\pmc_inline_func.h
; File z:\sources\lunor\repos\rougemeilland\palmtree.math.core.uint\palmtree.math.core.uint\pmc_divrem.c
; File z:\sources\lunor\repos\rougemeilland\palmtree.math.core.uint\palmtree.math.core.uint\pmc_inline_func.h
; File z:\sources\lunor\repos\rougemeilland\palmtree.math.core.uint\palmtree.math.core.uint\pmc_divrem.c
; File z:\sources\lunor\repos\rougemeilland\palmtree.math.core.uint\palmtree.math.core.uint\pmc_inline_func.h
; File z:\sources\lunor\repos\rougemeilland\palmtree.math.core.uint\palmtree.math.core.uint\pmc_divrem.c
; File z:\sources\lunor\repos\rougemeilland\palmtree.math.core.uint\palmtree.math.core.uint\pmc_inline_func.h
; File z:\sources\lunor\repos\rougemeilland\palmtree.math.core.uint\palmtree.math.core.uint\pmc_divrem.c
; File z:\sources\lunor\repos\rougemeilland\palmtree.math.core.uint\palmtree.math.core.uint\pmc_inline_func.h
; File z:\sources\lunor\repos\rougemeilland\palmtree.math.core.uint\palmtree.math.core.uint\pmc_divrem.c
; File z:\sources\lunor\repos\rougemeilland\palmtree.math.core.uint\palmtree.math.core.uint\pmc_inline_func.h
; File z:\sources\lunor\repos\rougemeilland\palmtree.math.core.uint\palmtree.math.core.uint\pmc_divrem.c
; File z:\sources\lunor\repos\rougemeilland\palmtree.math.core.uint\palmtree.math.core.uint\pmc_inline_func.h
; File z:\sources\lunor\repos\rougemeilland\palmtree.math.core.uint\palmtree.math.core.uint\pmc_divrem.c
; File z:\sources\lunor\repos\rougemeilland\palmtree.math.core.uint\palmtree.math.core.uint\pmc_inline_func.h
; File z:\sources\lunor\repos\rougemeilland\palmtree.math.core.uint\palmtree.math.core.uint\pmc_divrem.c
; File z:\sources\lunor\repos\rougemeilland\palmtree.math.core.uint\palmtree.math.core.uint\pmc_inline_func.h
; File z:\sources\lunor\repos\rougemeilland\palmtree.math.core.uint\palmtree.math.core.uint\pmc_uint_internal.h
; File z:\sources\lunor\repos\rougemeilland\palmtree.math.core.uint\palmtree.math.core.uint\pmc_inline_func.h
; File z:\sources\lunor\repos\rougemeilland\palmtree.math.core.uint\palmtree.math.core.uint\pmc_uint_internal.h
; File z:\sources\lunor\repos\rougemeilland\palmtree.math.core.uint\palmtree.math.core.uint\pmc_inline_func.h
; File z:\sources\lunor\repos\rougemeilland\palmtree.math.core.uint\palmtree.math.core.uint\pmc_divrem.c
; File z:\sources\lunor\repos\rougemeilland\palmtree.math.core.uint\palmtree.math.core.uint\pmc_uint_internal.h
; File z:\sources\lunor\repos\rougemeilland\palmtree.math.core.uint\palmtree.math.core.uint\pmc_divrem.c
; File z:\sources\lunor\repos\rougemeilland\palmtree.math.core.uint\palmtree.math.core.uint\pmc_inline_func.h
; File z:\sources\lunor\repos\rougemeilland\palmtree.math.core.uint\palmtree.math.core.uint\pmc_divrem.c
; File z:\sources\lunor\repos\rougemeilland\palmtree.math.core.uint\palmtree.math.core.uint\pmc_inline_func.h
; File z:\sources\lunor\repos\rougemeilland\palmtree.math.core.uint\palmtree.math.core.uint\pmc_divrem.c
; File z:\sources\lunor\repos\rougemeilland\palmtree.math.core.uint\palmtree.math.core.uint\pmc_inline_func.h
; File z:\sources\lunor\repos\rougemeilland\palmtree.math.core.uint\palmtree.math.core.uint\pmc_divrem.c
; File z:\sources\lunor\repos\rougemeilland\palmtree.math.core.uint\palmtree.math.core.uint\pmc_inline_func.h
; File z:\sources\lunor\repos\rougemeilland\palmtree.math.core.uint\palmtree.math.core.uint\pmc_divrem.c
; File z:\sources\lunor\repos\rougemeilland\palmtree.math.core.uint\palmtree.math.core.uint\pmc_inline_func.h
; File z:\sources\lunor\repos\rougemeilland\palmtree.math.core.uint\palmtree.math.core.uint\pmc_divrem.c
; File z:\sources\lunor\repos\rougemeilland\palmtree.math.core.uint\palmtree.math.core.uint\pmc_inline_func.h
; File z:\sources\lunor\repos\rougemeilland\palmtree.math.core.uint\palmtree.math.core.uint\pmc_divrem.c
; File z:\sources\lunor\repos\rougemeilland\palmtree.math.core.uint\palmtree.math.core.uint\pmc_inline_func.h
; File z:\sources\lunor\repos\rougemeilland\palmtree.math.core.uint\palmtree.math.core.uint\pmc_divrem.c
; File z:\sources\lunor\repos\rougemeilland\palmtree.math.core.uint\palmtree.math.core.uint\pmc_inline_func.h
; File z:\sources\lunor\repos\rougemeilland\palmtree.math.core.uint\palmtree.math.core.uint\pmc_divrem.c
; File z:\sources\lunor\repos\rougemeilland\palmtree.math.core.uint\palmtree.math.core.uint\pmc_inline_func.h
; File z:\sources\lunor\repos\rougemeilland\palmtree.math.core.uint\palmtree.math.core.uint\pmc_divrem.c
; File z:\sources\lunor\repos\rougemeilland\palmtree.math.core.uint\palmtree.math.core.uint\pmc_inline_func.h
; File z:\sources\lunor\repos\rougemeilland\palmtree.math.core.uint\palmtree.math.core.uint\pmc_divrem.c
; File z:\sources\lunor\repos\rougemeilland\palmtree.math.core.uint\palmtree.math.core.uint\pmc_inline_func.h
; File z:\sources\lunor\repos\rougemeilland\palmtree.math.core.uint\palmtree.math.core.uint\pmc_divrem.c
; File z:\sources\lunor\repos\rougemeilland\palmtree.math.core.uint\palmtree.math.core.uint\pmc_inline_func.h
; File z:\sources\lunor\repos\rougemeilland\palmtree.math.core.uint\palmtree.math.core.uint\pmc_divrem.c
; File z:\sources\lunor\repos\rougemeilland\palmtree.math.core.uint\palmtree.math.core.uint\pmc_inline_func.h
; File z:\sources\lunor\repos\rougemeilland\palmtree.math.core.uint\palmtree.math.core.uint\pmc_divrem.c
; File z:\sources\lunor\repos\rougemeilland\palmtree.math.core.uint\palmtree.math.core.uint\pmc_inline_func.h
; File z:\sources\lunor\repos\rougemeilland\palmtree.math.core.uint\palmtree.math.core.uint\pmc_divrem.c
; File z:\sources\lunor\repos\rougemeilland\palmtree.math.core.uint\palmtree.math.core.uint\pmc_inline_func.h
; File z:\sources\lunor\repos\rougemeilland\palmtree.math.core.uint\palmtree.math.core.uint\pmc_divrem.c
; File z:\sources\lunor\repos\rougemeilland\palmtree.math.core.uint\palmtree.math.core.uint\pmc_inline_func.h
; File z:\sources\lunor\repos\rougemeilland\palmtree.math.core.uint\palmtree.math.core.uint\pmc_divrem.c
; File z:\sources\lunor\repos\rougemeilland\palmtree.math.core.uint\palmtree.math.core.uint\pmc_inline_func.h
; File z:\sources\lunor\repos\rougemeilland\palmtree.math.core.uint\palmtree.math.core.uint\pmc_divrem.c
; File z:\sources\lunor\repos\rougemeilland\palmtree.math.core.uint\palmtree.math.core.uint\pmc_inline_func.h
; File z:\sources\lunor\repos\rougemeilland\palmtree.math.core.uint\palmtree.math.core.uint\pmc_divrem.c
; File z:\sources\lunor\repos\rougemeilland\palmtree.math.core.uint\palmtree.math.core.uint\pmc_inline_func.h
; File z:\sources\lunor\repos\rougemeilland\palmtree.math.core.uint\palmtree.math.core.uint\pmc_divrem.c
; File z:\sources\lunor\repos\rougemeilland\palmtree.math.core.uint\palmtree.math.core.uint\pmc_inline_func.h
; File z:\sources\lunor\repos\rougemeilland\palmtree.math.core.uint\palmtree.math.core.uint\pmc_uint_internal.h
; File z:\sources\lunor\repos\rougemeilland\palmtree.math.core.uint\palmtree.math.core.uint\pmc_inline_func.h
; File z:\sources\lunor\repos\rougemeilland\palmtree.math.core.uint\palmtree.math.core.uint\pmc_uint_internal.h
; File z:\sources\lunor\repos\rougemeilland\palmtree.math.core.uint\palmtree.math.core.uint\pmc_inline_func.h
; File z:\sources\lunor\repos\rougemeilland\palmtree.math.core.uint\palmtree.math.core.uint\pmc_divrem.c
; File z:\sources\lunor\repos\rougemeilland\palmtree.math.core.uint\palmtree.math.core.uint\pmc_uint_internal.h
; File z:\sources\lunor\repos\rougemeilland\palmtree.math.core.uint\palmtree.math.core.uint\pmc_divrem.c
; File z:\sources\lunor\repos\rougemeilland\palmtree.math.core.uint\palmtree.math.core.uint\pmc_inline_func.h
; File z:\sources\lunor\repos\rougemeilland\palmtree.math.core.uint\palmtree.math.core.uint\pmc_divrem.c
; File z:\sources\lunor\repos\rougemeilland\palmtree.math.core.uint\palmtree.math.core.uint\pmc_inline_func.h
; File z:\sources\lunor\repos\rougemeilland\palmtree.math.core.uint\palmtree.math.core.uint\pmc_divrem.c
; File z:\sources\lunor\repos\rougemeilland\palmtree.math.core.uint\palmtree.math.core.uint\pmc_inline_func.h
; File z:\sources\lunor\repos\rougemeilland\palmtree.math.core.uint\palmtree.math.core.uint\pmc_divrem.c
; File z:\sources\lunor\repos\rougemeilland\palmtree.math.core.uint\palmtree.math.core.uint\pmc_inline_func.h
; File z:\sources\lunor\repos\rougemeilland\palmtree.math.core.uint\palmtree.math.core.uint\pmc_divrem.c
; File z:\sources\lunor\repos\rougemeilland\palmtree.math.core.uint\palmtree.math.core.uint\pmc_inline_func.h
; File z:\sources\lunor\repos\rougemeilland\palmtree.math.core.uint\palmtree.math.core.uint\pmc_divrem.c
; File z:\sources\lunor\repos\rougemeilland\palmtree.math.core.uint\palmtree.math.core.uint\pmc_inline_func.h
; File z:\sources\lunor\repos\rougemeilland\palmtree.math.core.uint\palmtree.math.core.uint\pmc_divrem.c
; File z:\sources\lunor\repos\rougemeilland\palmtree.math.core.uint\palmtree.math.core.uint\pmc_inline_func.h
; File z:\sources\lunor\repos\rougemeilland\palmtree.math.core.uint\palmtree.math.core.uint\pmc_divrem.c
; File z:\sources\lunor\repos\rougemeilland\palmtree.math.core.uint\palmtree.math.core.uint\pmc_inline_func.h
; File z:\sources\lunor\repos\rougemeilland\palmtree.math.core.uint\palmtree.math.core.uint\pmc_divrem.c
; File z:\sources\lunor\repos\rougemeilland\palmtree.math.core.uint\palmtree.math.core.uint\pmc_inline_func.h
; File z:\sources\lunor\repos\rougemeilland\palmtree.math.core.uint\palmtree.math.core.uint\pmc_divrem.c
; File z:\sources\lunor\repos\rougemeilland\palmtree.math.core.uint\palmtree.math.core.uint\pmc_inline_func.h
; File z:\sources\lunor\repos\rougemeilland\palmtree.math.core.uint\palmtree.math.core.uint\pmc_divrem.c
; File z:\sources\lunor\repos\rougemeilland\palmtree.math.core.uint\palmtree.math.core.uint\pmc_inline_func.h
; File z:\sources\lunor\repos\rougemeilland\palmtree.math.core.uint\palmtree.math.core.uint\pmc_divrem.c
; File z:\sources\lunor\repos\rougemeilland\palmtree.math.core.uint\palmtree.math.core.uint\pmc_inline_func.h
; File z:\sources\lunor\repos\rougemeilland\palmtree.math.core.uint\palmtree.math.core.uint\pmc_divrem.c
; File z:\sources\lunor\repos\rougemeilland\palmtree.math.core.uint\palmtree.math.core.uint\pmc_inline_func.h
; File z:\sources\lunor\repos\rougemeilland\palmtree.math.core.uint\palmtree.math.core.uint\pmc_uint_internal.h
; File z:\sources\lunor\repos\rougemeilland\palmtree.math.core.uint\palmtree.math.core.uint\pmc_inline_func.h
; File z:\sources\lunor\repos\rougemeilland\palmtree.math.core.uint\palmtree.math.core.uint\pmc_uint_internal.h
; File z:\sources\lunor\repos\rougemeilland\palmtree.math.core.uint\palmtree.math.core.uint\pmc_inline_func.h
; File z:\sources\lunor\repos\rougemeilland\palmtree.math.core.uint\palmtree.math.core.uint\pmc_divrem.c
; File z:\sources\lunor\repos\rougemeilland\palmtree.math.core.uint\palmtree.math.core.uint\pmc_uint_internal.h
; File z:\sources\lunor\repos\rougemeilland\palmtree.math.core.uint\palmtree.math.core.uint\pmc_divrem.c
; File z:\sources\lunor\repos\rougemeilland\palmtree.math.core.uint\palmtree.math.core.uint\pmc_inline_func.h
; File z:\sources\lunor\repos\rougemeilland\palmtree.math.core.uint\palmtree.math.core.uint\pmc_divrem.c
; File z:\sources\lunor\repos\rougemeilland\palmtree.math.core.uint\palmtree.math.core.uint\pmc_inline_func.h
; File z:\sources\lunor\repos\rougemeilland\palmtree.math.core.uint\palmtree.math.core.uint\pmc_divrem.c
; File z:\sources\lunor\repos\rougemeilland\palmtree.math.core.uint\palmtree.math.core.uint\pmc_inline_func.h
; File z:\sources\lunor\repos\rougemeilland\palmtree.math.core.uint\palmtree.math.core.uint\pmc_divrem.c
; File z:\sources\lunor\repos\rougemeilland\palmtree.math.core.uint\palmtree.math.core.uint\pmc_inline_func.h
; File z:\sources\lunor\repos\rougemeilland\palmtree.math.core.uint\palmtree.math.core.uint\pmc_divrem.c
; File z:\sources\lunor\repos\rougemeilland\palmtree.math.core.uint\palmtree.math.core.uint\pmc_inline_func.h
; File z:\sources\lunor\repos\rougemeilland\palmtree.math.core.uint\palmtree.math.core.uint\pmc_divrem.c
; File z:\sources\lunor\repos\rougemeilland\palmtree.math.core.uint\palmtree.math.core.uint\pmc_inline_func.h
; File z:\sources\lunor\repos\rougemeilland\palmtree.math.core.uint\palmtree.math.core.uint\pmc_divrem.c
; File z:\sources\lunor\repos\rougemeilland\palmtree.math.core.uint\palmtree.math.core.uint\pmc_inline_func.h
; File z:\sources\lunor\repos\rougemeilland\palmtree.math.core.uint\palmtree.math.core.uint\pmc_divrem.c
; File z:\sources\lunor\repos\rougemeilland\palmtree.math.core.uint\palmtree.math.core.uint\pmc_inline_func.h
; File z:\sources\lunor\repos\rougemeilland\palmtree.math.core.uint\palmtree.math.core.uint\pmc_uint_internal.h
; File z:\sources\lunor\repos\rougemeilland\palmtree.math.core.uint\palmtree.math.core.uint\pmc_inline_func.h
; File z:\sources\lunor\repos\rougemeilland\palmtree.math.core.uint\palmtree.math.core.uint\pmc_uint_internal.h
; File z:\sources\lunor\repos\rougemeilland\palmtree.math.core.uint\palmtree.math.core.uint\pmc_inline_func.h
; File z:\sources\lunor\repos\rougemeilland\palmtree.math.core.uint\palmtree.math.core.uint\pmc_divrem.c
; File z:\sources\lunor\repos\rougemeilland\palmtree.math.core.uint\palmtree.math.core.uint\pmc_uint_internal.h
; File z:\sources\lunor\repos\rougemeilland\palmtree.math.core.uint\palmtree.math.core.uint\pmc_divrem.c
; File z:\sources\lunor\repos\rougemeilland\palmtree.math.core.uint\palmtree.math.core.uint\pmc_inline_func.h
; File z:\sources\lunor\repos\rougemeilland\palmtree.math.core.uint\palmtree.math.core.uint\pmc_divrem.c
; File z:\sources\lunor\repos\rougemeilland\palmtree.math.core.uint\palmtree.math.core.uint\pmc_inline_func.h
; File z:\sources\lunor\repos\rougemeilland\palmtree.math.core.uint\palmtree.math.core.uint\pmc_divrem.c
; File z:\sources\lunor\repos\rougemeilland\palmtree.math.core.uint\palmtree.math.core.uint\pmc_inline_func.h
; File z:\sources\lunor\repos\rougemeilland\palmtree.math.core.uint\palmtree.math.core.uint\pmc_divrem.c
; File z:\sources\lunor\repos\rougemeilland\palmtree.math.core.uint\palmtree.math.core.uint\pmc_inline_func.h
; File z:\sources\lunor\repos\rougemeilland\palmtree.math.core.uint\palmtree.math.core.uint\pmc_divrem.c
; File z:\sources\lunor\repos\rougemeilland\palmtree.math.core.uint\palmtree.math.core.uint\pmc_uint_internal.h
; File z:\sources\lunor\repos\rougemeilland\palmtree.math.core.uint\palmtree.math.core.uint\pmc_inline_func.h
; File z:\sources\lunor\repos\rougemeilland\palmtree.math.core.uint\palmtree.math.core.uint\pmc_uint_internal.h
; File z:\sources\lunor\repos\rougemeilland\palmtree.math.core.uint\palmtree.math.core.uint\pmc_inline_func.h
; File z:\sources\lunor\repos\rougemeilland\palmtree.math.core.uint\palmtree.math.core.uint\pmc_divrem.c
; File z:\sources\lunor\repos\rougemeilland\palmtree.math.core.uint\palmtree.math.core.uint\pmc_uint_internal.h
; File z:\sources\lunor\repos\rougemeilland\palmtree.math.core.uint\palmtree.math.core.uint\pmc_divrem.c
; File z:\sources\lunor\repos\rougemeilland\palmtree.math.core.uint\palmtree.math.core.uint\pmc_inline_func.h
; File z:\sources\lunor\repos\rougemeilland\palmtree.math.core.uint\palmtree.math.core.uint\pmc_divrem.c
; File z:\sources\lunor\repos\rougemeilland\palmtree.math.core.uint\palmtree.math.core.uint\pmc_inline_func.h
; File z:\sources\lunor\repos\rougemeilland\palmtree.math.core.uint\palmtree.math.core.uint\pmc_divrem.c
; File z:\sources\lunor\repos\rougemeilland\palmtree.math.core.uint\palmtree.math.core.uint\pmc_uint_internal.h
; File z:\sources\lunor\repos\rougemeilland\palmtree.math.core.uint\palmtree.math.core.uint\pmc_divrem.c
; File z:\sources\lunor\repos\rougemeilland\palmtree.math.core.uint\palmtree.math.core.uint\pmc_inline_func.h
; File z:\sources\lunor\repos\rougemeilland\palmtree.math.core.uint\palmtree.math.core.uint\pmc_divrem.c
; File z:\sources\lunor\repos\rougemeilland\palmtree.math.core.uint\palmtree.math.core.uint\pmc_inline_func.h
; File z:\sources\lunor\repos\rougemeilland\palmtree.math.core.uint\palmtree.math.core.uint\pmc_divrem.c
; File z:\sources\lunor\repos\rougemeilland\palmtree.math.core.uint\palmtree.math.core.uint\pmc_inline_func.h
; File z:\sources\lunor\repos\rougemeilland\palmtree.math.core.uint\palmtree.math.core.uint\pmc_divrem.c
;	COMDAT _SubtructOneLineX
_TEXT	SEGMENT
_count$1$ = -4						; size = 4
_u_buf$ = 8						; size = 4
_u_buf_len$ = 12					; size = 4
_v_buf$ = 16						; size = 4
_v_buf_len$ = 20					; size = 4
_t_hi$2$ = 24						; size = 4
_t_hi$2$ = 24						; size = 4
_t_hi$2$ = 24						; size = 4
_t_hi$2$ = 24						; size = 4
_t_hi$2$ = 24						; size = 4
_t_hi$2$ = 24						; size = 4
_t_hi$2$ = 24						; size = 4
_t_hi$2$ = 24						; size = 4
_t_hi$2$ = 24						; size = 4
_t_hi$2$ = 24						; size = 4
_t_hi$2$ = 24						; size = 4
_t_hi$2$ = 24						; size = 4
_t_hi$2$ = 24						; size = 4
_t_hi$2$ = 24						; size = 4
_t_hi$2$ = 24						; size = 4
_t_hi$2$ = 24						; size = 4
_t_hi$2$ = 24						; size = 4
_t_hi$2$ = 24						; size = 4
_t_hi$2$ = 24						; size = 4
_t_hi$2$ = 24						; size = 4
_t_hi$2$ = 24						; size = 4
_t_hi$2$ = 24						; size = 4
_t_hi$2$ = 24						; size = 4
_t_hi$2$ = 24						; size = 4
_t_hi$2$ = 24						; size = 4
_t_hi$2$ = 24						; size = 4
_t_hi$2$ = 24						; size = 4
_t_hi$2$ = 24						; size = 4
_k$1$ = 24						; size = 4
_t_lo$1 = 24						; size = 4
_t_lo$2 = 24						; size = 4
_t_lo$3 = 24						; size = 4
_t_lo$4 = 24						; size = 4
_t_lo$5 = 24						; size = 4
_t_lo$6 = 24						; size = 4
_t_lo$7 = 24						; size = 4
_t_lo$8 = 24						; size = 4
_t_lo$9 = 24						; size = 4
_t_lo$10 = 24						; size = 4
_t_lo$11 = 24						; size = 4
_t_lo$12 = 24						; size = 4
_q_index$ = 24						; size = 4
_q_$ = 28						; size = 4
_SubtructOneLineX PROC					; COMDAT

; 604  : {

	push	ebp
	mov	ebp, esp
	sub	esp, 8

; 605  :     __UNIT_TYPE_DIV* u_ptr = &u_buf[q_index];

	mov	eax, DWORD PTR _q_index$[ebp]
	mov	ecx, DWORD PTR _u_buf$[ebp]
	push	ebx
	push	esi

; 606  :     __UNIT_TYPE_DIV* v_ptr = &v_buf[0];
; 607  :     __UNIT_TYPE v_count = v_buf_len;
; 608  :     __UNIT_TYPE_DIV k = 0;
; 609  :     char c = 0;

	xor	bl, bl
	mov	DWORD PTR _k$1$[ebp], 0
	lea	ecx, DWORD PTR [ecx+eax*4]

; 610  : 
; 611  :     __UNIT_TYPE count = v_count >> 5;

	mov	eax, DWORD PTR _v_buf_len$[ebp]
	mov	edx, eax
	shr	edx, 5
	push	edi

; 612  :     while (count != 0)

	mov	edi, DWORD PTR _v_buf$[ebp]
	test	edx, edx
	mov	DWORD PTR _count$1$[ebp], edx
	mov	edx, DWORD PTR _q_$[ebp]
	je	$LN3@SubtructOn
$LL2@SubtructOn:
; File z:\sources\lunor\repos\rougemeilland\palmtree.math.core.uint\palmtree.math.core.uint\pmc_inline_func.h

; 364  :         return (_FROMDWORDTOWORD((_UINT64_T)u * v, w_hi));

	mov	eax, DWORD PTR [edi]
	mul	edx
	mov	esi, eax
	mov	edi, edx

; 254  :         return (_addcarryx_u32(carry, u, v, w));

	add	esi, DWORD PTR _k$1$[ebp]
	mov	eax, 0
	adcx	edi, eax
; File z:\sources\lunor\repos\rougemeilland\palmtree.math.core.uint\palmtree.math.core.uint\pmc_divrem.c

; 447  :     c = _SUBTRUCT_UNIT_DIV(c, *up, t_lo, up);

	mov	eax, DWORD PTR [ecx]
; File z:\sources\lunor\repos\rougemeilland\palmtree.math.core.uint\palmtree.math.core.uint\pmc_inline_func.h

; 282  :         return (_subborrow_u32(borrow, u, v, w));

	add	bl, 255					; 000000ffH
	sbb	eax, esi
	mov	DWORD PTR [ecx], eax

; 364  :         return (_FROMDWORDTOWORD((_UINT64_T)u * v, w_hi));

	mov	eax, DWORD PTR _v_buf$[ebp]

; 282  :         return (_subborrow_u32(borrow, u, v, w));

	setb	bl

; 364  :         return (_FROMDWORDTOWORD((_UINT64_T)u * v, w_hi));

	mov	eax, DWORD PTR [eax+4]
	mul	DWORD PTR _q_$[ebp]
	mov	esi, eax
	mov	eax, edx
; File z:\sources\lunor\repos\rougemeilland\palmtree.math.core.uint\palmtree.math.core.uint\pmc_divrem.c

; 445  :     t_lo = _MULTIPLYX_UNIT_DIV(*vp, q_, &t_hi);

	mov	DWORD PTR _t_lo$12[ebp], esi
; File z:\sources\lunor\repos\rougemeilland\palmtree.math.core.uint\palmtree.math.core.uint\pmc_inline_func.h

; 254  :         return (_addcarryx_u32(carry, u, v, w));

	mov	edx, 0
	add	esi, edi
	adcx	eax, edx
	mov	DWORD PTR _t_hi$2$[ebp], eax

; 282  :         return (_subborrow_u32(borrow, u, v, w));

	add	bl, 255					; 000000ffH
; File z:\sources\lunor\repos\rougemeilland\palmtree.math.core.uint\palmtree.math.core.uint\pmc_divrem.c

; 447  :     c = _SUBTRUCT_UNIT_DIV(c, *up, t_lo, up);

	mov	eax, DWORD PTR [ecx+4]
; File z:\sources\lunor\repos\rougemeilland\palmtree.math.core.uint\palmtree.math.core.uint\pmc_inline_func.h

; 282  :         return (_subborrow_u32(borrow, u, v, w));

	sbb	eax, esi
	mov	DWORD PTR [ecx+4], eax

; 364  :         return (_FROMDWORDTOWORD((_UINT64_T)u * v, w_hi));

	mov	eax, DWORD PTR _v_buf$[ebp]

; 282  :         return (_subborrow_u32(borrow, u, v, w));

	setb	bl

; 364  :         return (_FROMDWORDTOWORD((_UINT64_T)u * v, w_hi));

	mov	eax, DWORD PTR [eax+8]
	mul	DWORD PTR _q_$[ebp]
	mov	esi, eax
	mov	edi, edx

; 254  :         return (_addcarryx_u32(carry, u, v, w));

	add	esi, DWORD PTR _t_hi$2$[ebp]
	mov	eax, 0
	adcx	edi, eax
; File z:\sources\lunor\repos\rougemeilland\palmtree.math.core.uint\palmtree.math.core.uint\pmc_divrem.c

; 447  :     c = _SUBTRUCT_UNIT_DIV(c, *up, t_lo, up);

	mov	eax, DWORD PTR [ecx+8]
; File z:\sources\lunor\repos\rougemeilland\palmtree.math.core.uint\palmtree.math.core.uint\pmc_inline_func.h

; 282  :         return (_subborrow_u32(borrow, u, v, w));

	add	bl, 255					; 000000ffH
	sbb	eax, esi
	mov	DWORD PTR [ecx+8], eax

; 364  :         return (_FROMDWORDTOWORD((_UINT64_T)u * v, w_hi));

	mov	eax, DWORD PTR _v_buf$[ebp]

; 282  :         return (_subborrow_u32(borrow, u, v, w));

	setb	bl

; 364  :         return (_FROMDWORDTOWORD((_UINT64_T)u * v, w_hi));

	mov	eax, DWORD PTR [eax+12]
	mul	DWORD PTR _q_$[ebp]
	mov	esi, eax
	mov	eax, edx
; File z:\sources\lunor\repos\rougemeilland\palmtree.math.core.uint\palmtree.math.core.uint\pmc_divrem.c

; 445  :     t_lo = _MULTIPLYX_UNIT_DIV(*vp, q_, &t_hi);

	mov	DWORD PTR _t_lo$11[ebp], esi
; File z:\sources\lunor\repos\rougemeilland\palmtree.math.core.uint\palmtree.math.core.uint\pmc_inline_func.h

; 254  :         return (_addcarryx_u32(carry, u, v, w));

	mov	edx, 0
	add	esi, edi
	adcx	eax, edx
	mov	DWORD PTR _t_hi$2$[ebp], eax

; 282  :         return (_subborrow_u32(borrow, u, v, w));

	add	bl, 255					; 000000ffH
; File z:\sources\lunor\repos\rougemeilland\palmtree.math.core.uint\palmtree.math.core.uint\pmc_divrem.c

; 447  :     c = _SUBTRUCT_UNIT_DIV(c, *up, t_lo, up);

	mov	eax, DWORD PTR [ecx+12]
; File z:\sources\lunor\repos\rougemeilland\palmtree.math.core.uint\palmtree.math.core.uint\pmc_inline_func.h

; 282  :         return (_subborrow_u32(borrow, u, v, w));

	sbb	eax, esi
	mov	DWORD PTR [ecx+12], eax

; 364  :         return (_FROMDWORDTOWORD((_UINT64_T)u * v, w_hi));

	mov	eax, DWORD PTR _v_buf$[ebp]

; 282  :         return (_subborrow_u32(borrow, u, v, w));

	setb	bl

; 364  :         return (_FROMDWORDTOWORD((_UINT64_T)u * v, w_hi));

	mov	eax, DWORD PTR [eax+16]
	mul	DWORD PTR _q_$[ebp]
	mov	esi, eax
	mov	edi, edx

; 254  :         return (_addcarryx_u32(carry, u, v, w));

	add	esi, DWORD PTR _t_hi$2$[ebp]
	mov	eax, 0
	adcx	edi, eax
; File z:\sources\lunor\repos\rougemeilland\palmtree.math.core.uint\palmtree.math.core.uint\pmc_divrem.c

; 447  :     c = _SUBTRUCT_UNIT_DIV(c, *up, t_lo, up);

	mov	eax, DWORD PTR [ecx+16]
; File z:\sources\lunor\repos\rougemeilland\palmtree.math.core.uint\palmtree.math.core.uint\pmc_inline_func.h

; 282  :         return (_subborrow_u32(borrow, u, v, w));

	add	bl, 255					; 000000ffH
	sbb	eax, esi
	mov	DWORD PTR [ecx+16], eax

; 364  :         return (_FROMDWORDTOWORD((_UINT64_T)u * v, w_hi));

	mov	eax, DWORD PTR _v_buf$[ebp]

; 282  :         return (_subborrow_u32(borrow, u, v, w));

	setb	bl

; 364  :         return (_FROMDWORDTOWORD((_UINT64_T)u * v, w_hi));

	mov	eax, DWORD PTR [eax+20]
	mul	DWORD PTR _q_$[ebp]
	mov	esi, eax
	mov	eax, edx
; File z:\sources\lunor\repos\rougemeilland\palmtree.math.core.uint\palmtree.math.core.uint\pmc_divrem.c

; 445  :     t_lo = _MULTIPLYX_UNIT_DIV(*vp, q_, &t_hi);

	mov	DWORD PTR _t_lo$10[ebp], esi
; File z:\sources\lunor\repos\rougemeilland\palmtree.math.core.uint\palmtree.math.core.uint\pmc_inline_func.h

; 254  :         return (_addcarryx_u32(carry, u, v, w));

	mov	edx, 0
	add	esi, edi
	adcx	eax, edx
	mov	DWORD PTR _t_hi$2$[ebp], eax

; 282  :         return (_subborrow_u32(borrow, u, v, w));

	add	bl, 255					; 000000ffH
; File z:\sources\lunor\repos\rougemeilland\palmtree.math.core.uint\palmtree.math.core.uint\pmc_divrem.c

; 447  :     c = _SUBTRUCT_UNIT_DIV(c, *up, t_lo, up);

	mov	eax, DWORD PTR [ecx+20]
; File z:\sources\lunor\repos\rougemeilland\palmtree.math.core.uint\palmtree.math.core.uint\pmc_inline_func.h

; 282  :         return (_subborrow_u32(borrow, u, v, w));

	sbb	eax, esi
	mov	DWORD PTR [ecx+20], eax
	setb	bl

; 364  :         return (_FROMDWORDTOWORD((_UINT64_T)u * v, w_hi));

	mov	edi, DWORD PTR _v_buf$[ebp]
	mov	eax, DWORD PTR [edi+24]
	mul	DWORD PTR _q_$[ebp]
	mov	esi, eax
	mov	eax, edx

; 254  :         return (_addcarryx_u32(carry, u, v, w));

	add	esi, DWORD PTR _t_hi$2$[ebp]
	mov	edx, 0
	adcx	eax, edx
	mov	DWORD PTR _t_hi$2$[ebp], eax

; 282  :         return (_subborrow_u32(borrow, u, v, w));

	add	bl, 255					; 000000ffH
; File z:\sources\lunor\repos\rougemeilland\palmtree.math.core.uint\palmtree.math.core.uint\pmc_divrem.c

; 447  :     c = _SUBTRUCT_UNIT_DIV(c, *up, t_lo, up);

	mov	eax, DWORD PTR [ecx+24]
; File z:\sources\lunor\repos\rougemeilland\palmtree.math.core.uint\palmtree.math.core.uint\pmc_inline_func.h

; 282  :         return (_subborrow_u32(borrow, u, v, w));

	sbb	eax, esi
	mov	DWORD PTR [ecx+24], eax

; 364  :         return (_FROMDWORDTOWORD((_UINT64_T)u * v, w_hi));

	mov	eax, DWORD PTR [edi+28]

; 282  :         return (_subborrow_u32(borrow, u, v, w));

	setb	bl

; 364  :         return (_FROMDWORDTOWORD((_UINT64_T)u * v, w_hi));

	mul	DWORD PTR _q_$[ebp]
	mov	esi, eax
	mov	edi, edx

; 254  :         return (_addcarryx_u32(carry, u, v, w));

	add	esi, DWORD PTR _t_hi$2$[ebp]
	mov	eax, 0
	adcx	edi, eax
; File z:\sources\lunor\repos\rougemeilland\palmtree.math.core.uint\palmtree.math.core.uint\pmc_divrem.c

; 447  :     c = _SUBTRUCT_UNIT_DIV(c, *up, t_lo, up);

	mov	eax, DWORD PTR [ecx+28]
; File z:\sources\lunor\repos\rougemeilland\palmtree.math.core.uint\palmtree.math.core.uint\pmc_inline_func.h

; 282  :         return (_subborrow_u32(borrow, u, v, w));

	add	bl, 255					; 000000ffH
	sbb	eax, esi
	mov	DWORD PTR [ecx+28], eax

; 364  :         return (_FROMDWORDTOWORD((_UINT64_T)u * v, w_hi));

	mov	eax, DWORD PTR _v_buf$[ebp]

; 282  :         return (_subborrow_u32(borrow, u, v, w));

	setb	bl

; 364  :         return (_FROMDWORDTOWORD((_UINT64_T)u * v, w_hi));

	mov	eax, DWORD PTR [eax+32]
	mul	DWORD PTR _q_$[ebp]
	mov	esi, eax
	mov	eax, edx

; 254  :         return (_addcarryx_u32(carry, u, v, w));

	add	esi, edi
	mov	edx, 0
	adcx	eax, edx
	mov	DWORD PTR _t_hi$2$[ebp], eax

; 282  :         return (_subborrow_u32(borrow, u, v, w));

	add	bl, 255					; 000000ffH
; File z:\sources\lunor\repos\rougemeilland\palmtree.math.core.uint\palmtree.math.core.uint\pmc_divrem.c

; 447  :     c = _SUBTRUCT_UNIT_DIV(c, *up, t_lo, up);

	mov	eax, DWORD PTR [ecx+32]
; File z:\sources\lunor\repos\rougemeilland\palmtree.math.core.uint\palmtree.math.core.uint\pmc_inline_func.h

; 282  :         return (_subborrow_u32(borrow, u, v, w));

	sbb	eax, esi
	mov	DWORD PTR [ecx+32], eax

; 364  :         return (_FROMDWORDTOWORD((_UINT64_T)u * v, w_hi));

	mov	eax, DWORD PTR _v_buf$[ebp]

; 282  :         return (_subborrow_u32(borrow, u, v, w));

	setb	bl

; 364  :         return (_FROMDWORDTOWORD((_UINT64_T)u * v, w_hi));

	mov	eax, DWORD PTR [eax+36]
	mul	DWORD PTR _q_$[ebp]
	mov	esi, eax
	mov	edi, edx

; 254  :         return (_addcarryx_u32(carry, u, v, w));

	add	esi, DWORD PTR _t_hi$2$[ebp]
	mov	eax, 0
	adcx	edi, eax
; File z:\sources\lunor\repos\rougemeilland\palmtree.math.core.uint\palmtree.math.core.uint\pmc_divrem.c

; 447  :     c = _SUBTRUCT_UNIT_DIV(c, *up, t_lo, up);

	mov	eax, DWORD PTR [ecx+36]
; File z:\sources\lunor\repos\rougemeilland\palmtree.math.core.uint\palmtree.math.core.uint\pmc_inline_func.h

; 282  :         return (_subborrow_u32(borrow, u, v, w));

	add	bl, 255					; 000000ffH
	sbb	eax, esi
	mov	DWORD PTR [ecx+36], eax

; 364  :         return (_FROMDWORDTOWORD((_UINT64_T)u * v, w_hi));

	mov	eax, DWORD PTR _v_buf$[ebp]

; 282  :         return (_subborrow_u32(borrow, u, v, w));

	setb	bl

; 364  :         return (_FROMDWORDTOWORD((_UINT64_T)u * v, w_hi));

	mov	eax, DWORD PTR [eax+40]
	mul	DWORD PTR _q_$[ebp]
	mov	esi, eax
	mov	eax, edx

; 254  :         return (_addcarryx_u32(carry, u, v, w));

	add	esi, edi
	mov	edx, 0
	adcx	eax, edx
	mov	DWORD PTR _t_hi$2$[ebp], eax

; 282  :         return (_subborrow_u32(borrow, u, v, w));

	add	bl, 255					; 000000ffH
; File z:\sources\lunor\repos\rougemeilland\palmtree.math.core.uint\palmtree.math.core.uint\pmc_divrem.c

; 447  :     c = _SUBTRUCT_UNIT_DIV(c, *up, t_lo, up);

	mov	eax, DWORD PTR [ecx+40]
; File z:\sources\lunor\repos\rougemeilland\palmtree.math.core.uint\palmtree.math.core.uint\pmc_inline_func.h

; 282  :         return (_subborrow_u32(borrow, u, v, w));

	sbb	eax, esi
	mov	DWORD PTR [ecx+40], eax

; 364  :         return (_FROMDWORDTOWORD((_UINT64_T)u * v, w_hi));

	mov	eax, DWORD PTR _v_buf$[ebp]

; 282  :         return (_subborrow_u32(borrow, u, v, w));

	setb	bl

; 364  :         return (_FROMDWORDTOWORD((_UINT64_T)u * v, w_hi));

	mov	eax, DWORD PTR [eax+44]
	mul	DWORD PTR _q_$[ebp]
	mov	esi, eax
	mov	edi, edx

; 254  :         return (_addcarryx_u32(carry, u, v, w));

	add	esi, DWORD PTR _t_hi$2$[ebp]
	mov	eax, 0
	adcx	edi, eax
; File z:\sources\lunor\repos\rougemeilland\palmtree.math.core.uint\palmtree.math.core.uint\pmc_divrem.c

; 447  :     c = _SUBTRUCT_UNIT_DIV(c, *up, t_lo, up);

	mov	eax, DWORD PTR [ecx+44]
; File z:\sources\lunor\repos\rougemeilland\palmtree.math.core.uint\palmtree.math.core.uint\pmc_inline_func.h

; 282  :         return (_subborrow_u32(borrow, u, v, w));

	add	bl, 255					; 000000ffH
	sbb	eax, esi
	setb	bl
	mov	DWORD PTR [ecx+44], eax

; 364  :         return (_FROMDWORDTOWORD((_UINT64_T)u * v, w_hi));

	mov	eax, DWORD PTR _v_buf$[ebp]
	mov	eax, DWORD PTR [eax+48]
	mul	DWORD PTR _q_$[ebp]
	mov	esi, eax
	mov	eax, edx

; 254  :         return (_addcarryx_u32(carry, u, v, w));

	add	esi, edi
	mov	edx, 0
	adcx	eax, edx
	mov	DWORD PTR _t_hi$2$[ebp], eax

; 282  :         return (_subborrow_u32(borrow, u, v, w));

	add	bl, 255					; 000000ffH
; File z:\sources\lunor\repos\rougemeilland\palmtree.math.core.uint\palmtree.math.core.uint\pmc_divrem.c

; 447  :     c = _SUBTRUCT_UNIT_DIV(c, *up, t_lo, up);

	mov	eax, DWORD PTR [ecx+48]
; File z:\sources\lunor\repos\rougemeilland\palmtree.math.core.uint\palmtree.math.core.uint\pmc_inline_func.h

; 282  :         return (_subborrow_u32(borrow, u, v, w));

	sbb	eax, esi
	mov	DWORD PTR [ecx+48], eax

; 364  :         return (_FROMDWORDTOWORD((_UINT64_T)u * v, w_hi));

	mov	eax, DWORD PTR _v_buf$[ebp]

; 282  :         return (_subborrow_u32(borrow, u, v, w));

	setb	bl

; 364  :         return (_FROMDWORDTOWORD((_UINT64_T)u * v, w_hi));

	mov	eax, DWORD PTR [eax+52]
	mul	DWORD PTR _q_$[ebp]
	mov	esi, eax
	mov	edi, edx

; 254  :         return (_addcarryx_u32(carry, u, v, w));

	add	esi, DWORD PTR _t_hi$2$[ebp]
	mov	eax, 0
	adcx	edi, eax
; File z:\sources\lunor\repos\rougemeilland\palmtree.math.core.uint\palmtree.math.core.uint\pmc_divrem.c

; 447  :     c = _SUBTRUCT_UNIT_DIV(c, *up, t_lo, up);

	mov	eax, DWORD PTR [ecx+52]
; File z:\sources\lunor\repos\rougemeilland\palmtree.math.core.uint\palmtree.math.core.uint\pmc_inline_func.h

; 282  :         return (_subborrow_u32(borrow, u, v, w));

	add	bl, 255					; 000000ffH
	sbb	eax, esi
	mov	DWORD PTR [ecx+52], eax

; 364  :         return (_FROMDWORDTOWORD((_UINT64_T)u * v, w_hi));

	mov	eax, DWORD PTR _v_buf$[ebp]

; 282  :         return (_subborrow_u32(borrow, u, v, w));

	setb	bl

; 364  :         return (_FROMDWORDTOWORD((_UINT64_T)u * v, w_hi));

	mov	eax, DWORD PTR [eax+56]
	mul	DWORD PTR _q_$[ebp]
	mov	esi, eax
	mov	eax, edx

; 254  :         return (_addcarryx_u32(carry, u, v, w));

	add	esi, edi
	mov	edx, 0
	adcx	eax, edx
	mov	DWORD PTR _t_hi$2$[ebp], eax

; 282  :         return (_subborrow_u32(borrow, u, v, w));

	add	bl, 255					; 000000ffH
; File z:\sources\lunor\repos\rougemeilland\palmtree.math.core.uint\palmtree.math.core.uint\pmc_divrem.c

; 447  :     c = _SUBTRUCT_UNIT_DIV(c, *up, t_lo, up);

	mov	eax, DWORD PTR [ecx+56]
; File z:\sources\lunor\repos\rougemeilland\palmtree.math.core.uint\palmtree.math.core.uint\pmc_inline_func.h

; 282  :         return (_subborrow_u32(borrow, u, v, w));

	sbb	eax, esi
	mov	DWORD PTR [ecx+56], eax

; 364  :         return (_FROMDWORDTOWORD((_UINT64_T)u * v, w_hi));

	mov	eax, DWORD PTR _v_buf$[ebp]

; 282  :         return (_subborrow_u32(borrow, u, v, w));

	setb	bl

; 364  :         return (_FROMDWORDTOWORD((_UINT64_T)u * v, w_hi));

	mov	eax, DWORD PTR [eax+60]
	mul	DWORD PTR _q_$[ebp]
	mov	esi, eax
	mov	edi, edx

; 254  :         return (_addcarryx_u32(carry, u, v, w));

	add	esi, DWORD PTR _t_hi$2$[ebp]
	mov	eax, 0
	adcx	edi, eax
; File z:\sources\lunor\repos\rougemeilland\palmtree.math.core.uint\palmtree.math.core.uint\pmc_divrem.c

; 447  :     c = _SUBTRUCT_UNIT_DIV(c, *up, t_lo, up);

	mov	eax, DWORD PTR [ecx+60]
; File z:\sources\lunor\repos\rougemeilland\palmtree.math.core.uint\palmtree.math.core.uint\pmc_inline_func.h

; 282  :         return (_subborrow_u32(borrow, u, v, w));

	add	bl, 255					; 000000ffH
	sbb	eax, esi
	mov	DWORD PTR [ecx+60], eax

; 364  :         return (_FROMDWORDTOWORD((_UINT64_T)u * v, w_hi));

	mov	eax, DWORD PTR _v_buf$[ebp]

; 282  :         return (_subborrow_u32(borrow, u, v, w));

	setb	bl

; 364  :         return (_FROMDWORDTOWORD((_UINT64_T)u * v, w_hi));

	mov	eax, DWORD PTR [eax+64]
	mul	DWORD PTR _q_$[ebp]
	mov	esi, eax
	mov	eax, edx

; 254  :         return (_addcarryx_u32(carry, u, v, w));

	add	esi, edi
	mov	edx, 0
	adcx	eax, edx
	mov	DWORD PTR _t_hi$2$[ebp], eax

; 282  :         return (_subborrow_u32(borrow, u, v, w));

	add	bl, 255					; 000000ffH
; File z:\sources\lunor\repos\rougemeilland\palmtree.math.core.uint\palmtree.math.core.uint\pmc_divrem.c

; 447  :     c = _SUBTRUCT_UNIT_DIV(c, *up, t_lo, up);

	mov	eax, DWORD PTR [ecx+64]
; File z:\sources\lunor\repos\rougemeilland\palmtree.math.core.uint\palmtree.math.core.uint\pmc_inline_func.h

; 282  :         return (_subborrow_u32(borrow, u, v, w));

	sbb	eax, esi
	mov	DWORD PTR [ecx+64], eax

; 364  :         return (_FROMDWORDTOWORD((_UINT64_T)u * v, w_hi));

	mov	eax, DWORD PTR _v_buf$[ebp]

; 282  :         return (_subborrow_u32(borrow, u, v, w));

	setb	bl

; 364  :         return (_FROMDWORDTOWORD((_UINT64_T)u * v, w_hi));

	mov	eax, DWORD PTR [eax+68]
	mul	DWORD PTR _q_$[ebp]
	mov	esi, eax
	mov	edi, edx

; 254  :         return (_addcarryx_u32(carry, u, v, w));

	add	esi, DWORD PTR _t_hi$2$[ebp]
	mov	eax, 0
	adcx	edi, eax
; File z:\sources\lunor\repos\rougemeilland\palmtree.math.core.uint\palmtree.math.core.uint\pmc_divrem.c

; 447  :     c = _SUBTRUCT_UNIT_DIV(c, *up, t_lo, up);

	mov	eax, DWORD PTR [ecx+68]
; File z:\sources\lunor\repos\rougemeilland\palmtree.math.core.uint\palmtree.math.core.uint\pmc_inline_func.h

; 282  :         return (_subborrow_u32(borrow, u, v, w));

	add	bl, 255					; 000000ffH
	sbb	eax, esi
	setb	bl
	mov	DWORD PTR [ecx+68], eax

; 364  :         return (_FROMDWORDTOWORD((_UINT64_T)u * v, w_hi));

	mov	eax, DWORD PTR _v_buf$[ebp]
	mov	eax, DWORD PTR [eax+72]
	mul	DWORD PTR _q_$[ebp]
	mov	esi, eax
	mov	eax, edx

; 254  :         return (_addcarryx_u32(carry, u, v, w));

	add	esi, edi
	mov	edx, 0
	adcx	eax, edx
	mov	DWORD PTR _t_hi$2$[ebp], eax

; 282  :         return (_subborrow_u32(borrow, u, v, w));

	add	bl, 255					; 000000ffH
; File z:\sources\lunor\repos\rougemeilland\palmtree.math.core.uint\palmtree.math.core.uint\pmc_divrem.c

; 447  :     c = _SUBTRUCT_UNIT_DIV(c, *up, t_lo, up);

	mov	eax, DWORD PTR [ecx+72]
; File z:\sources\lunor\repos\rougemeilland\palmtree.math.core.uint\palmtree.math.core.uint\pmc_inline_func.h

; 282  :         return (_subborrow_u32(borrow, u, v, w));

	sbb	eax, esi
	mov	DWORD PTR [ecx+72], eax

; 364  :         return (_FROMDWORDTOWORD((_UINT64_T)u * v, w_hi));

	mov	eax, DWORD PTR _v_buf$[ebp]

; 282  :         return (_subborrow_u32(borrow, u, v, w));

	setb	bl

; 364  :         return (_FROMDWORDTOWORD((_UINT64_T)u * v, w_hi));

	mov	eax, DWORD PTR [eax+76]
	mul	DWORD PTR _q_$[ebp]
	mov	esi, eax
	mov	edi, edx

; 254  :         return (_addcarryx_u32(carry, u, v, w));

	add	esi, DWORD PTR _t_hi$2$[ebp]
	mov	eax, 0
	adcx	edi, eax
; File z:\sources\lunor\repos\rougemeilland\palmtree.math.core.uint\palmtree.math.core.uint\pmc_divrem.c

; 447  :     c = _SUBTRUCT_UNIT_DIV(c, *up, t_lo, up);

	mov	eax, DWORD PTR [ecx+76]
; File z:\sources\lunor\repos\rougemeilland\palmtree.math.core.uint\palmtree.math.core.uint\pmc_inline_func.h

; 282  :         return (_subborrow_u32(borrow, u, v, w));

	add	bl, 255					; 000000ffH
	sbb	eax, esi
	mov	DWORD PTR [ecx+76], eax

; 364  :         return (_FROMDWORDTOWORD((_UINT64_T)u * v, w_hi));

	mov	eax, DWORD PTR _v_buf$[ebp]

; 282  :         return (_subborrow_u32(borrow, u, v, w));

	setb	bl

; 364  :         return (_FROMDWORDTOWORD((_UINT64_T)u * v, w_hi));

	mov	eax, DWORD PTR [eax+80]
	mul	DWORD PTR _q_$[ebp]
	mov	esi, eax
	mov	eax, edx

; 254  :         return (_addcarryx_u32(carry, u, v, w));

	add	esi, edi
	mov	edx, 0
	adcx	eax, edx
	mov	DWORD PTR _t_hi$2$[ebp], eax

; 282  :         return (_subborrow_u32(borrow, u, v, w));

	add	bl, 255					; 000000ffH
; File z:\sources\lunor\repos\rougemeilland\palmtree.math.core.uint\palmtree.math.core.uint\pmc_divrem.c

; 447  :     c = _SUBTRUCT_UNIT_DIV(c, *up, t_lo, up);

	mov	eax, DWORD PTR [ecx+80]
; File z:\sources\lunor\repos\rougemeilland\palmtree.math.core.uint\palmtree.math.core.uint\pmc_inline_func.h

; 282  :         return (_subborrow_u32(borrow, u, v, w));

	sbb	eax, esi
	mov	DWORD PTR [ecx+80], eax

; 364  :         return (_FROMDWORDTOWORD((_UINT64_T)u * v, w_hi));

	mov	eax, DWORD PTR _v_buf$[ebp]

; 282  :         return (_subborrow_u32(borrow, u, v, w));

	setb	bl

; 364  :         return (_FROMDWORDTOWORD((_UINT64_T)u * v, w_hi));

	mov	eax, DWORD PTR [eax+84]
	mul	DWORD PTR _q_$[ebp]
	mov	esi, eax
	mov	edi, edx

; 254  :         return (_addcarryx_u32(carry, u, v, w));

	add	esi, DWORD PTR _t_hi$2$[ebp]
	mov	eax, 0
	adcx	edi, eax
; File z:\sources\lunor\repos\rougemeilland\palmtree.math.core.uint\palmtree.math.core.uint\pmc_divrem.c

; 447  :     c = _SUBTRUCT_UNIT_DIV(c, *up, t_lo, up);

	mov	eax, DWORD PTR [ecx+84]
; File z:\sources\lunor\repos\rougemeilland\palmtree.math.core.uint\palmtree.math.core.uint\pmc_inline_func.h

; 282  :         return (_subborrow_u32(borrow, u, v, w));

	add	bl, 255					; 000000ffH
	sbb	eax, esi
	mov	DWORD PTR [ecx+84], eax

; 364  :         return (_FROMDWORDTOWORD((_UINT64_T)u * v, w_hi));

	mov	eax, DWORD PTR _v_buf$[ebp]

; 282  :         return (_subborrow_u32(borrow, u, v, w));

	setb	bl

; 364  :         return (_FROMDWORDTOWORD((_UINT64_T)u * v, w_hi));

	mov	eax, DWORD PTR [eax+88]
	mul	DWORD PTR _q_$[ebp]
	mov	esi, eax
	mov	eax, edx

; 254  :         return (_addcarryx_u32(carry, u, v, w));

	add	esi, edi
	mov	edx, 0
	adcx	eax, edx
	mov	DWORD PTR _t_hi$2$[ebp], eax

; 282  :         return (_subborrow_u32(borrow, u, v, w));

	add	bl, 255					; 000000ffH
; File z:\sources\lunor\repos\rougemeilland\palmtree.math.core.uint\palmtree.math.core.uint\pmc_divrem.c

; 447  :     c = _SUBTRUCT_UNIT_DIV(c, *up, t_lo, up);

	mov	eax, DWORD PTR [ecx+88]
; File z:\sources\lunor\repos\rougemeilland\palmtree.math.core.uint\palmtree.math.core.uint\pmc_inline_func.h

; 282  :         return (_subborrow_u32(borrow, u, v, w));

	sbb	eax, esi
	mov	DWORD PTR [ecx+88], eax

; 364  :         return (_FROMDWORDTOWORD((_UINT64_T)u * v, w_hi));

	mov	eax, DWORD PTR _v_buf$[ebp]

; 282  :         return (_subborrow_u32(borrow, u, v, w));

	setb	bl

; 364  :         return (_FROMDWORDTOWORD((_UINT64_T)u * v, w_hi));

	mov	eax, DWORD PTR [eax+92]
	mul	DWORD PTR _q_$[ebp]
	mov	esi, eax
	mov	edi, edx

; 254  :         return (_addcarryx_u32(carry, u, v, w));

	add	esi, DWORD PTR _t_hi$2$[ebp]
	mov	eax, 0
	adcx	edi, eax
; File z:\sources\lunor\repos\rougemeilland\palmtree.math.core.uint\palmtree.math.core.uint\pmc_divrem.c

; 447  :     c = _SUBTRUCT_UNIT_DIV(c, *up, t_lo, up);

	mov	eax, DWORD PTR [ecx+92]
; File z:\sources\lunor\repos\rougemeilland\palmtree.math.core.uint\palmtree.math.core.uint\pmc_inline_func.h

; 282  :         return (_subborrow_u32(borrow, u, v, w));

	add	bl, 255					; 000000ffH
	sbb	eax, esi
	setb	bl
	mov	DWORD PTR [ecx+92], eax

; 364  :         return (_FROMDWORDTOWORD((_UINT64_T)u * v, w_hi));

	mov	eax, DWORD PTR _v_buf$[ebp]
	mov	eax, DWORD PTR [eax+96]
	mul	DWORD PTR _q_$[ebp]
	mov	esi, eax
	mov	eax, edx

; 254  :         return (_addcarryx_u32(carry, u, v, w));

	add	esi, edi
	mov	edx, 0
	adcx	eax, edx
	mov	DWORD PTR _t_hi$2$[ebp], eax

; 282  :         return (_subborrow_u32(borrow, u, v, w));

	add	bl, 255					; 000000ffH
; File z:\sources\lunor\repos\rougemeilland\palmtree.math.core.uint\palmtree.math.core.uint\pmc_divrem.c

; 447  :     c = _SUBTRUCT_UNIT_DIV(c, *up, t_lo, up);

	mov	eax, DWORD PTR [ecx+96]
; File z:\sources\lunor\repos\rougemeilland\palmtree.math.core.uint\palmtree.math.core.uint\pmc_inline_func.h

; 282  :         return (_subborrow_u32(borrow, u, v, w));

	sbb	eax, esi
	mov	DWORD PTR [ecx+96], eax

; 364  :         return (_FROMDWORDTOWORD((_UINT64_T)u * v, w_hi));

	mov	eax, DWORD PTR _v_buf$[ebp]

; 282  :         return (_subborrow_u32(borrow, u, v, w));

	setb	bl

; 364  :         return (_FROMDWORDTOWORD((_UINT64_T)u * v, w_hi));

	mov	eax, DWORD PTR [eax+100]
	mul	DWORD PTR _q_$[ebp]
	mov	esi, eax
	mov	edi, edx

; 254  :         return (_addcarryx_u32(carry, u, v, w));

	add	esi, DWORD PTR _t_hi$2$[ebp]
	mov	eax, 0
	adcx	edi, eax
; File z:\sources\lunor\repos\rougemeilland\palmtree.math.core.uint\palmtree.math.core.uint\pmc_divrem.c

; 447  :     c = _SUBTRUCT_UNIT_DIV(c, *up, t_lo, up);

	mov	eax, DWORD PTR [ecx+100]
; File z:\sources\lunor\repos\rougemeilland\palmtree.math.core.uint\palmtree.math.core.uint\pmc_inline_func.h

; 282  :         return (_subborrow_u32(borrow, u, v, w));

	add	bl, 255					; 000000ffH
	sbb	eax, esi
	mov	DWORD PTR [ecx+100], eax

; 364  :         return (_FROMDWORDTOWORD((_UINT64_T)u * v, w_hi));

	mov	eax, DWORD PTR _v_buf$[ebp]

; 282  :         return (_subborrow_u32(borrow, u, v, w));

	setb	bl

; 364  :         return (_FROMDWORDTOWORD((_UINT64_T)u * v, w_hi));

	mov	eax, DWORD PTR [eax+104]
	mul	DWORD PTR _q_$[ebp]
	mov	esi, eax
	mov	eax, edx

; 254  :         return (_addcarryx_u32(carry, u, v, w));

	add	esi, edi
	mov	edx, 0
	adcx	eax, edx
	mov	DWORD PTR _t_hi$2$[ebp], eax

; 282  :         return (_subborrow_u32(borrow, u, v, w));

	add	bl, 255					; 000000ffH
; File z:\sources\lunor\repos\rougemeilland\palmtree.math.core.uint\palmtree.math.core.uint\pmc_divrem.c

; 447  :     c = _SUBTRUCT_UNIT_DIV(c, *up, t_lo, up);

	mov	eax, DWORD PTR [ecx+104]
; File z:\sources\lunor\repos\rougemeilland\palmtree.math.core.uint\palmtree.math.core.uint\pmc_inline_func.h

; 282  :         return (_subborrow_u32(borrow, u, v, w));

	sbb	eax, esi
	mov	DWORD PTR [ecx+104], eax

; 364  :         return (_FROMDWORDTOWORD((_UINT64_T)u * v, w_hi));

	mov	eax, DWORD PTR _v_buf$[ebp]

; 282  :         return (_subborrow_u32(borrow, u, v, w));

	setb	bl

; 364  :         return (_FROMDWORDTOWORD((_UINT64_T)u * v, w_hi));

	mov	eax, DWORD PTR [eax+108]
	mul	DWORD PTR _q_$[ebp]
	mov	esi, eax
	mov	edi, edx

; 254  :         return (_addcarryx_u32(carry, u, v, w));

	add	esi, DWORD PTR _t_hi$2$[ebp]
	mov	eax, 0
	adcx	edi, eax
; File z:\sources\lunor\repos\rougemeilland\palmtree.math.core.uint\palmtree.math.core.uint\pmc_divrem.c

; 447  :     c = _SUBTRUCT_UNIT_DIV(c, *up, t_lo, up);

	mov	eax, DWORD PTR [ecx+108]
; File z:\sources\lunor\repos\rougemeilland\palmtree.math.core.uint\palmtree.math.core.uint\pmc_inline_func.h

; 282  :         return (_subborrow_u32(borrow, u, v, w));

	add	bl, 255					; 000000ffH
	sbb	eax, esi
	mov	DWORD PTR [ecx+108], eax

; 364  :         return (_FROMDWORDTOWORD((_UINT64_T)u * v, w_hi));

	mov	eax, DWORD PTR _v_buf$[ebp]

; 282  :         return (_subborrow_u32(borrow, u, v, w));

	setb	bl

; 364  :         return (_FROMDWORDTOWORD((_UINT64_T)u * v, w_hi));

	mov	eax, DWORD PTR [eax+112]
	mul	DWORD PTR _q_$[ebp]
	mov	esi, eax
	mov	eax, edx

; 254  :         return (_addcarryx_u32(carry, u, v, w));

	add	esi, edi
	mov	edx, 0
	adcx	eax, edx
	mov	DWORD PTR _t_hi$2$[ebp], eax

; 282  :         return (_subborrow_u32(borrow, u, v, w));

	add	bl, 255					; 000000ffH
; File z:\sources\lunor\repos\rougemeilland\palmtree.math.core.uint\palmtree.math.core.uint\pmc_divrem.c

; 447  :     c = _SUBTRUCT_UNIT_DIV(c, *up, t_lo, up);

	mov	eax, DWORD PTR [ecx+112]
; File z:\sources\lunor\repos\rougemeilland\palmtree.math.core.uint\palmtree.math.core.uint\pmc_inline_func.h

; 282  :         return (_subborrow_u32(borrow, u, v, w));

	sbb	eax, esi
	mov	DWORD PTR [ecx+112], eax

; 364  :         return (_FROMDWORDTOWORD((_UINT64_T)u * v, w_hi));

	mov	eax, DWORD PTR _v_buf$[ebp]

; 282  :         return (_subborrow_u32(borrow, u, v, w));

	setb	bl

; 364  :         return (_FROMDWORDTOWORD((_UINT64_T)u * v, w_hi));

	mov	eax, DWORD PTR [eax+116]
	mul	DWORD PTR _q_$[ebp]
	mov	esi, eax
	mov	edi, edx

; 254  :         return (_addcarryx_u32(carry, u, v, w));

	add	esi, DWORD PTR _t_hi$2$[ebp]
	mov	eax, 0
	adcx	edi, eax
; File z:\sources\lunor\repos\rougemeilland\palmtree.math.core.uint\palmtree.math.core.uint\pmc_divrem.c

; 447  :     c = _SUBTRUCT_UNIT_DIV(c, *up, t_lo, up);

	mov	eax, DWORD PTR [ecx+116]
; File z:\sources\lunor\repos\rougemeilland\palmtree.math.core.uint\palmtree.math.core.uint\pmc_inline_func.h

; 282  :         return (_subborrow_u32(borrow, u, v, w));

	add	bl, 255					; 000000ffH
	sbb	eax, esi
	setb	bl
	mov	DWORD PTR [ecx+116], eax

; 364  :         return (_FROMDWORDTOWORD((_UINT64_T)u * v, w_hi));

	mov	eax, DWORD PTR _v_buf$[ebp]
	mov	eax, DWORD PTR [eax+120]
	mul	DWORD PTR _q_$[ebp]
	mov	esi, eax
	mov	eax, edx

; 254  :         return (_addcarryx_u32(carry, u, v, w));

	add	esi, edi
	mov	edx, 0

; 364  :         return (_FROMDWORDTOWORD((_UINT64_T)u * v, w_hi));

	mov	edi, DWORD PTR _v_buf$[ebp]

; 254  :         return (_addcarryx_u32(carry, u, v, w));

	adcx	eax, edx
	mov	DWORD PTR _t_hi$2$[ebp], eax

; 282  :         return (_subborrow_u32(borrow, u, v, w));

	add	bl, 255					; 000000ffH
; File z:\sources\lunor\repos\rougemeilland\palmtree.math.core.uint\palmtree.math.core.uint\pmc_divrem.c

; 447  :     c = _SUBTRUCT_UNIT_DIV(c, *up, t_lo, up);

	mov	eax, DWORD PTR [ecx+120]
; File z:\sources\lunor\repos\rougemeilland\palmtree.math.core.uint\palmtree.math.core.uint\pmc_inline_func.h

; 282  :         return (_subborrow_u32(borrow, u, v, w));

	sbb	eax, esi
	mov	DWORD PTR [ecx+120], eax

; 364  :         return (_FROMDWORDTOWORD((_UINT64_T)u * v, w_hi));

	mov	eax, DWORD PTR [edi+124]

; 282  :         return (_subborrow_u32(borrow, u, v, w));

	setb	bl

; 364  :         return (_FROMDWORDTOWORD((_UINT64_T)u * v, w_hi));

	mul	DWORD PTR _q_$[ebp]
	mov	esi, eax
	mov	eax, edx

; 254  :         return (_addcarryx_u32(carry, u, v, w));

	add	esi, DWORD PTR _t_hi$2$[ebp]
	mov	edx, 0
	adcx	eax, edx
; File z:\sources\lunor\repos\rougemeilland\palmtree.math.core.uint\palmtree.math.core.uint\pmc_divrem.c

; 648  :         --count;

	mov	edx, DWORD PTR _count$1$[ebp]
; File z:\sources\lunor\repos\rougemeilland\palmtree.math.core.uint\palmtree.math.core.uint\pmc_inline_func.h

; 282  :         return (_subborrow_u32(borrow, u, v, w));

	add	bl, 255					; 000000ffH

; 254  :         return (_addcarryx_u32(carry, u, v, w));

	mov	DWORD PTR _k$1$[ebp], eax
; File z:\sources\lunor\repos\rougemeilland\palmtree.math.core.uint\palmtree.math.core.uint\pmc_divrem.c

; 447  :     c = _SUBTRUCT_UNIT_DIV(c, *up, t_lo, up);

	mov	eax, DWORD PTR [ecx+124]
; File z:\sources\lunor\repos\rougemeilland\palmtree.math.core.uint\palmtree.math.core.uint\pmc_inline_func.h

; 282  :         return (_subborrow_u32(borrow, u, v, w));

	sbb	eax, esi
; File z:\sources\lunor\repos\rougemeilland\palmtree.math.core.uint\palmtree.math.core.uint\pmc_uint_internal.h

; 352  :         _InterlockedExchangeAdd(&statistics_info.COUNT_MULTI32, value);

	mov	esi, OFFSET _statistics_info+4
; File z:\sources\lunor\repos\rougemeilland\palmtree.math.core.uint\palmtree.math.core.uint\pmc_inline_func.h

; 282  :         return (_subborrow_u32(borrow, u, v, w));

	mov	DWORD PTR [ecx+124], eax
; File z:\sources\lunor\repos\rougemeilland\palmtree.math.core.uint\palmtree.math.core.uint\pmc_uint_internal.h

; 352  :         _InterlockedExchangeAdd(&statistics_info.COUNT_MULTI32, value);

	mov	eax, 32					; 00000020H
; File z:\sources\lunor\repos\rougemeilland\palmtree.math.core.uint\palmtree.math.core.uint\pmc_inline_func.h

; 282  :         return (_subborrow_u32(borrow, u, v, w));

	setb	bl
; File z:\sources\lunor\repos\rougemeilland\palmtree.math.core.uint\palmtree.math.core.uint\pmc_divrem.c

; 647  :         v_ptr += 32;

	sub	edi, -128				; ffffff80H

; 648  :         --count;

	dec	edx
	mov	DWORD PTR _v_buf$[ebp], edi
	sub	ecx, -128				; ffffff80H
	mov	DWORD PTR _count$1$[ebp], edx
; File z:\sources\lunor\repos\rougemeilland\palmtree.math.core.uint\palmtree.math.core.uint\pmc_uint_internal.h

; 352  :         _InterlockedExchangeAdd(&statistics_info.COUNT_MULTI32, value);

	lock	 xadd	 DWORD PTR [esi], eax
; File z:\sources\lunor\repos\rougemeilland\palmtree.math.core.uint\palmtree.math.core.uint\pmc_divrem.c

; 612  :     while (count != 0)

	test	edx, edx
	mov	edx, DWORD PTR _q_$[ebp]
	jne	$LL2@SubtructOn
	mov	eax, DWORD PTR _v_buf_len$[ebp]
$LN3@SubtructOn:

; 649  : #ifdef ENABLED_PERFORMANCE_COUNTER
; 650  :         if (sizeof(k) == sizeof(_UINT64_T))
; 651  :             AddToMULTI64Counter(32);
; 652  :         else
; 653  :             AddToMULTI32Counter(32);
; 654  : #endif
; 655  :     }
; 656  : 
; 657  :     if (v_count & 0x10)

	test	al, 16					; 00000010H
	je	$LN604@SubtructOn
; File z:\sources\lunor\repos\rougemeilland\palmtree.math.core.uint\palmtree.math.core.uint\pmc_inline_func.h

; 364  :         return (_FROMDWORDTOWORD((_UINT64_T)u * v, w_hi));

	mov	eax, DWORD PTR [edi]
	mul	edx
	mov	esi, eax
	mov	edi, edx

; 254  :         return (_addcarryx_u32(carry, u, v, w));

	add	esi, DWORD PTR _k$1$[ebp]
	mov	eax, 0
	adcx	edi, eax
; File z:\sources\lunor\repos\rougemeilland\palmtree.math.core.uint\palmtree.math.core.uint\pmc_divrem.c

; 447  :     c = _SUBTRUCT_UNIT_DIV(c, *up, t_lo, up);

	mov	eax, DWORD PTR [ecx]
; File z:\sources\lunor\repos\rougemeilland\palmtree.math.core.uint\palmtree.math.core.uint\pmc_inline_func.h

; 282  :         return (_subborrow_u32(borrow, u, v, w));

	add	bl, 255					; 000000ffH
	sbb	eax, esi
	mov	DWORD PTR [ecx], eax

; 364  :         return (_FROMDWORDTOWORD((_UINT64_T)u * v, w_hi));

	mov	eax, DWORD PTR _v_buf$[ebp]

; 282  :         return (_subborrow_u32(borrow, u, v, w));

	setb	bl

; 364  :         return (_FROMDWORDTOWORD((_UINT64_T)u * v, w_hi));

	mov	eax, DWORD PTR [eax+4]
	mul	DWORD PTR _q_$[ebp]
	mov	esi, eax
	mov	eax, edx
; File z:\sources\lunor\repos\rougemeilland\palmtree.math.core.uint\palmtree.math.core.uint\pmc_divrem.c

; 445  :     t_lo = _MULTIPLYX_UNIT_DIV(*vp, q_, &t_hi);

	mov	DWORD PTR _t_lo$9[ebp], esi
; File z:\sources\lunor\repos\rougemeilland\palmtree.math.core.uint\palmtree.math.core.uint\pmc_inline_func.h

; 254  :         return (_addcarryx_u32(carry, u, v, w));

	mov	edx, 0
	add	esi, edi
	adcx	eax, edx
	mov	DWORD PTR _t_hi$2$[ebp], eax

; 282  :         return (_subborrow_u32(borrow, u, v, w));

	add	bl, 255					; 000000ffH
; File z:\sources\lunor\repos\rougemeilland\palmtree.math.core.uint\palmtree.math.core.uint\pmc_divrem.c

; 447  :     c = _SUBTRUCT_UNIT_DIV(c, *up, t_lo, up);

	mov	eax, DWORD PTR [ecx+4]
; File z:\sources\lunor\repos\rougemeilland\palmtree.math.core.uint\palmtree.math.core.uint\pmc_inline_func.h

; 282  :         return (_subborrow_u32(borrow, u, v, w));

	sbb	eax, esi
	mov	DWORD PTR [ecx+4], eax

; 364  :         return (_FROMDWORDTOWORD((_UINT64_T)u * v, w_hi));

	mov	eax, DWORD PTR _v_buf$[ebp]

; 282  :         return (_subborrow_u32(borrow, u, v, w));

	setb	bl

; 364  :         return (_FROMDWORDTOWORD((_UINT64_T)u * v, w_hi));

	mov	eax, DWORD PTR [eax+8]
	mul	DWORD PTR _q_$[ebp]
	mov	esi, eax
	mov	edi, edx

; 254  :         return (_addcarryx_u32(carry, u, v, w));

	add	esi, DWORD PTR _t_hi$2$[ebp]
	mov	eax, 0
	adcx	edi, eax
; File z:\sources\lunor\repos\rougemeilland\palmtree.math.core.uint\palmtree.math.core.uint\pmc_divrem.c

; 447  :     c = _SUBTRUCT_UNIT_DIV(c, *up, t_lo, up);

	mov	eax, DWORD PTR [ecx+8]
; File z:\sources\lunor\repos\rougemeilland\palmtree.math.core.uint\palmtree.math.core.uint\pmc_inline_func.h

; 282  :         return (_subborrow_u32(borrow, u, v, w));

	add	bl, 255					; 000000ffH
	sbb	eax, esi
	mov	DWORD PTR [ecx+8], eax

; 364  :         return (_FROMDWORDTOWORD((_UINT64_T)u * v, w_hi));

	mov	eax, DWORD PTR _v_buf$[ebp]

; 282  :         return (_subborrow_u32(borrow, u, v, w));

	setb	bl

; 364  :         return (_FROMDWORDTOWORD((_UINT64_T)u * v, w_hi));

	mov	eax, DWORD PTR [eax+12]
	mul	DWORD PTR _q_$[ebp]
	mov	esi, eax
	mov	eax, edx
; File z:\sources\lunor\repos\rougemeilland\palmtree.math.core.uint\palmtree.math.core.uint\pmc_divrem.c

; 445  :     t_lo = _MULTIPLYX_UNIT_DIV(*vp, q_, &t_hi);

	mov	DWORD PTR _t_lo$8[ebp], esi
; File z:\sources\lunor\repos\rougemeilland\palmtree.math.core.uint\palmtree.math.core.uint\pmc_inline_func.h

; 254  :         return (_addcarryx_u32(carry, u, v, w));

	mov	edx, 0
	add	esi, edi
	adcx	eax, edx
	mov	DWORD PTR _t_hi$2$[ebp], eax

; 282  :         return (_subborrow_u32(borrow, u, v, w));

	add	bl, 255					; 000000ffH
; File z:\sources\lunor\repos\rougemeilland\palmtree.math.core.uint\palmtree.math.core.uint\pmc_divrem.c

; 447  :     c = _SUBTRUCT_UNIT_DIV(c, *up, t_lo, up);

	mov	eax, DWORD PTR [ecx+12]
; File z:\sources\lunor\repos\rougemeilland\palmtree.math.core.uint\palmtree.math.core.uint\pmc_inline_func.h

; 282  :         return (_subborrow_u32(borrow, u, v, w));

	sbb	eax, esi
	mov	DWORD PTR [ecx+12], eax

; 364  :         return (_FROMDWORDTOWORD((_UINT64_T)u * v, w_hi));

	mov	eax, DWORD PTR _v_buf$[ebp]

; 282  :         return (_subborrow_u32(borrow, u, v, w));

	setb	bl

; 364  :         return (_FROMDWORDTOWORD((_UINT64_T)u * v, w_hi));

	mov	eax, DWORD PTR [eax+16]
	mul	DWORD PTR _q_$[ebp]
	mov	esi, eax
	mov	edi, edx

; 254  :         return (_addcarryx_u32(carry, u, v, w));

	add	esi, DWORD PTR _t_hi$2$[ebp]
	mov	eax, 0
	adcx	edi, eax
; File z:\sources\lunor\repos\rougemeilland\palmtree.math.core.uint\palmtree.math.core.uint\pmc_divrem.c

; 447  :     c = _SUBTRUCT_UNIT_DIV(c, *up, t_lo, up);

	mov	eax, DWORD PTR [ecx+16]
; File z:\sources\lunor\repos\rougemeilland\palmtree.math.core.uint\palmtree.math.core.uint\pmc_inline_func.h

; 282  :         return (_subborrow_u32(borrow, u, v, w));

	add	bl, 255					; 000000ffH
	sbb	eax, esi
	mov	DWORD PTR [ecx+16], eax

; 364  :         return (_FROMDWORDTOWORD((_UINT64_T)u * v, w_hi));

	mov	eax, DWORD PTR _v_buf$[ebp]

; 282  :         return (_subborrow_u32(borrow, u, v, w));

	setb	bl

; 364  :         return (_FROMDWORDTOWORD((_UINT64_T)u * v, w_hi));

	mov	eax, DWORD PTR [eax+20]
	mul	DWORD PTR _q_$[ebp]
	mov	esi, eax
	mov	eax, edx
; File z:\sources\lunor\repos\rougemeilland\palmtree.math.core.uint\palmtree.math.core.uint\pmc_divrem.c

; 445  :     t_lo = _MULTIPLYX_UNIT_DIV(*vp, q_, &t_hi);

	mov	DWORD PTR _t_lo$7[ebp], esi
; File z:\sources\lunor\repos\rougemeilland\palmtree.math.core.uint\palmtree.math.core.uint\pmc_inline_func.h

; 254  :         return (_addcarryx_u32(carry, u, v, w));

	mov	edx, 0
	add	esi, edi
	adcx	eax, edx
	mov	DWORD PTR _t_hi$2$[ebp], eax

; 282  :         return (_subborrow_u32(borrow, u, v, w));

	add	bl, 255					; 000000ffH
; File z:\sources\lunor\repos\rougemeilland\palmtree.math.core.uint\palmtree.math.core.uint\pmc_divrem.c

; 447  :     c = _SUBTRUCT_UNIT_DIV(c, *up, t_lo, up);

	mov	eax, DWORD PTR [ecx+20]
; File z:\sources\lunor\repos\rougemeilland\palmtree.math.core.uint\palmtree.math.core.uint\pmc_inline_func.h

; 282  :         return (_subborrow_u32(borrow, u, v, w));

	sbb	eax, esi
	mov	DWORD PTR [ecx+20], eax
	setb	bl

; 364  :         return (_FROMDWORDTOWORD((_UINT64_T)u * v, w_hi));

	mov	edi, DWORD PTR _v_buf$[ebp]
	mov	eax, DWORD PTR [edi+24]
	mul	DWORD PTR _q_$[ebp]
	mov	esi, eax
	mov	eax, edx

; 254  :         return (_addcarryx_u32(carry, u, v, w));

	add	esi, DWORD PTR _t_hi$2$[ebp]
	mov	edx, 0
	adcx	eax, edx
	mov	DWORD PTR _t_hi$2$[ebp], eax

; 282  :         return (_subborrow_u32(borrow, u, v, w));

	add	bl, 255					; 000000ffH
; File z:\sources\lunor\repos\rougemeilland\palmtree.math.core.uint\palmtree.math.core.uint\pmc_divrem.c

; 447  :     c = _SUBTRUCT_UNIT_DIV(c, *up, t_lo, up);

	mov	eax, DWORD PTR [ecx+24]
; File z:\sources\lunor\repos\rougemeilland\palmtree.math.core.uint\palmtree.math.core.uint\pmc_inline_func.h

; 282  :         return (_subborrow_u32(borrow, u, v, w));

	sbb	eax, esi
	mov	DWORD PTR [ecx+24], eax

; 364  :         return (_FROMDWORDTOWORD((_UINT64_T)u * v, w_hi));

	mov	eax, DWORD PTR [edi+28]

; 282  :         return (_subborrow_u32(borrow, u, v, w));

	setb	bl

; 364  :         return (_FROMDWORDTOWORD((_UINT64_T)u * v, w_hi));

	mul	DWORD PTR _q_$[ebp]
	mov	esi, eax
	mov	edi, edx

; 254  :         return (_addcarryx_u32(carry, u, v, w));

	add	esi, DWORD PTR _t_hi$2$[ebp]
	mov	eax, 0
	adcx	edi, eax
; File z:\sources\lunor\repos\rougemeilland\palmtree.math.core.uint\palmtree.math.core.uint\pmc_divrem.c

; 447  :     c = _SUBTRUCT_UNIT_DIV(c, *up, t_lo, up);

	mov	eax, DWORD PTR [ecx+28]
; File z:\sources\lunor\repos\rougemeilland\palmtree.math.core.uint\palmtree.math.core.uint\pmc_inline_func.h

; 282  :         return (_subborrow_u32(borrow, u, v, w));

	add	bl, 255					; 000000ffH
	sbb	eax, esi
	mov	DWORD PTR [ecx+28], eax

; 364  :         return (_FROMDWORDTOWORD((_UINT64_T)u * v, w_hi));

	mov	eax, DWORD PTR _v_buf$[ebp]

; 282  :         return (_subborrow_u32(borrow, u, v, w));

	setb	bl

; 364  :         return (_FROMDWORDTOWORD((_UINT64_T)u * v, w_hi));

	mov	eax, DWORD PTR [eax+32]
	mul	DWORD PTR _q_$[ebp]
	mov	esi, eax
	mov	eax, edx

; 254  :         return (_addcarryx_u32(carry, u, v, w));

	add	esi, edi
	mov	edx, 0
	adcx	eax, edx
	mov	DWORD PTR _t_hi$2$[ebp], eax

; 282  :         return (_subborrow_u32(borrow, u, v, w));

	add	bl, 255					; 000000ffH
; File z:\sources\lunor\repos\rougemeilland\palmtree.math.core.uint\palmtree.math.core.uint\pmc_divrem.c

; 447  :     c = _SUBTRUCT_UNIT_DIV(c, *up, t_lo, up);

	mov	eax, DWORD PTR [ecx+32]
; File z:\sources\lunor\repos\rougemeilland\palmtree.math.core.uint\palmtree.math.core.uint\pmc_inline_func.h

; 282  :         return (_subborrow_u32(borrow, u, v, w));

	sbb	eax, esi
	mov	DWORD PTR [ecx+32], eax

; 364  :         return (_FROMDWORDTOWORD((_UINT64_T)u * v, w_hi));

	mov	eax, DWORD PTR _v_buf$[ebp]

; 282  :         return (_subborrow_u32(borrow, u, v, w));

	setb	bl

; 364  :         return (_FROMDWORDTOWORD((_UINT64_T)u * v, w_hi));

	mov	eax, DWORD PTR [eax+36]
	mul	DWORD PTR _q_$[ebp]
	mov	esi, eax
	mov	edi, edx

; 254  :         return (_addcarryx_u32(carry, u, v, w));

	add	esi, DWORD PTR _t_hi$2$[ebp]
	mov	eax, 0
	adcx	edi, eax
; File z:\sources\lunor\repos\rougemeilland\palmtree.math.core.uint\palmtree.math.core.uint\pmc_divrem.c

; 447  :     c = _SUBTRUCT_UNIT_DIV(c, *up, t_lo, up);

	mov	eax, DWORD PTR [ecx+36]
; File z:\sources\lunor\repos\rougemeilland\palmtree.math.core.uint\palmtree.math.core.uint\pmc_inline_func.h

; 282  :         return (_subborrow_u32(borrow, u, v, w));

	add	bl, 255					; 000000ffH
	sbb	eax, esi
	mov	DWORD PTR [ecx+36], eax

; 364  :         return (_FROMDWORDTOWORD((_UINT64_T)u * v, w_hi));

	mov	eax, DWORD PTR _v_buf$[ebp]

; 282  :         return (_subborrow_u32(borrow, u, v, w));

	setb	bl

; 364  :         return (_FROMDWORDTOWORD((_UINT64_T)u * v, w_hi));

	mov	eax, DWORD PTR [eax+40]
	mul	DWORD PTR _q_$[ebp]
	mov	esi, eax
	mov	eax, edx

; 254  :         return (_addcarryx_u32(carry, u, v, w));

	add	esi, edi
	mov	edx, 0
	adcx	eax, edx
	mov	DWORD PTR _t_hi$2$[ebp], eax

; 282  :         return (_subborrow_u32(borrow, u, v, w));

	add	bl, 255					; 000000ffH
; File z:\sources\lunor\repos\rougemeilland\palmtree.math.core.uint\palmtree.math.core.uint\pmc_divrem.c

; 447  :     c = _SUBTRUCT_UNIT_DIV(c, *up, t_lo, up);

	mov	eax, DWORD PTR [ecx+40]
; File z:\sources\lunor\repos\rougemeilland\palmtree.math.core.uint\palmtree.math.core.uint\pmc_inline_func.h

; 282  :         return (_subborrow_u32(borrow, u, v, w));

	sbb	eax, esi
	mov	DWORD PTR [ecx+40], eax

; 364  :         return (_FROMDWORDTOWORD((_UINT64_T)u * v, w_hi));

	mov	eax, DWORD PTR _v_buf$[ebp]

; 282  :         return (_subborrow_u32(borrow, u, v, w));

	setb	bl

; 364  :         return (_FROMDWORDTOWORD((_UINT64_T)u * v, w_hi));

	mov	eax, DWORD PTR [eax+44]
	mul	DWORD PTR _q_$[ebp]
	mov	esi, eax
	mov	edi, edx

; 254  :         return (_addcarryx_u32(carry, u, v, w));

	add	esi, DWORD PTR _t_hi$2$[ebp]
	mov	eax, 0
	adcx	edi, eax
; File z:\sources\lunor\repos\rougemeilland\palmtree.math.core.uint\palmtree.math.core.uint\pmc_divrem.c

; 447  :     c = _SUBTRUCT_UNIT_DIV(c, *up, t_lo, up);

	mov	eax, DWORD PTR [ecx+44]
; File z:\sources\lunor\repos\rougemeilland\palmtree.math.core.uint\palmtree.math.core.uint\pmc_inline_func.h

; 282  :         return (_subborrow_u32(borrow, u, v, w));

	add	bl, 255					; 000000ffH
	sbb	eax, esi
	setb	bl
	mov	DWORD PTR [ecx+44], eax

; 364  :         return (_FROMDWORDTOWORD((_UINT64_T)u * v, w_hi));

	mov	eax, DWORD PTR _v_buf$[ebp]
	mov	eax, DWORD PTR [eax+48]
	mul	DWORD PTR _q_$[ebp]
	mov	esi, eax
	mov	eax, edx

; 254  :         return (_addcarryx_u32(carry, u, v, w));

	add	esi, edi
	mov	edx, 0
	adcx	eax, edx
	mov	DWORD PTR _t_hi$2$[ebp], eax

; 282  :         return (_subborrow_u32(borrow, u, v, w));

	add	bl, 255					; 000000ffH
; File z:\sources\lunor\repos\rougemeilland\palmtree.math.core.uint\palmtree.math.core.uint\pmc_divrem.c

; 447  :     c = _SUBTRUCT_UNIT_DIV(c, *up, t_lo, up);

	mov	eax, DWORD PTR [ecx+48]
; File z:\sources\lunor\repos\rougemeilland\palmtree.math.core.uint\palmtree.math.core.uint\pmc_inline_func.h

; 282  :         return (_subborrow_u32(borrow, u, v, w));

	sbb	eax, esi
	mov	DWORD PTR [ecx+48], eax

; 364  :         return (_FROMDWORDTOWORD((_UINT64_T)u * v, w_hi));

	mov	eax, DWORD PTR _v_buf$[ebp]

; 282  :         return (_subborrow_u32(borrow, u, v, w));

	setb	bl

; 364  :         return (_FROMDWORDTOWORD((_UINT64_T)u * v, w_hi));

	mov	eax, DWORD PTR [eax+52]
	mul	DWORD PTR _q_$[ebp]
	mov	esi, eax
	mov	edi, edx

; 254  :         return (_addcarryx_u32(carry, u, v, w));

	add	esi, DWORD PTR _t_hi$2$[ebp]
	mov	eax, 0
	adcx	edi, eax
; File z:\sources\lunor\repos\rougemeilland\palmtree.math.core.uint\palmtree.math.core.uint\pmc_divrem.c

; 447  :     c = _SUBTRUCT_UNIT_DIV(c, *up, t_lo, up);

	mov	eax, DWORD PTR [ecx+52]
; File z:\sources\lunor\repos\rougemeilland\palmtree.math.core.uint\palmtree.math.core.uint\pmc_inline_func.h

; 282  :         return (_subborrow_u32(borrow, u, v, w));

	add	bl, 255					; 000000ffH
	sbb	eax, esi
	mov	DWORD PTR [ecx+52], eax

; 364  :         return (_FROMDWORDTOWORD((_UINT64_T)u * v, w_hi));

	mov	eax, DWORD PTR _v_buf$[ebp]

; 282  :         return (_subborrow_u32(borrow, u, v, w));

	setb	bl

; 364  :         return (_FROMDWORDTOWORD((_UINT64_T)u * v, w_hi));

	mov	eax, DWORD PTR [eax+56]
	mul	DWORD PTR _q_$[ebp]
	mov	esi, eax
	mov	eax, edx

; 254  :         return (_addcarryx_u32(carry, u, v, w));

	add	esi, edi
	mov	edx, 0

; 364  :         return (_FROMDWORDTOWORD((_UINT64_T)u * v, w_hi));

	mov	edi, DWORD PTR _v_buf$[ebp]

; 254  :         return (_addcarryx_u32(carry, u, v, w));

	adcx	eax, edx
	mov	DWORD PTR _t_hi$2$[ebp], eax

; 282  :         return (_subborrow_u32(borrow, u, v, w));

	add	bl, 255					; 000000ffH
; File z:\sources\lunor\repos\rougemeilland\palmtree.math.core.uint\palmtree.math.core.uint\pmc_divrem.c

; 447  :     c = _SUBTRUCT_UNIT_DIV(c, *up, t_lo, up);

	mov	eax, DWORD PTR [ecx+56]
; File z:\sources\lunor\repos\rougemeilland\palmtree.math.core.uint\palmtree.math.core.uint\pmc_inline_func.h

; 282  :         return (_subborrow_u32(borrow, u, v, w));

	sbb	eax, esi
	mov	DWORD PTR [ecx+56], eax

; 364  :         return (_FROMDWORDTOWORD((_UINT64_T)u * v, w_hi));

	mov	eax, DWORD PTR [edi+60]

; 282  :         return (_subborrow_u32(borrow, u, v, w));

	setb	bl

; 364  :         return (_FROMDWORDTOWORD((_UINT64_T)u * v, w_hi));

	mul	DWORD PTR _q_$[ebp]
	mov	esi, eax

; 254  :         return (_addcarryx_u32(carry, u, v, w));

	mov	eax, 0
	add	esi, DWORD PTR _t_hi$2$[ebp]
	adcx	edx, eax
; File z:\sources\lunor\repos\rougemeilland\palmtree.math.core.uint\palmtree.math.core.uint\pmc_divrem.c

; 447  :     c = _SUBTRUCT_UNIT_DIV(c, *up, t_lo, up);

	mov	eax, DWORD PTR [ecx+60]
; File z:\sources\lunor\repos\rougemeilland\palmtree.math.core.uint\palmtree.math.core.uint\pmc_inline_func.h

; 282  :         return (_subborrow_u32(borrow, u, v, w));

	add	bl, 255					; 000000ffH

; 254  :         return (_addcarryx_u32(carry, u, v, w));

	mov	DWORD PTR _k$1$[ebp], edx
; File z:\sources\lunor\repos\rougemeilland\palmtree.math.core.uint\palmtree.math.core.uint\pmc_uint_internal.h

; 352  :         _InterlockedExchangeAdd(&statistics_info.COUNT_MULTI32, value);

	mov	edx, OFFSET _statistics_info+4
; File z:\sources\lunor\repos\rougemeilland\palmtree.math.core.uint\palmtree.math.core.uint\pmc_inline_func.h

; 282  :         return (_subborrow_u32(borrow, u, v, w));

	sbb	eax, esi
	mov	DWORD PTR [ecx+60], eax
; File z:\sources\lunor\repos\rougemeilland\palmtree.math.core.uint\palmtree.math.core.uint\pmc_uint_internal.h

; 352  :         _InterlockedExchangeAdd(&statistics_info.COUNT_MULTI32, value);

	mov	eax, 16					; 00000010H
; File z:\sources\lunor\repos\rougemeilland\palmtree.math.core.uint\palmtree.math.core.uint\pmc_inline_func.h

; 282  :         return (_subborrow_u32(borrow, u, v, w));

	setb	bl
; File z:\sources\lunor\repos\rougemeilland\palmtree.math.core.uint\palmtree.math.core.uint\pmc_divrem.c

; 676  :         v_ptr += 16;

	add	edi, 64					; 00000040H
	add	ecx, 64					; 00000040H
	mov	DWORD PTR _v_buf$[ebp], edi
; File z:\sources\lunor\repos\rougemeilland\palmtree.math.core.uint\palmtree.math.core.uint\pmc_uint_internal.h

; 352  :         _InterlockedExchangeAdd(&statistics_info.COUNT_MULTI32, value);

	lock	 xadd	 DWORD PTR [edx], eax
	mov	eax, DWORD PTR _v_buf_len$[ebp]
$LN604@SubtructOn:
; File z:\sources\lunor\repos\rougemeilland\palmtree.math.core.uint\palmtree.math.core.uint\pmc_divrem.c

; 685  :     if (v_count & 0x8)

	test	al, 8
	je	$LN824@SubtructOn
; File z:\sources\lunor\repos\rougemeilland\palmtree.math.core.uint\palmtree.math.core.uint\pmc_inline_func.h

; 364  :         return (_FROMDWORDTOWORD((_UINT64_T)u * v, w_hi));

	mov	eax, DWORD PTR [edi]
	mul	DWORD PTR _q_$[ebp]
	mov	esi, eax
	mov	edi, edx

; 254  :         return (_addcarryx_u32(carry, u, v, w));

	add	esi, DWORD PTR _k$1$[ebp]
	mov	eax, 0
	adcx	edi, eax
; File z:\sources\lunor\repos\rougemeilland\palmtree.math.core.uint\palmtree.math.core.uint\pmc_divrem.c

; 447  :     c = _SUBTRUCT_UNIT_DIV(c, *up, t_lo, up);

	mov	eax, DWORD PTR [ecx]
; File z:\sources\lunor\repos\rougemeilland\palmtree.math.core.uint\palmtree.math.core.uint\pmc_inline_func.h

; 282  :         return (_subborrow_u32(borrow, u, v, w));

	add	bl, 255					; 000000ffH
	sbb	eax, esi
	mov	DWORD PTR [ecx], eax

; 364  :         return (_FROMDWORDTOWORD((_UINT64_T)u * v, w_hi));

	mov	eax, DWORD PTR _v_buf$[ebp]

; 282  :         return (_subborrow_u32(borrow, u, v, w));

	setb	bl

; 364  :         return (_FROMDWORDTOWORD((_UINT64_T)u * v, w_hi));

	mov	eax, DWORD PTR [eax+4]
	mul	DWORD PTR _q_$[ebp]
	mov	esi, eax
	mov	eax, edx
; File z:\sources\lunor\repos\rougemeilland\palmtree.math.core.uint\palmtree.math.core.uint\pmc_divrem.c

; 445  :     t_lo = _MULTIPLYX_UNIT_DIV(*vp, q_, &t_hi);

	mov	DWORD PTR _t_lo$6[ebp], esi
; File z:\sources\lunor\repos\rougemeilland\palmtree.math.core.uint\palmtree.math.core.uint\pmc_inline_func.h

; 254  :         return (_addcarryx_u32(carry, u, v, w));

	mov	edx, 0
	add	esi, edi
	adcx	eax, edx
	mov	DWORD PTR _t_hi$2$[ebp], eax

; 282  :         return (_subborrow_u32(borrow, u, v, w));

	add	bl, 255					; 000000ffH
; File z:\sources\lunor\repos\rougemeilland\palmtree.math.core.uint\palmtree.math.core.uint\pmc_divrem.c

; 447  :     c = _SUBTRUCT_UNIT_DIV(c, *up, t_lo, up);

	mov	eax, DWORD PTR [ecx+4]
; File z:\sources\lunor\repos\rougemeilland\palmtree.math.core.uint\palmtree.math.core.uint\pmc_inline_func.h

; 282  :         return (_subborrow_u32(borrow, u, v, w));

	sbb	eax, esi
	mov	DWORD PTR [ecx+4], eax

; 364  :         return (_FROMDWORDTOWORD((_UINT64_T)u * v, w_hi));

	mov	eax, DWORD PTR _v_buf$[ebp]

; 282  :         return (_subborrow_u32(borrow, u, v, w));

	setb	bl

; 364  :         return (_FROMDWORDTOWORD((_UINT64_T)u * v, w_hi));

	mov	eax, DWORD PTR [eax+8]
	mul	DWORD PTR _q_$[ebp]
	mov	esi, eax
	mov	edi, edx

; 254  :         return (_addcarryx_u32(carry, u, v, w));

	add	esi, DWORD PTR _t_hi$2$[ebp]
	mov	eax, 0
	adcx	edi, eax
; File z:\sources\lunor\repos\rougemeilland\palmtree.math.core.uint\palmtree.math.core.uint\pmc_divrem.c

; 447  :     c = _SUBTRUCT_UNIT_DIV(c, *up, t_lo, up);

	mov	eax, DWORD PTR [ecx+8]
; File z:\sources\lunor\repos\rougemeilland\palmtree.math.core.uint\palmtree.math.core.uint\pmc_inline_func.h

; 282  :         return (_subborrow_u32(borrow, u, v, w));

	add	bl, 255					; 000000ffH
	sbb	eax, esi
	mov	DWORD PTR [ecx+8], eax

; 364  :         return (_FROMDWORDTOWORD((_UINT64_T)u * v, w_hi));

	mov	eax, DWORD PTR _v_buf$[ebp]

; 282  :         return (_subborrow_u32(borrow, u, v, w));

	setb	bl

; 364  :         return (_FROMDWORDTOWORD((_UINT64_T)u * v, w_hi));

	mov	eax, DWORD PTR [eax+12]
	mul	DWORD PTR _q_$[ebp]
	mov	esi, eax
	mov	eax, edx
; File z:\sources\lunor\repos\rougemeilland\palmtree.math.core.uint\palmtree.math.core.uint\pmc_divrem.c

; 445  :     t_lo = _MULTIPLYX_UNIT_DIV(*vp, q_, &t_hi);

	mov	DWORD PTR _t_lo$5[ebp], esi
; File z:\sources\lunor\repos\rougemeilland\palmtree.math.core.uint\palmtree.math.core.uint\pmc_inline_func.h

; 254  :         return (_addcarryx_u32(carry, u, v, w));

	mov	edx, 0
	add	esi, edi
	adcx	eax, edx
	mov	DWORD PTR _t_hi$2$[ebp], eax

; 282  :         return (_subborrow_u32(borrow, u, v, w));

	add	bl, 255					; 000000ffH
; File z:\sources\lunor\repos\rougemeilland\palmtree.math.core.uint\palmtree.math.core.uint\pmc_divrem.c

; 447  :     c = _SUBTRUCT_UNIT_DIV(c, *up, t_lo, up);

	mov	eax, DWORD PTR [ecx+12]
; File z:\sources\lunor\repos\rougemeilland\palmtree.math.core.uint\palmtree.math.core.uint\pmc_inline_func.h

; 282  :         return (_subborrow_u32(borrow, u, v, w));

	sbb	eax, esi
	mov	DWORD PTR [ecx+12], eax

; 364  :         return (_FROMDWORDTOWORD((_UINT64_T)u * v, w_hi));

	mov	eax, DWORD PTR _v_buf$[ebp]

; 282  :         return (_subborrow_u32(borrow, u, v, w));

	setb	bl

; 364  :         return (_FROMDWORDTOWORD((_UINT64_T)u * v, w_hi));

	mov	eax, DWORD PTR [eax+16]
	mul	DWORD PTR _q_$[ebp]
	mov	esi, eax
	mov	edi, edx

; 254  :         return (_addcarryx_u32(carry, u, v, w));

	add	esi, DWORD PTR _t_hi$2$[ebp]
	mov	eax, 0
	adcx	edi, eax
; File z:\sources\lunor\repos\rougemeilland\palmtree.math.core.uint\palmtree.math.core.uint\pmc_divrem.c

; 447  :     c = _SUBTRUCT_UNIT_DIV(c, *up, t_lo, up);

	mov	eax, DWORD PTR [ecx+16]
; File z:\sources\lunor\repos\rougemeilland\palmtree.math.core.uint\palmtree.math.core.uint\pmc_inline_func.h

; 282  :         return (_subborrow_u32(borrow, u, v, w));

	add	bl, 255					; 000000ffH
	sbb	eax, esi
	mov	DWORD PTR [ecx+16], eax

; 364  :         return (_FROMDWORDTOWORD((_UINT64_T)u * v, w_hi));

	mov	eax, DWORD PTR _v_buf$[ebp]

; 282  :         return (_subborrow_u32(borrow, u, v, w));

	setb	bl

; 364  :         return (_FROMDWORDTOWORD((_UINT64_T)u * v, w_hi));

	mov	eax, DWORD PTR [eax+20]
	mul	DWORD PTR _q_$[ebp]
	mov	esi, eax
	mov	eax, edx
; File z:\sources\lunor\repos\rougemeilland\palmtree.math.core.uint\palmtree.math.core.uint\pmc_divrem.c

; 445  :     t_lo = _MULTIPLYX_UNIT_DIV(*vp, q_, &t_hi);

	mov	DWORD PTR _t_lo$4[ebp], esi
; File z:\sources\lunor\repos\rougemeilland\palmtree.math.core.uint\palmtree.math.core.uint\pmc_inline_func.h

; 254  :         return (_addcarryx_u32(carry, u, v, w));

	mov	edx, 0
	add	esi, edi
	adcx	eax, edx
	mov	DWORD PTR _t_hi$2$[ebp], eax

; 282  :         return (_subborrow_u32(borrow, u, v, w));

	add	bl, 255					; 000000ffH
; File z:\sources\lunor\repos\rougemeilland\palmtree.math.core.uint\palmtree.math.core.uint\pmc_divrem.c

; 447  :     c = _SUBTRUCT_UNIT_DIV(c, *up, t_lo, up);

	mov	eax, DWORD PTR [ecx+20]
; File z:\sources\lunor\repos\rougemeilland\palmtree.math.core.uint\palmtree.math.core.uint\pmc_inline_func.h

; 282  :         return (_subborrow_u32(borrow, u, v, w));

	sbb	eax, esi
	mov	DWORD PTR [ecx+20], eax
	setb	bl

; 364  :         return (_FROMDWORDTOWORD((_UINT64_T)u * v, w_hi));

	mov	eax, DWORD PTR _v_buf$[ebp]
	mov	eax, DWORD PTR [eax+24]
	mul	DWORD PTR _q_$[ebp]
	mov	esi, eax
	mov	edi, edx

; 254  :         return (_addcarryx_u32(carry, u, v, w));

	add	esi, DWORD PTR _t_hi$2$[ebp]
	mov	eax, 0
	adcx	edi, eax
; File z:\sources\lunor\repos\rougemeilland\palmtree.math.core.uint\palmtree.math.core.uint\pmc_divrem.c

; 447  :     c = _SUBTRUCT_UNIT_DIV(c, *up, t_lo, up);

	mov	eax, DWORD PTR [ecx+24]
; File z:\sources\lunor\repos\rougemeilland\palmtree.math.core.uint\palmtree.math.core.uint\pmc_inline_func.h

; 282  :         return (_subborrow_u32(borrow, u, v, w));

	add	bl, 255					; 000000ffH
	sbb	eax, esi
	mov	DWORD PTR [ecx+24], eax

; 364  :         return (_FROMDWORDTOWORD((_UINT64_T)u * v, w_hi));

	mov	eax, DWORD PTR _v_buf$[ebp]

; 282  :         return (_subborrow_u32(borrow, u, v, w));

	setb	bl

; 364  :         return (_FROMDWORDTOWORD((_UINT64_T)u * v, w_hi));

	mov	eax, DWORD PTR [eax+28]
	mul	DWORD PTR _q_$[ebp]
	mov	esi, eax

; 254  :         return (_addcarryx_u32(carry, u, v, w));

	mov	eax, 0
	add	esi, edi
; File z:\sources\lunor\repos\rougemeilland\palmtree.math.core.uint\palmtree.math.core.uint\pmc_divrem.c

; 696  :         v_ptr += 8;

	mov	edi, DWORD PTR _v_buf$[ebp]
; File z:\sources\lunor\repos\rougemeilland\palmtree.math.core.uint\palmtree.math.core.uint\pmc_inline_func.h

; 254  :         return (_addcarryx_u32(carry, u, v, w));

	adcx	edx, eax
; File z:\sources\lunor\repos\rougemeilland\palmtree.math.core.uint\palmtree.math.core.uint\pmc_divrem.c

; 447  :     c = _SUBTRUCT_UNIT_DIV(c, *up, t_lo, up);

	mov	eax, DWORD PTR [ecx+28]
; File z:\sources\lunor\repos\rougemeilland\palmtree.math.core.uint\palmtree.math.core.uint\pmc_inline_func.h

; 282  :         return (_subborrow_u32(borrow, u, v, w));

	add	bl, 255					; 000000ffH

; 254  :         return (_addcarryx_u32(carry, u, v, w));

	mov	DWORD PTR _k$1$[ebp], edx

; 282  :         return (_subborrow_u32(borrow, u, v, w));

	sbb	eax, esi
; File z:\sources\lunor\repos\rougemeilland\palmtree.math.core.uint\palmtree.math.core.uint\pmc_uint_internal.h

; 352  :         _InterlockedExchangeAdd(&statistics_info.COUNT_MULTI32, value);

	mov	esi, OFFSET _statistics_info+4
; File z:\sources\lunor\repos\rougemeilland\palmtree.math.core.uint\palmtree.math.core.uint\pmc_inline_func.h

; 282  :         return (_subborrow_u32(borrow, u, v, w));

	mov	DWORD PTR [ecx+28], eax
; File z:\sources\lunor\repos\rougemeilland\palmtree.math.core.uint\palmtree.math.core.uint\pmc_uint_internal.h

; 352  :         _InterlockedExchangeAdd(&statistics_info.COUNT_MULTI32, value);

	mov	eax, 8
; File z:\sources\lunor\repos\rougemeilland\palmtree.math.core.uint\palmtree.math.core.uint\pmc_inline_func.h

; 282  :         return (_subborrow_u32(borrow, u, v, w));

	setb	bl
; File z:\sources\lunor\repos\rougemeilland\palmtree.math.core.uint\palmtree.math.core.uint\pmc_divrem.c

; 696  :         v_ptr += 8;

	add	edi, 32					; 00000020H
	add	ecx, 32					; 00000020H
	mov	DWORD PTR _v_buf$[ebp], edi
; File z:\sources\lunor\repos\rougemeilland\palmtree.math.core.uint\palmtree.math.core.uint\pmc_uint_internal.h

; 352  :         _InterlockedExchangeAdd(&statistics_info.COUNT_MULTI32, value);

	lock	 xadd	 DWORD PTR [esi], eax
; File z:\sources\lunor\repos\rougemeilland\palmtree.math.core.uint\palmtree.math.core.uint\pmc_divrem.c

; 685  :     if (v_count & 0x8)

	mov	eax, DWORD PTR _v_buf_len$[ebp]
	jmp	SHORT $LN704@SubtructOn
$LN824@SubtructOn:
	mov	edx, DWORD PTR _k$1$[ebp]
$LN704@SubtructOn:

; 697  : #ifdef ENABLED_PERFORMANCE_COUNTER
; 698  :         if (sizeof(k) == sizeof(_UINT64_T))
; 699  :             AddToMULTI64Counter(8);
; 700  :         else
; 701  :             AddToMULTI32Counter(8);
; 702  : #endif
; 703  :     }
; 704  : 
; 705  :     if (v_count & 0x4)

	test	al, 4
	je	$LN756@SubtructOn
; File z:\sources\lunor\repos\rougemeilland\palmtree.math.core.uint\palmtree.math.core.uint\pmc_inline_func.h

; 364  :         return (_FROMDWORDTOWORD((_UINT64_T)u * v, w_hi));

	mov	eax, DWORD PTR [edi]
	mul	DWORD PTR _q_$[ebp]
	mov	esi, eax
	mov	edi, edx

; 254  :         return (_addcarryx_u32(carry, u, v, w));

	add	esi, DWORD PTR _k$1$[ebp]
	mov	eax, 0
	adcx	edi, eax
; File z:\sources\lunor\repos\rougemeilland\palmtree.math.core.uint\palmtree.math.core.uint\pmc_divrem.c

; 447  :     c = _SUBTRUCT_UNIT_DIV(c, *up, t_lo, up);

	mov	eax, DWORD PTR [ecx]
; File z:\sources\lunor\repos\rougemeilland\palmtree.math.core.uint\palmtree.math.core.uint\pmc_inline_func.h

; 282  :         return (_subborrow_u32(borrow, u, v, w));

	add	bl, 255					; 000000ffH
	sbb	eax, esi
	mov	DWORD PTR [ecx], eax

; 364  :         return (_FROMDWORDTOWORD((_UINT64_T)u * v, w_hi));

	mov	eax, DWORD PTR _v_buf$[ebp]

; 282  :         return (_subborrow_u32(borrow, u, v, w));

	setb	bl

; 364  :         return (_FROMDWORDTOWORD((_UINT64_T)u * v, w_hi));

	mov	eax, DWORD PTR [eax+4]
	mul	DWORD PTR _q_$[ebp]
	mov	esi, eax
	mov	eax, edx
; File z:\sources\lunor\repos\rougemeilland\palmtree.math.core.uint\palmtree.math.core.uint\pmc_divrem.c

; 445  :     t_lo = _MULTIPLYX_UNIT_DIV(*vp, q_, &t_hi);

	mov	DWORD PTR _t_lo$3[ebp], esi
; File z:\sources\lunor\repos\rougemeilland\palmtree.math.core.uint\palmtree.math.core.uint\pmc_inline_func.h

; 254  :         return (_addcarryx_u32(carry, u, v, w));

	mov	edx, 0
	add	esi, edi
	adcx	eax, edx
	mov	DWORD PTR _t_hi$2$[ebp], eax

; 282  :         return (_subborrow_u32(borrow, u, v, w));

	add	bl, 255					; 000000ffH
; File z:\sources\lunor\repos\rougemeilland\palmtree.math.core.uint\palmtree.math.core.uint\pmc_divrem.c

; 447  :     c = _SUBTRUCT_UNIT_DIV(c, *up, t_lo, up);

	mov	eax, DWORD PTR [ecx+4]
; File z:\sources\lunor\repos\rougemeilland\palmtree.math.core.uint\palmtree.math.core.uint\pmc_inline_func.h

; 282  :         return (_subborrow_u32(borrow, u, v, w));

	sbb	eax, esi
	mov	DWORD PTR [ecx+4], eax

; 364  :         return (_FROMDWORDTOWORD((_UINT64_T)u * v, w_hi));

	mov	eax, DWORD PTR _v_buf$[ebp]

; 282  :         return (_subborrow_u32(borrow, u, v, w));

	setb	bl

; 364  :         return (_FROMDWORDTOWORD((_UINT64_T)u * v, w_hi));

	mov	eax, DWORD PTR [eax+8]
	mul	DWORD PTR _q_$[ebp]
	mov	esi, eax
	mov	edi, edx

; 254  :         return (_addcarryx_u32(carry, u, v, w));

	add	esi, DWORD PTR _t_hi$2$[ebp]
	mov	eax, 0
	adcx	edi, eax
; File z:\sources\lunor\repos\rougemeilland\palmtree.math.core.uint\palmtree.math.core.uint\pmc_divrem.c

; 447  :     c = _SUBTRUCT_UNIT_DIV(c, *up, t_lo, up);

	mov	eax, DWORD PTR [ecx+8]
; File z:\sources\lunor\repos\rougemeilland\palmtree.math.core.uint\palmtree.math.core.uint\pmc_inline_func.h

; 282  :         return (_subborrow_u32(borrow, u, v, w));

	add	bl, 255					; 000000ffH
	sbb	eax, esi
	mov	DWORD PTR [ecx+8], eax

; 364  :         return (_FROMDWORDTOWORD((_UINT64_T)u * v, w_hi));

	mov	eax, DWORD PTR _v_buf$[ebp]

; 282  :         return (_subborrow_u32(borrow, u, v, w));

	setb	bl

; 364  :         return (_FROMDWORDTOWORD((_UINT64_T)u * v, w_hi));

	mov	eax, DWORD PTR [eax+12]
	mul	DWORD PTR _q_$[ebp]
	mov	esi, eax

; 254  :         return (_addcarryx_u32(carry, u, v, w));

	mov	eax, 0
; File z:\sources\lunor\repos\rougemeilland\palmtree.math.core.uint\palmtree.math.core.uint\pmc_divrem.c

; 445  :     t_lo = _MULTIPLYX_UNIT_DIV(*vp, q_, &t_hi);

	mov	DWORD PTR _t_lo$2[ebp], esi
; File z:\sources\lunor\repos\rougemeilland\palmtree.math.core.uint\palmtree.math.core.uint\pmc_inline_func.h

; 254  :         return (_addcarryx_u32(carry, u, v, w));

	add	esi, edi
; File z:\sources\lunor\repos\rougemeilland\palmtree.math.core.uint\palmtree.math.core.uint\pmc_divrem.c

; 712  :         v_ptr += 4;

	mov	edi, DWORD PTR _v_buf$[ebp]
; File z:\sources\lunor\repos\rougemeilland\palmtree.math.core.uint\palmtree.math.core.uint\pmc_inline_func.h

; 254  :         return (_addcarryx_u32(carry, u, v, w));

	adcx	edx, eax
; File z:\sources\lunor\repos\rougemeilland\palmtree.math.core.uint\palmtree.math.core.uint\pmc_divrem.c

; 447  :     c = _SUBTRUCT_UNIT_DIV(c, *up, t_lo, up);

	mov	eax, DWORD PTR [ecx+12]
; File z:\sources\lunor\repos\rougemeilland\palmtree.math.core.uint\palmtree.math.core.uint\pmc_inline_func.h

; 282  :         return (_subborrow_u32(borrow, u, v, w));

	add	bl, 255					; 000000ffH

; 254  :         return (_addcarryx_u32(carry, u, v, w));

	mov	DWORD PTR _k$1$[ebp], edx

; 282  :         return (_subborrow_u32(borrow, u, v, w));

	sbb	eax, esi
; File z:\sources\lunor\repos\rougemeilland\palmtree.math.core.uint\palmtree.math.core.uint\pmc_uint_internal.h

; 352  :         _InterlockedExchangeAdd(&statistics_info.COUNT_MULTI32, value);

	mov	esi, OFFSET _statistics_info+4
; File z:\sources\lunor\repos\rougemeilland\palmtree.math.core.uint\palmtree.math.core.uint\pmc_inline_func.h

; 282  :         return (_subborrow_u32(borrow, u, v, w));

	mov	DWORD PTR [ecx+12], eax
; File z:\sources\lunor\repos\rougemeilland\palmtree.math.core.uint\palmtree.math.core.uint\pmc_uint_internal.h

; 352  :         _InterlockedExchangeAdd(&statistics_info.COUNT_MULTI32, value);

	mov	eax, 4
; File z:\sources\lunor\repos\rougemeilland\palmtree.math.core.uint\palmtree.math.core.uint\pmc_inline_func.h

; 282  :         return (_subborrow_u32(borrow, u, v, w));

	setb	bl
; File z:\sources\lunor\repos\rougemeilland\palmtree.math.core.uint\palmtree.math.core.uint\pmc_divrem.c

; 712  :         v_ptr += 4;

	add	edi, 16					; 00000010H
	add	ecx, 16					; 00000010H
	mov	DWORD PTR _v_buf$[ebp], edi
; File z:\sources\lunor\repos\rougemeilland\palmtree.math.core.uint\palmtree.math.core.uint\pmc_uint_internal.h

; 352  :         _InterlockedExchangeAdd(&statistics_info.COUNT_MULTI32, value);

	lock	 xadd	 DWORD PTR [esi], eax
	mov	eax, DWORD PTR _v_buf_len$[ebp]
$LN756@SubtructOn:
; File z:\sources\lunor\repos\rougemeilland\palmtree.math.core.uint\palmtree.math.core.uint\pmc_divrem.c

; 721  :     if (v_count & 0x2)

	test	al, 2
	je	SHORT $LN784@SubtructOn
; File z:\sources\lunor\repos\rougemeilland\palmtree.math.core.uint\palmtree.math.core.uint\pmc_inline_func.h

; 364  :         return (_FROMDWORDTOWORD((_UINT64_T)u * v, w_hi));

	mov	eax, DWORD PTR [edi]
	mul	DWORD PTR _q_$[ebp]
	mov	esi, eax
	mov	edi, edx

; 254  :         return (_addcarryx_u32(carry, u, v, w));

	add	esi, DWORD PTR _k$1$[ebp]
	mov	eax, 0
	adcx	edi, eax
; File z:\sources\lunor\repos\rougemeilland\palmtree.math.core.uint\palmtree.math.core.uint\pmc_divrem.c

; 447  :     c = _SUBTRUCT_UNIT_DIV(c, *up, t_lo, up);

	mov	eax, DWORD PTR [ecx]
; File z:\sources\lunor\repos\rougemeilland\palmtree.math.core.uint\palmtree.math.core.uint\pmc_inline_func.h

; 282  :         return (_subborrow_u32(borrow, u, v, w));

	add	bl, 255					; 000000ffH
	sbb	eax, esi
	mov	DWORD PTR [ecx], eax

; 364  :         return (_FROMDWORDTOWORD((_UINT64_T)u * v, w_hi));

	mov	eax, DWORD PTR _v_buf$[ebp]

; 282  :         return (_subborrow_u32(borrow, u, v, w));

	setb	bl

; 364  :         return (_FROMDWORDTOWORD((_UINT64_T)u * v, w_hi));

	mov	eax, DWORD PTR [eax+4]
	mul	DWORD PTR _q_$[ebp]
	mov	esi, eax
	mov	eax, edx
; File z:\sources\lunor\repos\rougemeilland\palmtree.math.core.uint\palmtree.math.core.uint\pmc_divrem.c

; 445  :     t_lo = _MULTIPLYX_UNIT_DIV(*vp, q_, &t_hi);

	mov	DWORD PTR _t_lo$1[ebp], esi
; File z:\sources\lunor\repos\rougemeilland\palmtree.math.core.uint\palmtree.math.core.uint\pmc_inline_func.h

; 254  :         return (_addcarryx_u32(carry, u, v, w));

	mov	edx, 0
	add	esi, edi
; File z:\sources\lunor\repos\rougemeilland\palmtree.math.core.uint\palmtree.math.core.uint\pmc_divrem.c

; 726  :         v_ptr += 2;

	mov	edi, DWORD PTR _v_buf$[ebp]
; File z:\sources\lunor\repos\rougemeilland\palmtree.math.core.uint\palmtree.math.core.uint\pmc_inline_func.h

; 254  :         return (_addcarryx_u32(carry, u, v, w));

	adcx	eax, edx
	mov	DWORD PTR _k$1$[ebp], eax

; 282  :         return (_subborrow_u32(borrow, u, v, w));

	add	bl, 255					; 000000ffH
; File z:\sources\lunor\repos\rougemeilland\palmtree.math.core.uint\palmtree.math.core.uint\pmc_divrem.c

; 447  :     c = _SUBTRUCT_UNIT_DIV(c, *up, t_lo, up);

	mov	eax, DWORD PTR [ecx+4]
; File z:\sources\lunor\repos\rougemeilland\palmtree.math.core.uint\palmtree.math.core.uint\pmc_uint_internal.h

; 352  :         _InterlockedExchangeAdd(&statistics_info.COUNT_MULTI32, value);

	mov	edx, 2
; File z:\sources\lunor\repos\rougemeilland\palmtree.math.core.uint\palmtree.math.core.uint\pmc_inline_func.h

; 282  :         return (_subborrow_u32(borrow, u, v, w));

	sbb	eax, esi
	mov	DWORD PTR [ecx+4], eax
; File z:\sources\lunor\repos\rougemeilland\palmtree.math.core.uint\palmtree.math.core.uint\pmc_uint_internal.h

; 352  :         _InterlockedExchangeAdd(&statistics_info.COUNT_MULTI32, value);

	mov	eax, OFFSET _statistics_info+4
; File z:\sources\lunor\repos\rougemeilland\palmtree.math.core.uint\palmtree.math.core.uint\pmc_inline_func.h

; 282  :         return (_subborrow_u32(borrow, u, v, w));

	setb	bl
; File z:\sources\lunor\repos\rougemeilland\palmtree.math.core.uint\palmtree.math.core.uint\pmc_divrem.c

; 725  :         u_ptr += 2;

	add	ecx, 8

; 726  :         v_ptr += 2;

	add	edi, 8
; File z:\sources\lunor\repos\rougemeilland\palmtree.math.core.uint\palmtree.math.core.uint\pmc_uint_internal.h

; 352  :         _InterlockedExchangeAdd(&statistics_info.COUNT_MULTI32, value);

	lock	 xadd	 DWORD PTR [eax], edx
	mov	edx, DWORD PTR _k$1$[ebp]
	mov	eax, DWORD PTR _v_buf_len$[ebp]
$LN784@SubtructOn:
; File z:\sources\lunor\repos\rougemeilland\palmtree.math.core.uint\palmtree.math.core.uint\pmc_divrem.c

; 735  :     if (v_count & 0x1)

	test	al, 1
	je	SHORT $LN800@SubtructOn
; File z:\sources\lunor\repos\rougemeilland\palmtree.math.core.uint\palmtree.math.core.uint\pmc_inline_func.h

; 364  :         return (_FROMDWORDTOWORD((_UINT64_T)u * v, w_hi));

	mov	eax, DWORD PTR [edi]
	mul	DWORD PTR _q_$[ebp]
	mov	esi, eax

; 254  :         return (_addcarryx_u32(carry, u, v, w));

	mov	eax, 0
	add	esi, DWORD PTR _k$1$[ebp]
	adcx	edx, eax
; File z:\sources\lunor\repos\rougemeilland\palmtree.math.core.uint\palmtree.math.core.uint\pmc_divrem.c

; 447  :     c = _SUBTRUCT_UNIT_DIV(c, *up, t_lo, up);

	mov	eax, DWORD PTR [ecx]
; File z:\sources\lunor\repos\rougemeilland\palmtree.math.core.uint\palmtree.math.core.uint\pmc_inline_func.h

; 282  :         return (_subborrow_u32(borrow, u, v, w));

	add	bl, 255					; 000000ffH
	sbb	eax, esi
	mov	DWORD PTR [ecx], eax
	setb	bl
; File z:\sources\lunor\repos\rougemeilland\palmtree.math.core.uint\palmtree.math.core.uint\pmc_divrem.c

; 738  :         u_ptr += 1;

	add	ecx, 4
; File z:\sources\lunor\repos\rougemeilland\palmtree.math.core.uint\palmtree.math.core.uint\pmc_uint_internal.h

; 329  :         _InterlockedIncrement(&statistics_info.COUNT_MULTI32);

	lock	 inc	 (null) PTR _statistics_info+4
$LN800@SubtructOn:
; File z:\sources\lunor\repos\rougemeilland\palmtree.math.core.uint\palmtree.math.core.uint\pmc_divrem.c

; 748  :     c = _SUBTRUCT_UNIT_DIV(c, *u_ptr, k, u_ptr);

	mov	eax, DWORD PTR [ecx]
; File z:\sources\lunor\repos\rougemeilland\palmtree.math.core.uint\palmtree.math.core.uint\pmc_inline_func.h

; 282  :         return (_subborrow_u32(borrow, u, v, w));

	add	bl, 255					; 000000ffH
	sbb	eax, edx
	mov	DWORD PTR [ecx], eax
; File z:\sources\lunor\repos\rougemeilland\palmtree.math.core.uint\palmtree.math.core.uint\pmc_divrem.c

; 751  :     return (DoBorrow(c, u_ptr, u_buf + u_buf_len + 1 - u_ptr));

	mov	eax, DWORD PTR _u_buf_len$[ebp]
; File z:\sources\lunor\repos\rougemeilland\palmtree.math.core.uint\palmtree.math.core.uint\pmc_inline_func.h

; 282  :         return (_subborrow_u32(borrow, u, v, w));

	setb	dl
; File z:\sources\lunor\repos\rougemeilland\palmtree.math.core.uint\palmtree.math.core.uint\pmc_divrem.c

; 749  :     u_ptr += 1;

	add	ecx, 4

; 751  :     return (DoBorrow(c, u_ptr, u_buf + u_buf_len + 1 - u_ptr));

	lea	esi, DWORD PTR [eax*4+4]
	sub	esi, ecx
	add	esi, DWORD PTR _u_buf$[ebp]
	sar	esi, 2

; 395  :         if (u_count <= 0)

	test	esi, esi
	je	SHORT $LN818@SubtructOn
$LL805@SubtructOn:

; 400  :             {
; 401  :                 // かつそれでも桁借りを行う必要がある場合
; 402  : 
; 403  :                 // 減算結果が負になってしまったので呼び出し元に通知する。
; 404  :                 return (TRUE);
; 405  :             }
; 406  : 
; 407  :             // u の最上位に達してしまった場合はいずれにしろループを中断して正常復帰する。
; 408  : 
; 409  :             return (FALSE);
; 410  :         }
; 411  :         else if (c)

	test	dl, dl
	je	SHORT $LN811@SubtructOn

; 412  :         {
; 413  :             // u の最上位に達しておらず、かつボローが立っている場合
; 414  : 
; 415  :             // 桁借りを継続する
; 416  :             c = _SUBTRUCT_UNIT_DIV(c, *up, 0, up);

	mov	eax, DWORD PTR [ecx]
; File z:\sources\lunor\repos\rougemeilland\palmtree.math.core.uint\palmtree.math.core.uint\pmc_inline_func.h

; 282  :         return (_subborrow_u32(borrow, u, v, w));

	add	dl, 255					; 000000ffH
	sbb	eax, 0
	mov	DWORD PTR [ecx], eax
	setb	dl
; File z:\sources\lunor\repos\rougemeilland\palmtree.math.core.uint\palmtree.math.core.uint\pmc_divrem.c

; 417  :             ++up;

	add	ecx, 4

; 418  :             --u_count;

	sub	esi, 1
	jne	SHORT $LL805@SubtructOn
$LN818@SubtructOn:

; 396  :         {
; 397  :             // u の最上位まで達してしまった場合
; 398  : 
; 399  :             if (c)

	xor	eax, eax
	test	dl, dl
	pop	edi

; 752  : }

	pop	esi

; 399  :             if (c)

	setne	al

; 752  : }

	pop	ebx
	mov	esp, ebp
	pop	ebp
	ret	0
$LN811@SubtructOn:
	pop	edi
	pop	esi
	xor	eax, eax
	pop	ebx
	mov	esp, ebp
	pop	ebp
	ret	0
_SubtructOneLineX ENDP
_TEXT	ENDS
; Function compile flags: /Ogtp
; File z:\sources\lunor\repos\rougemeilland\palmtree.math.core.uint\palmtree.math.core.uint\pmc_divrem.c
; File z:\sources\lunor\repos\rougemeilland\palmtree.math.core.uint\palmtree.math.core.uint\pmc_inline_func.h
; File z:\sources\lunor\repos\rougemeilland\palmtree.math.core.uint\palmtree.math.core.uint\pmc_divrem.c
; File z:\sources\lunor\repos\rougemeilland\palmtree.math.core.uint\palmtree.math.core.uint\pmc_inline_func.h
; File z:\sources\lunor\repos\rougemeilland\palmtree.math.core.uint\palmtree.math.core.uint\pmc_divrem.c
; File z:\sources\lunor\repos\rougemeilland\palmtree.math.core.uint\palmtree.math.core.uint\pmc_inline_func.h
; File z:\sources\lunor\repos\rougemeilland\palmtree.math.core.uint\palmtree.math.core.uint\pmc_divrem.c
; File z:\sources\lunor\repos\rougemeilland\palmtree.math.core.uint\palmtree.math.core.uint\pmc_inline_func.h
; File z:\sources\lunor\repos\rougemeilland\palmtree.math.core.uint\palmtree.math.core.uint\pmc_divrem.c
; File z:\sources\lunor\repos\rougemeilland\palmtree.math.core.uint\palmtree.math.core.uint\pmc_inline_func.h
; File z:\sources\lunor\repos\rougemeilland\palmtree.math.core.uint\palmtree.math.core.uint\pmc_divrem.c
; File z:\sources\lunor\repos\rougemeilland\palmtree.math.core.uint\palmtree.math.core.uint\pmc_inline_func.h
; File z:\sources\lunor\repos\rougemeilland\palmtree.math.core.uint\palmtree.math.core.uint\pmc_divrem.c
; File z:\sources\lunor\repos\rougemeilland\palmtree.math.core.uint\palmtree.math.core.uint\pmc_inline_func.h
; File z:\sources\lunor\repos\rougemeilland\palmtree.math.core.uint\palmtree.math.core.uint\pmc_divrem.c
; File z:\sources\lunor\repos\rougemeilland\palmtree.math.core.uint\palmtree.math.core.uint\pmc_inline_func.h
; File z:\sources\lunor\repos\rougemeilland\palmtree.math.core.uint\palmtree.math.core.uint\pmc_divrem.c
; File z:\sources\lunor\repos\rougemeilland\palmtree.math.core.uint\palmtree.math.core.uint\pmc_inline_func.h
; File z:\sources\lunor\repos\rougemeilland\palmtree.math.core.uint\palmtree.math.core.uint\pmc_divrem.c
; File z:\sources\lunor\repos\rougemeilland\palmtree.math.core.uint\palmtree.math.core.uint\pmc_inline_func.h
; File z:\sources\lunor\repos\rougemeilland\palmtree.math.core.uint\palmtree.math.core.uint\pmc_divrem.c
; File z:\sources\lunor\repos\rougemeilland\palmtree.math.core.uint\palmtree.math.core.uint\pmc_inline_func.h
; File z:\sources\lunor\repos\rougemeilland\palmtree.math.core.uint\palmtree.math.core.uint\pmc_divrem.c
; File z:\sources\lunor\repos\rougemeilland\palmtree.math.core.uint\palmtree.math.core.uint\pmc_inline_func.h
; File z:\sources\lunor\repos\rougemeilland\palmtree.math.core.uint\palmtree.math.core.uint\pmc_divrem.c
; File z:\sources\lunor\repos\rougemeilland\palmtree.math.core.uint\palmtree.math.core.uint\pmc_inline_func.h
; File z:\sources\lunor\repos\rougemeilland\palmtree.math.core.uint\palmtree.math.core.uint\pmc_divrem.c
; File z:\sources\lunor\repos\rougemeilland\palmtree.math.core.uint\palmtree.math.core.uint\pmc_inline_func.h
; File z:\sources\lunor\repos\rougemeilland\palmtree.math.core.uint\palmtree.math.core.uint\pmc_divrem.c
; File z:\sources\lunor\repos\rougemeilland\palmtree.math.core.uint\palmtree.math.core.uint\pmc_inline_func.h
; File z:\sources\lunor\repos\rougemeilland\palmtree.math.core.uint\palmtree.math.core.uint\pmc_divrem.c
; File z:\sources\lunor\repos\rougemeilland\palmtree.math.core.uint\palmtree.math.core.uint\pmc_inline_func.h
; File z:\sources\lunor\repos\rougemeilland\palmtree.math.core.uint\palmtree.math.core.uint\pmc_divrem.c
; File z:\sources\lunor\repos\rougemeilland\palmtree.math.core.uint\palmtree.math.core.uint\pmc_inline_func.h
; File z:\sources\lunor\repos\rougemeilland\palmtree.math.core.uint\palmtree.math.core.uint\pmc_divrem.c
; File z:\sources\lunor\repos\rougemeilland\palmtree.math.core.uint\palmtree.math.core.uint\pmc_inline_func.h
; File z:\sources\lunor\repos\rougemeilland\palmtree.math.core.uint\palmtree.math.core.uint\pmc_divrem.c
; File z:\sources\lunor\repos\rougemeilland\palmtree.math.core.uint\palmtree.math.core.uint\pmc_inline_func.h
; File z:\sources\lunor\repos\rougemeilland\palmtree.math.core.uint\palmtree.math.core.uint\pmc_divrem.c
; File z:\sources\lunor\repos\rougemeilland\palmtree.math.core.uint\palmtree.math.core.uint\pmc_inline_func.h
; File z:\sources\lunor\repos\rougemeilland\palmtree.math.core.uint\palmtree.math.core.uint\pmc_divrem.c
; File z:\sources\lunor\repos\rougemeilland\palmtree.math.core.uint\palmtree.math.core.uint\pmc_inline_func.h
; File z:\sources\lunor\repos\rougemeilland\palmtree.math.core.uint\palmtree.math.core.uint\pmc_divrem.c
; File z:\sources\lunor\repos\rougemeilland\palmtree.math.core.uint\palmtree.math.core.uint\pmc_inline_func.h
; File z:\sources\lunor\repos\rougemeilland\palmtree.math.core.uint\palmtree.math.core.uint\pmc_divrem.c
; File z:\sources\lunor\repos\rougemeilland\palmtree.math.core.uint\palmtree.math.core.uint\pmc_inline_func.h
; File z:\sources\lunor\repos\rougemeilland\palmtree.math.core.uint\palmtree.math.core.uint\pmc_divrem.c
; File z:\sources\lunor\repos\rougemeilland\palmtree.math.core.uint\palmtree.math.core.uint\pmc_inline_func.h
; File z:\sources\lunor\repos\rougemeilland\palmtree.math.core.uint\palmtree.math.core.uint\pmc_divrem.c
; File z:\sources\lunor\repos\rougemeilland\palmtree.math.core.uint\palmtree.math.core.uint\pmc_inline_func.h
; File z:\sources\lunor\repos\rougemeilland\palmtree.math.core.uint\palmtree.math.core.uint\pmc_divrem.c
; File z:\sources\lunor\repos\rougemeilland\palmtree.math.core.uint\palmtree.math.core.uint\pmc_inline_func.h
; File z:\sources\lunor\repos\rougemeilland\palmtree.math.core.uint\palmtree.math.core.uint\pmc_divrem.c
; File z:\sources\lunor\repos\rougemeilland\palmtree.math.core.uint\palmtree.math.core.uint\pmc_inline_func.h
; File z:\sources\lunor\repos\rougemeilland\palmtree.math.core.uint\palmtree.math.core.uint\pmc_divrem.c
; File z:\sources\lunor\repos\rougemeilland\palmtree.math.core.uint\palmtree.math.core.uint\pmc_inline_func.h
; File z:\sources\lunor\repos\rougemeilland\palmtree.math.core.uint\palmtree.math.core.uint\pmc_divrem.c
; File z:\sources\lunor\repos\rougemeilland\palmtree.math.core.uint\palmtree.math.core.uint\pmc_inline_func.h
; File z:\sources\lunor\repos\rougemeilland\palmtree.math.core.uint\palmtree.math.core.uint\pmc_divrem.c
; File z:\sources\lunor\repos\rougemeilland\palmtree.math.core.uint\palmtree.math.core.uint\pmc_inline_func.h
; File z:\sources\lunor\repos\rougemeilland\palmtree.math.core.uint\palmtree.math.core.uint\pmc_divrem.c
; File z:\sources\lunor\repos\rougemeilland\palmtree.math.core.uint\palmtree.math.core.uint\pmc_inline_func.h
; File z:\sources\lunor\repos\rougemeilland\palmtree.math.core.uint\palmtree.math.core.uint\pmc_divrem.c
; File z:\sources\lunor\repos\rougemeilland\palmtree.math.core.uint\palmtree.math.core.uint\pmc_inline_func.h
; File z:\sources\lunor\repos\rougemeilland\palmtree.math.core.uint\palmtree.math.core.uint\pmc_divrem.c
; File z:\sources\lunor\repos\rougemeilland\palmtree.math.core.uint\palmtree.math.core.uint\pmc_inline_func.h
; File z:\sources\lunor\repos\rougemeilland\palmtree.math.core.uint\palmtree.math.core.uint\pmc_divrem.c
; File z:\sources\lunor\repos\rougemeilland\palmtree.math.core.uint\palmtree.math.core.uint\pmc_inline_func.h
; File z:\sources\lunor\repos\rougemeilland\palmtree.math.core.uint\palmtree.math.core.uint\pmc_divrem.c
; File z:\sources\lunor\repos\rougemeilland\palmtree.math.core.uint\palmtree.math.core.uint\pmc_inline_func.h
; File z:\sources\lunor\repos\rougemeilland\palmtree.math.core.uint\palmtree.math.core.uint\pmc_divrem.c
; File z:\sources\lunor\repos\rougemeilland\palmtree.math.core.uint\palmtree.math.core.uint\pmc_inline_func.h
; File z:\sources\lunor\repos\rougemeilland\palmtree.math.core.uint\palmtree.math.core.uint\pmc_divrem.c
; File z:\sources\lunor\repos\rougemeilland\palmtree.math.core.uint\palmtree.math.core.uint\pmc_uint_internal.h
; File z:\sources\lunor\repos\rougemeilland\palmtree.math.core.uint\palmtree.math.core.uint\pmc_divrem.c
; File z:\sources\lunor\repos\rougemeilland\palmtree.math.core.uint\palmtree.math.core.uint\pmc_uint_internal.h
; File z:\sources\lunor\repos\rougemeilland\palmtree.math.core.uint\palmtree.math.core.uint\pmc_divrem.c
; File z:\sources\lunor\repos\rougemeilland\palmtree.math.core.uint\palmtree.math.core.uint\pmc_uint_internal.h
; File z:\sources\lunor\repos\rougemeilland\palmtree.math.core.uint\palmtree.math.core.uint\pmc_divrem.c
; File z:\sources\lunor\repos\rougemeilland\palmtree.math.core.uint\palmtree.math.core.uint\pmc_inline_func.h
; File z:\sources\lunor\repos\rougemeilland\palmtree.math.core.uint\palmtree.math.core.uint\pmc_divrem.c
; File z:\sources\lunor\repos\rougemeilland\palmtree.math.core.uint\palmtree.math.core.uint\pmc_inline_func.h
; File z:\sources\lunor\repos\rougemeilland\palmtree.math.core.uint\palmtree.math.core.uint\pmc_divrem.c
; File z:\sources\lunor\repos\rougemeilland\palmtree.math.core.uint\palmtree.math.core.uint\pmc_inline_func.h
; File z:\sources\lunor\repos\rougemeilland\palmtree.math.core.uint\palmtree.math.core.uint\pmc_divrem.c
; File z:\sources\lunor\repos\rougemeilland\palmtree.math.core.uint\palmtree.math.core.uint\pmc_inline_func.h
; File z:\sources\lunor\repos\rougemeilland\palmtree.math.core.uint\palmtree.math.core.uint\pmc_divrem.c
; File z:\sources\lunor\repos\rougemeilland\palmtree.math.core.uint\palmtree.math.core.uint\pmc_inline_func.h
; File z:\sources\lunor\repos\rougemeilland\palmtree.math.core.uint\palmtree.math.core.uint\pmc_divrem.c
; File z:\sources\lunor\repos\rougemeilland\palmtree.math.core.uint\palmtree.math.core.uint\pmc_inline_func.h
; File z:\sources\lunor\repos\rougemeilland\palmtree.math.core.uint\palmtree.math.core.uint\pmc_divrem.c
; File z:\sources\lunor\repos\rougemeilland\palmtree.math.core.uint\palmtree.math.core.uint\pmc_inline_func.h
; File z:\sources\lunor\repos\rougemeilland\palmtree.math.core.uint\palmtree.math.core.uint\pmc_divrem.c
; File z:\sources\lunor\repos\rougemeilland\palmtree.math.core.uint\palmtree.math.core.uint\pmc_inline_func.h
; File z:\sources\lunor\repos\rougemeilland\palmtree.math.core.uint\palmtree.math.core.uint\pmc_divrem.c
; File z:\sources\lunor\repos\rougemeilland\palmtree.math.core.uint\palmtree.math.core.uint\pmc_inline_func.h
; File z:\sources\lunor\repos\rougemeilland\palmtree.math.core.uint\palmtree.math.core.uint\pmc_divrem.c
; File z:\sources\lunor\repos\rougemeilland\palmtree.math.core.uint\palmtree.math.core.uint\pmc_inline_func.h
; File z:\sources\lunor\repos\rougemeilland\palmtree.math.core.uint\palmtree.math.core.uint\pmc_divrem.c
; File z:\sources\lunor\repos\rougemeilland\palmtree.math.core.uint\palmtree.math.core.uint\pmc_inline_func.h
; File z:\sources\lunor\repos\rougemeilland\palmtree.math.core.uint\palmtree.math.core.uint\pmc_divrem.c
; File z:\sources\lunor\repos\rougemeilland\palmtree.math.core.uint\palmtree.math.core.uint\pmc_inline_func.h
; File z:\sources\lunor\repos\rougemeilland\palmtree.math.core.uint\palmtree.math.core.uint\pmc_divrem.c
; File z:\sources\lunor\repos\rougemeilland\palmtree.math.core.uint\palmtree.math.core.uint\pmc_inline_func.h
; File z:\sources\lunor\repos\rougemeilland\palmtree.math.core.uint\palmtree.math.core.uint\pmc_divrem.c
; File z:\sources\lunor\repos\rougemeilland\palmtree.math.core.uint\palmtree.math.core.uint\pmc_inline_func.h
; File z:\sources\lunor\repos\rougemeilland\palmtree.math.core.uint\palmtree.math.core.uint\pmc_divrem.c
; File z:\sources\lunor\repos\rougemeilland\palmtree.math.core.uint\palmtree.math.core.uint\pmc_inline_func.h
; File z:\sources\lunor\repos\rougemeilland\palmtree.math.core.uint\palmtree.math.core.uint\pmc_divrem.c
; File z:\sources\lunor\repos\rougemeilland\palmtree.math.core.uint\palmtree.math.core.uint\pmc_inline_func.h
; File z:\sources\lunor\repos\rougemeilland\palmtree.math.core.uint\palmtree.math.core.uint\pmc_divrem.c
; File z:\sources\lunor\repos\rougemeilland\palmtree.math.core.uint\palmtree.math.core.uint\pmc_inline_func.h
; File z:\sources\lunor\repos\rougemeilland\palmtree.math.core.uint\palmtree.math.core.uint\pmc_divrem.c
; File z:\sources\lunor\repos\rougemeilland\palmtree.math.core.uint\palmtree.math.core.uint\pmc_inline_func.h
; File z:\sources\lunor\repos\rougemeilland\palmtree.math.core.uint\palmtree.math.core.uint\pmc_divrem.c
; File z:\sources\lunor\repos\rougemeilland\palmtree.math.core.uint\palmtree.math.core.uint\pmc_inline_func.h
; File z:\sources\lunor\repos\rougemeilland\palmtree.math.core.uint\palmtree.math.core.uint\pmc_divrem.c
; File z:\sources\lunor\repos\rougemeilland\palmtree.math.core.uint\palmtree.math.core.uint\pmc_inline_func.h
; File z:\sources\lunor\repos\rougemeilland\palmtree.math.core.uint\palmtree.math.core.uint\pmc_uint_internal.h
; File z:\sources\lunor\repos\rougemeilland\palmtree.math.core.uint\palmtree.math.core.uint\pmc_inline_func.h
; File z:\sources\lunor\repos\rougemeilland\palmtree.math.core.uint\palmtree.math.core.uint\pmc_uint_internal.h
; File z:\sources\lunor\repos\rougemeilland\palmtree.math.core.uint\palmtree.math.core.uint\pmc_inline_func.h
; File z:\sources\lunor\repos\rougemeilland\palmtree.math.core.uint\palmtree.math.core.uint\pmc_divrem.c
; File z:\sources\lunor\repos\rougemeilland\palmtree.math.core.uint\palmtree.math.core.uint\pmc_uint_internal.h
; File z:\sources\lunor\repos\rougemeilland\palmtree.math.core.uint\palmtree.math.core.uint\pmc_divrem.c
; File z:\sources\lunor\repos\rougemeilland\palmtree.math.core.uint\palmtree.math.core.uint\pmc_inline_func.h
; File z:\sources\lunor\repos\rougemeilland\palmtree.math.core.uint\palmtree.math.core.uint\pmc_divrem.c
; File z:\sources\lunor\repos\rougemeilland\palmtree.math.core.uint\palmtree.math.core.uint\pmc_inline_func.h
; File z:\sources\lunor\repos\rougemeilland\palmtree.math.core.uint\palmtree.math.core.uint\pmc_divrem.c
; File z:\sources\lunor\repos\rougemeilland\palmtree.math.core.uint\palmtree.math.core.uint\pmc_inline_func.h
; File z:\sources\lunor\repos\rougemeilland\palmtree.math.core.uint\palmtree.math.core.uint\pmc_divrem.c
; File z:\sources\lunor\repos\rougemeilland\palmtree.math.core.uint\palmtree.math.core.uint\pmc_inline_func.h
; File z:\sources\lunor\repos\rougemeilland\palmtree.math.core.uint\palmtree.math.core.uint\pmc_divrem.c
; File z:\sources\lunor\repos\rougemeilland\palmtree.math.core.uint\palmtree.math.core.uint\pmc_inline_func.h
; File z:\sources\lunor\repos\rougemeilland\palmtree.math.core.uint\palmtree.math.core.uint\pmc_divrem.c
; File z:\sources\lunor\repos\rougemeilland\palmtree.math.core.uint\palmtree.math.core.uint\pmc_inline_func.h
; File z:\sources\lunor\repos\rougemeilland\palmtree.math.core.uint\palmtree.math.core.uint\pmc_divrem.c
; File z:\sources\lunor\repos\rougemeilland\palmtree.math.core.uint\palmtree.math.core.uint\pmc_inline_func.h
; File z:\sources\lunor\repos\rougemeilland\palmtree.math.core.uint\palmtree.math.core.uint\pmc_divrem.c
; File z:\sources\lunor\repos\rougemeilland\palmtree.math.core.uint\palmtree.math.core.uint\pmc_inline_func.h
; File z:\sources\lunor\repos\rougemeilland\palmtree.math.core.uint\palmtree.math.core.uint\pmc_divrem.c
; File z:\sources\lunor\repos\rougemeilland\palmtree.math.core.uint\palmtree.math.core.uint\pmc_inline_func.h
; File z:\sources\lunor\repos\rougemeilland\palmtree.math.core.uint\palmtree.math.core.uint\pmc_divrem.c
; File z:\sources\lunor\repos\rougemeilland\palmtree.math.core.uint\palmtree.math.core.uint\pmc_inline_func.h
; File z:\sources\lunor\repos\rougemeilland\palmtree.math.core.uint\palmtree.math.core.uint\pmc_divrem.c
; File z:\sources\lunor\repos\rougemeilland\palmtree.math.core.uint\palmtree.math.core.uint\pmc_inline_func.h
; File z:\sources\lunor\repos\rougemeilland\palmtree.math.core.uint\palmtree.math.core.uint\pmc_divrem.c
; File z:\sources\lunor\repos\rougemeilland\palmtree.math.core.uint\palmtree.math.core.uint\pmc_inline_func.h
; File z:\sources\lunor\repos\rougemeilland\palmtree.math.core.uint\palmtree.math.core.uint\pmc_divrem.c
; File z:\sources\lunor\repos\rougemeilland\palmtree.math.core.uint\palmtree.math.core.uint\pmc_inline_func.h
; File z:\sources\lunor\repos\rougemeilland\palmtree.math.core.uint\palmtree.math.core.uint\pmc_uint_internal.h
; File z:\sources\lunor\repos\rougemeilland\palmtree.math.core.uint\palmtree.math.core.uint\pmc_inline_func.h
; File z:\sources\lunor\repos\rougemeilland\palmtree.math.core.uint\palmtree.math.core.uint\pmc_uint_internal.h
; File z:\sources\lunor\repos\rougemeilland\palmtree.math.core.uint\palmtree.math.core.uint\pmc_inline_func.h
; File z:\sources\lunor\repos\rougemeilland\palmtree.math.core.uint\palmtree.math.core.uint\pmc_divrem.c
; File z:\sources\lunor\repos\rougemeilland\palmtree.math.core.uint\palmtree.math.core.uint\pmc_uint_internal.h
; File z:\sources\lunor\repos\rougemeilland\palmtree.math.core.uint\palmtree.math.core.uint\pmc_divrem.c
; File z:\sources\lunor\repos\rougemeilland\palmtree.math.core.uint\palmtree.math.core.uint\pmc_inline_func.h
; File z:\sources\lunor\repos\rougemeilland\palmtree.math.core.uint\palmtree.math.core.uint\pmc_divrem.c
; File z:\sources\lunor\repos\rougemeilland\palmtree.math.core.uint\palmtree.math.core.uint\pmc_inline_func.h
; File z:\sources\lunor\repos\rougemeilland\palmtree.math.core.uint\palmtree.math.core.uint\pmc_divrem.c
; File z:\sources\lunor\repos\rougemeilland\palmtree.math.core.uint\palmtree.math.core.uint\pmc_inline_func.h
; File z:\sources\lunor\repos\rougemeilland\palmtree.math.core.uint\palmtree.math.core.uint\pmc_divrem.c
; File z:\sources\lunor\repos\rougemeilland\palmtree.math.core.uint\palmtree.math.core.uint\pmc_inline_func.h
; File z:\sources\lunor\repos\rougemeilland\palmtree.math.core.uint\palmtree.math.core.uint\pmc_divrem.c
; File z:\sources\lunor\repos\rougemeilland\palmtree.math.core.uint\palmtree.math.core.uint\pmc_inline_func.h
; File z:\sources\lunor\repos\rougemeilland\palmtree.math.core.uint\palmtree.math.core.uint\pmc_divrem.c
; File z:\sources\lunor\repos\rougemeilland\palmtree.math.core.uint\palmtree.math.core.uint\pmc_inline_func.h
; File z:\sources\lunor\repos\rougemeilland\palmtree.math.core.uint\palmtree.math.core.uint\pmc_divrem.c
; File z:\sources\lunor\repos\rougemeilland\palmtree.math.core.uint\palmtree.math.core.uint\pmc_inline_func.h
; File z:\sources\lunor\repos\rougemeilland\palmtree.math.core.uint\palmtree.math.core.uint\pmc_uint_internal.h
; File z:\sources\lunor\repos\rougemeilland\palmtree.math.core.uint\palmtree.math.core.uint\pmc_inline_func.h
; File z:\sources\lunor\repos\rougemeilland\palmtree.math.core.uint\palmtree.math.core.uint\pmc_uint_internal.h
; File z:\sources\lunor\repos\rougemeilland\palmtree.math.core.uint\palmtree.math.core.uint\pmc_inline_func.h
; File z:\sources\lunor\repos\rougemeilland\palmtree.math.core.uint\palmtree.math.core.uint\pmc_divrem.c
; File z:\sources\lunor\repos\rougemeilland\palmtree.math.core.uint\palmtree.math.core.uint\pmc_uint_internal.h
; File z:\sources\lunor\repos\rougemeilland\palmtree.math.core.uint\palmtree.math.core.uint\pmc_divrem.c
; File z:\sources\lunor\repos\rougemeilland\palmtree.math.core.uint\palmtree.math.core.uint\pmc_inline_func.h
; File z:\sources\lunor\repos\rougemeilland\palmtree.math.core.uint\palmtree.math.core.uint\pmc_divrem.c
; File z:\sources\lunor\repos\rougemeilland\palmtree.math.core.uint\palmtree.math.core.uint\pmc_inline_func.h
; File z:\sources\lunor\repos\rougemeilland\palmtree.math.core.uint\palmtree.math.core.uint\pmc_divrem.c
; File z:\sources\lunor\repos\rougemeilland\palmtree.math.core.uint\palmtree.math.core.uint\pmc_uint_internal.h
; File z:\sources\lunor\repos\rougemeilland\palmtree.math.core.uint\palmtree.math.core.uint\pmc_inline_func.h
; File z:\sources\lunor\repos\rougemeilland\palmtree.math.core.uint\palmtree.math.core.uint\pmc_divrem.c
; File z:\sources\lunor\repos\rougemeilland\palmtree.math.core.uint\palmtree.math.core.uint\pmc_inline_func.h
; File z:\sources\lunor\repos\rougemeilland\palmtree.math.core.uint\palmtree.math.core.uint\pmc_divrem.c
; File z:\sources\lunor\repos\rougemeilland\palmtree.math.core.uint\palmtree.math.core.uint\pmc_inline_func.h
; File z:\sources\lunor\repos\rougemeilland\palmtree.math.core.uint\palmtree.math.core.uint\pmc_uint_internal.h
; File z:\sources\lunor\repos\rougemeilland\palmtree.math.core.uint\palmtree.math.core.uint\pmc_inline_func.h
; File z:\sources\lunor\repos\rougemeilland\palmtree.math.core.uint\palmtree.math.core.uint\pmc_divrem.c
; File z:\sources\lunor\repos\rougemeilland\palmtree.math.core.uint\palmtree.math.core.uint\pmc_uint_internal.h
; File z:\sources\lunor\repos\rougemeilland\palmtree.math.core.uint\palmtree.math.core.uint\pmc_divrem.c
; File z:\sources\lunor\repos\rougemeilland\palmtree.math.core.uint\palmtree.math.core.uint\pmc_inline_func.h
; File z:\sources\lunor\repos\rougemeilland\palmtree.math.core.uint\palmtree.math.core.uint\pmc_divrem.c
; File z:\sources\lunor\repos\rougemeilland\palmtree.math.core.uint\palmtree.math.core.uint\pmc_inline_func.h
; File z:\sources\lunor\repos\rougemeilland\palmtree.math.core.uint\palmtree.math.core.uint\pmc_divrem.c
; File z:\sources\lunor\repos\rougemeilland\palmtree.math.core.uint\palmtree.math.core.uint\pmc_uint_internal.h
; File z:\sources\lunor\repos\rougemeilland\palmtree.math.core.uint\palmtree.math.core.uint\pmc_divrem.c
; File z:\sources\lunor\repos\rougemeilland\palmtree.math.core.uint\palmtree.math.core.uint\pmc_inline_func.h
; File z:\sources\lunor\repos\rougemeilland\palmtree.math.core.uint\palmtree.math.core.uint\pmc_divrem.c
; File z:\sources\lunor\repos\rougemeilland\palmtree.math.core.uint\palmtree.math.core.uint\pmc_inline_func.h
; File z:\sources\lunor\repos\rougemeilland\palmtree.math.core.uint\palmtree.math.core.uint\pmc_divrem.c
; File z:\sources\lunor\repos\rougemeilland\palmtree.math.core.uint\palmtree.math.core.uint\pmc_inline_func.h
; File z:\sources\lunor\repos\rougemeilland\palmtree.math.core.uint\palmtree.math.core.uint\pmc_divrem.c
;	COMDAT _SubtructOneLine
_TEXT	SEGMENT
_count$1$ = -4						; size = 4
_u_buf$ = 8						; size = 4
_u_buf_len$ = 12					; size = 4
_v_buf$ = 16						; size = 4
_v_buf_len$ = 20					; size = 4
_t_hi$2$ = 24						; size = 4
_t_hi$2$ = 24						; size = 4
_t_hi$2$ = 24						; size = 4
_t_hi$2$ = 24						; size = 4
_t_hi$2$ = 24						; size = 4
_t_hi$2$ = 24						; size = 4
_t_hi$2$ = 24						; size = 4
_t_hi$2$ = 24						; size = 4
_t_hi$2$ = 24						; size = 4
_t_hi$2$ = 24						; size = 4
_t_hi$2$ = 24						; size = 4
_t_hi$2$ = 24						; size = 4
_t_hi$2$ = 24						; size = 4
_t_hi$2$ = 24						; size = 4
_t_hi$2$ = 24						; size = 4
_t_hi$2$ = 24						; size = 4
_t_hi$2$ = 24						; size = 4
_t_hi$2$ = 24						; size = 4
_t_hi$2$ = 24						; size = 4
_t_hi$2$ = 24						; size = 4
_t_hi$2$ = 24						; size = 4
_t_hi$2$ = 24						; size = 4
_t_hi$2$ = 24						; size = 4
_t_hi$2$ = 24						; size = 4
_t_hi$2$ = 24						; size = 4
_t_hi$2$ = 24						; size = 4
_t_hi$2$ = 24						; size = 4
_t_hi$2$ = 24						; size = 4
_k$1$ = 24						; size = 4
_t_lo$1 = 24						; size = 4
_t_lo$2 = 24						; size = 4
_t_lo$3 = 24						; size = 4
_t_lo$4 = 24						; size = 4
_t_lo$5 = 24						; size = 4
_t_lo$6 = 24						; size = 4
_t_lo$7 = 24						; size = 4
_t_lo$8 = 24						; size = 4
_t_lo$9 = 24						; size = 4
_t_lo$10 = 24						; size = 4
_t_lo$11 = 24						; size = 4
_t_lo$12 = 24						; size = 4
_q_index$ = 24						; size = 4
_q_$ = 28						; size = 4
_SubtructOneLine PROC					; COMDAT

; 453  : {

	push	ebp
	mov	ebp, esp
	sub	esp, 8

; 454  :     __UNIT_TYPE_DIV* u_ptr = &u_buf[q_index];

	mov	eax, DWORD PTR _q_index$[ebp]
	mov	ecx, DWORD PTR _u_buf$[ebp]
	push	ebx
	push	esi

; 455  :     __UNIT_TYPE_DIV* v_ptr = &v_buf[0];
; 456  :     __UNIT_TYPE v_count = v_buf_len;
; 457  :     __UNIT_TYPE_DIV k = 0;
; 458  :     char c = 0;

	xor	bl, bl
	mov	DWORD PTR _k$1$[ebp], 0
	lea	ecx, DWORD PTR [ecx+eax*4]

; 459  : 
; 460  :     __UNIT_TYPE count = v_count >> 5;

	mov	eax, DWORD PTR _v_buf_len$[ebp]
	mov	edx, eax
	shr	edx, 5
	push	edi

; 461  :     while (count != 0)

	mov	edi, DWORD PTR _v_buf$[ebp]
	test	edx, edx
	mov	DWORD PTR _count$1$[ebp], edx
	mov	edx, DWORD PTR _q_$[ebp]
	je	$LN3@SubtructOn
$LL2@SubtructOn:
; File z:\sources\lunor\repos\rougemeilland\palmtree.math.core.uint\palmtree.math.core.uint\pmc_inline_func.h

; 318  :         return (_FROMDWORDTOWORD((_UINT64_T)u * v, w_hi));

	mov	eax, DWORD PTR [edi]
	mul	edx
	mov	esi, eax
	mov	edi, edx

; 226  :         return (_addcarry_u32(carry, u, v, w));

	add	esi, DWORD PTR _k$1$[ebp]
; File z:\sources\lunor\repos\rougemeilland\palmtree.math.core.uint\palmtree.math.core.uint\pmc_divrem.c

; 436  :     c = _SUBTRUCT_UNIT_DIV(c, *up, t_lo, up);

	mov	eax, DWORD PTR [ecx]
; File z:\sources\lunor\repos\rougemeilland\palmtree.math.core.uint\palmtree.math.core.uint\pmc_inline_func.h

; 226  :         return (_addcarry_u32(carry, u, v, w));

	adc	edi, 0

; 282  :         return (_subborrow_u32(borrow, u, v, w));

	add	bl, 255					; 000000ffH
	sbb	eax, esi
	mov	DWORD PTR [ecx], eax

; 318  :         return (_FROMDWORDTOWORD((_UINT64_T)u * v, w_hi));

	mov	eax, DWORD PTR _v_buf$[ebp]

; 282  :         return (_subborrow_u32(borrow, u, v, w));

	setb	bl

; 318  :         return (_FROMDWORDTOWORD((_UINT64_T)u * v, w_hi));

	mov	eax, DWORD PTR [eax+4]
	mul	DWORD PTR _q_$[ebp]
	mov	esi, eax
	mov	eax, edx
; File z:\sources\lunor\repos\rougemeilland\palmtree.math.core.uint\palmtree.math.core.uint\pmc_divrem.c

; 434  :     t_lo = _MULTIPLY_UNIT_DIV(*vp, q_, &t_hi);

	mov	DWORD PTR _t_lo$12[ebp], esi
; File z:\sources\lunor\repos\rougemeilland\palmtree.math.core.uint\palmtree.math.core.uint\pmc_inline_func.h

; 226  :         return (_addcarry_u32(carry, u, v, w));

	add	esi, edi
	adc	eax, 0

; 282  :         return (_subborrow_u32(borrow, u, v, w));

	add	bl, 255					; 000000ffH

; 226  :         return (_addcarry_u32(carry, u, v, w));

	mov	DWORD PTR _t_hi$2$[ebp], eax
; File z:\sources\lunor\repos\rougemeilland\palmtree.math.core.uint\palmtree.math.core.uint\pmc_divrem.c

; 436  :     c = _SUBTRUCT_UNIT_DIV(c, *up, t_lo, up);

	mov	eax, DWORD PTR [ecx+4]
; File z:\sources\lunor\repos\rougemeilland\palmtree.math.core.uint\palmtree.math.core.uint\pmc_inline_func.h

; 282  :         return (_subborrow_u32(borrow, u, v, w));

	sbb	eax, esi
	mov	DWORD PTR [ecx+4], eax

; 318  :         return (_FROMDWORDTOWORD((_UINT64_T)u * v, w_hi));

	mov	eax, DWORD PTR _v_buf$[ebp]

; 282  :         return (_subborrow_u32(borrow, u, v, w));

	setb	bl

; 318  :         return (_FROMDWORDTOWORD((_UINT64_T)u * v, w_hi));

	mov	eax, DWORD PTR [eax+8]
	mul	DWORD PTR _q_$[ebp]
	mov	esi, eax
	mov	edi, edx

; 226  :         return (_addcarry_u32(carry, u, v, w));

	add	esi, DWORD PTR _t_hi$2$[ebp]
; File z:\sources\lunor\repos\rougemeilland\palmtree.math.core.uint\palmtree.math.core.uint\pmc_divrem.c

; 436  :     c = _SUBTRUCT_UNIT_DIV(c, *up, t_lo, up);

	mov	eax, DWORD PTR [ecx+8]
; File z:\sources\lunor\repos\rougemeilland\palmtree.math.core.uint\palmtree.math.core.uint\pmc_inline_func.h

; 226  :         return (_addcarry_u32(carry, u, v, w));

	adc	edi, 0

; 282  :         return (_subborrow_u32(borrow, u, v, w));

	add	bl, 255					; 000000ffH
	sbb	eax, esi
	mov	DWORD PTR [ecx+8], eax

; 318  :         return (_FROMDWORDTOWORD((_UINT64_T)u * v, w_hi));

	mov	eax, DWORD PTR _v_buf$[ebp]

; 282  :         return (_subborrow_u32(borrow, u, v, w));

	setb	bl

; 318  :         return (_FROMDWORDTOWORD((_UINT64_T)u * v, w_hi));

	mov	eax, DWORD PTR [eax+12]
	mul	DWORD PTR _q_$[ebp]
	mov	esi, eax
	mov	eax, edx
; File z:\sources\lunor\repos\rougemeilland\palmtree.math.core.uint\palmtree.math.core.uint\pmc_divrem.c

; 434  :     t_lo = _MULTIPLY_UNIT_DIV(*vp, q_, &t_hi);

	mov	DWORD PTR _t_lo$11[ebp], esi
; File z:\sources\lunor\repos\rougemeilland\palmtree.math.core.uint\palmtree.math.core.uint\pmc_inline_func.h

; 226  :         return (_addcarry_u32(carry, u, v, w));

	add	esi, edi
	adc	eax, 0

; 282  :         return (_subborrow_u32(borrow, u, v, w));

	add	bl, 255					; 000000ffH

; 226  :         return (_addcarry_u32(carry, u, v, w));

	mov	DWORD PTR _t_hi$2$[ebp], eax
; File z:\sources\lunor\repos\rougemeilland\palmtree.math.core.uint\palmtree.math.core.uint\pmc_divrem.c

; 436  :     c = _SUBTRUCT_UNIT_DIV(c, *up, t_lo, up);

	mov	eax, DWORD PTR [ecx+12]
; File z:\sources\lunor\repos\rougemeilland\palmtree.math.core.uint\palmtree.math.core.uint\pmc_inline_func.h

; 282  :         return (_subborrow_u32(borrow, u, v, w));

	sbb	eax, esi
	mov	DWORD PTR [ecx+12], eax

; 318  :         return (_FROMDWORDTOWORD((_UINT64_T)u * v, w_hi));

	mov	eax, DWORD PTR _v_buf$[ebp]

; 282  :         return (_subborrow_u32(borrow, u, v, w));

	setb	bl

; 318  :         return (_FROMDWORDTOWORD((_UINT64_T)u * v, w_hi));

	mov	eax, DWORD PTR [eax+16]
	mul	DWORD PTR _q_$[ebp]
	mov	esi, eax
	mov	edi, edx

; 226  :         return (_addcarry_u32(carry, u, v, w));

	add	esi, DWORD PTR _t_hi$2$[ebp]
; File z:\sources\lunor\repos\rougemeilland\palmtree.math.core.uint\palmtree.math.core.uint\pmc_divrem.c

; 436  :     c = _SUBTRUCT_UNIT_DIV(c, *up, t_lo, up);

	mov	eax, DWORD PTR [ecx+16]
; File z:\sources\lunor\repos\rougemeilland\palmtree.math.core.uint\palmtree.math.core.uint\pmc_inline_func.h

; 226  :         return (_addcarry_u32(carry, u, v, w));

	adc	edi, 0

; 282  :         return (_subborrow_u32(borrow, u, v, w));

	add	bl, 255					; 000000ffH
	sbb	eax, esi
	mov	DWORD PTR [ecx+16], eax

; 318  :         return (_FROMDWORDTOWORD((_UINT64_T)u * v, w_hi));

	mov	eax, DWORD PTR _v_buf$[ebp]

; 282  :         return (_subborrow_u32(borrow, u, v, w));

	setb	bl

; 318  :         return (_FROMDWORDTOWORD((_UINT64_T)u * v, w_hi));

	mov	eax, DWORD PTR [eax+20]
	mul	DWORD PTR _q_$[ebp]
	mov	esi, eax
	mov	eax, edx
; File z:\sources\lunor\repos\rougemeilland\palmtree.math.core.uint\palmtree.math.core.uint\pmc_divrem.c

; 434  :     t_lo = _MULTIPLY_UNIT_DIV(*vp, q_, &t_hi);

	mov	DWORD PTR _t_lo$10[ebp], esi
; File z:\sources\lunor\repos\rougemeilland\palmtree.math.core.uint\palmtree.math.core.uint\pmc_inline_func.h

; 226  :         return (_addcarry_u32(carry, u, v, w));

	add	esi, edi

; 318  :         return (_FROMDWORDTOWORD((_UINT64_T)u * v, w_hi));

	mov	edi, DWORD PTR _v_buf$[ebp]

; 226  :         return (_addcarry_u32(carry, u, v, w));

	adc	eax, 0

; 282  :         return (_subborrow_u32(borrow, u, v, w));

	add	bl, 255					; 000000ffH

; 226  :         return (_addcarry_u32(carry, u, v, w));

	mov	DWORD PTR _t_hi$2$[ebp], eax
; File z:\sources\lunor\repos\rougemeilland\palmtree.math.core.uint\palmtree.math.core.uint\pmc_divrem.c

; 436  :     c = _SUBTRUCT_UNIT_DIV(c, *up, t_lo, up);

	mov	eax, DWORD PTR [ecx+20]
; File z:\sources\lunor\repos\rougemeilland\palmtree.math.core.uint\palmtree.math.core.uint\pmc_inline_func.h

; 282  :         return (_subborrow_u32(borrow, u, v, w));

	sbb	eax, esi
	mov	DWORD PTR [ecx+20], eax

; 318  :         return (_FROMDWORDTOWORD((_UINT64_T)u * v, w_hi));

	mov	eax, DWORD PTR [edi+24]

; 282  :         return (_subborrow_u32(borrow, u, v, w));

	setb	bl

; 318  :         return (_FROMDWORDTOWORD((_UINT64_T)u * v, w_hi));

	mul	DWORD PTR _q_$[ebp]
	mov	esi, eax

; 226  :         return (_addcarry_u32(carry, u, v, w));

	add	esi, DWORD PTR _t_hi$2$[ebp]

; 318  :         return (_FROMDWORDTOWORD((_UINT64_T)u * v, w_hi));

	mov	eax, edx

; 226  :         return (_addcarry_u32(carry, u, v, w));

	adc	eax, 0

; 282  :         return (_subborrow_u32(borrow, u, v, w));

	add	bl, 255					; 000000ffH

; 226  :         return (_addcarry_u32(carry, u, v, w));

	mov	DWORD PTR _t_hi$2$[ebp], eax
; File z:\sources\lunor\repos\rougemeilland\palmtree.math.core.uint\palmtree.math.core.uint\pmc_divrem.c

; 436  :     c = _SUBTRUCT_UNIT_DIV(c, *up, t_lo, up);

	mov	eax, DWORD PTR [ecx+24]
; File z:\sources\lunor\repos\rougemeilland\palmtree.math.core.uint\palmtree.math.core.uint\pmc_inline_func.h

; 282  :         return (_subborrow_u32(borrow, u, v, w));

	sbb	eax, esi
	mov	DWORD PTR [ecx+24], eax

; 318  :         return (_FROMDWORDTOWORD((_UINT64_T)u * v, w_hi));

	mov	eax, DWORD PTR [edi+28]

; 282  :         return (_subborrow_u32(borrow, u, v, w));

	setb	bl

; 318  :         return (_FROMDWORDTOWORD((_UINT64_T)u * v, w_hi));

	mul	DWORD PTR _q_$[ebp]
	mov	esi, eax
	mov	edi, edx

; 226  :         return (_addcarry_u32(carry, u, v, w));

	add	esi, DWORD PTR _t_hi$2$[ebp]
; File z:\sources\lunor\repos\rougemeilland\palmtree.math.core.uint\palmtree.math.core.uint\pmc_divrem.c

; 436  :     c = _SUBTRUCT_UNIT_DIV(c, *up, t_lo, up);

	mov	eax, DWORD PTR [ecx+28]
; File z:\sources\lunor\repos\rougemeilland\palmtree.math.core.uint\palmtree.math.core.uint\pmc_inline_func.h

; 226  :         return (_addcarry_u32(carry, u, v, w));

	adc	edi, 0

; 282  :         return (_subborrow_u32(borrow, u, v, w));

	add	bl, 255					; 000000ffH
	sbb	eax, esi
	mov	DWORD PTR [ecx+28], eax

; 318  :         return (_FROMDWORDTOWORD((_UINT64_T)u * v, w_hi));

	mov	eax, DWORD PTR _v_buf$[ebp]

; 282  :         return (_subborrow_u32(borrow, u, v, w));

	setb	bl

; 318  :         return (_FROMDWORDTOWORD((_UINT64_T)u * v, w_hi));

	mov	eax, DWORD PTR [eax+32]
	mul	DWORD PTR _q_$[ebp]
	mov	esi, eax
	mov	eax, edx

; 226  :         return (_addcarry_u32(carry, u, v, w));

	add	esi, edi
	adc	eax, 0

; 282  :         return (_subborrow_u32(borrow, u, v, w));

	add	bl, 255					; 000000ffH

; 226  :         return (_addcarry_u32(carry, u, v, w));

	mov	DWORD PTR _t_hi$2$[ebp], eax
; File z:\sources\lunor\repos\rougemeilland\palmtree.math.core.uint\palmtree.math.core.uint\pmc_divrem.c

; 436  :     c = _SUBTRUCT_UNIT_DIV(c, *up, t_lo, up);

	mov	eax, DWORD PTR [ecx+32]
; File z:\sources\lunor\repos\rougemeilland\palmtree.math.core.uint\palmtree.math.core.uint\pmc_inline_func.h

; 282  :         return (_subborrow_u32(borrow, u, v, w));

	sbb	eax, esi
	mov	DWORD PTR [ecx+32], eax

; 318  :         return (_FROMDWORDTOWORD((_UINT64_T)u * v, w_hi));

	mov	eax, DWORD PTR _v_buf$[ebp]

; 282  :         return (_subborrow_u32(borrow, u, v, w));

	setb	bl

; 318  :         return (_FROMDWORDTOWORD((_UINT64_T)u * v, w_hi));

	mov	eax, DWORD PTR [eax+36]
	mul	DWORD PTR _q_$[ebp]
	mov	esi, eax
	mov	edi, edx

; 226  :         return (_addcarry_u32(carry, u, v, w));

	add	esi, DWORD PTR _t_hi$2$[ebp]
; File z:\sources\lunor\repos\rougemeilland\palmtree.math.core.uint\palmtree.math.core.uint\pmc_divrem.c

; 436  :     c = _SUBTRUCT_UNIT_DIV(c, *up, t_lo, up);

	mov	eax, DWORD PTR [ecx+36]
; File z:\sources\lunor\repos\rougemeilland\palmtree.math.core.uint\palmtree.math.core.uint\pmc_inline_func.h

; 226  :         return (_addcarry_u32(carry, u, v, w));

	adc	edi, 0

; 282  :         return (_subborrow_u32(borrow, u, v, w));

	add	bl, 255					; 000000ffH
	sbb	eax, esi
	mov	DWORD PTR [ecx+36], eax

; 318  :         return (_FROMDWORDTOWORD((_UINT64_T)u * v, w_hi));

	mov	eax, DWORD PTR _v_buf$[ebp]

; 282  :         return (_subborrow_u32(borrow, u, v, w));

	setb	bl

; 318  :         return (_FROMDWORDTOWORD((_UINT64_T)u * v, w_hi));

	mov	eax, DWORD PTR [eax+40]
	mul	DWORD PTR _q_$[ebp]
	mov	esi, eax
	mov	eax, edx

; 226  :         return (_addcarry_u32(carry, u, v, w));

	add	esi, edi
	adc	eax, 0

; 282  :         return (_subborrow_u32(borrow, u, v, w));

	add	bl, 255					; 000000ffH

; 226  :         return (_addcarry_u32(carry, u, v, w));

	mov	DWORD PTR _t_hi$2$[ebp], eax
; File z:\sources\lunor\repos\rougemeilland\palmtree.math.core.uint\palmtree.math.core.uint\pmc_divrem.c

; 436  :     c = _SUBTRUCT_UNIT_DIV(c, *up, t_lo, up);

	mov	eax, DWORD PTR [ecx+40]
; File z:\sources\lunor\repos\rougemeilland\palmtree.math.core.uint\palmtree.math.core.uint\pmc_inline_func.h

; 282  :         return (_subborrow_u32(borrow, u, v, w));

	sbb	eax, esi
	mov	DWORD PTR [ecx+40], eax

; 318  :         return (_FROMDWORDTOWORD((_UINT64_T)u * v, w_hi));

	mov	eax, DWORD PTR _v_buf$[ebp]

; 282  :         return (_subborrow_u32(borrow, u, v, w));

	setb	bl

; 318  :         return (_FROMDWORDTOWORD((_UINT64_T)u * v, w_hi));

	mov	eax, DWORD PTR [eax+44]
	mul	DWORD PTR _q_$[ebp]
	mov	esi, eax
	mov	edi, edx

; 226  :         return (_addcarry_u32(carry, u, v, w));

	add	esi, DWORD PTR _t_hi$2$[ebp]
; File z:\sources\lunor\repos\rougemeilland\palmtree.math.core.uint\palmtree.math.core.uint\pmc_divrem.c

; 436  :     c = _SUBTRUCT_UNIT_DIV(c, *up, t_lo, up);

	mov	eax, DWORD PTR [ecx+44]
; File z:\sources\lunor\repos\rougemeilland\palmtree.math.core.uint\palmtree.math.core.uint\pmc_inline_func.h

; 226  :         return (_addcarry_u32(carry, u, v, w));

	adc	edi, 0

; 282  :         return (_subborrow_u32(borrow, u, v, w));

	add	bl, 255					; 000000ffH
	sbb	eax, esi
	mov	DWORD PTR [ecx+44], eax

; 318  :         return (_FROMDWORDTOWORD((_UINT64_T)u * v, w_hi));

	mov	eax, DWORD PTR _v_buf$[ebp]

; 282  :         return (_subborrow_u32(borrow, u, v, w));

	setb	bl

; 318  :         return (_FROMDWORDTOWORD((_UINT64_T)u * v, w_hi));

	mov	eax, DWORD PTR [eax+48]
	mul	DWORD PTR _q_$[ebp]
	mov	esi, eax
	mov	eax, edx

; 226  :         return (_addcarry_u32(carry, u, v, w));

	add	esi, edi
	adc	eax, 0

; 282  :         return (_subborrow_u32(borrow, u, v, w));

	add	bl, 255					; 000000ffH

; 226  :         return (_addcarry_u32(carry, u, v, w));

	mov	DWORD PTR _t_hi$2$[ebp], eax
; File z:\sources\lunor\repos\rougemeilland\palmtree.math.core.uint\palmtree.math.core.uint\pmc_divrem.c

; 436  :     c = _SUBTRUCT_UNIT_DIV(c, *up, t_lo, up);

	mov	eax, DWORD PTR [ecx+48]
; File z:\sources\lunor\repos\rougemeilland\palmtree.math.core.uint\palmtree.math.core.uint\pmc_inline_func.h

; 282  :         return (_subborrow_u32(borrow, u, v, w));

	sbb	eax, esi
	mov	DWORD PTR [ecx+48], eax
	setb	bl

; 318  :         return (_FROMDWORDTOWORD((_UINT64_T)u * v, w_hi));

	mov	eax, DWORD PTR _v_buf$[ebp]
	mov	eax, DWORD PTR [eax+52]
	mul	DWORD PTR _q_$[ebp]
	mov	esi, eax
	mov	edi, edx

; 226  :         return (_addcarry_u32(carry, u, v, w));

	add	esi, DWORD PTR _t_hi$2$[ebp]
; File z:\sources\lunor\repos\rougemeilland\palmtree.math.core.uint\palmtree.math.core.uint\pmc_divrem.c

; 436  :     c = _SUBTRUCT_UNIT_DIV(c, *up, t_lo, up);

	mov	eax, DWORD PTR [ecx+52]
; File z:\sources\lunor\repos\rougemeilland\palmtree.math.core.uint\palmtree.math.core.uint\pmc_inline_func.h

; 226  :         return (_addcarry_u32(carry, u, v, w));

	adc	edi, 0

; 282  :         return (_subborrow_u32(borrow, u, v, w));

	add	bl, 255					; 000000ffH
	sbb	eax, esi
	mov	DWORD PTR [ecx+52], eax

; 318  :         return (_FROMDWORDTOWORD((_UINT64_T)u * v, w_hi));

	mov	eax, DWORD PTR _v_buf$[ebp]

; 282  :         return (_subborrow_u32(borrow, u, v, w));

	setb	bl

; 318  :         return (_FROMDWORDTOWORD((_UINT64_T)u * v, w_hi));

	mov	eax, DWORD PTR [eax+56]
	mul	DWORD PTR _q_$[ebp]
	mov	esi, eax
	mov	eax, edx

; 226  :         return (_addcarry_u32(carry, u, v, w));

	add	esi, edi
	adc	eax, 0

; 282  :         return (_subborrow_u32(borrow, u, v, w));

	add	bl, 255					; 000000ffH

; 226  :         return (_addcarry_u32(carry, u, v, w));

	mov	DWORD PTR _t_hi$2$[ebp], eax
; File z:\sources\lunor\repos\rougemeilland\palmtree.math.core.uint\palmtree.math.core.uint\pmc_divrem.c

; 436  :     c = _SUBTRUCT_UNIT_DIV(c, *up, t_lo, up);

	mov	eax, DWORD PTR [ecx+56]
; File z:\sources\lunor\repos\rougemeilland\palmtree.math.core.uint\palmtree.math.core.uint\pmc_inline_func.h

; 282  :         return (_subborrow_u32(borrow, u, v, w));

	sbb	eax, esi
	mov	DWORD PTR [ecx+56], eax

; 318  :         return (_FROMDWORDTOWORD((_UINT64_T)u * v, w_hi));

	mov	eax, DWORD PTR _v_buf$[ebp]

; 282  :         return (_subborrow_u32(borrow, u, v, w));

	setb	bl

; 318  :         return (_FROMDWORDTOWORD((_UINT64_T)u * v, w_hi));

	mov	eax, DWORD PTR [eax+60]
	mul	DWORD PTR _q_$[ebp]
	mov	esi, eax
	mov	edi, edx

; 226  :         return (_addcarry_u32(carry, u, v, w));

	add	esi, DWORD PTR _t_hi$2$[ebp]
; File z:\sources\lunor\repos\rougemeilland\palmtree.math.core.uint\palmtree.math.core.uint\pmc_divrem.c

; 436  :     c = _SUBTRUCT_UNIT_DIV(c, *up, t_lo, up);

	mov	eax, DWORD PTR [ecx+60]
; File z:\sources\lunor\repos\rougemeilland\palmtree.math.core.uint\palmtree.math.core.uint\pmc_inline_func.h

; 226  :         return (_addcarry_u32(carry, u, v, w));

	adc	edi, 0

; 282  :         return (_subborrow_u32(borrow, u, v, w));

	add	bl, 255					; 000000ffH
	sbb	eax, esi
	mov	DWORD PTR [ecx+60], eax

; 318  :         return (_FROMDWORDTOWORD((_UINT64_T)u * v, w_hi));

	mov	eax, DWORD PTR _v_buf$[ebp]

; 282  :         return (_subborrow_u32(borrow, u, v, w));

	setb	bl

; 318  :         return (_FROMDWORDTOWORD((_UINT64_T)u * v, w_hi));

	mov	eax, DWORD PTR [eax+64]
	mul	DWORD PTR _q_$[ebp]
	mov	esi, eax
	mov	eax, edx

; 226  :         return (_addcarry_u32(carry, u, v, w));

	add	esi, edi
	adc	eax, 0

; 282  :         return (_subborrow_u32(borrow, u, v, w));

	add	bl, 255					; 000000ffH

; 226  :         return (_addcarry_u32(carry, u, v, w));

	mov	DWORD PTR _t_hi$2$[ebp], eax
; File z:\sources\lunor\repos\rougemeilland\palmtree.math.core.uint\palmtree.math.core.uint\pmc_divrem.c

; 436  :     c = _SUBTRUCT_UNIT_DIV(c, *up, t_lo, up);

	mov	eax, DWORD PTR [ecx+64]
; File z:\sources\lunor\repos\rougemeilland\palmtree.math.core.uint\palmtree.math.core.uint\pmc_inline_func.h

; 282  :         return (_subborrow_u32(borrow, u, v, w));

	sbb	eax, esi
	mov	DWORD PTR [ecx+64], eax

; 318  :         return (_FROMDWORDTOWORD((_UINT64_T)u * v, w_hi));

	mov	eax, DWORD PTR _v_buf$[ebp]

; 282  :         return (_subborrow_u32(borrow, u, v, w));

	setb	bl

; 318  :         return (_FROMDWORDTOWORD((_UINT64_T)u * v, w_hi));

	mov	eax, DWORD PTR [eax+68]
	mul	DWORD PTR _q_$[ebp]
	mov	esi, eax
	mov	edi, edx

; 226  :         return (_addcarry_u32(carry, u, v, w));

	add	esi, DWORD PTR _t_hi$2$[ebp]
; File z:\sources\lunor\repos\rougemeilland\palmtree.math.core.uint\palmtree.math.core.uint\pmc_divrem.c

; 436  :     c = _SUBTRUCT_UNIT_DIV(c, *up, t_lo, up);

	mov	eax, DWORD PTR [ecx+68]
; File z:\sources\lunor\repos\rougemeilland\palmtree.math.core.uint\palmtree.math.core.uint\pmc_inline_func.h

; 226  :         return (_addcarry_u32(carry, u, v, w));

	adc	edi, 0

; 282  :         return (_subborrow_u32(borrow, u, v, w));

	add	bl, 255					; 000000ffH
	sbb	eax, esi
	mov	DWORD PTR [ecx+68], eax

; 318  :         return (_FROMDWORDTOWORD((_UINT64_T)u * v, w_hi));

	mov	eax, DWORD PTR _v_buf$[ebp]

; 282  :         return (_subborrow_u32(borrow, u, v, w));

	setb	bl

; 318  :         return (_FROMDWORDTOWORD((_UINT64_T)u * v, w_hi));

	mov	eax, DWORD PTR [eax+72]
	mul	DWORD PTR _q_$[ebp]
	mov	esi, eax
	mov	eax, edx

; 226  :         return (_addcarry_u32(carry, u, v, w));

	add	esi, edi
	adc	eax, 0

; 282  :         return (_subborrow_u32(borrow, u, v, w));

	add	bl, 255					; 000000ffH

; 226  :         return (_addcarry_u32(carry, u, v, w));

	mov	DWORD PTR _t_hi$2$[ebp], eax
; File z:\sources\lunor\repos\rougemeilland\palmtree.math.core.uint\palmtree.math.core.uint\pmc_divrem.c

; 436  :     c = _SUBTRUCT_UNIT_DIV(c, *up, t_lo, up);

	mov	eax, DWORD PTR [ecx+72]
; File z:\sources\lunor\repos\rougemeilland\palmtree.math.core.uint\palmtree.math.core.uint\pmc_inline_func.h

; 282  :         return (_subborrow_u32(borrow, u, v, w));

	sbb	eax, esi
	mov	DWORD PTR [ecx+72], eax

; 318  :         return (_FROMDWORDTOWORD((_UINT64_T)u * v, w_hi));

	mov	eax, DWORD PTR _v_buf$[ebp]

; 282  :         return (_subborrow_u32(borrow, u, v, w));

	setb	bl

; 318  :         return (_FROMDWORDTOWORD((_UINT64_T)u * v, w_hi));

	mov	eax, DWORD PTR [eax+76]
	mul	DWORD PTR _q_$[ebp]
	mov	esi, eax

; 226  :         return (_addcarry_u32(carry, u, v, w));

	add	esi, DWORD PTR _t_hi$2$[ebp]

; 318  :         return (_FROMDWORDTOWORD((_UINT64_T)u * v, w_hi));

	mov	edi, edx
; File z:\sources\lunor\repos\rougemeilland\palmtree.math.core.uint\palmtree.math.core.uint\pmc_divrem.c

; 436  :     c = _SUBTRUCT_UNIT_DIV(c, *up, t_lo, up);

	mov	eax, DWORD PTR [ecx+76]
; File z:\sources\lunor\repos\rougemeilland\palmtree.math.core.uint\palmtree.math.core.uint\pmc_inline_func.h

; 226  :         return (_addcarry_u32(carry, u, v, w));

	adc	edi, 0

; 282  :         return (_subborrow_u32(borrow, u, v, w));

	add	bl, 255					; 000000ffH
	sbb	eax, esi
	mov	DWORD PTR [ecx+76], eax

; 318  :         return (_FROMDWORDTOWORD((_UINT64_T)u * v, w_hi));

	mov	eax, DWORD PTR _v_buf$[ebp]

; 282  :         return (_subborrow_u32(borrow, u, v, w));

	setb	bl

; 318  :         return (_FROMDWORDTOWORD((_UINT64_T)u * v, w_hi));

	mov	eax, DWORD PTR [eax+80]
	mul	DWORD PTR _q_$[ebp]
	mov	esi, eax
	mov	eax, edx

; 226  :         return (_addcarry_u32(carry, u, v, w));

	add	esi, edi
	adc	eax, 0

; 282  :         return (_subborrow_u32(borrow, u, v, w));

	add	bl, 255					; 000000ffH

; 226  :         return (_addcarry_u32(carry, u, v, w));

	mov	DWORD PTR _t_hi$2$[ebp], eax
; File z:\sources\lunor\repos\rougemeilland\palmtree.math.core.uint\palmtree.math.core.uint\pmc_divrem.c

; 436  :     c = _SUBTRUCT_UNIT_DIV(c, *up, t_lo, up);

	mov	eax, DWORD PTR [ecx+80]
; File z:\sources\lunor\repos\rougemeilland\palmtree.math.core.uint\palmtree.math.core.uint\pmc_inline_func.h

; 282  :         return (_subborrow_u32(borrow, u, v, w));

	sbb	eax, esi
	mov	DWORD PTR [ecx+80], eax

; 318  :         return (_FROMDWORDTOWORD((_UINT64_T)u * v, w_hi));

	mov	eax, DWORD PTR _v_buf$[ebp]

; 282  :         return (_subborrow_u32(borrow, u, v, w));

	setb	bl

; 318  :         return (_FROMDWORDTOWORD((_UINT64_T)u * v, w_hi));

	mov	eax, DWORD PTR [eax+84]
	mul	DWORD PTR _q_$[ebp]
	mov	esi, eax
	mov	edi, edx

; 226  :         return (_addcarry_u32(carry, u, v, w));

	add	esi, DWORD PTR _t_hi$2$[ebp]
; File z:\sources\lunor\repos\rougemeilland\palmtree.math.core.uint\palmtree.math.core.uint\pmc_divrem.c

; 436  :     c = _SUBTRUCT_UNIT_DIV(c, *up, t_lo, up);

	mov	eax, DWORD PTR [ecx+84]
; File z:\sources\lunor\repos\rougemeilland\palmtree.math.core.uint\palmtree.math.core.uint\pmc_inline_func.h

; 226  :         return (_addcarry_u32(carry, u, v, w));

	adc	edi, 0

; 282  :         return (_subborrow_u32(borrow, u, v, w));

	add	bl, 255					; 000000ffH
	sbb	eax, esi
	mov	DWORD PTR [ecx+84], eax

; 318  :         return (_FROMDWORDTOWORD((_UINT64_T)u * v, w_hi));

	mov	eax, DWORD PTR _v_buf$[ebp]

; 282  :         return (_subborrow_u32(borrow, u, v, w));

	setb	bl

; 318  :         return (_FROMDWORDTOWORD((_UINT64_T)u * v, w_hi));

	mov	eax, DWORD PTR [eax+88]
	mul	DWORD PTR _q_$[ebp]
	mov	esi, eax
	mov	eax, edx

; 226  :         return (_addcarry_u32(carry, u, v, w));

	add	esi, edi
	adc	eax, 0

; 282  :         return (_subborrow_u32(borrow, u, v, w));

	add	bl, 255					; 000000ffH

; 226  :         return (_addcarry_u32(carry, u, v, w));

	mov	DWORD PTR _t_hi$2$[ebp], eax
; File z:\sources\lunor\repos\rougemeilland\palmtree.math.core.uint\palmtree.math.core.uint\pmc_divrem.c

; 436  :     c = _SUBTRUCT_UNIT_DIV(c, *up, t_lo, up);

	mov	eax, DWORD PTR [ecx+88]
; File z:\sources\lunor\repos\rougemeilland\palmtree.math.core.uint\palmtree.math.core.uint\pmc_inline_func.h

; 282  :         return (_subborrow_u32(borrow, u, v, w));

	sbb	eax, esi
	mov	DWORD PTR [ecx+88], eax

; 318  :         return (_FROMDWORDTOWORD((_UINT64_T)u * v, w_hi));

	mov	eax, DWORD PTR _v_buf$[ebp]

; 282  :         return (_subborrow_u32(borrow, u, v, w));

	setb	bl

; 318  :         return (_FROMDWORDTOWORD((_UINT64_T)u * v, w_hi));

	mov	eax, DWORD PTR [eax+92]
	mul	DWORD PTR _q_$[ebp]
	mov	esi, eax
	mov	edi, edx

; 226  :         return (_addcarry_u32(carry, u, v, w));

	add	esi, DWORD PTR _t_hi$2$[ebp]
; File z:\sources\lunor\repos\rougemeilland\palmtree.math.core.uint\palmtree.math.core.uint\pmc_divrem.c

; 436  :     c = _SUBTRUCT_UNIT_DIV(c, *up, t_lo, up);

	mov	eax, DWORD PTR [ecx+92]
; File z:\sources\lunor\repos\rougemeilland\palmtree.math.core.uint\palmtree.math.core.uint\pmc_inline_func.h

; 226  :         return (_addcarry_u32(carry, u, v, w));

	adc	edi, 0

; 282  :         return (_subborrow_u32(borrow, u, v, w));

	add	bl, 255					; 000000ffH
	sbb	eax, esi
	mov	DWORD PTR [ecx+92], eax

; 318  :         return (_FROMDWORDTOWORD((_UINT64_T)u * v, w_hi));

	mov	eax, DWORD PTR _v_buf$[ebp]

; 282  :         return (_subborrow_u32(borrow, u, v, w));

	setb	bl

; 318  :         return (_FROMDWORDTOWORD((_UINT64_T)u * v, w_hi));

	mov	eax, DWORD PTR [eax+96]
	mul	DWORD PTR _q_$[ebp]
	mov	esi, eax
	mov	eax, edx

; 226  :         return (_addcarry_u32(carry, u, v, w));

	add	esi, edi
	adc	eax, 0

; 282  :         return (_subborrow_u32(borrow, u, v, w));

	add	bl, 255					; 000000ffH

; 226  :         return (_addcarry_u32(carry, u, v, w));

	mov	DWORD PTR _t_hi$2$[ebp], eax
; File z:\sources\lunor\repos\rougemeilland\palmtree.math.core.uint\palmtree.math.core.uint\pmc_divrem.c

; 436  :     c = _SUBTRUCT_UNIT_DIV(c, *up, t_lo, up);

	mov	eax, DWORD PTR [ecx+96]
; File z:\sources\lunor\repos\rougemeilland\palmtree.math.core.uint\palmtree.math.core.uint\pmc_inline_func.h

; 282  :         return (_subborrow_u32(borrow, u, v, w));

	sbb	eax, esi
	mov	DWORD PTR [ecx+96], eax

; 318  :         return (_FROMDWORDTOWORD((_UINT64_T)u * v, w_hi));

	mov	eax, DWORD PTR _v_buf$[ebp]

; 282  :         return (_subborrow_u32(borrow, u, v, w));

	setb	bl

; 318  :         return (_FROMDWORDTOWORD((_UINT64_T)u * v, w_hi));

	mov	eax, DWORD PTR [eax+100]
	mul	DWORD PTR _q_$[ebp]
	mov	esi, eax
	mov	edi, edx

; 226  :         return (_addcarry_u32(carry, u, v, w));

	add	esi, DWORD PTR _t_hi$2$[ebp]
; File z:\sources\lunor\repos\rougemeilland\palmtree.math.core.uint\palmtree.math.core.uint\pmc_divrem.c

; 436  :     c = _SUBTRUCT_UNIT_DIV(c, *up, t_lo, up);

	mov	eax, DWORD PTR [ecx+100]
; File z:\sources\lunor\repos\rougemeilland\palmtree.math.core.uint\palmtree.math.core.uint\pmc_inline_func.h

; 226  :         return (_addcarry_u32(carry, u, v, w));

	adc	edi, 0

; 282  :         return (_subborrow_u32(borrow, u, v, w));

	add	bl, 255					; 000000ffH
	sbb	eax, esi
	mov	DWORD PTR [ecx+100], eax
	setb	bl

; 318  :         return (_FROMDWORDTOWORD((_UINT64_T)u * v, w_hi));

	mov	eax, DWORD PTR _v_buf$[ebp]
	mov	eax, DWORD PTR [eax+104]
	mul	DWORD PTR _q_$[ebp]
	mov	esi, eax
	mov	eax, edx

; 226  :         return (_addcarry_u32(carry, u, v, w));

	add	esi, edi
	adc	eax, 0

; 282  :         return (_subborrow_u32(borrow, u, v, w));

	add	bl, 255					; 000000ffH

; 226  :         return (_addcarry_u32(carry, u, v, w));

	mov	DWORD PTR _t_hi$2$[ebp], eax
; File z:\sources\lunor\repos\rougemeilland\palmtree.math.core.uint\palmtree.math.core.uint\pmc_divrem.c

; 436  :     c = _SUBTRUCT_UNIT_DIV(c, *up, t_lo, up);

	mov	eax, DWORD PTR [ecx+104]
; File z:\sources\lunor\repos\rougemeilland\palmtree.math.core.uint\palmtree.math.core.uint\pmc_inline_func.h

; 282  :         return (_subborrow_u32(borrow, u, v, w));

	sbb	eax, esi
	mov	DWORD PTR [ecx+104], eax

; 318  :         return (_FROMDWORDTOWORD((_UINT64_T)u * v, w_hi));

	mov	eax, DWORD PTR _v_buf$[ebp]

; 282  :         return (_subborrow_u32(borrow, u, v, w));

	setb	bl

; 318  :         return (_FROMDWORDTOWORD((_UINT64_T)u * v, w_hi));

	mov	eax, DWORD PTR [eax+108]
	mul	DWORD PTR _q_$[ebp]
	mov	esi, eax
	mov	edi, edx

; 226  :         return (_addcarry_u32(carry, u, v, w));

	add	esi, DWORD PTR _t_hi$2$[ebp]
; File z:\sources\lunor\repos\rougemeilland\palmtree.math.core.uint\palmtree.math.core.uint\pmc_divrem.c

; 436  :     c = _SUBTRUCT_UNIT_DIV(c, *up, t_lo, up);

	mov	eax, DWORD PTR [ecx+108]
; File z:\sources\lunor\repos\rougemeilland\palmtree.math.core.uint\palmtree.math.core.uint\pmc_inline_func.h

; 226  :         return (_addcarry_u32(carry, u, v, w));

	adc	edi, 0

; 282  :         return (_subborrow_u32(borrow, u, v, w));

	add	bl, 255					; 000000ffH
	sbb	eax, esi
	mov	DWORD PTR [ecx+108], eax

; 318  :         return (_FROMDWORDTOWORD((_UINT64_T)u * v, w_hi));

	mov	eax, DWORD PTR _v_buf$[ebp]

; 282  :         return (_subborrow_u32(borrow, u, v, w));

	setb	bl

; 318  :         return (_FROMDWORDTOWORD((_UINT64_T)u * v, w_hi));

	mov	eax, DWORD PTR [eax+112]
	mul	DWORD PTR _q_$[ebp]
	mov	esi, eax
	mov	eax, edx

; 226  :         return (_addcarry_u32(carry, u, v, w));

	add	esi, edi
	adc	eax, 0

; 282  :         return (_subborrow_u32(borrow, u, v, w));

	add	bl, 255					; 000000ffH

; 226  :         return (_addcarry_u32(carry, u, v, w));

	mov	DWORD PTR _t_hi$2$[ebp], eax
; File z:\sources\lunor\repos\rougemeilland\palmtree.math.core.uint\palmtree.math.core.uint\pmc_divrem.c

; 436  :     c = _SUBTRUCT_UNIT_DIV(c, *up, t_lo, up);

	mov	eax, DWORD PTR [ecx+112]
; File z:\sources\lunor\repos\rougemeilland\palmtree.math.core.uint\palmtree.math.core.uint\pmc_inline_func.h

; 282  :         return (_subborrow_u32(borrow, u, v, w));

	sbb	eax, esi
	mov	DWORD PTR [ecx+112], eax

; 318  :         return (_FROMDWORDTOWORD((_UINT64_T)u * v, w_hi));

	mov	eax, DWORD PTR _v_buf$[ebp]

; 282  :         return (_subborrow_u32(borrow, u, v, w));

	setb	bl

; 318  :         return (_FROMDWORDTOWORD((_UINT64_T)u * v, w_hi));

	mov	eax, DWORD PTR [eax+116]
	mul	DWORD PTR _q_$[ebp]
	mov	esi, eax
	mov	edi, edx

; 226  :         return (_addcarry_u32(carry, u, v, w));

	add	esi, DWORD PTR _t_hi$2$[ebp]
; File z:\sources\lunor\repos\rougemeilland\palmtree.math.core.uint\palmtree.math.core.uint\pmc_divrem.c

; 436  :     c = _SUBTRUCT_UNIT_DIV(c, *up, t_lo, up);

	mov	eax, DWORD PTR [ecx+116]
; File z:\sources\lunor\repos\rougemeilland\palmtree.math.core.uint\palmtree.math.core.uint\pmc_inline_func.h

; 226  :         return (_addcarry_u32(carry, u, v, w));

	adc	edi, 0

; 282  :         return (_subborrow_u32(borrow, u, v, w));

	add	bl, 255					; 000000ffH
	sbb	eax, esi
	mov	DWORD PTR [ecx+116], eax

; 318  :         return (_FROMDWORDTOWORD((_UINT64_T)u * v, w_hi));

	mov	eax, DWORD PTR _v_buf$[ebp]

; 282  :         return (_subborrow_u32(borrow, u, v, w));

	setb	bl

; 318  :         return (_FROMDWORDTOWORD((_UINT64_T)u * v, w_hi));

	mov	eax, DWORD PTR [eax+120]
	mul	DWORD PTR _q_$[ebp]
	mov	esi, eax
	mov	eax, edx

; 226  :         return (_addcarry_u32(carry, u, v, w));

	add	esi, edi

; 318  :         return (_FROMDWORDTOWORD((_UINT64_T)u * v, w_hi));

	mov	edi, DWORD PTR _v_buf$[ebp]

; 226  :         return (_addcarry_u32(carry, u, v, w));

	adc	eax, 0

; 282  :         return (_subborrow_u32(borrow, u, v, w));

	add	bl, 255					; 000000ffH

; 226  :         return (_addcarry_u32(carry, u, v, w));

	mov	DWORD PTR _t_hi$2$[ebp], eax
; File z:\sources\lunor\repos\rougemeilland\palmtree.math.core.uint\palmtree.math.core.uint\pmc_divrem.c

; 436  :     c = _SUBTRUCT_UNIT_DIV(c, *up, t_lo, up);

	mov	eax, DWORD PTR [ecx+120]
; File z:\sources\lunor\repos\rougemeilland\palmtree.math.core.uint\palmtree.math.core.uint\pmc_inline_func.h

; 282  :         return (_subborrow_u32(borrow, u, v, w));

	sbb	eax, esi
	mov	DWORD PTR [ecx+120], eax

; 318  :         return (_FROMDWORDTOWORD((_UINT64_T)u * v, w_hi));

	mov	eax, DWORD PTR [edi+124]

; 282  :         return (_subborrow_u32(borrow, u, v, w));

	setb	bl

; 318  :         return (_FROMDWORDTOWORD((_UINT64_T)u * v, w_hi));

	mul	DWORD PTR _q_$[ebp]
	mov	esi, eax
	mov	eax, edx

; 226  :         return (_addcarry_u32(carry, u, v, w));

	add	esi, DWORD PTR _t_hi$2$[ebp]
	adc	eax, 0

; 282  :         return (_subborrow_u32(borrow, u, v, w));

	add	bl, 255					; 000000ffH

; 226  :         return (_addcarry_u32(carry, u, v, w));

	mov	DWORD PTR _k$1$[ebp], eax
; File z:\sources\lunor\repos\rougemeilland\palmtree.math.core.uint\palmtree.math.core.uint\pmc_divrem.c

; 436  :     c = _SUBTRUCT_UNIT_DIV(c, *up, t_lo, up);

	mov	eax, DWORD PTR [ecx+124]
; File z:\sources\lunor\repos\rougemeilland\palmtree.math.core.uint\palmtree.math.core.uint\pmc_inline_func.h

; 282  :         return (_subborrow_u32(borrow, u, v, w));

	sbb	eax, esi
	mov	DWORD PTR [ecx+124], eax
	setb	bl
; File z:\sources\lunor\repos\rougemeilland\palmtree.math.core.uint\palmtree.math.core.uint\pmc_divrem.c

; 495  :         u_ptr += 32;

	sub	ecx, -128				; ffffff80H

; 496  :         v_ptr += 32;

	sub	edi, -128				; ffffff80H
	mov	DWORD PTR _v_buf$[ebp], edi

; 497  :         --count;

	mov	edx, DWORD PTR _count$1$[ebp]
; File z:\sources\lunor\repos\rougemeilland\palmtree.math.core.uint\palmtree.math.core.uint\pmc_uint_internal.h

; 352  :         _InterlockedExchangeAdd(&statistics_info.COUNT_MULTI32, value);

	mov	eax, 32					; 00000020H
; File z:\sources\lunor\repos\rougemeilland\palmtree.math.core.uint\palmtree.math.core.uint\pmc_divrem.c

; 497  :         --count;

	dec	edx
; File z:\sources\lunor\repos\rougemeilland\palmtree.math.core.uint\palmtree.math.core.uint\pmc_uint_internal.h

; 352  :         _InterlockedExchangeAdd(&statistics_info.COUNT_MULTI32, value);

	mov	esi, OFFSET _statistics_info+4
; File z:\sources\lunor\repos\rougemeilland\palmtree.math.core.uint\palmtree.math.core.uint\pmc_divrem.c

; 497  :         --count;

	mov	DWORD PTR _count$1$[ebp], edx
; File z:\sources\lunor\repos\rougemeilland\palmtree.math.core.uint\palmtree.math.core.uint\pmc_uint_internal.h

; 352  :         _InterlockedExchangeAdd(&statistics_info.COUNT_MULTI32, value);

	lock	 xadd	 DWORD PTR [esi], eax
; File z:\sources\lunor\repos\rougemeilland\palmtree.math.core.uint\palmtree.math.core.uint\pmc_divrem.c

; 461  :     while (count != 0)

	test	edx, edx
	mov	edx, DWORD PTR _q_$[ebp]
	jne	$LL2@SubtructOn
	mov	eax, DWORD PTR _v_buf_len$[ebp]
$LN3@SubtructOn:

; 498  : #ifdef ENABLED_PERFORMANCE_COUNTER
; 499  :         if (sizeof(k) == sizeof(_UINT64_T))
; 500  :             AddToMULTI64Counter(32);
; 501  :         else
; 502  :             AddToMULTI32Counter(32);
; 503  : #endif
; 504  :     }
; 505  : 
; 506  :     if (v_count & 0x10)

	test	al, 16					; 00000010H
	je	$LN604@SubtructOn
; File z:\sources\lunor\repos\rougemeilland\palmtree.math.core.uint\palmtree.math.core.uint\pmc_inline_func.h

; 318  :         return (_FROMDWORDTOWORD((_UINT64_T)u * v, w_hi));

	mov	eax, DWORD PTR [edi]
	mul	edx
	mov	esi, eax
	mov	edi, edx

; 226  :         return (_addcarry_u32(carry, u, v, w));

	add	esi, DWORD PTR _k$1$[ebp]
; File z:\sources\lunor\repos\rougemeilland\palmtree.math.core.uint\palmtree.math.core.uint\pmc_divrem.c

; 436  :     c = _SUBTRUCT_UNIT_DIV(c, *up, t_lo, up);

	mov	eax, DWORD PTR [ecx]
; File z:\sources\lunor\repos\rougemeilland\palmtree.math.core.uint\palmtree.math.core.uint\pmc_inline_func.h

; 226  :         return (_addcarry_u32(carry, u, v, w));

	adc	edi, 0

; 282  :         return (_subborrow_u32(borrow, u, v, w));

	add	bl, 255					; 000000ffH
	sbb	eax, esi
	mov	DWORD PTR [ecx], eax

; 318  :         return (_FROMDWORDTOWORD((_UINT64_T)u * v, w_hi));

	mov	eax, DWORD PTR _v_buf$[ebp]

; 282  :         return (_subborrow_u32(borrow, u, v, w));

	setb	bl

; 318  :         return (_FROMDWORDTOWORD((_UINT64_T)u * v, w_hi));

	mov	eax, DWORD PTR [eax+4]
	mul	DWORD PTR _q_$[ebp]
	mov	esi, eax
	mov	eax, edx
; File z:\sources\lunor\repos\rougemeilland\palmtree.math.core.uint\palmtree.math.core.uint\pmc_divrem.c

; 434  :     t_lo = _MULTIPLY_UNIT_DIV(*vp, q_, &t_hi);

	mov	DWORD PTR _t_lo$9[ebp], esi
; File z:\sources\lunor\repos\rougemeilland\palmtree.math.core.uint\palmtree.math.core.uint\pmc_inline_func.h

; 226  :         return (_addcarry_u32(carry, u, v, w));

	add	esi, edi
	adc	eax, 0

; 282  :         return (_subborrow_u32(borrow, u, v, w));

	add	bl, 255					; 000000ffH

; 226  :         return (_addcarry_u32(carry, u, v, w));

	mov	DWORD PTR _t_hi$2$[ebp], eax
; File z:\sources\lunor\repos\rougemeilland\palmtree.math.core.uint\palmtree.math.core.uint\pmc_divrem.c

; 436  :     c = _SUBTRUCT_UNIT_DIV(c, *up, t_lo, up);

	mov	eax, DWORD PTR [ecx+4]
; File z:\sources\lunor\repos\rougemeilland\palmtree.math.core.uint\palmtree.math.core.uint\pmc_inline_func.h

; 282  :         return (_subborrow_u32(borrow, u, v, w));

	sbb	eax, esi
	mov	DWORD PTR [ecx+4], eax

; 318  :         return (_FROMDWORDTOWORD((_UINT64_T)u * v, w_hi));

	mov	eax, DWORD PTR _v_buf$[ebp]

; 282  :         return (_subborrow_u32(borrow, u, v, w));

	setb	bl

; 318  :         return (_FROMDWORDTOWORD((_UINT64_T)u * v, w_hi));

	mov	eax, DWORD PTR [eax+8]
	mul	DWORD PTR _q_$[ebp]
	mov	esi, eax
	mov	edi, edx

; 226  :         return (_addcarry_u32(carry, u, v, w));

	add	esi, DWORD PTR _t_hi$2$[ebp]
; File z:\sources\lunor\repos\rougemeilland\palmtree.math.core.uint\palmtree.math.core.uint\pmc_divrem.c

; 436  :     c = _SUBTRUCT_UNIT_DIV(c, *up, t_lo, up);

	mov	eax, DWORD PTR [ecx+8]
; File z:\sources\lunor\repos\rougemeilland\palmtree.math.core.uint\palmtree.math.core.uint\pmc_inline_func.h

; 226  :         return (_addcarry_u32(carry, u, v, w));

	adc	edi, 0

; 282  :         return (_subborrow_u32(borrow, u, v, w));

	add	bl, 255					; 000000ffH
	sbb	eax, esi
	mov	DWORD PTR [ecx+8], eax

; 318  :         return (_FROMDWORDTOWORD((_UINT64_T)u * v, w_hi));

	mov	eax, DWORD PTR _v_buf$[ebp]

; 282  :         return (_subborrow_u32(borrow, u, v, w));

	setb	bl

; 318  :         return (_FROMDWORDTOWORD((_UINT64_T)u * v, w_hi));

	mov	eax, DWORD PTR [eax+12]
	mul	DWORD PTR _q_$[ebp]
	mov	esi, eax
	mov	eax, edx
; File z:\sources\lunor\repos\rougemeilland\palmtree.math.core.uint\palmtree.math.core.uint\pmc_divrem.c

; 434  :     t_lo = _MULTIPLY_UNIT_DIV(*vp, q_, &t_hi);

	mov	DWORD PTR _t_lo$8[ebp], esi
; File z:\sources\lunor\repos\rougemeilland\palmtree.math.core.uint\palmtree.math.core.uint\pmc_inline_func.h

; 226  :         return (_addcarry_u32(carry, u, v, w));

	add	esi, edi
	adc	eax, 0

; 282  :         return (_subborrow_u32(borrow, u, v, w));

	add	bl, 255					; 000000ffH

; 226  :         return (_addcarry_u32(carry, u, v, w));

	mov	DWORD PTR _t_hi$2$[ebp], eax
; File z:\sources\lunor\repos\rougemeilland\palmtree.math.core.uint\palmtree.math.core.uint\pmc_divrem.c

; 436  :     c = _SUBTRUCT_UNIT_DIV(c, *up, t_lo, up);

	mov	eax, DWORD PTR [ecx+12]
; File z:\sources\lunor\repos\rougemeilland\palmtree.math.core.uint\palmtree.math.core.uint\pmc_inline_func.h

; 282  :         return (_subborrow_u32(borrow, u, v, w));

	sbb	eax, esi
	mov	DWORD PTR [ecx+12], eax

; 318  :         return (_FROMDWORDTOWORD((_UINT64_T)u * v, w_hi));

	mov	eax, DWORD PTR _v_buf$[ebp]

; 282  :         return (_subborrow_u32(borrow, u, v, w));

	setb	bl

; 318  :         return (_FROMDWORDTOWORD((_UINT64_T)u * v, w_hi));

	mov	eax, DWORD PTR [eax+16]
	mul	DWORD PTR _q_$[ebp]
	mov	esi, eax
	mov	edi, edx

; 226  :         return (_addcarry_u32(carry, u, v, w));

	add	esi, DWORD PTR _t_hi$2$[ebp]
; File z:\sources\lunor\repos\rougemeilland\palmtree.math.core.uint\palmtree.math.core.uint\pmc_divrem.c

; 436  :     c = _SUBTRUCT_UNIT_DIV(c, *up, t_lo, up);

	mov	eax, DWORD PTR [ecx+16]
; File z:\sources\lunor\repos\rougemeilland\palmtree.math.core.uint\palmtree.math.core.uint\pmc_inline_func.h

; 226  :         return (_addcarry_u32(carry, u, v, w));

	adc	edi, 0

; 282  :         return (_subborrow_u32(borrow, u, v, w));

	add	bl, 255					; 000000ffH
	sbb	eax, esi
	mov	DWORD PTR [ecx+16], eax

; 318  :         return (_FROMDWORDTOWORD((_UINT64_T)u * v, w_hi));

	mov	eax, DWORD PTR _v_buf$[ebp]

; 282  :         return (_subborrow_u32(borrow, u, v, w));

	setb	bl

; 318  :         return (_FROMDWORDTOWORD((_UINT64_T)u * v, w_hi));

	mov	eax, DWORD PTR [eax+20]
	mul	DWORD PTR _q_$[ebp]
	mov	esi, eax
	mov	eax, edx
; File z:\sources\lunor\repos\rougemeilland\palmtree.math.core.uint\palmtree.math.core.uint\pmc_divrem.c

; 434  :     t_lo = _MULTIPLY_UNIT_DIV(*vp, q_, &t_hi);

	mov	DWORD PTR _t_lo$7[ebp], esi
; File z:\sources\lunor\repos\rougemeilland\palmtree.math.core.uint\palmtree.math.core.uint\pmc_inline_func.h

; 226  :         return (_addcarry_u32(carry, u, v, w));

	add	esi, edi

; 318  :         return (_FROMDWORDTOWORD((_UINT64_T)u * v, w_hi));

	mov	edi, DWORD PTR _v_buf$[ebp]

; 226  :         return (_addcarry_u32(carry, u, v, w));

	adc	eax, 0

; 282  :         return (_subborrow_u32(borrow, u, v, w));

	add	bl, 255					; 000000ffH

; 226  :         return (_addcarry_u32(carry, u, v, w));

	mov	DWORD PTR _t_hi$2$[ebp], eax
; File z:\sources\lunor\repos\rougemeilland\palmtree.math.core.uint\palmtree.math.core.uint\pmc_divrem.c

; 436  :     c = _SUBTRUCT_UNIT_DIV(c, *up, t_lo, up);

	mov	eax, DWORD PTR [ecx+20]
; File z:\sources\lunor\repos\rougemeilland\palmtree.math.core.uint\palmtree.math.core.uint\pmc_inline_func.h

; 282  :         return (_subborrow_u32(borrow, u, v, w));

	sbb	eax, esi
	mov	DWORD PTR [ecx+20], eax

; 318  :         return (_FROMDWORDTOWORD((_UINT64_T)u * v, w_hi));

	mov	eax, DWORD PTR [edi+24]

; 282  :         return (_subborrow_u32(borrow, u, v, w));

	setb	bl

; 318  :         return (_FROMDWORDTOWORD((_UINT64_T)u * v, w_hi));

	mul	DWORD PTR _q_$[ebp]
	mov	esi, eax

; 226  :         return (_addcarry_u32(carry, u, v, w));

	add	esi, DWORD PTR _t_hi$2$[ebp]

; 318  :         return (_FROMDWORDTOWORD((_UINT64_T)u * v, w_hi));

	mov	eax, edx

; 226  :         return (_addcarry_u32(carry, u, v, w));

	adc	eax, 0

; 282  :         return (_subborrow_u32(borrow, u, v, w));

	add	bl, 255					; 000000ffH

; 226  :         return (_addcarry_u32(carry, u, v, w));

	mov	DWORD PTR _t_hi$2$[ebp], eax
; File z:\sources\lunor\repos\rougemeilland\palmtree.math.core.uint\palmtree.math.core.uint\pmc_divrem.c

; 436  :     c = _SUBTRUCT_UNIT_DIV(c, *up, t_lo, up);

	mov	eax, DWORD PTR [ecx+24]
; File z:\sources\lunor\repos\rougemeilland\palmtree.math.core.uint\palmtree.math.core.uint\pmc_inline_func.h

; 282  :         return (_subborrow_u32(borrow, u, v, w));

	sbb	eax, esi
	mov	DWORD PTR [ecx+24], eax

; 318  :         return (_FROMDWORDTOWORD((_UINT64_T)u * v, w_hi));

	mov	eax, DWORD PTR [edi+28]

; 282  :         return (_subborrow_u32(borrow, u, v, w));

	setb	bl

; 318  :         return (_FROMDWORDTOWORD((_UINT64_T)u * v, w_hi));

	mul	DWORD PTR _q_$[ebp]
	mov	esi, eax
	mov	edi, edx

; 226  :         return (_addcarry_u32(carry, u, v, w));

	add	esi, DWORD PTR _t_hi$2$[ebp]
; File z:\sources\lunor\repos\rougemeilland\palmtree.math.core.uint\palmtree.math.core.uint\pmc_divrem.c

; 436  :     c = _SUBTRUCT_UNIT_DIV(c, *up, t_lo, up);

	mov	eax, DWORD PTR [ecx+28]
; File z:\sources\lunor\repos\rougemeilland\palmtree.math.core.uint\palmtree.math.core.uint\pmc_inline_func.h

; 226  :         return (_addcarry_u32(carry, u, v, w));

	adc	edi, 0

; 282  :         return (_subborrow_u32(borrow, u, v, w));

	add	bl, 255					; 000000ffH
	sbb	eax, esi
	mov	DWORD PTR [ecx+28], eax

; 318  :         return (_FROMDWORDTOWORD((_UINT64_T)u * v, w_hi));

	mov	eax, DWORD PTR _v_buf$[ebp]

; 282  :         return (_subborrow_u32(borrow, u, v, w));

	setb	bl

; 318  :         return (_FROMDWORDTOWORD((_UINT64_T)u * v, w_hi));

	mov	eax, DWORD PTR [eax+32]
	mul	DWORD PTR _q_$[ebp]
	mov	esi, eax
	mov	eax, edx

; 226  :         return (_addcarry_u32(carry, u, v, w));

	add	esi, edi
	adc	eax, 0

; 282  :         return (_subborrow_u32(borrow, u, v, w));

	add	bl, 255					; 000000ffH

; 226  :         return (_addcarry_u32(carry, u, v, w));

	mov	DWORD PTR _t_hi$2$[ebp], eax
; File z:\sources\lunor\repos\rougemeilland\palmtree.math.core.uint\palmtree.math.core.uint\pmc_divrem.c

; 436  :     c = _SUBTRUCT_UNIT_DIV(c, *up, t_lo, up);

	mov	eax, DWORD PTR [ecx+32]
; File z:\sources\lunor\repos\rougemeilland\palmtree.math.core.uint\palmtree.math.core.uint\pmc_inline_func.h

; 282  :         return (_subborrow_u32(borrow, u, v, w));

	sbb	eax, esi
	mov	DWORD PTR [ecx+32], eax

; 318  :         return (_FROMDWORDTOWORD((_UINT64_T)u * v, w_hi));

	mov	eax, DWORD PTR _v_buf$[ebp]

; 282  :         return (_subborrow_u32(borrow, u, v, w));

	setb	bl

; 318  :         return (_FROMDWORDTOWORD((_UINT64_T)u * v, w_hi));

	mov	eax, DWORD PTR [eax+36]
	mul	DWORD PTR _q_$[ebp]
	mov	esi, eax
	mov	edi, edx

; 226  :         return (_addcarry_u32(carry, u, v, w));

	add	esi, DWORD PTR _t_hi$2$[ebp]
; File z:\sources\lunor\repos\rougemeilland\palmtree.math.core.uint\palmtree.math.core.uint\pmc_divrem.c

; 436  :     c = _SUBTRUCT_UNIT_DIV(c, *up, t_lo, up);

	mov	eax, DWORD PTR [ecx+36]
; File z:\sources\lunor\repos\rougemeilland\palmtree.math.core.uint\palmtree.math.core.uint\pmc_inline_func.h

; 226  :         return (_addcarry_u32(carry, u, v, w));

	adc	edi, 0

; 282  :         return (_subborrow_u32(borrow, u, v, w));

	add	bl, 255					; 000000ffH
	sbb	eax, esi
	mov	DWORD PTR [ecx+36], eax

; 318  :         return (_FROMDWORDTOWORD((_UINT64_T)u * v, w_hi));

	mov	eax, DWORD PTR _v_buf$[ebp]

; 282  :         return (_subborrow_u32(borrow, u, v, w));

	setb	bl

; 318  :         return (_FROMDWORDTOWORD((_UINT64_T)u * v, w_hi));

	mov	eax, DWORD PTR [eax+40]
	mul	DWORD PTR _q_$[ebp]
	mov	esi, eax
	mov	eax, edx

; 226  :         return (_addcarry_u32(carry, u, v, w));

	add	esi, edi
	adc	eax, 0

; 282  :         return (_subborrow_u32(borrow, u, v, w));

	add	bl, 255					; 000000ffH

; 226  :         return (_addcarry_u32(carry, u, v, w));

	mov	DWORD PTR _t_hi$2$[ebp], eax
; File z:\sources\lunor\repos\rougemeilland\palmtree.math.core.uint\palmtree.math.core.uint\pmc_divrem.c

; 436  :     c = _SUBTRUCT_UNIT_DIV(c, *up, t_lo, up);

	mov	eax, DWORD PTR [ecx+40]
; File z:\sources\lunor\repos\rougemeilland\palmtree.math.core.uint\palmtree.math.core.uint\pmc_inline_func.h

; 282  :         return (_subborrow_u32(borrow, u, v, w));

	sbb	eax, esi
	mov	DWORD PTR [ecx+40], eax

; 318  :         return (_FROMDWORDTOWORD((_UINT64_T)u * v, w_hi));

	mov	eax, DWORD PTR _v_buf$[ebp]

; 282  :         return (_subborrow_u32(borrow, u, v, w));

	setb	bl

; 318  :         return (_FROMDWORDTOWORD((_UINT64_T)u * v, w_hi));

	mov	eax, DWORD PTR [eax+44]
	mul	DWORD PTR _q_$[ebp]
	mov	esi, eax
	mov	edi, edx

; 226  :         return (_addcarry_u32(carry, u, v, w));

	add	esi, DWORD PTR _t_hi$2$[ebp]
; File z:\sources\lunor\repos\rougemeilland\palmtree.math.core.uint\palmtree.math.core.uint\pmc_divrem.c

; 436  :     c = _SUBTRUCT_UNIT_DIV(c, *up, t_lo, up);

	mov	eax, DWORD PTR [ecx+44]
; File z:\sources\lunor\repos\rougemeilland\palmtree.math.core.uint\palmtree.math.core.uint\pmc_inline_func.h

; 226  :         return (_addcarry_u32(carry, u, v, w));

	adc	edi, 0

; 282  :         return (_subborrow_u32(borrow, u, v, w));

	add	bl, 255					; 000000ffH
	sbb	eax, esi
	mov	DWORD PTR [ecx+44], eax

; 318  :         return (_FROMDWORDTOWORD((_UINT64_T)u * v, w_hi));

	mov	eax, DWORD PTR _v_buf$[ebp]

; 282  :         return (_subborrow_u32(borrow, u, v, w));

	setb	bl

; 318  :         return (_FROMDWORDTOWORD((_UINT64_T)u * v, w_hi));

	mov	eax, DWORD PTR [eax+48]
	mul	DWORD PTR _q_$[ebp]
	mov	esi, eax
	mov	eax, edx

; 226  :         return (_addcarry_u32(carry, u, v, w));

	add	esi, edi
	adc	eax, 0

; 282  :         return (_subborrow_u32(borrow, u, v, w));

	add	bl, 255					; 000000ffH

; 226  :         return (_addcarry_u32(carry, u, v, w));

	mov	DWORD PTR _t_hi$2$[ebp], eax
; File z:\sources\lunor\repos\rougemeilland\palmtree.math.core.uint\palmtree.math.core.uint\pmc_divrem.c

; 436  :     c = _SUBTRUCT_UNIT_DIV(c, *up, t_lo, up);

	mov	eax, DWORD PTR [ecx+48]
; File z:\sources\lunor\repos\rougemeilland\palmtree.math.core.uint\palmtree.math.core.uint\pmc_inline_func.h

; 282  :         return (_subborrow_u32(borrow, u, v, w));

	sbb	eax, esi
	mov	DWORD PTR [ecx+48], eax
	setb	bl

; 318  :         return (_FROMDWORDTOWORD((_UINT64_T)u * v, w_hi));

	mov	eax, DWORD PTR _v_buf$[ebp]
	mov	eax, DWORD PTR [eax+52]
	mul	DWORD PTR _q_$[ebp]
	mov	esi, eax
	mov	edi, edx

; 226  :         return (_addcarry_u32(carry, u, v, w));

	add	esi, DWORD PTR _t_hi$2$[ebp]
; File z:\sources\lunor\repos\rougemeilland\palmtree.math.core.uint\palmtree.math.core.uint\pmc_divrem.c

; 436  :     c = _SUBTRUCT_UNIT_DIV(c, *up, t_lo, up);

	mov	eax, DWORD PTR [ecx+52]
; File z:\sources\lunor\repos\rougemeilland\palmtree.math.core.uint\palmtree.math.core.uint\pmc_inline_func.h

; 226  :         return (_addcarry_u32(carry, u, v, w));

	adc	edi, 0

; 282  :         return (_subborrow_u32(borrow, u, v, w));

	add	bl, 255					; 000000ffH
	sbb	eax, esi
	mov	DWORD PTR [ecx+52], eax

; 318  :         return (_FROMDWORDTOWORD((_UINT64_T)u * v, w_hi));

	mov	eax, DWORD PTR _v_buf$[ebp]

; 282  :         return (_subborrow_u32(borrow, u, v, w));

	setb	bl

; 318  :         return (_FROMDWORDTOWORD((_UINT64_T)u * v, w_hi));

	mov	eax, DWORD PTR [eax+56]
	mul	DWORD PTR _q_$[ebp]
	mov	esi, eax
	mov	eax, edx

; 226  :         return (_addcarry_u32(carry, u, v, w));

	add	esi, edi

; 318  :         return (_FROMDWORDTOWORD((_UINT64_T)u * v, w_hi));

	mov	edi, DWORD PTR _v_buf$[ebp]

; 226  :         return (_addcarry_u32(carry, u, v, w));

	adc	eax, 0

; 282  :         return (_subborrow_u32(borrow, u, v, w));

	add	bl, 255					; 000000ffH

; 226  :         return (_addcarry_u32(carry, u, v, w));

	mov	DWORD PTR _t_hi$2$[ebp], eax
; File z:\sources\lunor\repos\rougemeilland\palmtree.math.core.uint\palmtree.math.core.uint\pmc_divrem.c

; 436  :     c = _SUBTRUCT_UNIT_DIV(c, *up, t_lo, up);

	mov	eax, DWORD PTR [ecx+56]
; File z:\sources\lunor\repos\rougemeilland\palmtree.math.core.uint\palmtree.math.core.uint\pmc_inline_func.h

; 282  :         return (_subborrow_u32(borrow, u, v, w));

	sbb	eax, esi
	mov	DWORD PTR [ecx+56], eax

; 318  :         return (_FROMDWORDTOWORD((_UINT64_T)u * v, w_hi));

	mov	eax, DWORD PTR [edi+60]

; 282  :         return (_subborrow_u32(borrow, u, v, w));

	setb	bl

; 318  :         return (_FROMDWORDTOWORD((_UINT64_T)u * v, w_hi));

	mul	DWORD PTR _q_$[ebp]
	mov	esi, eax
; File z:\sources\lunor\repos\rougemeilland\palmtree.math.core.uint\palmtree.math.core.uint\pmc_divrem.c

; 436  :     c = _SUBTRUCT_UNIT_DIV(c, *up, t_lo, up);

	mov	eax, DWORD PTR [ecx+60]
; File z:\sources\lunor\repos\rougemeilland\palmtree.math.core.uint\palmtree.math.core.uint\pmc_inline_func.h

; 226  :         return (_addcarry_u32(carry, u, v, w));

	add	esi, DWORD PTR _t_hi$2$[ebp]
	adc	edx, 0

; 282  :         return (_subborrow_u32(borrow, u, v, w));

	add	bl, 255					; 000000ffH

; 226  :         return (_addcarry_u32(carry, u, v, w));

	mov	DWORD PTR _k$1$[ebp], edx
; File z:\sources\lunor\repos\rougemeilland\palmtree.math.core.uint\palmtree.math.core.uint\pmc_uint_internal.h

; 352  :         _InterlockedExchangeAdd(&statistics_info.COUNT_MULTI32, value);

	mov	edx, OFFSET _statistics_info+4
; File z:\sources\lunor\repos\rougemeilland\palmtree.math.core.uint\palmtree.math.core.uint\pmc_inline_func.h

; 282  :         return (_subborrow_u32(borrow, u, v, w));

	sbb	eax, esi
	mov	DWORD PTR [ecx+60], eax
; File z:\sources\lunor\repos\rougemeilland\palmtree.math.core.uint\palmtree.math.core.uint\pmc_uint_internal.h

; 352  :         _InterlockedExchangeAdd(&statistics_info.COUNT_MULTI32, value);

	mov	eax, 16					; 00000010H
; File z:\sources\lunor\repos\rougemeilland\palmtree.math.core.uint\palmtree.math.core.uint\pmc_inline_func.h

; 282  :         return (_subborrow_u32(borrow, u, v, w));

	setb	bl
; File z:\sources\lunor\repos\rougemeilland\palmtree.math.core.uint\palmtree.math.core.uint\pmc_divrem.c

; 525  :         v_ptr += 16;

	add	edi, 64					; 00000040H
	add	ecx, 64					; 00000040H
	mov	DWORD PTR _v_buf$[ebp], edi
; File z:\sources\lunor\repos\rougemeilland\palmtree.math.core.uint\palmtree.math.core.uint\pmc_uint_internal.h

; 352  :         _InterlockedExchangeAdd(&statistics_info.COUNT_MULTI32, value);

	lock	 xadd	 DWORD PTR [edx], eax
	mov	eax, DWORD PTR _v_buf_len$[ebp]
$LN604@SubtructOn:
; File z:\sources\lunor\repos\rougemeilland\palmtree.math.core.uint\palmtree.math.core.uint\pmc_divrem.c

; 534  :     if (v_count & 0x8)

	test	al, 8
	je	$LN824@SubtructOn
; File z:\sources\lunor\repos\rougemeilland\palmtree.math.core.uint\palmtree.math.core.uint\pmc_inline_func.h

; 318  :         return (_FROMDWORDTOWORD((_UINT64_T)u * v, w_hi));

	mov	eax, DWORD PTR [edi]
	mul	DWORD PTR _q_$[ebp]
	mov	esi, eax
	mov	edi, edx

; 226  :         return (_addcarry_u32(carry, u, v, w));

	add	esi, DWORD PTR _k$1$[ebp]
; File z:\sources\lunor\repos\rougemeilland\palmtree.math.core.uint\palmtree.math.core.uint\pmc_divrem.c

; 436  :     c = _SUBTRUCT_UNIT_DIV(c, *up, t_lo, up);

	mov	eax, DWORD PTR [ecx]
; File z:\sources\lunor\repos\rougemeilland\palmtree.math.core.uint\palmtree.math.core.uint\pmc_inline_func.h

; 226  :         return (_addcarry_u32(carry, u, v, w));

	adc	edi, 0

; 282  :         return (_subborrow_u32(borrow, u, v, w));

	add	bl, 255					; 000000ffH
	sbb	eax, esi
	mov	DWORD PTR [ecx], eax

; 318  :         return (_FROMDWORDTOWORD((_UINT64_T)u * v, w_hi));

	mov	eax, DWORD PTR _v_buf$[ebp]

; 282  :         return (_subborrow_u32(borrow, u, v, w));

	setb	bl

; 318  :         return (_FROMDWORDTOWORD((_UINT64_T)u * v, w_hi));

	mov	eax, DWORD PTR [eax+4]
	mul	DWORD PTR _q_$[ebp]
	mov	esi, eax
	mov	eax, edx
; File z:\sources\lunor\repos\rougemeilland\palmtree.math.core.uint\palmtree.math.core.uint\pmc_divrem.c

; 434  :     t_lo = _MULTIPLY_UNIT_DIV(*vp, q_, &t_hi);

	mov	DWORD PTR _t_lo$6[ebp], esi
; File z:\sources\lunor\repos\rougemeilland\palmtree.math.core.uint\palmtree.math.core.uint\pmc_inline_func.h

; 226  :         return (_addcarry_u32(carry, u, v, w));

	add	esi, edi
	adc	eax, 0

; 282  :         return (_subborrow_u32(borrow, u, v, w));

	add	bl, 255					; 000000ffH

; 226  :         return (_addcarry_u32(carry, u, v, w));

	mov	DWORD PTR _t_hi$2$[ebp], eax
; File z:\sources\lunor\repos\rougemeilland\palmtree.math.core.uint\palmtree.math.core.uint\pmc_divrem.c

; 436  :     c = _SUBTRUCT_UNIT_DIV(c, *up, t_lo, up);

	mov	eax, DWORD PTR [ecx+4]
; File z:\sources\lunor\repos\rougemeilland\palmtree.math.core.uint\palmtree.math.core.uint\pmc_inline_func.h

; 282  :         return (_subborrow_u32(borrow, u, v, w));

	sbb	eax, esi
	mov	DWORD PTR [ecx+4], eax

; 318  :         return (_FROMDWORDTOWORD((_UINT64_T)u * v, w_hi));

	mov	eax, DWORD PTR _v_buf$[ebp]

; 282  :         return (_subborrow_u32(borrow, u, v, w));

	setb	bl

; 318  :         return (_FROMDWORDTOWORD((_UINT64_T)u * v, w_hi));

	mov	eax, DWORD PTR [eax+8]
	mul	DWORD PTR _q_$[ebp]
	mov	esi, eax
	mov	edi, edx

; 226  :         return (_addcarry_u32(carry, u, v, w));

	add	esi, DWORD PTR _t_hi$2$[ebp]
; File z:\sources\lunor\repos\rougemeilland\palmtree.math.core.uint\palmtree.math.core.uint\pmc_divrem.c

; 436  :     c = _SUBTRUCT_UNIT_DIV(c, *up, t_lo, up);

	mov	eax, DWORD PTR [ecx+8]
; File z:\sources\lunor\repos\rougemeilland\palmtree.math.core.uint\palmtree.math.core.uint\pmc_inline_func.h

; 226  :         return (_addcarry_u32(carry, u, v, w));

	adc	edi, 0

; 282  :         return (_subborrow_u32(borrow, u, v, w));

	add	bl, 255					; 000000ffH
	sbb	eax, esi
	mov	DWORD PTR [ecx+8], eax

; 318  :         return (_FROMDWORDTOWORD((_UINT64_T)u * v, w_hi));

	mov	eax, DWORD PTR _v_buf$[ebp]

; 282  :         return (_subborrow_u32(borrow, u, v, w));

	setb	bl

; 318  :         return (_FROMDWORDTOWORD((_UINT64_T)u * v, w_hi));

	mov	eax, DWORD PTR [eax+12]
	mul	DWORD PTR _q_$[ebp]
	mov	esi, eax
	mov	eax, edx
; File z:\sources\lunor\repos\rougemeilland\palmtree.math.core.uint\palmtree.math.core.uint\pmc_divrem.c

; 434  :     t_lo = _MULTIPLY_UNIT_DIV(*vp, q_, &t_hi);

	mov	DWORD PTR _t_lo$5[ebp], esi
; File z:\sources\lunor\repos\rougemeilland\palmtree.math.core.uint\palmtree.math.core.uint\pmc_inline_func.h

; 226  :         return (_addcarry_u32(carry, u, v, w));

	add	esi, edi
	adc	eax, 0

; 282  :         return (_subborrow_u32(borrow, u, v, w));

	add	bl, 255					; 000000ffH

; 226  :         return (_addcarry_u32(carry, u, v, w));

	mov	DWORD PTR _t_hi$2$[ebp], eax
; File z:\sources\lunor\repos\rougemeilland\palmtree.math.core.uint\palmtree.math.core.uint\pmc_divrem.c

; 436  :     c = _SUBTRUCT_UNIT_DIV(c, *up, t_lo, up);

	mov	eax, DWORD PTR [ecx+12]
; File z:\sources\lunor\repos\rougemeilland\palmtree.math.core.uint\palmtree.math.core.uint\pmc_inline_func.h

; 282  :         return (_subborrow_u32(borrow, u, v, w));

	sbb	eax, esi
	mov	DWORD PTR [ecx+12], eax

; 318  :         return (_FROMDWORDTOWORD((_UINT64_T)u * v, w_hi));

	mov	eax, DWORD PTR _v_buf$[ebp]

; 282  :         return (_subborrow_u32(borrow, u, v, w));

	setb	bl

; 318  :         return (_FROMDWORDTOWORD((_UINT64_T)u * v, w_hi));

	mov	eax, DWORD PTR [eax+16]
	mul	DWORD PTR _q_$[ebp]
	mov	esi, eax
	mov	edi, edx

; 226  :         return (_addcarry_u32(carry, u, v, w));

	add	esi, DWORD PTR _t_hi$2$[ebp]
; File z:\sources\lunor\repos\rougemeilland\palmtree.math.core.uint\palmtree.math.core.uint\pmc_divrem.c

; 436  :     c = _SUBTRUCT_UNIT_DIV(c, *up, t_lo, up);

	mov	eax, DWORD PTR [ecx+16]
; File z:\sources\lunor\repos\rougemeilland\palmtree.math.core.uint\palmtree.math.core.uint\pmc_inline_func.h

; 226  :         return (_addcarry_u32(carry, u, v, w));

	adc	edi, 0

; 282  :         return (_subborrow_u32(borrow, u, v, w));

	add	bl, 255					; 000000ffH
	sbb	eax, esi
	mov	DWORD PTR [ecx+16], eax

; 318  :         return (_FROMDWORDTOWORD((_UINT64_T)u * v, w_hi));

	mov	eax, DWORD PTR _v_buf$[ebp]

; 282  :         return (_subborrow_u32(borrow, u, v, w));

	setb	bl

; 318  :         return (_FROMDWORDTOWORD((_UINT64_T)u * v, w_hi));

	mov	eax, DWORD PTR [eax+20]
	mul	DWORD PTR _q_$[ebp]
	mov	esi, eax
	mov	eax, edx
; File z:\sources\lunor\repos\rougemeilland\palmtree.math.core.uint\palmtree.math.core.uint\pmc_divrem.c

; 434  :     t_lo = _MULTIPLY_UNIT_DIV(*vp, q_, &t_hi);

	mov	DWORD PTR _t_lo$4[ebp], esi
; File z:\sources\lunor\repos\rougemeilland\palmtree.math.core.uint\palmtree.math.core.uint\pmc_inline_func.h

; 226  :         return (_addcarry_u32(carry, u, v, w));

	add	esi, edi
	adc	eax, 0

; 282  :         return (_subborrow_u32(borrow, u, v, w));

	add	bl, 255					; 000000ffH

; 226  :         return (_addcarry_u32(carry, u, v, w));

	mov	DWORD PTR _t_hi$2$[ebp], eax
; File z:\sources\lunor\repos\rougemeilland\palmtree.math.core.uint\palmtree.math.core.uint\pmc_divrem.c

; 436  :     c = _SUBTRUCT_UNIT_DIV(c, *up, t_lo, up);

	mov	eax, DWORD PTR [ecx+20]
; File z:\sources\lunor\repos\rougemeilland\palmtree.math.core.uint\palmtree.math.core.uint\pmc_inline_func.h

; 282  :         return (_subborrow_u32(borrow, u, v, w));

	sbb	eax, esi
	mov	DWORD PTR [ecx+20], eax

; 318  :         return (_FROMDWORDTOWORD((_UINT64_T)u * v, w_hi));

	mov	eax, DWORD PTR _v_buf$[ebp]

; 282  :         return (_subborrow_u32(borrow, u, v, w));

	setb	bl

; 318  :         return (_FROMDWORDTOWORD((_UINT64_T)u * v, w_hi));

	mov	eax, DWORD PTR [eax+24]
	mul	DWORD PTR _q_$[ebp]
	mov	esi, eax

; 226  :         return (_addcarry_u32(carry, u, v, w));

	add	esi, DWORD PTR _t_hi$2$[ebp]

; 318  :         return (_FROMDWORDTOWORD((_UINT64_T)u * v, w_hi));

	mov	edi, edx
; File z:\sources\lunor\repos\rougemeilland\palmtree.math.core.uint\palmtree.math.core.uint\pmc_divrem.c

; 436  :     c = _SUBTRUCT_UNIT_DIV(c, *up, t_lo, up);

	mov	eax, DWORD PTR [ecx+24]
; File z:\sources\lunor\repos\rougemeilland\palmtree.math.core.uint\palmtree.math.core.uint\pmc_inline_func.h

; 226  :         return (_addcarry_u32(carry, u, v, w));

	adc	edi, 0

; 282  :         return (_subborrow_u32(borrow, u, v, w));

	add	bl, 255					; 000000ffH
	sbb	eax, esi
	mov	DWORD PTR [ecx+24], eax

; 318  :         return (_FROMDWORDTOWORD((_UINT64_T)u * v, w_hi));

	mov	eax, DWORD PTR _v_buf$[ebp]

; 282  :         return (_subborrow_u32(borrow, u, v, w));

	setb	bl

; 318  :         return (_FROMDWORDTOWORD((_UINT64_T)u * v, w_hi));

	mov	eax, DWORD PTR [eax+28]
	mul	DWORD PTR _q_$[ebp]
	mov	esi, eax
; File z:\sources\lunor\repos\rougemeilland\palmtree.math.core.uint\palmtree.math.core.uint\pmc_divrem.c

; 436  :     c = _SUBTRUCT_UNIT_DIV(c, *up, t_lo, up);

	mov	eax, DWORD PTR [ecx+28]
; File z:\sources\lunor\repos\rougemeilland\palmtree.math.core.uint\palmtree.math.core.uint\pmc_inline_func.h

; 226  :         return (_addcarry_u32(carry, u, v, w));

	add	esi, edi
; File z:\sources\lunor\repos\rougemeilland\palmtree.math.core.uint\palmtree.math.core.uint\pmc_divrem.c

; 545  :         v_ptr += 8;

	mov	edi, DWORD PTR _v_buf$[ebp]
; File z:\sources\lunor\repos\rougemeilland\palmtree.math.core.uint\palmtree.math.core.uint\pmc_inline_func.h

; 226  :         return (_addcarry_u32(carry, u, v, w));

	adc	edx, 0

; 282  :         return (_subborrow_u32(borrow, u, v, w));

	add	bl, 255					; 000000ffH

; 226  :         return (_addcarry_u32(carry, u, v, w));

	mov	DWORD PTR _k$1$[ebp], edx

; 282  :         return (_subborrow_u32(borrow, u, v, w));

	sbb	eax, esi
; File z:\sources\lunor\repos\rougemeilland\palmtree.math.core.uint\palmtree.math.core.uint\pmc_uint_internal.h

; 352  :         _InterlockedExchangeAdd(&statistics_info.COUNT_MULTI32, value);

	mov	esi, OFFSET _statistics_info+4
; File z:\sources\lunor\repos\rougemeilland\palmtree.math.core.uint\palmtree.math.core.uint\pmc_inline_func.h

; 282  :         return (_subborrow_u32(borrow, u, v, w));

	mov	DWORD PTR [ecx+28], eax
; File z:\sources\lunor\repos\rougemeilland\palmtree.math.core.uint\palmtree.math.core.uint\pmc_uint_internal.h

; 352  :         _InterlockedExchangeAdd(&statistics_info.COUNT_MULTI32, value);

	mov	eax, 8
; File z:\sources\lunor\repos\rougemeilland\palmtree.math.core.uint\palmtree.math.core.uint\pmc_inline_func.h

; 282  :         return (_subborrow_u32(borrow, u, v, w));

	setb	bl
; File z:\sources\lunor\repos\rougemeilland\palmtree.math.core.uint\palmtree.math.core.uint\pmc_divrem.c

; 545  :         v_ptr += 8;

	add	edi, 32					; 00000020H
	add	ecx, 32					; 00000020H
	mov	DWORD PTR _v_buf$[ebp], edi
; File z:\sources\lunor\repos\rougemeilland\palmtree.math.core.uint\palmtree.math.core.uint\pmc_uint_internal.h

; 352  :         _InterlockedExchangeAdd(&statistics_info.COUNT_MULTI32, value);

	lock	 xadd	 DWORD PTR [esi], eax
; File z:\sources\lunor\repos\rougemeilland\palmtree.math.core.uint\palmtree.math.core.uint\pmc_divrem.c

; 534  :     if (v_count & 0x8)

	mov	eax, DWORD PTR _v_buf_len$[ebp]
	jmp	SHORT $LN704@SubtructOn
$LN824@SubtructOn:
	mov	edx, DWORD PTR _k$1$[ebp]
$LN704@SubtructOn:

; 546  : #ifdef ENABLED_PERFORMANCE_COUNTER
; 547  :         if (sizeof(k) == sizeof(_UINT64_T))
; 548  :             AddToMULTI64Counter(8);
; 549  :         else
; 550  :             AddToMULTI32Counter(8);
; 551  : #endif
; 552  :     }
; 553  : 
; 554  :     if (v_count & 0x4)

	test	al, 4
	je	$LN756@SubtructOn
; File z:\sources\lunor\repos\rougemeilland\palmtree.math.core.uint\palmtree.math.core.uint\pmc_inline_func.h

; 318  :         return (_FROMDWORDTOWORD((_UINT64_T)u * v, w_hi));

	mov	eax, DWORD PTR [edi]
	mul	DWORD PTR _q_$[ebp]
	mov	esi, eax
	mov	edi, edx

; 226  :         return (_addcarry_u32(carry, u, v, w));

	add	esi, DWORD PTR _k$1$[ebp]
; File z:\sources\lunor\repos\rougemeilland\palmtree.math.core.uint\palmtree.math.core.uint\pmc_divrem.c

; 436  :     c = _SUBTRUCT_UNIT_DIV(c, *up, t_lo, up);

	mov	eax, DWORD PTR [ecx]
; File z:\sources\lunor\repos\rougemeilland\palmtree.math.core.uint\palmtree.math.core.uint\pmc_inline_func.h

; 226  :         return (_addcarry_u32(carry, u, v, w));

	adc	edi, 0

; 282  :         return (_subborrow_u32(borrow, u, v, w));

	add	bl, 255					; 000000ffH
	sbb	eax, esi
	mov	DWORD PTR [ecx], eax

; 318  :         return (_FROMDWORDTOWORD((_UINT64_T)u * v, w_hi));

	mov	eax, DWORD PTR _v_buf$[ebp]

; 282  :         return (_subborrow_u32(borrow, u, v, w));

	setb	bl

; 318  :         return (_FROMDWORDTOWORD((_UINT64_T)u * v, w_hi));

	mov	eax, DWORD PTR [eax+4]
	mul	DWORD PTR _q_$[ebp]
	mov	esi, eax
	mov	eax, edx
; File z:\sources\lunor\repos\rougemeilland\palmtree.math.core.uint\palmtree.math.core.uint\pmc_divrem.c

; 434  :     t_lo = _MULTIPLY_UNIT_DIV(*vp, q_, &t_hi);

	mov	DWORD PTR _t_lo$3[ebp], esi
; File z:\sources\lunor\repos\rougemeilland\palmtree.math.core.uint\palmtree.math.core.uint\pmc_inline_func.h

; 226  :         return (_addcarry_u32(carry, u, v, w));

	add	esi, edi
	adc	eax, 0

; 282  :         return (_subborrow_u32(borrow, u, v, w));

	add	bl, 255					; 000000ffH

; 226  :         return (_addcarry_u32(carry, u, v, w));

	mov	DWORD PTR _t_hi$2$[ebp], eax
; File z:\sources\lunor\repos\rougemeilland\palmtree.math.core.uint\palmtree.math.core.uint\pmc_divrem.c

; 436  :     c = _SUBTRUCT_UNIT_DIV(c, *up, t_lo, up);

	mov	eax, DWORD PTR [ecx+4]
; File z:\sources\lunor\repos\rougemeilland\palmtree.math.core.uint\palmtree.math.core.uint\pmc_inline_func.h

; 282  :         return (_subborrow_u32(borrow, u, v, w));

	sbb	eax, esi
	mov	DWORD PTR [ecx+4], eax

; 318  :         return (_FROMDWORDTOWORD((_UINT64_T)u * v, w_hi));

	mov	eax, DWORD PTR _v_buf$[ebp]

; 282  :         return (_subborrow_u32(borrow, u, v, w));

	setb	bl

; 318  :         return (_FROMDWORDTOWORD((_UINT64_T)u * v, w_hi));

	mov	eax, DWORD PTR [eax+8]
	mul	DWORD PTR _q_$[ebp]
	mov	esi, eax
	mov	edi, edx

; 226  :         return (_addcarry_u32(carry, u, v, w));

	add	esi, DWORD PTR _t_hi$2$[ebp]
; File z:\sources\lunor\repos\rougemeilland\palmtree.math.core.uint\palmtree.math.core.uint\pmc_divrem.c

; 436  :     c = _SUBTRUCT_UNIT_DIV(c, *up, t_lo, up);

	mov	eax, DWORD PTR [ecx+8]
; File z:\sources\lunor\repos\rougemeilland\palmtree.math.core.uint\palmtree.math.core.uint\pmc_inline_func.h

; 226  :         return (_addcarry_u32(carry, u, v, w));

	adc	edi, 0

; 282  :         return (_subborrow_u32(borrow, u, v, w));

	add	bl, 255					; 000000ffH
	sbb	eax, esi
	mov	DWORD PTR [ecx+8], eax

; 318  :         return (_FROMDWORDTOWORD((_UINT64_T)u * v, w_hi));

	mov	eax, DWORD PTR _v_buf$[ebp]

; 282  :         return (_subborrow_u32(borrow, u, v, w));

	setb	bl

; 318  :         return (_FROMDWORDTOWORD((_UINT64_T)u * v, w_hi));

	mov	eax, DWORD PTR [eax+12]
	mul	DWORD PTR _q_$[ebp]
	mov	esi, eax
; File z:\sources\lunor\repos\rougemeilland\palmtree.math.core.uint\palmtree.math.core.uint\pmc_divrem.c

; 436  :     c = _SUBTRUCT_UNIT_DIV(c, *up, t_lo, up);

	mov	eax, DWORD PTR [ecx+12]
	mov	DWORD PTR _t_lo$2[ebp], esi
; File z:\sources\lunor\repos\rougemeilland\palmtree.math.core.uint\palmtree.math.core.uint\pmc_inline_func.h

; 226  :         return (_addcarry_u32(carry, u, v, w));

	add	esi, edi
; File z:\sources\lunor\repos\rougemeilland\palmtree.math.core.uint\palmtree.math.core.uint\pmc_divrem.c

; 561  :         v_ptr += 4;

	mov	edi, DWORD PTR _v_buf$[ebp]
; File z:\sources\lunor\repos\rougemeilland\palmtree.math.core.uint\palmtree.math.core.uint\pmc_inline_func.h

; 226  :         return (_addcarry_u32(carry, u, v, w));

	adc	edx, 0

; 282  :         return (_subborrow_u32(borrow, u, v, w));

	add	bl, 255					; 000000ffH

; 226  :         return (_addcarry_u32(carry, u, v, w));

	mov	DWORD PTR _k$1$[ebp], edx

; 282  :         return (_subborrow_u32(borrow, u, v, w));

	sbb	eax, esi
; File z:\sources\lunor\repos\rougemeilland\palmtree.math.core.uint\palmtree.math.core.uint\pmc_uint_internal.h

; 352  :         _InterlockedExchangeAdd(&statistics_info.COUNT_MULTI32, value);

	mov	esi, OFFSET _statistics_info+4
; File z:\sources\lunor\repos\rougemeilland\palmtree.math.core.uint\palmtree.math.core.uint\pmc_inline_func.h

; 282  :         return (_subborrow_u32(borrow, u, v, w));

	mov	DWORD PTR [ecx+12], eax
; File z:\sources\lunor\repos\rougemeilland\palmtree.math.core.uint\palmtree.math.core.uint\pmc_uint_internal.h

; 352  :         _InterlockedExchangeAdd(&statistics_info.COUNT_MULTI32, value);

	mov	eax, 4
; File z:\sources\lunor\repos\rougemeilland\palmtree.math.core.uint\palmtree.math.core.uint\pmc_inline_func.h

; 282  :         return (_subborrow_u32(borrow, u, v, w));

	setb	bl
; File z:\sources\lunor\repos\rougemeilland\palmtree.math.core.uint\palmtree.math.core.uint\pmc_divrem.c

; 561  :         v_ptr += 4;

	add	edi, 16					; 00000010H
	add	ecx, 16					; 00000010H
	mov	DWORD PTR _v_buf$[ebp], edi
; File z:\sources\lunor\repos\rougemeilland\palmtree.math.core.uint\palmtree.math.core.uint\pmc_uint_internal.h

; 352  :         _InterlockedExchangeAdd(&statistics_info.COUNT_MULTI32, value);

	lock	 xadd	 DWORD PTR [esi], eax
	mov	eax, DWORD PTR _v_buf_len$[ebp]
$LN756@SubtructOn:
; File z:\sources\lunor\repos\rougemeilland\palmtree.math.core.uint\palmtree.math.core.uint\pmc_divrem.c

; 570  :     if (v_count & 0x2)

	test	al, 2
	je	SHORT $LN784@SubtructOn
; File z:\sources\lunor\repos\rougemeilland\palmtree.math.core.uint\palmtree.math.core.uint\pmc_inline_func.h

; 318  :         return (_FROMDWORDTOWORD((_UINT64_T)u * v, w_hi));

	mov	eax, DWORD PTR [edi]
	mul	DWORD PTR _q_$[ebp]
	mov	esi, eax
	mov	edi, edx

; 226  :         return (_addcarry_u32(carry, u, v, w));

	add	esi, DWORD PTR _k$1$[ebp]
; File z:\sources\lunor\repos\rougemeilland\palmtree.math.core.uint\palmtree.math.core.uint\pmc_divrem.c

; 436  :     c = _SUBTRUCT_UNIT_DIV(c, *up, t_lo, up);

	mov	eax, DWORD PTR [ecx]
; File z:\sources\lunor\repos\rougemeilland\palmtree.math.core.uint\palmtree.math.core.uint\pmc_inline_func.h

; 226  :         return (_addcarry_u32(carry, u, v, w));

	adc	edi, 0

; 282  :         return (_subborrow_u32(borrow, u, v, w));

	add	bl, 255					; 000000ffH
	sbb	eax, esi
	mov	DWORD PTR [ecx], eax

; 318  :         return (_FROMDWORDTOWORD((_UINT64_T)u * v, w_hi));

	mov	eax, DWORD PTR _v_buf$[ebp]

; 282  :         return (_subborrow_u32(borrow, u, v, w));

	setb	bl

; 318  :         return (_FROMDWORDTOWORD((_UINT64_T)u * v, w_hi));

	mov	eax, DWORD PTR [eax+4]
	mul	DWORD PTR _q_$[ebp]
	mov	esi, eax
	mov	eax, edx
; File z:\sources\lunor\repos\rougemeilland\palmtree.math.core.uint\palmtree.math.core.uint\pmc_divrem.c

; 434  :     t_lo = _MULTIPLY_UNIT_DIV(*vp, q_, &t_hi);

	mov	DWORD PTR _t_lo$1[ebp], esi
; File z:\sources\lunor\repos\rougemeilland\palmtree.math.core.uint\palmtree.math.core.uint\pmc_uint_internal.h

; 352  :         _InterlockedExchangeAdd(&statistics_info.COUNT_MULTI32, value);

	mov	edx, 2
; File z:\sources\lunor\repos\rougemeilland\palmtree.math.core.uint\palmtree.math.core.uint\pmc_inline_func.h

; 226  :         return (_addcarry_u32(carry, u, v, w));

	add	esi, edi
; File z:\sources\lunor\repos\rougemeilland\palmtree.math.core.uint\palmtree.math.core.uint\pmc_divrem.c

; 575  :         v_ptr += 2;

	mov	edi, DWORD PTR _v_buf$[ebp]
; File z:\sources\lunor\repos\rougemeilland\palmtree.math.core.uint\palmtree.math.core.uint\pmc_inline_func.h

; 226  :         return (_addcarry_u32(carry, u, v, w));

	adc	eax, 0

; 282  :         return (_subborrow_u32(borrow, u, v, w));

	add	bl, 255					; 000000ffH

; 226  :         return (_addcarry_u32(carry, u, v, w));

	mov	DWORD PTR _k$1$[ebp], eax
; File z:\sources\lunor\repos\rougemeilland\palmtree.math.core.uint\palmtree.math.core.uint\pmc_divrem.c

; 436  :     c = _SUBTRUCT_UNIT_DIV(c, *up, t_lo, up);

	mov	eax, DWORD PTR [ecx+4]
; File z:\sources\lunor\repos\rougemeilland\palmtree.math.core.uint\palmtree.math.core.uint\pmc_inline_func.h

; 282  :         return (_subborrow_u32(borrow, u, v, w));

	sbb	eax, esi
	mov	DWORD PTR [ecx+4], eax
; File z:\sources\lunor\repos\rougemeilland\palmtree.math.core.uint\palmtree.math.core.uint\pmc_uint_internal.h

; 352  :         _InterlockedExchangeAdd(&statistics_info.COUNT_MULTI32, value);

	mov	eax, OFFSET _statistics_info+4
; File z:\sources\lunor\repos\rougemeilland\palmtree.math.core.uint\palmtree.math.core.uint\pmc_inline_func.h

; 282  :         return (_subborrow_u32(borrow, u, v, w));

	setb	bl
; File z:\sources\lunor\repos\rougemeilland\palmtree.math.core.uint\palmtree.math.core.uint\pmc_divrem.c

; 574  :         u_ptr += 2;

	add	ecx, 8

; 575  :         v_ptr += 2;

	add	edi, 8
; File z:\sources\lunor\repos\rougemeilland\palmtree.math.core.uint\palmtree.math.core.uint\pmc_uint_internal.h

; 352  :         _InterlockedExchangeAdd(&statistics_info.COUNT_MULTI32, value);

	lock	 xadd	 DWORD PTR [eax], edx
	mov	edx, DWORD PTR _k$1$[ebp]
	mov	eax, DWORD PTR _v_buf_len$[ebp]
$LN784@SubtructOn:
; File z:\sources\lunor\repos\rougemeilland\palmtree.math.core.uint\palmtree.math.core.uint\pmc_divrem.c

; 584  :     if (v_count & 0x1)

	test	al, 1
	je	SHORT $LN800@SubtructOn
; File z:\sources\lunor\repos\rougemeilland\palmtree.math.core.uint\palmtree.math.core.uint\pmc_inline_func.h

; 318  :         return (_FROMDWORDTOWORD((_UINT64_T)u * v, w_hi));

	mov	eax, DWORD PTR [edi]
	mul	DWORD PTR _q_$[ebp]
	mov	esi, eax
; File z:\sources\lunor\repos\rougemeilland\palmtree.math.core.uint\palmtree.math.core.uint\pmc_divrem.c

; 436  :     c = _SUBTRUCT_UNIT_DIV(c, *up, t_lo, up);

	mov	eax, DWORD PTR [ecx]
; File z:\sources\lunor\repos\rougemeilland\palmtree.math.core.uint\palmtree.math.core.uint\pmc_inline_func.h

; 226  :         return (_addcarry_u32(carry, u, v, w));

	add	esi, DWORD PTR _k$1$[ebp]
	adc	edx, 0

; 282  :         return (_subborrow_u32(borrow, u, v, w));

	add	bl, 255					; 000000ffH
	sbb	eax, esi
	mov	DWORD PTR [ecx], eax
	setb	bl
; File z:\sources\lunor\repos\rougemeilland\palmtree.math.core.uint\palmtree.math.core.uint\pmc_divrem.c

; 587  :         u_ptr += 1;

	add	ecx, 4
; File z:\sources\lunor\repos\rougemeilland\palmtree.math.core.uint\palmtree.math.core.uint\pmc_uint_internal.h

; 329  :         _InterlockedIncrement(&statistics_info.COUNT_MULTI32);

	lock	 inc	 (null) PTR _statistics_info+4
$LN800@SubtructOn:
; File z:\sources\lunor\repos\rougemeilland\palmtree.math.core.uint\palmtree.math.core.uint\pmc_divrem.c

; 597  :     c = _SUBTRUCT_UNIT_DIV(c, *u_ptr, k, u_ptr);

	mov	eax, DWORD PTR [ecx]
; File z:\sources\lunor\repos\rougemeilland\palmtree.math.core.uint\palmtree.math.core.uint\pmc_inline_func.h

; 282  :         return (_subborrow_u32(borrow, u, v, w));

	add	bl, 255					; 000000ffH
	sbb	eax, edx
	mov	DWORD PTR [ecx], eax
; File z:\sources\lunor\repos\rougemeilland\palmtree.math.core.uint\palmtree.math.core.uint\pmc_divrem.c

; 600  :     return (DoBorrow(c, u_ptr, u_buf + u_buf_len + 1 - u_ptr));

	mov	eax, DWORD PTR _u_buf_len$[ebp]
; File z:\sources\lunor\repos\rougemeilland\palmtree.math.core.uint\palmtree.math.core.uint\pmc_inline_func.h

; 282  :         return (_subborrow_u32(borrow, u, v, w));

	setb	dl
; File z:\sources\lunor\repos\rougemeilland\palmtree.math.core.uint\palmtree.math.core.uint\pmc_divrem.c

; 598  :     u_ptr += 1;

	add	ecx, 4

; 600  :     return (DoBorrow(c, u_ptr, u_buf + u_buf_len + 1 - u_ptr));

	lea	esi, DWORD PTR [eax*4+4]
	sub	esi, ecx
	add	esi, DWORD PTR _u_buf$[ebp]
	sar	esi, 2

; 395  :         if (u_count <= 0)

	test	esi, esi
	je	SHORT $LN818@SubtructOn
	npad	6
$LL805@SubtructOn:

; 400  :             {
; 401  :                 // かつそれでも桁借りを行う必要がある場合
; 402  : 
; 403  :                 // 減算結果が負になってしまったので呼び出し元に通知する。
; 404  :                 return (TRUE);
; 405  :             }
; 406  : 
; 407  :             // u の最上位に達してしまった場合はいずれにしろループを中断して正常復帰する。
; 408  : 
; 409  :             return (FALSE);
; 410  :         }
; 411  :         else if (c)

	test	dl, dl
	je	SHORT $LN811@SubtructOn

; 412  :         {
; 413  :             // u の最上位に達しておらず、かつボローが立っている場合
; 414  : 
; 415  :             // 桁借りを継続する
; 416  :             c = _SUBTRUCT_UNIT_DIV(c, *up, 0, up);

	mov	eax, DWORD PTR [ecx]
; File z:\sources\lunor\repos\rougemeilland\palmtree.math.core.uint\palmtree.math.core.uint\pmc_inline_func.h

; 282  :         return (_subborrow_u32(borrow, u, v, w));

	add	dl, 255					; 000000ffH
	sbb	eax, 0
	mov	DWORD PTR [ecx], eax
	setb	dl
; File z:\sources\lunor\repos\rougemeilland\palmtree.math.core.uint\palmtree.math.core.uint\pmc_divrem.c

; 417  :             ++up;

	add	ecx, 4

; 418  :             --u_count;

	sub	esi, 1
	jne	SHORT $LL805@SubtructOn
$LN818@SubtructOn:

; 396  :         {
; 397  :             // u の最上位まで達してしまった場合
; 398  : 
; 399  :             if (c)

	xor	eax, eax
	test	dl, dl
	pop	edi

; 601  : }

	pop	esi

; 399  :             if (c)

	setne	al

; 601  : }

	pop	ebx
	mov	esp, ebp
	pop	ebp
	ret	0
$LN811@SubtructOn:
	pop	edi
	pop	esi
	xor	eax, eax
	pop	ebx
	mov	esp, ebp
	pop	ebp
	ret	0
_SubtructOneLine ENDP
_TEXT	ENDS
; Function compile flags: /Ogtp
; File z:\sources\lunor\repos\rougemeilland\palmtree.math.core.uint\palmtree.math.core.uint\pmc_divrem.c
; File z:\sources\lunor\repos\rougemeilland\palmtree.math.core.uint\palmtree.math.core.uint\pmc_inline_func.h
; File z:\sources\lunor\repos\rougemeilland\palmtree.math.core.uint\palmtree.math.core.uint\pmc_divrem.c
; File z:\sources\lunor\repos\rougemeilland\palmtree.math.core.uint\palmtree.math.core.uint\pmc_inline_func.h
; File z:\sources\lunor\repos\rougemeilland\palmtree.math.core.uint\palmtree.math.core.uint\pmc_divrem.c
; File z:\sources\lunor\repos\rougemeilland\palmtree.math.core.uint\palmtree.math.core.uint\pmc_inline_func.h
; File z:\sources\lunor\repos\rougemeilland\palmtree.math.core.uint\palmtree.math.core.uint\pmc_divrem.c
; File z:\sources\lunor\repos\rougemeilland\palmtree.math.core.uint\palmtree.math.core.uint\pmc_inline_func.h
; File z:\sources\lunor\repos\rougemeilland\palmtree.math.core.uint\palmtree.math.core.uint\pmc_divrem.c
; File z:\sources\lunor\repos\rougemeilland\palmtree.math.core.uint\palmtree.math.core.uint\pmc_inline_func.h
; File z:\sources\lunor\repos\rougemeilland\palmtree.math.core.uint\palmtree.math.core.uint\pmc_divrem.c
; File z:\sources\lunor\repos\rougemeilland\palmtree.math.core.uint\palmtree.math.core.uint\pmc_inline_func.h
; File z:\sources\lunor\repos\rougemeilland\palmtree.math.core.uint\palmtree.math.core.uint\pmc_divrem.c
;	COMDAT __MULTIPLYX_DIGIT_UNIT_DIV
_TEXT	SEGMENT
_c$ = 8							; size = 1
_k$ = 12						; size = 4
_vp$ = 16						; size = 4
_q_$ = 20						; size = 4
_up$ = 24						; size = 4
__MULTIPLYX_DIGIT_UNIT_DIV PROC				; COMDAT

; 442  : {

	push	ebp
	mov	ebp, esp
; File z:\sources\lunor\repos\rougemeilland\palmtree.math.core.uint\palmtree.math.core.uint\pmc_inline_func.h

; 364  :         return (_FROMDWORDTOWORD((_UINT64_T)u * v, w_hi));

	mov	eax, DWORD PTR _vp$[ebp]
; File z:\sources\lunor\repos\rougemeilland\palmtree.math.core.uint\palmtree.math.core.uint\pmc_divrem.c

; 442  : {

	push	ebx
	push	esi

; 443  :     __UNIT_TYPE_DIV t_hi;
; 444  :     __UNIT_TYPE_DIV t_lo;
; 445  :     t_lo = _MULTIPLYX_UNIT_DIV(*vp, q_, &t_hi);
; 446  :     _ADDX_UNIT_DIV(_ADDX_UNIT_DIV(0, t_lo, *k, &t_lo), t_hi, 0, &t_hi);

	mov	esi, DWORD PTR _k$[ebp]
; File z:\sources\lunor\repos\rougemeilland\palmtree.math.core.uint\palmtree.math.core.uint\pmc_inline_func.h

; 364  :         return (_FROMDWORDTOWORD((_UINT64_T)u * v, w_hi));

	mov	eax, DWORD PTR [eax]
	mul	DWORD PTR _q_$[ebp]
; File z:\sources\lunor\repos\rougemeilland\palmtree.math.core.uint\palmtree.math.core.uint\pmc_divrem.c

; 442  : {

	push	edi
; File z:\sources\lunor\repos\rougemeilland\palmtree.math.core.uint\palmtree.math.core.uint\pmc_inline_func.h

; 364  :         return (_FROMDWORDTOWORD((_UINT64_T)u * v, w_hi));

	mov	edi, eax
	mov	ebx, edx

; 254  :         return (_addcarryx_u32(carry, u, v, w));

	add	edi, DWORD PTR [esi]
	mov	eax, 0
; File z:\sources\lunor\repos\rougemeilland\palmtree.math.core.uint\palmtree.math.core.uint\pmc_divrem.c

; 447  :     c = _SUBTRUCT_UNIT_DIV(c, *up, t_lo, up);

	mov	edx, DWORD PTR _up$[ebp]
; File z:\sources\lunor\repos\rougemeilland\palmtree.math.core.uint\palmtree.math.core.uint\pmc_inline_func.h

; 254  :         return (_addcarryx_u32(carry, u, v, w));

	adcx	ebx, eax

; 282  :         return (_subborrow_u32(borrow, u, v, w));

	mov	al, BYTE PTR _c$[ebp]
	add	al, 255					; 000000ffH
; File z:\sources\lunor\repos\rougemeilland\palmtree.math.core.uint\palmtree.math.core.uint\pmc_divrem.c

; 447  :     c = _SUBTRUCT_UNIT_DIV(c, *up, t_lo, up);

	mov	ecx, DWORD PTR [edx]
; File z:\sources\lunor\repos\rougemeilland\palmtree.math.core.uint\palmtree.math.core.uint\pmc_inline_func.h

; 282  :         return (_subborrow_u32(borrow, u, v, w));

	sbb	ecx, edi
; File z:\sources\lunor\repos\rougemeilland\palmtree.math.core.uint\palmtree.math.core.uint\pmc_divrem.c

; 449  :     return (c);

	pop	edi
; File z:\sources\lunor\repos\rougemeilland\palmtree.math.core.uint\palmtree.math.core.uint\pmc_inline_func.h

; 282  :         return (_subborrow_u32(borrow, u, v, w));

	mov	DWORD PTR [edx], ecx
	setb	al
; File z:\sources\lunor\repos\rougemeilland\palmtree.math.core.uint\palmtree.math.core.uint\pmc_divrem.c

; 448  :     *k = t_hi;

	mov	DWORD PTR [esi], ebx

; 449  :     return (c);

	pop	esi
	pop	ebx

; 450  : }

	pop	ebp
	ret	0
__MULTIPLYX_DIGIT_UNIT_DIV ENDP
_TEXT	ENDS
; Function compile flags: /Ogtp
; File z:\sources\lunor\repos\rougemeilland\palmtree.math.core.uint\palmtree.math.core.uint\pmc_divrem.c
; File z:\sources\lunor\repos\rougemeilland\palmtree.math.core.uint\palmtree.math.core.uint\pmc_inline_func.h
; File z:\sources\lunor\repos\rougemeilland\palmtree.math.core.uint\palmtree.math.core.uint\pmc_divrem.c
; File z:\sources\lunor\repos\rougemeilland\palmtree.math.core.uint\palmtree.math.core.uint\pmc_inline_func.h
; File z:\sources\lunor\repos\rougemeilland\palmtree.math.core.uint\palmtree.math.core.uint\pmc_divrem.c
; File z:\sources\lunor\repos\rougemeilland\palmtree.math.core.uint\palmtree.math.core.uint\pmc_inline_func.h
; File z:\sources\lunor\repos\rougemeilland\palmtree.math.core.uint\palmtree.math.core.uint\pmc_divrem.c
; File z:\sources\lunor\repos\rougemeilland\palmtree.math.core.uint\palmtree.math.core.uint\pmc_inline_func.h
; File z:\sources\lunor\repos\rougemeilland\palmtree.math.core.uint\palmtree.math.core.uint\pmc_divrem.c
; File z:\sources\lunor\repos\rougemeilland\palmtree.math.core.uint\palmtree.math.core.uint\pmc_inline_func.h
; File z:\sources\lunor\repos\rougemeilland\palmtree.math.core.uint\palmtree.math.core.uint\pmc_divrem.c
; File z:\sources\lunor\repos\rougemeilland\palmtree.math.core.uint\palmtree.math.core.uint\pmc_inline_func.h
; File z:\sources\lunor\repos\rougemeilland\palmtree.math.core.uint\palmtree.math.core.uint\pmc_divrem.c
;	COMDAT __MULTIPLY_DIGIT_UNIT_DIV
_TEXT	SEGMENT
_c$ = 8							; size = 1
_k$ = 12						; size = 4
_vp$ = 16						; size = 4
_q_$ = 20						; size = 4
_up$ = 24						; size = 4
__MULTIPLY_DIGIT_UNIT_DIV PROC				; COMDAT

; 431  : {

	push	ebp
	mov	ebp, esp
; File z:\sources\lunor\repos\rougemeilland\palmtree.math.core.uint\palmtree.math.core.uint\pmc_inline_func.h

; 318  :         return (_FROMDWORDTOWORD((_UINT64_T)u * v, w_hi));

	mov	eax, DWORD PTR _vp$[ebp]
; File z:\sources\lunor\repos\rougemeilland\palmtree.math.core.uint\palmtree.math.core.uint\pmc_divrem.c

; 431  : {

	push	ebx
	push	esi

; 432  :     __UNIT_TYPE_DIV t_hi;
; 433  :     __UNIT_TYPE_DIV t_lo;
; 434  :     t_lo = _MULTIPLY_UNIT_DIV(*vp, q_, &t_hi);
; 435  :     _ADD_UNIT_DIV(_ADD_UNIT_DIV(0, t_lo, *k, &t_lo), t_hi, 0, &t_hi);

	mov	esi, DWORD PTR _k$[ebp]
; File z:\sources\lunor\repos\rougemeilland\palmtree.math.core.uint\palmtree.math.core.uint\pmc_inline_func.h

; 318  :         return (_FROMDWORDTOWORD((_UINT64_T)u * v, w_hi));

	mov	eax, DWORD PTR [eax]
	mul	DWORD PTR _q_$[ebp]
; File z:\sources\lunor\repos\rougemeilland\palmtree.math.core.uint\palmtree.math.core.uint\pmc_divrem.c

; 431  : {

	push	edi
; File z:\sources\lunor\repos\rougemeilland\palmtree.math.core.uint\palmtree.math.core.uint\pmc_inline_func.h

; 318  :         return (_FROMDWORDTOWORD((_UINT64_T)u * v, w_hi));

	mov	edi, eax
	mov	ebx, edx

; 226  :         return (_addcarry_u32(carry, u, v, w));

	add	edi, DWORD PTR [esi]
; File z:\sources\lunor\repos\rougemeilland\palmtree.math.core.uint\palmtree.math.core.uint\pmc_divrem.c

; 436  :     c = _SUBTRUCT_UNIT_DIV(c, *up, t_lo, up);

	mov	edx, DWORD PTR _up$[ebp]
; File z:\sources\lunor\repos\rougemeilland\palmtree.math.core.uint\palmtree.math.core.uint\pmc_inline_func.h

; 282  :         return (_subborrow_u32(borrow, u, v, w));

	mov	al, BYTE PTR _c$[ebp]

; 226  :         return (_addcarry_u32(carry, u, v, w));

	adc	ebx, 0

; 282  :         return (_subborrow_u32(borrow, u, v, w));

	add	al, 255					; 000000ffH
; File z:\sources\lunor\repos\rougemeilland\palmtree.math.core.uint\palmtree.math.core.uint\pmc_divrem.c

; 436  :     c = _SUBTRUCT_UNIT_DIV(c, *up, t_lo, up);

	mov	ecx, DWORD PTR [edx]
; File z:\sources\lunor\repos\rougemeilland\palmtree.math.core.uint\palmtree.math.core.uint\pmc_inline_func.h

; 282  :         return (_subborrow_u32(borrow, u, v, w));

	sbb	ecx, edi
; File z:\sources\lunor\repos\rougemeilland\palmtree.math.core.uint\palmtree.math.core.uint\pmc_divrem.c

; 438  :     return (c);

	pop	edi
; File z:\sources\lunor\repos\rougemeilland\palmtree.math.core.uint\palmtree.math.core.uint\pmc_inline_func.h

; 282  :         return (_subborrow_u32(borrow, u, v, w));

	mov	DWORD PTR [edx], ecx
	setb	al
; File z:\sources\lunor\repos\rougemeilland\palmtree.math.core.uint\palmtree.math.core.uint\pmc_divrem.c

; 437  :     *k = t_hi;

	mov	DWORD PTR [esi], ebx

; 438  :     return (c);

	pop	esi
	pop	ebx

; 439  : }

	pop	ebp
	ret	0
__MULTIPLY_DIGIT_UNIT_DIV ENDP
_TEXT	ENDS
; Function compile flags: /Ogtp
; File z:\sources\lunor\repos\rougemeilland\palmtree.math.core.uint\palmtree.math.core.uint\pmc_divrem.c
; File z:\sources\lunor\repos\rougemeilland\palmtree.math.core.uint\palmtree.math.core.uint\pmc_inline_func.h
; File z:\sources\lunor\repos\rougemeilland\palmtree.math.core.uint\palmtree.math.core.uint\pmc_divrem.c
;	COMDAT _DoBorrow
_TEXT	SEGMENT
_c$ = 8							; size = 1
_up$ = 12						; size = 4
_u_count$ = 16						; size = 4
_DoBorrow PROC						; COMDAT

; 391  : {

	push	ebp
	mov	ebp, esp

; 392  :     // 桁借りを続く限り行う
; 393  :     for (;;)
; 394  :     {
; 395  :         if (u_count <= 0)

	mov	al, BYTE PTR _c$[ebp]
	push	esi
	mov	esi, DWORD PTR _u_count$[ebp]
	test	esi, esi
	je	SHORT $LN14@DoBorrow
	mov	edx, DWORD PTR _up$[ebp]
$LL2@DoBorrow:

; 405  :             }
; 406  : 
; 407  :             // u の最上位に達してしまった場合はいずれにしろループを中断して正常復帰する。
; 408  : 
; 409  :             return (FALSE);
; 410  :         }
; 411  :         else if (c)

	test	al, al
	je	SHORT $LN8@DoBorrow

; 412  :         {
; 413  :             // u の最上位に達しておらず、かつボローが立っている場合
; 414  : 
; 415  :             // 桁借りを継続する
; 416  :             c = _SUBTRUCT_UNIT_DIV(c, *up, 0, up);

	mov	ecx, DWORD PTR [edx]
; File z:\sources\lunor\repos\rougemeilland\palmtree.math.core.uint\palmtree.math.core.uint\pmc_inline_func.h

; 282  :         return (_subborrow_u32(borrow, u, v, w));

	add	al, 255					; 000000ffH
	sbb	ecx, 0
	mov	DWORD PTR [edx], ecx
	setb	al
; File z:\sources\lunor\repos\rougemeilland\palmtree.math.core.uint\palmtree.math.core.uint\pmc_divrem.c

; 417  :             ++up;

	add	edx, 4

; 418  :             --u_count;

	sub	esi, 1
	jne	SHORT $LL2@DoBorrow
$LN14@DoBorrow:

; 396  :         {
; 397  :             // u の最上位まで達してしまった場合
; 398  : 
; 399  :             if (c)

	test	al, al
	je	SHORT $LN8@DoBorrow

; 400  :             {
; 401  :                 // かつそれでも桁借りを行う必要がある場合
; 402  : 
; 403  :                 // 減算結果が負になってしまったので呼び出し元に通知する。
; 404  :                 return (TRUE);

	mov	eax, 1
	pop	esi

; 426  :         }
; 427  :     }
; 428  : }

	pop	ebp
	ret	0
$LN8@DoBorrow:

; 419  :         }
; 420  :         else
; 421  :         {
; 422  :             // u の最上位に達しておらず、かつボローが立っていない場合
; 423  : 
; 424  :             // 桁借りを中断し復帰する。
; 425  :             return (FALSE);

	xor	eax, eax
	pop	esi

; 426  :         }
; 427  :     }
; 428  : }

	pop	ebp
	ret	0
_DoBorrow ENDP
_TEXT	ENDS
; Function compile flags: /Ogtp
; File z:\sources\lunor\repos\rougemeilland\palmtree.math.core.uint\palmtree.math.core.uint\pmc_divrem.c
; File z:\sources\lunor\repos\rougemeilland\palmtree.math.core.uint\palmtree.math.core.uint\pmc_uint_internal.h
; File z:\sources\lunor\repos\rougemeilland\palmtree.math.core.uint\palmtree.math.core.uint\pmc_inline_func.h
; File z:\sources\lunor\repos\rougemeilland\palmtree.math.core.uint\palmtree.math.core.uint\pmc_divrem.c
; File z:\sources\lunor\repos\rougemeilland\palmtree.math.core.uint\palmtree.math.core.uint\pmc_inline_func.h
; File z:\sources\lunor\repos\rougemeilland\palmtree.math.core.uint\palmtree.math.core.uint\pmc_uint_internal.h
; File z:\sources\lunor\repos\rougemeilland\palmtree.math.core.uint\palmtree.math.core.uint\pmc_inline_func.h
; File z:\sources\lunor\repos\rougemeilland\palmtree.math.core.uint\palmtree.math.core.uint\pmc_uint_internal.h
; File z:\sources\lunor\repos\rougemeilland\palmtree.math.core.uint\palmtree.math.core.uint\pmc_divrem.c
; File z:\sources\lunor\repos\rougemeilland\palmtree.math.core.uint\palmtree.math.core.uint\pmc_inline_func.h
; File z:\sources\lunor\repos\rougemeilland\palmtree.math.core.uint\palmtree.math.core.uint\pmc_uint_internal.h
; File z:\sources\lunor\repos\rougemeilland\palmtree.math.core.uint\palmtree.math.core.uint\pmc_inline_func.h
; File z:\sources\lunor\repos\rougemeilland\palmtree.math.core.uint\palmtree.math.core.uint\pmc_uint_internal.h
; File z:\sources\lunor\repos\rougemeilland\palmtree.math.core.uint\palmtree.math.core.uint\pmc_divrem.c
;	COMDAT _CalculateQ_X
_TEXT	SEGMENT
_value$1$ = -8						; size = 4
_lh_mi$1$ = -4						; size = 4
tv328 = 8						; size = 4
_u_buf$ = 8						; size = 4
_rh_mi$1$ = 12						; size = 4
_v_buf$ = 12						; size = 4
_value$1$ = 16						; size = 4
_v2$1$ = 16						; size = 4
_v_buf_len$ = 16					; size = 4
_v1$1$ = 20						; size = 4
_q_index$ = 20						; size = 4
_CalculateQ_X PROC					; COMDAT

; 366  : {

	push	ebp
	mov	ebp, esp
	sub	esp, 8

; 367  :     __UNIT_TYPE u_index = q_index + v_buf_len;

	mov	edx, DWORD PTR _v_buf_len$[ebp]

; 368  :     __UNIT_TYPE_DIV uj = u_buf[u_index];

	mov	eax, DWORD PTR _u_buf$[ebp]
	mov	ecx, DWORD PTR _q_index$[ebp]
	add	ecx, edx
	push	ebx
	push	esi
	push	edi
	mov	ebx, DWORD PTR [eax+ecx*4]

; 369  :     __UNIT_TYPE_DIV uj_1 = u_buf[u_index - 1];

	mov	edi, DWORD PTR [eax+ecx*4-4]

; 370  :     __UNIT_TYPE_DIV uj_2 = u_buf[u_index - 2];

	mov	ecx, DWORD PTR [eax+ecx*4-8]

; 371  :     __UNIT_TYPE_DIV v1 = v_buf[v_buf_len - 1];

	mov	eax, DWORD PTR _v_buf$[ebp]
	mov	DWORD PTR tv328[ebp], ecx
	mov	esi, DWORD PTR [eax+edx*4-4]

; 372  :     __UNIT_TYPE_DIV v2 = v_buf[v_buf_len - 2];

	mov	eax, DWORD PTR [eax+edx*4-8]
	mov	DWORD PTR _v1$1$[ebp], esi
	mov	DWORD PTR _v2$1$[ebp], eax

; 250  :     if (uj == v1)

	cmp	ebx, esi
	jne	SHORT $LN6@CalculateQ

; 251  :         return (-1);

	or	esi, -1
	jmp	SHORT $LN5@CalculateQ
$LN6@CalculateQ:
; File z:\sources\lunor\repos\rougemeilland\palmtree.math.core.uint\palmtree.math.core.uint\pmc_uint_internal.h

; 317  :         _InterlockedIncrement(&statistics_info.COUNT_DIV32);

	lock	 inc	 (null) PTR _statistics_info+12
; File z:\sources\lunor\repos\rougemeilland\palmtree.math.core.uint\palmtree.math.core.uint\pmc_inline_func.h

; 391  :             return ((_UINT32_T)(t / v));

	push	0
	push	esi

; 178  :         return (((_UINT64_T)value_high << 32) | value_low);

	xor	ecx, ecx
	mov	eax, ebx
	or	ecx, edi

; 391  :             return ((_UINT32_T)(t / v));

	push	eax
	push	ecx
	call	__aulldiv
; File z:\sources\lunor\repos\rougemeilland\palmtree.math.core.uint\palmtree.math.core.uint\pmc_divrem.c

; 260  :     return (q);

	mov	esi, eax
$LN5@CalculateQ:
; File z:\sources\lunor\repos\rougemeilland\palmtree.math.core.uint\palmtree.math.core.uint\pmc_inline_func.h

; 364  :         return (_FROMDWORDTOWORD((_UINT64_T)u * v, w_hi));

	mov	eax, esi

; 282  :         return (_subborrow_u32(borrow, u, v, w));

	mov	ecx, edi

; 364  :         return (_FROMDWORDTOWORD((_UINT64_T)u * v, w_hi));

	mul	DWORD PTR _v2$1$[ebp]
	mov	DWORD PTR _value$1$[ebp], eax
	mov	eax, esi
	mov	DWORD PTR _lh_mi$1$[ebp], edx
	mul	DWORD PTR _v1$1$[ebp]

; 282  :         return (_subborrow_u32(borrow, u, v, w));

	sub	ecx, eax
; File z:\sources\lunor\repos\rougemeilland\palmtree.math.core.uint\palmtree.math.core.uint\pmc_uint_internal.h

; 352  :         _InterlockedExchangeAdd(&statistics_info.COUNT_MULTI32, value);

	mov	eax, 2
; File z:\sources\lunor\repos\rougemeilland\palmtree.math.core.uint\palmtree.math.core.uint\pmc_inline_func.h

; 282  :         return (_subborrow_u32(borrow, u, v, w));

	mov	DWORD PTR _rh_mi$1$[ebp], ecx
	mov	ecx, ebx
	sbb	ecx, edx
; File z:\sources\lunor\repos\rougemeilland\palmtree.math.core.uint\palmtree.math.core.uint\pmc_uint_internal.h

; 352  :         _InterlockedExchangeAdd(&statistics_info.COUNT_MULTI32, value);

	mov	edx, OFFSET _statistics_info+4
	lock	 xadd	 DWORD PTR [edx], eax
; File z:\sources\lunor\repos\rougemeilland\palmtree.math.core.uint\palmtree.math.core.uint\pmc_divrem.c

; 317  :     if (rh_hi > 0)

	test	ecx, ecx
	jne	SHORT $LN74@CalculateQ

; 318  :     {
; 319  : #ifdef DO_TRACE
; 320  :         ReportVar("result", 0);
; 321  : #endif
; 322  :         return (FALSE);
; 323  :     }
; 324  :     else if (lh_mi > rh_mi)

	mov	eax, DWORD PTR _rh_mi$1$[ebp]
	cmp	DWORD PTR _lh_mi$1$[ebp], eax
	ja	SHORT $LN2@CalculateQ

; 325  :     {
; 326  : #ifdef DO_TRACE
; 327  :         ReportVar("result", 1);
; 328  : #endif
; 329  :         return (TRUE);
; 330  :     }
; 331  :     else if (lh_mi < rh_mi)

	jb	SHORT $LN74@CalculateQ

; 373  :     __UNIT_TYPE_DIV q_ = AsumeQ_(uj, uj_1, v1);
; 374  : #ifdef DO_TRACE
; 375  :     ReportLabel("q_ の計算");
; 376  :     ReportVar("uj", uj);
; 377  :     ReportVar("uj1", uj_1);
; 378  :     ReportVar("v1", v1);
; 379  :     ReportVar("q_", q_);
; 380  : #endif
; 381  :     if (!CheckQ_X(q_, uj, uj_1, uj_2, v1, v2))

	mov	eax, DWORD PTR _value$1$[ebp]
	cmp	eax, DWORD PTR tv328[ebp]
	jbe	SHORT $LN74@CalculateQ
$LN2@CalculateQ:

; 382  :         return (q_);
; 383  :     --q_;

	dec	esi
; File z:\sources\lunor\repos\rougemeilland\palmtree.math.core.uint\palmtree.math.core.uint\pmc_inline_func.h

; 364  :         return (_FROMDWORDTOWORD((_UINT64_T)u * v, w_hi));

	mov	eax, esi
	mul	DWORD PTR _v2$1$[ebp]
	mov	DWORD PTR _value$1$[ebp], eax
	mov	ecx, edx
	mov	eax, esi
	mul	DWORD PTR _v1$1$[ebp]

; 282  :         return (_subborrow_u32(borrow, u, v, w));

	sub	edi, eax
; File z:\sources\lunor\repos\rougemeilland\palmtree.math.core.uint\palmtree.math.core.uint\pmc_uint_internal.h

; 352  :         _InterlockedExchangeAdd(&statistics_info.COUNT_MULTI32, value);

	mov	eax, 2
; File z:\sources\lunor\repos\rougemeilland\palmtree.math.core.uint\palmtree.math.core.uint\pmc_inline_func.h

; 282  :         return (_subborrow_u32(borrow, u, v, w));

	sbb	ebx, edx
; File z:\sources\lunor\repos\rougemeilland\palmtree.math.core.uint\palmtree.math.core.uint\pmc_uint_internal.h

; 352  :         _InterlockedExchangeAdd(&statistics_info.COUNT_MULTI32, value);

	mov	edx, OFFSET _statistics_info+4
	lock	 xadd	 DWORD PTR [edx], eax
; File z:\sources\lunor\repos\rougemeilland\palmtree.math.core.uint\palmtree.math.core.uint\pmc_divrem.c

; 317  :     if (rh_hi > 0)

	test	ebx, ebx
	jne	SHORT $LN74@CalculateQ

; 318  :     {
; 319  : #ifdef DO_TRACE
; 320  :         ReportVar("result", 0);
; 321  : #endif
; 322  :         return (FALSE);
; 323  :     }
; 324  :     else if (lh_mi > rh_mi)

	cmp	ecx, edi
	ja	SHORT $LN3@CalculateQ

; 325  :     {
; 326  : #ifdef DO_TRACE
; 327  :         ReportVar("result", 1);
; 328  : #endif
; 329  :         return (TRUE);
; 330  :     }
; 331  :     else if (lh_mi < rh_mi)

	jb	SHORT $LN74@CalculateQ

; 384  :     if (!CheckQ_X(q_, uj, uj_1, uj_2, v1, v2))

	mov	eax, DWORD PTR _value$1$[ebp]
	cmp	eax, DWORD PTR tv328[ebp]
	jbe	SHORT $LN74@CalculateQ
$LN3@CalculateQ:
	pop	edi

; 385  :         return (q_);
; 386  :     --q_;

	lea	eax, DWORD PTR [esi-1]

; 387  :     return (q_);
; 388  : }

	pop	esi
	pop	ebx
	mov	esp, ebp
	pop	ebp
	ret	0
$LN74@CalculateQ:
	pop	edi
	mov	eax, esi
	pop	esi
	pop	ebx
	mov	esp, ebp
	pop	ebp
	ret	0
_CalculateQ_X ENDP
_TEXT	ENDS
; Function compile flags: /Ogtp
; File z:\sources\lunor\repos\rougemeilland\palmtree.math.core.uint\palmtree.math.core.uint\pmc_divrem.c
; File z:\sources\lunor\repos\rougemeilland\palmtree.math.core.uint\palmtree.math.core.uint\pmc_uint_internal.h
; File z:\sources\lunor\repos\rougemeilland\palmtree.math.core.uint\palmtree.math.core.uint\pmc_inline_func.h
; File z:\sources\lunor\repos\rougemeilland\palmtree.math.core.uint\palmtree.math.core.uint\pmc_divrem.c
; File z:\sources\lunor\repos\rougemeilland\palmtree.math.core.uint\palmtree.math.core.uint\pmc_inline_func.h
; File z:\sources\lunor\repos\rougemeilland\palmtree.math.core.uint\palmtree.math.core.uint\pmc_uint_internal.h
; File z:\sources\lunor\repos\rougemeilland\palmtree.math.core.uint\palmtree.math.core.uint\pmc_inline_func.h
; File z:\sources\lunor\repos\rougemeilland\palmtree.math.core.uint\palmtree.math.core.uint\pmc_uint_internal.h
; File z:\sources\lunor\repos\rougemeilland\palmtree.math.core.uint\palmtree.math.core.uint\pmc_divrem.c
; File z:\sources\lunor\repos\rougemeilland\palmtree.math.core.uint\palmtree.math.core.uint\pmc_inline_func.h
; File z:\sources\lunor\repos\rougemeilland\palmtree.math.core.uint\palmtree.math.core.uint\pmc_uint_internal.h
; File z:\sources\lunor\repos\rougemeilland\palmtree.math.core.uint\palmtree.math.core.uint\pmc_inline_func.h
; File z:\sources\lunor\repos\rougemeilland\palmtree.math.core.uint\palmtree.math.core.uint\pmc_uint_internal.h
; File z:\sources\lunor\repos\rougemeilland\palmtree.math.core.uint\palmtree.math.core.uint\pmc_divrem.c
;	COMDAT _CalculateQ_
_TEXT	SEGMENT
_value$1$ = -8						; size = 4
_lh_mi$1$ = -4						; size = 4
tv328 = 8						; size = 4
_u_buf$ = 8						; size = 4
_rh_mi$1$ = 12						; size = 4
_v_buf$ = 12						; size = 4
_value$1$ = 16						; size = 4
_v2$1$ = 16						; size = 4
_v_buf_len$ = 16					; size = 4
_v1$1$ = 20						; size = 4
_q_index$ = 20						; size = 4
_CalculateQ_ PROC					; COMDAT

; 348  : {

	push	ebp
	mov	ebp, esp
	sub	esp, 8

; 349  :     __UNIT_TYPE u_index = q_index + v_buf_len;

	mov	edx, DWORD PTR _v_buf_len$[ebp]

; 350  :     __UNIT_TYPE_DIV uj = u_buf[u_index];

	mov	eax, DWORD PTR _u_buf$[ebp]
	mov	ecx, DWORD PTR _q_index$[ebp]
	add	ecx, edx
	push	ebx
	push	esi
	push	edi
	mov	ebx, DWORD PTR [eax+ecx*4]

; 351  :     __UNIT_TYPE_DIV uj_1 = u_buf[u_index - 1];

	mov	edi, DWORD PTR [eax+ecx*4-4]

; 352  :     __UNIT_TYPE_DIV uj_2 = u_buf[u_index - 2];

	mov	ecx, DWORD PTR [eax+ecx*4-8]

; 353  :     __UNIT_TYPE_DIV v1 = v_buf[v_buf_len - 1];

	mov	eax, DWORD PTR _v_buf$[ebp]
	mov	DWORD PTR tv328[ebp], ecx
	mov	esi, DWORD PTR [eax+edx*4-4]

; 354  :     __UNIT_TYPE_DIV v2 = v_buf[v_buf_len - 2];

	mov	eax, DWORD PTR [eax+edx*4-8]
	mov	DWORD PTR _v1$1$[ebp], esi
	mov	DWORD PTR _v2$1$[ebp], eax

; 250  :     if (uj == v1)

	cmp	ebx, esi
	jne	SHORT $LN6@CalculateQ

; 251  :         return (-1);

	or	esi, -1
	jmp	SHORT $LN5@CalculateQ
$LN6@CalculateQ:
; File z:\sources\lunor\repos\rougemeilland\palmtree.math.core.uint\palmtree.math.core.uint\pmc_uint_internal.h

; 317  :         _InterlockedIncrement(&statistics_info.COUNT_DIV32);

	lock	 inc	 (null) PTR _statistics_info+12
; File z:\sources\lunor\repos\rougemeilland\palmtree.math.core.uint\palmtree.math.core.uint\pmc_inline_func.h

; 391  :             return ((_UINT32_T)(t / v));

	push	0
	push	esi

; 178  :         return (((_UINT64_T)value_high << 32) | value_low);

	xor	ecx, ecx
	mov	eax, ebx
	or	ecx, edi

; 391  :             return ((_UINT32_T)(t / v));

	push	eax
	push	ecx
	call	__aulldiv
; File z:\sources\lunor\repos\rougemeilland\palmtree.math.core.uint\palmtree.math.core.uint\pmc_divrem.c

; 260  :     return (q);

	mov	esi, eax
$LN5@CalculateQ:
; File z:\sources\lunor\repos\rougemeilland\palmtree.math.core.uint\palmtree.math.core.uint\pmc_inline_func.h

; 318  :         return (_FROMDWORDTOWORD((_UINT64_T)u * v, w_hi));

	mov	eax, esi

; 282  :         return (_subborrow_u32(borrow, u, v, w));

	mov	ecx, edi

; 318  :         return (_FROMDWORDTOWORD((_UINT64_T)u * v, w_hi));

	mul	DWORD PTR _v2$1$[ebp]
	mov	DWORD PTR _value$1$[ebp], eax
	mov	eax, esi
	mov	DWORD PTR _lh_mi$1$[ebp], edx
	mul	DWORD PTR _v1$1$[ebp]

; 282  :         return (_subborrow_u32(borrow, u, v, w));

	sub	ecx, eax
; File z:\sources\lunor\repos\rougemeilland\palmtree.math.core.uint\palmtree.math.core.uint\pmc_uint_internal.h

; 352  :         _InterlockedExchangeAdd(&statistics_info.COUNT_MULTI32, value);

	mov	eax, 2
; File z:\sources\lunor\repos\rougemeilland\palmtree.math.core.uint\palmtree.math.core.uint\pmc_inline_func.h

; 282  :         return (_subborrow_u32(borrow, u, v, w));

	mov	DWORD PTR _rh_mi$1$[ebp], ecx
	mov	ecx, ebx
	sbb	ecx, edx
; File z:\sources\lunor\repos\rougemeilland\palmtree.math.core.uint\palmtree.math.core.uint\pmc_uint_internal.h

; 352  :         _InterlockedExchangeAdd(&statistics_info.COUNT_MULTI32, value);

	mov	edx, OFFSET _statistics_info+4
	lock	 xadd	 DWORD PTR [edx], eax
; File z:\sources\lunor\repos\rougemeilland\palmtree.math.core.uint\palmtree.math.core.uint\pmc_divrem.c

; 280  :     if (rh_hi > 0)

	test	ecx, ecx
	jne	SHORT $LN74@CalculateQ

; 281  :         return (FALSE);
; 282  :     else if (lh_mi > rh_mi)

	mov	eax, DWORD PTR _rh_mi$1$[ebp]
	cmp	DWORD PTR _lh_mi$1$[ebp], eax
	ja	SHORT $LN2@CalculateQ

; 283  :         return (TRUE);
; 284  :     else if (lh_mi < rh_mi)

	jb	SHORT $LN74@CalculateQ

; 355  :     __UNIT_TYPE_DIV q_ = AsumeQ_(uj, uj_1, v1);
; 356  :     if (!CheckQ_(q_, uj, uj_1, uj_2, v1, v2))

	mov	eax, DWORD PTR _value$1$[ebp]
	cmp	eax, DWORD PTR tv328[ebp]
	jbe	SHORT $LN74@CalculateQ
$LN2@CalculateQ:

; 357  :         return (q_);
; 358  :     --q_;

	dec	esi
; File z:\sources\lunor\repos\rougemeilland\palmtree.math.core.uint\palmtree.math.core.uint\pmc_inline_func.h

; 318  :         return (_FROMDWORDTOWORD((_UINT64_T)u * v, w_hi));

	mov	eax, esi
	mul	DWORD PTR _v2$1$[ebp]
	mov	DWORD PTR _value$1$[ebp], eax
	mov	ecx, edx
	mov	eax, esi
	mul	DWORD PTR _v1$1$[ebp]

; 282  :         return (_subborrow_u32(borrow, u, v, w));

	sub	edi, eax
; File z:\sources\lunor\repos\rougemeilland\palmtree.math.core.uint\palmtree.math.core.uint\pmc_uint_internal.h

; 352  :         _InterlockedExchangeAdd(&statistics_info.COUNT_MULTI32, value);

	mov	eax, 2
; File z:\sources\lunor\repos\rougemeilland\palmtree.math.core.uint\palmtree.math.core.uint\pmc_inline_func.h

; 282  :         return (_subborrow_u32(borrow, u, v, w));

	sbb	ebx, edx
; File z:\sources\lunor\repos\rougemeilland\palmtree.math.core.uint\palmtree.math.core.uint\pmc_uint_internal.h

; 352  :         _InterlockedExchangeAdd(&statistics_info.COUNT_MULTI32, value);

	mov	edx, OFFSET _statistics_info+4
	lock	 xadd	 DWORD PTR [edx], eax
; File z:\sources\lunor\repos\rougemeilland\palmtree.math.core.uint\palmtree.math.core.uint\pmc_divrem.c

; 280  :     if (rh_hi > 0)

	test	ebx, ebx
	jne	SHORT $LN74@CalculateQ

; 281  :         return (FALSE);
; 282  :     else if (lh_mi > rh_mi)

	cmp	ecx, edi
	ja	SHORT $LN3@CalculateQ

; 283  :         return (TRUE);
; 284  :     else if (lh_mi < rh_mi)

	jb	SHORT $LN74@CalculateQ

; 359  :     if (!CheckQ_(q_, uj, uj_1, uj_2, v1, v2))

	mov	eax, DWORD PTR _value$1$[ebp]
	cmp	eax, DWORD PTR tv328[ebp]
	jbe	SHORT $LN74@CalculateQ
$LN3@CalculateQ:
	pop	edi

; 360  :         return (q_);
; 361  :     --q_;

	lea	eax, DWORD PTR [esi-1]

; 362  :     return (q_);
; 363  : }

	pop	esi
	pop	ebx
	mov	esp, ebp
	pop	ebp
	ret	0
$LN74@CalculateQ:
	pop	edi
	mov	eax, esi
	pop	esi
	pop	ebx
	mov	esp, ebp
	pop	ebp
	ret	0
_CalculateQ_ ENDP
_TEXT	ENDS
; Function compile flags: /Ogtp
; File z:\sources\lunor\repos\rougemeilland\palmtree.math.core.uint\palmtree.math.core.uint\pmc_divrem.c
; File z:\sources\lunor\repos\rougemeilland\palmtree.math.core.uint\palmtree.math.core.uint\pmc_inline_func.h
; File z:\sources\lunor\repos\rougemeilland\palmtree.math.core.uint\palmtree.math.core.uint\pmc_divrem.c
; File z:\sources\lunor\repos\rougemeilland\palmtree.math.core.uint\palmtree.math.core.uint\pmc_inline_func.h
; File z:\sources\lunor\repos\rougemeilland\palmtree.math.core.uint\palmtree.math.core.uint\pmc_divrem.c
; File z:\sources\lunor\repos\rougemeilland\palmtree.math.core.uint\palmtree.math.core.uint\pmc_inline_func.h
; File z:\sources\lunor\repos\rougemeilland\palmtree.math.core.uint\palmtree.math.core.uint\pmc_uint_internal.h
; File z:\sources\lunor\repos\rougemeilland\palmtree.math.core.uint\palmtree.math.core.uint\pmc_inline_func.h
; File z:\sources\lunor\repos\rougemeilland\palmtree.math.core.uint\palmtree.math.core.uint\pmc_uint_internal.h
; File z:\sources\lunor\repos\rougemeilland\palmtree.math.core.uint\palmtree.math.core.uint\pmc_divrem.c
;	COMDAT _CheckQ_X
_TEXT	SEGMENT
_q_$ = 8						; size = 4
_uj$ = 12						; size = 4
_uj_1$ = 16						; size = 4
_uj_2$ = 20						; size = 4
_v1$ = 24						; size = 4
_v2$ = 28						; size = 4
_CheckQ_X PROC						; COMDAT

; 291  : {

	push	ebp
	mov	ebp, esp
; File z:\sources\lunor\repos\rougemeilland\palmtree.math.core.uint\palmtree.math.core.uint\pmc_inline_func.h

; 364  :         return (_FROMDWORDTOWORD((_UINT64_T)u * v, w_hi));

	mov	eax, DWORD PTR _q_$[ebp]
	mul	DWORD PTR _v2$[ebp]

; 282  :         return (_subborrow_u32(borrow, u, v, w));

	mov	ecx, DWORD PTR _uj$[ebp]
; File z:\sources\lunor\repos\rougemeilland\palmtree.math.core.uint\palmtree.math.core.uint\pmc_divrem.c

; 291  : {

	push	ebx
	push	esi
; File z:\sources\lunor\repos\rougemeilland\palmtree.math.core.uint\palmtree.math.core.uint\pmc_inline_func.h

; 282  :         return (_subborrow_u32(borrow, u, v, w));

	mov	esi, DWORD PTR _uj_1$[ebp]

; 364  :         return (_FROMDWORDTOWORD((_UINT64_T)u * v, w_hi));

	mov	ebx, eax
	mov	eax, DWORD PTR _q_$[ebp]
; File z:\sources\lunor\repos\rougemeilland\palmtree.math.core.uint\palmtree.math.core.uint\pmc_divrem.c

; 291  : {

	push	edi
; File z:\sources\lunor\repos\rougemeilland\palmtree.math.core.uint\palmtree.math.core.uint\pmc_inline_func.h

; 364  :         return (_FROMDWORDTOWORD((_UINT64_T)u * v, w_hi));

	mov	edi, edx
	mul	DWORD PTR _v1$[ebp]

; 282  :         return (_subborrow_u32(borrow, u, v, w));

	sub	esi, eax
; File z:\sources\lunor\repos\rougemeilland\palmtree.math.core.uint\palmtree.math.core.uint\pmc_uint_internal.h

; 352  :         _InterlockedExchangeAdd(&statistics_info.COUNT_MULTI32, value);

	mov	eax, 2
; File z:\sources\lunor\repos\rougemeilland\palmtree.math.core.uint\palmtree.math.core.uint\pmc_inline_func.h

; 282  :         return (_subborrow_u32(borrow, u, v, w));

	sbb	ecx, edx
; File z:\sources\lunor\repos\rougemeilland\palmtree.math.core.uint\palmtree.math.core.uint\pmc_uint_internal.h

; 352  :         _InterlockedExchangeAdd(&statistics_info.COUNT_MULTI32, value);

	mov	edx, OFFSET _statistics_info+4
	lock	 xadd	 DWORD PTR [edx], eax
; File z:\sources\lunor\repos\rougemeilland\palmtree.math.core.uint\palmtree.math.core.uint\pmc_divrem.c

; 317  :     if (rh_hi > 0)

	test	ecx, ecx
	jne	SHORT $LN27@CheckQ_X

; 318  :     {
; 319  : #ifdef DO_TRACE
; 320  :         ReportVar("result", 0);
; 321  : #endif
; 322  :         return (FALSE);
; 323  :     }
; 324  :     else if (lh_mi > rh_mi)

	cmp	edi, esi
	jbe	SHORT $LN6@CheckQ_X

; 344  :     }
; 345  : }

	pop	edi
	pop	esi
	lea	eax, DWORD PTR [ecx+1]
	pop	ebx
	pop	ebp
	ret	0
$LN6@CheckQ_X:

; 325  :     {
; 326  : #ifdef DO_TRACE
; 327  :         ReportVar("result", 1);
; 328  : #endif
; 329  :         return (TRUE);
; 330  :     }
; 331  :     else if (lh_mi < rh_mi)

	jb	SHORT $LN27@CheckQ_X

; 332  :     {
; 333  : #ifdef DO_TRACE
; 334  :         ReportVar("result", 0);
; 335  : #endif
; 336  :         return (FALSE);
; 337  :     }
; 338  :     else
; 339  :     {
; 340  : #ifdef DO_TRACE
; 341  :         ReportVar("result", lh_lo > rh_lo);
; 342  : #endif
; 343  :         return (lh_lo > rh_lo);

	cmp	DWORD PTR _uj_2$[ebp], ebx
	pop	edi
	sbb	eax, eax

; 344  :     }
; 345  : }

	pop	esi
	neg	eax
	pop	ebx
	pop	ebp
	ret	0
$LN27@CheckQ_X:
	pop	edi
	pop	esi
	xor	eax, eax
	pop	ebx
	pop	ebp
	ret	0
_CheckQ_X ENDP
_TEXT	ENDS
; Function compile flags: /Ogtp
; File z:\sources\lunor\repos\rougemeilland\palmtree.math.core.uint\palmtree.math.core.uint\pmc_divrem.c
; File z:\sources\lunor\repos\rougemeilland\palmtree.math.core.uint\palmtree.math.core.uint\pmc_inline_func.h
; File z:\sources\lunor\repos\rougemeilland\palmtree.math.core.uint\palmtree.math.core.uint\pmc_divrem.c
; File z:\sources\lunor\repos\rougemeilland\palmtree.math.core.uint\palmtree.math.core.uint\pmc_inline_func.h
; File z:\sources\lunor\repos\rougemeilland\palmtree.math.core.uint\palmtree.math.core.uint\pmc_divrem.c
; File z:\sources\lunor\repos\rougemeilland\palmtree.math.core.uint\palmtree.math.core.uint\pmc_inline_func.h
; File z:\sources\lunor\repos\rougemeilland\palmtree.math.core.uint\palmtree.math.core.uint\pmc_uint_internal.h
; File z:\sources\lunor\repos\rougemeilland\palmtree.math.core.uint\palmtree.math.core.uint\pmc_inline_func.h
; File z:\sources\lunor\repos\rougemeilland\palmtree.math.core.uint\palmtree.math.core.uint\pmc_uint_internal.h
; File z:\sources\lunor\repos\rougemeilland\palmtree.math.core.uint\palmtree.math.core.uint\pmc_divrem.c
;	COMDAT _CheckQ_
_TEXT	SEGMENT
_q_$ = 8						; size = 4
_uj$ = 12						; size = 4
_uj_1$ = 16						; size = 4
_uj_2$ = 20						; size = 4
_v1$ = 24						; size = 4
_v2$ = 28						; size = 4
_CheckQ_ PROC						; COMDAT

; 264  : {

	push	ebp
	mov	ebp, esp
; File z:\sources\lunor\repos\rougemeilland\palmtree.math.core.uint\palmtree.math.core.uint\pmc_inline_func.h

; 318  :         return (_FROMDWORDTOWORD((_UINT64_T)u * v, w_hi));

	mov	eax, DWORD PTR _q_$[ebp]
	mul	DWORD PTR _v2$[ebp]

; 282  :         return (_subborrow_u32(borrow, u, v, w));

	mov	ecx, DWORD PTR _uj$[ebp]
; File z:\sources\lunor\repos\rougemeilland\palmtree.math.core.uint\palmtree.math.core.uint\pmc_divrem.c

; 264  : {

	push	ebx
	push	esi
; File z:\sources\lunor\repos\rougemeilland\palmtree.math.core.uint\palmtree.math.core.uint\pmc_inline_func.h

; 282  :         return (_subborrow_u32(borrow, u, v, w));

	mov	esi, DWORD PTR _uj_1$[ebp]

; 318  :         return (_FROMDWORDTOWORD((_UINT64_T)u * v, w_hi));

	mov	ebx, eax
	mov	eax, DWORD PTR _q_$[ebp]
; File z:\sources\lunor\repos\rougemeilland\palmtree.math.core.uint\palmtree.math.core.uint\pmc_divrem.c

; 264  : {

	push	edi
; File z:\sources\lunor\repos\rougemeilland\palmtree.math.core.uint\palmtree.math.core.uint\pmc_inline_func.h

; 318  :         return (_FROMDWORDTOWORD((_UINT64_T)u * v, w_hi));

	mov	edi, edx
	mul	DWORD PTR _v1$[ebp]

; 282  :         return (_subborrow_u32(borrow, u, v, w));

	sub	esi, eax
; File z:\sources\lunor\repos\rougemeilland\palmtree.math.core.uint\palmtree.math.core.uint\pmc_uint_internal.h

; 352  :         _InterlockedExchangeAdd(&statistics_info.COUNT_MULTI32, value);

	mov	eax, 2
; File z:\sources\lunor\repos\rougemeilland\palmtree.math.core.uint\palmtree.math.core.uint\pmc_inline_func.h

; 282  :         return (_subborrow_u32(borrow, u, v, w));

	sbb	ecx, edx
; File z:\sources\lunor\repos\rougemeilland\palmtree.math.core.uint\palmtree.math.core.uint\pmc_uint_internal.h

; 352  :         _InterlockedExchangeAdd(&statistics_info.COUNT_MULTI32, value);

	mov	edx, OFFSET _statistics_info+4
	lock	 xadd	 DWORD PTR [edx], eax
; File z:\sources\lunor\repos\rougemeilland\palmtree.math.core.uint\palmtree.math.core.uint\pmc_divrem.c

; 280  :     if (rh_hi > 0)

	test	ecx, ecx
	jne	SHORT $LN27@CheckQ_

; 281  :         return (FALSE);
; 282  :     else if (lh_mi > rh_mi)

	cmp	edi, esi
	jbe	SHORT $LN6@CheckQ_

; 288  : }

	pop	edi
	pop	esi
	lea	eax, DWORD PTR [ecx+1]
	pop	ebx
	pop	ebp
	ret	0
$LN6@CheckQ_:

; 283  :         return (TRUE);
; 284  :     else if (lh_mi < rh_mi)

	jb	SHORT $LN27@CheckQ_

; 285  :         return (FALSE);
; 286  :     else
; 287  :         return (lh_lo > rh_lo);

	cmp	DWORD PTR _uj_2$[ebp], ebx
	pop	edi
	sbb	eax, eax

; 288  : }

	pop	esi
	neg	eax
	pop	ebx
	pop	ebp
	ret	0
$LN27@CheckQ_:
	pop	edi
	pop	esi
	xor	eax, eax
	pop	ebx
	pop	ebp
	ret	0
_CheckQ_ ENDP
_TEXT	ENDS
; Function compile flags: /Ogtp
; File z:\sources\lunor\repos\rougemeilland\palmtree.math.core.uint\palmtree.math.core.uint\pmc_divrem.c
; File z:\sources\lunor\repos\rougemeilland\palmtree.math.core.uint\palmtree.math.core.uint\pmc_uint_internal.h
; File z:\sources\lunor\repos\rougemeilland\palmtree.math.core.uint\palmtree.math.core.uint\pmc_inline_func.h
; File z:\sources\lunor\repos\rougemeilland\palmtree.math.core.uint\palmtree.math.core.uint\pmc_divrem.c
;	COMDAT _AsumeQ_
_TEXT	SEGMENT
_uj$ = 8						; size = 4
_uj_1$ = 12						; size = 4
_v1$ = 16						; size = 4
_AsumeQ_ PROC						; COMDAT

; 249  : {

	push	ebp
	mov	ebp, esp

; 250  :     if (uj == v1)

	mov	ecx, DWORD PTR _uj$[ebp]
	mov	edx, DWORD PTR _v1$[ebp]
	cmp	ecx, edx
	jne	SHORT $LN2@AsumeQ_

; 251  :         return (-1);

	or	eax, -1

; 261  : }

	pop	ebp
	ret	0
$LN2@AsumeQ_:
; File z:\sources\lunor\repos\rougemeilland\palmtree.math.core.uint\palmtree.math.core.uint\pmc_uint_internal.h

; 317  :         _InterlockedIncrement(&statistics_info.COUNT_DIV32);

	lock	 inc	 (null) PTR _statistics_info+12
; File z:\sources\lunor\repos\rougemeilland\palmtree.math.core.uint\palmtree.math.core.uint\pmc_inline_func.h

; 391  :             return ((_UINT32_T)(t / v));

	push	0
	push	edx

; 178  :         return (((_UINT64_T)value_high << 32) | value_low);

	xor	eax, eax
	or	eax, DWORD PTR _uj_1$[ebp]

; 391  :             return ((_UINT32_T)(t / v));

	push	ecx
	push	eax
	call	__aulldiv
; File z:\sources\lunor\repos\rougemeilland\palmtree.math.core.uint\palmtree.math.core.uint\pmc_divrem.c

; 261  : }

	pop	ebp
	ret	0
_AsumeQ_ ENDP
_TEXT	ENDS
; Function compile flags: /Ogtp
; File z:\sources\lunor\repos\rougemeilland\palmtree.math.core.uint\palmtree.math.core.uint\autogenerated_inline_func.h
; File z:\sources\lunor\repos\rougemeilland\palmtree.math.core.uint\palmtree.math.core.uint\pmc_inline_func.h
; File z:\sources\lunor\repos\rougemeilland\palmtree.math.core.uint\palmtree.math.core.uint\autogenerated_inline_func.h
; File z:\sources\lunor\repos\rougemeilland\palmtree.math.core.uint\palmtree.math.core.uint\pmc_inline_func.h
; File z:\sources\lunor\repos\rougemeilland\palmtree.math.core.uint\palmtree.math.core.uint\autogenerated_inline_func.h
; File z:\sources\lunor\repos\rougemeilland\palmtree.math.core.uint\palmtree.math.core.uint\pmc_inline_func.h
; File z:\sources\lunor\repos\rougemeilland\palmtree.math.core.uint\palmtree.math.core.uint\autogenerated_inline_func.h
; File z:\sources\lunor\repos\rougemeilland\palmtree.math.core.uint\palmtree.math.core.uint\pmc_inline_func.h
; File z:\sources\lunor\repos\rougemeilland\palmtree.math.core.uint\palmtree.math.core.uint\autogenerated_inline_func.h
; File z:\sources\lunor\repos\rougemeilland\palmtree.math.core.uint\palmtree.math.core.uint\pmc_inline_func.h
; File z:\sources\lunor\repos\rougemeilland\palmtree.math.core.uint\palmtree.math.core.uint\autogenerated_inline_func.h
;	COMDAT __ADD_2WORDS_ADCX_DIV
_TEXT	SEGMENT
_c$ = 8							; size = 1
_xp$ = 12						; size = 4
_yp$ = 16						; size = 4
_zp$ = 20						; size = 4
__ADD_2WORDS_ADCX_DIV PROC				; COMDAT

; 4550 : {

	push	ebp
	mov	ebp, esp

; 4552 :     c = _ADDX_UNIT_DIV(c, xp[0], yp[0], &zp[0]);

	mov	edx, DWORD PTR _xp$[ebp]
; File z:\sources\lunor\repos\rougemeilland\palmtree.math.core.uint\palmtree.math.core.uint\pmc_inline_func.h

; 254  :         return (_addcarryx_u32(carry, u, v, w));

	mov	al, BYTE PTR _c$[ebp]
; File z:\sources\lunor\repos\rougemeilland\palmtree.math.core.uint\palmtree.math.core.uint\autogenerated_inline_func.h

; 4550 : {

	push	esi

; 4552 :     c = _ADDX_UNIT_DIV(c, xp[0], yp[0], &zp[0]);

	mov	esi, DWORD PTR _yp$[ebp]
; File z:\sources\lunor\repos\rougemeilland\palmtree.math.core.uint\palmtree.math.core.uint\pmc_inline_func.h

; 254  :         return (_addcarryx_u32(carry, u, v, w));

	add	al, 255					; 000000ffH
; File z:\sources\lunor\repos\rougemeilland\palmtree.math.core.uint\palmtree.math.core.uint\autogenerated_inline_func.h

; 4552 :     c = _ADDX_UNIT_DIV(c, xp[0], yp[0], &zp[0]);

	mov	ecx, DWORD PTR [edx]
	push	edi
; File z:\sources\lunor\repos\rougemeilland\palmtree.math.core.uint\palmtree.math.core.uint\pmc_inline_func.h

; 254  :         return (_addcarryx_u32(carry, u, v, w));

	mov	edi, DWORD PTR _zp$[ebp]
	adcx	ecx, DWORD PTR [esi]
	mov	DWORD PTR [edi], ecx
; File z:\sources\lunor\repos\rougemeilland\palmtree.math.core.uint\palmtree.math.core.uint\autogenerated_inline_func.h

; 4553 :     c = _ADDX_UNIT_DIV(c, xp[1], yp[1], &zp[1]);

	mov	ecx, DWORD PTR [edx+4]
; File z:\sources\lunor\repos\rougemeilland\palmtree.math.core.uint\palmtree.math.core.uint\pmc_inline_func.h

; 254  :         return (_addcarryx_u32(carry, u, v, w));

	adcx	ecx, DWORD PTR [esi+4]
	mov	DWORD PTR [edi+4], ecx
; File z:\sources\lunor\repos\rougemeilland\palmtree.math.core.uint\palmtree.math.core.uint\autogenerated_inline_func.h

; 4589 :     return (c);

	pop	edi
; File z:\sources\lunor\repos\rougemeilland\palmtree.math.core.uint\palmtree.math.core.uint\pmc_inline_func.h

; 254  :         return (_addcarryx_u32(carry, u, v, w));

	setb	al
; File z:\sources\lunor\repos\rougemeilland\palmtree.math.core.uint\palmtree.math.core.uint\autogenerated_inline_func.h

; 4589 :     return (c);

	pop	esi

; 4590 : }

	pop	ebp
	ret	0
__ADD_2WORDS_ADCX_DIV ENDP
_TEXT	ENDS
; Function compile flags: /Ogtp
; File z:\sources\lunor\repos\rougemeilland\palmtree.math.core.uint\palmtree.math.core.uint\autogenerated_inline_func.h
; File z:\sources\lunor\repos\rougemeilland\palmtree.math.core.uint\palmtree.math.core.uint\pmc_inline_func.h
; File z:\sources\lunor\repos\rougemeilland\palmtree.math.core.uint\palmtree.math.core.uint\autogenerated_inline_func.h
; File z:\sources\lunor\repos\rougemeilland\palmtree.math.core.uint\palmtree.math.core.uint\pmc_inline_func.h
; File z:\sources\lunor\repos\rougemeilland\palmtree.math.core.uint\palmtree.math.core.uint\autogenerated_inline_func.h
; File z:\sources\lunor\repos\rougemeilland\palmtree.math.core.uint\palmtree.math.core.uint\pmc_inline_func.h
; File z:\sources\lunor\repos\rougemeilland\palmtree.math.core.uint\palmtree.math.core.uint\autogenerated_inline_func.h
; File z:\sources\lunor\repos\rougemeilland\palmtree.math.core.uint\palmtree.math.core.uint\pmc_inline_func.h
; File z:\sources\lunor\repos\rougemeilland\palmtree.math.core.uint\palmtree.math.core.uint\autogenerated_inline_func.h
; File z:\sources\lunor\repos\rougemeilland\palmtree.math.core.uint\palmtree.math.core.uint\pmc_inline_func.h
; File z:\sources\lunor\repos\rougemeilland\palmtree.math.core.uint\palmtree.math.core.uint\autogenerated_inline_func.h
;	COMDAT __ADD_2WORDS_ADC_DIV
_TEXT	SEGMENT
_c$ = 8							; size = 1
_xp$ = 12						; size = 4
_yp$ = 16						; size = 4
_zp$ = 20						; size = 4
__ADD_2WORDS_ADC_DIV PROC				; COMDAT

; 4507 : {

	push	ebp
	mov	ebp, esp

; 4509 :     c = _ADD_UNIT_DIV(c, xp[0], yp[0], &zp[0]);

	mov	edx, DWORD PTR _xp$[ebp]
; File z:\sources\lunor\repos\rougemeilland\palmtree.math.core.uint\palmtree.math.core.uint\pmc_inline_func.h

; 226  :         return (_addcarry_u32(carry, u, v, w));

	mov	al, BYTE PTR _c$[ebp]
; File z:\sources\lunor\repos\rougemeilland\palmtree.math.core.uint\palmtree.math.core.uint\autogenerated_inline_func.h

; 4507 : {

	push	esi

; 4509 :     c = _ADD_UNIT_DIV(c, xp[0], yp[0], &zp[0]);

	mov	esi, DWORD PTR _yp$[ebp]
; File z:\sources\lunor\repos\rougemeilland\palmtree.math.core.uint\palmtree.math.core.uint\pmc_inline_func.h

; 226  :         return (_addcarry_u32(carry, u, v, w));

	add	al, 255					; 000000ffH
; File z:\sources\lunor\repos\rougemeilland\palmtree.math.core.uint\palmtree.math.core.uint\autogenerated_inline_func.h

; 4509 :     c = _ADD_UNIT_DIV(c, xp[0], yp[0], &zp[0]);

	mov	ecx, DWORD PTR [edx]
	push	edi
; File z:\sources\lunor\repos\rougemeilland\palmtree.math.core.uint\palmtree.math.core.uint\pmc_inline_func.h

; 226  :         return (_addcarry_u32(carry, u, v, w));

	mov	edi, DWORD PTR _zp$[ebp]
	adc	ecx, DWORD PTR [esi]
	mov	DWORD PTR [edi], ecx
; File z:\sources\lunor\repos\rougemeilland\palmtree.math.core.uint\palmtree.math.core.uint\autogenerated_inline_func.h

; 4510 :     c = _ADD_UNIT_DIV(c, xp[1], yp[1], &zp[1]);

	mov	ecx, DWORD PTR [edx+4]
; File z:\sources\lunor\repos\rougemeilland\palmtree.math.core.uint\palmtree.math.core.uint\pmc_inline_func.h

; 226  :         return (_addcarry_u32(carry, u, v, w));

	adc	ecx, DWORD PTR [esi+4]
	mov	DWORD PTR [edi+4], ecx
; File z:\sources\lunor\repos\rougemeilland\palmtree.math.core.uint\palmtree.math.core.uint\autogenerated_inline_func.h

; 4546 :     return (c);

	pop	edi
; File z:\sources\lunor\repos\rougemeilland\palmtree.math.core.uint\palmtree.math.core.uint\pmc_inline_func.h

; 226  :         return (_addcarry_u32(carry, u, v, w));

	setb	al
; File z:\sources\lunor\repos\rougemeilland\palmtree.math.core.uint\palmtree.math.core.uint\autogenerated_inline_func.h

; 4546 :     return (c);

	pop	esi

; 4547 : }

	pop	ebp
	ret	0
__ADD_2WORDS_ADC_DIV ENDP
_TEXT	ENDS
; Function compile flags: /Ogtp
; File z:\sources\lunor\repos\rougemeilland\palmtree.math.core.uint\palmtree.math.core.uint\autogenerated_inline_func.h
; File z:\sources\lunor\repos\rougemeilland\palmtree.math.core.uint\palmtree.math.core.uint\pmc_inline_func.h
; File z:\sources\lunor\repos\rougemeilland\palmtree.math.core.uint\palmtree.math.core.uint\autogenerated_inline_func.h
; File z:\sources\lunor\repos\rougemeilland\palmtree.math.core.uint\palmtree.math.core.uint\pmc_inline_func.h
; File z:\sources\lunor\repos\rougemeilland\palmtree.math.core.uint\palmtree.math.core.uint\autogenerated_inline_func.h
; File z:\sources\lunor\repos\rougemeilland\palmtree.math.core.uint\palmtree.math.core.uint\pmc_inline_func.h
; File z:\sources\lunor\repos\rougemeilland\palmtree.math.core.uint\palmtree.math.core.uint\autogenerated_inline_func.h
; File z:\sources\lunor\repos\rougemeilland\palmtree.math.core.uint\palmtree.math.core.uint\pmc_inline_func.h
; File z:\sources\lunor\repos\rougemeilland\palmtree.math.core.uint\palmtree.math.core.uint\autogenerated_inline_func.h
; File z:\sources\lunor\repos\rougemeilland\palmtree.math.core.uint\palmtree.math.core.uint\pmc_inline_func.h
; File z:\sources\lunor\repos\rougemeilland\palmtree.math.core.uint\palmtree.math.core.uint\autogenerated_inline_func.h
; File z:\sources\lunor\repos\rougemeilland\palmtree.math.core.uint\palmtree.math.core.uint\pmc_inline_func.h
; File z:\sources\lunor\repos\rougemeilland\palmtree.math.core.uint\palmtree.math.core.uint\autogenerated_inline_func.h
; File z:\sources\lunor\repos\rougemeilland\palmtree.math.core.uint\palmtree.math.core.uint\pmc_inline_func.h
; File z:\sources\lunor\repos\rougemeilland\palmtree.math.core.uint\palmtree.math.core.uint\autogenerated_inline_func.h
;	COMDAT __ADD_4WORDS_ADCX_DIV
_TEXT	SEGMENT
_c$ = 8							; size = 1
_xp$ = 12						; size = 4
_yp$ = 16						; size = 4
_zp$ = 20						; size = 4
__ADD_4WORDS_ADCX_DIV PROC				; COMDAT

; 4164 : {

	push	ebp
	mov	ebp, esp

; 4166 :     c = _ADDX_UNIT_DIV(c, xp[0], yp[0], &zp[0]);

	mov	edx, DWORD PTR _xp$[ebp]
; File z:\sources\lunor\repos\rougemeilland\palmtree.math.core.uint\palmtree.math.core.uint\pmc_inline_func.h

; 254  :         return (_addcarryx_u32(carry, u, v, w));

	mov	al, BYTE PTR _c$[ebp]
; File z:\sources\lunor\repos\rougemeilland\palmtree.math.core.uint\palmtree.math.core.uint\autogenerated_inline_func.h

; 4164 : {

	push	esi

; 4166 :     c = _ADDX_UNIT_DIV(c, xp[0], yp[0], &zp[0]);

	mov	esi, DWORD PTR _yp$[ebp]
; File z:\sources\lunor\repos\rougemeilland\palmtree.math.core.uint\palmtree.math.core.uint\pmc_inline_func.h

; 254  :         return (_addcarryx_u32(carry, u, v, w));

	add	al, 255					; 000000ffH
; File z:\sources\lunor\repos\rougemeilland\palmtree.math.core.uint\palmtree.math.core.uint\autogenerated_inline_func.h

; 4166 :     c = _ADDX_UNIT_DIV(c, xp[0], yp[0], &zp[0]);

	mov	ecx, DWORD PTR [edx]
	push	edi
; File z:\sources\lunor\repos\rougemeilland\palmtree.math.core.uint\palmtree.math.core.uint\pmc_inline_func.h

; 254  :         return (_addcarryx_u32(carry, u, v, w));

	mov	edi, DWORD PTR _zp$[ebp]
	adcx	ecx, DWORD PTR [esi]
	mov	DWORD PTR [edi], ecx
; File z:\sources\lunor\repos\rougemeilland\palmtree.math.core.uint\palmtree.math.core.uint\autogenerated_inline_func.h

; 4167 :     c = _ADDX_UNIT_DIV(c, xp[1], yp[1], &zp[1]);

	mov	eax, DWORD PTR [edx+4]
; File z:\sources\lunor\repos\rougemeilland\palmtree.math.core.uint\palmtree.math.core.uint\pmc_inline_func.h

; 254  :         return (_addcarryx_u32(carry, u, v, w));

	adcx	eax, DWORD PTR [esi+4]
	mov	DWORD PTR [edi+4], eax
; File z:\sources\lunor\repos\rougemeilland\palmtree.math.core.uint\palmtree.math.core.uint\autogenerated_inline_func.h

; 4168 :     c = _ADDX_UNIT_DIV(c, xp[2], yp[2], &zp[2]);

	mov	eax, DWORD PTR [edx+8]
; File z:\sources\lunor\repos\rougemeilland\palmtree.math.core.uint\palmtree.math.core.uint\pmc_inline_func.h

; 254  :         return (_addcarryx_u32(carry, u, v, w));

	adcx	eax, DWORD PTR [esi+8]
	mov	DWORD PTR [edi+8], eax
; File z:\sources\lunor\repos\rougemeilland\palmtree.math.core.uint\palmtree.math.core.uint\autogenerated_inline_func.h

; 4169 :     c = _ADDX_UNIT_DIV(c, xp[3], yp[3], &zp[3]);

	mov	ecx, DWORD PTR [edx+12]
; File z:\sources\lunor\repos\rougemeilland\palmtree.math.core.uint\palmtree.math.core.uint\pmc_inline_func.h

; 254  :         return (_addcarryx_u32(carry, u, v, w));

	adcx	ecx, DWORD PTR [esi+12]
	mov	DWORD PTR [edi+12], ecx
; File z:\sources\lunor\repos\rougemeilland\palmtree.math.core.uint\palmtree.math.core.uint\autogenerated_inline_func.h

; 4217 :     return (c);

	pop	edi
; File z:\sources\lunor\repos\rougemeilland\palmtree.math.core.uint\palmtree.math.core.uint\pmc_inline_func.h

; 254  :         return (_addcarryx_u32(carry, u, v, w));

	setb	al
; File z:\sources\lunor\repos\rougemeilland\palmtree.math.core.uint\palmtree.math.core.uint\autogenerated_inline_func.h

; 4217 :     return (c);

	pop	esi

; 4218 : }

	pop	ebp
	ret	0
__ADD_4WORDS_ADCX_DIV ENDP
_TEXT	ENDS
; Function compile flags: /Ogtp
; File z:\sources\lunor\repos\rougemeilland\palmtree.math.core.uint\palmtree.math.core.uint\autogenerated_inline_func.h
; File z:\sources\lunor\repos\rougemeilland\palmtree.math.core.uint\palmtree.math.core.uint\pmc_inline_func.h
; File z:\sources\lunor\repos\rougemeilland\palmtree.math.core.uint\palmtree.math.core.uint\autogenerated_inline_func.h
; File z:\sources\lunor\repos\rougemeilland\palmtree.math.core.uint\palmtree.math.core.uint\pmc_inline_func.h
; File z:\sources\lunor\repos\rougemeilland\palmtree.math.core.uint\palmtree.math.core.uint\autogenerated_inline_func.h
; File z:\sources\lunor\repos\rougemeilland\palmtree.math.core.uint\palmtree.math.core.uint\pmc_inline_func.h
; File z:\sources\lunor\repos\rougemeilland\palmtree.math.core.uint\palmtree.math.core.uint\autogenerated_inline_func.h
; File z:\sources\lunor\repos\rougemeilland\palmtree.math.core.uint\palmtree.math.core.uint\pmc_inline_func.h
; File z:\sources\lunor\repos\rougemeilland\palmtree.math.core.uint\palmtree.math.core.uint\autogenerated_inline_func.h
; File z:\sources\lunor\repos\rougemeilland\palmtree.math.core.uint\palmtree.math.core.uint\pmc_inline_func.h
; File z:\sources\lunor\repos\rougemeilland\palmtree.math.core.uint\palmtree.math.core.uint\autogenerated_inline_func.h
; File z:\sources\lunor\repos\rougemeilland\palmtree.math.core.uint\palmtree.math.core.uint\pmc_inline_func.h
; File z:\sources\lunor\repos\rougemeilland\palmtree.math.core.uint\palmtree.math.core.uint\autogenerated_inline_func.h
; File z:\sources\lunor\repos\rougemeilland\palmtree.math.core.uint\palmtree.math.core.uint\pmc_inline_func.h
; File z:\sources\lunor\repos\rougemeilland\palmtree.math.core.uint\palmtree.math.core.uint\autogenerated_inline_func.h
;	COMDAT __ADD_4WORDS_ADC_DIV
_TEXT	SEGMENT
_c$ = 8							; size = 1
_xp$ = 12						; size = 4
_yp$ = 16						; size = 4
_zp$ = 20						; size = 4
__ADD_4WORDS_ADC_DIV PROC				; COMDAT

; 4107 : {

	push	ebp
	mov	ebp, esp

; 4109 :     c = _ADD_UNIT_DIV(c, xp[0], yp[0], &zp[0]);

	mov	edx, DWORD PTR _xp$[ebp]
; File z:\sources\lunor\repos\rougemeilland\palmtree.math.core.uint\palmtree.math.core.uint\pmc_inline_func.h

; 226  :         return (_addcarry_u32(carry, u, v, w));

	mov	al, BYTE PTR _c$[ebp]
; File z:\sources\lunor\repos\rougemeilland\palmtree.math.core.uint\palmtree.math.core.uint\autogenerated_inline_func.h

; 4107 : {

	push	esi

; 4109 :     c = _ADD_UNIT_DIV(c, xp[0], yp[0], &zp[0]);

	mov	esi, DWORD PTR _yp$[ebp]
; File z:\sources\lunor\repos\rougemeilland\palmtree.math.core.uint\palmtree.math.core.uint\pmc_inline_func.h

; 226  :         return (_addcarry_u32(carry, u, v, w));

	add	al, 255					; 000000ffH
; File z:\sources\lunor\repos\rougemeilland\palmtree.math.core.uint\palmtree.math.core.uint\autogenerated_inline_func.h

; 4109 :     c = _ADD_UNIT_DIV(c, xp[0], yp[0], &zp[0]);

	mov	ecx, DWORD PTR [edx]
	push	edi
; File z:\sources\lunor\repos\rougemeilland\palmtree.math.core.uint\palmtree.math.core.uint\pmc_inline_func.h

; 226  :         return (_addcarry_u32(carry, u, v, w));

	mov	edi, DWORD PTR _zp$[ebp]
	adc	ecx, DWORD PTR [esi]
	mov	DWORD PTR [edi], ecx
; File z:\sources\lunor\repos\rougemeilland\palmtree.math.core.uint\palmtree.math.core.uint\autogenerated_inline_func.h

; 4110 :     c = _ADD_UNIT_DIV(c, xp[1], yp[1], &zp[1]);

	mov	eax, DWORD PTR [edx+4]
; File z:\sources\lunor\repos\rougemeilland\palmtree.math.core.uint\palmtree.math.core.uint\pmc_inline_func.h

; 226  :         return (_addcarry_u32(carry, u, v, w));

	adc	eax, DWORD PTR [esi+4]
	mov	DWORD PTR [edi+4], eax
; File z:\sources\lunor\repos\rougemeilland\palmtree.math.core.uint\palmtree.math.core.uint\autogenerated_inline_func.h

; 4111 :     c = _ADD_UNIT_DIV(c, xp[2], yp[2], &zp[2]);

	mov	eax, DWORD PTR [edx+8]
; File z:\sources\lunor\repos\rougemeilland\palmtree.math.core.uint\palmtree.math.core.uint\pmc_inline_func.h

; 226  :         return (_addcarry_u32(carry, u, v, w));

	adc	eax, DWORD PTR [esi+8]
	mov	DWORD PTR [edi+8], eax
; File z:\sources\lunor\repos\rougemeilland\palmtree.math.core.uint\palmtree.math.core.uint\autogenerated_inline_func.h

; 4112 :     c = _ADD_UNIT_DIV(c, xp[3], yp[3], &zp[3]);

	mov	ecx, DWORD PTR [edx+12]
; File z:\sources\lunor\repos\rougemeilland\palmtree.math.core.uint\palmtree.math.core.uint\pmc_inline_func.h

; 226  :         return (_addcarry_u32(carry, u, v, w));

	adc	ecx, DWORD PTR [esi+12]
	mov	DWORD PTR [edi+12], ecx
; File z:\sources\lunor\repos\rougemeilland\palmtree.math.core.uint\palmtree.math.core.uint\autogenerated_inline_func.h

; 4160 :     return (c);

	pop	edi
; File z:\sources\lunor\repos\rougemeilland\palmtree.math.core.uint\palmtree.math.core.uint\pmc_inline_func.h

; 226  :         return (_addcarry_u32(carry, u, v, w));

	setb	al
; File z:\sources\lunor\repos\rougemeilland\palmtree.math.core.uint\palmtree.math.core.uint\autogenerated_inline_func.h

; 4160 :     return (c);

	pop	esi

; 4161 : }

	pop	ebp
	ret	0
__ADD_4WORDS_ADC_DIV ENDP
_TEXT	ENDS
; Function compile flags: /Ogtp
; File z:\sources\lunor\repos\rougemeilland\palmtree.math.core.uint\palmtree.math.core.uint\autogenerated_inline_func.h
; File z:\sources\lunor\repos\rougemeilland\palmtree.math.core.uint\palmtree.math.core.uint\pmc_inline_func.h
; File z:\sources\lunor\repos\rougemeilland\palmtree.math.core.uint\palmtree.math.core.uint\autogenerated_inline_func.h
; File z:\sources\lunor\repos\rougemeilland\palmtree.math.core.uint\palmtree.math.core.uint\pmc_inline_func.h
; File z:\sources\lunor\repos\rougemeilland\palmtree.math.core.uint\palmtree.math.core.uint\autogenerated_inline_func.h
; File z:\sources\lunor\repos\rougemeilland\palmtree.math.core.uint\palmtree.math.core.uint\pmc_inline_func.h
; File z:\sources\lunor\repos\rougemeilland\palmtree.math.core.uint\palmtree.math.core.uint\autogenerated_inline_func.h
; File z:\sources\lunor\repos\rougemeilland\palmtree.math.core.uint\palmtree.math.core.uint\pmc_inline_func.h
; File z:\sources\lunor\repos\rougemeilland\palmtree.math.core.uint\palmtree.math.core.uint\autogenerated_inline_func.h
; File z:\sources\lunor\repos\rougemeilland\palmtree.math.core.uint\palmtree.math.core.uint\pmc_inline_func.h
; File z:\sources\lunor\repos\rougemeilland\palmtree.math.core.uint\palmtree.math.core.uint\autogenerated_inline_func.h
; File z:\sources\lunor\repos\rougemeilland\palmtree.math.core.uint\palmtree.math.core.uint\pmc_inline_func.h
; File z:\sources\lunor\repos\rougemeilland\palmtree.math.core.uint\palmtree.math.core.uint\autogenerated_inline_func.h
; File z:\sources\lunor\repos\rougemeilland\palmtree.math.core.uint\palmtree.math.core.uint\pmc_inline_func.h
; File z:\sources\lunor\repos\rougemeilland\palmtree.math.core.uint\palmtree.math.core.uint\autogenerated_inline_func.h
; File z:\sources\lunor\repos\rougemeilland\palmtree.math.core.uint\palmtree.math.core.uint\pmc_inline_func.h
; File z:\sources\lunor\repos\rougemeilland\palmtree.math.core.uint\palmtree.math.core.uint\autogenerated_inline_func.h
; File z:\sources\lunor\repos\rougemeilland\palmtree.math.core.uint\palmtree.math.core.uint\pmc_inline_func.h
; File z:\sources\lunor\repos\rougemeilland\palmtree.math.core.uint\palmtree.math.core.uint\autogenerated_inline_func.h
; File z:\sources\lunor\repos\rougemeilland\palmtree.math.core.uint\palmtree.math.core.uint\pmc_inline_func.h
; File z:\sources\lunor\repos\rougemeilland\palmtree.math.core.uint\palmtree.math.core.uint\autogenerated_inline_func.h
;	COMDAT __ADD_8WORDS_ADCX_DIV
_TEXT	SEGMENT
_c$ = 8							; size = 1
_xp$ = 12						; size = 4
_yp$ = 16						; size = 4
_zp$ = 20						; size = 4
__ADD_8WORDS_ADCX_DIV PROC				; COMDAT

; 3624 : {

	push	ebp
	mov	ebp, esp

; 3625 : #ifdef _MSC_VER
; 3626 :     c = _ADDX_UNIT_DIV(c, xp[0], yp[0], &zp[0]);

	mov	edx, DWORD PTR _xp$[ebp]
; File z:\sources\lunor\repos\rougemeilland\palmtree.math.core.uint\palmtree.math.core.uint\pmc_inline_func.h

; 254  :         return (_addcarryx_u32(carry, u, v, w));

	mov	al, BYTE PTR _c$[ebp]
	add	al, 255					; 000000ffH
; File z:\sources\lunor\repos\rougemeilland\palmtree.math.core.uint\palmtree.math.core.uint\autogenerated_inline_func.h

; 3624 : {

	push	esi

; 3625 : #ifdef _MSC_VER
; 3626 :     c = _ADDX_UNIT_DIV(c, xp[0], yp[0], &zp[0]);

	mov	esi, DWORD PTR _yp$[ebp]
	mov	ecx, DWORD PTR [edx]
	push	edi
; File z:\sources\lunor\repos\rougemeilland\palmtree.math.core.uint\palmtree.math.core.uint\pmc_inline_func.h

; 254  :         return (_addcarryx_u32(carry, u, v, w));

	mov	edi, DWORD PTR _zp$[ebp]
	adcx	ecx, DWORD PTR [esi]
	mov	DWORD PTR [edi], ecx
; File z:\sources\lunor\repos\rougemeilland\palmtree.math.core.uint\palmtree.math.core.uint\autogenerated_inline_func.h

; 3627 :     c = _ADDX_UNIT_DIV(c, xp[1], yp[1], &zp[1]);

	mov	eax, DWORD PTR [edx+4]
; File z:\sources\lunor\repos\rougemeilland\palmtree.math.core.uint\palmtree.math.core.uint\pmc_inline_func.h

; 254  :         return (_addcarryx_u32(carry, u, v, w));

	adcx	eax, DWORD PTR [esi+4]
	mov	DWORD PTR [edi+4], eax
; File z:\sources\lunor\repos\rougemeilland\palmtree.math.core.uint\palmtree.math.core.uint\autogenerated_inline_func.h

; 3628 :     c = _ADDX_UNIT_DIV(c, xp[2], yp[2], &zp[2]);

	mov	eax, DWORD PTR [edx+8]
; File z:\sources\lunor\repos\rougemeilland\palmtree.math.core.uint\palmtree.math.core.uint\pmc_inline_func.h

; 254  :         return (_addcarryx_u32(carry, u, v, w));

	adcx	eax, DWORD PTR [esi+8]
	mov	DWORD PTR [edi+8], eax
; File z:\sources\lunor\repos\rougemeilland\palmtree.math.core.uint\palmtree.math.core.uint\autogenerated_inline_func.h

; 3629 :     c = _ADDX_UNIT_DIV(c, xp[3], yp[3], &zp[3]);

	mov	eax, DWORD PTR [edx+12]
; File z:\sources\lunor\repos\rougemeilland\palmtree.math.core.uint\palmtree.math.core.uint\pmc_inline_func.h

; 254  :         return (_addcarryx_u32(carry, u, v, w));

	adcx	eax, DWORD PTR [esi+12]
	mov	DWORD PTR [edi+12], eax
; File z:\sources\lunor\repos\rougemeilland\palmtree.math.core.uint\palmtree.math.core.uint\autogenerated_inline_func.h

; 3630 :     c = _ADDX_UNIT_DIV(c, xp[4], yp[4], &zp[4]);

	mov	eax, DWORD PTR [edx+16]
; File z:\sources\lunor\repos\rougemeilland\palmtree.math.core.uint\palmtree.math.core.uint\pmc_inline_func.h

; 254  :         return (_addcarryx_u32(carry, u, v, w));

	adcx	eax, DWORD PTR [esi+16]
	mov	DWORD PTR [edi+16], eax
; File z:\sources\lunor\repos\rougemeilland\palmtree.math.core.uint\palmtree.math.core.uint\autogenerated_inline_func.h

; 3631 :     c = _ADDX_UNIT_DIV(c, xp[5], yp[5], &zp[5]);

	mov	eax, DWORD PTR [edx+20]
; File z:\sources\lunor\repos\rougemeilland\palmtree.math.core.uint\palmtree.math.core.uint\pmc_inline_func.h

; 254  :         return (_addcarryx_u32(carry, u, v, w));

	adcx	eax, DWORD PTR [esi+20]
	mov	DWORD PTR [edi+20], eax
; File z:\sources\lunor\repos\rougemeilland\palmtree.math.core.uint\palmtree.math.core.uint\autogenerated_inline_func.h

; 3632 :     c = _ADDX_UNIT_DIV(c, xp[6], yp[6], &zp[6]);

	mov	eax, DWORD PTR [edx+24]
; File z:\sources\lunor\repos\rougemeilland\palmtree.math.core.uint\palmtree.math.core.uint\pmc_inline_func.h

; 254  :         return (_addcarryx_u32(carry, u, v, w));

	adcx	eax, DWORD PTR [esi+24]
	mov	DWORD PTR [edi+24], eax
; File z:\sources\lunor\repos\rougemeilland\palmtree.math.core.uint\palmtree.math.core.uint\autogenerated_inline_func.h

; 3633 :     c = _ADDX_UNIT_DIV(c, xp[7], yp[7], &zp[7]);

	mov	ecx, DWORD PTR [edx+28]
; File z:\sources\lunor\repos\rougemeilland\palmtree.math.core.uint\palmtree.math.core.uint\pmc_inline_func.h

; 254  :         return (_addcarryx_u32(carry, u, v, w));

	adcx	ecx, DWORD PTR [esi+28]
	mov	DWORD PTR [edi+28], ecx
; File z:\sources\lunor\repos\rougemeilland\palmtree.math.core.uint\palmtree.math.core.uint\autogenerated_inline_func.h

; 3705 :     return (c);

	pop	edi
; File z:\sources\lunor\repos\rougemeilland\palmtree.math.core.uint\palmtree.math.core.uint\pmc_inline_func.h

; 254  :         return (_addcarryx_u32(carry, u, v, w));

	setb	al
; File z:\sources\lunor\repos\rougemeilland\palmtree.math.core.uint\palmtree.math.core.uint\autogenerated_inline_func.h

; 3705 :     return (c);

	pop	esi

; 3706 : }

	pop	ebp
	ret	0
__ADD_8WORDS_ADCX_DIV ENDP
_TEXT	ENDS
; Function compile flags: /Ogtp
; File z:\sources\lunor\repos\rougemeilland\palmtree.math.core.uint\palmtree.math.core.uint\autogenerated_inline_func.h
; File z:\sources\lunor\repos\rougemeilland\palmtree.math.core.uint\palmtree.math.core.uint\pmc_inline_func.h
; File z:\sources\lunor\repos\rougemeilland\palmtree.math.core.uint\palmtree.math.core.uint\autogenerated_inline_func.h
; File z:\sources\lunor\repos\rougemeilland\palmtree.math.core.uint\palmtree.math.core.uint\pmc_inline_func.h
; File z:\sources\lunor\repos\rougemeilland\palmtree.math.core.uint\palmtree.math.core.uint\autogenerated_inline_func.h
; File z:\sources\lunor\repos\rougemeilland\palmtree.math.core.uint\palmtree.math.core.uint\pmc_inline_func.h
; File z:\sources\lunor\repos\rougemeilland\palmtree.math.core.uint\palmtree.math.core.uint\autogenerated_inline_func.h
; File z:\sources\lunor\repos\rougemeilland\palmtree.math.core.uint\palmtree.math.core.uint\pmc_inline_func.h
; File z:\sources\lunor\repos\rougemeilland\palmtree.math.core.uint\palmtree.math.core.uint\autogenerated_inline_func.h
; File z:\sources\lunor\repos\rougemeilland\palmtree.math.core.uint\palmtree.math.core.uint\pmc_inline_func.h
; File z:\sources\lunor\repos\rougemeilland\palmtree.math.core.uint\palmtree.math.core.uint\autogenerated_inline_func.h
; File z:\sources\lunor\repos\rougemeilland\palmtree.math.core.uint\palmtree.math.core.uint\pmc_inline_func.h
; File z:\sources\lunor\repos\rougemeilland\palmtree.math.core.uint\palmtree.math.core.uint\autogenerated_inline_func.h
; File z:\sources\lunor\repos\rougemeilland\palmtree.math.core.uint\palmtree.math.core.uint\pmc_inline_func.h
; File z:\sources\lunor\repos\rougemeilland\palmtree.math.core.uint\palmtree.math.core.uint\autogenerated_inline_func.h
; File z:\sources\lunor\repos\rougemeilland\palmtree.math.core.uint\palmtree.math.core.uint\pmc_inline_func.h
; File z:\sources\lunor\repos\rougemeilland\palmtree.math.core.uint\palmtree.math.core.uint\autogenerated_inline_func.h
; File z:\sources\lunor\repos\rougemeilland\palmtree.math.core.uint\palmtree.math.core.uint\pmc_inline_func.h
; File z:\sources\lunor\repos\rougemeilland\palmtree.math.core.uint\palmtree.math.core.uint\autogenerated_inline_func.h
; File z:\sources\lunor\repos\rougemeilland\palmtree.math.core.uint\palmtree.math.core.uint\pmc_inline_func.h
; File z:\sources\lunor\repos\rougemeilland\palmtree.math.core.uint\palmtree.math.core.uint\autogenerated_inline_func.h
;	COMDAT __ADD_8WORDS_ADC_DIV
_TEXT	SEGMENT
_c$ = 8							; size = 1
_xp$ = 12						; size = 4
_yp$ = 16						; size = 4
_zp$ = 20						; size = 4
__ADD_8WORDS_ADC_DIV PROC				; COMDAT

; 3539 : {

	push	ebp
	mov	ebp, esp

; 3540 : #ifdef _MSC_VER
; 3541 :     c = _ADD_UNIT_DIV(c, xp[0], yp[0], &zp[0]);

	mov	edx, DWORD PTR _xp$[ebp]
; File z:\sources\lunor\repos\rougemeilland\palmtree.math.core.uint\palmtree.math.core.uint\pmc_inline_func.h

; 226  :         return (_addcarry_u32(carry, u, v, w));

	mov	al, BYTE PTR _c$[ebp]
	add	al, 255					; 000000ffH
; File z:\sources\lunor\repos\rougemeilland\palmtree.math.core.uint\palmtree.math.core.uint\autogenerated_inline_func.h

; 3539 : {

	push	esi

; 3540 : #ifdef _MSC_VER
; 3541 :     c = _ADD_UNIT_DIV(c, xp[0], yp[0], &zp[0]);

	mov	esi, DWORD PTR _yp$[ebp]
	mov	ecx, DWORD PTR [edx]
	push	edi
; File z:\sources\lunor\repos\rougemeilland\palmtree.math.core.uint\palmtree.math.core.uint\pmc_inline_func.h

; 226  :         return (_addcarry_u32(carry, u, v, w));

	mov	edi, DWORD PTR _zp$[ebp]
	adc	ecx, DWORD PTR [esi]
	mov	DWORD PTR [edi], ecx
; File z:\sources\lunor\repos\rougemeilland\palmtree.math.core.uint\palmtree.math.core.uint\autogenerated_inline_func.h

; 3542 :     c = _ADD_UNIT_DIV(c, xp[1], yp[1], &zp[1]);

	mov	eax, DWORD PTR [edx+4]
; File z:\sources\lunor\repos\rougemeilland\palmtree.math.core.uint\palmtree.math.core.uint\pmc_inline_func.h

; 226  :         return (_addcarry_u32(carry, u, v, w));

	adc	eax, DWORD PTR [esi+4]
	mov	DWORD PTR [edi+4], eax
; File z:\sources\lunor\repos\rougemeilland\palmtree.math.core.uint\palmtree.math.core.uint\autogenerated_inline_func.h

; 3543 :     c = _ADD_UNIT_DIV(c, xp[2], yp[2], &zp[2]);

	mov	eax, DWORD PTR [edx+8]
; File z:\sources\lunor\repos\rougemeilland\palmtree.math.core.uint\palmtree.math.core.uint\pmc_inline_func.h

; 226  :         return (_addcarry_u32(carry, u, v, w));

	adc	eax, DWORD PTR [esi+8]
	mov	DWORD PTR [edi+8], eax
; File z:\sources\lunor\repos\rougemeilland\palmtree.math.core.uint\palmtree.math.core.uint\autogenerated_inline_func.h

; 3544 :     c = _ADD_UNIT_DIV(c, xp[3], yp[3], &zp[3]);

	mov	eax, DWORD PTR [edx+12]
; File z:\sources\lunor\repos\rougemeilland\palmtree.math.core.uint\palmtree.math.core.uint\pmc_inline_func.h

; 226  :         return (_addcarry_u32(carry, u, v, w));

	adc	eax, DWORD PTR [esi+12]
	mov	DWORD PTR [edi+12], eax
; File z:\sources\lunor\repos\rougemeilland\palmtree.math.core.uint\palmtree.math.core.uint\autogenerated_inline_func.h

; 3545 :     c = _ADD_UNIT_DIV(c, xp[4], yp[4], &zp[4]);

	mov	eax, DWORD PTR [edx+16]
; File z:\sources\lunor\repos\rougemeilland\palmtree.math.core.uint\palmtree.math.core.uint\pmc_inline_func.h

; 226  :         return (_addcarry_u32(carry, u, v, w));

	adc	eax, DWORD PTR [esi+16]
	mov	DWORD PTR [edi+16], eax
; File z:\sources\lunor\repos\rougemeilland\palmtree.math.core.uint\palmtree.math.core.uint\autogenerated_inline_func.h

; 3546 :     c = _ADD_UNIT_DIV(c, xp[5], yp[5], &zp[5]);

	mov	eax, DWORD PTR [edx+20]
; File z:\sources\lunor\repos\rougemeilland\palmtree.math.core.uint\palmtree.math.core.uint\pmc_inline_func.h

; 226  :         return (_addcarry_u32(carry, u, v, w));

	adc	eax, DWORD PTR [esi+20]
	mov	DWORD PTR [edi+20], eax
; File z:\sources\lunor\repos\rougemeilland\palmtree.math.core.uint\palmtree.math.core.uint\autogenerated_inline_func.h

; 3547 :     c = _ADD_UNIT_DIV(c, xp[6], yp[6], &zp[6]);

	mov	eax, DWORD PTR [edx+24]
; File z:\sources\lunor\repos\rougemeilland\palmtree.math.core.uint\palmtree.math.core.uint\pmc_inline_func.h

; 226  :         return (_addcarry_u32(carry, u, v, w));

	adc	eax, DWORD PTR [esi+24]
	mov	DWORD PTR [edi+24], eax
; File z:\sources\lunor\repos\rougemeilland\palmtree.math.core.uint\palmtree.math.core.uint\autogenerated_inline_func.h

; 3548 :     c = _ADD_UNIT_DIV(c, xp[7], yp[7], &zp[7]);

	mov	ecx, DWORD PTR [edx+28]
; File z:\sources\lunor\repos\rougemeilland\palmtree.math.core.uint\palmtree.math.core.uint\pmc_inline_func.h

; 226  :         return (_addcarry_u32(carry, u, v, w));

	adc	ecx, DWORD PTR [esi+28]
	mov	DWORD PTR [edi+28], ecx
; File z:\sources\lunor\repos\rougemeilland\palmtree.math.core.uint\palmtree.math.core.uint\autogenerated_inline_func.h

; 3620 :     return (c);

	pop	edi
; File z:\sources\lunor\repos\rougemeilland\palmtree.math.core.uint\palmtree.math.core.uint\pmc_inline_func.h

; 226  :         return (_addcarry_u32(carry, u, v, w));

	setb	al
; File z:\sources\lunor\repos\rougemeilland\palmtree.math.core.uint\palmtree.math.core.uint\autogenerated_inline_func.h

; 3620 :     return (c);

	pop	esi

; 3621 : }

	pop	ebp
	ret	0
__ADD_8WORDS_ADC_DIV ENDP
_TEXT	ENDS
; Function compile flags: /Ogtp
; File z:\sources\lunor\repos\rougemeilland\palmtree.math.core.uint\palmtree.math.core.uint\autogenerated_inline_func.h
; File z:\sources\lunor\repos\rougemeilland\palmtree.math.core.uint\palmtree.math.core.uint\pmc_inline_func.h
; File z:\sources\lunor\repos\rougemeilland\palmtree.math.core.uint\palmtree.math.core.uint\autogenerated_inline_func.h
; File z:\sources\lunor\repos\rougemeilland\palmtree.math.core.uint\palmtree.math.core.uint\pmc_inline_func.h
; File z:\sources\lunor\repos\rougemeilland\palmtree.math.core.uint\palmtree.math.core.uint\autogenerated_inline_func.h
; File z:\sources\lunor\repos\rougemeilland\palmtree.math.core.uint\palmtree.math.core.uint\pmc_inline_func.h
; File z:\sources\lunor\repos\rougemeilland\palmtree.math.core.uint\palmtree.math.core.uint\autogenerated_inline_func.h
; File z:\sources\lunor\repos\rougemeilland\palmtree.math.core.uint\palmtree.math.core.uint\pmc_inline_func.h
; File z:\sources\lunor\repos\rougemeilland\palmtree.math.core.uint\palmtree.math.core.uint\autogenerated_inline_func.h
; File z:\sources\lunor\repos\rougemeilland\palmtree.math.core.uint\palmtree.math.core.uint\pmc_inline_func.h
; File z:\sources\lunor\repos\rougemeilland\palmtree.math.core.uint\palmtree.math.core.uint\autogenerated_inline_func.h
; File z:\sources\lunor\repos\rougemeilland\palmtree.math.core.uint\palmtree.math.core.uint\pmc_inline_func.h
; File z:\sources\lunor\repos\rougemeilland\palmtree.math.core.uint\palmtree.math.core.uint\autogenerated_inline_func.h
; File z:\sources\lunor\repos\rougemeilland\palmtree.math.core.uint\palmtree.math.core.uint\pmc_inline_func.h
; File z:\sources\lunor\repos\rougemeilland\palmtree.math.core.uint\palmtree.math.core.uint\autogenerated_inline_func.h
; File z:\sources\lunor\repos\rougemeilland\palmtree.math.core.uint\palmtree.math.core.uint\pmc_inline_func.h
; File z:\sources\lunor\repos\rougemeilland\palmtree.math.core.uint\palmtree.math.core.uint\autogenerated_inline_func.h
; File z:\sources\lunor\repos\rougemeilland\palmtree.math.core.uint\palmtree.math.core.uint\pmc_inline_func.h
; File z:\sources\lunor\repos\rougemeilland\palmtree.math.core.uint\palmtree.math.core.uint\autogenerated_inline_func.h
; File z:\sources\lunor\repos\rougemeilland\palmtree.math.core.uint\palmtree.math.core.uint\pmc_inline_func.h
; File z:\sources\lunor\repos\rougemeilland\palmtree.math.core.uint\palmtree.math.core.uint\autogenerated_inline_func.h
; File z:\sources\lunor\repos\rougemeilland\palmtree.math.core.uint\palmtree.math.core.uint\pmc_inline_func.h
; File z:\sources\lunor\repos\rougemeilland\palmtree.math.core.uint\palmtree.math.core.uint\autogenerated_inline_func.h
; File z:\sources\lunor\repos\rougemeilland\palmtree.math.core.uint\palmtree.math.core.uint\pmc_inline_func.h
; File z:\sources\lunor\repos\rougemeilland\palmtree.math.core.uint\palmtree.math.core.uint\autogenerated_inline_func.h
; File z:\sources\lunor\repos\rougemeilland\palmtree.math.core.uint\palmtree.math.core.uint\pmc_inline_func.h
; File z:\sources\lunor\repos\rougemeilland\palmtree.math.core.uint\palmtree.math.core.uint\autogenerated_inline_func.h
; File z:\sources\lunor\repos\rougemeilland\palmtree.math.core.uint\palmtree.math.core.uint\pmc_inline_func.h
; File z:\sources\lunor\repos\rougemeilland\palmtree.math.core.uint\palmtree.math.core.uint\autogenerated_inline_func.h
; File z:\sources\lunor\repos\rougemeilland\palmtree.math.core.uint\palmtree.math.core.uint\pmc_inline_func.h
; File z:\sources\lunor\repos\rougemeilland\palmtree.math.core.uint\palmtree.math.core.uint\autogenerated_inline_func.h
; File z:\sources\lunor\repos\rougemeilland\palmtree.math.core.uint\palmtree.math.core.uint\pmc_inline_func.h
; File z:\sources\lunor\repos\rougemeilland\palmtree.math.core.uint\palmtree.math.core.uint\autogenerated_inline_func.h
; File z:\sources\lunor\repos\rougemeilland\palmtree.math.core.uint\palmtree.math.core.uint\pmc_inline_func.h
; File z:\sources\lunor\repos\rougemeilland\palmtree.math.core.uint\palmtree.math.core.uint\autogenerated_inline_func.h
; File z:\sources\lunor\repos\rougemeilland\palmtree.math.core.uint\palmtree.math.core.uint\pmc_inline_func.h
; File z:\sources\lunor\repos\rougemeilland\palmtree.math.core.uint\palmtree.math.core.uint\autogenerated_inline_func.h
;	COMDAT __ADD_16WORDS_ADCX_DIV
_TEXT	SEGMENT
_c$ = 8							; size = 1
_xp$ = 12						; size = 4
_yp$ = 16						; size = 4
_zp$ = 20						; size = 4
__ADD_16WORDS_ADCX_DIV PROC				; COMDAT

; 2776 : {

	push	ebp
	mov	ebp, esp

; 2777 : #ifdef _MSC_VER
; 2778 :     c = _ADDX_UNIT_DIV(c, xp[0], yp[0], &zp[0]);

	mov	edx, DWORD PTR _xp$[ebp]
; File z:\sources\lunor\repos\rougemeilland\palmtree.math.core.uint\palmtree.math.core.uint\pmc_inline_func.h

; 254  :         return (_addcarryx_u32(carry, u, v, w));

	mov	al, BYTE PTR _c$[ebp]
	add	al, 255					; 000000ffH
; File z:\sources\lunor\repos\rougemeilland\palmtree.math.core.uint\palmtree.math.core.uint\autogenerated_inline_func.h

; 2776 : {

	push	esi

; 2777 : #ifdef _MSC_VER
; 2778 :     c = _ADDX_UNIT_DIV(c, xp[0], yp[0], &zp[0]);

	mov	esi, DWORD PTR _yp$[ebp]
	mov	ecx, DWORD PTR [edx]
	push	edi
; File z:\sources\lunor\repos\rougemeilland\palmtree.math.core.uint\palmtree.math.core.uint\pmc_inline_func.h

; 254  :         return (_addcarryx_u32(carry, u, v, w));

	mov	edi, DWORD PTR _zp$[ebp]
	adcx	ecx, DWORD PTR [esi]
	mov	DWORD PTR [edi], ecx
; File z:\sources\lunor\repos\rougemeilland\palmtree.math.core.uint\palmtree.math.core.uint\autogenerated_inline_func.h

; 2779 :     c = _ADDX_UNIT_DIV(c, xp[1], yp[1], &zp[1]);

	mov	eax, DWORD PTR [edx+4]
; File z:\sources\lunor\repos\rougemeilland\palmtree.math.core.uint\palmtree.math.core.uint\pmc_inline_func.h

; 254  :         return (_addcarryx_u32(carry, u, v, w));

	adcx	eax, DWORD PTR [esi+4]
	mov	DWORD PTR [edi+4], eax
; File z:\sources\lunor\repos\rougemeilland\palmtree.math.core.uint\palmtree.math.core.uint\autogenerated_inline_func.h

; 2780 :     c = _ADDX_UNIT_DIV(c, xp[2], yp[2], &zp[2]);

	mov	eax, DWORD PTR [edx+8]
; File z:\sources\lunor\repos\rougemeilland\palmtree.math.core.uint\palmtree.math.core.uint\pmc_inline_func.h

; 254  :         return (_addcarryx_u32(carry, u, v, w));

	adcx	eax, DWORD PTR [esi+8]
	mov	DWORD PTR [edi+8], eax
; File z:\sources\lunor\repos\rougemeilland\palmtree.math.core.uint\palmtree.math.core.uint\autogenerated_inline_func.h

; 2781 :     c = _ADDX_UNIT_DIV(c, xp[3], yp[3], &zp[3]);

	mov	eax, DWORD PTR [edx+12]
; File z:\sources\lunor\repos\rougemeilland\palmtree.math.core.uint\palmtree.math.core.uint\pmc_inline_func.h

; 254  :         return (_addcarryx_u32(carry, u, v, w));

	adcx	eax, DWORD PTR [esi+12]
	mov	DWORD PTR [edi+12], eax
; File z:\sources\lunor\repos\rougemeilland\palmtree.math.core.uint\palmtree.math.core.uint\autogenerated_inline_func.h

; 2782 :     c = _ADDX_UNIT_DIV(c, xp[4], yp[4], &zp[4]);

	mov	eax, DWORD PTR [edx+16]
; File z:\sources\lunor\repos\rougemeilland\palmtree.math.core.uint\palmtree.math.core.uint\pmc_inline_func.h

; 254  :         return (_addcarryx_u32(carry, u, v, w));

	adcx	eax, DWORD PTR [esi+16]
	mov	DWORD PTR [edi+16], eax
; File z:\sources\lunor\repos\rougemeilland\palmtree.math.core.uint\palmtree.math.core.uint\autogenerated_inline_func.h

; 2783 :     c = _ADDX_UNIT_DIV(c, xp[5], yp[5], &zp[5]);

	mov	eax, DWORD PTR [edx+20]
; File z:\sources\lunor\repos\rougemeilland\palmtree.math.core.uint\palmtree.math.core.uint\pmc_inline_func.h

; 254  :         return (_addcarryx_u32(carry, u, v, w));

	adcx	eax, DWORD PTR [esi+20]
	mov	DWORD PTR [edi+20], eax
; File z:\sources\lunor\repos\rougemeilland\palmtree.math.core.uint\palmtree.math.core.uint\autogenerated_inline_func.h

; 2784 :     c = _ADDX_UNIT_DIV(c, xp[6], yp[6], &zp[6]);

	mov	eax, DWORD PTR [edx+24]
; File z:\sources\lunor\repos\rougemeilland\palmtree.math.core.uint\palmtree.math.core.uint\pmc_inline_func.h

; 254  :         return (_addcarryx_u32(carry, u, v, w));

	adcx	eax, DWORD PTR [esi+24]
	mov	DWORD PTR [edi+24], eax
; File z:\sources\lunor\repos\rougemeilland\palmtree.math.core.uint\palmtree.math.core.uint\autogenerated_inline_func.h

; 2785 :     c = _ADDX_UNIT_DIV(c, xp[7], yp[7], &zp[7]);

	mov	eax, DWORD PTR [edx+28]
; File z:\sources\lunor\repos\rougemeilland\palmtree.math.core.uint\palmtree.math.core.uint\pmc_inline_func.h

; 254  :         return (_addcarryx_u32(carry, u, v, w));

	adcx	eax, DWORD PTR [esi+28]
	mov	DWORD PTR [edi+28], eax
; File z:\sources\lunor\repos\rougemeilland\palmtree.math.core.uint\palmtree.math.core.uint\autogenerated_inline_func.h

; 2786 :     c = _ADDX_UNIT_DIV(c, xp[8], yp[8], &zp[8]);

	mov	eax, DWORD PTR [edx+32]
; File z:\sources\lunor\repos\rougemeilland\palmtree.math.core.uint\palmtree.math.core.uint\pmc_inline_func.h

; 254  :         return (_addcarryx_u32(carry, u, v, w));

	adcx	eax, DWORD PTR [esi+32]
	mov	DWORD PTR [edi+32], eax
; File z:\sources\lunor\repos\rougemeilland\palmtree.math.core.uint\palmtree.math.core.uint\autogenerated_inline_func.h

; 2787 :     c = _ADDX_UNIT_DIV(c, xp[9], yp[9], &zp[9]);

	mov	eax, DWORD PTR [edx+36]
; File z:\sources\lunor\repos\rougemeilland\palmtree.math.core.uint\palmtree.math.core.uint\pmc_inline_func.h

; 254  :         return (_addcarryx_u32(carry, u, v, w));

	adcx	eax, DWORD PTR [esi+36]
	mov	DWORD PTR [edi+36], eax
; File z:\sources\lunor\repos\rougemeilland\palmtree.math.core.uint\palmtree.math.core.uint\autogenerated_inline_func.h

; 2788 :     c = _ADDX_UNIT_DIV(c, xp[10], yp[10], &zp[10]);

	mov	eax, DWORD PTR [edx+40]
; File z:\sources\lunor\repos\rougemeilland\palmtree.math.core.uint\palmtree.math.core.uint\pmc_inline_func.h

; 254  :         return (_addcarryx_u32(carry, u, v, w));

	adcx	eax, DWORD PTR [esi+40]
	mov	DWORD PTR [edi+40], eax
; File z:\sources\lunor\repos\rougemeilland\palmtree.math.core.uint\palmtree.math.core.uint\autogenerated_inline_func.h

; 2789 :     c = _ADDX_UNIT_DIV(c, xp[11], yp[11], &zp[11]);

	mov	eax, DWORD PTR [edx+44]
; File z:\sources\lunor\repos\rougemeilland\palmtree.math.core.uint\palmtree.math.core.uint\pmc_inline_func.h

; 254  :         return (_addcarryx_u32(carry, u, v, w));

	adcx	eax, DWORD PTR [esi+44]
	mov	DWORD PTR [edi+44], eax
; File z:\sources\lunor\repos\rougemeilland\palmtree.math.core.uint\palmtree.math.core.uint\autogenerated_inline_func.h

; 2790 :     c = _ADDX_UNIT_DIV(c, xp[12], yp[12], &zp[12]);

	mov	eax, DWORD PTR [edx+48]
; File z:\sources\lunor\repos\rougemeilland\palmtree.math.core.uint\palmtree.math.core.uint\pmc_inline_func.h

; 254  :         return (_addcarryx_u32(carry, u, v, w));

	adcx	eax, DWORD PTR [esi+48]
	mov	DWORD PTR [edi+48], eax
; File z:\sources\lunor\repos\rougemeilland\palmtree.math.core.uint\palmtree.math.core.uint\autogenerated_inline_func.h

; 2791 :     c = _ADDX_UNIT_DIV(c, xp[13], yp[13], &zp[13]);

	mov	eax, DWORD PTR [edx+52]
; File z:\sources\lunor\repos\rougemeilland\palmtree.math.core.uint\palmtree.math.core.uint\pmc_inline_func.h

; 254  :         return (_addcarryx_u32(carry, u, v, w));

	adcx	eax, DWORD PTR [esi+52]
	mov	DWORD PTR [edi+52], eax
; File z:\sources\lunor\repos\rougemeilland\palmtree.math.core.uint\palmtree.math.core.uint\autogenerated_inline_func.h

; 2792 :     c = _ADDX_UNIT_DIV(c, xp[14], yp[14], &zp[14]);

	mov	eax, DWORD PTR [edx+56]
; File z:\sources\lunor\repos\rougemeilland\palmtree.math.core.uint\palmtree.math.core.uint\pmc_inline_func.h

; 254  :         return (_addcarryx_u32(carry, u, v, w));

	adcx	eax, DWORD PTR [esi+56]
	mov	DWORD PTR [edi+56], eax
; File z:\sources\lunor\repos\rougemeilland\palmtree.math.core.uint\palmtree.math.core.uint\autogenerated_inline_func.h

; 2793 :     c = _ADDX_UNIT_DIV(c, xp[15], yp[15], &zp[15]);

	mov	ecx, DWORD PTR [edx+60]
; File z:\sources\lunor\repos\rougemeilland\palmtree.math.core.uint\palmtree.math.core.uint\pmc_inline_func.h

; 254  :         return (_addcarryx_u32(carry, u, v, w));

	adcx	ecx, DWORD PTR [esi+60]
	mov	DWORD PTR [edi+60], ecx
; File z:\sources\lunor\repos\rougemeilland\palmtree.math.core.uint\palmtree.math.core.uint\autogenerated_inline_func.h

; 2913 :     return (c);

	pop	edi
; File z:\sources\lunor\repos\rougemeilland\palmtree.math.core.uint\palmtree.math.core.uint\pmc_inline_func.h

; 254  :         return (_addcarryx_u32(carry, u, v, w));

	setb	al
; File z:\sources\lunor\repos\rougemeilland\palmtree.math.core.uint\palmtree.math.core.uint\autogenerated_inline_func.h

; 2913 :     return (c);

	pop	esi

; 2914 : }

	pop	ebp
	ret	0
__ADD_16WORDS_ADCX_DIV ENDP
_TEXT	ENDS
; Function compile flags: /Ogtp
; File z:\sources\lunor\repos\rougemeilland\palmtree.math.core.uint\palmtree.math.core.uint\autogenerated_inline_func.h
; File z:\sources\lunor\repos\rougemeilland\palmtree.math.core.uint\palmtree.math.core.uint\pmc_inline_func.h
; File z:\sources\lunor\repos\rougemeilland\palmtree.math.core.uint\palmtree.math.core.uint\autogenerated_inline_func.h
; File z:\sources\lunor\repos\rougemeilland\palmtree.math.core.uint\palmtree.math.core.uint\pmc_inline_func.h
; File z:\sources\lunor\repos\rougemeilland\palmtree.math.core.uint\palmtree.math.core.uint\autogenerated_inline_func.h
; File z:\sources\lunor\repos\rougemeilland\palmtree.math.core.uint\palmtree.math.core.uint\pmc_inline_func.h
; File z:\sources\lunor\repos\rougemeilland\palmtree.math.core.uint\palmtree.math.core.uint\autogenerated_inline_func.h
; File z:\sources\lunor\repos\rougemeilland\palmtree.math.core.uint\palmtree.math.core.uint\pmc_inline_func.h
; File z:\sources\lunor\repos\rougemeilland\palmtree.math.core.uint\palmtree.math.core.uint\autogenerated_inline_func.h
; File z:\sources\lunor\repos\rougemeilland\palmtree.math.core.uint\palmtree.math.core.uint\pmc_inline_func.h
; File z:\sources\lunor\repos\rougemeilland\palmtree.math.core.uint\palmtree.math.core.uint\autogenerated_inline_func.h
; File z:\sources\lunor\repos\rougemeilland\palmtree.math.core.uint\palmtree.math.core.uint\pmc_inline_func.h
; File z:\sources\lunor\repos\rougemeilland\palmtree.math.core.uint\palmtree.math.core.uint\autogenerated_inline_func.h
; File z:\sources\lunor\repos\rougemeilland\palmtree.math.core.uint\palmtree.math.core.uint\pmc_inline_func.h
; File z:\sources\lunor\repos\rougemeilland\palmtree.math.core.uint\palmtree.math.core.uint\autogenerated_inline_func.h
; File z:\sources\lunor\repos\rougemeilland\palmtree.math.core.uint\palmtree.math.core.uint\pmc_inline_func.h
; File z:\sources\lunor\repos\rougemeilland\palmtree.math.core.uint\palmtree.math.core.uint\autogenerated_inline_func.h
; File z:\sources\lunor\repos\rougemeilland\palmtree.math.core.uint\palmtree.math.core.uint\pmc_inline_func.h
; File z:\sources\lunor\repos\rougemeilland\palmtree.math.core.uint\palmtree.math.core.uint\autogenerated_inline_func.h
; File z:\sources\lunor\repos\rougemeilland\palmtree.math.core.uint\palmtree.math.core.uint\pmc_inline_func.h
; File z:\sources\lunor\repos\rougemeilland\palmtree.math.core.uint\palmtree.math.core.uint\autogenerated_inline_func.h
; File z:\sources\lunor\repos\rougemeilland\palmtree.math.core.uint\palmtree.math.core.uint\pmc_inline_func.h
; File z:\sources\lunor\repos\rougemeilland\palmtree.math.core.uint\palmtree.math.core.uint\autogenerated_inline_func.h
; File z:\sources\lunor\repos\rougemeilland\palmtree.math.core.uint\palmtree.math.core.uint\pmc_inline_func.h
; File z:\sources\lunor\repos\rougemeilland\palmtree.math.core.uint\palmtree.math.core.uint\autogenerated_inline_func.h
; File z:\sources\lunor\repos\rougemeilland\palmtree.math.core.uint\palmtree.math.core.uint\pmc_inline_func.h
; File z:\sources\lunor\repos\rougemeilland\palmtree.math.core.uint\palmtree.math.core.uint\autogenerated_inline_func.h
; File z:\sources\lunor\repos\rougemeilland\palmtree.math.core.uint\palmtree.math.core.uint\pmc_inline_func.h
; File z:\sources\lunor\repos\rougemeilland\palmtree.math.core.uint\palmtree.math.core.uint\autogenerated_inline_func.h
; File z:\sources\lunor\repos\rougemeilland\palmtree.math.core.uint\palmtree.math.core.uint\pmc_inline_func.h
; File z:\sources\lunor\repos\rougemeilland\palmtree.math.core.uint\palmtree.math.core.uint\autogenerated_inline_func.h
; File z:\sources\lunor\repos\rougemeilland\palmtree.math.core.uint\palmtree.math.core.uint\pmc_inline_func.h
; File z:\sources\lunor\repos\rougemeilland\palmtree.math.core.uint\palmtree.math.core.uint\autogenerated_inline_func.h
; File z:\sources\lunor\repos\rougemeilland\palmtree.math.core.uint\palmtree.math.core.uint\pmc_inline_func.h
; File z:\sources\lunor\repos\rougemeilland\palmtree.math.core.uint\palmtree.math.core.uint\autogenerated_inline_func.h
; File z:\sources\lunor\repos\rougemeilland\palmtree.math.core.uint\palmtree.math.core.uint\pmc_inline_func.h
; File z:\sources\lunor\repos\rougemeilland\palmtree.math.core.uint\palmtree.math.core.uint\autogenerated_inline_func.h
;	COMDAT __ADD_16WORDS_ADC_DIV
_TEXT	SEGMENT
_c$ = 8							; size = 1
_xp$ = 12						; size = 4
_yp$ = 16						; size = 4
_zp$ = 20						; size = 4
__ADD_16WORDS_ADC_DIV PROC				; COMDAT

; 2635 : {

	push	ebp
	mov	ebp, esp

; 2636 : #ifdef _MSC_VER
; 2637 :     c = _ADD_UNIT_DIV(c, xp[0], yp[0], &zp[0]);

	mov	edx, DWORD PTR _xp$[ebp]
; File z:\sources\lunor\repos\rougemeilland\palmtree.math.core.uint\palmtree.math.core.uint\pmc_inline_func.h

; 226  :         return (_addcarry_u32(carry, u, v, w));

	mov	al, BYTE PTR _c$[ebp]
	add	al, 255					; 000000ffH
; File z:\sources\lunor\repos\rougemeilland\palmtree.math.core.uint\palmtree.math.core.uint\autogenerated_inline_func.h

; 2635 : {

	push	esi

; 2636 : #ifdef _MSC_VER
; 2637 :     c = _ADD_UNIT_DIV(c, xp[0], yp[0], &zp[0]);

	mov	esi, DWORD PTR _yp$[ebp]
	mov	ecx, DWORD PTR [edx]
	push	edi
; File z:\sources\lunor\repos\rougemeilland\palmtree.math.core.uint\palmtree.math.core.uint\pmc_inline_func.h

; 226  :         return (_addcarry_u32(carry, u, v, w));

	mov	edi, DWORD PTR _zp$[ebp]
	adc	ecx, DWORD PTR [esi]
	mov	DWORD PTR [edi], ecx
; File z:\sources\lunor\repos\rougemeilland\palmtree.math.core.uint\palmtree.math.core.uint\autogenerated_inline_func.h

; 2638 :     c = _ADD_UNIT_DIV(c, xp[1], yp[1], &zp[1]);

	mov	eax, DWORD PTR [edx+4]
; File z:\sources\lunor\repos\rougemeilland\palmtree.math.core.uint\palmtree.math.core.uint\pmc_inline_func.h

; 226  :         return (_addcarry_u32(carry, u, v, w));

	adc	eax, DWORD PTR [esi+4]
	mov	DWORD PTR [edi+4], eax
; File z:\sources\lunor\repos\rougemeilland\palmtree.math.core.uint\palmtree.math.core.uint\autogenerated_inline_func.h

; 2639 :     c = _ADD_UNIT_DIV(c, xp[2], yp[2], &zp[2]);

	mov	eax, DWORD PTR [edx+8]
; File z:\sources\lunor\repos\rougemeilland\palmtree.math.core.uint\palmtree.math.core.uint\pmc_inline_func.h

; 226  :         return (_addcarry_u32(carry, u, v, w));

	adc	eax, DWORD PTR [esi+8]
	mov	DWORD PTR [edi+8], eax
; File z:\sources\lunor\repos\rougemeilland\palmtree.math.core.uint\palmtree.math.core.uint\autogenerated_inline_func.h

; 2640 :     c = _ADD_UNIT_DIV(c, xp[3], yp[3], &zp[3]);

	mov	eax, DWORD PTR [edx+12]
; File z:\sources\lunor\repos\rougemeilland\palmtree.math.core.uint\palmtree.math.core.uint\pmc_inline_func.h

; 226  :         return (_addcarry_u32(carry, u, v, w));

	adc	eax, DWORD PTR [esi+12]
	mov	DWORD PTR [edi+12], eax
; File z:\sources\lunor\repos\rougemeilland\palmtree.math.core.uint\palmtree.math.core.uint\autogenerated_inline_func.h

; 2641 :     c = _ADD_UNIT_DIV(c, xp[4], yp[4], &zp[4]);

	mov	eax, DWORD PTR [edx+16]
; File z:\sources\lunor\repos\rougemeilland\palmtree.math.core.uint\palmtree.math.core.uint\pmc_inline_func.h

; 226  :         return (_addcarry_u32(carry, u, v, w));

	adc	eax, DWORD PTR [esi+16]
	mov	DWORD PTR [edi+16], eax
; File z:\sources\lunor\repos\rougemeilland\palmtree.math.core.uint\palmtree.math.core.uint\autogenerated_inline_func.h

; 2642 :     c = _ADD_UNIT_DIV(c, xp[5], yp[5], &zp[5]);

	mov	eax, DWORD PTR [edx+20]
; File z:\sources\lunor\repos\rougemeilland\palmtree.math.core.uint\palmtree.math.core.uint\pmc_inline_func.h

; 226  :         return (_addcarry_u32(carry, u, v, w));

	adc	eax, DWORD PTR [esi+20]
	mov	DWORD PTR [edi+20], eax
; File z:\sources\lunor\repos\rougemeilland\palmtree.math.core.uint\palmtree.math.core.uint\autogenerated_inline_func.h

; 2643 :     c = _ADD_UNIT_DIV(c, xp[6], yp[6], &zp[6]);

	mov	eax, DWORD PTR [edx+24]
; File z:\sources\lunor\repos\rougemeilland\palmtree.math.core.uint\palmtree.math.core.uint\pmc_inline_func.h

; 226  :         return (_addcarry_u32(carry, u, v, w));

	adc	eax, DWORD PTR [esi+24]
	mov	DWORD PTR [edi+24], eax
; File z:\sources\lunor\repos\rougemeilland\palmtree.math.core.uint\palmtree.math.core.uint\autogenerated_inline_func.h

; 2644 :     c = _ADD_UNIT_DIV(c, xp[7], yp[7], &zp[7]);

	mov	eax, DWORD PTR [edx+28]
; File z:\sources\lunor\repos\rougemeilland\palmtree.math.core.uint\palmtree.math.core.uint\pmc_inline_func.h

; 226  :         return (_addcarry_u32(carry, u, v, w));

	adc	eax, DWORD PTR [esi+28]
	mov	DWORD PTR [edi+28], eax
; File z:\sources\lunor\repos\rougemeilland\palmtree.math.core.uint\palmtree.math.core.uint\autogenerated_inline_func.h

; 2645 :     c = _ADD_UNIT_DIV(c, xp[8], yp[8], &zp[8]);

	mov	eax, DWORD PTR [edx+32]
; File z:\sources\lunor\repos\rougemeilland\palmtree.math.core.uint\palmtree.math.core.uint\pmc_inline_func.h

; 226  :         return (_addcarry_u32(carry, u, v, w));

	adc	eax, DWORD PTR [esi+32]
	mov	DWORD PTR [edi+32], eax
; File z:\sources\lunor\repos\rougemeilland\palmtree.math.core.uint\palmtree.math.core.uint\autogenerated_inline_func.h

; 2646 :     c = _ADD_UNIT_DIV(c, xp[9], yp[9], &zp[9]);

	mov	eax, DWORD PTR [edx+36]
; File z:\sources\lunor\repos\rougemeilland\palmtree.math.core.uint\palmtree.math.core.uint\pmc_inline_func.h

; 226  :         return (_addcarry_u32(carry, u, v, w));

	adc	eax, DWORD PTR [esi+36]
	mov	DWORD PTR [edi+36], eax
; File z:\sources\lunor\repos\rougemeilland\palmtree.math.core.uint\palmtree.math.core.uint\autogenerated_inline_func.h

; 2647 :     c = _ADD_UNIT_DIV(c, xp[10], yp[10], &zp[10]);

	mov	eax, DWORD PTR [edx+40]
; File z:\sources\lunor\repos\rougemeilland\palmtree.math.core.uint\palmtree.math.core.uint\pmc_inline_func.h

; 226  :         return (_addcarry_u32(carry, u, v, w));

	adc	eax, DWORD PTR [esi+40]
	mov	DWORD PTR [edi+40], eax
; File z:\sources\lunor\repos\rougemeilland\palmtree.math.core.uint\palmtree.math.core.uint\autogenerated_inline_func.h

; 2648 :     c = _ADD_UNIT_DIV(c, xp[11], yp[11], &zp[11]);

	mov	eax, DWORD PTR [edx+44]
; File z:\sources\lunor\repos\rougemeilland\palmtree.math.core.uint\palmtree.math.core.uint\pmc_inline_func.h

; 226  :         return (_addcarry_u32(carry, u, v, w));

	adc	eax, DWORD PTR [esi+44]
	mov	DWORD PTR [edi+44], eax
; File z:\sources\lunor\repos\rougemeilland\palmtree.math.core.uint\palmtree.math.core.uint\autogenerated_inline_func.h

; 2649 :     c = _ADD_UNIT_DIV(c, xp[12], yp[12], &zp[12]);

	mov	eax, DWORD PTR [edx+48]
; File z:\sources\lunor\repos\rougemeilland\palmtree.math.core.uint\palmtree.math.core.uint\pmc_inline_func.h

; 226  :         return (_addcarry_u32(carry, u, v, w));

	adc	eax, DWORD PTR [esi+48]
	mov	DWORD PTR [edi+48], eax
; File z:\sources\lunor\repos\rougemeilland\palmtree.math.core.uint\palmtree.math.core.uint\autogenerated_inline_func.h

; 2650 :     c = _ADD_UNIT_DIV(c, xp[13], yp[13], &zp[13]);

	mov	eax, DWORD PTR [edx+52]
; File z:\sources\lunor\repos\rougemeilland\palmtree.math.core.uint\palmtree.math.core.uint\pmc_inline_func.h

; 226  :         return (_addcarry_u32(carry, u, v, w));

	adc	eax, DWORD PTR [esi+52]
	mov	DWORD PTR [edi+52], eax
; File z:\sources\lunor\repos\rougemeilland\palmtree.math.core.uint\palmtree.math.core.uint\autogenerated_inline_func.h

; 2651 :     c = _ADD_UNIT_DIV(c, xp[14], yp[14], &zp[14]);

	mov	eax, DWORD PTR [edx+56]
; File z:\sources\lunor\repos\rougemeilland\palmtree.math.core.uint\palmtree.math.core.uint\pmc_inline_func.h

; 226  :         return (_addcarry_u32(carry, u, v, w));

	adc	eax, DWORD PTR [esi+56]
	mov	DWORD PTR [edi+56], eax
; File z:\sources\lunor\repos\rougemeilland\palmtree.math.core.uint\palmtree.math.core.uint\autogenerated_inline_func.h

; 2652 :     c = _ADD_UNIT_DIV(c, xp[15], yp[15], &zp[15]);

	mov	ecx, DWORD PTR [edx+60]
; File z:\sources\lunor\repos\rougemeilland\palmtree.math.core.uint\palmtree.math.core.uint\pmc_inline_func.h

; 226  :         return (_addcarry_u32(carry, u, v, w));

	adc	ecx, DWORD PTR [esi+60]
	mov	DWORD PTR [edi+60], ecx
; File z:\sources\lunor\repos\rougemeilland\palmtree.math.core.uint\palmtree.math.core.uint\autogenerated_inline_func.h

; 2772 :     return (c);

	pop	edi
; File z:\sources\lunor\repos\rougemeilland\palmtree.math.core.uint\palmtree.math.core.uint\pmc_inline_func.h

; 226  :         return (_addcarry_u32(carry, u, v, w));

	setb	al
; File z:\sources\lunor\repos\rougemeilland\palmtree.math.core.uint\palmtree.math.core.uint\autogenerated_inline_func.h

; 2772 :     return (c);

	pop	esi

; 2773 : }

	pop	ebp
	ret	0
__ADD_16WORDS_ADC_DIV ENDP
_TEXT	ENDS
; Function compile flags: /Ogtp
; File z:\sources\lunor\repos\rougemeilland\palmtree.math.core.uint\palmtree.math.core.uint\autogenerated_inline_func.h
; File z:\sources\lunor\repos\rougemeilland\palmtree.math.core.uint\palmtree.math.core.uint\pmc_inline_func.h
; File z:\sources\lunor\repos\rougemeilland\palmtree.math.core.uint\palmtree.math.core.uint\autogenerated_inline_func.h
; File z:\sources\lunor\repos\rougemeilland\palmtree.math.core.uint\palmtree.math.core.uint\pmc_inline_func.h
; File z:\sources\lunor\repos\rougemeilland\palmtree.math.core.uint\palmtree.math.core.uint\autogenerated_inline_func.h
; File z:\sources\lunor\repos\rougemeilland\palmtree.math.core.uint\palmtree.math.core.uint\pmc_inline_func.h
; File z:\sources\lunor\repos\rougemeilland\palmtree.math.core.uint\palmtree.math.core.uint\autogenerated_inline_func.h
; File z:\sources\lunor\repos\rougemeilland\palmtree.math.core.uint\palmtree.math.core.uint\pmc_inline_func.h
; File z:\sources\lunor\repos\rougemeilland\palmtree.math.core.uint\palmtree.math.core.uint\autogenerated_inline_func.h
; File z:\sources\lunor\repos\rougemeilland\palmtree.math.core.uint\palmtree.math.core.uint\pmc_inline_func.h
; File z:\sources\lunor\repos\rougemeilland\palmtree.math.core.uint\palmtree.math.core.uint\autogenerated_inline_func.h
; File z:\sources\lunor\repos\rougemeilland\palmtree.math.core.uint\palmtree.math.core.uint\pmc_inline_func.h
; File z:\sources\lunor\repos\rougemeilland\palmtree.math.core.uint\palmtree.math.core.uint\autogenerated_inline_func.h
; File z:\sources\lunor\repos\rougemeilland\palmtree.math.core.uint\palmtree.math.core.uint\pmc_inline_func.h
; File z:\sources\lunor\repos\rougemeilland\palmtree.math.core.uint\palmtree.math.core.uint\autogenerated_inline_func.h
; File z:\sources\lunor\repos\rougemeilland\palmtree.math.core.uint\palmtree.math.core.uint\pmc_inline_func.h
; File z:\sources\lunor\repos\rougemeilland\palmtree.math.core.uint\palmtree.math.core.uint\autogenerated_inline_func.h
; File z:\sources\lunor\repos\rougemeilland\palmtree.math.core.uint\palmtree.math.core.uint\pmc_inline_func.h
; File z:\sources\lunor\repos\rougemeilland\palmtree.math.core.uint\palmtree.math.core.uint\autogenerated_inline_func.h
; File z:\sources\lunor\repos\rougemeilland\palmtree.math.core.uint\palmtree.math.core.uint\pmc_inline_func.h
; File z:\sources\lunor\repos\rougemeilland\palmtree.math.core.uint\palmtree.math.core.uint\autogenerated_inline_func.h
; File z:\sources\lunor\repos\rougemeilland\palmtree.math.core.uint\palmtree.math.core.uint\pmc_inline_func.h
; File z:\sources\lunor\repos\rougemeilland\palmtree.math.core.uint\palmtree.math.core.uint\autogenerated_inline_func.h
; File z:\sources\lunor\repos\rougemeilland\palmtree.math.core.uint\palmtree.math.core.uint\pmc_inline_func.h
; File z:\sources\lunor\repos\rougemeilland\palmtree.math.core.uint\palmtree.math.core.uint\autogenerated_inline_func.h
; File z:\sources\lunor\repos\rougemeilland\palmtree.math.core.uint\palmtree.math.core.uint\pmc_inline_func.h
; File z:\sources\lunor\repos\rougemeilland\palmtree.math.core.uint\palmtree.math.core.uint\autogenerated_inline_func.h
; File z:\sources\lunor\repos\rougemeilland\palmtree.math.core.uint\palmtree.math.core.uint\pmc_inline_func.h
; File z:\sources\lunor\repos\rougemeilland\palmtree.math.core.uint\palmtree.math.core.uint\autogenerated_inline_func.h
; File z:\sources\lunor\repos\rougemeilland\palmtree.math.core.uint\palmtree.math.core.uint\pmc_inline_func.h
; File z:\sources\lunor\repos\rougemeilland\palmtree.math.core.uint\palmtree.math.core.uint\autogenerated_inline_func.h
; File z:\sources\lunor\repos\rougemeilland\palmtree.math.core.uint\palmtree.math.core.uint\pmc_inline_func.h
; File z:\sources\lunor\repos\rougemeilland\palmtree.math.core.uint\palmtree.math.core.uint\autogenerated_inline_func.h
; File z:\sources\lunor\repos\rougemeilland\palmtree.math.core.uint\palmtree.math.core.uint\pmc_inline_func.h
; File z:\sources\lunor\repos\rougemeilland\palmtree.math.core.uint\palmtree.math.core.uint\autogenerated_inline_func.h
; File z:\sources\lunor\repos\rougemeilland\palmtree.math.core.uint\palmtree.math.core.uint\pmc_inline_func.h
; File z:\sources\lunor\repos\rougemeilland\palmtree.math.core.uint\palmtree.math.core.uint\autogenerated_inline_func.h
; File z:\sources\lunor\repos\rougemeilland\palmtree.math.core.uint\palmtree.math.core.uint\pmc_inline_func.h
; File z:\sources\lunor\repos\rougemeilland\palmtree.math.core.uint\palmtree.math.core.uint\autogenerated_inline_func.h
; File z:\sources\lunor\repos\rougemeilland\palmtree.math.core.uint\palmtree.math.core.uint\pmc_inline_func.h
; File z:\sources\lunor\repos\rougemeilland\palmtree.math.core.uint\palmtree.math.core.uint\autogenerated_inline_func.h
; File z:\sources\lunor\repos\rougemeilland\palmtree.math.core.uint\palmtree.math.core.uint\pmc_inline_func.h
; File z:\sources\lunor\repos\rougemeilland\palmtree.math.core.uint\palmtree.math.core.uint\autogenerated_inline_func.h
; File z:\sources\lunor\repos\rougemeilland\palmtree.math.core.uint\palmtree.math.core.uint\pmc_inline_func.h
; File z:\sources\lunor\repos\rougemeilland\palmtree.math.core.uint\palmtree.math.core.uint\autogenerated_inline_func.h
; File z:\sources\lunor\repos\rougemeilland\palmtree.math.core.uint\palmtree.math.core.uint\pmc_inline_func.h
; File z:\sources\lunor\repos\rougemeilland\palmtree.math.core.uint\palmtree.math.core.uint\autogenerated_inline_func.h
; File z:\sources\lunor\repos\rougemeilland\palmtree.math.core.uint\palmtree.math.core.uint\pmc_inline_func.h
; File z:\sources\lunor\repos\rougemeilland\palmtree.math.core.uint\palmtree.math.core.uint\autogenerated_inline_func.h
; File z:\sources\lunor\repos\rougemeilland\palmtree.math.core.uint\palmtree.math.core.uint\pmc_inline_func.h
; File z:\sources\lunor\repos\rougemeilland\palmtree.math.core.uint\palmtree.math.core.uint\autogenerated_inline_func.h
; File z:\sources\lunor\repos\rougemeilland\palmtree.math.core.uint\palmtree.math.core.uint\pmc_inline_func.h
; File z:\sources\lunor\repos\rougemeilland\palmtree.math.core.uint\palmtree.math.core.uint\autogenerated_inline_func.h
; File z:\sources\lunor\repos\rougemeilland\palmtree.math.core.uint\palmtree.math.core.uint\pmc_inline_func.h
; File z:\sources\lunor\repos\rougemeilland\palmtree.math.core.uint\palmtree.math.core.uint\autogenerated_inline_func.h
; File z:\sources\lunor\repos\rougemeilland\palmtree.math.core.uint\palmtree.math.core.uint\pmc_inline_func.h
; File z:\sources\lunor\repos\rougemeilland\palmtree.math.core.uint\palmtree.math.core.uint\autogenerated_inline_func.h
; File z:\sources\lunor\repos\rougemeilland\palmtree.math.core.uint\palmtree.math.core.uint\pmc_inline_func.h
; File z:\sources\lunor\repos\rougemeilland\palmtree.math.core.uint\palmtree.math.core.uint\autogenerated_inline_func.h
; File z:\sources\lunor\repos\rougemeilland\palmtree.math.core.uint\palmtree.math.core.uint\pmc_inline_func.h
; File z:\sources\lunor\repos\rougemeilland\palmtree.math.core.uint\palmtree.math.core.uint\autogenerated_inline_func.h
; File z:\sources\lunor\repos\rougemeilland\palmtree.math.core.uint\palmtree.math.core.uint\pmc_inline_func.h
; File z:\sources\lunor\repos\rougemeilland\palmtree.math.core.uint\palmtree.math.core.uint\autogenerated_inline_func.h
; File z:\sources\lunor\repos\rougemeilland\palmtree.math.core.uint\palmtree.math.core.uint\pmc_inline_func.h
; File z:\sources\lunor\repos\rougemeilland\palmtree.math.core.uint\palmtree.math.core.uint\autogenerated_inline_func.h
; File z:\sources\lunor\repos\rougemeilland\palmtree.math.core.uint\palmtree.math.core.uint\pmc_inline_func.h
; File z:\sources\lunor\repos\rougemeilland\palmtree.math.core.uint\palmtree.math.core.uint\autogenerated_inline_func.h
; File z:\sources\lunor\repos\rougemeilland\palmtree.math.core.uint\palmtree.math.core.uint\pmc_inline_func.h
; File z:\sources\lunor\repos\rougemeilland\palmtree.math.core.uint\palmtree.math.core.uint\autogenerated_inline_func.h
;	COMDAT __ADD_32WORDS_ADCX_DIV
_TEXT	SEGMENT
_c$ = 8							; size = 1
_xp$ = 12						; size = 4
_yp$ = 16						; size = 4
_zp$ = 20						; size = 4
__ADD_32WORDS_ADCX_DIV PROC				; COMDAT

; 1312 : {

	push	ebp
	mov	ebp, esp

; 1313 : #ifdef _MSC_VER
; 1314 :     c = _ADDX_UNIT_DIV(c, xp[0], yp[0], &zp[0]);

	mov	edx, DWORD PTR _xp$[ebp]
; File z:\sources\lunor\repos\rougemeilland\palmtree.math.core.uint\palmtree.math.core.uint\pmc_inline_func.h

; 254  :         return (_addcarryx_u32(carry, u, v, w));

	mov	al, BYTE PTR _c$[ebp]
	add	al, 255					; 000000ffH
; File z:\sources\lunor\repos\rougemeilland\palmtree.math.core.uint\palmtree.math.core.uint\autogenerated_inline_func.h

; 1312 : {

	push	esi

; 1313 : #ifdef _MSC_VER
; 1314 :     c = _ADDX_UNIT_DIV(c, xp[0], yp[0], &zp[0]);

	mov	esi, DWORD PTR _yp$[ebp]
	mov	ecx, DWORD PTR [edx]
	push	edi
; File z:\sources\lunor\repos\rougemeilland\palmtree.math.core.uint\palmtree.math.core.uint\pmc_inline_func.h

; 254  :         return (_addcarryx_u32(carry, u, v, w));

	mov	edi, DWORD PTR _zp$[ebp]
	adcx	ecx, DWORD PTR [esi]
	mov	DWORD PTR [edi], ecx
; File z:\sources\lunor\repos\rougemeilland\palmtree.math.core.uint\palmtree.math.core.uint\autogenerated_inline_func.h

; 1315 :     c = _ADDX_UNIT_DIV(c, xp[1], yp[1], &zp[1]);

	mov	eax, DWORD PTR [edx+4]
; File z:\sources\lunor\repos\rougemeilland\palmtree.math.core.uint\palmtree.math.core.uint\pmc_inline_func.h

; 254  :         return (_addcarryx_u32(carry, u, v, w));

	adcx	eax, DWORD PTR [esi+4]
	mov	DWORD PTR [edi+4], eax
; File z:\sources\lunor\repos\rougemeilland\palmtree.math.core.uint\palmtree.math.core.uint\autogenerated_inline_func.h

; 1316 :     c = _ADDX_UNIT_DIV(c, xp[2], yp[2], &zp[2]);

	mov	eax, DWORD PTR [edx+8]
; File z:\sources\lunor\repos\rougemeilland\palmtree.math.core.uint\palmtree.math.core.uint\pmc_inline_func.h

; 254  :         return (_addcarryx_u32(carry, u, v, w));

	adcx	eax, DWORD PTR [esi+8]
	mov	DWORD PTR [edi+8], eax
; File z:\sources\lunor\repos\rougemeilland\palmtree.math.core.uint\palmtree.math.core.uint\autogenerated_inline_func.h

; 1317 :     c = _ADDX_UNIT_DIV(c, xp[3], yp[3], &zp[3]);

	mov	eax, DWORD PTR [edx+12]
; File z:\sources\lunor\repos\rougemeilland\palmtree.math.core.uint\palmtree.math.core.uint\pmc_inline_func.h

; 254  :         return (_addcarryx_u32(carry, u, v, w));

	adcx	eax, DWORD PTR [esi+12]
	mov	DWORD PTR [edi+12], eax
; File z:\sources\lunor\repos\rougemeilland\palmtree.math.core.uint\palmtree.math.core.uint\autogenerated_inline_func.h

; 1318 :     c = _ADDX_UNIT_DIV(c, xp[4], yp[4], &zp[4]);

	mov	eax, DWORD PTR [edx+16]
; File z:\sources\lunor\repos\rougemeilland\palmtree.math.core.uint\palmtree.math.core.uint\pmc_inline_func.h

; 254  :         return (_addcarryx_u32(carry, u, v, w));

	adcx	eax, DWORD PTR [esi+16]
	mov	DWORD PTR [edi+16], eax
; File z:\sources\lunor\repos\rougemeilland\palmtree.math.core.uint\palmtree.math.core.uint\autogenerated_inline_func.h

; 1319 :     c = _ADDX_UNIT_DIV(c, xp[5], yp[5], &zp[5]);

	mov	eax, DWORD PTR [edx+20]
; File z:\sources\lunor\repos\rougemeilland\palmtree.math.core.uint\palmtree.math.core.uint\pmc_inline_func.h

; 254  :         return (_addcarryx_u32(carry, u, v, w));

	adcx	eax, DWORD PTR [esi+20]
	mov	DWORD PTR [edi+20], eax
; File z:\sources\lunor\repos\rougemeilland\palmtree.math.core.uint\palmtree.math.core.uint\autogenerated_inline_func.h

; 1320 :     c = _ADDX_UNIT_DIV(c, xp[6], yp[6], &zp[6]);

	mov	eax, DWORD PTR [edx+24]
; File z:\sources\lunor\repos\rougemeilland\palmtree.math.core.uint\palmtree.math.core.uint\pmc_inline_func.h

; 254  :         return (_addcarryx_u32(carry, u, v, w));

	adcx	eax, DWORD PTR [esi+24]
	mov	DWORD PTR [edi+24], eax
; File z:\sources\lunor\repos\rougemeilland\palmtree.math.core.uint\palmtree.math.core.uint\autogenerated_inline_func.h

; 1321 :     c = _ADDX_UNIT_DIV(c, xp[7], yp[7], &zp[7]);

	mov	eax, DWORD PTR [edx+28]
; File z:\sources\lunor\repos\rougemeilland\palmtree.math.core.uint\palmtree.math.core.uint\pmc_inline_func.h

; 254  :         return (_addcarryx_u32(carry, u, v, w));

	adcx	eax, DWORD PTR [esi+28]
	mov	DWORD PTR [edi+28], eax
; File z:\sources\lunor\repos\rougemeilland\palmtree.math.core.uint\palmtree.math.core.uint\autogenerated_inline_func.h

; 1322 :     c = _ADDX_UNIT_DIV(c, xp[8], yp[8], &zp[8]);

	mov	eax, DWORD PTR [edx+32]
; File z:\sources\lunor\repos\rougemeilland\palmtree.math.core.uint\palmtree.math.core.uint\pmc_inline_func.h

; 254  :         return (_addcarryx_u32(carry, u, v, w));

	adcx	eax, DWORD PTR [esi+32]
	mov	DWORD PTR [edi+32], eax
; File z:\sources\lunor\repos\rougemeilland\palmtree.math.core.uint\palmtree.math.core.uint\autogenerated_inline_func.h

; 1323 :     c = _ADDX_UNIT_DIV(c, xp[9], yp[9], &zp[9]);

	mov	eax, DWORD PTR [edx+36]
; File z:\sources\lunor\repos\rougemeilland\palmtree.math.core.uint\palmtree.math.core.uint\pmc_inline_func.h

; 254  :         return (_addcarryx_u32(carry, u, v, w));

	adcx	eax, DWORD PTR [esi+36]
	mov	DWORD PTR [edi+36], eax
; File z:\sources\lunor\repos\rougemeilland\palmtree.math.core.uint\palmtree.math.core.uint\autogenerated_inline_func.h

; 1324 :     c = _ADDX_UNIT_DIV(c, xp[10], yp[10], &zp[10]);

	mov	eax, DWORD PTR [edx+40]
; File z:\sources\lunor\repos\rougemeilland\palmtree.math.core.uint\palmtree.math.core.uint\pmc_inline_func.h

; 254  :         return (_addcarryx_u32(carry, u, v, w));

	adcx	eax, DWORD PTR [esi+40]
	mov	DWORD PTR [edi+40], eax
; File z:\sources\lunor\repos\rougemeilland\palmtree.math.core.uint\palmtree.math.core.uint\autogenerated_inline_func.h

; 1325 :     c = _ADDX_UNIT_DIV(c, xp[11], yp[11], &zp[11]);

	mov	eax, DWORD PTR [edx+44]
; File z:\sources\lunor\repos\rougemeilland\palmtree.math.core.uint\palmtree.math.core.uint\pmc_inline_func.h

; 254  :         return (_addcarryx_u32(carry, u, v, w));

	adcx	eax, DWORD PTR [esi+44]
	mov	DWORD PTR [edi+44], eax
; File z:\sources\lunor\repos\rougemeilland\palmtree.math.core.uint\palmtree.math.core.uint\autogenerated_inline_func.h

; 1326 :     c = _ADDX_UNIT_DIV(c, xp[12], yp[12], &zp[12]);

	mov	eax, DWORD PTR [edx+48]
; File z:\sources\lunor\repos\rougemeilland\palmtree.math.core.uint\palmtree.math.core.uint\pmc_inline_func.h

; 254  :         return (_addcarryx_u32(carry, u, v, w));

	adcx	eax, DWORD PTR [esi+48]
	mov	DWORD PTR [edi+48], eax
; File z:\sources\lunor\repos\rougemeilland\palmtree.math.core.uint\palmtree.math.core.uint\autogenerated_inline_func.h

; 1327 :     c = _ADDX_UNIT_DIV(c, xp[13], yp[13], &zp[13]);

	mov	eax, DWORD PTR [edx+52]
; File z:\sources\lunor\repos\rougemeilland\palmtree.math.core.uint\palmtree.math.core.uint\pmc_inline_func.h

; 254  :         return (_addcarryx_u32(carry, u, v, w));

	adcx	eax, DWORD PTR [esi+52]
	mov	DWORD PTR [edi+52], eax
; File z:\sources\lunor\repos\rougemeilland\palmtree.math.core.uint\palmtree.math.core.uint\autogenerated_inline_func.h

; 1328 :     c = _ADDX_UNIT_DIV(c, xp[14], yp[14], &zp[14]);

	mov	eax, DWORD PTR [edx+56]
; File z:\sources\lunor\repos\rougemeilland\palmtree.math.core.uint\palmtree.math.core.uint\pmc_inline_func.h

; 254  :         return (_addcarryx_u32(carry, u, v, w));

	adcx	eax, DWORD PTR [esi+56]
	mov	DWORD PTR [edi+56], eax
; File z:\sources\lunor\repos\rougemeilland\palmtree.math.core.uint\palmtree.math.core.uint\autogenerated_inline_func.h

; 1329 :     c = _ADDX_UNIT_DIV(c, xp[15], yp[15], &zp[15]);

	mov	eax, DWORD PTR [edx+60]
; File z:\sources\lunor\repos\rougemeilland\palmtree.math.core.uint\palmtree.math.core.uint\pmc_inline_func.h

; 254  :         return (_addcarryx_u32(carry, u, v, w));

	adcx	eax, DWORD PTR [esi+60]
	mov	DWORD PTR [edi+60], eax
; File z:\sources\lunor\repos\rougemeilland\palmtree.math.core.uint\palmtree.math.core.uint\autogenerated_inline_func.h

; 1330 :     c = _ADDX_UNIT_DIV(c, xp[16], yp[16], &zp[16]);

	mov	eax, DWORD PTR [edx+64]
; File z:\sources\lunor\repos\rougemeilland\palmtree.math.core.uint\palmtree.math.core.uint\pmc_inline_func.h

; 254  :         return (_addcarryx_u32(carry, u, v, w));

	adcx	eax, DWORD PTR [esi+64]
	mov	DWORD PTR [edi+64], eax
; File z:\sources\lunor\repos\rougemeilland\palmtree.math.core.uint\palmtree.math.core.uint\autogenerated_inline_func.h

; 1331 :     c = _ADDX_UNIT_DIV(c, xp[17], yp[17], &zp[17]);

	mov	eax, DWORD PTR [edx+68]
; File z:\sources\lunor\repos\rougemeilland\palmtree.math.core.uint\palmtree.math.core.uint\pmc_inline_func.h

; 254  :         return (_addcarryx_u32(carry, u, v, w));

	adcx	eax, DWORD PTR [esi+68]
	mov	DWORD PTR [edi+68], eax
; File z:\sources\lunor\repos\rougemeilland\palmtree.math.core.uint\palmtree.math.core.uint\autogenerated_inline_func.h

; 1332 :     c = _ADDX_UNIT_DIV(c, xp[18], yp[18], &zp[18]);

	mov	eax, DWORD PTR [edx+72]
; File z:\sources\lunor\repos\rougemeilland\palmtree.math.core.uint\palmtree.math.core.uint\pmc_inline_func.h

; 254  :         return (_addcarryx_u32(carry, u, v, w));

	adcx	eax, DWORD PTR [esi+72]
	mov	DWORD PTR [edi+72], eax
; File z:\sources\lunor\repos\rougemeilland\palmtree.math.core.uint\palmtree.math.core.uint\autogenerated_inline_func.h

; 1333 :     c = _ADDX_UNIT_DIV(c, xp[19], yp[19], &zp[19]);

	mov	eax, DWORD PTR [edx+76]
; File z:\sources\lunor\repos\rougemeilland\palmtree.math.core.uint\palmtree.math.core.uint\pmc_inline_func.h

; 254  :         return (_addcarryx_u32(carry, u, v, w));

	adcx	eax, DWORD PTR [esi+76]
	mov	DWORD PTR [edi+76], eax
; File z:\sources\lunor\repos\rougemeilland\palmtree.math.core.uint\palmtree.math.core.uint\autogenerated_inline_func.h

; 1334 :     c = _ADDX_UNIT_DIV(c, xp[20], yp[20], &zp[20]);

	mov	eax, DWORD PTR [edx+80]
; File z:\sources\lunor\repos\rougemeilland\palmtree.math.core.uint\palmtree.math.core.uint\pmc_inline_func.h

; 254  :         return (_addcarryx_u32(carry, u, v, w));

	adcx	eax, DWORD PTR [esi+80]
	mov	DWORD PTR [edi+80], eax
; File z:\sources\lunor\repos\rougemeilland\palmtree.math.core.uint\palmtree.math.core.uint\autogenerated_inline_func.h

; 1335 :     c = _ADDX_UNIT_DIV(c, xp[21], yp[21], &zp[21]);

	mov	eax, DWORD PTR [edx+84]
; File z:\sources\lunor\repos\rougemeilland\palmtree.math.core.uint\palmtree.math.core.uint\pmc_inline_func.h

; 254  :         return (_addcarryx_u32(carry, u, v, w));

	adcx	eax, DWORD PTR [esi+84]
	mov	DWORD PTR [edi+84], eax
; File z:\sources\lunor\repos\rougemeilland\palmtree.math.core.uint\palmtree.math.core.uint\autogenerated_inline_func.h

; 1336 :     c = _ADDX_UNIT_DIV(c, xp[22], yp[22], &zp[22]);

	mov	eax, DWORD PTR [edx+88]
; File z:\sources\lunor\repos\rougemeilland\palmtree.math.core.uint\palmtree.math.core.uint\pmc_inline_func.h

; 254  :         return (_addcarryx_u32(carry, u, v, w));

	adcx	eax, DWORD PTR [esi+88]
	mov	DWORD PTR [edi+88], eax
; File z:\sources\lunor\repos\rougemeilland\palmtree.math.core.uint\palmtree.math.core.uint\autogenerated_inline_func.h

; 1337 :     c = _ADDX_UNIT_DIV(c, xp[23], yp[23], &zp[23]);

	mov	eax, DWORD PTR [edx+92]
; File z:\sources\lunor\repos\rougemeilland\palmtree.math.core.uint\palmtree.math.core.uint\pmc_inline_func.h

; 254  :         return (_addcarryx_u32(carry, u, v, w));

	adcx	eax, DWORD PTR [esi+92]
	mov	DWORD PTR [edi+92], eax
; File z:\sources\lunor\repos\rougemeilland\palmtree.math.core.uint\palmtree.math.core.uint\autogenerated_inline_func.h

; 1338 :     c = _ADDX_UNIT_DIV(c, xp[24], yp[24], &zp[24]);

	mov	eax, DWORD PTR [edx+96]
; File z:\sources\lunor\repos\rougemeilland\palmtree.math.core.uint\palmtree.math.core.uint\pmc_inline_func.h

; 254  :         return (_addcarryx_u32(carry, u, v, w));

	adcx	eax, DWORD PTR [esi+96]
	mov	DWORD PTR [edi+96], eax
; File z:\sources\lunor\repos\rougemeilland\palmtree.math.core.uint\palmtree.math.core.uint\autogenerated_inline_func.h

; 1339 :     c = _ADDX_UNIT_DIV(c, xp[25], yp[25], &zp[25]);

	mov	eax, DWORD PTR [edx+100]
; File z:\sources\lunor\repos\rougemeilland\palmtree.math.core.uint\palmtree.math.core.uint\pmc_inline_func.h

; 254  :         return (_addcarryx_u32(carry, u, v, w));

	adcx	eax, DWORD PTR [esi+100]
	mov	DWORD PTR [edi+100], eax
; File z:\sources\lunor\repos\rougemeilland\palmtree.math.core.uint\palmtree.math.core.uint\autogenerated_inline_func.h

; 1340 :     c = _ADDX_UNIT_DIV(c, xp[26], yp[26], &zp[26]);

	mov	eax, DWORD PTR [edx+104]
; File z:\sources\lunor\repos\rougemeilland\palmtree.math.core.uint\palmtree.math.core.uint\pmc_inline_func.h

; 254  :         return (_addcarryx_u32(carry, u, v, w));

	adcx	eax, DWORD PTR [esi+104]
	mov	DWORD PTR [edi+104], eax
; File z:\sources\lunor\repos\rougemeilland\palmtree.math.core.uint\palmtree.math.core.uint\autogenerated_inline_func.h

; 1341 :     c = _ADDX_UNIT_DIV(c, xp[27], yp[27], &zp[27]);

	mov	eax, DWORD PTR [edx+108]
; File z:\sources\lunor\repos\rougemeilland\palmtree.math.core.uint\palmtree.math.core.uint\pmc_inline_func.h

; 254  :         return (_addcarryx_u32(carry, u, v, w));

	adcx	eax, DWORD PTR [esi+108]
	mov	DWORD PTR [edi+108], eax
; File z:\sources\lunor\repos\rougemeilland\palmtree.math.core.uint\palmtree.math.core.uint\autogenerated_inline_func.h

; 1342 :     c = _ADDX_UNIT_DIV(c, xp[28], yp[28], &zp[28]);

	mov	eax, DWORD PTR [edx+112]
; File z:\sources\lunor\repos\rougemeilland\palmtree.math.core.uint\palmtree.math.core.uint\pmc_inline_func.h

; 254  :         return (_addcarryx_u32(carry, u, v, w));

	adcx	eax, DWORD PTR [esi+112]
	mov	DWORD PTR [edi+112], eax
; File z:\sources\lunor\repos\rougemeilland\palmtree.math.core.uint\palmtree.math.core.uint\autogenerated_inline_func.h

; 1343 :     c = _ADDX_UNIT_DIV(c, xp[29], yp[29], &zp[29]);

	mov	eax, DWORD PTR [edx+116]
; File z:\sources\lunor\repos\rougemeilland\palmtree.math.core.uint\palmtree.math.core.uint\pmc_inline_func.h

; 254  :         return (_addcarryx_u32(carry, u, v, w));

	adcx	eax, DWORD PTR [esi+116]
	mov	DWORD PTR [edi+116], eax
; File z:\sources\lunor\repos\rougemeilland\palmtree.math.core.uint\palmtree.math.core.uint\autogenerated_inline_func.h

; 1344 :     c = _ADDX_UNIT_DIV(c, xp[30], yp[30], &zp[30]);

	mov	eax, DWORD PTR [edx+120]
; File z:\sources\lunor\repos\rougemeilland\palmtree.math.core.uint\palmtree.math.core.uint\pmc_inline_func.h

; 254  :         return (_addcarryx_u32(carry, u, v, w));

	adcx	eax, DWORD PTR [esi+120]
	mov	DWORD PTR [edi+120], eax
; File z:\sources\lunor\repos\rougemeilland\palmtree.math.core.uint\palmtree.math.core.uint\autogenerated_inline_func.h

; 1345 :     c = _ADDX_UNIT_DIV(c, xp[31], yp[31], &zp[31]);

	mov	ecx, DWORD PTR [edx+124]
; File z:\sources\lunor\repos\rougemeilland\palmtree.math.core.uint\palmtree.math.core.uint\pmc_inline_func.h

; 254  :         return (_addcarryx_u32(carry, u, v, w));

	adcx	ecx, DWORD PTR [esi+124]
	mov	DWORD PTR [edi+124], ecx
; File z:\sources\lunor\repos\rougemeilland\palmtree.math.core.uint\palmtree.math.core.uint\autogenerated_inline_func.h

; 1561 :     return (c);

	pop	edi
; File z:\sources\lunor\repos\rougemeilland\palmtree.math.core.uint\palmtree.math.core.uint\pmc_inline_func.h

; 254  :         return (_addcarryx_u32(carry, u, v, w));

	setb	al
; File z:\sources\lunor\repos\rougemeilland\palmtree.math.core.uint\palmtree.math.core.uint\autogenerated_inline_func.h

; 1561 :     return (c);

	pop	esi

; 1562 : }

	pop	ebp
	ret	0
__ADD_32WORDS_ADCX_DIV ENDP
_TEXT	ENDS
; Function compile flags: /Ogtp
; File z:\sources\lunor\repos\rougemeilland\palmtree.math.core.uint\palmtree.math.core.uint\autogenerated_inline_func.h
; File z:\sources\lunor\repos\rougemeilland\palmtree.math.core.uint\palmtree.math.core.uint\pmc_inline_func.h
; File z:\sources\lunor\repos\rougemeilland\palmtree.math.core.uint\palmtree.math.core.uint\autogenerated_inline_func.h
; File z:\sources\lunor\repos\rougemeilland\palmtree.math.core.uint\palmtree.math.core.uint\pmc_inline_func.h
; File z:\sources\lunor\repos\rougemeilland\palmtree.math.core.uint\palmtree.math.core.uint\autogenerated_inline_func.h
; File z:\sources\lunor\repos\rougemeilland\palmtree.math.core.uint\palmtree.math.core.uint\pmc_inline_func.h
; File z:\sources\lunor\repos\rougemeilland\palmtree.math.core.uint\palmtree.math.core.uint\autogenerated_inline_func.h
; File z:\sources\lunor\repos\rougemeilland\palmtree.math.core.uint\palmtree.math.core.uint\pmc_inline_func.h
; File z:\sources\lunor\repos\rougemeilland\palmtree.math.core.uint\palmtree.math.core.uint\autogenerated_inline_func.h
; File z:\sources\lunor\repos\rougemeilland\palmtree.math.core.uint\palmtree.math.core.uint\pmc_inline_func.h
; File z:\sources\lunor\repos\rougemeilland\palmtree.math.core.uint\palmtree.math.core.uint\autogenerated_inline_func.h
; File z:\sources\lunor\repos\rougemeilland\palmtree.math.core.uint\palmtree.math.core.uint\pmc_inline_func.h
; File z:\sources\lunor\repos\rougemeilland\palmtree.math.core.uint\palmtree.math.core.uint\autogenerated_inline_func.h
; File z:\sources\lunor\repos\rougemeilland\palmtree.math.core.uint\palmtree.math.core.uint\pmc_inline_func.h
; File z:\sources\lunor\repos\rougemeilland\palmtree.math.core.uint\palmtree.math.core.uint\autogenerated_inline_func.h
; File z:\sources\lunor\repos\rougemeilland\palmtree.math.core.uint\palmtree.math.core.uint\pmc_inline_func.h
; File z:\sources\lunor\repos\rougemeilland\palmtree.math.core.uint\palmtree.math.core.uint\autogenerated_inline_func.h
; File z:\sources\lunor\repos\rougemeilland\palmtree.math.core.uint\palmtree.math.core.uint\pmc_inline_func.h
; File z:\sources\lunor\repos\rougemeilland\palmtree.math.core.uint\palmtree.math.core.uint\autogenerated_inline_func.h
; File z:\sources\lunor\repos\rougemeilland\palmtree.math.core.uint\palmtree.math.core.uint\pmc_inline_func.h
; File z:\sources\lunor\repos\rougemeilland\palmtree.math.core.uint\palmtree.math.core.uint\autogenerated_inline_func.h
; File z:\sources\lunor\repos\rougemeilland\palmtree.math.core.uint\palmtree.math.core.uint\pmc_inline_func.h
; File z:\sources\lunor\repos\rougemeilland\palmtree.math.core.uint\palmtree.math.core.uint\autogenerated_inline_func.h
; File z:\sources\lunor\repos\rougemeilland\palmtree.math.core.uint\palmtree.math.core.uint\pmc_inline_func.h
; File z:\sources\lunor\repos\rougemeilland\palmtree.math.core.uint\palmtree.math.core.uint\autogenerated_inline_func.h
; File z:\sources\lunor\repos\rougemeilland\palmtree.math.core.uint\palmtree.math.core.uint\pmc_inline_func.h
; File z:\sources\lunor\repos\rougemeilland\palmtree.math.core.uint\palmtree.math.core.uint\autogenerated_inline_func.h
; File z:\sources\lunor\repos\rougemeilland\palmtree.math.core.uint\palmtree.math.core.uint\pmc_inline_func.h
; File z:\sources\lunor\repos\rougemeilland\palmtree.math.core.uint\palmtree.math.core.uint\autogenerated_inline_func.h
; File z:\sources\lunor\repos\rougemeilland\palmtree.math.core.uint\palmtree.math.core.uint\pmc_inline_func.h
; File z:\sources\lunor\repos\rougemeilland\palmtree.math.core.uint\palmtree.math.core.uint\autogenerated_inline_func.h
; File z:\sources\lunor\repos\rougemeilland\palmtree.math.core.uint\palmtree.math.core.uint\pmc_inline_func.h
; File z:\sources\lunor\repos\rougemeilland\palmtree.math.core.uint\palmtree.math.core.uint\autogenerated_inline_func.h
; File z:\sources\lunor\repos\rougemeilland\palmtree.math.core.uint\palmtree.math.core.uint\pmc_inline_func.h
; File z:\sources\lunor\repos\rougemeilland\palmtree.math.core.uint\palmtree.math.core.uint\autogenerated_inline_func.h
; File z:\sources\lunor\repos\rougemeilland\palmtree.math.core.uint\palmtree.math.core.uint\pmc_inline_func.h
; File z:\sources\lunor\repos\rougemeilland\palmtree.math.core.uint\palmtree.math.core.uint\autogenerated_inline_func.h
; File z:\sources\lunor\repos\rougemeilland\palmtree.math.core.uint\palmtree.math.core.uint\pmc_inline_func.h
; File z:\sources\lunor\repos\rougemeilland\palmtree.math.core.uint\palmtree.math.core.uint\autogenerated_inline_func.h
; File z:\sources\lunor\repos\rougemeilland\palmtree.math.core.uint\palmtree.math.core.uint\pmc_inline_func.h
; File z:\sources\lunor\repos\rougemeilland\palmtree.math.core.uint\palmtree.math.core.uint\autogenerated_inline_func.h
; File z:\sources\lunor\repos\rougemeilland\palmtree.math.core.uint\palmtree.math.core.uint\pmc_inline_func.h
; File z:\sources\lunor\repos\rougemeilland\palmtree.math.core.uint\palmtree.math.core.uint\autogenerated_inline_func.h
; File z:\sources\lunor\repos\rougemeilland\palmtree.math.core.uint\palmtree.math.core.uint\pmc_inline_func.h
; File z:\sources\lunor\repos\rougemeilland\palmtree.math.core.uint\palmtree.math.core.uint\autogenerated_inline_func.h
; File z:\sources\lunor\repos\rougemeilland\palmtree.math.core.uint\palmtree.math.core.uint\pmc_inline_func.h
; File z:\sources\lunor\repos\rougemeilland\palmtree.math.core.uint\palmtree.math.core.uint\autogenerated_inline_func.h
; File z:\sources\lunor\repos\rougemeilland\palmtree.math.core.uint\palmtree.math.core.uint\pmc_inline_func.h
; File z:\sources\lunor\repos\rougemeilland\palmtree.math.core.uint\palmtree.math.core.uint\autogenerated_inline_func.h
; File z:\sources\lunor\repos\rougemeilland\palmtree.math.core.uint\palmtree.math.core.uint\pmc_inline_func.h
; File z:\sources\lunor\repos\rougemeilland\palmtree.math.core.uint\palmtree.math.core.uint\autogenerated_inline_func.h
; File z:\sources\lunor\repos\rougemeilland\palmtree.math.core.uint\palmtree.math.core.uint\pmc_inline_func.h
; File z:\sources\lunor\repos\rougemeilland\palmtree.math.core.uint\palmtree.math.core.uint\autogenerated_inline_func.h
; File z:\sources\lunor\repos\rougemeilland\palmtree.math.core.uint\palmtree.math.core.uint\pmc_inline_func.h
; File z:\sources\lunor\repos\rougemeilland\palmtree.math.core.uint\palmtree.math.core.uint\autogenerated_inline_func.h
; File z:\sources\lunor\repos\rougemeilland\palmtree.math.core.uint\palmtree.math.core.uint\pmc_inline_func.h
; File z:\sources\lunor\repos\rougemeilland\palmtree.math.core.uint\palmtree.math.core.uint\autogenerated_inline_func.h
; File z:\sources\lunor\repos\rougemeilland\palmtree.math.core.uint\palmtree.math.core.uint\pmc_inline_func.h
; File z:\sources\lunor\repos\rougemeilland\palmtree.math.core.uint\palmtree.math.core.uint\autogenerated_inline_func.h
; File z:\sources\lunor\repos\rougemeilland\palmtree.math.core.uint\palmtree.math.core.uint\pmc_inline_func.h
; File z:\sources\lunor\repos\rougemeilland\palmtree.math.core.uint\palmtree.math.core.uint\autogenerated_inline_func.h
; File z:\sources\lunor\repos\rougemeilland\palmtree.math.core.uint\palmtree.math.core.uint\pmc_inline_func.h
; File z:\sources\lunor\repos\rougemeilland\palmtree.math.core.uint\palmtree.math.core.uint\autogenerated_inline_func.h
; File z:\sources\lunor\repos\rougemeilland\palmtree.math.core.uint\palmtree.math.core.uint\pmc_inline_func.h
; File z:\sources\lunor\repos\rougemeilland\palmtree.math.core.uint\palmtree.math.core.uint\autogenerated_inline_func.h
; File z:\sources\lunor\repos\rougemeilland\palmtree.math.core.uint\palmtree.math.core.uint\pmc_inline_func.h
; File z:\sources\lunor\repos\rougemeilland\palmtree.math.core.uint\palmtree.math.core.uint\autogenerated_inline_func.h
; File z:\sources\lunor\repos\rougemeilland\palmtree.math.core.uint\palmtree.math.core.uint\pmc_inline_func.h
; File z:\sources\lunor\repos\rougemeilland\palmtree.math.core.uint\palmtree.math.core.uint\autogenerated_inline_func.h
;	COMDAT __ADD_32WORDS_ADC_DIV
_TEXT	SEGMENT
_c$ = 8							; size = 1
_xp$ = 12						; size = 4
_yp$ = 16						; size = 4
_zp$ = 20						; size = 4
__ADD_32WORDS_ADC_DIV PROC				; COMDAT

; 1059 : {

	push	ebp
	mov	ebp, esp

; 1060 : #ifdef _MSC_VER
; 1061 :     c = _ADD_UNIT_DIV(c, xp[0], yp[0], &zp[0]);

	mov	edx, DWORD PTR _xp$[ebp]
; File z:\sources\lunor\repos\rougemeilland\palmtree.math.core.uint\palmtree.math.core.uint\pmc_inline_func.h

; 226  :         return (_addcarry_u32(carry, u, v, w));

	mov	al, BYTE PTR _c$[ebp]
	add	al, 255					; 000000ffH
; File z:\sources\lunor\repos\rougemeilland\palmtree.math.core.uint\palmtree.math.core.uint\autogenerated_inline_func.h

; 1059 : {

	push	esi

; 1060 : #ifdef _MSC_VER
; 1061 :     c = _ADD_UNIT_DIV(c, xp[0], yp[0], &zp[0]);

	mov	esi, DWORD PTR _yp$[ebp]
	mov	ecx, DWORD PTR [edx]
	push	edi
; File z:\sources\lunor\repos\rougemeilland\palmtree.math.core.uint\palmtree.math.core.uint\pmc_inline_func.h

; 226  :         return (_addcarry_u32(carry, u, v, w));

	mov	edi, DWORD PTR _zp$[ebp]
	adc	ecx, DWORD PTR [esi]
	mov	DWORD PTR [edi], ecx
; File z:\sources\lunor\repos\rougemeilland\palmtree.math.core.uint\palmtree.math.core.uint\autogenerated_inline_func.h

; 1062 :     c = _ADD_UNIT_DIV(c, xp[1], yp[1], &zp[1]);

	mov	eax, DWORD PTR [edx+4]
; File z:\sources\lunor\repos\rougemeilland\palmtree.math.core.uint\palmtree.math.core.uint\pmc_inline_func.h

; 226  :         return (_addcarry_u32(carry, u, v, w));

	adc	eax, DWORD PTR [esi+4]
	mov	DWORD PTR [edi+4], eax
; File z:\sources\lunor\repos\rougemeilland\palmtree.math.core.uint\palmtree.math.core.uint\autogenerated_inline_func.h

; 1063 :     c = _ADD_UNIT_DIV(c, xp[2], yp[2], &zp[2]);

	mov	eax, DWORD PTR [edx+8]
; File z:\sources\lunor\repos\rougemeilland\palmtree.math.core.uint\palmtree.math.core.uint\pmc_inline_func.h

; 226  :         return (_addcarry_u32(carry, u, v, w));

	adc	eax, DWORD PTR [esi+8]
	mov	DWORD PTR [edi+8], eax
; File z:\sources\lunor\repos\rougemeilland\palmtree.math.core.uint\palmtree.math.core.uint\autogenerated_inline_func.h

; 1064 :     c = _ADD_UNIT_DIV(c, xp[3], yp[3], &zp[3]);

	mov	eax, DWORD PTR [edx+12]
; File z:\sources\lunor\repos\rougemeilland\palmtree.math.core.uint\palmtree.math.core.uint\pmc_inline_func.h

; 226  :         return (_addcarry_u32(carry, u, v, w));

	adc	eax, DWORD PTR [esi+12]
	mov	DWORD PTR [edi+12], eax
; File z:\sources\lunor\repos\rougemeilland\palmtree.math.core.uint\palmtree.math.core.uint\autogenerated_inline_func.h

; 1065 :     c = _ADD_UNIT_DIV(c, xp[4], yp[4], &zp[4]);

	mov	eax, DWORD PTR [edx+16]
; File z:\sources\lunor\repos\rougemeilland\palmtree.math.core.uint\palmtree.math.core.uint\pmc_inline_func.h

; 226  :         return (_addcarry_u32(carry, u, v, w));

	adc	eax, DWORD PTR [esi+16]
	mov	DWORD PTR [edi+16], eax
; File z:\sources\lunor\repos\rougemeilland\palmtree.math.core.uint\palmtree.math.core.uint\autogenerated_inline_func.h

; 1066 :     c = _ADD_UNIT_DIV(c, xp[5], yp[5], &zp[5]);

	mov	eax, DWORD PTR [edx+20]
; File z:\sources\lunor\repos\rougemeilland\palmtree.math.core.uint\palmtree.math.core.uint\pmc_inline_func.h

; 226  :         return (_addcarry_u32(carry, u, v, w));

	adc	eax, DWORD PTR [esi+20]
	mov	DWORD PTR [edi+20], eax
; File z:\sources\lunor\repos\rougemeilland\palmtree.math.core.uint\palmtree.math.core.uint\autogenerated_inline_func.h

; 1067 :     c = _ADD_UNIT_DIV(c, xp[6], yp[6], &zp[6]);

	mov	eax, DWORD PTR [edx+24]
; File z:\sources\lunor\repos\rougemeilland\palmtree.math.core.uint\palmtree.math.core.uint\pmc_inline_func.h

; 226  :         return (_addcarry_u32(carry, u, v, w));

	adc	eax, DWORD PTR [esi+24]
	mov	DWORD PTR [edi+24], eax
; File z:\sources\lunor\repos\rougemeilland\palmtree.math.core.uint\palmtree.math.core.uint\autogenerated_inline_func.h

; 1068 :     c = _ADD_UNIT_DIV(c, xp[7], yp[7], &zp[7]);

	mov	eax, DWORD PTR [edx+28]
; File z:\sources\lunor\repos\rougemeilland\palmtree.math.core.uint\palmtree.math.core.uint\pmc_inline_func.h

; 226  :         return (_addcarry_u32(carry, u, v, w));

	adc	eax, DWORD PTR [esi+28]
	mov	DWORD PTR [edi+28], eax
; File z:\sources\lunor\repos\rougemeilland\palmtree.math.core.uint\palmtree.math.core.uint\autogenerated_inline_func.h

; 1069 :     c = _ADD_UNIT_DIV(c, xp[8], yp[8], &zp[8]);

	mov	eax, DWORD PTR [edx+32]
; File z:\sources\lunor\repos\rougemeilland\palmtree.math.core.uint\palmtree.math.core.uint\pmc_inline_func.h

; 226  :         return (_addcarry_u32(carry, u, v, w));

	adc	eax, DWORD PTR [esi+32]
	mov	DWORD PTR [edi+32], eax
; File z:\sources\lunor\repos\rougemeilland\palmtree.math.core.uint\palmtree.math.core.uint\autogenerated_inline_func.h

; 1070 :     c = _ADD_UNIT_DIV(c, xp[9], yp[9], &zp[9]);

	mov	eax, DWORD PTR [edx+36]
; File z:\sources\lunor\repos\rougemeilland\palmtree.math.core.uint\palmtree.math.core.uint\pmc_inline_func.h

; 226  :         return (_addcarry_u32(carry, u, v, w));

	adc	eax, DWORD PTR [esi+36]
	mov	DWORD PTR [edi+36], eax
; File z:\sources\lunor\repos\rougemeilland\palmtree.math.core.uint\palmtree.math.core.uint\autogenerated_inline_func.h

; 1071 :     c = _ADD_UNIT_DIV(c, xp[10], yp[10], &zp[10]);

	mov	eax, DWORD PTR [edx+40]
; File z:\sources\lunor\repos\rougemeilland\palmtree.math.core.uint\palmtree.math.core.uint\pmc_inline_func.h

; 226  :         return (_addcarry_u32(carry, u, v, w));

	adc	eax, DWORD PTR [esi+40]
	mov	DWORD PTR [edi+40], eax
; File z:\sources\lunor\repos\rougemeilland\palmtree.math.core.uint\palmtree.math.core.uint\autogenerated_inline_func.h

; 1072 :     c = _ADD_UNIT_DIV(c, xp[11], yp[11], &zp[11]);

	mov	eax, DWORD PTR [edx+44]
; File z:\sources\lunor\repos\rougemeilland\palmtree.math.core.uint\palmtree.math.core.uint\pmc_inline_func.h

; 226  :         return (_addcarry_u32(carry, u, v, w));

	adc	eax, DWORD PTR [esi+44]
	mov	DWORD PTR [edi+44], eax
; File z:\sources\lunor\repos\rougemeilland\palmtree.math.core.uint\palmtree.math.core.uint\autogenerated_inline_func.h

; 1073 :     c = _ADD_UNIT_DIV(c, xp[12], yp[12], &zp[12]);

	mov	eax, DWORD PTR [edx+48]
; File z:\sources\lunor\repos\rougemeilland\palmtree.math.core.uint\palmtree.math.core.uint\pmc_inline_func.h

; 226  :         return (_addcarry_u32(carry, u, v, w));

	adc	eax, DWORD PTR [esi+48]
	mov	DWORD PTR [edi+48], eax
; File z:\sources\lunor\repos\rougemeilland\palmtree.math.core.uint\palmtree.math.core.uint\autogenerated_inline_func.h

; 1074 :     c = _ADD_UNIT_DIV(c, xp[13], yp[13], &zp[13]);

	mov	eax, DWORD PTR [edx+52]
; File z:\sources\lunor\repos\rougemeilland\palmtree.math.core.uint\palmtree.math.core.uint\pmc_inline_func.h

; 226  :         return (_addcarry_u32(carry, u, v, w));

	adc	eax, DWORD PTR [esi+52]
	mov	DWORD PTR [edi+52], eax
; File z:\sources\lunor\repos\rougemeilland\palmtree.math.core.uint\palmtree.math.core.uint\autogenerated_inline_func.h

; 1075 :     c = _ADD_UNIT_DIV(c, xp[14], yp[14], &zp[14]);

	mov	eax, DWORD PTR [edx+56]
; File z:\sources\lunor\repos\rougemeilland\palmtree.math.core.uint\palmtree.math.core.uint\pmc_inline_func.h

; 226  :         return (_addcarry_u32(carry, u, v, w));

	adc	eax, DWORD PTR [esi+56]
	mov	DWORD PTR [edi+56], eax
; File z:\sources\lunor\repos\rougemeilland\palmtree.math.core.uint\palmtree.math.core.uint\autogenerated_inline_func.h

; 1076 :     c = _ADD_UNIT_DIV(c, xp[15], yp[15], &zp[15]);

	mov	eax, DWORD PTR [edx+60]
; File z:\sources\lunor\repos\rougemeilland\palmtree.math.core.uint\palmtree.math.core.uint\pmc_inline_func.h

; 226  :         return (_addcarry_u32(carry, u, v, w));

	adc	eax, DWORD PTR [esi+60]
	mov	DWORD PTR [edi+60], eax
; File z:\sources\lunor\repos\rougemeilland\palmtree.math.core.uint\palmtree.math.core.uint\autogenerated_inline_func.h

; 1077 :     c = _ADD_UNIT_DIV(c, xp[16], yp[16], &zp[16]);

	mov	eax, DWORD PTR [edx+64]
; File z:\sources\lunor\repos\rougemeilland\palmtree.math.core.uint\palmtree.math.core.uint\pmc_inline_func.h

; 226  :         return (_addcarry_u32(carry, u, v, w));

	adc	eax, DWORD PTR [esi+64]
	mov	DWORD PTR [edi+64], eax
; File z:\sources\lunor\repos\rougemeilland\palmtree.math.core.uint\palmtree.math.core.uint\autogenerated_inline_func.h

; 1078 :     c = _ADD_UNIT_DIV(c, xp[17], yp[17], &zp[17]);

	mov	eax, DWORD PTR [edx+68]
; File z:\sources\lunor\repos\rougemeilland\palmtree.math.core.uint\palmtree.math.core.uint\pmc_inline_func.h

; 226  :         return (_addcarry_u32(carry, u, v, w));

	adc	eax, DWORD PTR [esi+68]
	mov	DWORD PTR [edi+68], eax
; File z:\sources\lunor\repos\rougemeilland\palmtree.math.core.uint\palmtree.math.core.uint\autogenerated_inline_func.h

; 1079 :     c = _ADD_UNIT_DIV(c, xp[18], yp[18], &zp[18]);

	mov	eax, DWORD PTR [edx+72]
; File z:\sources\lunor\repos\rougemeilland\palmtree.math.core.uint\palmtree.math.core.uint\pmc_inline_func.h

; 226  :         return (_addcarry_u32(carry, u, v, w));

	adc	eax, DWORD PTR [esi+72]
	mov	DWORD PTR [edi+72], eax
; File z:\sources\lunor\repos\rougemeilland\palmtree.math.core.uint\palmtree.math.core.uint\autogenerated_inline_func.h

; 1080 :     c = _ADD_UNIT_DIV(c, xp[19], yp[19], &zp[19]);

	mov	eax, DWORD PTR [edx+76]
; File z:\sources\lunor\repos\rougemeilland\palmtree.math.core.uint\palmtree.math.core.uint\pmc_inline_func.h

; 226  :         return (_addcarry_u32(carry, u, v, w));

	adc	eax, DWORD PTR [esi+76]
	mov	DWORD PTR [edi+76], eax
; File z:\sources\lunor\repos\rougemeilland\palmtree.math.core.uint\palmtree.math.core.uint\autogenerated_inline_func.h

; 1081 :     c = _ADD_UNIT_DIV(c, xp[20], yp[20], &zp[20]);

	mov	eax, DWORD PTR [edx+80]
; File z:\sources\lunor\repos\rougemeilland\palmtree.math.core.uint\palmtree.math.core.uint\pmc_inline_func.h

; 226  :         return (_addcarry_u32(carry, u, v, w));

	adc	eax, DWORD PTR [esi+80]
	mov	DWORD PTR [edi+80], eax
; File z:\sources\lunor\repos\rougemeilland\palmtree.math.core.uint\palmtree.math.core.uint\autogenerated_inline_func.h

; 1082 :     c = _ADD_UNIT_DIV(c, xp[21], yp[21], &zp[21]);

	mov	eax, DWORD PTR [edx+84]
; File z:\sources\lunor\repos\rougemeilland\palmtree.math.core.uint\palmtree.math.core.uint\pmc_inline_func.h

; 226  :         return (_addcarry_u32(carry, u, v, w));

	adc	eax, DWORD PTR [esi+84]
	mov	DWORD PTR [edi+84], eax
; File z:\sources\lunor\repos\rougemeilland\palmtree.math.core.uint\palmtree.math.core.uint\autogenerated_inline_func.h

; 1083 :     c = _ADD_UNIT_DIV(c, xp[22], yp[22], &zp[22]);

	mov	eax, DWORD PTR [edx+88]
; File z:\sources\lunor\repos\rougemeilland\palmtree.math.core.uint\palmtree.math.core.uint\pmc_inline_func.h

; 226  :         return (_addcarry_u32(carry, u, v, w));

	adc	eax, DWORD PTR [esi+88]
	mov	DWORD PTR [edi+88], eax
; File z:\sources\lunor\repos\rougemeilland\palmtree.math.core.uint\palmtree.math.core.uint\autogenerated_inline_func.h

; 1084 :     c = _ADD_UNIT_DIV(c, xp[23], yp[23], &zp[23]);

	mov	eax, DWORD PTR [edx+92]
; File z:\sources\lunor\repos\rougemeilland\palmtree.math.core.uint\palmtree.math.core.uint\pmc_inline_func.h

; 226  :         return (_addcarry_u32(carry, u, v, w));

	adc	eax, DWORD PTR [esi+92]
	mov	DWORD PTR [edi+92], eax
; File z:\sources\lunor\repos\rougemeilland\palmtree.math.core.uint\palmtree.math.core.uint\autogenerated_inline_func.h

; 1085 :     c = _ADD_UNIT_DIV(c, xp[24], yp[24], &zp[24]);

	mov	eax, DWORD PTR [edx+96]
; File z:\sources\lunor\repos\rougemeilland\palmtree.math.core.uint\palmtree.math.core.uint\pmc_inline_func.h

; 226  :         return (_addcarry_u32(carry, u, v, w));

	adc	eax, DWORD PTR [esi+96]
	mov	DWORD PTR [edi+96], eax
; File z:\sources\lunor\repos\rougemeilland\palmtree.math.core.uint\palmtree.math.core.uint\autogenerated_inline_func.h

; 1086 :     c = _ADD_UNIT_DIV(c, xp[25], yp[25], &zp[25]);

	mov	eax, DWORD PTR [edx+100]
; File z:\sources\lunor\repos\rougemeilland\palmtree.math.core.uint\palmtree.math.core.uint\pmc_inline_func.h

; 226  :         return (_addcarry_u32(carry, u, v, w));

	adc	eax, DWORD PTR [esi+100]
	mov	DWORD PTR [edi+100], eax
; File z:\sources\lunor\repos\rougemeilland\palmtree.math.core.uint\palmtree.math.core.uint\autogenerated_inline_func.h

; 1087 :     c = _ADD_UNIT_DIV(c, xp[26], yp[26], &zp[26]);

	mov	eax, DWORD PTR [edx+104]
; File z:\sources\lunor\repos\rougemeilland\palmtree.math.core.uint\palmtree.math.core.uint\pmc_inline_func.h

; 226  :         return (_addcarry_u32(carry, u, v, w));

	adc	eax, DWORD PTR [esi+104]
	mov	DWORD PTR [edi+104], eax
; File z:\sources\lunor\repos\rougemeilland\palmtree.math.core.uint\palmtree.math.core.uint\autogenerated_inline_func.h

; 1088 :     c = _ADD_UNIT_DIV(c, xp[27], yp[27], &zp[27]);

	mov	eax, DWORD PTR [edx+108]
; File z:\sources\lunor\repos\rougemeilland\palmtree.math.core.uint\palmtree.math.core.uint\pmc_inline_func.h

; 226  :         return (_addcarry_u32(carry, u, v, w));

	adc	eax, DWORD PTR [esi+108]
	mov	DWORD PTR [edi+108], eax
; File z:\sources\lunor\repos\rougemeilland\palmtree.math.core.uint\palmtree.math.core.uint\autogenerated_inline_func.h

; 1089 :     c = _ADD_UNIT_DIV(c, xp[28], yp[28], &zp[28]);

	mov	eax, DWORD PTR [edx+112]
; File z:\sources\lunor\repos\rougemeilland\palmtree.math.core.uint\palmtree.math.core.uint\pmc_inline_func.h

; 226  :         return (_addcarry_u32(carry, u, v, w));

	adc	eax, DWORD PTR [esi+112]
	mov	DWORD PTR [edi+112], eax
; File z:\sources\lunor\repos\rougemeilland\palmtree.math.core.uint\palmtree.math.core.uint\autogenerated_inline_func.h

; 1090 :     c = _ADD_UNIT_DIV(c, xp[29], yp[29], &zp[29]);

	mov	eax, DWORD PTR [edx+116]
; File z:\sources\lunor\repos\rougemeilland\palmtree.math.core.uint\palmtree.math.core.uint\pmc_inline_func.h

; 226  :         return (_addcarry_u32(carry, u, v, w));

	adc	eax, DWORD PTR [esi+116]
	mov	DWORD PTR [edi+116], eax
; File z:\sources\lunor\repos\rougemeilland\palmtree.math.core.uint\palmtree.math.core.uint\autogenerated_inline_func.h

; 1091 :     c = _ADD_UNIT_DIV(c, xp[30], yp[30], &zp[30]);

	mov	eax, DWORD PTR [edx+120]
; File z:\sources\lunor\repos\rougemeilland\palmtree.math.core.uint\palmtree.math.core.uint\pmc_inline_func.h

; 226  :         return (_addcarry_u32(carry, u, v, w));

	adc	eax, DWORD PTR [esi+120]
	mov	DWORD PTR [edi+120], eax
; File z:\sources\lunor\repos\rougemeilland\palmtree.math.core.uint\palmtree.math.core.uint\autogenerated_inline_func.h

; 1092 :     c = _ADD_UNIT_DIV(c, xp[31], yp[31], &zp[31]);

	mov	ecx, DWORD PTR [edx+124]
; File z:\sources\lunor\repos\rougemeilland\palmtree.math.core.uint\palmtree.math.core.uint\pmc_inline_func.h

; 226  :         return (_addcarry_u32(carry, u, v, w));

	adc	ecx, DWORD PTR [esi+124]
	mov	DWORD PTR [edi+124], ecx
; File z:\sources\lunor\repos\rougemeilland\palmtree.math.core.uint\palmtree.math.core.uint\autogenerated_inline_func.h

; 1308 :     return (c);

	pop	edi
; File z:\sources\lunor\repos\rougemeilland\palmtree.math.core.uint\palmtree.math.core.uint\pmc_inline_func.h

; 226  :         return (_addcarry_u32(carry, u, v, w));

	setb	al
; File z:\sources\lunor\repos\rougemeilland\palmtree.math.core.uint\palmtree.math.core.uint\autogenerated_inline_func.h

; 1308 :     return (c);

	pop	esi

; 1309 : }

	pop	ebp
	ret	0
__ADD_32WORDS_ADC_DIV ENDP
_TEXT	ENDS
; Function compile flags: /Ogtp
; File z:\sources\lunor\repos\rougemeilland\palmtree.math.core.uint\palmtree.math.core.uint\pmc_inline_func.h
;	COMDAT __LZCNT_ALT_UNIT_DIV
_TEXT	SEGMENT
_x$ = 8							; size = 4
__LZCNT_ALT_UNIT_DIV PROC				; COMDAT

; 658  :     {

	push	ebp
	mov	ebp, esp

; 659  :         if (x == 0)

	mov	eax, DWORD PTR _x$[ebp]
	test	eax, eax
	jne	SHORT $LN2@LZCNT_ALT_

; 660  :             return (sizeof(x) * 8);

	mov	eax, 32					; 00000020H

; 684  :     }

	pop	ebp
	ret	0
$LN2@LZCNT_ALT_:

; 661  : #ifdef _M_IX86
; 662  :         _UINT32_T pos;
; 663  : #ifdef _MSC_VER
; 664  :         _BitScanReverse(&pos, x);

	bsr	ecx, eax

; 665  : #elif defined(__GNUC__)
; 666  :         __asm__("bsrl %1, %0" : "=r"(pos) : "rm"(x));
; 667  : #else
; 668  : #error unknown compiler
; 669  : #endif
; 670  : #elif defined(_M_X64)
; 671  : #ifdef _MSC_VER
; 672  :         _UINT32_T pos;
; 673  :         _BitScanReverse(&pos, x);
; 674  : #elif defined(__GNUC__)
; 675  :         _UINT64_T pos;
; 676  :         __asm__("bsrq %1, %0" : "=r"(pos) : "rm"(x));
; 677  : #else
; 678  : #error unknown compiler
; 679  : #endif
; 680  : #else
; 681  : #error unknown platform
; 682  : #endif
; 683  :         return (sizeof(x) * 8 - 1 - pos);

	mov	eax, 31					; 0000001fH
	sub	eax, ecx

; 684  :     }

	pop	ebp
	ret	0
__LZCNT_ALT_UNIT_DIV ENDP
_TEXT	ENDS
; Function compile flags: /Ogtp
; File z:\sources\lunor\repos\rougemeilland\palmtree.math.core.uint\palmtree.math.core.uint\pmc_inline_func.h
;	COMDAT __LZCNT_ALT_UNIT
_TEXT	SEGMENT
_x$ = 8							; size = 4
__LZCNT_ALT_UNIT PROC					; COMDAT

; 629  :     {

	push	ebp
	mov	ebp, esp

; 630  :         if (x == 0)

	mov	eax, DWORD PTR _x$[ebp]
	test	eax, eax
	jne	SHORT $LN2@LZCNT_ALT_

; 631  :             return (sizeof(x) * 8);

	mov	eax, 32					; 00000020H

; 655  :     }

	pop	ebp
	ret	0
$LN2@LZCNT_ALT_:

; 632  : #ifdef _M_IX86
; 633  :         _UINT32_T pos;
; 634  : #ifdef _MSC_VER
; 635  :         _BitScanReverse(&pos, x);

	bsr	ecx, eax

; 636  : #elif defined(__GNUC__)
; 637  :         __asm__("bsrl %1, %0" : "=r"(pos) : "rm"(x));
; 638  : #else
; 639  : #error unknown compiler
; 640  : #endif
; 641  : #elif defined(_M_X64)
; 642  : #ifdef _MSC_VER
; 643  :         _UINT32_T pos;
; 644  :         _BitScanReverse64(&pos, x);
; 645  : #elif defined(__GNUC__)
; 646  :         _UINT64_T pos;
; 647  :         __asm__("bsrq %1, %0" : "=r"(pos) : "rm"(x));
; 648  : #else
; 649  : #error unknown compiler
; 650  : #endif
; 651  : #else
; 652  : #error unknown platform
; 653  : #endif
; 654  :         return (sizeof(x) * 8 - 1 - pos);

	mov	eax, 31					; 0000001fH
	sub	eax, ecx

; 655  :     }

	pop	ebp
	ret	0
__LZCNT_ALT_UNIT ENDP
_TEXT	ENDS
; Function compile flags: /Ogtp
; File z:\sources\lunor\repos\rougemeilland\palmtree.math.core.uint\palmtree.math.core.uint\pmc_inline_func.h
;	COMDAT __LZCNT_ALT_32
_TEXT	SEGMENT
_x$ = 8							; size = 4
__LZCNT_ALT_32 PROC					; COMDAT

; 596  :     {

	push	ebp
	mov	ebp, esp

; 597  :         if (x == 0)

	mov	eax, DWORD PTR _x$[ebp]
	test	eax, eax
	jne	SHORT $LN2@LZCNT_ALT_

; 598  :             return (sizeof(x) * 8);

	mov	eax, 32					; 00000020H

; 608  :     }

	pop	ebp
	ret	0
$LN2@LZCNT_ALT_:

; 599  :         _UINT32_T pos;
; 600  : #ifdef _MSC_VER
; 601  :         _BitScanReverse(&pos, x);

	bsr	ecx, eax

; 602  : #elif defined(__GNUC__)
; 603  :         __asm__("bsrl %1, %0" : "=r"(pos) : "rm"(x));
; 604  : #else
; 605  : #error unknown compiler
; 606  : #endif
; 607  :         return (sizeof(x) * 8 - 1 - pos);

	mov	eax, 31					; 0000001fH
	sub	eax, ecx

; 608  :     }

	pop	ebp
	ret	0
__LZCNT_ALT_32 ENDP
_TEXT	ENDS
; Function compile flags: /Ogtp
; File z:\sources\lunor\repos\rougemeilland\palmtree.math.core.uint\palmtree.math.core.uint\pmc_inline_func.h
;	COMDAT __DIVREM_SINGLE_UNIT
_TEXT	SEGMENT
tv70 = -8						; size = 8
tv69 = -8						; size = 8
_r$ = 8							; size = 4
_u$ = 12						; size = 4
_v$ = 16						; size = 4
_q$ = 20						; size = 4
__DIVREM_SINGLE_UNIT PROC				; COMDAT

; 428  :     {

	push	ebp
	mov	ebp, esp
	sub	esp, 8

; 178  :         return (((_UINT64_T)value_high << 32) | value_low);

	mov	eax, DWORD PTR _r$[ebp]
	xor	ecx, ecx
	or	ecx, DWORD PTR _u$[ebp]

; 428  :     {

	push	ebx

; 429  : #ifdef _MSC_VER
; 430  :         if (sizeof(__UNIT_TYPE_DIV) == sizeof(_UINT32_T))
; 431  :         {
; 432  :             // 64bit/32bitの除算を行う組み込み関数は実装されていない。
; 433  :             _UINT64_T t = _FROMWORDTODWORD(r, u);
; 434  :             *q = (_UINT32_T)(t / v);

	push	ebx
	push	0
	push	DWORD PTR _v$[ebp]
	push	eax
	push	ecx
	call	__aulldvrm
	mov	DWORD PTR tv70[ebp+4], ebx
	pop	ebx
	mov	DWORD PTR tv69[ebp+4], edx
	mov	edx, DWORD PTR _q$[ebp]

; 435  :             return ((_UINT32_T)(t % v));

	pop	ebx
	mov	DWORD PTR [edx], eax
	mov	eax, ecx

; 436  :         }
; 437  :         else if (sizeof(__UNIT_TYPE_DIV) == sizeof(_UINT64_T))
; 438  :         {
; 439  :             // 以下の理由のため、MSVCでは 128bit/64bit の除算を実装できない。運用で回避すること。
; 440  :             // ・(x64 に限らず) 除算の組み込み関数が用意されていない。
; 441  :             // ・128bit 整数のデータ型が用意されていない。
; 442  :             // ・x64 ではインラインアセンブラがサポートされていない。
; 443  :             *q = 0;
; 444  :             return (0);
; 445  :         }
; 446  :         else
; 447  :         {
; 448  :             // 未知のプラットフォームの場合はとりあえず適当なものを返す。
; 449  :             *q = 0;
; 450  :             return (0);
; 451  :         }
; 452  : #elif defined(__GNUC__)
; 453  :         if (sizeof(__UNIT_TYPE_DIV) == sizeof(_UINT32_T))
; 454  :             __asm__("divl %4": "=a"(*q), "=d"(r) : "0"(u), "1"(r), "rm"(v));
; 455  :         else if (sizeof(__UNIT_TYPE_DIV) == sizeof(_UINT64_T))
; 456  :             __asm__("divq %4": "=a"(*q), "=d"(r) : "0"(u), "1"(r), "rm"(v));
; 457  :         else
; 458  :         {
; 459  :             // 未知のプラットフォームの場合はとりあえず適当なものを返す。
; 460  :             *q = 0;
; 461  :             r = 0;
; 462  :         }
; 463  :         return (r);
; 464  : #else
; 465  : #error unknown compiler
; 466  : #endif
; 467  :     }

	mov	esp, ebp
	pop	ebp
	ret	0
__DIVREM_SINGLE_UNIT ENDP
_TEXT	ENDS
; Function compile flags: /Ogtp
; File z:\sources\lunor\repos\rougemeilland\palmtree.math.core.uint\palmtree.math.core.uint\pmc_inline_func.h
;	COMDAT __DIVREM_UNIT
_TEXT	SEGMENT
tv70 = -8						; size = 8
tv69 = -8						; size = 8
_u_high$ = 8						; size = 4
_u_low$ = 12						; size = 4
_v$ = 16						; size = 4
_r$ = 20						; size = 4
__DIVREM_UNIT PROC					; COMDAT

; 384  :     {

	push	ebp
	mov	ebp, esp
	sub	esp, 8

; 178  :         return (((_UINT64_T)value_high << 32) | value_low);

	mov	eax, DWORD PTR _u_high$[ebp]
	xor	ecx, ecx
	or	ecx, DWORD PTR _u_low$[ebp]

; 384  :     {

	push	ebx

; 385  : #ifdef _MSC_VER
; 386  :         if (sizeof(__UNIT_TYPE_DIV) == sizeof(_UINT32_T))
; 387  :         {
; 388  :             // 64bit/32bitの除算を行う組み込み関数は実装されていない。
; 389  :             _UINT64_T t = _FROMWORDTODWORD(u_high, u_low);
; 390  :             *r = (_UINT32_T)(t % v);

	push	ebx
	push	0
	push	DWORD PTR _v$[ebp]
	push	eax
	push	ecx
	call	__aulldvrm
	mov	DWORD PTR tv69[ebp+4], ebx
	pop	ebx
	mov	DWORD PTR tv70[ebp+4], edx
	mov	edx, DWORD PTR _r$[ebp]

; 391  :             return ((_UINT32_T)(t / v));

	pop	ebx
	mov	DWORD PTR [edx], ecx

; 392  :         }
; 393  :         else if (sizeof(__UNIT_TYPE_DIV) == sizeof(_UINT64_T))
; 394  :         {
; 395  :             // 以下の理由のため、MSVCでは 128bit/64bit の除算を実装できない。運用で回避すること。
; 396  :             // ・(x64 に限らず) 除算の組み込み関数が用意されていない。
; 397  :             // ・128bit 整数のデータ型が用意されていない。
; 398  :             // ・x64 ではインラインアセンブラがサポートされていない。
; 399  :             *r = 0;
; 400  :             return (0);
; 401  :         }
; 402  :         else
; 403  :         {
; 404  :             // 未知のプラットフォームの場合はとりあえず適当なものを返す。
; 405  :             *r = 0;
; 406  :             return (0);
; 407  :         }
; 408  : #elif defined(__GNUC__)
; 409  :         __UNIT_TYPE q;
; 410  :         if (sizeof(__UNIT_TYPE_DIV) == sizeof(_UINT32_T))
; 411  :             __asm__("divl %4": "=a"(q), "=d"(*r) : "0"(u_low), "1"(u_high), "rm"(v));
; 412  :         else if (sizeof(__UNIT_TYPE_DIV) == sizeof(_UINT64_T))
; 413  :             __asm__("divq %4": "=a"(q), "=d"(*r) : "0"(u_low), "1"(u_high), "rm"(v));
; 414  :         else
; 415  :         {
; 416  :             // 未知のプラットフォームの場合はとりあえず適当なものを返す。
; 417  :             *r = 0;
; 418  :             q = 0;
; 419  :         }
; 420  :         return (q);
; 421  : #else
; 422  : #error unknown compiler
; 423  : #endif
; 424  :     }

	mov	esp, ebp
	pop	ebp
	ret	0
__DIVREM_UNIT ENDP
_TEXT	ENDS
; Function compile flags: /Ogtp
; File z:\sources\lunor\repos\rougemeilland\palmtree.math.core.uint\palmtree.math.core.uint\pmc_inline_func.h
;	COMDAT __MULTIPLYX_UNIT_DIV
_TEXT	SEGMENT
_u$ = 8							; size = 4
_v$ = 12						; size = 4
_w_hi$ = 16						; size = 4
__MULTIPLYX_UNIT_DIV PROC				; COMDAT

; 362  :     {

	push	ebp
	mov	ebp, esp

; 363  : #ifdef _MSC_VER
; 364  :         return (_FROMDWORDTOWORD((_UINT64_T)u * v, w_hi));

	mov	eax, DWORD PTR _u$[ebp]
	mul	DWORD PTR _v$[ebp]

; 183  :         *result_high = (_UINT32_T)(value >> 32);

	mov	ecx, DWORD PTR _w_hi$[ebp]
	mov	DWORD PTR [ecx], edx

; 365  : #elif defined(__GNUC__)
; 366  : #ifdef _M_IX86
; 367  :         _UINT32_T w_lo;
; 368  :         __asm__("mulxl %3, %0, %1" : "=r"(w_lo), "=r"(*w_hi), "+d"(u) : "rm"(v));
; 369  :         return (w_lo);
; 370  : #elif defined(_M_X64)
; 371  :         _UINT64_T w_lo;
; 372  :         __asm__("mulxq %3, %0, %1" : "=r"(w_lo), "=r"(*w_hi), "+d"(u) : "rm"(v));
; 373  :         return (w_lo);
; 374  : #else
; 375  : #error unknown platform
; 376  : #endif
; 377  : #else
; 378  : #error unknown compiler
; 379  : #endif
; 380  :     }

	pop	ebp
	ret	0
__MULTIPLYX_UNIT_DIV ENDP
_TEXT	ENDS
; Function compile flags: /Ogtp
; File z:\sources\lunor\repos\rougemeilland\palmtree.math.core.uint\palmtree.math.core.uint\pmc_inline_func.h
;	COMDAT __MULTIPLY_UNIT_DIV
_TEXT	SEGMENT
_u$ = 8							; size = 4
_v$ = 12						; size = 4
_w_hi$ = 16						; size = 4
__MULTIPLY_UNIT_DIV PROC				; COMDAT

; 316  :     {

	push	ebp
	mov	ebp, esp

; 317  : #ifdef _MSC_VER
; 318  :         return (_FROMDWORDTOWORD((_UINT64_T)u * v, w_hi));

	mov	eax, DWORD PTR _u$[ebp]
	mul	DWORD PTR _v$[ebp]

; 183  :         *result_high = (_UINT32_T)(value >> 32);

	mov	ecx, DWORD PTR _w_hi$[ebp]
	mov	DWORD PTR [ecx], edx

; 319  : #elif defined(__GNUC__)
; 320  : #ifdef _M_IX86
; 321  :         _UINT32_T w_lo;
; 322  :         __asm__("mull %3": "=a"(w_lo), "=d"(*w_hi) : "0"(u), "rm"(v));
; 323  :         return (w_lo);
; 324  : #elif defined(_M_X64)
; 325  :         return (_umul128(u, v, w_hi));
; 326  : #else
; 327  : #error unknown platform
; 328  : #endif
; 329  : #else
; 330  : #error unknown compiler
; 331  : #endif
; 332  :     }

	pop	ebp
	ret	0
__MULTIPLY_UNIT_DIV ENDP
_TEXT	ENDS
; Function compile flags: /Ogtp
; File z:\sources\lunor\repos\rougemeilland\palmtree.math.core.uint\palmtree.math.core.uint\pmc_inline_func.h
;	COMDAT __SUBTRUCT_UNIT_DIV
_TEXT	SEGMENT
_borrow$ = 8						; size = 1
_u$ = 12						; size = 4
_v$ = 16						; size = 4
_w$ = 20						; size = 4
__SUBTRUCT_UNIT_DIV PROC				; COMDAT

; 280  :     {

	push	ebp
	mov	ebp, esp

; 281  : #ifdef _MSC_VER
; 282  :         return (_subborrow_u32(borrow, u, v, w));

	mov	al, BYTE PTR _borrow$[ebp]
	mov	edx, DWORD PTR _w$[ebp]
	add	al, 255					; 000000ffH
	mov	ecx, DWORD PTR _u$[ebp]
	sbb	ecx, DWORD PTR _v$[ebp]
	setb	al
	mov	DWORD PTR [edx], ecx

; 283  : #elif defined(__GNUC__)
; 284  : #ifdef _M_IX86
; 285  :         return (_subborrow_u32(borrow, u, v, w));
; 286  : #elif defined(_M_X64)
; 287  :         return (_subborrow_u64(borrow, u, v, w));
; 288  : #else
; 289  : #error unknown platform
; 290  : #endif
; 291  : #else
; 292  : #error unknown compiler
; 293  : #endif
; 294  :     }

	pop	ebp
	ret	0
__SUBTRUCT_UNIT_DIV ENDP
_TEXT	ENDS
; Function compile flags: /Ogtp
; File z:\sources\lunor\repos\rougemeilland\palmtree.math.core.uint\palmtree.math.core.uint\pmc_inline_func.h
;	COMDAT __ADDX_UNIT_DIV
_TEXT	SEGMENT
_carry$ = 8						; size = 1
_u$ = 12						; size = 4
_v$ = 16						; size = 4
_w$ = 20						; size = 4
__ADDX_UNIT_DIV PROC					; COMDAT

; 252  :     {

	push	ebp
	mov	ebp, esp

; 253  : #ifdef _MSC_VER
; 254  :         return (_addcarryx_u32(carry, u, v, w));

	mov	al, BYTE PTR _carry$[ebp]
	mov	edx, DWORD PTR _w$[ebp]
	add	al, 255					; 000000ffH
	mov	ecx, DWORD PTR _u$[ebp]
	adcx	ecx, DWORD PTR _v$[ebp]
	setb	al
	mov	DWORD PTR [edx], ecx

; 255  : #elif defined(__GNUC__)
; 256  : #ifdef _M_IX86
; 257  :         return (_addcarryx_u32(carry, u, v, w));
; 258  : #elif defined(_M_X64)
; 259  :         return (_addcarryx_u64(carry, u, v, w));
; 260  : #else
; 261  : #error unknown platform
; 262  : #endif
; 263  : #else
; 264  : #error unknown compiler
; 265  : #endif
; 266  :     }

	pop	ebp
	ret	0
__ADDX_UNIT_DIV ENDP
_TEXT	ENDS
; Function compile flags: /Ogtp
; File z:\sources\lunor\repos\rougemeilland\palmtree.math.core.uint\palmtree.math.core.uint\pmc_inline_func.h
;	COMDAT __ADD_UNIT_DIV
_TEXT	SEGMENT
_carry$ = 8						; size = 1
_u$ = 12						; size = 4
_v$ = 16						; size = 4
_w$ = 20						; size = 4
__ADD_UNIT_DIV PROC					; COMDAT

; 224  :     {

	push	ebp
	mov	ebp, esp

; 225  : #ifdef _MSC_VER
; 226  :         return (_addcarry_u32(carry, u, v, w));

	mov	al, BYTE PTR _carry$[ebp]
	mov	edx, DWORD PTR _w$[ebp]
	add	al, 255					; 000000ffH
	mov	ecx, DWORD PTR _u$[ebp]
	adc	ecx, DWORD PTR _v$[ebp]
	setb	al
	mov	DWORD PTR [edx], ecx

; 227  : #elif defined(__GNUC__)
; 228  : #ifdef _M_IX86
; 229  :         return (_addcarry_u32(carry, u, v, w));
; 230  : #elif defined(_M_X64)
; 231  :         return (_addcarry_u64(carry, u, v, w));
; 232  : #else
; 233  : #error unknown platform
; 234  : #endif
; 235  : #else
; 236  : #error unknown compiler
; 237  : #endif
; 238  :     }

	pop	ebp
	ret	0
__ADD_UNIT_DIV ENDP
_TEXT	ENDS
; Function compile flags: /Ogtp
; File z:\sources\lunor\repos\rougemeilland\palmtree.math.core.uint\palmtree.math.core.uint\pmc_inline_func.h
;	COMDAT __FROMDWORDTOWORD
_TEXT	SEGMENT
_value$ = 8						; size = 8
_result_high$ = 16					; size = 4
__FROMDWORDTOWORD PROC					; COMDAT

; 182  :     {

	push	ebp
	mov	ebp, esp

; 183  :         *result_high = (_UINT32_T)(value >> 32);

	mov	eax, DWORD PTR _result_high$[ebp]
	mov	ecx, DWORD PTR _value$[ebp+4]
	mov	DWORD PTR [eax], ecx

; 184  :         return ((_UINT32_T)value);

	mov	eax, DWORD PTR _value$[ebp]

; 185  :     }

	pop	ebp
	ret	0
__FROMDWORDTOWORD ENDP
_TEXT	ENDS
; Function compile flags: /Ogtp
; File z:\sources\lunor\repos\rougemeilland\palmtree.math.core.uint\palmtree.math.core.uint\pmc_inline_func.h
;	COMDAT __FROMWORDTODWORD
_TEXT	SEGMENT
_value_high$ = 8					; size = 4
_value_low$ = 12					; size = 4
__FROMWORDTODWORD PROC					; COMDAT

; 177  :     {

	push	ebp
	mov	ebp, esp

; 178  :         return (((_UINT64_T)value_high << 32) | value_low);

	mov	edx, DWORD PTR _value_high$[ebp]
	xor	eax, eax
	or	eax, DWORD PTR _value_low$[ebp]

; 179  :     }

	pop	ebp
	ret	0
__FROMWORDTODWORD ENDP
_TEXT	ENDS
; Function compile flags: /Ogtp
; File z:\sources\lunor\repos\rougemeilland\palmtree.math.core.uint\palmtree.math.core.uint\pmc_inline_func.h
;	COMDAT __COPY_MEMORY_UNIT_DIV
_TEXT	SEGMENT
_d$ = 8							; size = 4
_s$ = 12						; size = 4
_count$ = 16						; size = 4
__COPY_MEMORY_UNIT_DIV PROC				; COMDAT

; 77   :     {

	push	ebp
	mov	ebp, esp

; 78   : #ifdef _M_IX86
; 79   :         __movsd((unsigned long *)d, (unsigned long *)s, (unsigned long)count);

	mov	ecx, DWORD PTR _count$[ebp]
	push	esi
	mov	esi, DWORD PTR _s$[ebp]
	push	edi
	mov	edi, DWORD PTR _d$[ebp]
	rep movsd
	pop	edi
	pop	esi

; 80   : #elif defined(_M_X64)
; 81   : #ifdef _MSC_VER
; 82   :         __movsd((unsigned long *)d, (unsigned long *)s, (unsigned long)count);
; 83   : #elif defined(__GNUC__)
; 84   :         __movsq(d, s, count);
; 85   : #else
; 86   : #error unknown compiler
; 87   : #endif
; 88   : #else
; 89   : #error unknown platform
; 90   : #endif
; 91   :     }

	pop	ebp
	ret	0
__COPY_MEMORY_UNIT_DIV ENDP
_TEXT	ENDS
; Function compile flags: /Ogtp
; File z:\sources\lunor\repos\rougemeilland\palmtree.math.core.uint\palmtree.math.core.uint\pmc_inline_func.h
;	COMDAT __COPY_MEMORY_UNIT
_TEXT	SEGMENT
_d$ = 8							; size = 4
_s$ = 12						; size = 4
_count$ = 16						; size = 4
__COPY_MEMORY_UNIT PROC					; COMDAT

; 66   :     {

	push	ebp
	mov	ebp, esp

; 67   : #ifdef _M_IX86
; 68   :         __movsd((unsigned long *)d, (unsigned long *)s, (unsigned long)count);

	mov	ecx, DWORD PTR _count$[ebp]
	push	esi
	mov	esi, DWORD PTR _s$[ebp]
	push	edi
	mov	edi, DWORD PTR _d$[ebp]
	rep movsd
	pop	edi
	pop	esi

; 69   : #elif defined(_M_X64)
; 70   :         __movsq(d, s, count);
; 71   : #else
; 72   : #error unknown platform
; 73   : #endif
; 74   :     }

	pop	ebp
	ret	0
__COPY_MEMORY_UNIT ENDP
_TEXT	ENDS
; Function compile flags: /Ogtp
; File z:\sources\lunor\repos\rougemeilland\palmtree.math.core.uint\palmtree.math.core.uint\pmc_uint_internal.h
;	COMDAT _AddToMULTI64Counter
_TEXT	SEGMENT
_value$ = 8						; size = 4
_AddToMULTI64Counter PROC				; COMDAT

; 357  :     {

	push	ebp
	mov	ebp, esp

; 358  :         _InterlockedExchangeAdd(&statistics_info.COUNT_MULTI64, value);

	mov	eax, DWORD PTR _value$[ebp]
	mov	ecx, OFFSET _statistics_info
	lock	 xadd	 DWORD PTR [ecx], eax

; 359  :     }

	pop	ebp
	ret	0
_AddToMULTI64Counter ENDP
_TEXT	ENDS
; Function compile flags: /Ogtp
; File z:\sources\lunor\repos\rougemeilland\palmtree.math.core.uint\palmtree.math.core.uint\pmc_uint_internal.h
;	COMDAT _AddToMULTI32Counter
_TEXT	SEGMENT
_value$ = 8						; size = 4
_AddToMULTI32Counter PROC				; COMDAT

; 351  :     {

	push	ebp
	mov	ebp, esp

; 352  :         _InterlockedExchangeAdd(&statistics_info.COUNT_MULTI32, value);

	mov	eax, DWORD PTR _value$[ebp]
	mov	ecx, OFFSET _statistics_info+4
	lock	 xadd	 DWORD PTR [ecx], eax

; 353  :     }

	pop	ebp
	ret	0
_AddToMULTI32Counter ENDP
_TEXT	ENDS
; Function compile flags: /Ogtp
; File z:\sources\lunor\repos\rougemeilland\palmtree.math.core.uint\palmtree.math.core.uint\pmc_uint_internal.h
;	COMDAT _AddToDIV64Counter
_TEXT	SEGMENT
_value$ = 8						; size = 4
_AddToDIV64Counter PROC					; COMDAT

; 345  :     {

	push	ebp
	mov	ebp, esp

; 346  :         _InterlockedExchangeAdd(&statistics_info.COUNT_DIV64, value);

	mov	eax, DWORD PTR _value$[ebp]
	mov	ecx, OFFSET _statistics_info+8
	lock	 xadd	 DWORD PTR [ecx], eax

; 347  :     }

	pop	ebp
	ret	0
_AddToDIV64Counter ENDP
_TEXT	ENDS
; Function compile flags: /Ogtp
; File z:\sources\lunor\repos\rougemeilland\palmtree.math.core.uint\palmtree.math.core.uint\pmc_uint_internal.h
;	COMDAT _AddToDIV32Counter
_TEXT	SEGMENT
_value$ = 8						; size = 4
_AddToDIV32Counter PROC					; COMDAT

; 339  :     {

	push	ebp
	mov	ebp, esp

; 340  :         _InterlockedExchangeAdd(&statistics_info.COUNT_DIV32, value);

	mov	eax, DWORD PTR _value$[ebp]
	mov	ecx, OFFSET _statistics_info+12
	lock	 xadd	 DWORD PTR [ecx], eax

; 341  :     }

	pop	ebp
	ret	0
_AddToDIV32Counter ENDP
_TEXT	ENDS
; Function compile flags: /Ogtp
; File z:\sources\lunor\repos\rougemeilland\palmtree.math.core.uint\palmtree.math.core.uint\pmc_uint_internal.h
;	COMDAT _IncrementMULTI64Counter
_TEXT	SEGMENT
_IncrementMULTI64Counter PROC				; COMDAT

; 335  :         _InterlockedIncrement(&statistics_info.COUNT_MULTI64);

	lock	 inc	 (null) PTR _statistics_info

; 336  :     }

	ret	0
_IncrementMULTI64Counter ENDP
_TEXT	ENDS
; Function compile flags: /Ogtp
; File z:\sources\lunor\repos\rougemeilland\palmtree.math.core.uint\palmtree.math.core.uint\pmc_uint_internal.h
;	COMDAT _IncrementMULTI32Counter
_TEXT	SEGMENT
_IncrementMULTI32Counter PROC				; COMDAT

; 329  :         _InterlockedIncrement(&statistics_info.COUNT_MULTI32);

	lock	 inc	 (null) PTR _statistics_info+4

; 330  :     }

	ret	0
_IncrementMULTI32Counter ENDP
_TEXT	ENDS
; Function compile flags: /Ogtp
; File z:\sources\lunor\repos\rougemeilland\palmtree.math.core.uint\palmtree.math.core.uint\pmc_uint_internal.h
;	COMDAT _IncrementDIV64Counter
_TEXT	SEGMENT
_IncrementDIV64Counter PROC				; COMDAT

; 323  :         _InterlockedIncrement(&statistics_info.COUNT_DIV64);

	lock	 inc	 (null) PTR _statistics_info+8

; 324  :     }

	ret	0
_IncrementDIV64Counter ENDP
_TEXT	ENDS
; Function compile flags: /Ogtp
; File z:\sources\lunor\repos\rougemeilland\palmtree.math.core.uint\palmtree.math.core.uint\pmc_uint_internal.h
;	COMDAT _IncrementDIV32Counter
_TEXT	SEGMENT
_IncrementDIV32Counter PROC				; COMDAT

; 317  :         _InterlockedIncrement(&statistics_info.COUNT_DIV32);

	lock	 inc	 (null) PTR _statistics_info+12

; 318  :     }

	ret	0
_IncrementDIV32Counter ENDP
_TEXT	ENDS
; Function compile flags: /Ogtp
; File z:\sources\lunor\repos\rougemeilland\palmtree.math.core.uint\palmtree.math.core.uint\pmc_divrem.c
;	COMDAT _PMC_DivRem_X_X@16
_TEXT	SEGMENT
_nr_light_check_code$1 = -16				; size = 4
_work_v_buf_words$2 = -12				; size = 4
_work_v_buf_code$3 = -8					; size = 4
_nr_light_check_code$4 = -8				; size = 4
_nq_light_check_code$5 = -4				; size = 4
_nq_light_check_code$6 = -4				; size = 4
_nq$ = 8						; size = 4
_u$ = 8							; size = 4
_nr$ = 12						; size = 4
_v$ = 12						; size = 4
_q$ = 16						; size = 4
_r$ = 20						; size = 4
_PMC_DivRem_X_X@16 PROC					; COMDAT

; 1592 : {

	push	ebp
	mov	ebp, esp
	sub	esp, 16					; 00000010H
	push	esi

; 1593 :     if (u == NULL)

	mov	esi, DWORD PTR _u$[ebp]
	push	edi
	test	esi, esi
	je	$LN34@PMC_DivRem

; 1594 :         return (PMC_STATUS_ARGUMENT_ERROR);
; 1595 :     if (v == NULL)

	mov	edi, DWORD PTR _v$[ebp]
	test	edi, edi
	je	$LN34@PMC_DivRem

; 1596 :         return (PMC_STATUS_ARGUMENT_ERROR);
; 1597 :     if (q == NULL)

	cmp	DWORD PTR _q$[ebp], 0
	je	$LN34@PMC_DivRem

; 1598 :         return (PMC_STATUS_ARGUMENT_ERROR);
; 1599 :     if (r == NULL)

	cmp	DWORD PTR _r$[ebp], 0
	je	$LN34@PMC_DivRem

; 1601 :     NUMBER_HEADER* nu = (NUMBER_HEADER*)u;
; 1602 :     NUMBER_HEADER* nv = (NUMBER_HEADER*)v;
; 1603 :     PMC_STATUS_CODE result;
; 1604 :     if ((result = CheckNumber(nu)) != PMC_STATUS_OK)

	push	esi
	call	_CheckNumber
	add	esp, 4
	test	eax, eax
	jne	SHORT $LN1@PMC_DivRem

; 1605 :         return (result);
; 1606 :     if ((result = CheckNumber(nv)) != PMC_STATUS_OK)

	push	edi
	call	_CheckNumber
	add	esp, 4
	test	eax, eax
	jne	SHORT $LN1@PMC_DivRem

; 1607 :         return (result);
; 1608 :     if (nv->IS_ZERO)

	mov	eax, DWORD PTR [edi+24]
	test	al, 2
	je	SHORT $LN8@PMC_DivRem

; 1609 :     {
; 1610 :         // v が 0 である場合
; 1611 : 
; 1612 :         // 0 による除算はエラーで返す
; 1613 :         return (PMC_STATUS_DIVISION_BY_ZERO);

	pop	edi
	mov	eax, -3					; fffffffdH

; 1735 : #ifdef _DEBUG
; 1736 :     if ((result = CheckNumber(*q)) != PMC_STATUS_OK)
; 1737 :         return (result);
; 1738 :     if ((result = CheckNumber(*r)) != PMC_STATUS_OK)
; 1739 :         return (result);
; 1740 : #endif
; 1741 :     return (PMC_STATUS_OK);
; 1742 : }

	pop	esi
	mov	esp, ebp
	pop	ebp
	ret	16					; 00000010H
$LN8@PMC_DivRem:

; 1614 :     }
; 1615 :     NUMBER_HEADER* nq;
; 1616 :     NUMBER_HEADER* nr;
; 1617 :     if (nu->IS_ZERO)

	test	BYTE PTR [esi+24], 2
	push	ebx
	je	SHORT $LN9@PMC_DivRem

; 1618 :     {
; 1619 :         // u が 0 である場合
; 1620 : 
; 1621 :         // q = 0, r = 0 を返す
; 1622 :         nq = &number_zero;

	mov	eax, OFFSET _number_zero

; 1623 :         nr = &number_zero;
; 1624 :     }

	jmp	$LN37@PMC_DivRem
$LN9@PMC_DivRem:

; 1625 :     else
; 1626 :     {
; 1627 :         // u が 0 ではない場合
; 1628 : 
; 1629 :         if (nv->IS_ONE)

	test	al, 4
	je	SHORT $LN11@PMC_DivRem

; 1630 :         {
; 1631 :             // v が 1 である場合
; 1632 : 
; 1633 :             // q = u, r = 0 を返す
; 1634 :             if ((result = DuplicateNumber(nu, &nq)) != PMC_STATUS_OK)

	lea	eax, DWORD PTR _nq$[ebp]
	push	eax
	push	esi
	call	_DuplicateNumber
	add	esp, 8
	test	eax, eax
	je	$LN38@PMC_DivRem
$LN36@PMC_DivRem:
	pop	ebx
$LN1@PMC_DivRem:
	pop	edi

; 1735 : #ifdef _DEBUG
; 1736 :     if ((result = CheckNumber(*q)) != PMC_STATUS_OK)
; 1737 :         return (result);
; 1738 :     if ((result = CheckNumber(*r)) != PMC_STATUS_OK)
; 1739 :         return (result);
; 1740 : #endif
; 1741 :     return (PMC_STATUS_OK);
; 1742 : }

	pop	esi
	mov	esp, ebp
	pop	ebp
	ret	16					; 00000010H
$LN11@PMC_DivRem:

; 1635 :                 return (result);
; 1636 :             nr = &number_zero;
; 1637 :         }
; 1638 :         else
; 1639 :         {
; 1640 :             // u > 0 かつ v > 1 である場合
; 1641 : 
; 1642 :             // x と y の商・剰余を計算する
; 1643 :             __UNIT_TYPE u_bit_count = nu->UNIT_BIT_COUNT;

	mov	ebx, DWORD PTR [esi+12]

; 1644 :             __UNIT_TYPE v_bit_count = nv->UNIT_BIT_COUNT;

	mov	ecx, DWORD PTR [edi+12]

; 1645 :             if (u_bit_count < v_bit_count)

	cmp	ebx, ecx
	jae	SHORT $LN14@PMC_DivRem

; 1646 :             {
; 1647 :                 // 明らかに u < v である場合
; 1648 : 
; 1649 :                 // q = 0, r = u を返す。
; 1650 :                 nq = &number_zero;
; 1651 :                 if ((result = DuplicateNumber(nu, &nr)) != PMC_STATUS_OK)

	lea	eax, DWORD PTR _nr$[ebp]
	mov	DWORD PTR _nq$[ebp], OFFSET _number_zero
	push	eax
	push	esi
	call	_DuplicateNumber
	add	esp, 8
	test	eax, eax
	jne	SHORT $LN36@PMC_DivRem

; 1720 :                 if (nq->IS_ZERO)
; 1721 :                 {
; 1722 :                     DeallocateNumber(nq);
; 1723 :                     nq = &number_zero;
; 1724 :                 }
; 1725 :                 if (nr->IS_ZERO)
; 1726 :                 {
; 1727 :                     DeallocateNumber(nr);
; 1728 :                     nr = &number_zero;
; 1729 :                 }
; 1730 :             }
; 1731 :         }
; 1732 :     }
; 1733 :     *q = nq;

	mov	edx, DWORD PTR _q$[ebp]
	mov	eax, DWORD PTR _nq$[ebp]
	mov	ecx, DWORD PTR _nr$[ebp]
	pop	ebx
	mov	DWORD PTR [edx], eax

; 1734 :     *r = nr;

	mov	eax, DWORD PTR _r$[ebp]
	pop	edi

; 1735 : #ifdef _DEBUG
; 1736 :     if ((result = CheckNumber(*q)) != PMC_STATUS_OK)
; 1737 :         return (result);
; 1738 :     if ((result = CheckNumber(*r)) != PMC_STATUS_OK)
; 1739 :         return (result);
; 1740 : #endif
; 1741 :     return (PMC_STATUS_OK);
; 1742 : }

	pop	esi
	mov	DWORD PTR [eax], ecx
	xor	eax, eax
	mov	esp, ebp
	pop	ebp
	ret	16					; 00000010H
$LN14@PMC_DivRem:

; 1652 :                     return (result);
; 1653 :             }
; 1654 :             else if (v_bit_count <= sizeof(__UNIT_TYPE_DIV) * 8)

	mov	eax, ebx
	sub	eax, ecx
	add	eax, 33					; 00000021H
	cmp	ecx, 32					; 00000020H
	lea	ecx, DWORD PTR _nq_light_check_code$6[ebp]
	push	ecx
	push	eax
	lea	eax, DWORD PTR _nq$[ebp]
	push	eax
	ja	$LN17@PMC_DivRem

; 1655 :             {
; 1656 :                 // 除数が 1 ワードで表現できる場合
; 1657 : 
; 1658 :                 __UNIT_TYPE q_bit_count = u_bit_count - v_bit_count + 1 + __UNIT_TYPE_BIT_COUNT; // 演算結果を格納するためには u_bit_count - v_bit_count + 1 だけあれば十分であるが、除算の作業用バッファも兼ねているので余分にとっている。
; 1659 :                 __UNIT_TYPE nq_light_check_code;
; 1660 :                 if ((result = AllocateNumber(&nq, q_bit_count, &nq_light_check_code)) != PMC_STATUS_OK)

	call	_AllocateNumber
	add	esp, 12					; 0000000cH
	test	eax, eax
	jne	SHORT $LN36@PMC_DivRem

; 1661 :                     return (result);
; 1662 :                 __UNIT_TYPE r_bit_count = sizeof(__UNIT_TYPE_DIV) * 8;
; 1663 :                 __UNIT_TYPE nr_light_check_code;
; 1664 :                 if ((result = AllocateNumber(&nr, r_bit_count, &nr_light_check_code)) != PMC_STATUS_OK)

	lea	eax, DWORD PTR _nr_light_check_code$4[ebp]
	push	eax
	lea	eax, DWORD PTR _nr$[ebp]
	push	32					; 00000020H
	push	eax
	call	_AllocateNumber
	mov	ebx, eax
	add	esp, 12					; 0000000cH
	test	ebx, ebx
	jne	$LN43@PMC_DivRem

; 1665 :                 {
; 1666 :                     DeallocateNumber(nq);
; 1667 :                     return (result);
; 1668 :                 }
; 1669 :                 DivRem_X_1W((__UNIT_TYPE_DIV*)nu->BLOCK, nu->UNIT_WORD_COUNT * sizeof(__UNIT_TYPE) / sizeof(__UNIT_TYPE_DIV), (__UNIT_TYPE_DIV)nv->BLOCK[0], (__UNIT_TYPE_DIV*)nq->BLOCK, (__UNIT_TYPE_DIV*)nr->BLOCK);

	mov	eax, DWORD PTR _nr$[ebp]
	push	DWORD PTR [eax+32]
	mov	eax, DWORD PTR _nq$[ebp]
	push	DWORD PTR [eax+32]
	mov	eax, DWORD PTR [edi+32]
	push	DWORD PTR [eax]
	mov	eax, DWORD PTR [esi+8]
	and	eax, 1073741823				; 3fffffffH
	push	eax
	push	DWORD PTR [esi+32]
	call	_DivRem_X_1W

; 1670 :                 if ((result = CheckBlockLight(nq->BLOCK, nq_light_check_code)) != PMC_STATUS_OK)

	mov	eax, DWORD PTR _nq$[ebp]
	push	DWORD PTR _nq_light_check_code$6[ebp]
	push	DWORD PTR [eax+32]
	call	_CheckBlockLight
	add	esp, 28					; 0000001cH
	test	eax, eax
	jne	$LN36@PMC_DivRem

; 1671 :                     return (result);
; 1672 :                 if ((result = CheckBlockLight(nr->BLOCK, nr_light_check_code)) != PMC_STATUS_OK)

	mov	eax, DWORD PTR _nr$[ebp]
	push	DWORD PTR _nr_light_check_code$4[ebp]
	push	DWORD PTR [eax+32]
	call	_CheckBlockLight
	add	esp, 8
	test	eax, eax
	jne	$LN36@PMC_DivRem

; 1673 :                     return (result);
; 1674 :                 CommitNumber(nq);

	push	DWORD PTR _nq$[ebp]
	call	_CommitNumber

; 1675 :                 CommitNumber(nr);

	push	DWORD PTR _nr$[ebp]
	call	_CommitNumber
	add	esp, 8

; 1676 :                 if (nq->IS_ZERO)
; 1677 :                 {
; 1678 :                     DeallocateNumber(nq);
; 1679 :                     nq = &number_zero;
; 1680 :                 }
; 1681 :                 if (nr->IS_ZERO)
; 1682 :                 {
; 1683 :                     DeallocateNumber(nr);
; 1684 :                     nr = &number_zero;
; 1685 :                 }
; 1686 :             }

	jmp	$LN42@PMC_DivRem
$LN17@PMC_DivRem:

; 1687 :             else
; 1688 :             {
; 1689 :                 // 除数を表現するのに 2 ワード以上必要な場合
; 1690 :                 __UNIT_TYPE q_bit_count = u_bit_count - v_bit_count + 1 + __UNIT_TYPE_BIT_COUNT; // 演算結果を格納するためには u_bit_count - v_bit_count + 1 だけあれば十分であるが、除算の作業用バッファも兼ねているので余分にとっている。
; 1691 :                 __UNIT_TYPE r_bit_count = u_bit_count + __UNIT_TYPE_BIT_COUNT; // 演算結果を格納するためには v_bit_count だけあれば十分であるが、除算の作業用バッファも兼ねているので余分にとっている。
; 1692 :                 __UNIT_TYPE nq_light_check_code;
; 1693 :                 if ((result = AllocateNumber(&nq, q_bit_count, &nq_light_check_code)) != PMC_STATUS_OK)

	call	_AllocateNumber
	add	esp, 12					; 0000000cH
	test	eax, eax
	jne	$LN36@PMC_DivRem

; 1694 :                     return (result);
; 1695 :                 __UNIT_TYPE nr_light_check_code;
; 1696 :                 if ((result = AllocateNumber(&nr, r_bit_count, &nr_light_check_code)) != PMC_STATUS_OK)

	lea	eax, DWORD PTR _nr_light_check_code$1[ebp]
	push	eax
	lea	eax, DWORD PTR [ebx+32]
	push	eax
	lea	eax, DWORD PTR _nr$[ebp]
	push	eax
	call	_AllocateNumber
	mov	ebx, eax
	add	esp, 12					; 0000000cH
	test	ebx, ebx
	je	SHORT $LN26@PMC_DivRem
$LN43@PMC_DivRem:

; 1697 :                 {
; 1698 :                     DeallocateNumber(nq);

	push	DWORD PTR _nq$[ebp]
	call	_DeallocateNumber
	add	esp, 4

; 1699 :                     return (result);

	mov	eax, ebx
	pop	ebx
	pop	edi

; 1735 : #ifdef _DEBUG
; 1736 :     if ((result = CheckNumber(*q)) != PMC_STATUS_OK)
; 1737 :         return (result);
; 1738 :     if ((result = CheckNumber(*r)) != PMC_STATUS_OK)
; 1739 :         return (result);
; 1740 : #endif
; 1741 :     return (PMC_STATUS_OK);
; 1742 : }

	pop	esi
	mov	esp, ebp
	pop	ebp
	ret	16					; 00000010H
$LN26@PMC_DivRem:

; 1700 :                 }
; 1701 :                 __UNIT_TYPE work_v_buf_code;
; 1702 :                 __UNIT_TYPE work_v_buf_words;
; 1703 :                 __UNIT_TYPE_DIV* work_v_buf = (__UNIT_TYPE_DIV*)AllocateBlock(nv->UNIT_WORD_COUNT * __UNIT_TYPE_BIT_COUNT, &work_v_buf_words, &work_v_buf_code);

	lea	eax, DWORD PTR _work_v_buf_code$3[ebp]
	push	eax
	lea	eax, DWORD PTR _work_v_buf_words$2[ebp]
	push	eax
	mov	eax, DWORD PTR [edi+8]
	shl	eax, 5
	push	eax
	call	_AllocateBlock
	mov	ebx, eax
	add	esp, 12					; 0000000cH

; 1704 :                 if (work_v_buf == NULL)

	test	ebx, ebx
	jne	SHORT $LN27@PMC_DivRem

; 1705 :                 {
; 1706 :                     DeallocateNumber(nq);

	push	DWORD PTR _nq$[ebp]
	call	_DeallocateNumber
	add	esp, 4

; 1707 :                     return (PMC_STATUS_NOT_ENOUGH_MEMORY);

	lea	eax, DWORD PTR [ebx-5]
	pop	ebx
	pop	edi

; 1735 : #ifdef _DEBUG
; 1736 :     if ((result = CheckNumber(*q)) != PMC_STATUS_OK)
; 1737 :         return (result);
; 1738 :     if ((result = CheckNumber(*r)) != PMC_STATUS_OK)
; 1739 :         return (result);
; 1740 : #endif
; 1741 :     return (PMC_STATUS_OK);
; 1742 : }

	pop	esi
	mov	esp, ebp
	pop	ebp
	ret	16					; 00000010H
$LN27@PMC_DivRem:

; 1708 :                 }
; 1709 : 
; 1710 :                 (*fp_DivRem_X_X)((__UNIT_TYPE_DIV*)nu->BLOCK, nu->UNIT_WORD_COUNT * sizeof(__UNIT_TYPE) / sizeof(__UNIT_TYPE_DIV), (__UNIT_TYPE_DIV*)nv->BLOCK, nv->UNIT_WORD_COUNT * sizeof(__UNIT_TYPE) / sizeof(__UNIT_TYPE_DIV), work_v_buf, (__UNIT_TYPE_DIV*)nq->BLOCK, (__UNIT_TYPE_DIV*)nr->BLOCK);

	mov	eax, DWORD PTR _nr$[ebp]
	push	DWORD PTR [eax+32]
	mov	eax, DWORD PTR _nq$[ebp]
	push	DWORD PTR [eax+32]
	mov	eax, DWORD PTR [edi+8]
	push	ebx
	and	eax, 1073741823				; 3fffffffH
	push	eax
	push	DWORD PTR [edi+32]
	mov	eax, DWORD PTR [esi+8]
	and	eax, 1073741823				; 3fffffffH
	push	eax
	push	DWORD PTR [esi+32]
	call	DWORD PTR _fp_DivRem_X_X

; 1711 :                 if ((result = CheckBlockLight((__UNIT_TYPE*)work_v_buf, work_v_buf_code)) != PMC_STATUS_OK)

	push	DWORD PTR _work_v_buf_code$3[ebp]
	push	ebx
	call	_CheckBlockLight
	add	esp, 36					; 00000024H
	test	eax, eax
	jne	$LN36@PMC_DivRem

; 1712 :                     return (result);
; 1713 :                 if ((result = CheckBlockLight(nq->BLOCK, nq_light_check_code)) != PMC_STATUS_OK)

	mov	eax, DWORD PTR _nq$[ebp]
	push	DWORD PTR _nq_light_check_code$5[ebp]
	push	DWORD PTR [eax+32]
	call	_CheckBlockLight
	add	esp, 8
	test	eax, eax
	jne	$LN36@PMC_DivRem

; 1714 :                     return (result);
; 1715 :                 if ((result = CheckBlockLight(nq->BLOCK, nq_light_check_code)) != PMC_STATUS_OK)

	mov	eax, DWORD PTR _nq$[ebp]
	push	DWORD PTR _nq_light_check_code$5[ebp]
	push	DWORD PTR [eax+32]
	call	_CheckBlockLight
	add	esp, 8
	test	eax, eax
	jne	$LN36@PMC_DivRem

; 1716 :                     return (result);
; 1717 :                 DeallocateBlock((__UNIT_TYPE*)work_v_buf, work_v_buf_words);

	push	DWORD PTR _work_v_buf_words$2[ebp]
	push	ebx
	call	_DeallocateBlock

; 1718 :                 CommitNumber(nq);

	push	DWORD PTR _nq$[ebp]
	call	_CommitNumber

; 1719 :                 CommitNumber(nr);

	push	DWORD PTR _nr$[ebp]
	call	_CommitNumber
	add	esp, 16					; 00000010H
$LN42@PMC_DivRem:

; 1720 :                 if (nq->IS_ZERO)
; 1721 :                 {
; 1722 :                     DeallocateNumber(nq);
; 1723 :                     nq = &number_zero;
; 1724 :                 }
; 1725 :                 if (nr->IS_ZERO)
; 1726 :                 {
; 1727 :                     DeallocateNumber(nr);
; 1728 :                     nr = &number_zero;
; 1729 :                 }
; 1730 :             }
; 1731 :         }
; 1732 :     }
; 1733 :     *q = nq;

	mov	eax, DWORD PTR _nq$[ebp]
	test	BYTE PTR [eax+24], 2
	je	SHORT $LN31@PMC_DivRem
	push	eax
	call	_DeallocateNumber
	mov	eax, OFFSET _number_zero
	add	esp, 4
	mov	DWORD PTR _nq$[ebp], eax
$LN31@PMC_DivRem:
	mov	ecx, DWORD PTR _nr$[ebp]
	test	BYTE PTR [ecx+24], 2
	je	SHORT $LN32@PMC_DivRem
	push	ecx
	call	_DeallocateNumber
	add	esp, 4
$LN38@PMC_DivRem:
	mov	eax, DWORD PTR _nq$[ebp]
$LN37@PMC_DivRem:
	mov	ecx, OFFSET _number_zero
$LN32@PMC_DivRem:
	mov	edx, DWORD PTR _q$[ebp]
	pop	ebx
	pop	edi

; 1735 : #ifdef _DEBUG
; 1736 :     if ((result = CheckNumber(*q)) != PMC_STATUS_OK)
; 1737 :         return (result);
; 1738 :     if ((result = CheckNumber(*r)) != PMC_STATUS_OK)
; 1739 :         return (result);
; 1740 : #endif
; 1741 :     return (PMC_STATUS_OK);
; 1742 : }

	pop	esi
	mov	DWORD PTR [edx], eax
	mov	eax, DWORD PTR _r$[ebp]
	mov	DWORD PTR [eax], ecx
	xor	eax, eax
	mov	esp, ebp
	pop	ebp
	ret	16					; 00000010H
$LN34@PMC_DivRem:
	pop	edi

; 1600 :         return (PMC_STATUS_ARGUMENT_ERROR);

	or	eax, -1

; 1735 : #ifdef _DEBUG
; 1736 :     if ((result = CheckNumber(*q)) != PMC_STATUS_OK)
; 1737 :         return (result);
; 1738 :     if ((result = CheckNumber(*r)) != PMC_STATUS_OK)
; 1739 :         return (result);
; 1740 : #endif
; 1741 :     return (PMC_STATUS_OK);
; 1742 : }

	pop	esi
	mov	esp, ebp
	pop	ebp
	ret	16					; 00000010H
_PMC_DivRem_X_X@16 ENDP
_TEXT	ENDS
; Function compile flags: /Ogtp
; File z:\sources\lunor\repos\rougemeilland\palmtree.math.core.uint\palmtree.math.core.uint\pmc_divrem.c
; File z:\sources\lunor\repos\rougemeilland\palmtree.math.core.uint\palmtree.math.core.uint\pmc_inline_func.h
; File z:\sources\lunor\repos\rougemeilland\palmtree.math.core.uint\palmtree.math.core.uint\pmc_divrem.c
; File z:\sources\lunor\repos\rougemeilland\palmtree.math.core.uint\palmtree.math.core.uint\pmc_inline_func.h
; File z:\sources\lunor\repos\rougemeilland\palmtree.math.core.uint\palmtree.math.core.uint\pmc_divrem.c
; File z:\sources\lunor\repos\rougemeilland\palmtree.math.core.uint\palmtree.math.core.uint\pmc_inline_func.h
; File z:\sources\lunor\repos\rougemeilland\palmtree.math.core.uint\palmtree.math.core.uint\pmc_divrem.c
; File z:\sources\lunor\repos\rougemeilland\palmtree.math.core.uint\palmtree.math.core.uint\pmc_inline_func.h
; File z:\sources\lunor\repos\rougemeilland\palmtree.math.core.uint\palmtree.math.core.uint\pmc_divrem.c
;	COMDAT _PMC_DivRem_X_L@20
_TEXT	SEGMENT
_v_buf$1 = -24						; size = 8
_work_v_buf$2 = -16					; size = 8
_r_buf_words$3 = -8					; size = 4
_r_buf_code$4 = -4					; size = 4
_nq_light_check_code$5 = -4				; size = 4
_nq$ = 8						; size = 4
_u$ = 8							; size = 4
_v$ = 12						; size = 8
_q$ = 20						; size = 4
_nq_light_check_code$6 = 24				; size = 4
_r_buf$7 = 24						; size = 4
_r$ = 24						; size = 4
_PMC_DivRem_X_L@20 PROC					; COMDAT

; 1407 : {

	push	ebp
	mov	ebp, esp
	sub	esp, 24					; 00000018H
	push	esi
	push	edi

; 1408 :     if (sizeof(__UNIT_TYPE_DIV) * 2 < sizeof(v))
; 1409 :     {
; 1410 :         // _UINT64_T が 2 ワードで表現しきれない処理系には対応しない
; 1411 :         return (PMC_STATUS_INTERNAL_ERROR);
; 1412 :     }
; 1413 :     if (u == NULL)

	mov	edi, DWORD PTR _u$[ebp]
	test	edi, edi
	je	$LN45@PMC_DivRem

; 1414 :         return (PMC_STATUS_ARGUMENT_ERROR);
; 1415 :     if (q == NULL)

	cmp	DWORD PTR _q$[ebp], 0
	je	$LN45@PMC_DivRem

; 1416 :         return (PMC_STATUS_ARGUMENT_ERROR);
; 1417 :     if (r == NULL)

	mov	esi, DWORD PTR _r$[ebp]
	test	esi, esi
	je	$LN45@PMC_DivRem

; 1419 :     NUMBER_HEADER* nu = (NUMBER_HEADER*)u;
; 1420 :     PMC_STATUS_CODE result;
; 1421 :     if ((result = CheckNumber(nu)) != PMC_STATUS_OK)

	push	edi
	call	_CheckNumber
	add	esp, 4
	test	eax, eax
	jne	$LN1@PMC_DivRem

; 1422 :         return (result);
; 1423 :     if (v == 0)

	mov	edx, DWORD PTR _v$[ebp]
	mov	eax, edx
	mov	ecx, DWORD PTR _v$[ebp+4]
	or	eax, ecx
	jne	SHORT $LN7@PMC_DivRem

; 1424 :     {
; 1425 :         // v が 0 である場合
; 1426 : 
; 1427 :         // 0 による除算はエラーで返す
; 1428 :         return (PMC_STATUS_DIVISION_BY_ZERO);

	pop	edi
	mov	eax, -3					; fffffffdH

; 1589 : }

	pop	esi
	mov	esp, ebp
	pop	ebp
	ret	20					; 00000014H
$LN7@PMC_DivRem:

; 1429 :     }
; 1430 :     NUMBER_HEADER* nq;
; 1431 :     if (nu->IS_ZERO)

	test	BYTE PTR [edi+24], 2
	push	ebx
	je	SHORT $LN8@PMC_DivRem

; 1538 :                         if (nq->IS_ZERO)
; 1539 :                         {
; 1540 :                             DeallocateNumber(nq);
; 1541 :                             nq = &number_zero;
; 1542 :                         }
; 1543 :                     }
; 1544 :                 }
; 1545 :             }
; 1546 :             else
; 1547 :             {
; 1548 :                 // _UINT64_T が 1 ワードで表現できる場合
; 1549 : 
; 1550 :                 // x と y の商・剰余を計算する
; 1551 :                 __UNIT_TYPE u_bit_count = nu->UNIT_BIT_COUNT;
; 1552 :                 __UNIT_TYPE v_bit_count = sizeof(v) * 8 - _LZCNT_ALT_UNIT((__UNIT_TYPE)v);
; 1553 :                 if (u_bit_count < v_bit_count)
; 1554 :                 {
; 1555 :                     // 明らかに u < v である場合
; 1556 : 
; 1557 :                     // q = 0, r = u を返す。
; 1558 :                     nq = &number_zero;
; 1559 :                     *r = nu->BLOCK[0];
; 1560 :                 }
; 1561 :                 else
; 1562 :                 {
; 1563 :                     __UNIT_TYPE q_bit_count = u_bit_count - v_bit_count + 1 + __UNIT_TYPE_BIT_COUNT; // 演算結果を格納するためには u_bit_count - v_bit_count + 1 だけあれば十分であるが、除算の作業用バッファも兼ねているので余分にとっている。
; 1564 :                     __UNIT_TYPE nq_light_check_code;
; 1565 :                     if ((result = AllocateNumber(&nq, q_bit_count, &nq_light_check_code)) != PMC_STATUS_OK)
; 1566 :                         return (result);
; 1567 :                     __UNIT_TYPE_DIV r_buf = 0;
; 1568 :                     DivRem_X_1W((__UNIT_TYPE_DIV*)nu->BLOCK, nu->UNIT_WORD_COUNT * sizeof(__UNIT_TYPE) / sizeof(__UNIT_TYPE_DIV), (__UNIT_TYPE_DIV)v, (__UNIT_TYPE_DIV*)nq->BLOCK, &r_buf);
; 1569 :                     if ((result = CheckBlockLight(nq->BLOCK, nq_light_check_code)) != PMC_STATUS_OK)
; 1570 :                         return (result);
; 1571 :                     CommitNumber(nq);
; 1572 :                     *r = r_buf;
; 1573 :                     if (nq->IS_ZERO)
; 1574 :                     {
; 1575 :                         DeallocateNumber(nq);
; 1576 :                         nq = &number_zero;
; 1577 :                     }
; 1578 :                 }
; 1579 :             }
; 1580 : 
; 1581 :         }
; 1582 :     }
; 1583 :     *q = nq;

	mov	eax, DWORD PTR _q$[ebp]
	mov	ecx, OFFSET _number_zero
	pop	ebx
	mov	DWORD PTR [esi], 0
	mov	DWORD PTR [esi+4], 0
	pop	edi
	mov	DWORD PTR [eax], ecx

; 1584 : #ifdef _DEBUG
; 1585 :     if ((result = CheckNumber(nq)) != PMC_STATUS_OK)
; 1586 :         return (result);
; 1587 : #endif
; 1588 :     return (PMC_STATUS_OK);

	xor	eax, eax

; 1589 : }

	pop	esi
	mov	esp, ebp
	pop	ebp
	ret	20					; 00000014H
$LN8@PMC_DivRem:

; 1432 :     {
; 1433 :         // x が 0 である場合
; 1434 : 
; 1435 :         // q = 0, r = 0 を返す
; 1436 :         nq = &number_zero;
; 1437 :         *r = 0;
; 1438 :     }
; 1439 :     else
; 1440 :     {
; 1441 :         // u が 0 ではない場合
; 1442 : 
; 1443 :         if (v == 1)

	cmp	edx, 1
	jne	SHORT $LN10@PMC_DivRem
	test	ecx, ecx
	jne	SHORT $LN10@PMC_DivRem

; 1444 :         {
; 1445 :             // v が 1 である場合
; 1446 : 
; 1447 :             // q = u, r = 0 を返す
; 1448 :             if ((result = DuplicateNumber(nu, &nq)) != PMC_STATUS_OK)

	lea	eax, DWORD PTR _nq$[ebp]
	push	eax
	push	edi
	call	_DuplicateNumber
	add	esp, 8
	test	eax, eax
	jne	$LN46@PMC_DivRem

; 1449 :                 return (result);
; 1450 :             *r = 0;
; 1451 :         }

	mov	ecx, DWORD PTR _nq$[ebp]
	mov	DWORD PTR [esi], eax
	mov	DWORD PTR [esi+4], eax

; 1538 :                         if (nq->IS_ZERO)
; 1539 :                         {
; 1540 :                             DeallocateNumber(nq);
; 1541 :                             nq = &number_zero;
; 1542 :                         }
; 1543 :                     }
; 1544 :                 }
; 1545 :             }
; 1546 :             else
; 1547 :             {
; 1548 :                 // _UINT64_T が 1 ワードで表現できる場合
; 1549 : 
; 1550 :                 // x と y の商・剰余を計算する
; 1551 :                 __UNIT_TYPE u_bit_count = nu->UNIT_BIT_COUNT;
; 1552 :                 __UNIT_TYPE v_bit_count = sizeof(v) * 8 - _LZCNT_ALT_UNIT((__UNIT_TYPE)v);
; 1553 :                 if (u_bit_count < v_bit_count)
; 1554 :                 {
; 1555 :                     // 明らかに u < v である場合
; 1556 : 
; 1557 :                     // q = 0, r = u を返す。
; 1558 :                     nq = &number_zero;
; 1559 :                     *r = nu->BLOCK[0];
; 1560 :                 }
; 1561 :                 else
; 1562 :                 {
; 1563 :                     __UNIT_TYPE q_bit_count = u_bit_count - v_bit_count + 1 + __UNIT_TYPE_BIT_COUNT; // 演算結果を格納するためには u_bit_count - v_bit_count + 1 だけあれば十分であるが、除算の作業用バッファも兼ねているので余分にとっている。
; 1564 :                     __UNIT_TYPE nq_light_check_code;
; 1565 :                     if ((result = AllocateNumber(&nq, q_bit_count, &nq_light_check_code)) != PMC_STATUS_OK)
; 1566 :                         return (result);
; 1567 :                     __UNIT_TYPE_DIV r_buf = 0;
; 1568 :                     DivRem_X_1W((__UNIT_TYPE_DIV*)nu->BLOCK, nu->UNIT_WORD_COUNT * sizeof(__UNIT_TYPE) / sizeof(__UNIT_TYPE_DIV), (__UNIT_TYPE_DIV)v, (__UNIT_TYPE_DIV*)nq->BLOCK, &r_buf);
; 1569 :                     if ((result = CheckBlockLight(nq->BLOCK, nq_light_check_code)) != PMC_STATUS_OK)
; 1570 :                         return (result);
; 1571 :                     CommitNumber(nq);
; 1572 :                     *r = r_buf;
; 1573 :                     if (nq->IS_ZERO)
; 1574 :                     {
; 1575 :                         DeallocateNumber(nq);
; 1576 :                         nq = &number_zero;
; 1577 :                     }
; 1578 :                 }
; 1579 :             }
; 1580 : 
; 1581 :         }
; 1582 :     }
; 1583 :     *q = nq;

	mov	eax, DWORD PTR _q$[ebp]
	pop	ebx
	pop	edi

; 1589 : }

	pop	esi
	mov	DWORD PTR [eax], ecx
	xor	eax, eax
	mov	esp, ebp
	pop	ebp
	ret	20					; 00000014H
$LN10@PMC_DivRem:

; 1452 :         else
; 1453 :         {
; 1454 :             // u > 0 かつ v > 1 である場合
; 1455 : 
; 1456 :             // u と v の商・剰余を計算する
; 1457 :             __UNIT_TYPE u_bit_count = nu->UNIT_BIT_COUNT;

	mov	ebx, DWORD PTR [edi+12]

; 1458 :             if (sizeof(__UNIT_TYPE_DIV) < sizeof(v))
; 1459 :             {
; 1460 :                 // _UINT64_T が 1 ワードで表現しきれない場合
; 1461 :                 _UINT32_T v_hi;
; 1462 :                 _UINT32_T v_lo = _FROMDWORDTOWORD(v, &v_hi);
; 1463 :                 if (v_hi == 0)

	test	ecx, ecx
	jne	$LN15@PMC_DivRem

; 1464 :                 {
; 1465 :                     // v の値が 32bit で表現可能な場合
; 1466 :                     __UNIT_TYPE v_bit_count = sizeof(v_lo) * 8 - _LZCNT_ALT_32(v_lo);

	push	edx
	call	__LZCNT_ALT_32
	mov	ecx, 32					; 00000020H
	add	esp, 4
	sub	ecx, eax

; 1467 :                     if (u_bit_count < v_bit_count)

	cmp	ebx, ecx
	jae	SHORT $LN17@PMC_DivRem

; 1468 :                     {
; 1469 :                         // 明らかに u < v である場合
; 1470 : 
; 1471 :                         // q = 0, r = u を返す。
; 1472 :                         nq = &number_zero;
; 1473 :                         *r = nu->BLOCK[0];

	mov	eax, DWORD PTR [edi+32]
	mov	ecx, OFFSET _number_zero
	mov	DWORD PTR _nq$[ebp], ecx
	pop	ebx
	pop	edi
	mov	eax, DWORD PTR [eax]
	mov	DWORD PTR [esi], eax

; 1538 :                         if (nq->IS_ZERO)
; 1539 :                         {
; 1540 :                             DeallocateNumber(nq);
; 1541 :                             nq = &number_zero;
; 1542 :                         }
; 1543 :                     }
; 1544 :                 }
; 1545 :             }
; 1546 :             else
; 1547 :             {
; 1548 :                 // _UINT64_T が 1 ワードで表現できる場合
; 1549 : 
; 1550 :                 // x と y の商・剰余を計算する
; 1551 :                 __UNIT_TYPE u_bit_count = nu->UNIT_BIT_COUNT;
; 1552 :                 __UNIT_TYPE v_bit_count = sizeof(v) * 8 - _LZCNT_ALT_UNIT((__UNIT_TYPE)v);
; 1553 :                 if (u_bit_count < v_bit_count)
; 1554 :                 {
; 1555 :                     // 明らかに u < v である場合
; 1556 : 
; 1557 :                     // q = 0, r = u を返す。
; 1558 :                     nq = &number_zero;
; 1559 :                     *r = nu->BLOCK[0];
; 1560 :                 }
; 1561 :                 else
; 1562 :                 {
; 1563 :                     __UNIT_TYPE q_bit_count = u_bit_count - v_bit_count + 1 + __UNIT_TYPE_BIT_COUNT; // 演算結果を格納するためには u_bit_count - v_bit_count + 1 だけあれば十分であるが、除算の作業用バッファも兼ねているので余分にとっている。
; 1564 :                     __UNIT_TYPE nq_light_check_code;
; 1565 :                     if ((result = AllocateNumber(&nq, q_bit_count, &nq_light_check_code)) != PMC_STATUS_OK)
; 1566 :                         return (result);
; 1567 :                     __UNIT_TYPE_DIV r_buf = 0;
; 1568 :                     DivRem_X_1W((__UNIT_TYPE_DIV*)nu->BLOCK, nu->UNIT_WORD_COUNT * sizeof(__UNIT_TYPE) / sizeof(__UNIT_TYPE_DIV), (__UNIT_TYPE_DIV)v, (__UNIT_TYPE_DIV*)nq->BLOCK, &r_buf);
; 1569 :                     if ((result = CheckBlockLight(nq->BLOCK, nq_light_check_code)) != PMC_STATUS_OK)
; 1570 :                         return (result);
; 1571 :                     CommitNumber(nq);
; 1572 :                     *r = r_buf;
; 1573 :                     if (nq->IS_ZERO)
; 1574 :                     {
; 1575 :                         DeallocateNumber(nq);
; 1576 :                         nq = &number_zero;
; 1577 :                     }
; 1578 :                 }
; 1579 :             }
; 1580 : 
; 1581 :         }
; 1582 :     }
; 1583 :     *q = nq;

	mov	eax, DWORD PTR _q$[ebp]
	mov	DWORD PTR [esi+4], 0

; 1589 : }

	pop	esi
	mov	DWORD PTR [eax], ecx
	xor	eax, eax
	mov	esp, ebp
	pop	ebp
	ret	20					; 00000014H
$LN17@PMC_DivRem:

; 1474 :                     }
; 1475 :                     else
; 1476 :                     {
; 1477 :                         __UNIT_TYPE q_bit_count = u_bit_count - v_bit_count + 1 + __UNIT_TYPE_BIT_COUNT; // 演算結果を格納するためには u_bit_count - v_bit_count + 1 だけあれば十分であるが、除算の作業用バッファも兼ねているので余分にとっている。
; 1478 :                         __UNIT_TYPE nq_light_check_code;
; 1479 :                         if ((result = AllocateNumber(&nq, q_bit_count, &nq_light_check_code)) != PMC_STATUS_OK)

	lea	eax, DWORD PTR _nq_light_check_code$5[ebp]
	sub	ebx, ecx
	push	eax
	add	ebx, 33					; 00000021H
	lea	eax, DWORD PTR _nq$[ebp]
	push	ebx
	push	eax
	call	_AllocateNumber
	add	esp, 12					; 0000000cH
	test	eax, eax
	jne	$LN46@PMC_DivRem

; 1480 :                             return (result);
; 1481 :                         __UNIT_TYPE_DIV r_buf = 0;

	mov	DWORD PTR _r_buf$7[ebp], eax

; 1482 :                         DivRem_X_1W((__UNIT_TYPE_DIV*)nu->BLOCK, nu->UNIT_WORD_COUNT * sizeof(__UNIT_TYPE) / sizeof(__UNIT_TYPE_DIV), v_lo, (__UNIT_TYPE_DIV*)nq->BLOCK, &r_buf);

	lea	eax, DWORD PTR _r_buf$7[ebp]
	push	eax
	mov	eax, DWORD PTR _nq$[ebp]
	push	DWORD PTR [eax+32]
	mov	eax, DWORD PTR _v$[ebp]
	push	eax
	mov	eax, DWORD PTR [edi+8]
	and	eax, 1073741823				; 3fffffffH
	push	eax
	push	DWORD PTR [edi+32]
	call	_DivRem_X_1W

; 1483 :                         if ((result = CheckBlockLight(nq->BLOCK, nq_light_check_code)) != PMC_STATUS_OK)

	mov	eax, DWORD PTR _nq$[ebp]
	push	DWORD PTR _nq_light_check_code$5[ebp]
	push	DWORD PTR [eax+32]
	call	_CheckBlockLight
	add	esp, 28					; 0000001cH
	test	eax, eax
	jne	$LN46@PMC_DivRem

; 1484 :                             return (result);
; 1485 :                         CommitNumber(nq);

	push	DWORD PTR _nq$[ebp]
	call	_CommitNumber

; 1486 :                         *r = r_buf;

	mov	eax, DWORD PTR _r_buf$7[ebp]
	add	esp, 4
	mov	DWORD PTR [esi], eax
	mov	DWORD PTR [esi+4], 0

; 1487 :                         if (nq->IS_ZERO)
; 1488 :                         {
; 1489 :                             DeallocateNumber(nq);
; 1490 :                             nq = &number_zero;
; 1491 :                         }
; 1492 :                     }
; 1493 :                 }

	jmp	$LN49@PMC_DivRem
$LN15@PMC_DivRem:

; 1494 :                 else
; 1495 :                 {
; 1496 :                     // v の値が 32bit では表現できない場合
; 1497 :                     __UNIT_TYPE v_bit_count = sizeof(v) * 8 - _LZCNT_ALT_32(v_hi);

	push	ecx
	call	__LZCNT_ALT_32
	mov	ecx, 64					; 00000040H
	add	esp, 4
	sub	ecx, eax

; 1498 :                     if (u_bit_count < v_bit_count)

	cmp	ebx, ecx
	jae	SHORT $LN22@PMC_DivRem

; 1509 :                             __UNIT_TYPE r_hi = nu->UNIT_WORD_COUNT > 1 ? nu->BLOCK[1] : 0;

	cmp	DWORD PTR [edi+8], 1
	mov	ecx, OFFSET _number_zero
	mov	edx, DWORD PTR [edi+32]
	mov	DWORD PTR _nq$[ebp], ecx
	mov	ebx, DWORD PTR [edx]
	jbe	SHORT $LN37@PMC_DivRem
	mov	edx, DWORD PTR [edx+4]
; File z:\sources\lunor\repos\rougemeilland\palmtree.math.core.uint\palmtree.math.core.uint\pmc_inline_func.h

; 178  :         return (((_UINT64_T)value_high << 32) | value_low);

	xor	eax, eax
	or	eax, ebx
; File z:\sources\lunor\repos\rougemeilland\palmtree.math.core.uint\palmtree.math.core.uint\pmc_divrem.c

; 1510 :                             *r = _FROMWORDTODWORD((_UINT32_T)r_hi, (_UINT32_T)r_lo);

	mov	DWORD PTR [esi+4], edx
	mov	DWORD PTR [esi], eax

; 1538 :                         if (nq->IS_ZERO)
; 1539 :                         {
; 1540 :                             DeallocateNumber(nq);
; 1541 :                             nq = &number_zero;
; 1542 :                         }
; 1543 :                     }
; 1544 :                 }
; 1545 :             }
; 1546 :             else
; 1547 :             {
; 1548 :                 // _UINT64_T が 1 ワードで表現できる場合
; 1549 : 
; 1550 :                 // x と y の商・剰余を計算する
; 1551 :                 __UNIT_TYPE u_bit_count = nu->UNIT_BIT_COUNT;
; 1552 :                 __UNIT_TYPE v_bit_count = sizeof(v) * 8 - _LZCNT_ALT_UNIT((__UNIT_TYPE)v);
; 1553 :                 if (u_bit_count < v_bit_count)
; 1554 :                 {
; 1555 :                     // 明らかに u < v である場合
; 1556 : 
; 1557 :                     // q = 0, r = u を返す。
; 1558 :                     nq = &number_zero;
; 1559 :                     *r = nu->BLOCK[0];
; 1560 :                 }
; 1561 :                 else
; 1562 :                 {
; 1563 :                     __UNIT_TYPE q_bit_count = u_bit_count - v_bit_count + 1 + __UNIT_TYPE_BIT_COUNT; // 演算結果を格納するためには u_bit_count - v_bit_count + 1 だけあれば十分であるが、除算の作業用バッファも兼ねているので余分にとっている。
; 1564 :                     __UNIT_TYPE nq_light_check_code;
; 1565 :                     if ((result = AllocateNumber(&nq, q_bit_count, &nq_light_check_code)) != PMC_STATUS_OK)
; 1566 :                         return (result);
; 1567 :                     __UNIT_TYPE_DIV r_buf = 0;
; 1568 :                     DivRem_X_1W((__UNIT_TYPE_DIV*)nu->BLOCK, nu->UNIT_WORD_COUNT * sizeof(__UNIT_TYPE) / sizeof(__UNIT_TYPE_DIV), (__UNIT_TYPE_DIV)v, (__UNIT_TYPE_DIV*)nq->BLOCK, &r_buf);
; 1569 :                     if ((result = CheckBlockLight(nq->BLOCK, nq_light_check_code)) != PMC_STATUS_OK)
; 1570 :                         return (result);
; 1571 :                     CommitNumber(nq);
; 1572 :                     *r = r_buf;
; 1573 :                     if (nq->IS_ZERO)
; 1574 :                     {
; 1575 :                         DeallocateNumber(nq);
; 1576 :                         nq = &number_zero;
; 1577 :                     }
; 1578 :                 }
; 1579 :             }
; 1580 : 
; 1581 :         }
; 1582 :     }
; 1583 :     *q = nq;

	mov	eax, DWORD PTR _q$[ebp]
	pop	ebx
	pop	edi

; 1589 : }

	pop	esi
	mov	DWORD PTR [eax], ecx
	xor	eax, eax
	mov	esp, ebp
	pop	ebp
	ret	20					; 00000014H
$LN37@PMC_DivRem:
; File z:\sources\lunor\repos\rougemeilland\palmtree.math.core.uint\palmtree.math.core.uint\pmc_inline_func.h

; 178  :         return (((_UINT64_T)value_high << 32) | value_low);

	xor	eax, eax
; File z:\sources\lunor\repos\rougemeilland\palmtree.math.core.uint\palmtree.math.core.uint\pmc_divrem.c

; 1509 :                             __UNIT_TYPE r_hi = nu->UNIT_WORD_COUNT > 1 ? nu->BLOCK[1] : 0;

	xor	edx, edx
; File z:\sources\lunor\repos\rougemeilland\palmtree.math.core.uint\palmtree.math.core.uint\pmc_inline_func.h

; 178  :         return (((_UINT64_T)value_high << 32) | value_low);

	or	eax, ebx
; File z:\sources\lunor\repos\rougemeilland\palmtree.math.core.uint\palmtree.math.core.uint\pmc_divrem.c

; 1510 :                             *r = _FROMWORDTODWORD((_UINT32_T)r_hi, (_UINT32_T)r_lo);

	mov	DWORD PTR [esi+4], edx
	mov	DWORD PTR [esi], eax

; 1538 :                         if (nq->IS_ZERO)
; 1539 :                         {
; 1540 :                             DeallocateNumber(nq);
; 1541 :                             nq = &number_zero;
; 1542 :                         }
; 1543 :                     }
; 1544 :                 }
; 1545 :             }
; 1546 :             else
; 1547 :             {
; 1548 :                 // _UINT64_T が 1 ワードで表現できる場合
; 1549 : 
; 1550 :                 // x と y の商・剰余を計算する
; 1551 :                 __UNIT_TYPE u_bit_count = nu->UNIT_BIT_COUNT;
; 1552 :                 __UNIT_TYPE v_bit_count = sizeof(v) * 8 - _LZCNT_ALT_UNIT((__UNIT_TYPE)v);
; 1553 :                 if (u_bit_count < v_bit_count)
; 1554 :                 {
; 1555 :                     // 明らかに u < v である場合
; 1556 : 
; 1557 :                     // q = 0, r = u を返す。
; 1558 :                     nq = &number_zero;
; 1559 :                     *r = nu->BLOCK[0];
; 1560 :                 }
; 1561 :                 else
; 1562 :                 {
; 1563 :                     __UNIT_TYPE q_bit_count = u_bit_count - v_bit_count + 1 + __UNIT_TYPE_BIT_COUNT; // 演算結果を格納するためには u_bit_count - v_bit_count + 1 だけあれば十分であるが、除算の作業用バッファも兼ねているので余分にとっている。
; 1564 :                     __UNIT_TYPE nq_light_check_code;
; 1565 :                     if ((result = AllocateNumber(&nq, q_bit_count, &nq_light_check_code)) != PMC_STATUS_OK)
; 1566 :                         return (result);
; 1567 :                     __UNIT_TYPE_DIV r_buf = 0;
; 1568 :                     DivRem_X_1W((__UNIT_TYPE_DIV*)nu->BLOCK, nu->UNIT_WORD_COUNT * sizeof(__UNIT_TYPE) / sizeof(__UNIT_TYPE_DIV), (__UNIT_TYPE_DIV)v, (__UNIT_TYPE_DIV*)nq->BLOCK, &r_buf);
; 1569 :                     if ((result = CheckBlockLight(nq->BLOCK, nq_light_check_code)) != PMC_STATUS_OK)
; 1570 :                         return (result);
; 1571 :                     CommitNumber(nq);
; 1572 :                     *r = r_buf;
; 1573 :                     if (nq->IS_ZERO)
; 1574 :                     {
; 1575 :                         DeallocateNumber(nq);
; 1576 :                         nq = &number_zero;
; 1577 :                     }
; 1578 :                 }
; 1579 :             }
; 1580 : 
; 1581 :         }
; 1582 :     }
; 1583 :     *q = nq;

	mov	eax, DWORD PTR _q$[ebp]
	pop	ebx
	pop	edi

; 1589 : }

	pop	esi
	mov	DWORD PTR [eax], ecx
	xor	eax, eax
	mov	esp, ebp
	pop	ebp
	ret	20					; 00000014H
$LN22@PMC_DivRem:

; 1511 :                         }
; 1512 :                     }
; 1513 :                     else
; 1514 :                     {
; 1515 :                         __UNIT_TYPE q_bit_count = u_bit_count - v_bit_count + 1 + __UNIT_TYPE_BIT_COUNT; // 演算結果を格納するためには u_bit_count - v_bit_count + 1 だけあれば十分であるが、除算の作業用バッファも兼ねているので余分にとっている。
; 1516 :                         __UNIT_TYPE r_bit_count = u_bit_count + __UNIT_TYPE_BIT_COUNT; // 演算結果を格納するためには v_bit_count だけあれば十分であるが、除算の作業用バッファも兼ねているので余分にとっている。
; 1517 :                         __UNIT_TYPE nq_light_check_code;
; 1518 :                         if ((result = AllocateNumber(&nq, q_bit_count, &nq_light_check_code)) != PMC_STATUS_OK)

	lea	eax, DWORD PTR _nq_light_check_code$6[ebp]
	push	eax
	mov	eax, ebx
	sub	eax, ecx
	add	eax, 33					; 00000021H
	push	eax
	lea	eax, DWORD PTR _nq$[ebp]
	push	eax
	call	_AllocateNumber
	add	esp, 12					; 0000000cH
	test	eax, eax
	jne	SHORT $LN46@PMC_DivRem

; 1519 :                             return (result);
; 1520 :                         __UNIT_TYPE_DIV v_buf[] = { v_lo, v_hi };

	mov	eax, DWORD PTR _v$[ebp]
	mov	DWORD PTR _v_buf$1[ebp], eax
	mov	eax, DWORD PTR _v$[ebp+4]
	mov	DWORD PTR _v_buf$1[ebp+4], eax

; 1521 :                         __UNIT_TYPE_DIV work_v_buf[] = { 0, 0 };
; 1522 :                         __UNIT_TYPE r_buf_code;
; 1523 :                         __UNIT_TYPE r_buf_words;
; 1524 :                         __UNIT_TYPE_DIV* r_buf = (__UNIT_TYPE_DIV*)AllocateBlock(r_bit_count, &r_buf_words, &r_buf_code);

	lea	eax, DWORD PTR _r_buf_code$4[ebp]
	push	eax
	lea	eax, DWORD PTR _r_buf_words$3[ebp]
	mov	DWORD PTR _work_v_buf$2[ebp], 0
	push	eax
	lea	eax, DWORD PTR [ebx+32]
	mov	DWORD PTR _work_v_buf$2[ebp+4], 0
	push	eax
	call	_AllocateBlock
	mov	ebx, eax
	add	esp, 12					; 0000000cH

; 1525 :                         if (r_buf == NULL)

	test	ebx, ebx
	jne	SHORT $LN27@PMC_DivRem

; 1526 :                         {
; 1527 :                             DeallocateNumber(nq);

	push	DWORD PTR _nq$[ebp]
	call	_DeallocateNumber
	add	esp, 4

; 1528 :                             return (PMC_STATUS_NOT_ENOUGH_MEMORY);

	lea	eax, DWORD PTR [ebx-5]
$LN46@PMC_DivRem:
	pop	ebx
$LN1@PMC_DivRem:
	pop	edi

; 1589 : }

	pop	esi
	mov	esp, ebp
	pop	ebp
	ret	20					; 00000014H
$LN27@PMC_DivRem:

; 1529 :                         }
; 1530 :                         (*fp_DivRem_X_X)((__UNIT_TYPE_DIV*)nu->BLOCK, nu->UNIT_WORD_COUNT * sizeof(__UNIT_TYPE) / sizeof(__UNIT_TYPE_DIV), v_buf, sizeof(v_buf) / sizeof(v_buf[0]), work_v_buf, (__UNIT_TYPE_DIV*)nq->BLOCK, r_buf);

	mov	eax, DWORD PTR _nq$[ebp]
	push	ebx
	push	DWORD PTR [eax+32]
	lea	eax, DWORD PTR _work_v_buf$2[ebp]
	push	eax
	push	2
	lea	eax, DWORD PTR _v_buf$1[ebp]
	push	eax
	mov	eax, DWORD PTR [edi+8]
	and	eax, 1073741823				; 3fffffffH
	push	eax
	push	DWORD PTR [edi+32]
	call	DWORD PTR _fp_DivRem_X_X

; 1531 :                         if ((result = CheckBlockLight(nq->BLOCK, nq_light_check_code)) != PMC_STATUS_OK)

	mov	eax, DWORD PTR _nq$[ebp]
	push	DWORD PTR _nq_light_check_code$6[ebp]
	push	DWORD PTR [eax+32]
	call	_CheckBlockLight
	add	esp, 36					; 00000024H
	test	eax, eax
	jne	SHORT $LN46@PMC_DivRem

; 1532 :                             return (result);
; 1533 :                         if ((result = CheckBlockLight((__UNIT_TYPE*)r_buf, r_buf_code)) != PMC_STATUS_OK)

	push	DWORD PTR _r_buf_code$4[ebp]
	push	ebx
	call	_CheckBlockLight
	add	esp, 8
	test	eax, eax
	jne	SHORT $LN46@PMC_DivRem

; 1534 :                             return (result);
; 1535 :                         CommitNumber(nq);

	push	DWORD PTR _nq$[ebp]
	call	_CommitNumber

; 1537 :                         DeallocateBlock((__UNIT_TYPE*)r_buf, r_buf_words);

	push	DWORD PTR _r_buf_words$3[ebp]
; File z:\sources\lunor\repos\rougemeilland\palmtree.math.core.uint\palmtree.math.core.uint\pmc_inline_func.h

; 178  :         return (((_UINT64_T)value_high << 32) | value_low);

	mov	ecx, DWORD PTR [ebx+4]
	xor	eax, eax
	or	eax, DWORD PTR [ebx]
; File z:\sources\lunor\repos\rougemeilland\palmtree.math.core.uint\palmtree.math.core.uint\pmc_divrem.c

; 1537 :                         DeallocateBlock((__UNIT_TYPE*)r_buf, r_buf_words);

	push	ebx
	mov	DWORD PTR [esi], eax
	mov	DWORD PTR [esi+4], ecx
	call	_DeallocateBlock
	add	esp, 12					; 0000000cH
$LN49@PMC_DivRem:

; 1538 :                         if (nq->IS_ZERO)
; 1539 :                         {
; 1540 :                             DeallocateNumber(nq);
; 1541 :                             nq = &number_zero;
; 1542 :                         }
; 1543 :                     }
; 1544 :                 }
; 1545 :             }
; 1546 :             else
; 1547 :             {
; 1548 :                 // _UINT64_T が 1 ワードで表現できる場合
; 1549 : 
; 1550 :                 // x と y の商・剰余を計算する
; 1551 :                 __UNIT_TYPE u_bit_count = nu->UNIT_BIT_COUNT;
; 1552 :                 __UNIT_TYPE v_bit_count = sizeof(v) * 8 - _LZCNT_ALT_UNIT((__UNIT_TYPE)v);
; 1553 :                 if (u_bit_count < v_bit_count)
; 1554 :                 {
; 1555 :                     // 明らかに u < v である場合
; 1556 : 
; 1557 :                     // q = 0, r = u を返す。
; 1558 :                     nq = &number_zero;
; 1559 :                     *r = nu->BLOCK[0];
; 1560 :                 }
; 1561 :                 else
; 1562 :                 {
; 1563 :                     __UNIT_TYPE q_bit_count = u_bit_count - v_bit_count + 1 + __UNIT_TYPE_BIT_COUNT; // 演算結果を格納するためには u_bit_count - v_bit_count + 1 だけあれば十分であるが、除算の作業用バッファも兼ねているので余分にとっている。
; 1564 :                     __UNIT_TYPE nq_light_check_code;
; 1565 :                     if ((result = AllocateNumber(&nq, q_bit_count, &nq_light_check_code)) != PMC_STATUS_OK)
; 1566 :                         return (result);
; 1567 :                     __UNIT_TYPE_DIV r_buf = 0;
; 1568 :                     DivRem_X_1W((__UNIT_TYPE_DIV*)nu->BLOCK, nu->UNIT_WORD_COUNT * sizeof(__UNIT_TYPE) / sizeof(__UNIT_TYPE_DIV), (__UNIT_TYPE_DIV)v, (__UNIT_TYPE_DIV*)nq->BLOCK, &r_buf);
; 1569 :                     if ((result = CheckBlockLight(nq->BLOCK, nq_light_check_code)) != PMC_STATUS_OK)
; 1570 :                         return (result);
; 1571 :                     CommitNumber(nq);
; 1572 :                     *r = r_buf;
; 1573 :                     if (nq->IS_ZERO)
; 1574 :                     {
; 1575 :                         DeallocateNumber(nq);
; 1576 :                         nq = &number_zero;
; 1577 :                     }
; 1578 :                 }
; 1579 :             }
; 1580 : 
; 1581 :         }
; 1582 :     }
; 1583 :     *q = nq;

	mov	ecx, DWORD PTR _nq$[ebp]
	test	BYTE PTR [ecx+24], 2
	je	SHORT $LN30@PMC_DivRem
	push	ecx
	call	_DeallocateNumber
	add	esp, 4
	mov	ecx, OFFSET _number_zero
$LN30@PMC_DivRem:
	mov	eax, DWORD PTR _q$[ebp]
	pop	ebx
	pop	edi

; 1589 : }

	pop	esi
	mov	DWORD PTR [eax], ecx
	xor	eax, eax
	mov	esp, ebp
	pop	ebp
	ret	20					; 00000014H
$LN45@PMC_DivRem:
	pop	edi

; 1418 :         return (PMC_STATUS_ARGUMENT_ERROR);

	or	eax, -1

; 1589 : }

	pop	esi
	mov	esp, ebp
	pop	ebp
	ret	20					; 00000014H
_PMC_DivRem_X_L@20 ENDP
_TEXT	ENDS
; Function compile flags: /Ogtp
; File z:\sources\lunor\repos\rougemeilland\palmtree.math.core.uint\palmtree.math.core.uint\pmc_divrem.c
;	COMDAT _PMC_DivRem_X_I@16
_TEXT	SEGMENT
_nq$ = 8						; size = 4
_u$ = 8							; size = 4
_nq_light_check_code$1 = 12				; size = 4
_v$ = 12						; size = 4
_q$ = 16						; size = 4
_r_buf$2 = 20						; size = 4
_r$ = 20						; size = 4
_PMC_DivRem_X_I@16 PROC					; COMDAT

; 1152 : {

	push	ebp
	mov	ebp, esp
	push	esi

; 1153 :     if (sizeof(__UNIT_TYPE_DIV) < sizeof(v))
; 1154 :     {
; 1155 :         // _UINT32_T が 1 ワードで表現しきれない処理系には対応しない
; 1156 :         return (PMC_STATUS_INTERNAL_ERROR);
; 1157 :     }
; 1158 :     if (u == NULL)

	mov	esi, DWORD PTR _u$[ebp]
	push	edi
	test	esi, esi
	je	$LN19@PMC_DivRem

; 1159 :         return (PMC_STATUS_ARGUMENT_ERROR);
; 1160 :     if (q == NULL)

	cmp	DWORD PTR _q$[ebp], 0
	je	$LN19@PMC_DivRem

; 1161 :         return (PMC_STATUS_ARGUMENT_ERROR);
; 1162 :     if (r == NULL)

	mov	edi, DWORD PTR _r$[ebp]
	test	edi, edi
	je	$LN19@PMC_DivRem

; 1164 :     NUMBER_HEADER* nu = (NUMBER_HEADER*)u;
; 1165 :     PMC_STATUS_CODE result;
; 1166 :     if ((result = CheckNumber(nu)) != PMC_STATUS_OK)

	push	esi
	call	_CheckNumber
	add	esp, 4
	test	eax, eax
	jne	SHORT $LN1@PMC_DivRem

; 1167 :         return (result);
; 1168 :     if (v == 0)

	push	ebx
	mov	ebx, DWORD PTR _v$[ebp]
	test	ebx, ebx
	jne	SHORT $LN7@PMC_DivRem

; 1169 :     {
; 1170 :         // v が 0 である場合
; 1171 : 
; 1172 :         // 0 による除算はエラーで返す
; 1173 :         return (PMC_STATUS_DIVISION_BY_ZERO);

	lea	eax, DWORD PTR [ebx-3]
$LN20@PMC_DivRem:
	pop	ebx
$LN1@PMC_DivRem:
	pop	edi

; 1238 : }

	pop	esi
	pop	ebp
	ret	16					; 00000010H
$LN7@PMC_DivRem:

; 1174 :     }
; 1175 :     NUMBER_HEADER* nq;
; 1176 :     if (nu->IS_ZERO)

	test	BYTE PTR [esi+24], 2
	je	SHORT $LN8@PMC_DivRem

; 1227 :                     nq = &number_zero;
; 1228 :                 }
; 1229 :             }
; 1230 :         }
; 1231 :     }
; 1232 :     *q = nq;

	mov	eax, DWORD PTR _q$[ebp]
	mov	ecx, OFFSET _number_zero
	pop	ebx
	mov	DWORD PTR [edi], 0
	pop	edi
	mov	DWORD PTR [eax], ecx

; 1233 : #ifdef _DEBUG
; 1234 :     if ((result = CheckNumber(nq)) != PMC_STATUS_OK)
; 1235 :         return (result);
; 1236 : #endif
; 1237 :     return (PMC_STATUS_OK);

	xor	eax, eax

; 1238 : }

	pop	esi
	pop	ebp
	ret	16					; 00000010H
$LN8@PMC_DivRem:

; 1177 :     {
; 1178 :         // u が 0 である場合
; 1179 : 
; 1180 :         // q = 0, r = 0 を返す
; 1181 :         nq = &number_zero;
; 1182 :         *r = 0;
; 1183 :     }
; 1184 :     else
; 1185 :     {
; 1186 :         // u が 0 ではない場合
; 1187 : 
; 1188 :         if (v == 1)

	cmp	ebx, 1
	jne	SHORT $LN10@PMC_DivRem

; 1189 :         {
; 1190 :             // v が 1 である場合
; 1191 : 
; 1192 :             // q = u, r = 0 を返す
; 1193 :             if ((result = DuplicateNumber(nu, &nq)) != PMC_STATUS_OK)

	lea	eax, DWORD PTR _nq$[ebp]
	push	eax
	push	esi
	call	_DuplicateNumber
	add	esp, 8
	test	eax, eax
	jne	SHORT $LN20@PMC_DivRem

; 1194 :                 return (result);
; 1195 :             *r = 0;
; 1196 :         }

	mov	ecx, DWORD PTR _nq$[ebp]
	mov	DWORD PTR [edi], eax

; 1227 :                     nq = &number_zero;
; 1228 :                 }
; 1229 :             }
; 1230 :         }
; 1231 :     }
; 1232 :     *q = nq;

	mov	eax, DWORD PTR _q$[ebp]
	pop	ebx
	pop	edi

; 1238 : }

	pop	esi
	mov	DWORD PTR [eax], ecx
	xor	eax, eax
	pop	ebp
	ret	16					; 00000010H
$LN10@PMC_DivRem:

; 1197 :         else
; 1198 :         {
; 1199 :             // u と v がともに 0 ではない場合
; 1200 : 
; 1201 :             // x と y の商・剰余を計算する
; 1202 :             __UNIT_TYPE u_bit_count = nu->UNIT_BIT_COUNT;

	mov	edx, DWORD PTR [esi+12]

; 1203 :             __UNIT_TYPE v_bit_count = sizeof(v) * 8 - _LZCNT_ALT_32(v);

	push	ebx
	call	__LZCNT_ALT_32
	mov	ecx, 32					; 00000020H
	add	esp, 4
	sub	ecx, eax

; 1204 :             if (u_bit_count < v_bit_count)

	cmp	edx, ecx
	jae	SHORT $LN13@PMC_DivRem

; 1205 :             {
; 1206 :                 // 明らかに u < v である場合
; 1207 : 
; 1208 :                 // q = 0, r = u を返す。
; 1209 :                 nq = &number_zero;
; 1210 :                 *r = (_UINT32_T)nu->BLOCK[0];

	mov	eax, DWORD PTR [esi+32]
	mov	ecx, OFFSET _number_zero
	mov	DWORD PTR _nq$[ebp], ecx
	pop	ebx
	mov	eax, DWORD PTR [eax]
	mov	DWORD PTR [edi], eax

; 1227 :                     nq = &number_zero;
; 1228 :                 }
; 1229 :             }
; 1230 :         }
; 1231 :     }
; 1232 :     *q = nq;

	mov	eax, DWORD PTR _q$[ebp]
	pop	edi

; 1238 : }

	pop	esi
	mov	DWORD PTR [eax], ecx
	xor	eax, eax
	pop	ebp
	ret	16					; 00000010H
$LN13@PMC_DivRem:

; 1211 :             }
; 1212 :             else
; 1213 :             {
; 1214 :                 __UNIT_TYPE q_bit_count = u_bit_count - v_bit_count + 1 + __UNIT_TYPE_BIT_COUNT; // 演算結果を格納するためには u_bit_count - v_bit_count + 1 だけあれば十分であるが、除算の作業用バッファも兼ねているので余分にとっている。
; 1215 :                 __UNIT_TYPE nq_light_check_code;
; 1216 :                 if ((result = AllocateNumber(&nq, q_bit_count, &nq_light_check_code)) != PMC_STATUS_OK)

	lea	eax, DWORD PTR _nq_light_check_code$1[ebp]
	sub	edx, ecx
	push	eax
	add	edx, 33					; 00000021H
	lea	eax, DWORD PTR _nq$[ebp]
	push	edx
	push	eax
	call	_AllocateNumber
	add	esp, 12					; 0000000cH
	test	eax, eax
	jne	$LN20@PMC_DivRem

; 1217 :                     return (result);
; 1218 :                 __UNIT_TYPE_DIV r_buf = 0;

	mov	DWORD PTR _r_buf$2[ebp], eax

; 1219 :                 DivRem_X_1W((__UNIT_TYPE_DIV*)nu->BLOCK, nu->UNIT_WORD_COUNT * sizeof(__UNIT_TYPE) / sizeof(__UNIT_TYPE_DIV), v, (__UNIT_TYPE_DIV*)nq->BLOCK, &r_buf);

	lea	eax, DWORD PTR _r_buf$2[ebp]
	push	eax
	mov	eax, DWORD PTR _nq$[ebp]
	push	DWORD PTR [eax+32]
	mov	eax, DWORD PTR [esi+8]
	push	ebx
	and	eax, 1073741823				; 3fffffffH
	push	eax
	push	DWORD PTR [esi+32]
	call	_DivRem_X_1W

; 1220 :                 if ((result = CheckBlockLight(nq->BLOCK, nq_light_check_code)) != PMC_STATUS_OK)

	mov	eax, DWORD PTR _nq$[ebp]
	push	DWORD PTR _nq_light_check_code$1[ebp]
	push	DWORD PTR [eax+32]
	call	_CheckBlockLight
	add	esp, 28					; 0000001cH
	test	eax, eax
	jne	$LN20@PMC_DivRem

; 1221 :                     return (result);
; 1222 :                 CommitNumber(nq);

	push	DWORD PTR _nq$[ebp]
	call	_CommitNumber

; 1223 :                 *r = (_UINT32_T)r_buf;
; 1224 :                 if (nq->IS_ZERO)

	mov	ecx, DWORD PTR _nq$[ebp]
	add	esp, 4
	mov	eax, DWORD PTR _r_buf$2[ebp]
	mov	DWORD PTR [edi], eax
	test	BYTE PTR [ecx+24], 2
	je	SHORT $LN17@PMC_DivRem

; 1225 :                 {
; 1226 :                     DeallocateNumber(nq);

	push	ecx
	call	_DeallocateNumber
	add	esp, 4

; 1227 :                     nq = &number_zero;
; 1228 :                 }
; 1229 :             }
; 1230 :         }
; 1231 :     }
; 1232 :     *q = nq;

	mov	ecx, OFFSET _number_zero
$LN17@PMC_DivRem:
	mov	eax, DWORD PTR _q$[ebp]
	pop	ebx
	pop	edi

; 1238 : }

	pop	esi
	mov	DWORD PTR [eax], ecx
	xor	eax, eax
	pop	ebp
	ret	16					; 00000010H
$LN19@PMC_DivRem:
	pop	edi

; 1163 :         return (PMC_STATUS_ARGUMENT_ERROR);

	or	eax, -1

; 1238 : }

	pop	esi
	pop	ebp
	ret	16					; 00000010H
_PMC_DivRem_X_I@16 ENDP
_TEXT	ENDS
; Function compile flags: /Ogtp
; File z:\sources\lunor\repos\rougemeilland\palmtree.math.core.uint\palmtree.math.core.uint\pmc_divrem.c
; File z:\sources\lunor\repos\rougemeilland\palmtree.math.core.uint\palmtree.math.core.uint\pmc_inline_func.h
; File z:\sources\lunor\repos\rougemeilland\palmtree.math.core.uint\palmtree.math.core.uint\pmc_divrem.c
; File z:\sources\lunor\repos\rougemeilland\palmtree.math.core.uint\palmtree.math.core.uint\pmc_inline_func.h
; File z:\sources\lunor\repos\rougemeilland\palmtree.math.core.uint\palmtree.math.core.uint\pmc_divrem.c
; File z:\sources\lunor\repos\rougemeilland\palmtree.math.core.uint\palmtree.math.core.uint\pmc_uint_internal.h
; File z:\sources\lunor\repos\rougemeilland\palmtree.math.core.uint\palmtree.math.core.uint\pmc_divrem.c
; File z:\sources\lunor\repos\rougemeilland\palmtree.math.core.uint\palmtree.math.core.uint\pmc_inline_func.h
; File z:\sources\lunor\repos\rougemeilland\palmtree.math.core.uint\palmtree.math.core.uint\pmc_divrem.c
; File z:\sources\lunor\repos\rougemeilland\palmtree.math.core.uint\palmtree.math.core.uint\pmc_inline_func.h
; File z:\sources\lunor\repos\rougemeilland\palmtree.math.core.uint\palmtree.math.core.uint\pmc_divrem.c
; File z:\sources\lunor\repos\rougemeilland\palmtree.math.core.uint\palmtree.math.core.uint\pmc_inline_func.h
; File z:\sources\lunor\repos\rougemeilland\palmtree.math.core.uint\palmtree.math.core.uint\pmc_divrem.c
; File z:\sources\lunor\repos\rougemeilland\palmtree.math.core.uint\palmtree.math.core.uint\pmc_inline_func.h
; File z:\sources\lunor\repos\rougemeilland\palmtree.math.core.uint\palmtree.math.core.uint\pmc_divrem.c
; File z:\sources\lunor\repos\rougemeilland\palmtree.math.core.uint\palmtree.math.core.uint\pmc_inline_func.h
; File z:\sources\lunor\repos\rougemeilland\palmtree.math.core.uint\palmtree.math.core.uint\pmc_divrem.c
; File z:\sources\lunor\repos\rougemeilland\palmtree.math.core.uint\palmtree.math.core.uint\pmc_inline_func.h
; File z:\sources\lunor\repos\rougemeilland\palmtree.math.core.uint\palmtree.math.core.uint\pmc_divrem.c
;	COMDAT _PMC_DivRem_L_X@20
_TEXT	SEGMENT
_u_buf$1 = -44						; size = 8
_r_buf$2 = -40						; size = 4
_work_v_buf$3 = -36					; size = 8
_u_buf$4 = -36						; size = 8
_r_buf$5 = -28						; size = 12
_q_buf$6 = -16						; size = 12
_q_buf$7 = -16						; size = 12
__$ArrayPad$ = -4					; size = 4
_u$ = 8							; size = 8
_v$ = 16						; size = 4
_q$ = 20						; size = 4
_r$ = 24						; size = 4
_PMC_DivRem_L_X@20 PROC					; COMDAT

; 1241 : {

	push	ebp
	mov	ebp, esp
	sub	esp, 44					; 0000002cH
	mov	eax, DWORD PTR ___security_cookie
	xor	eax, ebp
	mov	DWORD PTR __$ArrayPad$[ebp], eax
	push	ebx
	mov	ebx, DWORD PTR _r$[ebp]
	push	esi
	mov	esi, DWORD PTR _v$[ebp]
	push	edi
	mov	edi, DWORD PTR _q$[ebp]

; 1242 :     if (sizeof(__UNIT_TYPE_DIV) * 2 < sizeof(u))
; 1243 :     {
; 1244 :         // _UINT64_T が 2 ワードで表現しきれない処理系には対応しない
; 1245 :         return (PMC_STATUS_INTERNAL_ERROR);
; 1246 :     }
; 1247 :     if (v == NULL)

	test	esi, esi
	je	$LN61@PMC_DivRem

; 1248 :         return (PMC_STATUS_ARGUMENT_ERROR);
; 1249 :     if (q == NULL)

	test	edi, edi
	je	$LN61@PMC_DivRem

; 1250 :         return (PMC_STATUS_ARGUMENT_ERROR);
; 1251 :     if (r == NULL)

	test	ebx, ebx
	je	$LN61@PMC_DivRem

; 1253 :     NUMBER_HEADER* nv = (NUMBER_HEADER*)v;
; 1254 :     PMC_STATUS_CODE result;
; 1255 :     if ((result = CheckNumber(nv)) != PMC_STATUS_OK)

	push	esi
	call	_CheckNumber
	add	esp, 4
	test	eax, eax
	jne	$LN1@PMC_DivRem

; 1256 :         return (result);
; 1257 :     if (nv->IS_ZERO)

	test	BYTE PTR [esi+24], 2
	je	SHORT $LN7@PMC_DivRem

; 1404 : }

	pop	edi
	pop	esi
	mov	eax, -3					; fffffffdH
	pop	ebx
	mov	ecx, DWORD PTR __$ArrayPad$[ebp]
	xor	ecx, ebp
	call	@__security_check_cookie@4
	mov	esp, ebp
	pop	ebp
	ret	20					; 00000014H
$LN7@PMC_DivRem:

; 1258 :     {
; 1259 :         // v が 0 である場合
; 1260 : 
; 1261 :         // 0 による除算はエラーで返す
; 1262 :         return (PMC_STATUS_DIVISION_BY_ZERO);
; 1263 :     }
; 1264 :     if (u == 0)

	mov	edx, DWORD PTR _u$[ebp]
	mov	eax, edx
	mov	ecx, DWORD PTR _u$[ebp+4]
	or	eax, ecx
	jne	SHORT $LN8@PMC_DivRem

; 1265 :     {
; 1266 :         // x が 0 である場合
; 1267 : 
; 1268 :         // q = 0, r = 0 を返す
; 1269 :         *q = 0;

	mov	DWORD PTR [edi], eax
	mov	DWORD PTR [edi+4], eax
	pop	edi

; 1404 : }

	pop	esi
	mov	DWORD PTR [ebx], eax
	mov	DWORD PTR [ebx+4], eax
	pop	ebx
	mov	ecx, DWORD PTR __$ArrayPad$[ebp]
	xor	ecx, ebp
	call	@__security_check_cookie@4
	mov	esp, ebp
	pop	ebp
	ret	20					; 00000014H
$LN8@PMC_DivRem:

; 1270 :         *r = 0;
; 1271 :     }
; 1272 :     else
; 1273 :     {
; 1274 :         // u が 0 ではない場合
; 1275 : 
; 1276 :         if (nv->IS_ONE)

	test	BYTE PTR [esi+24], 4
	je	SHORT $LN10@PMC_DivRem

; 1277 :         {
; 1278 :             // v が 1 である場合
; 1279 : 
; 1280 :             // q = u, r = 0 を返す
; 1281 :             *q = u;

	mov	DWORD PTR [edi], edx

; 1403 :     return (PMC_STATUS_OK);

	xor	eax, eax
	mov	DWORD PTR [edi+4], ecx
	pop	edi

; 1404 : }

	pop	esi
	mov	DWORD PTR [ebx], 0
	mov	DWORD PTR [ebx+4], 0
	pop	ebx
	mov	ecx, DWORD PTR __$ArrayPad$[ebp]
	xor	ecx, ebp
	call	@__security_check_cookie@4
	mov	esp, ebp
	pop	ebp
	ret	20					; 00000014H
$LN10@PMC_DivRem:

; 1282 :             *r = 0;
; 1283 :         }
; 1284 :         else
; 1285 :         {
; 1286 :             // u > 0 かつ v > 1 である場合
; 1287 : 
; 1288 :             // u と v の商・剰余を計算する
; 1289 :             if (sizeof(__UNIT_TYPE_DIV) < sizeof(u))
; 1290 :             {
; 1291 :                 // _UINT64_T が 1 ワードで表現しきれない場合
; 1292 :                 _UINT32_T u_hi;
; 1293 :                 _UINT32_T u_lo = _FROMDWORDTOWORD(u, &u_hi);
; 1294 :                 if (u_hi == 0)

	test	ecx, ecx
	jne	$LN14@PMC_DivRem

; 1295 :                 {
; 1296 :                     // u の値が 32bit で表現可能な場合
; 1297 :                     __UNIT_TYPE u_bit_count = sizeof(u_lo) * 8 - _LZCNT_ALT_32(u_lo);

	push	edx
	call	__LZCNT_ALT_32
	mov	ecx, 32					; 00000020H
	add	esp, 4
	sub	ecx, eax

; 1298 :                     __UNIT_TYPE v_bit_count = nv->UNIT_BIT_COUNT;
; 1299 :                     if (u_bit_count < v_bit_count)

	cmp	ecx, DWORD PTR [esi+12]
	jae	SHORT $LN16@PMC_DivRem

; 1300 :                     {
; 1301 :                         // 明らかに u < v である場合
; 1302 : 
; 1303 :                         // q = 0, r = u を返す。
; 1304 :                         *q = 0;

	mov	DWORD PTR [edi], 0

; 1403 :     return (PMC_STATUS_OK);

	xor	eax, eax
	mov	DWORD PTR [edi+4], 0
	pop	edi

; 1404 : }

	pop	esi
	mov	DWORD PTR [ebx], edx
	mov	DWORD PTR [ebx+4], 0
	pop	ebx
	mov	ecx, DWORD PTR __$ArrayPad$[ebp]
	xor	ecx, ebp
	call	@__security_check_cookie@4
	mov	esp, ebp
	pop	ebp
	ret	20					; 00000014H
$LN16@PMC_DivRem:

; 1313 :                         *q = _DIVREM_UNIT(0, u_lo, (__UNIT_TYPE_DIV)nv->BLOCK[0], &temp_r);

	mov	eax, DWORD PTR [esi+32]
; File z:\sources\lunor\repos\rougemeilland\palmtree.math.core.uint\palmtree.math.core.uint\pmc_inline_func.h

; 391  :             return ((_UINT32_T)(t / v));

	push	0
	mov	esi, DWORD PTR [eax]
	push	esi
	push	0
	push	edx
	call	__aulldiv
	push	0
	push	esi
	push	0
	push	DWORD PTR _u$[ebp]
; File z:\sources\lunor\repos\rougemeilland\palmtree.math.core.uint\palmtree.math.core.uint\pmc_divrem.c

; 1313 :                         *q = _DIVREM_UNIT(0, u_lo, (__UNIT_TYPE_DIV)nv->BLOCK[0], &temp_r);

	mov	DWORD PTR [edi], eax
	mov	DWORD PTR [edi+4], 0
; File z:\sources\lunor\repos\rougemeilland\palmtree.math.core.uint\palmtree.math.core.uint\pmc_inline_func.h

; 390  :             *r = (_UINT32_T)(t % v);

	call	__aullrem
; File z:\sources\lunor\repos\rougemeilland\palmtree.math.core.uint\palmtree.math.core.uint\pmc_divrem.c

; 1314 :                         *r = temp_r;

	mov	DWORD PTR [ebx], eax
	mov	DWORD PTR [ebx+4], 0
; File z:\sources\lunor\repos\rougemeilland\palmtree.math.core.uint\palmtree.math.core.uint\pmc_uint_internal.h

; 317  :         _InterlockedIncrement(&statistics_info.COUNT_DIV32);

	lock	 inc	 (null) PTR _statistics_info+12
	pop	edi
; File z:\sources\lunor\repos\rougemeilland\palmtree.math.core.uint\palmtree.math.core.uint\pmc_divrem.c

; 1404 : }

	pop	esi
	xor	eax, eax
	pop	ebx
	mov	ecx, DWORD PTR __$ArrayPad$[ebp]
	xor	ecx, ebp
	call	@__security_check_cookie@4
	mov	esp, ebp
	pop	ebp
	ret	20					; 00000014H
$LN14@PMC_DivRem:

; 1315 : #ifdef ENABLED_PERFORMANCE_COUNTER
; 1316 :                         if (sizeof(r) == sizeof(_UINT64_T))
; 1317 :                             IncrementDIV64Counter();
; 1318 :                         else
; 1319 :                             IncrementDIV32Counter();
; 1320 : #endif
; 1321 :                     }
; 1322 :                 }
; 1323 :                 else
; 1324 :                 {
; 1325 :                     // v の値が 32bit では表現できない場合
; 1326 :                     __UNIT_TYPE u_bit_count = sizeof(u) * 8 - _LZCNT_ALT_32(u_hi);

	push	ecx
	call	__LZCNT_ALT_32
	mov	ecx, 64					; 00000040H
	add	esp, 4
	sub	ecx, eax

; 1327 :                     __UNIT_TYPE v_bit_count = nv->UNIT_BIT_COUNT;
; 1328 :                     if (u_bit_count < v_bit_count)

	mov	eax, DWORD PTR [esi+12]
	cmp	ecx, eax
	jae	SHORT $LN20@PMC_DivRem

; 1329 :                     {
; 1330 :                         // 明らかに u < v である場合
; 1331 : 
; 1332 :                         // q = 0, r = u を返す。
; 1333 :                         *q = 0;
; 1334 :                         *r = u;

	mov	eax, DWORD PTR _u$[ebp+4]
	mov	DWORD PTR [edi], 0
	mov	DWORD PTR [edi+4], 0
	pop	edi
	mov	DWORD PTR [ebx+4], eax

; 1403 :     return (PMC_STATUS_OK);

	xor	eax, eax

; 1404 : }

	pop	esi
	mov	DWORD PTR [ebx], edx
	pop	ebx
	mov	ecx, DWORD PTR __$ArrayPad$[ebp]
	xor	ecx, ebp
	call	@__security_check_cookie@4
	mov	esp, ebp
	pop	ebp
	ret	20					; 00000014H
$LN20@PMC_DivRem:

; 1335 :                     }
; 1336 :                     else
; 1337 :                     {
; 1338 :                         // u のビット長が 33 以上 64 以下であり、かつ、u のビット長が v のビット長以上(v のビット長は多くとも64以下)である場合
; 1339 : 
; 1340 :                         if (nv->UNIT_BIT_COUNT <= sizeof(__UNIT_TYPE_DIV) * 8)

	cmp	eax, 32					; 00000020H
	mov	DWORD PTR _q_buf$7[ebp], 0
	mov	eax, DWORD PTR _u$[ebp+4]
	mov	DWORD PTR _q_buf$7[ebp+4], 0
	mov	DWORD PTR _q_buf$7[ebp+8], 0
	ja	SHORT $LN22@PMC_DivRem

; 1341 :                         {
; 1342 :                             // v が 32bit で表現できる場合
; 1343 : 
; 1344 :                             __UNIT_TYPE_DIV u_buf[] = { u_lo, u_hi };

	mov	DWORD PTR _u_buf$4[ebp+4], eax

; 1348 :                             DivRem_X_1W(u_buf, countof(u_buf), (__UNIT_TYPE_DIV)nv->BLOCK[0], q_buf, &r_buf);

	lea	eax, DWORD PTR _r_buf$2[ebp]
	push	eax
	lea	eax, DWORD PTR _q_buf$7[ebp]
	mov	DWORD PTR _u_buf$4[ebp], edx
	push	eax
	mov	eax, DWORD PTR [esi+32]
	push	DWORD PTR [eax]
	lea	eax, DWORD PTR _u_buf$4[ebp]
	push	2
	push	eax
	call	_DivRem_X_1W
; File z:\sources\lunor\repos\rougemeilland\palmtree.math.core.uint\palmtree.math.core.uint\pmc_inline_func.h

; 178  :         return (((_UINT64_T)value_high << 32) | value_low);

	mov	ecx, DWORD PTR _q_buf$7[ebp+4]
; File z:\sources\lunor\repos\rougemeilland\palmtree.math.core.uint\palmtree.math.core.uint\pmc_divrem.c

; 1348 :                             DivRem_X_1W(u_buf, countof(u_buf), (__UNIT_TYPE_DIV)nv->BLOCK[0], q_buf, &r_buf);

	add	esp, 20					; 00000014H
; File z:\sources\lunor\repos\rougemeilland\palmtree.math.core.uint\palmtree.math.core.uint\pmc_inline_func.h

; 178  :         return (((_UINT64_T)value_high << 32) | value_low);

	xor	eax, eax
; File z:\sources\lunor\repos\rougemeilland\palmtree.math.core.uint\palmtree.math.core.uint\pmc_divrem.c

; 1350 :                             *q = _FROMWORDTODWORD(q_buf[1], q_buf[0]);

	mov	DWORD PTR [edi+4], ecx
; File z:\sources\lunor\repos\rougemeilland\palmtree.math.core.uint\palmtree.math.core.uint\pmc_inline_func.h

; 178  :         return (((_UINT64_T)value_high << 32) | value_low);

	or	eax, DWORD PTR _q_buf$7[ebp]
; File z:\sources\lunor\repos\rougemeilland\palmtree.math.core.uint\palmtree.math.core.uint\pmc_divrem.c

; 1350 :                             *q = _FROMWORDTODWORD(q_buf[1], q_buf[0]);

	mov	DWORD PTR [edi], eax

; 1351 :                             *r = r_buf;

	mov	eax, DWORD PTR _r_buf$2[ebp]
	pop	edi

; 1403 :     return (PMC_STATUS_OK);

	mov	DWORD PTR [ebx], eax
	xor	eax, eax

; 1404 : }

	pop	esi
	mov	DWORD PTR [ebx+4], 0
	pop	ebx
	mov	ecx, DWORD PTR __$ArrayPad$[ebp]
	xor	ecx, ebp
	call	@__security_check_cookie@4
	mov	esp, ebp
	pop	ebp
	ret	20					; 00000014H
$LN22@PMC_DivRem:

; 1352 :                         }
; 1353 :                         else
; 1354 :                         {
; 1355 :                             // v が 32bit では表現できない場合
; 1356 : 
; 1357 :                             // この場合、2 ワード / 2 ワード の除算となるため、_DIVREM_UNIT 単発では計算できない。
; 1358 :                             __UNIT_TYPE_DIV u_buf[] = { u_lo, u_hi };

	mov	DWORD PTR _u_buf$1[ebp+4], eax

; 1362 :                             (*fp_DivRem_X_X)(u_buf, countof(u_buf), (__UNIT_TYPE_DIV*)nv->BLOCK, nv->UNIT_WORD_COUNT * sizeof(__UNIT_TYPE) / sizeof(__UNIT_TYPE_DIV), work_v_buf, q_buf, r_buf);

	lea	eax, DWORD PTR _r_buf$5[ebp]
	push	eax
	lea	eax, DWORD PTR _q_buf$6[ebp]
	mov	DWORD PTR _u_buf$1[ebp], edx
	push	eax
	lea	eax, DWORD PTR _work_v_buf$3[ebp]
	mov	DWORD PTR _r_buf$5[ebp], 0
	push	eax
	mov	eax, DWORD PTR [esi+8]
	and	eax, 1073741823				; 3fffffffH
	mov	DWORD PTR _r_buf$5[ebp+4], 0
	push	eax
	push	DWORD PTR [esi+32]
	lea	eax, DWORD PTR _u_buf$1[ebp]
	mov	DWORD PTR _r_buf$5[ebp+8], 0
	push	2
	push	eax
	mov	DWORD PTR _work_v_buf$3[ebp], 0
	mov	DWORD PTR _work_v_buf$3[ebp+4], 0
	call	DWORD PTR _fp_DivRem_X_X
; File z:\sources\lunor\repos\rougemeilland\palmtree.math.core.uint\palmtree.math.core.uint\pmc_inline_func.h

; 178  :         return (((_UINT64_T)value_high << 32) | value_low);

	mov	ecx, DWORD PTR _q_buf$6[ebp+4]
	xor	eax, eax
	or	eax, DWORD PTR _q_buf$6[ebp]
; File z:\sources\lunor\repos\rougemeilland\palmtree.math.core.uint\palmtree.math.core.uint\pmc_divrem.c

; 1362 :                             (*fp_DivRem_X_X)(u_buf, countof(u_buf), (__UNIT_TYPE_DIV*)nv->BLOCK, nv->UNIT_WORD_COUNT * sizeof(__UNIT_TYPE) / sizeof(__UNIT_TYPE_DIV), work_v_buf, q_buf, r_buf);

	add	esp, 28					; 0000001cH

; 1363 :                             *q = _FROMWORDTODWORD((_UINT32_T)q_buf[1], (_UINT32_T)q_buf[0]);

	mov	DWORD PTR [edi], eax
; File z:\sources\lunor\repos\rougemeilland\palmtree.math.core.uint\palmtree.math.core.uint\pmc_inline_func.h

; 178  :         return (((_UINT64_T)value_high << 32) | value_low);

	xor	eax, eax
	or	eax, DWORD PTR _r_buf$5[ebp]
; File z:\sources\lunor\repos\rougemeilland\palmtree.math.core.uint\palmtree.math.core.uint\pmc_divrem.c

; 1363 :                             *q = _FROMWORDTODWORD((_UINT32_T)q_buf[1], (_UINT32_T)q_buf[0]);

	mov	DWORD PTR [edi+4], ecx
; File z:\sources\lunor\repos\rougemeilland\palmtree.math.core.uint\palmtree.math.core.uint\pmc_inline_func.h

; 178  :         return (((_UINT64_T)value_high << 32) | value_low);

	mov	ecx, DWORD PTR _r_buf$5[ebp+4]
	pop	edi
; File z:\sources\lunor\repos\rougemeilland\palmtree.math.core.uint\palmtree.math.core.uint\pmc_divrem.c

; 1403 :     return (PMC_STATUS_OK);

	mov	DWORD PTR [ebx], eax
	xor	eax, eax

; 1404 : }

	pop	esi
	mov	DWORD PTR [ebx+4], ecx
	pop	ebx
	mov	ecx, DWORD PTR __$ArrayPad$[ebp]
	xor	ecx, ebp
	call	@__security_check_cookie@4
	mov	esp, ebp
	pop	ebp
	ret	20					; 00000014H
$LN61@PMC_DivRem:

; 1252 :         return (PMC_STATUS_ARGUMENT_ERROR);

	or	eax, -1
$LN1@PMC_DivRem:

; 1404 : }

	mov	ecx, DWORD PTR __$ArrayPad$[ebp]
	pop	edi
	pop	esi
	xor	ecx, ebp
	pop	ebx
	call	@__security_check_cookie@4
	mov	esp, ebp
	pop	ebp
	ret	20					; 00000014H
_PMC_DivRem_L_X@20 ENDP
_TEXT	ENDS
; Function compile flags: /Ogtp
; File z:\sources\lunor\repos\rougemeilland\palmtree.math.core.uint\palmtree.math.core.uint\pmc_divrem.c
; File z:\sources\lunor\repos\rougemeilland\palmtree.math.core.uint\palmtree.math.core.uint\pmc_inline_func.h
; File z:\sources\lunor\repos\rougemeilland\palmtree.math.core.uint\palmtree.math.core.uint\pmc_divrem.c
; File z:\sources\lunor\repos\rougemeilland\palmtree.math.core.uint\palmtree.math.core.uint\pmc_inline_func.h
; File z:\sources\lunor\repos\rougemeilland\palmtree.math.core.uint\palmtree.math.core.uint\pmc_divrem.c
; File z:\sources\lunor\repos\rougemeilland\palmtree.math.core.uint\palmtree.math.core.uint\pmc_uint_internal.h
; File z:\sources\lunor\repos\rougemeilland\palmtree.math.core.uint\palmtree.math.core.uint\pmc_divrem.c
;	COMDAT _PMC_DivRem_I_X@16
_TEXT	SEGMENT
_u$ = 8							; size = 4
_v$ = 12						; size = 4
_q$ = 16						; size = 4
_r$ = 20						; size = 4
_PMC_DivRem_I_X@16 PROC					; COMDAT

; 1073 : {

	push	ebp
	mov	ebp, esp
	push	ebx
	push	esi

; 1074 :     if (sizeof(__UNIT_TYPE_DIV) < sizeof(u))
; 1075 :     {
; 1076 :         // _UINT32_T が 1 ワードで表現しきれない処理系には対応しない
; 1077 :         return (PMC_STATUS_INTERNAL_ERROR);
; 1078 :     }
; 1079 :     if (v == NULL)

	mov	esi, DWORD PTR _v$[ebp]
	push	edi
	test	esi, esi
	je	$LN29@PMC_DivRem

; 1080 :         return (PMC_STATUS_ARGUMENT_ERROR);
; 1081 :     if (q == NULL)

	mov	edi, DWORD PTR _q$[ebp]
	test	edi, edi
	je	$LN29@PMC_DivRem

; 1082 :         return (PMC_STATUS_ARGUMENT_ERROR);
; 1083 :     if (r == NULL)

	mov	ebx, DWORD PTR _r$[ebp]
	test	ebx, ebx
	je	$LN29@PMC_DivRem

; 1085 :     NUMBER_HEADER* nv = (NUMBER_HEADER*)v;
; 1086 :     PMC_STATUS_CODE result;
; 1087 :     if ((result = CheckNumber(nv)) != PMC_STATUS_OK)

	push	esi
	call	_CheckNumber
	add	esp, 4
	test	eax, eax
	jne	$LN1@PMC_DivRem

; 1088 :         return (result);
; 1089 :     if (nv->IS_ZERO)

	mov	eax, DWORD PTR [esi+24]
	test	al, 2
	je	SHORT $LN7@PMC_DivRem

; 1149 : }

	pop	edi
	pop	esi
	mov	eax, -3					; fffffffdH
	pop	ebx
	pop	ebp
	ret	16					; 00000010H
$LN7@PMC_DivRem:

; 1090 :     {
; 1091 :         // v が 0 である場合
; 1092 : 
; 1093 :         // 0 による除算はエラーで返す
; 1094 :         return (PMC_STATUS_DIVISION_BY_ZERO);
; 1095 :     }
; 1096 :     if (u == 0)

	mov	edx, DWORD PTR _u$[ebp]
	test	edx, edx
	jne	SHORT $LN8@PMC_DivRem

; 1097 :     {
; 1098 :         // u が 0 である場合
; 1099 : 
; 1100 :         // q = 0, r = 0 を返す
; 1101 :         *q = 0;

	mov	DWORD PTR [edi], edx

; 1139 : #ifdef ENABLED_PERFORMANCE_COUNTER
; 1140 :                 if (sizeof(r) == sizeof(_UINT64_T))
; 1141 :                     IncrementDIV64Counter();
; 1142 :                 else
; 1143 :                     IncrementDIV32Counter();
; 1144 : #endif
; 1145 :             }
; 1146 :         }
; 1147 :     }
; 1148 :     return (PMC_STATUS_OK);

	xor	eax, eax
	pop	edi

; 1149 : }

	pop	esi
	mov	DWORD PTR [ebx], edx
	pop	ebx
	pop	ebp
	ret	16					; 00000010H
$LN8@PMC_DivRem:

; 1102 :         *r = 0;
; 1103 :     }
; 1104 :     else
; 1105 :     {
; 1106 :         // u が 0 ではない場合
; 1107 : 
; 1108 :         if (nv->IS_ONE)

	test	al, 4
	je	SHORT $LN10@PMC_DivRem

; 1109 :         {
; 1110 :             // v が 1 である場合
; 1111 : 
; 1112 :             // q = u, r = 0 を返す
; 1113 :             *q = u;

	mov	DWORD PTR [edi], edx

; 1139 : #ifdef ENABLED_PERFORMANCE_COUNTER
; 1140 :                 if (sizeof(r) == sizeof(_UINT64_T))
; 1141 :                     IncrementDIV64Counter();
; 1142 :                 else
; 1143 :                     IncrementDIV32Counter();
; 1144 : #endif
; 1145 :             }
; 1146 :         }
; 1147 :     }
; 1148 :     return (PMC_STATUS_OK);

	xor	eax, eax
	pop	edi

; 1149 : }

	pop	esi
	mov	DWORD PTR [ebx], 0
	pop	ebx
	pop	ebp
	ret	16					; 00000010H
$LN10@PMC_DivRem:

; 1114 :             *r = 0;
; 1115 :         }
; 1116 :         else
; 1117 :         {
; 1118 :             // u と v がともに 0 ではない場合
; 1119 : 
; 1120 :             // x と y の商・剰余を計算する
; 1121 :             __UNIT_TYPE u_bit_count = sizeof(u) * 8 - _LZCNT_ALT_32(u);

	push	edx
	call	__LZCNT_ALT_32
	mov	ecx, 32					; 00000020H
	add	esp, 4
	sub	ecx, eax

; 1122 :             __UNIT_TYPE v_bit_count = nv->UNIT_BIT_COUNT;
; 1123 :             if (u_bit_count < v_bit_count)

	cmp	ecx, DWORD PTR [esi+12]
	jae	SHORT $LN12@PMC_DivRem

; 1124 :             {
; 1125 :                 // 明らかに u < v である場合
; 1126 : 
; 1127 :                 // q = 0, r = u を返す。
; 1128 :                 *q = 0;

	mov	DWORD PTR [edi], 0

; 1139 : #ifdef ENABLED_PERFORMANCE_COUNTER
; 1140 :                 if (sizeof(r) == sizeof(_UINT64_T))
; 1141 :                     IncrementDIV64Counter();
; 1142 :                 else
; 1143 :                     IncrementDIV32Counter();
; 1144 : #endif
; 1145 :             }
; 1146 :         }
; 1147 :     }
; 1148 :     return (PMC_STATUS_OK);

	xor	eax, eax
	pop	edi

; 1149 : }

	pop	esi
	mov	DWORD PTR [ebx], edx
	pop	ebx
	pop	ebp
	ret	16					; 00000010H
$LN12@PMC_DivRem:

; 1137 :                 *q = _DIVREM_UNIT(0, u, (__UNIT_TYPE_DIV)nv->BLOCK[0], &temp_r);

	mov	eax, DWORD PTR [esi+32]
; File z:\sources\lunor\repos\rougemeilland\palmtree.math.core.uint\palmtree.math.core.uint\pmc_inline_func.h

; 391  :             return ((_UINT32_T)(t / v));

	push	0
	mov	esi, DWORD PTR [eax]
	push	esi
	push	0
	push	edx
	call	__aulldiv
	push	0
	push	esi
	push	0
	push	DWORD PTR _u$[ebp]
; File z:\sources\lunor\repos\rougemeilland\palmtree.math.core.uint\palmtree.math.core.uint\pmc_divrem.c

; 1137 :                 *q = _DIVREM_UNIT(0, u, (__UNIT_TYPE_DIV)nv->BLOCK[0], &temp_r);

	mov	DWORD PTR [edi], eax
; File z:\sources\lunor\repos\rougemeilland\palmtree.math.core.uint\palmtree.math.core.uint\pmc_inline_func.h

; 390  :             *r = (_UINT32_T)(t % v);

	call	__aullrem
; File z:\sources\lunor\repos\rougemeilland\palmtree.math.core.uint\palmtree.math.core.uint\pmc_divrem.c

; 1138 :                 *r = temp_r;

	mov	DWORD PTR [ebx], eax
; File z:\sources\lunor\repos\rougemeilland\palmtree.math.core.uint\palmtree.math.core.uint\pmc_uint_internal.h

; 317  :         _InterlockedIncrement(&statistics_info.COUNT_DIV32);

	lock	 inc	 (null) PTR _statistics_info+12
	pop	edi
; File z:\sources\lunor\repos\rougemeilland\palmtree.math.core.uint\palmtree.math.core.uint\pmc_divrem.c

; 1149 : }

	pop	esi
	xor	eax, eax
	pop	ebx
	pop	ebp
	ret	16					; 00000010H
$LN29@PMC_DivRem:

; 1084 :         return (PMC_STATUS_ARGUMENT_ERROR);

	or	eax, -1
$LN1@PMC_DivRem:
	pop	edi

; 1149 : }

	pop	esi
	pop	ebx
	pop	ebp
	ret	16					; 00000010H
_PMC_DivRem_I_X@16 ENDP
_TEXT	ENDS
; Function compile flags: /Ogtp
; File z:\sources\lunor\repos\rougemeilland\palmtree.math.core.uint\palmtree.math.core.uint\pmc_divrem.c
;	COMDAT _Initialize_DivRem
_TEXT	SEGMENT
_feature$ = 8						; size = 4
_Initialize_DivRem PROC					; COMDAT

; 1745 : {

	push	ebp
	mov	ebp, esp
	mov	eax, DWORD PTR _feature$[ebp]

; 1746 :     fp_DivRem_X_X = feature->PROCESSOR_FEATURE_ADX && feature->PROCESSOR_FEATURE_BMI2 ? DivRem_X_X_using_ADX_MULX : DivRem_X_X_using_ADC_MUL;
; 1747 :     return (PMC_STATUS_OK);

	mov	ecx, OFFSET _DivRem_X_X_using_ADX_MULX
	mov	edx, OFFSET _DivRem_X_X_using_ADC_MUL
	mov	eax, DWORD PTR [eax]
	and	eax, 10					; 0000000aH
	cmp	al, 10					; 0000000aH
	cmovne	ecx, edx
	xor	eax, eax
	mov	DWORD PTR _fp_DivRem_X_X, ecx

; 1748 : }

	pop	ebp
	ret	0
_Initialize_DivRem ENDP
_TEXT	ENDS
; Function compile flags: /Ogtp
; File z:\sources\lunor\repos\rougemeilland\palmtree.math.core.uint\palmtree.math.core.uint\pmc_divrem.c
; File z:\sources\lunor\repos\rougemeilland\palmtree.math.core.uint\palmtree.math.core.uint\pmc_inline_func.h
; File z:\sources\lunor\repos\rougemeilland\palmtree.math.core.uint\palmtree.math.core.uint\pmc_divrem.c
; File z:\sources\lunor\repos\rougemeilland\palmtree.math.core.uint\palmtree.math.core.uint\pmc_inline_func.h
; File z:\sources\lunor\repos\rougemeilland\palmtree.math.core.uint\palmtree.math.core.uint\pmc_divrem.c
; File z:\sources\lunor\repos\rougemeilland\palmtree.math.core.uint\palmtree.math.core.uint\pmc_inline_func.h
; File z:\sources\lunor\repos\rougemeilland\palmtree.math.core.uint\palmtree.math.core.uint\pmc_divrem.c
; File z:\sources\lunor\repos\rougemeilland\palmtree.math.core.uint\palmtree.math.core.uint\pmc_uint_internal.h
; File z:\sources\lunor\repos\rougemeilland\palmtree.math.core.uint\palmtree.math.core.uint\pmc_divrem.c
; File z:\sources\lunor\repos\rougemeilland\palmtree.math.core.uint\palmtree.math.core.uint\pmc_inline_func.h
; File z:\sources\lunor\repos\rougemeilland\palmtree.math.core.uint\palmtree.math.core.uint\pmc_divrem.c
; File z:\sources\lunor\repos\rougemeilland\palmtree.math.core.uint\palmtree.math.core.uint\pmc_inline_func.h
; File z:\sources\lunor\repos\rougemeilland\palmtree.math.core.uint\palmtree.math.core.uint\pmc_divrem.c
;	COMDAT _DivRem_X_X
_TEXT	SEGMENT
_u_buf$ = 8						; size = 4
_r$1 = 12						; size = 4
_u_count$ = 12						; size = 4
_v_buf$ = 16						; size = 4
_v_count$ = 20						; size = 4
_work_v_buf$ = 24					; size = 4
_q_buf$ = 28						; size = 4
_r_buf$ = 32						; size = 4
_DivRem_X_X PROC					; COMDAT

; 46   : {

	push	ebp
	mov	ebp, esp

; 47   :     __UNIT_TYPE_DIV* u_buf_2 = (__UNIT_TYPE_DIV*)u_buf;
; 48   :     __UNIT_TYPE u_count_2 = u_count * (sizeof(__UNIT_TYPE) / sizeof(__UNIT_TYPE_DIV));
; 49   :     __UNIT_TYPE_DIV* v_buf_2 = (__UNIT_TYPE_DIV*)v_buf;
; 50   :     __UNIT_TYPE v_count_2 = v_count * (sizeof(__UNIT_TYPE) / sizeof(__UNIT_TYPE_DIV));
; 51   :     if (sizeof(__UNIT_TYPE) != sizeof(__UNIT_TYPE_DIV))
; 52   :     {
; 53   :         if (u_buf_2[u_count_2 - 1] == 0)
; 54   :             --u_count_2;
; 55   :         if (v_buf_2[v_count_2 - 1] == 0)
; 56   :             --v_count_2;
; 57   :     }
; 58   :     if (v_count_2 == 1)

	mov	eax, DWORD PTR _v_count$[ebp]
	push	esi
	push	edi
	cmp	eax, 1
	jne	SHORT $LN5@DivRem_X_X

; 59   :     {
; 60   :         if (u_count_2 == 1)

	mov	eax, DWORD PTR _v_buf$[ebp]
	mov	edi, DWORD PTR [eax]
	mov	eax, DWORD PTR _u_count$[ebp]
	cmp	eax, 1
	jne	SHORT $LN7@DivRem_X_X
; File z:\sources\lunor\repos\rougemeilland\palmtree.math.core.uint\palmtree.math.core.uint\pmc_inline_func.h

; 178  :         return (((_UINT64_T)value_high << 32) | value_low);

	mov	eax, DWORD PTR _u_buf$[ebp]

; 391  :             return ((_UINT32_T)(t / v));

	push	0
	push	edi
	push	0

; 178  :         return (((_UINT64_T)value_high << 32) | value_low);

	mov	esi, DWORD PTR [eax]

; 391  :             return ((_UINT32_T)(t / v));

	push	esi
	call	__aulldiv
; File z:\sources\lunor\repos\rougemeilland\palmtree.math.core.uint\palmtree.math.core.uint\pmc_divrem.c

; 64   :             q_buf[0] = q;

	mov	ecx, DWORD PTR _q_buf$[ebp]
; File z:\sources\lunor\repos\rougemeilland\palmtree.math.core.uint\palmtree.math.core.uint\pmc_inline_func.h

; 390  :             *r = (_UINT32_T)(t % v);

	push	0
	push	edi
	push	0
	push	esi
; File z:\sources\lunor\repos\rougemeilland\palmtree.math.core.uint\palmtree.math.core.uint\pmc_divrem.c

; 64   :             q_buf[0] = q;

	mov	DWORD PTR [ecx], eax
; File z:\sources\lunor\repos\rougemeilland\palmtree.math.core.uint\palmtree.math.core.uint\pmc_inline_func.h

; 390  :             *r = (_UINT32_T)(t % v);

	call	__aullrem
; File z:\sources\lunor\repos\rougemeilland\palmtree.math.core.uint\palmtree.math.core.uint\pmc_divrem.c

; 65   :             r_buf[0] = r;

	mov	ecx, DWORD PTR _r_buf$[ebp]
	mov	DWORD PTR [ecx], eax
; File z:\sources\lunor\repos\rougemeilland\palmtree.math.core.uint\palmtree.math.core.uint\pmc_uint_internal.h

; 317  :         _InterlockedIncrement(&statistics_info.COUNT_DIV32);

	lock	 inc	 (null) PTR _statistics_info+12
	pop	edi
; File z:\sources\lunor\repos\rougemeilland\palmtree.math.core.uint\palmtree.math.core.uint\pmc_divrem.c

; 90   : }

	pop	esi
	pop	ebp
	ret	0
$LN7@DivRem_X_X:

; 66   : #ifdef ENABLED_PERFORMANCE_COUNTER
; 67   :             if (sizeof(r) == sizeof(_UINT64_T))
; 68   :                 IncrementDIV64Counter();
; 69   :             else
; 70   :                 IncrementDIV32Counter();
; 71   : #endif
; 72   :         }
; 73   :         else
; 74   :         {
; 75   :             __UNIT_TYPE_DIV r;
; 76   :             DivRem_X_1W(u_buf_2, u_count_2, v_buf_2[0], (__UNIT_TYPE_DIV*)q_buf, &r);

	lea	ecx, DWORD PTR _r$1[ebp]
	push	ecx
	push	DWORD PTR _q_buf$[ebp]
	push	edi
	push	eax
	push	DWORD PTR _u_buf$[ebp]
	call	_DivRem_X_1W

; 77   :             r_buf[0] = r;

	mov	ecx, DWORD PTR _r_buf$[ebp]
	add	esp, 20					; 00000014H
	mov	eax, DWORD PTR _r$1[ebp]
	pop	edi
	mov	DWORD PTR [ecx], eax

; 90   : }

	pop	esi
	pop	ebp
	ret	0
$LN5@DivRem_X_X:

; 78   :         }
; 79   :     }
; 80   :     else
; 81   :     {
; 82   :         if (u_count_2 < v_count_2)

	mov	ecx, DWORD PTR _u_count$[ebp]
	cmp	ecx, eax
	jae	SHORT $LN11@DivRem_X_X

; 84   :             q_buf[0] = 0;

	mov	eax, DWORD PTR _q_buf$[ebp]
; File z:\sources\lunor\repos\rougemeilland\palmtree.math.core.uint\palmtree.math.core.uint\pmc_inline_func.h

; 68   :         __movsd((unsigned long *)d, (unsigned long *)s, (unsigned long)count);

	mov	edi, DWORD PTR _r_buf$[ebp]
	mov	esi, DWORD PTR _u_buf$[ebp]
; File z:\sources\lunor\repos\rougemeilland\palmtree.math.core.uint\palmtree.math.core.uint\pmc_divrem.c

; 84   :             q_buf[0] = 0;

	mov	DWORD PTR [eax], 0
; File z:\sources\lunor\repos\rougemeilland\palmtree.math.core.uint\palmtree.math.core.uint\pmc_inline_func.h

; 68   :         __movsd((unsigned long *)d, (unsigned long *)s, (unsigned long)count);

	rep movsd
	pop	edi
; File z:\sources\lunor\repos\rougemeilland\palmtree.math.core.uint\palmtree.math.core.uint\pmc_divrem.c

; 90   : }

	pop	esi
	pop	ebp
	ret	0
$LN11@DivRem_X_X:
	pop	edi
	pop	esi
	mov	DWORD PTR _v_count$[ebp], eax
	mov	DWORD PTR _u_count$[ebp], ecx
	pop	ebp

; 85   :             _COPY_MEMORY_UNIT(r_buf, u_buf, u_count);
; 86   :         }
; 87   :         else
; 88   :             (*fp_DivRem_X_X)(u_buf_2, u_count_2, v_buf_2, v_count_2, (__UNIT_TYPE_DIV*)work_v_buf, (__UNIT_TYPE_DIV*)q_buf, (__UNIT_TYPE_DIV*)r_buf);

	jmp	DWORD PTR _fp_DivRem_X_X
_DivRem_X_X ENDP
_TEXT	ENDS
; Function compile flags: /Ogtp
; File z:\sources\lunor\repos\rougemeilland\palmtree.math.core.uint\palmtree.math.core.uint\pmc_divrem.c
; File z:\sources\lunor\repos\rougemeilland\palmtree.math.core.uint\palmtree.math.core.uint\pmc_inline_func.h
; File z:\sources\lunor\repos\rougemeilland\palmtree.math.core.uint\palmtree.math.core.uint\pmc_divrem.c
; File z:\sources\lunor\repos\rougemeilland\palmtree.math.core.uint\palmtree.math.core.uint\pmc_inline_func.h
; File z:\sources\lunor\repos\rougemeilland\palmtree.math.core.uint\palmtree.math.core.uint\pmc_divrem.c
; File z:\sources\lunor\repos\rougemeilland\palmtree.math.core.uint\palmtree.math.core.uint\pmc_uint_internal.h
; File z:\sources\lunor\repos\rougemeilland\palmtree.math.core.uint\palmtree.math.core.uint\pmc_divrem.c
; File z:\sources\lunor\repos\rougemeilland\palmtree.math.core.uint\palmtree.math.core.uint\pmc_inline_func.h
; File z:\sources\lunor\repos\rougemeilland\palmtree.math.core.uint\palmtree.math.core.uint\pmc_divrem.c
; File z:\sources\lunor\repos\rougemeilland\palmtree.math.core.uint\palmtree.math.core.uint\pmc_uint_internal.h
; File z:\sources\lunor\repos\rougemeilland\palmtree.math.core.uint\palmtree.math.core.uint\pmc_divrem.c
; File z:\sources\lunor\repos\rougemeilland\palmtree.math.core.uint\palmtree.math.core.uint\pmc_inline_func.h
; File z:\sources\lunor\repos\rougemeilland\palmtree.math.core.uint\palmtree.math.core.uint\pmc_divrem.c
; File z:\sources\lunor\repos\rougemeilland\palmtree.math.core.uint\palmtree.math.core.uint\pmc_uint_internal.h
; File z:\sources\lunor\repos\rougemeilland\palmtree.math.core.uint\palmtree.math.core.uint\pmc_divrem.c
; File z:\sources\lunor\repos\rougemeilland\palmtree.math.core.uint\palmtree.math.core.uint\pmc_inline_func.h
; File z:\sources\lunor\repos\rougemeilland\palmtree.math.core.uint\palmtree.math.core.uint\pmc_divrem.c
; File z:\sources\lunor\repos\rougemeilland\palmtree.math.core.uint\palmtree.math.core.uint\pmc_uint_internal.h
; File z:\sources\lunor\repos\rougemeilland\palmtree.math.core.uint\palmtree.math.core.uint\pmc_divrem.c
; File z:\sources\lunor\repos\rougemeilland\palmtree.math.core.uint\palmtree.math.core.uint\pmc_inline_func.h
; File z:\sources\lunor\repos\rougemeilland\palmtree.math.core.uint\palmtree.math.core.uint\pmc_divrem.c
; File z:\sources\lunor\repos\rougemeilland\palmtree.math.core.uint\palmtree.math.core.uint\pmc_uint_internal.h
; File z:\sources\lunor\repos\rougemeilland\palmtree.math.core.uint\palmtree.math.core.uint\pmc_divrem.c
; File z:\sources\lunor\repos\rougemeilland\palmtree.math.core.uint\palmtree.math.core.uint\pmc_inline_func.h
; File z:\sources\lunor\repos\rougemeilland\palmtree.math.core.uint\palmtree.math.core.uint\pmc_uint_internal.h
; File z:\sources\lunor\repos\rougemeilland\palmtree.math.core.uint\palmtree.math.core.uint\pmc_divrem.c
;	COMDAT _DivRem_X_1W
_TEXT	SEGMENT
tv6404 = -8						; size = 8
tv6403 = -8						; size = 8
tv6394 = -8						; size = 8
tv6393 = -8						; size = 8
tv6383 = -8						; size = 8
tv6382 = -8						; size = 8
tv6372 = -8						; size = 8
tv6371 = -8						; size = 8
tv6361 = -8						; size = 8
tv6360 = -8						; size = 8
tv6350 = -8						; size = 8
tv6349 = -8						; size = 8
tv6339 = -8						; size = 8
tv6338 = -8						; size = 8
tv6328 = -8						; size = 8
tv6327 = -8						; size = 8
tv6317 = -8						; size = 8
tv6316 = -8						; size = 8
tv6306 = -8						; size = 8
tv6305 = -8						; size = 8
tv6295 = -8						; size = 8
tv6294 = -8						; size = 8
tv6284 = -8						; size = 8
tv6283 = -8						; size = 8
tv6273 = -8						; size = 8
tv6272 = -8						; size = 8
tv6262 = -8						; size = 8
tv6261 = -8						; size = 8
tv6251 = -8						; size = 8
tv6250 = -8						; size = 8
tv6240 = -8						; size = 8
tv6239 = -8						; size = 8
tv6229 = -8						; size = 8
tv6228 = -8						; size = 8
tv6218 = -8						; size = 8
tv6217 = -8						; size = 8
tv6207 = -8						; size = 8
tv6206 = -8						; size = 8
tv6196 = -8						; size = 8
tv6195 = -8						; size = 8
tv6185 = -8						; size = 8
tv6184 = -8						; size = 8
tv6174 = -8						; size = 8
tv6173 = -8						; size = 8
tv6163 = -8						; size = 8
tv6162 = -8						; size = 8
tv6152 = -8						; size = 8
tv6151 = -8						; size = 8
tv6141 = -8						; size = 8
tv6140 = -8						; size = 8
tv6130 = -8						; size = 8
tv6129 = -8						; size = 8
tv6119 = -8						; size = 8
tv6118 = -8						; size = 8
tv6108 = -8						; size = 8
tv6107 = -8						; size = 8
tv6097 = -8						; size = 8
tv6096 = -8						; size = 8
tv6086 = -8						; size = 8
tv6085 = -8						; size = 8
tv6075 = -8						; size = 8
tv6074 = -8						; size = 8
tv6064 = -8						; size = 8
tv6063 = -8						; size = 8
tv6050 = -8						; size = 8
tv6049 = -8						; size = 8
tv6040 = -8						; size = 8
tv6039 = -8						; size = 8
tv6029 = -8						; size = 8
tv6028 = -8						; size = 8
tv6018 = -8						; size = 8
tv6017 = -8						; size = 8
tv6007 = -8						; size = 8
tv6006 = -8						; size = 8
tv5996 = -8						; size = 8
tv5995 = -8						; size = 8
tv5985 = -8						; size = 8
tv5984 = -8						; size = 8
tv5974 = -8						; size = 8
tv5973 = -8						; size = 8
tv5963 = -8						; size = 8
tv5962 = -8						; size = 8
tv5952 = -8						; size = 8
tv5951 = -8						; size = 8
tv5941 = -8						; size = 8
tv5940 = -8						; size = 8
tv5930 = -8						; size = 8
tv5929 = -8						; size = 8
tv5919 = -8						; size = 8
tv5918 = -8						; size = 8
tv5908 = -8						; size = 8
tv5907 = -8						; size = 8
tv5897 = -8						; size = 8
tv5896 = -8						; size = 8
tv5886 = -8						; size = 8
tv5885 = -8						; size = 8
tv5873 = -8						; size = 8
tv5872 = -8						; size = 8
tv5863 = -8						; size = 8
tv5862 = -8						; size = 8
tv5852 = -8						; size = 8
tv5851 = -8						; size = 8
tv5841 = -8						; size = 8
tv5840 = -8						; size = 8
tv5830 = -8						; size = 8
tv5829 = -8						; size = 8
tv5819 = -8						; size = 8
tv5818 = -8						; size = 8
tv5808 = -8						; size = 8
tv5807 = -8						; size = 8
tv5797 = -8						; size = 8
tv5796 = -8						; size = 8
tv5784 = -8						; size = 8
tv5783 = -8						; size = 8
tv5774 = -8						; size = 8
tv5773 = -8						; size = 8
tv5763 = -8						; size = 8
tv5762 = -8						; size = 8
tv5752 = -8						; size = 8
tv5751 = -8						; size = 8
tv5739 = -8						; size = 8
tv5738 = -8						; size = 8
tv5729 = -8						; size = 8
tv5728 = -8						; size = 8
tv5524 = -8						; size = 8
tv5523 = -8						; size = 8
_count$1$ = 8						; size = 4
_u_buf$ = 8						; size = 4
_u_buf_len$ = 12					; size = 4
_v$ = 16						; size = 4
_q_buf$ = 20						; size = 4
_r_buf$ = 24						; size = 4
_DivRem_X_1W PROC					; COMDAT

; 93   : {

	push	ebp
	mov	ebp, esp
	sub	esp, 8

; 94   :     // u の最上位ワードは 0 でありうることに注意すること。
; 95   :     __UNIT_TYPE_DIV* up = u_buf + u_buf_len - 1;

	mov	ecx, DWORD PTR _u_buf_len$[ebp]

; 96   :     __UNIT_TYPE_DIV* qp = q_buf + u_buf_len - 1;
; 97   :     __UNIT_TYPE u_count = u_buf_len;
; 98   :     if (sizeof(__UNIT_TYPE) != sizeof(__UNIT_TYPE_DIV))
; 99   :     {
; 100  :         while (*up == 0)
; 101  :         {
; 102  :             --up;
; 103  :             --qp;
; 104  :             --u_count;
; 105  :         }
; 106  :     }
; 107  :     __UNIT_TYPE_DIV r = 0;
; 108  :     __UNIT_TYPE count = u_count >> 5;

	mov	eax, ecx
	push	ebx
	push	esi
	mov	esi, DWORD PTR _q_buf$[ebp]
	xor	ebx, ebx
	push	edi
	mov	edi, DWORD PTR _u_buf$[ebp]
	add	esi, -4					; fffffffcH
	add	edi, -4					; fffffffcH
	shr	eax, 5
	mov	DWORD PTR _count$1$[ebp], eax
	lea	esi, DWORD PTR [esi+ecx*4]
	lea	edi, DWORD PTR [edi+ecx*4]
	mov	ecx, DWORD PTR _v$[ebp]

; 109  :     while (count != 0)

	test	eax, eax
	je	$LN555@DivRem_X_1
$LL4@DivRem_X_1:
; File z:\sources\lunor\repos\rougemeilland\palmtree.math.core.uint\palmtree.math.core.uint\pmc_inline_func.h

; 434  :             *q = (_UINT32_T)(t / v);

	push	ebx
	push	0
	push	ecx

; 178  :         return (((_UINT64_T)value_high << 32) | value_low);

	xor	eax, eax
	or	eax, DWORD PTR [edi]

; 434  :             *q = (_UINT32_T)(t / v);

	push	ebx
	push	eax
	call	__aulldvrm
	mov	DWORD PTR tv6403[ebp+4], ebx
	pop	ebx
	push	ebx
	push	0
	push	DWORD PTR _v$[ebp]
	mov	DWORD PTR [esi], eax

; 178  :         return (((_UINT64_T)value_high << 32) | value_low);

	xor	eax, eax
	or	eax, DWORD PTR [edi-4]

; 434  :             *q = (_UINT32_T)(t / v);

	push	ecx
	push	eax
	mov	DWORD PTR tv6404[ebp+4], edx
	call	__aulldvrm
	mov	DWORD PTR tv6393[ebp+4], ebx
	pop	ebx
	push	ebx
	push	0
	push	DWORD PTR _v$[ebp]
	mov	DWORD PTR [esi-4], eax

; 178  :         return (((_UINT64_T)value_high << 32) | value_low);

	xor	eax, eax
	or	eax, DWORD PTR [edi-8]

; 434  :             *q = (_UINT32_T)(t / v);

	push	ecx
	push	eax
	mov	DWORD PTR tv6394[ebp+4], edx
	call	__aulldvrm
	mov	DWORD PTR tv6382[ebp+4], ebx
	pop	ebx
	push	ebx
	push	0
	push	DWORD PTR _v$[ebp]
	mov	DWORD PTR [esi-8], eax

; 178  :         return (((_UINT64_T)value_high << 32) | value_low);

	xor	eax, eax
	or	eax, DWORD PTR [edi-12]

; 434  :             *q = (_UINT32_T)(t / v);

	push	ecx
	push	eax
	mov	DWORD PTR tv6383[ebp+4], edx
	call	__aulldvrm
	mov	DWORD PTR tv6371[ebp+4], ebx
	pop	ebx
	push	ebx
	push	0
	push	DWORD PTR _v$[ebp]
	mov	DWORD PTR [esi-12], eax

; 178  :         return (((_UINT64_T)value_high << 32) | value_low);

	xor	eax, eax
	or	eax, DWORD PTR [edi-16]

; 434  :             *q = (_UINT32_T)(t / v);

	push	ecx
	push	eax
	mov	DWORD PTR tv6372[ebp+4], edx
	call	__aulldvrm
	mov	DWORD PTR tv6360[ebp+4], ebx
	pop	ebx
	push	ebx
	push	0
	push	DWORD PTR _v$[ebp]
	mov	DWORD PTR [esi-16], eax

; 178  :         return (((_UINT64_T)value_high << 32) | value_low);

	xor	eax, eax
	or	eax, DWORD PTR [edi-20]

; 434  :             *q = (_UINT32_T)(t / v);

	push	ecx
	push	eax
	mov	DWORD PTR tv6361[ebp+4], edx
	call	__aulldvrm
	mov	DWORD PTR tv6349[ebp+4], ebx
	pop	ebx
	mov	DWORD PTR [esi-20], eax

; 178  :         return (((_UINT64_T)value_high << 32) | value_low);

	xor	eax, eax
	or	eax, DWORD PTR [edi-24]

; 434  :             *q = (_UINT32_T)(t / v);

	mov	DWORD PTR tv6350[ebp+4], edx
	push	ebx
	push	0
	push	DWORD PTR _v$[ebp]
	push	ecx
	push	eax
	call	__aulldvrm
	mov	DWORD PTR tv6338[ebp+4], ebx
	pop	ebx
	push	ebx
	push	0
	push	DWORD PTR _v$[ebp]
	mov	DWORD PTR [esi-24], eax

; 178  :         return (((_UINT64_T)value_high << 32) | value_low);

	xor	eax, eax
	or	eax, DWORD PTR [edi-28]

; 434  :             *q = (_UINT32_T)(t / v);

	push	ecx
	push	eax
	mov	DWORD PTR tv6339[ebp+4], edx
	call	__aulldvrm
	mov	DWORD PTR tv6327[ebp+4], ebx
	pop	ebx
	push	ebx
	push	0
	push	DWORD PTR _v$[ebp]
	mov	DWORD PTR [esi-28], eax

; 178  :         return (((_UINT64_T)value_high << 32) | value_low);

	xor	eax, eax
	or	eax, DWORD PTR [edi-32]

; 434  :             *q = (_UINT32_T)(t / v);

	push	ecx
	push	eax
	mov	DWORD PTR tv6328[ebp+4], edx
	call	__aulldvrm
	mov	DWORD PTR tv6316[ebp+4], ebx
	pop	ebx
	push	ebx
	push	0
	push	DWORD PTR _v$[ebp]
	mov	DWORD PTR [esi-32], eax

; 178  :         return (((_UINT64_T)value_high << 32) | value_low);

	xor	eax, eax
	or	eax, DWORD PTR [edi-36]

; 434  :             *q = (_UINT32_T)(t / v);

	push	ecx
	push	eax
	mov	DWORD PTR tv6317[ebp+4], edx
	call	__aulldvrm
	mov	DWORD PTR tv6305[ebp+4], ebx
	pop	ebx
	push	ebx
	push	0
	push	DWORD PTR _v$[ebp]
	mov	DWORD PTR [esi-36], eax

; 178  :         return (((_UINT64_T)value_high << 32) | value_low);

	xor	eax, eax
	or	eax, DWORD PTR [edi-40]

; 434  :             *q = (_UINT32_T)(t / v);

	push	ecx
	push	eax
	mov	DWORD PTR tv6306[ebp+4], edx
	call	__aulldvrm
	mov	DWORD PTR tv6294[ebp+4], ebx
	pop	ebx
	push	ebx
	push	0
	push	DWORD PTR _v$[ebp]
	mov	DWORD PTR [esi-40], eax

; 178  :         return (((_UINT64_T)value_high << 32) | value_low);

	xor	eax, eax
	or	eax, DWORD PTR [edi-44]

; 434  :             *q = (_UINT32_T)(t / v);

	push	ecx
	push	eax
	mov	DWORD PTR tv6295[ebp+4], edx
	call	__aulldvrm
	mov	DWORD PTR tv6283[ebp+4], ebx
	pop	ebx
	push	ebx
	push	0
	push	DWORD PTR _v$[ebp]
	mov	DWORD PTR [esi-44], eax

; 178  :         return (((_UINT64_T)value_high << 32) | value_low);

	xor	eax, eax
	or	eax, DWORD PTR [edi-48]

; 434  :             *q = (_UINT32_T)(t / v);

	mov	DWORD PTR tv6284[ebp+4], edx
	push	ecx
	push	eax
	call	__aulldvrm
	mov	DWORD PTR tv6272[ebp+4], ebx
	pop	ebx
	push	ebx
	push	0
	push	DWORD PTR _v$[ebp]
	mov	DWORD PTR [esi-48], eax

; 178  :         return (((_UINT64_T)value_high << 32) | value_low);

	xor	eax, eax
	or	eax, DWORD PTR [edi-52]

; 434  :             *q = (_UINT32_T)(t / v);

	push	ecx
	push	eax
	mov	DWORD PTR tv6273[ebp+4], edx
	call	__aulldvrm
	mov	DWORD PTR tv6261[ebp+4], ebx
	pop	ebx
	push	ebx
	push	0
	push	DWORD PTR _v$[ebp]
	mov	DWORD PTR [esi-52], eax

; 178  :         return (((_UINT64_T)value_high << 32) | value_low);

	xor	eax, eax
	or	eax, DWORD PTR [edi-56]

; 434  :             *q = (_UINT32_T)(t / v);

	push	ecx
	push	eax
	mov	DWORD PTR tv6262[ebp+4], edx
	call	__aulldvrm
	mov	DWORD PTR tv6250[ebp+4], ebx
	pop	ebx
	push	ebx
	push	0
	push	DWORD PTR _v$[ebp]
	mov	DWORD PTR [esi-56], eax

; 178  :         return (((_UINT64_T)value_high << 32) | value_low);

	xor	eax, eax
	or	eax, DWORD PTR [edi-60]

; 434  :             *q = (_UINT32_T)(t / v);

	push	ecx
	push	eax
	mov	DWORD PTR tv6251[ebp+4], edx
	call	__aulldvrm
	mov	DWORD PTR tv6239[ebp+4], ebx
	pop	ebx
	push	ebx
	push	0
	push	DWORD PTR _v$[ebp]
	mov	DWORD PTR [esi-60], eax

; 178  :         return (((_UINT64_T)value_high << 32) | value_low);

	xor	eax, eax
	or	eax, DWORD PTR [edi-64]

; 434  :             *q = (_UINT32_T)(t / v);

	push	ecx
	push	eax
	mov	DWORD PTR tv6240[ebp+4], edx
	call	__aulldvrm
	mov	DWORD PTR tv6228[ebp+4], ebx
	pop	ebx
	push	ebx
	push	0
	push	DWORD PTR _v$[ebp]
	mov	DWORD PTR [esi-64], eax

; 178  :         return (((_UINT64_T)value_high << 32) | value_low);

	xor	eax, eax
	or	eax, DWORD PTR [edi-68]

; 434  :             *q = (_UINT32_T)(t / v);

	push	ecx
	push	eax
	mov	DWORD PTR tv6229[ebp+4], edx
	call	__aulldvrm
	mov	DWORD PTR tv6217[ebp+4], ebx
	pop	ebx
	push	ebx
	push	0
	push	DWORD PTR _v$[ebp]
	mov	DWORD PTR [esi-68], eax

; 178  :         return (((_UINT64_T)value_high << 32) | value_low);

	xor	eax, eax
	or	eax, DWORD PTR [edi-72]

; 434  :             *q = (_UINT32_T)(t / v);

	push	ecx
	push	eax
	mov	DWORD PTR tv6218[ebp+4], edx
	call	__aulldvrm
	mov	DWORD PTR tv6206[ebp+4], ebx
	pop	ebx
	push	ebx
	push	0
	push	DWORD PTR _v$[ebp]
	mov	DWORD PTR [esi-72], eax

; 178  :         return (((_UINT64_T)value_high << 32) | value_low);

	xor	eax, eax
	or	eax, DWORD PTR [edi-76]

; 434  :             *q = (_UINT32_T)(t / v);

	push	ecx
	push	eax
	mov	DWORD PTR tv6207[ebp+4], edx
	call	__aulldvrm
	mov	DWORD PTR tv6195[ebp+4], ebx
	pop	ebx
	push	ebx
	push	0
	push	DWORD PTR _v$[ebp]
	mov	DWORD PTR [esi-76], eax

; 178  :         return (((_UINT64_T)value_high << 32) | value_low);

	xor	eax, eax
	or	eax, DWORD PTR [edi-80]

; 434  :             *q = (_UINT32_T)(t / v);

	push	ecx
	push	eax
	mov	DWORD PTR tv6196[ebp+4], edx
	call	__aulldvrm
	mov	DWORD PTR tv6184[ebp+4], ebx
	pop	ebx
	push	ebx
	push	0
	push	DWORD PTR _v$[ebp]
	mov	DWORD PTR [esi-80], eax

; 178  :         return (((_UINT64_T)value_high << 32) | value_low);

	xor	eax, eax
	or	eax, DWORD PTR [edi-84]

; 434  :             *q = (_UINT32_T)(t / v);

	push	ecx
	push	eax
	mov	DWORD PTR tv6185[ebp+4], edx
	call	__aulldvrm
	mov	DWORD PTR tv6173[ebp+4], ebx
	pop	ebx
	push	ebx
	push	0
	push	DWORD PTR _v$[ebp]
	mov	DWORD PTR [esi-84], eax

; 178  :         return (((_UINT64_T)value_high << 32) | value_low);

	xor	eax, eax
	or	eax, DWORD PTR [edi-88]

; 434  :             *q = (_UINT32_T)(t / v);

	push	ecx
	push	eax
	mov	DWORD PTR tv6174[ebp+4], edx
	call	__aulldvrm
	mov	DWORD PTR tv6162[ebp+4], ebx
	pop	ebx
	push	ebx
	push	0
	push	DWORD PTR _v$[ebp]
	mov	DWORD PTR [esi-88], eax

; 178  :         return (((_UINT64_T)value_high << 32) | value_low);

	xor	eax, eax
	or	eax, DWORD PTR [edi-92]

; 434  :             *q = (_UINT32_T)(t / v);

	push	ecx
	push	eax
	mov	DWORD PTR tv6163[ebp+4], edx
	call	__aulldvrm
	mov	DWORD PTR tv6151[ebp+4], ebx
	pop	ebx
	push	ebx
	mov	DWORD PTR [esi-92], eax

; 178  :         return (((_UINT64_T)value_high << 32) | value_low);

	xor	eax, eax

; 434  :             *q = (_UINT32_T)(t / v);

	push	0
	push	DWORD PTR _v$[ebp]

; 178  :         return (((_UINT64_T)value_high << 32) | value_low);

	or	eax, ecx

; 434  :             *q = (_UINT32_T)(t / v);

	mov	DWORD PTR tv6152[ebp+4], edx

; 178  :         return (((_UINT64_T)value_high << 32) | value_low);

	mov	edx, DWORD PTR [edi-96]

; 434  :             *q = (_UINT32_T)(t / v);

	push	eax
	push	edx
	call	__aulldvrm
	mov	DWORD PTR tv6140[ebp+4], ebx
	pop	ebx
	push	ebx
	push	0
	push	DWORD PTR _v$[ebp]
	mov	DWORD PTR [esi-96], eax

; 178  :         return (((_UINT64_T)value_high << 32) | value_low);

	xor	eax, eax
	or	eax, DWORD PTR [edi-100]

; 434  :             *q = (_UINT32_T)(t / v);

	push	ecx
	push	eax
	mov	DWORD PTR tv6141[ebp+4], edx
	call	__aulldvrm
	mov	DWORD PTR tv6129[ebp+4], ebx
	pop	ebx
	push	ebx
	push	0
	push	DWORD PTR _v$[ebp]
	mov	DWORD PTR [esi-100], eax

; 178  :         return (((_UINT64_T)value_high << 32) | value_low);

	xor	eax, eax
	or	eax, DWORD PTR [edi-104]

; 434  :             *q = (_UINT32_T)(t / v);

	push	ecx
	push	eax
	mov	DWORD PTR tv6130[ebp+4], edx
	call	__aulldvrm
	mov	DWORD PTR tv6118[ebp+4], ebx
	pop	ebx
	push	ebx
	push	0
	push	DWORD PTR _v$[ebp]
	mov	DWORD PTR [esi-104], eax

; 178  :         return (((_UINT64_T)value_high << 32) | value_low);

	xor	eax, eax
	or	eax, DWORD PTR [edi-108]

; 434  :             *q = (_UINT32_T)(t / v);

	push	ecx
	push	eax
	mov	DWORD PTR tv6119[ebp+4], edx
	call	__aulldvrm
	mov	DWORD PTR tv6107[ebp+4], ebx
	pop	ebx
	push	ebx
	push	0
	push	DWORD PTR _v$[ebp]
	mov	DWORD PTR [esi-108], eax

; 178  :         return (((_UINT64_T)value_high << 32) | value_low);

	xor	eax, eax
	or	eax, DWORD PTR [edi-112]

; 434  :             *q = (_UINT32_T)(t / v);

	push	ecx
	push	eax
	mov	DWORD PTR tv6108[ebp+4], edx
	call	__aulldvrm
	mov	DWORD PTR tv6096[ebp+4], ebx
	pop	ebx
	push	ebx
	push	0
	push	DWORD PTR _v$[ebp]
	mov	DWORD PTR [esi-112], eax

; 178  :         return (((_UINT64_T)value_high << 32) | value_low);

	xor	eax, eax
	or	eax, DWORD PTR [edi-116]

; 434  :             *q = (_UINT32_T)(t / v);

	push	ecx
	push	eax
	mov	DWORD PTR tv6097[ebp+4], edx
	call	__aulldvrm
	mov	DWORD PTR tv6085[ebp+4], ebx
	pop	ebx
	push	ebx
	push	0
	push	DWORD PTR _v$[ebp]
	mov	DWORD PTR [esi-116], eax

; 178  :         return (((_UINT64_T)value_high << 32) | value_low);

	xor	eax, eax
	or	eax, DWORD PTR [edi-120]

; 434  :             *q = (_UINT32_T)(t / v);

	push	ecx
	push	eax
	mov	DWORD PTR tv6086[ebp+4], edx
	call	__aulldvrm
	mov	DWORD PTR tv6074[ebp+4], ebx
	pop	ebx
	mov	DWORD PTR [esi-120], eax

; 178  :         return (((_UINT64_T)value_high << 32) | value_low);

	xor	eax, eax

; 434  :             *q = (_UINT32_T)(t / v);

	mov	DWORD PTR tv6075[ebp+4], edx

; 178  :         return (((_UINT64_T)value_high << 32) | value_low);

	or	eax, DWORD PTR [edi-124]

; 434  :             *q = (_UINT32_T)(t / v);

	push	ebx
	push	0
	push	DWORD PTR _v$[ebp]
	push	ecx
	push	eax
	call	__aulldvrm
	mov	DWORD PTR tv6063[ebp+4], ebx
	pop	ebx
	mov	ebx, ecx
	mov	DWORD PTR [esi-124], eax
; File z:\sources\lunor\repos\rougemeilland\palmtree.math.core.uint\palmtree.math.core.uint\pmc_divrem.c

; 145  :         --count;

	mov	ecx, DWORD PTR _count$1$[ebp]
	add	edi, -128				; ffffff80H
	dec	ecx
; File z:\sources\lunor\repos\rougemeilland\palmtree.math.core.uint\palmtree.math.core.uint\pmc_inline_func.h

; 434  :             *q = (_UINT32_T)(t / v);

	mov	DWORD PTR tv6064[ebp+4], edx
; File z:\sources\lunor\repos\rougemeilland\palmtree.math.core.uint\palmtree.math.core.uint\pmc_divrem.c

; 144  :         qp -= 32;

	add	esi, -128				; ffffff80H

; 145  :         --count;

	mov	DWORD PTR _count$1$[ebp], ecx
; File z:\sources\lunor\repos\rougemeilland\palmtree.math.core.uint\palmtree.math.core.uint\pmc_uint_internal.h

; 340  :         _InterlockedExchangeAdd(&statistics_info.COUNT_DIV32, value);

	mov	eax, 32					; 00000020H
	mov	edx, OFFSET _statistics_info+12
	lock	 xadd	 DWORD PTR [edx], eax
; File z:\sources\lunor\repos\rougemeilland\palmtree.math.core.uint\palmtree.math.core.uint\pmc_divrem.c

; 109  :     while (count != 0)

	test	ecx, ecx
	mov	ecx, DWORD PTR _v$[ebp]
	jne	$LL4@DivRem_X_1
$LN555@DivRem_X_1:

; 146  : #ifdef ENABLED_PERFORMANCE_COUNTER
; 147  :         if (sizeof(r) == sizeof(_UINT64_T))
; 148  :             AddToDIV64Counter(32);
; 149  :         else
; 150  :             AddToDIV32Counter(32);
; 151  : #endif
; 152  :     }
; 153  : 
; 154  :     if (u_count & 0x10)

	mov	eax, DWORD PTR _u_buf_len$[ebp]
	test	al, 16					; 00000010H
	je	$LN415@DivRem_X_1
; File z:\sources\lunor\repos\rougemeilland\palmtree.math.core.uint\palmtree.math.core.uint\pmc_inline_func.h

; 434  :             *q = (_UINT32_T)(t / v);

	push	ebx
	push	0
	push	ecx

; 178  :         return (((_UINT64_T)value_high << 32) | value_low);

	xor	eax, eax
	or	eax, DWORD PTR [edi]

; 434  :             *q = (_UINT32_T)(t / v);

	push	ebx
	push	eax
	call	__aulldvrm
	mov	DWORD PTR tv6049[ebp+4], ebx
	pop	ebx
	push	ebx
	push	0
	push	DWORD PTR _v$[ebp]
	mov	DWORD PTR [esi], eax

; 178  :         return (((_UINT64_T)value_high << 32) | value_low);

	xor	eax, eax
	or	eax, DWORD PTR [edi-4]

; 434  :             *q = (_UINT32_T)(t / v);

	push	ecx
	push	eax
	mov	DWORD PTR tv6050[ebp+4], edx
	call	__aulldvrm
	mov	DWORD PTR tv6039[ebp+4], ebx
	pop	ebx
	push	ebx
	push	0
	push	DWORD PTR _v$[ebp]
	mov	DWORD PTR [esi-4], eax

; 178  :         return (((_UINT64_T)value_high << 32) | value_low);

	xor	eax, eax
	or	eax, DWORD PTR [edi-8]

; 434  :             *q = (_UINT32_T)(t / v);

	push	ecx
	push	eax
	mov	DWORD PTR tv6040[ebp+4], edx
	call	__aulldvrm
	mov	DWORD PTR tv6028[ebp+4], ebx
	pop	ebx
	push	ebx
	push	0
	push	DWORD PTR _v$[ebp]
	mov	DWORD PTR [esi-8], eax

; 178  :         return (((_UINT64_T)value_high << 32) | value_low);

	xor	eax, eax
	or	eax, DWORD PTR [edi-12]

; 434  :             *q = (_UINT32_T)(t / v);

	push	ecx
	push	eax
	mov	DWORD PTR tv6029[ebp+4], edx
	call	__aulldvrm
	mov	DWORD PTR tv6017[ebp+4], ebx
	pop	ebx
	push	ebx
	push	0
	push	DWORD PTR _v$[ebp]
	mov	DWORD PTR [esi-12], eax

; 178  :         return (((_UINT64_T)value_high << 32) | value_low);

	xor	eax, eax
	or	eax, DWORD PTR [edi-16]

; 434  :             *q = (_UINT32_T)(t / v);

	push	ecx
	push	eax
	mov	DWORD PTR tv6018[ebp+4], edx
	call	__aulldvrm
	mov	DWORD PTR tv6006[ebp+4], ebx
	pop	ebx
	push	ebx
	push	0
	push	DWORD PTR _v$[ebp]
	mov	DWORD PTR [esi-16], eax

; 178  :         return (((_UINT64_T)value_high << 32) | value_low);

	xor	eax, eax
	or	eax, DWORD PTR [edi-20]

; 434  :             *q = (_UINT32_T)(t / v);

	push	ecx
	push	eax
	mov	DWORD PTR tv6007[ebp+4], edx
	call	__aulldvrm
	mov	DWORD PTR tv5995[ebp+4], ebx
	pop	ebx
	mov	DWORD PTR [esi-20], eax

; 178  :         return (((_UINT64_T)value_high << 32) | value_low);

	xor	eax, eax
	or	eax, DWORD PTR [edi-24]

; 434  :             *q = (_UINT32_T)(t / v);

	mov	DWORD PTR tv5996[ebp+4], edx
	push	ebx
	push	0
	push	DWORD PTR _v$[ebp]
	push	ecx
	push	eax
	call	__aulldvrm
	mov	DWORD PTR tv5984[ebp+4], ebx
	pop	ebx
	push	ebx
	push	0
	push	DWORD PTR _v$[ebp]
	mov	DWORD PTR [esi-24], eax

; 178  :         return (((_UINT64_T)value_high << 32) | value_low);

	xor	eax, eax
	or	eax, DWORD PTR [edi-28]

; 434  :             *q = (_UINT32_T)(t / v);

	push	ecx
	push	eax
	mov	DWORD PTR tv5985[ebp+4], edx
	call	__aulldvrm
	mov	DWORD PTR tv5973[ebp+4], ebx
	pop	ebx
	push	ebx
	push	0
	push	DWORD PTR _v$[ebp]
	mov	DWORD PTR [esi-28], eax

; 178  :         return (((_UINT64_T)value_high << 32) | value_low);

	xor	eax, eax
	or	eax, DWORD PTR [edi-32]

; 434  :             *q = (_UINT32_T)(t / v);

	push	ecx
	push	eax
	mov	DWORD PTR tv5974[ebp+4], edx
	call	__aulldvrm
	mov	DWORD PTR tv5962[ebp+4], ebx
	pop	ebx
	push	ebx
	push	0
	push	DWORD PTR _v$[ebp]
	mov	DWORD PTR [esi-32], eax

; 178  :         return (((_UINT64_T)value_high << 32) | value_low);

	xor	eax, eax
	or	eax, DWORD PTR [edi-36]

; 434  :             *q = (_UINT32_T)(t / v);

	push	ecx
	push	eax
	mov	DWORD PTR tv5963[ebp+4], edx
	call	__aulldvrm
	mov	DWORD PTR tv5951[ebp+4], ebx
	pop	ebx
	push	ebx
	push	0
	push	DWORD PTR _v$[ebp]
	mov	DWORD PTR [esi-36], eax

; 178  :         return (((_UINT64_T)value_high << 32) | value_low);

	xor	eax, eax
	or	eax, DWORD PTR [edi-40]

; 434  :             *q = (_UINT32_T)(t / v);

	push	ecx
	push	eax
	mov	DWORD PTR tv5952[ebp+4], edx
	call	__aulldvrm
	mov	DWORD PTR tv5940[ebp+4], ebx
	pop	ebx
	push	ebx
	push	0
	push	DWORD PTR _v$[ebp]
	mov	DWORD PTR [esi-40], eax

; 178  :         return (((_UINT64_T)value_high << 32) | value_low);

	xor	eax, eax
	or	eax, DWORD PTR [edi-44]

; 434  :             *q = (_UINT32_T)(t / v);

	push	ecx
	push	eax
	mov	DWORD PTR tv5941[ebp+4], edx
	call	__aulldvrm
	mov	DWORD PTR tv5929[ebp+4], ebx
	pop	ebx
	push	ebx
	push	0
	push	DWORD PTR _v$[ebp]
	mov	DWORD PTR [esi-44], eax

; 178  :         return (((_UINT64_T)value_high << 32) | value_low);

	xor	eax, eax
	or	eax, DWORD PTR [edi-48]

; 434  :             *q = (_UINT32_T)(t / v);

	mov	DWORD PTR tv5930[ebp+4], edx
	push	ecx
	push	eax
	call	__aulldvrm
	mov	DWORD PTR tv5918[ebp+4], ebx
	pop	ebx
	push	ebx
	push	0
	push	DWORD PTR _v$[ebp]
	mov	DWORD PTR [esi-48], eax

; 178  :         return (((_UINT64_T)value_high << 32) | value_low);

	xor	eax, eax
	or	eax, DWORD PTR [edi-52]

; 434  :             *q = (_UINT32_T)(t / v);

	push	ecx
	push	eax
	mov	DWORD PTR tv5919[ebp+4], edx
	call	__aulldvrm
	mov	DWORD PTR tv5907[ebp+4], ebx
	pop	ebx
	push	ebx
	push	0
	push	DWORD PTR _v$[ebp]
	mov	DWORD PTR [esi-52], eax

; 178  :         return (((_UINT64_T)value_high << 32) | value_low);

	xor	eax, eax
	or	eax, DWORD PTR [edi-56]

; 434  :             *q = (_UINT32_T)(t / v);

	push	ecx
	push	eax
	mov	DWORD PTR tv5908[ebp+4], edx
	call	__aulldvrm
	mov	DWORD PTR tv5896[ebp+4], ebx
	pop	ebx
	push	ebx
	push	0
	push	DWORD PTR _v$[ebp]
	mov	DWORD PTR [esi-56], eax

; 178  :         return (((_UINT64_T)value_high << 32) | value_low);

	xor	eax, eax
	or	eax, DWORD PTR [edi-60]

; 434  :             *q = (_UINT32_T)(t / v);

	push	ecx
	push	eax
	mov	DWORD PTR tv5897[ebp+4], edx
	call	__aulldvrm
	mov	DWORD PTR tv5885[ebp+4], ebx
	pop	ebx
	mov	DWORD PTR [esi-60], eax
	mov	ebx, ecx
	mov	DWORD PTR tv5886[ebp+4], edx
; File z:\sources\lunor\repos\rougemeilland\palmtree.math.core.uint\palmtree.math.core.uint\pmc_divrem.c

; 172  :         up -= 16;

	sub	edi, 64					; 00000040H

; 173  :         qp -= 16;

	sub	esi, 64					; 00000040H
; File z:\sources\lunor\repos\rougemeilland\palmtree.math.core.uint\palmtree.math.core.uint\pmc_uint_internal.h

; 340  :         _InterlockedExchangeAdd(&statistics_info.COUNT_DIV32, value);

	mov	eax, 16					; 00000010H
	mov	ecx, OFFSET _statistics_info+12
	lock	 xadd	 DWORD PTR [ecx], eax
	mov	eax, DWORD PTR _u_buf_len$[ebp]
$LN415@DivRem_X_1:
; File z:\sources\lunor\repos\rougemeilland\palmtree.math.core.uint\palmtree.math.core.uint\pmc_divrem.c

; 182  :     if (u_count & 0x8)

	test	al, 8
	je	$LN483@DivRem_X_1
; File z:\sources\lunor\repos\rougemeilland\palmtree.math.core.uint\palmtree.math.core.uint\pmc_inline_func.h

; 434  :             *q = (_UINT32_T)(t / v);

	push	ebx
	push	0
	push	DWORD PTR _v$[ebp]

; 178  :         return (((_UINT64_T)value_high << 32) | value_low);

	xor	eax, eax
	or	eax, DWORD PTR [edi]

; 434  :             *q = (_UINT32_T)(t / v);

	push	ebx
	push	eax
	call	__aulldvrm
	mov	DWORD PTR tv5872[ebp+4], ebx
	pop	ebx
	push	ebx
	push	0
	push	DWORD PTR _v$[ebp]
	mov	DWORD PTR [esi], eax

; 178  :         return (((_UINT64_T)value_high << 32) | value_low);

	xor	eax, eax
	or	eax, DWORD PTR [edi-4]

; 434  :             *q = (_UINT32_T)(t / v);

	push	ecx
	push	eax
	mov	DWORD PTR tv5873[ebp+4], edx
	call	__aulldvrm
	mov	DWORD PTR tv5862[ebp+4], ebx
	pop	ebx
	push	ebx
	push	0
	push	DWORD PTR _v$[ebp]
	mov	DWORD PTR [esi-4], eax

; 178  :         return (((_UINT64_T)value_high << 32) | value_low);

	xor	eax, eax
	or	eax, DWORD PTR [edi-8]

; 434  :             *q = (_UINT32_T)(t / v);

	push	ecx
	push	eax
	mov	DWORD PTR tv5863[ebp+4], edx
	call	__aulldvrm
	mov	DWORD PTR tv5851[ebp+4], ebx
	pop	ebx
	push	ebx
	push	0
	push	DWORD PTR _v$[ebp]
	mov	DWORD PTR [esi-8], eax

; 178  :         return (((_UINT64_T)value_high << 32) | value_low);

	xor	eax, eax
	or	eax, DWORD PTR [edi-12]

; 434  :             *q = (_UINT32_T)(t / v);

	push	ecx
	push	eax
	mov	DWORD PTR tv5852[ebp+4], edx
	call	__aulldvrm
	mov	DWORD PTR tv5840[ebp+4], ebx
	pop	ebx
	push	ebx
	push	0
	push	DWORD PTR _v$[ebp]
	mov	DWORD PTR [esi-12], eax

; 178  :         return (((_UINT64_T)value_high << 32) | value_low);

	xor	eax, eax
	or	eax, DWORD PTR [edi-16]

; 434  :             *q = (_UINT32_T)(t / v);

	push	ecx
	push	eax
	mov	DWORD PTR tv5841[ebp+4], edx
	call	__aulldvrm
	mov	DWORD PTR tv5829[ebp+4], ebx
	pop	ebx
	push	ebx
	push	0
	push	DWORD PTR _v$[ebp]
	mov	DWORD PTR [esi-16], eax

; 178  :         return (((_UINT64_T)value_high << 32) | value_low);

	xor	eax, eax
	or	eax, DWORD PTR [edi-20]

; 434  :             *q = (_UINT32_T)(t / v);

	push	ecx
	push	eax
	mov	DWORD PTR tv5830[ebp+4], edx
	call	__aulldvrm
	mov	DWORD PTR tv5818[ebp+4], ebx
	pop	ebx
	mov	DWORD PTR [esi-20], eax

; 178  :         return (((_UINT64_T)value_high << 32) | value_low);

	xor	eax, eax
	or	eax, DWORD PTR [edi-24]

; 434  :             *q = (_UINT32_T)(t / v);

	mov	DWORD PTR tv5819[ebp+4], edx
	push	ebx
	push	0
	push	DWORD PTR _v$[ebp]
	push	ecx
	push	eax
	call	__aulldvrm
	mov	DWORD PTR tv5807[ebp+4], ebx
	pop	ebx
	push	ebx
	push	0
	push	DWORD PTR _v$[ebp]
	mov	DWORD PTR [esi-24], eax

; 178  :         return (((_UINT64_T)value_high << 32) | value_low);

	xor	eax, eax
	or	eax, DWORD PTR [edi-28]

; 434  :             *q = (_UINT32_T)(t / v);

	push	ecx
	push	eax
	mov	DWORD PTR tv5808[ebp+4], edx
	call	__aulldvrm
	mov	DWORD PTR tv5796[ebp+4], ebx
	pop	ebx
	mov	DWORD PTR [esi-28], eax
	mov	ebx, ecx
	mov	DWORD PTR tv5797[ebp+4], edx
; File z:\sources\lunor\repos\rougemeilland\palmtree.math.core.uint\palmtree.math.core.uint\pmc_divrem.c

; 192  :         up -= 8;

	sub	edi, 32					; 00000020H

; 193  :         qp -= 8;

	sub	esi, 32					; 00000020H
; File z:\sources\lunor\repos\rougemeilland\palmtree.math.core.uint\palmtree.math.core.uint\pmc_uint_internal.h

; 340  :         _InterlockedExchangeAdd(&statistics_info.COUNT_DIV32, value);

	mov	eax, 8
	mov	ecx, OFFSET _statistics_info+12
	lock	 xadd	 DWORD PTR [ecx], eax
	mov	eax, DWORD PTR _u_buf_len$[ebp]
$LN483@DivRem_X_1:
; File z:\sources\lunor\repos\rougemeilland\palmtree.math.core.uint\palmtree.math.core.uint\pmc_divrem.c

; 202  :     if (u_count & 0x4)

	test	al, 4
	je	$LN519@DivRem_X_1
; File z:\sources\lunor\repos\rougemeilland\palmtree.math.core.uint\palmtree.math.core.uint\pmc_inline_func.h

; 434  :             *q = (_UINT32_T)(t / v);

	push	ebx
	push	0
	push	DWORD PTR _v$[ebp]

; 178  :         return (((_UINT64_T)value_high << 32) | value_low);

	xor	eax, eax
	or	eax, DWORD PTR [edi]

; 434  :             *q = (_UINT32_T)(t / v);

	push	ebx
	push	eax
	call	__aulldvrm
	mov	DWORD PTR tv5783[ebp+4], ebx
	pop	ebx
	push	ebx
	push	0
	push	DWORD PTR _v$[ebp]
	mov	DWORD PTR [esi], eax

; 178  :         return (((_UINT64_T)value_high << 32) | value_low);

	xor	eax, eax
	or	eax, DWORD PTR [edi-4]

; 434  :             *q = (_UINT32_T)(t / v);

	push	ecx
	push	eax
	mov	DWORD PTR tv5784[ebp+4], edx
	call	__aulldvrm
	mov	DWORD PTR tv5773[ebp+4], ebx
	pop	ebx
	push	ebx
	push	0
	push	DWORD PTR _v$[ebp]
	mov	DWORD PTR [esi-4], eax

; 178  :         return (((_UINT64_T)value_high << 32) | value_low);

	xor	eax, eax
	or	eax, DWORD PTR [edi-8]

; 434  :             *q = (_UINT32_T)(t / v);

	push	ecx
	push	eax
	mov	DWORD PTR tv5774[ebp+4], edx
	call	__aulldvrm
	mov	DWORD PTR tv5762[ebp+4], ebx
	pop	ebx
	push	ebx
	push	0
	push	DWORD PTR _v$[ebp]
	mov	DWORD PTR [esi-8], eax

; 178  :         return (((_UINT64_T)value_high << 32) | value_low);

	xor	eax, eax
	or	eax, DWORD PTR [edi-12]

; 434  :             *q = (_UINT32_T)(t / v);

	push	ecx
	push	eax
	mov	DWORD PTR tv5763[ebp+4], edx
	call	__aulldvrm
	mov	DWORD PTR tv5751[ebp+4], ebx
	pop	ebx
	mov	DWORD PTR [esi-12], eax
	mov	ebx, ecx
	mov	DWORD PTR tv5752[ebp+4], edx
; File z:\sources\lunor\repos\rougemeilland\palmtree.math.core.uint\palmtree.math.core.uint\pmc_divrem.c

; 208  :         up -= 4;

	sub	edi, 16					; 00000010H

; 209  :         qp -= 4;

	sub	esi, 16					; 00000010H
; File z:\sources\lunor\repos\rougemeilland\palmtree.math.core.uint\palmtree.math.core.uint\pmc_uint_internal.h

; 340  :         _InterlockedExchangeAdd(&statistics_info.COUNT_DIV32, value);

	mov	eax, 4
	mov	ecx, OFFSET _statistics_info+12
	lock	 xadd	 DWORD PTR [ecx], eax
	mov	eax, DWORD PTR _u_buf_len$[ebp]
$LN519@DivRem_X_1:
; File z:\sources\lunor\repos\rougemeilland\palmtree.math.core.uint\palmtree.math.core.uint\pmc_divrem.c

; 218  :     if (u_count & 0x2)

	test	al, 2
	je	SHORT $LN539@DivRem_X_1
; File z:\sources\lunor\repos\rougemeilland\palmtree.math.core.uint\palmtree.math.core.uint\pmc_inline_func.h

; 434  :             *q = (_UINT32_T)(t / v);

	push	ebx
	push	0
	push	DWORD PTR _v$[ebp]

; 178  :         return (((_UINT64_T)value_high << 32) | value_low);

	xor	eax, eax
	or	eax, DWORD PTR [edi]

; 434  :             *q = (_UINT32_T)(t / v);

	push	ebx
	push	eax
	call	__aulldvrm
	mov	DWORD PTR tv5738[ebp+4], ebx
	pop	ebx
	push	ebx
	push	0
	push	DWORD PTR _v$[ebp]
	mov	DWORD PTR [esi], eax

; 178  :         return (((_UINT64_T)value_high << 32) | value_low);

	xor	eax, eax
	or	eax, DWORD PTR [edi-4]

; 434  :             *q = (_UINT32_T)(t / v);

	push	ecx
	push	eax
	mov	DWORD PTR tv5739[ebp+4], edx
	call	__aulldvrm
	mov	DWORD PTR tv5728[ebp+4], ebx
	pop	ebx
	mov	DWORD PTR [esi-4], eax
	mov	ebx, ecx
	mov	DWORD PTR tv5729[ebp+4], edx
; File z:\sources\lunor\repos\rougemeilland\palmtree.math.core.uint\palmtree.math.core.uint\pmc_divrem.c

; 222  :         up -= 2;

	sub	edi, 8

; 223  :         qp -= 2;

	sub	esi, 8
; File z:\sources\lunor\repos\rougemeilland\palmtree.math.core.uint\palmtree.math.core.uint\pmc_uint_internal.h

; 340  :         _InterlockedExchangeAdd(&statistics_info.COUNT_DIV32, value);

	mov	eax, 2
	mov	ecx, OFFSET _statistics_info+12
	lock	 xadd	 DWORD PTR [ecx], eax
	mov	eax, DWORD PTR _u_buf_len$[ebp]
$LN539@DivRem_X_1:
; File z:\sources\lunor\repos\rougemeilland\palmtree.math.core.uint\palmtree.math.core.uint\pmc_divrem.c

; 232  :     if (u_count & 0x1)

	test	al, 1
	je	SHORT $LN557@DivRem_X_1
; File z:\sources\lunor\repos\rougemeilland\palmtree.math.core.uint\palmtree.math.core.uint\pmc_inline_func.h

; 434  :             *q = (_UINT32_T)(t / v);

	push	ebx
	push	0
	push	DWORD PTR _v$[ebp]

; 178  :         return (((_UINT64_T)value_high << 32) | value_low);

	xor	eax, eax
	or	eax, DWORD PTR [edi]

; 434  :             *q = (_UINT32_T)(t / v);

	push	ebx
	push	eax
	call	__aulldvrm
	mov	DWORD PTR tv5523[ebp+4], ebx
	pop	ebx
	mov	DWORD PTR tv5524[ebp+4], edx
	mov	DWORD PTR [esi], eax
; File z:\sources\lunor\repos\rougemeilland\palmtree.math.core.uint\palmtree.math.core.uint\pmc_uint_internal.h

; 317  :         _InterlockedIncrement(&statistics_info.COUNT_DIV32);

	lock	 inc	 (null) PTR _statistics_info+12
; File z:\sources\lunor\repos\rougemeilland\palmtree.math.core.uint\palmtree.math.core.uint\pmc_divrem.c

; 245  :     *r_buf = r;

	mov	eax, DWORD PTR _r_buf$[ebp]
	pop	edi

; 246  : }

	pop	esi
	pop	ebx
	mov	DWORD PTR [eax], ecx
	mov	esp, ebp
	pop	ebp
	ret	0
$LN557@DivRem_X_1:

; 245  :     *r_buf = r;

	mov	eax, DWORD PTR _r_buf$[ebp]
	pop	edi

; 246  : }

	pop	esi
	mov	DWORD PTR [eax], ebx
	pop	ebx
	mov	esp, ebp
	pop	ebp
	ret	0
_DivRem_X_1W ENDP
_TEXT	ENDS
END
