; Listing generated by Microsoft (R) Optimizing Compiler Version 19.16.27027.1 

	TITLE	Z:\Sources\Lunor\Repos\rougemeilland\Palmtree.Math.Core.Uint\Palmtree.Math.Core.Uint\pmc_equals.cpp
	.686P
	.XMM
	include listing.inc
	.model	flat

INCLUDELIB MSVCRT
INCLUDELIB OLDNAMES

PUBLIC	??1exception@std@@UAE@XZ			; std::exception::~exception
PUBLIC	?what@exception@std@@UBEPBDXZ			; std::exception::what
PUBLIC	??_Gexception@std@@UAEPAXI@Z			; std::exception::`scalar deleting destructor'
PUBLIC	??0Exception@Internal@Core@Math@Palmtree@@QAE@ABV01234@@Z ; Palmtree::Math::Core::Internal::Exception::Exception
PUBLIC	??1Exception@Internal@Core@Math@Palmtree@@UAE@XZ ; Palmtree::Math::Core::Internal::Exception::~Exception
PUBLIC	??_GException@Internal@Core@Math@Palmtree@@UAEPAXI@Z ; Palmtree::Math::Core::Internal::Exception::`scalar deleting destructor'
PUBLIC	??0ArgumentNullException@Internal@Core@Math@Palmtree@@QAE@PB_W0@Z ; Palmtree::Math::Core::Internal::ArgumentNullException::ArgumentNullException
PUBLIC	??0ArgumentNullException@Internal@Core@Math@Palmtree@@QAE@ABV01234@@Z ; Palmtree::Math::Core::Internal::ArgumentNullException::ArgumentNullException
PUBLIC	??1ArgumentNullException@Internal@Core@Math@Palmtree@@UAE@XZ ; Palmtree::Math::Core::Internal::ArgumentNullException::~ArgumentNullException
PUBLIC	??_GArgumentNullException@Internal@Core@Math@Palmtree@@UAEPAXI@Z ; Palmtree::Math::Core::Internal::ArgumentNullException::`scalar deleting destructor'
PUBLIC	??1InternalErrorException@Internal@Core@Math@Palmtree@@UAE@XZ ; Palmtree::Math::Core::Internal::InternalErrorException::~InternalErrorException
PUBLIC	??_GInternalErrorException@Internal@Core@Math@Palmtree@@UAEPAXI@Z ; Palmtree::Math::Core::Internal::InternalErrorException::`scalar deleting destructor'
PUBLIC	?Initialize_Equals@Internal@Core@Math@Palmtree@@YAHPAU_tag_PROCESSOR_FEATURES@1234@@Z ; Palmtree::Math::Core::Internal::Initialize_Equals
PUBLIC	?PMC_Equals_I_X@Internal@Core@Math@Palmtree@@YGIIPAU__tag_PMC_HANDLE_UINT@1234@@Z ; Palmtree::Math::Core::Internal::PMC_Equals_I_X
PUBLIC	?PMC_Equals_L_X@Internal@Core@Math@Palmtree@@YGI_KPAU__tag_PMC_HANDLE_UINT@1234@@Z ; Palmtree::Math::Core::Internal::PMC_Equals_L_X
PUBLIC	?PMC_Equals_X_I@Internal@Core@Math@Palmtree@@YGIPAU__tag_PMC_HANDLE_UINT@1234@I@Z ; Palmtree::Math::Core::Internal::PMC_Equals_X_I
PUBLIC	?PMC_Equals_X_L@Internal@Core@Math@Palmtree@@YGIPAU__tag_PMC_HANDLE_UINT@1234@_K@Z ; Palmtree::Math::Core::Internal::PMC_Equals_X_L
PUBLIC	?PMC_Equals_X_X@Internal@Core@Math@Palmtree@@YGIPAU__tag_PMC_HANDLE_UINT@1234@0@Z ; Palmtree::Math::Core::Internal::PMC_Equals_X_X
PUBLIC	??_7exception@std@@6B@				; std::exception::`vftable'
PUBLIC	??_C@_0BC@EOODALEL@Unknown?5exception@		; `string'
PUBLIC	??_7Exception@Internal@Core@Math@Palmtree@@6B@	; Palmtree::Math::Core::Internal::Exception::`vftable'
PUBLIC	??_7ArgumentNullException@Internal@Core@Math@Palmtree@@6B@ ; Palmtree::Math::Core::Internal::ArgumentNullException::`vftable'
PUBLIC	??_7InternalErrorException@Internal@Core@Math@Palmtree@@6B@ ; Palmtree::Math::Core::Internal::InternalErrorException::`vftable'
PUBLIC	??_R0?AVInternalErrorException@Internal@Core@Math@Palmtree@@@8 ; Palmtree::Math::Core::Internal::InternalErrorException `RTTI Type Descriptor'
PUBLIC	??_R0?AVException@Internal@Core@Math@Palmtree@@@8 ; Palmtree::Math::Core::Internal::Exception `RTTI Type Descriptor'
PUBLIC	__CT??_R0?AVException@Internal@Core@Math@Palmtree@@@8??0Exception@Internal@Core@Math@Palmtree@@QAE@ABV01234@@Z24
PUBLIC	__TI2?AVArgumentNullException@Internal@Core@Math@Palmtree@@
PUBLIC	__CTA2?AVArgumentNullException@Internal@Core@Math@Palmtree@@
PUBLIC	??_R0?AVArgumentNullException@Internal@Core@Math@Palmtree@@@8 ; Palmtree::Math::Core::Internal::ArgumentNullException `RTTI Type Descriptor'
PUBLIC	__CT??_R0?AVArgumentNullException@Internal@Core@Math@Palmtree@@@8??0ArgumentNullException@Internal@Core@Math@Palmtree@@QAE@ABV01234@@Z24
PUBLIC	??_C@_13JAOPNPKD@?$AAv@				; `string'
PUBLIC	??_C@_1CK@ECFIEPAC@?$AA?$BF?$AAp?$AAk?$AAn?$AAu?$AAl?$AAl?$AAp?$AAt?$AAr?$AAL?$AA?$AO?$AAH?$PP?$IJ?$PP?$IM@ ; `string'
PUBLIC	??_C@_13ICFKHAEN@?$AAu@				; `string'
PUBLIC	??_R4exception@std@@6B@				; std::exception::`RTTI Complete Object Locator'
PUBLIC	??_R0?AVexception@std@@@8			; std::exception `RTTI Type Descriptor'
PUBLIC	??_R3exception@std@@8				; std::exception::`RTTI Class Hierarchy Descriptor'
PUBLIC	??_R2exception@std@@8				; std::exception::`RTTI Base Class Array'
PUBLIC	??_R1A@?0A@EA@exception@std@@8			; std::exception::`RTTI Base Class Descriptor at (0,-1,0,64)'
PUBLIC	??_R4Exception@Internal@Core@Math@Palmtree@@6B@	; Palmtree::Math::Core::Internal::Exception::`RTTI Complete Object Locator'
PUBLIC	??_R3Exception@Internal@Core@Math@Palmtree@@8	; Palmtree::Math::Core::Internal::Exception::`RTTI Class Hierarchy Descriptor'
PUBLIC	??_R2Exception@Internal@Core@Math@Palmtree@@8	; Palmtree::Math::Core::Internal::Exception::`RTTI Base Class Array'
PUBLIC	??_R1A@?0A@EA@Exception@Internal@Core@Math@Palmtree@@8 ; Palmtree::Math::Core::Internal::Exception::`RTTI Base Class Descriptor at (0,-1,0,64)'
PUBLIC	??_R1A@?0A@EN@exception@std@@8			; std::exception::`RTTI Base Class Descriptor at (0,-1,0,77)'
PUBLIC	??_R4ArgumentNullException@Internal@Core@Math@Palmtree@@6B@ ; Palmtree::Math::Core::Internal::ArgumentNullException::`RTTI Complete Object Locator'
PUBLIC	??_R3ArgumentNullException@Internal@Core@Math@Palmtree@@8 ; Palmtree::Math::Core::Internal::ArgumentNullException::`RTTI Class Hierarchy Descriptor'
PUBLIC	??_R2ArgumentNullException@Internal@Core@Math@Palmtree@@8 ; Palmtree::Math::Core::Internal::ArgumentNullException::`RTTI Base Class Array'
PUBLIC	??_R1A@?0A@EA@ArgumentNullException@Internal@Core@Math@Palmtree@@8 ; Palmtree::Math::Core::Internal::ArgumentNullException::`RTTI Base Class Descriptor at (0,-1,0,64)'
PUBLIC	??_R4InternalErrorException@Internal@Core@Math@Palmtree@@6B@ ; Palmtree::Math::Core::Internal::InternalErrorException::`RTTI Complete Object Locator'
PUBLIC	??_R3InternalErrorException@Internal@Core@Math@Palmtree@@8 ; Palmtree::Math::Core::Internal::InternalErrorException::`RTTI Class Hierarchy Descriptor'
PUBLIC	??_R2InternalErrorException@Internal@Core@Math@Palmtree@@8 ; Palmtree::Math::Core::Internal::InternalErrorException::`RTTI Base Class Array'
PUBLIC	??_R1A@?0A@EA@InternalErrorException@Internal@Core@Math@Palmtree@@8 ; Palmtree::Math::Core::Internal::InternalErrorException::`RTTI Base Class Descriptor at (0,-1,0,64)'
EXTRN	??3@YAXPAXI@Z:PROC				; operator delete
EXTRN	___std_exception_destroy:PROC
EXTRN	??_Eexception@std@@UAEPAXI@Z:PROC		; std::exception::`vector deleting destructor'
EXTRN	??_EException@Internal@Core@Math@Palmtree@@UAEPAXI@Z:PROC ; Palmtree::Math::Core::Internal::Exception::`vector deleting destructor'
EXTRN	??_EArgumentNullException@Internal@Core@Math@Palmtree@@UAEPAXI@Z:PROC ; Palmtree::Math::Core::Internal::ArgumentNullException::`vector deleting destructor'
EXTRN	??_EInternalErrorException@Internal@Core@Math@Palmtree@@UAEPAXI@Z:PROC ; Palmtree::Math::Core::Internal::InternalErrorException::`vector deleting destructor'
EXTRN	?CheckNumber@Internal@Core@Math@Palmtree@@YAXPAU__tag_NUMBER_HEADER@1234@@Z:PROC ; Palmtree::Math::Core::Internal::CheckNumber
EXTRN	@__security_check_cookie@4:PROC
EXTRN	__CxxThrowException@8:PROC
EXTRN	___CxxFrameHandler3:PROC
EXTRN	??_7type_info@@6B@:QWORD			; type_info::`vftable'
EXTRN	___security_cookie:DWORD
;	COMDAT ??_R1A@?0A@EA@InternalErrorException@Internal@Core@Math@Palmtree@@8
rdata$r	SEGMENT
??_R1A@?0A@EA@InternalErrorException@Internal@Core@Math@Palmtree@@8 DD FLAT:??_R0?AVInternalErrorException@Internal@Core@Math@Palmtree@@@8 ; Palmtree::Math::Core::Internal::InternalErrorException::`RTTI Base Class Descriptor at (0,-1,0,64)'
	DD	02H
	DD	00H
	DD	0ffffffffH
	DD	00H
	DD	040H
	DD	FLAT:??_R3InternalErrorException@Internal@Core@Math@Palmtree@@8
rdata$r	ENDS
;	COMDAT ??_R2InternalErrorException@Internal@Core@Math@Palmtree@@8
rdata$r	SEGMENT
??_R2InternalErrorException@Internal@Core@Math@Palmtree@@8 DD FLAT:??_R1A@?0A@EA@InternalErrorException@Internal@Core@Math@Palmtree@@8 ; Palmtree::Math::Core::Internal::InternalErrorException::`RTTI Base Class Array'
	DD	FLAT:??_R1A@?0A@EA@Exception@Internal@Core@Math@Palmtree@@8
	DD	FLAT:??_R1A@?0A@EN@exception@std@@8
rdata$r	ENDS
;	COMDAT ??_R3InternalErrorException@Internal@Core@Math@Palmtree@@8
rdata$r	SEGMENT
??_R3InternalErrorException@Internal@Core@Math@Palmtree@@8 DD 00H ; Palmtree::Math::Core::Internal::InternalErrorException::`RTTI Class Hierarchy Descriptor'
	DD	00H
	DD	03H
	DD	FLAT:??_R2InternalErrorException@Internal@Core@Math@Palmtree@@8
rdata$r	ENDS
;	COMDAT ??_R4InternalErrorException@Internal@Core@Math@Palmtree@@6B@
rdata$r	SEGMENT
??_R4InternalErrorException@Internal@Core@Math@Palmtree@@6B@ DD 00H ; Palmtree::Math::Core::Internal::InternalErrorException::`RTTI Complete Object Locator'
	DD	00H
	DD	00H
	DD	FLAT:??_R0?AVInternalErrorException@Internal@Core@Math@Palmtree@@@8
	DD	FLAT:??_R3InternalErrorException@Internal@Core@Math@Palmtree@@8
rdata$r	ENDS
;	COMDAT ??_R1A@?0A@EA@ArgumentNullException@Internal@Core@Math@Palmtree@@8
rdata$r	SEGMENT
??_R1A@?0A@EA@ArgumentNullException@Internal@Core@Math@Palmtree@@8 DD FLAT:??_R0?AVArgumentNullException@Internal@Core@Math@Palmtree@@@8 ; Palmtree::Math::Core::Internal::ArgumentNullException::`RTTI Base Class Descriptor at (0,-1,0,64)'
	DD	02H
	DD	00H
	DD	0ffffffffH
	DD	00H
	DD	040H
	DD	FLAT:??_R3ArgumentNullException@Internal@Core@Math@Palmtree@@8
rdata$r	ENDS
;	COMDAT ??_R2ArgumentNullException@Internal@Core@Math@Palmtree@@8
rdata$r	SEGMENT
??_R2ArgumentNullException@Internal@Core@Math@Palmtree@@8 DD FLAT:??_R1A@?0A@EA@ArgumentNullException@Internal@Core@Math@Palmtree@@8 ; Palmtree::Math::Core::Internal::ArgumentNullException::`RTTI Base Class Array'
	DD	FLAT:??_R1A@?0A@EA@Exception@Internal@Core@Math@Palmtree@@8
	DD	FLAT:??_R1A@?0A@EN@exception@std@@8
rdata$r	ENDS
;	COMDAT ??_R3ArgumentNullException@Internal@Core@Math@Palmtree@@8
rdata$r	SEGMENT
??_R3ArgumentNullException@Internal@Core@Math@Palmtree@@8 DD 00H ; Palmtree::Math::Core::Internal::ArgumentNullException::`RTTI Class Hierarchy Descriptor'
	DD	00H
	DD	03H
	DD	FLAT:??_R2ArgumentNullException@Internal@Core@Math@Palmtree@@8
rdata$r	ENDS
;	COMDAT ??_R4ArgumentNullException@Internal@Core@Math@Palmtree@@6B@
rdata$r	SEGMENT
??_R4ArgumentNullException@Internal@Core@Math@Palmtree@@6B@ DD 00H ; Palmtree::Math::Core::Internal::ArgumentNullException::`RTTI Complete Object Locator'
	DD	00H
	DD	00H
	DD	FLAT:??_R0?AVArgumentNullException@Internal@Core@Math@Palmtree@@@8
	DD	FLAT:??_R3ArgumentNullException@Internal@Core@Math@Palmtree@@8
rdata$r	ENDS
;	COMDAT ??_R1A@?0A@EN@exception@std@@8
rdata$r	SEGMENT
??_R1A@?0A@EN@exception@std@@8 DD FLAT:??_R0?AVexception@std@@@8 ; std::exception::`RTTI Base Class Descriptor at (0,-1,0,77)'
	DD	00H
	DD	00H
	DD	0ffffffffH
	DD	00H
	DD	04dH
	DD	FLAT:??_R3exception@std@@8
rdata$r	ENDS
;	COMDAT ??_R1A@?0A@EA@Exception@Internal@Core@Math@Palmtree@@8
rdata$r	SEGMENT
??_R1A@?0A@EA@Exception@Internal@Core@Math@Palmtree@@8 DD FLAT:??_R0?AVException@Internal@Core@Math@Palmtree@@@8 ; Palmtree::Math::Core::Internal::Exception::`RTTI Base Class Descriptor at (0,-1,0,64)'
	DD	01H
	DD	00H
	DD	0ffffffffH
	DD	00H
	DD	040H
	DD	FLAT:??_R3Exception@Internal@Core@Math@Palmtree@@8
rdata$r	ENDS
;	COMDAT ??_R2Exception@Internal@Core@Math@Palmtree@@8
rdata$r	SEGMENT
??_R2Exception@Internal@Core@Math@Palmtree@@8 DD FLAT:??_R1A@?0A@EA@Exception@Internal@Core@Math@Palmtree@@8 ; Palmtree::Math::Core::Internal::Exception::`RTTI Base Class Array'
	DD	FLAT:??_R1A@?0A@EN@exception@std@@8
rdata$r	ENDS
;	COMDAT ??_R3Exception@Internal@Core@Math@Palmtree@@8
rdata$r	SEGMENT
??_R3Exception@Internal@Core@Math@Palmtree@@8 DD 00H	; Palmtree::Math::Core::Internal::Exception::`RTTI Class Hierarchy Descriptor'
	DD	00H
	DD	02H
	DD	FLAT:??_R2Exception@Internal@Core@Math@Palmtree@@8
rdata$r	ENDS
;	COMDAT ??_R4Exception@Internal@Core@Math@Palmtree@@6B@
rdata$r	SEGMENT
??_R4Exception@Internal@Core@Math@Palmtree@@6B@ DD 00H	; Palmtree::Math::Core::Internal::Exception::`RTTI Complete Object Locator'
	DD	00H
	DD	00H
	DD	FLAT:??_R0?AVException@Internal@Core@Math@Palmtree@@@8
	DD	FLAT:??_R3Exception@Internal@Core@Math@Palmtree@@8
rdata$r	ENDS
;	COMDAT ??_R1A@?0A@EA@exception@std@@8
rdata$r	SEGMENT
??_R1A@?0A@EA@exception@std@@8 DD FLAT:??_R0?AVexception@std@@@8 ; std::exception::`RTTI Base Class Descriptor at (0,-1,0,64)'
	DD	00H
	DD	00H
	DD	0ffffffffH
	DD	00H
	DD	040H
	DD	FLAT:??_R3exception@std@@8
rdata$r	ENDS
;	COMDAT ??_R2exception@std@@8
rdata$r	SEGMENT
??_R2exception@std@@8 DD FLAT:??_R1A@?0A@EA@exception@std@@8 ; std::exception::`RTTI Base Class Array'
rdata$r	ENDS
;	COMDAT ??_R3exception@std@@8
rdata$r	SEGMENT
??_R3exception@std@@8 DD 00H				; std::exception::`RTTI Class Hierarchy Descriptor'
	DD	00H
	DD	01H
	DD	FLAT:??_R2exception@std@@8
rdata$r	ENDS
;	COMDAT ??_R0?AVexception@std@@@8
data$r	SEGMENT
??_R0?AVexception@std@@@8 DD FLAT:??_7type_info@@6B@	; std::exception `RTTI Type Descriptor'
	DD	00H
	DB	'.?AVexception@std@@', 00H
data$r	ENDS
;	COMDAT ??_R4exception@std@@6B@
rdata$r	SEGMENT
??_R4exception@std@@6B@ DD 00H				; std::exception::`RTTI Complete Object Locator'
	DD	00H
	DD	00H
	DD	FLAT:??_R0?AVexception@std@@@8
	DD	FLAT:??_R3exception@std@@8
rdata$r	ENDS
;	COMDAT ??_C@_13ICFKHAEN@?$AAu@
CONST	SEGMENT
??_C@_13ICFKHAEN@?$AAu@ DB 'u', 00H, 00H, 00H		; `string'
CONST	ENDS
;	COMDAT ??_C@_1CK@ECFIEPAC@?$AA?$BF?$AAp?$AAk?$AAn?$AAu?$AAl?$AAl?$AAp?$AAt?$AAr?$AAL?$AA?$AO?$AAH?$PP?$IJ?$PP?$IM@
CONST	SEGMENT
??_C@_1CK@ECFIEPAC@?$AA?$BF?$AAp?$AAk?$AAn?$AAu?$AAl?$AAl?$AAp?$AAt?$AAr?$AAL?$AA?$AO?$AAH?$PP?$IJ?$PP?$IM@ DB 015H
	DB	'_pek0n', 00H, 'u', 00H, 'l', 00H, 'l', 00H, 'p', 00H, 't', 00H
	DB	'r', 00H, 'L0', 0eH, 'NH0', 089H, '0', 08cH, '0f0D0~0Y0', 02H, '0'
	DB	00H, 00H					; `string'
CONST	ENDS
;	COMDAT ??_C@_13JAOPNPKD@?$AAv@
CONST	SEGMENT
??_C@_13JAOPNPKD@?$AAv@ DB 'v', 00H, 00H, 00H		; `string'
CONST	ENDS
;	COMDAT __CT??_R0?AVArgumentNullException@Internal@Core@Math@Palmtree@@@8??0ArgumentNullException@Internal@Core@Math@Palmtree@@QAE@ABV01234@@Z24
xdata$x	SEGMENT
__CT??_R0?AVArgumentNullException@Internal@Core@Math@Palmtree@@@8??0ArgumentNullException@Internal@Core@Math@Palmtree@@QAE@ABV01234@@Z24 DD 00H
	DD	FLAT:??_R0?AVArgumentNullException@Internal@Core@Math@Palmtree@@@8
	DD	00H
	DD	0ffffffffH
	ORG $+4
	DD	018H
	DD	FLAT:??0ArgumentNullException@Internal@Core@Math@Palmtree@@QAE@ABV01234@@Z
xdata$x	ENDS
;	COMDAT ??_R0?AVArgumentNullException@Internal@Core@Math@Palmtree@@@8
data$r	SEGMENT
??_R0?AVArgumentNullException@Internal@Core@Math@Palmtree@@@8 DD FLAT:??_7type_info@@6B@ ; Palmtree::Math::Core::Internal::ArgumentNullException `RTTI Type Descriptor'
	DD	00H
	DB	'.?AVArgumentNullException@Internal@Core@Math@Palmtree@@', 00H
data$r	ENDS
;	COMDAT __CTA2?AVArgumentNullException@Internal@Core@Math@Palmtree@@
xdata$x	SEGMENT
__CTA2?AVArgumentNullException@Internal@Core@Math@Palmtree@@ DD 02H
	DD	FLAT:__CT??_R0?AVArgumentNullException@Internal@Core@Math@Palmtree@@@8??0ArgumentNullException@Internal@Core@Math@Palmtree@@QAE@ABV01234@@Z24
	DD	FLAT:__CT??_R0?AVException@Internal@Core@Math@Palmtree@@@8??0Exception@Internal@Core@Math@Palmtree@@QAE@ABV01234@@Z24
xdata$x	ENDS
;	COMDAT __TI2?AVArgumentNullException@Internal@Core@Math@Palmtree@@
xdata$x	SEGMENT
__TI2?AVArgumentNullException@Internal@Core@Math@Palmtree@@ DD 00H
	DD	FLAT:??1ArgumentNullException@Internal@Core@Math@Palmtree@@UAE@XZ
	DD	00H
	DD	FLAT:__CTA2?AVArgumentNullException@Internal@Core@Math@Palmtree@@
xdata$x	ENDS
;	COMDAT __CT??_R0?AVException@Internal@Core@Math@Palmtree@@@8??0Exception@Internal@Core@Math@Palmtree@@QAE@ABV01234@@Z24
xdata$x	SEGMENT
__CT??_R0?AVException@Internal@Core@Math@Palmtree@@@8??0Exception@Internal@Core@Math@Palmtree@@QAE@ABV01234@@Z24 DD 00H
	DD	FLAT:??_R0?AVException@Internal@Core@Math@Palmtree@@@8
	DD	00H
	DD	0ffffffffH
	ORG $+4
	DD	018H
	DD	FLAT:??0Exception@Internal@Core@Math@Palmtree@@QAE@ABV01234@@Z
xdata$x	ENDS
;	COMDAT ??_R0?AVException@Internal@Core@Math@Palmtree@@@8
data$r	SEGMENT
??_R0?AVException@Internal@Core@Math@Palmtree@@@8 DD FLAT:??_7type_info@@6B@ ; Palmtree::Math::Core::Internal::Exception `RTTI Type Descriptor'
	DD	00H
	DB	'.?AVException@Internal@Core@Math@Palmtree@@', 00H
data$r	ENDS
;	COMDAT ??_R0?AVInternalErrorException@Internal@Core@Math@Palmtree@@@8
data$r	SEGMENT
??_R0?AVInternalErrorException@Internal@Core@Math@Palmtree@@@8 DD FLAT:??_7type_info@@6B@ ; Palmtree::Math::Core::Internal::InternalErrorException `RTTI Type Descriptor'
	DD	00H
	DB	'.?AVInternalErrorException@Internal@Core@Math@Palmtree@@'
	DB	00H
data$r	ENDS
;	COMDAT ??_7InternalErrorException@Internal@Core@Math@Palmtree@@6B@
CONST	SEGMENT
??_7InternalErrorException@Internal@Core@Math@Palmtree@@6B@ DD FLAT:??_R4InternalErrorException@Internal@Core@Math@Palmtree@@6B@ ; Palmtree::Math::Core::Internal::InternalErrorException::`vftable'
	DD	FLAT:??_EInternalErrorException@Internal@Core@Math@Palmtree@@UAEPAXI@Z
	DD	FLAT:?what@exception@std@@UBEPBDXZ
CONST	ENDS
;	COMDAT ??_7ArgumentNullException@Internal@Core@Math@Palmtree@@6B@
CONST	SEGMENT
??_7ArgumentNullException@Internal@Core@Math@Palmtree@@6B@ DD FLAT:??_R4ArgumentNullException@Internal@Core@Math@Palmtree@@6B@ ; Palmtree::Math::Core::Internal::ArgumentNullException::`vftable'
	DD	FLAT:??_EArgumentNullException@Internal@Core@Math@Palmtree@@UAEPAXI@Z
	DD	FLAT:?what@exception@std@@UBEPBDXZ
CONST	ENDS
;	COMDAT ??_7Exception@Internal@Core@Math@Palmtree@@6B@
CONST	SEGMENT
??_7Exception@Internal@Core@Math@Palmtree@@6B@ DD FLAT:??_R4Exception@Internal@Core@Math@Palmtree@@6B@ ; Palmtree::Math::Core::Internal::Exception::`vftable'
	DD	FLAT:??_EException@Internal@Core@Math@Palmtree@@UAEPAXI@Z
	DD	FLAT:?what@exception@std@@UBEPBDXZ
CONST	ENDS
;	COMDAT ??_C@_0BC@EOODALEL@Unknown?5exception@
CONST	SEGMENT
??_C@_0BC@EOODALEL@Unknown?5exception@ DB 'Unknown exception', 00H ; `string'
CONST	ENDS
;	COMDAT ??_7exception@std@@6B@
CONST	SEGMENT
??_7exception@std@@6B@ DD FLAT:??_R4exception@std@@6B@	; std::exception::`vftable'
	DD	FLAT:??_Eexception@std@@UAEPAXI@Z
	DD	FLAT:?what@exception@std@@UBEPBDXZ
CONST	ENDS
;	COMDAT xdata$x
xdata$x	SEGMENT
__unwindtable$??_GInternalErrorException@Internal@Core@Math@Palmtree@@UAEPAXI@Z DD 0ffffffffH
	DD	FLAT:__unwindfunclet$??_GInternalErrorException@Internal@Core@Math@Palmtree@@UAEPAXI@Z$0
	DD	0ffffffffH
	DD	FLAT:__unwindfunclet$??_GInternalErrorException@Internal@Core@Math@Palmtree@@UAEPAXI@Z$1
__ehfuncinfo$??_GInternalErrorException@Internal@Core@Math@Palmtree@@UAEPAXI@Z DD 019930522H
	DD	02H
	DD	FLAT:__unwindtable$??_GInternalErrorException@Internal@Core@Math@Palmtree@@UAEPAXI@Z
	DD	2 DUP(00H)
	DD	2 DUP(00H)
	DD	00H
	DD	04H
xdata$x	ENDS
;	COMDAT xdata$x
xdata$x	SEGMENT
__unwindtable$??1InternalErrorException@Internal@Core@Math@Palmtree@@UAE@XZ DD 0ffffffffH
	DD	FLAT:__unwindfunclet$??1InternalErrorException@Internal@Core@Math@Palmtree@@UAE@XZ$0
	DD	0ffffffffH
	DD	FLAT:__unwindfunclet$??1InternalErrorException@Internal@Core@Math@Palmtree@@UAE@XZ$1
__ehfuncinfo$??1InternalErrorException@Internal@Core@Math@Palmtree@@UAE@XZ DD 019930522H
	DD	02H
	DD	FLAT:__unwindtable$??1InternalErrorException@Internal@Core@Math@Palmtree@@UAE@XZ
	DD	2 DUP(00H)
	DD	2 DUP(00H)
	DD	00H
	DD	04H
xdata$x	ENDS
;	COMDAT xdata$x
xdata$x	SEGMENT
__unwindtable$??0InternalErrorException@Internal@Core@Math@Palmtree@@QAE@PB_W0@Z DD 0ffffffffH
	DD	FLAT:__unwindfunclet$??0InternalErrorException@Internal@Core@Math@Palmtree@@QAE@PB_W0@Z$1
	DD	0ffffffffH
	DD	FLAT:__unwindfunclet$??0InternalErrorException@Internal@Core@Math@Palmtree@@QAE@PB_W0@Z$0
__ehfuncinfo$??0InternalErrorException@Internal@Core@Math@Palmtree@@QAE@PB_W0@Z DD 019930522H
	DD	02H
	DD	FLAT:__unwindtable$??0InternalErrorException@Internal@Core@Math@Palmtree@@QAE@PB_W0@Z
	DD	2 DUP(00H)
	DD	2 DUP(00H)
	DD	00H
	DD	04H
xdata$x	ENDS
;	COMDAT xdata$x
xdata$x	SEGMENT
__unwindtable$??_GArgumentNullException@Internal@Core@Math@Palmtree@@UAEPAXI@Z DD 0ffffffffH
	DD	FLAT:__unwindfunclet$??_GArgumentNullException@Internal@Core@Math@Palmtree@@UAEPAXI@Z$0
	DD	0ffffffffH
	DD	FLAT:__unwindfunclet$??_GArgumentNullException@Internal@Core@Math@Palmtree@@UAEPAXI@Z$1
__ehfuncinfo$??_GArgumentNullException@Internal@Core@Math@Palmtree@@UAEPAXI@Z DD 019930522H
	DD	02H
	DD	FLAT:__unwindtable$??_GArgumentNullException@Internal@Core@Math@Palmtree@@UAEPAXI@Z
	DD	2 DUP(00H)
	DD	2 DUP(00H)
	DD	00H
	DD	04H
xdata$x	ENDS
;	COMDAT xdata$x
xdata$x	SEGMENT
__unwindtable$??1ArgumentNullException@Internal@Core@Math@Palmtree@@UAE@XZ DD 0ffffffffH
	DD	FLAT:__unwindfunclet$??1ArgumentNullException@Internal@Core@Math@Palmtree@@UAE@XZ$0
	DD	0ffffffffH
	DD	FLAT:__unwindfunclet$??1ArgumentNullException@Internal@Core@Math@Palmtree@@UAE@XZ$1
__ehfuncinfo$??1ArgumentNullException@Internal@Core@Math@Palmtree@@UAE@XZ DD 019930522H
	DD	02H
	DD	FLAT:__unwindtable$??1ArgumentNullException@Internal@Core@Math@Palmtree@@UAE@XZ
	DD	2 DUP(00H)
	DD	2 DUP(00H)
	DD	00H
	DD	04H
xdata$x	ENDS
;	COMDAT xdata$x
xdata$x	SEGMENT
__unwindtable$??0ArgumentNullException@Internal@Core@Math@Palmtree@@QAE@ABV01234@@Z DD 0ffffffffH
	DD	FLAT:__unwindfunclet$??0ArgumentNullException@Internal@Core@Math@Palmtree@@QAE@ABV01234@@Z$1
	DD	0ffffffffH
	DD	FLAT:__unwindfunclet$??0ArgumentNullException@Internal@Core@Math@Palmtree@@QAE@ABV01234@@Z$0
__ehfuncinfo$??0ArgumentNullException@Internal@Core@Math@Palmtree@@QAE@ABV01234@@Z DD 019930522H
	DD	02H
	DD	FLAT:__unwindtable$??0ArgumentNullException@Internal@Core@Math@Palmtree@@QAE@ABV01234@@Z
	DD	2 DUP(00H)
	DD	2 DUP(00H)
	DD	00H
	DD	04H
xdata$x	ENDS
;	COMDAT xdata$x
xdata$x	SEGMENT
__unwindtable$??0ArgumentNullException@Internal@Core@Math@Palmtree@@QAE@PB_W0@Z DD 0ffffffffH
	DD	FLAT:__unwindfunclet$??0ArgumentNullException@Internal@Core@Math@Palmtree@@QAE@PB_W0@Z$1
	DD	0ffffffffH
	DD	FLAT:__unwindfunclet$??0ArgumentNullException@Internal@Core@Math@Palmtree@@QAE@PB_W0@Z$0
__ehfuncinfo$??0ArgumentNullException@Internal@Core@Math@Palmtree@@QAE@PB_W0@Z DD 019930522H
	DD	02H
	DD	FLAT:__unwindtable$??0ArgumentNullException@Internal@Core@Math@Palmtree@@QAE@PB_W0@Z
	DD	2 DUP(00H)
	DD	2 DUP(00H)
	DD	00H
	DD	04H
xdata$x	ENDS
;	COMDAT xdata$x
xdata$x	SEGMENT
__unwindtable$??_GException@Internal@Core@Math@Palmtree@@UAEPAXI@Z DD 0ffffffffH
	DD	FLAT:__unwindfunclet$??_GException@Internal@Core@Math@Palmtree@@UAEPAXI@Z$0
__ehfuncinfo$??_GException@Internal@Core@Math@Palmtree@@UAEPAXI@Z DD 019930522H
	DD	01H
	DD	FLAT:__unwindtable$??_GException@Internal@Core@Math@Palmtree@@UAEPAXI@Z
	DD	2 DUP(00H)
	DD	2 DUP(00H)
	DD	00H
	DD	04H
xdata$x	ENDS
;	COMDAT xdata$x
xdata$x	SEGMENT
__unwindtable$??1Exception@Internal@Core@Math@Palmtree@@UAE@XZ DD 0ffffffffH
	DD	FLAT:__unwindfunclet$??1Exception@Internal@Core@Math@Palmtree@@UAE@XZ$0
__ehfuncinfo$??1Exception@Internal@Core@Math@Palmtree@@UAE@XZ DD 019930522H
	DD	01H
	DD	FLAT:__unwindtable$??1Exception@Internal@Core@Math@Palmtree@@UAE@XZ
	DD	2 DUP(00H)
	DD	2 DUP(00H)
	DD	00H
	DD	04H
xdata$x	ENDS
;	COMDAT xdata$x
xdata$x	SEGMENT
__unwindtable$??0Exception@Internal@Core@Math@Palmtree@@QAE@ABV01234@@Z DD 0ffffffffH
	DD	FLAT:__unwindfunclet$??0Exception@Internal@Core@Math@Palmtree@@QAE@ABV01234@@Z$0
__ehfuncinfo$??0Exception@Internal@Core@Math@Palmtree@@QAE@ABV01234@@Z DD 019930522H
	DD	01H
	DD	FLAT:__unwindtable$??0Exception@Internal@Core@Math@Palmtree@@QAE@ABV01234@@Z
	DD	2 DUP(00H)
	DD	2 DUP(00H)
	DD	00H
	DD	04H
xdata$x	ENDS
;	COMDAT xdata$x
xdata$x	SEGMENT
__unwindtable$??0Exception@Internal@Core@Math@Palmtree@@IAE@HPB_W0@Z DD 0ffffffffH
	DD	FLAT:__unwindfunclet$??0Exception@Internal@Core@Math@Palmtree@@IAE@HPB_W0@Z$0
__ehfuncinfo$??0Exception@Internal@Core@Math@Palmtree@@IAE@HPB_W0@Z DD 019930522H
	DD	01H
	DD	FLAT:__unwindtable$??0Exception@Internal@Core@Math@Palmtree@@IAE@HPB_W0@Z
	DD	2 DUP(00H)
	DD	2 DUP(00H)
	DD	00H
	DD	04H
xdata$x	ENDS
;	COMDAT xdata$x
xdata$x	SEGMENT
__ehfuncinfo$??_Gexception@std@@UAEPAXI@Z DD 019930522H
	DD	00H
	DD	00H
	DD	2 DUP(00H)
	DD	2 DUP(00H)
	DD	00H
	DD	04H
xdata$x	ENDS
;	COMDAT xdata$x
xdata$x	SEGMENT
__ehfuncinfo$??1exception@std@@UAE@XZ DD 019930522H
	DD	00H
	DD	00H
	DD	2 DUP(00H)
	DD	2 DUP(00H)
	DD	00H
	DD	04H
xdata$x	ENDS
; Function compile flags: /Ogtp
; File z:\sources\lunor\repos\rougemeilland\palmtree.math.core.uint\palmtree.math.core.uint\pmc_equals.cpp
;	COMDAT ?Equals_X_X_Imp@Internal@Core@Math@Palmtree@@YAIPAI0I@Z
_TEXT	SEGMENT
_u$ = 8							; size = 4
_v$ = 12						; size = 4
_count$ = 16						; size = 4
?Equals_X_X_Imp@Internal@Core@Math@Palmtree@@YAIPAI0I@Z PROC ; Palmtree::Math::Core::Internal::Equals_X_X_Imp, COMDAT

; 142  :     {

  00000	55		 push	 ebp
  00001	8b ec		 mov	 ebp, esp

; 143  :         while (count > 0)

  00003	8b 55 10	 mov	 edx, DWORD PTR _count$[ebp]
  00006	56		 push	 esi
  00007	85 d2		 test	 edx, edx
  00009	74 17		 je	 SHORT $LN3@Equals_X_X
  0000b	8b 75 08	 mov	 esi, DWORD PTR _u$[ebp]
  0000e	8b 45 0c	 mov	 eax, DWORD PTR _v$[ebp]
  00011	2b f0		 sub	 esi, eax
$LL2@Equals_X_X:

; 144  :         {
; 145  :             if (*u != *v)

  00013	8b 0c 06	 mov	 ecx, DWORD PTR [esi+eax]
  00016	3b 08		 cmp	 ecx, DWORD PTR [eax]
  00018	75 10		 jne	 SHORT $LN7@Equals_X_X

; 147  :             ++u;
; 148  :             ++v;

  0001a	83 c0 04	 add	 eax, 4

; 149  :             --count;

  0001d	83 ea 01	 sub	 edx, 1
  00020	75 f1		 jne	 SHORT $LL2@Equals_X_X
$LN3@Equals_X_X:

; 150  :         }
; 151  :         return (1);

  00022	b8 01 00 00 00	 mov	 eax, 1
  00027	5e		 pop	 esi

; 152  :     }

  00028	5d		 pop	 ebp
  00029	c3		 ret	 0
$LN7@Equals_X_X:

; 146  :                 return (0);

  0002a	33 c0		 xor	 eax, eax
  0002c	5e		 pop	 esi

; 152  :     }

  0002d	5d		 pop	 ebp
  0002e	c3		 ret	 0
?Equals_X_X_Imp@Internal@Core@Math@Palmtree@@YAIPAI0I@Z ENDP ; Palmtree::Math::Core::Internal::Equals_X_X_Imp
_TEXT	ENDS
; Function compile flags: /Ogtp
; File z:\sources\lunor\repos\rougemeilland\palmtree.math.core.uint\palmtree.math.core.uint\pmc_equals.cpp
; File z:\sources\lunor\repos\rougemeilland\palmtree.math.core.uint\palmtree.math.core.uint\pmc_inline_func.h
; File z:\sources\lunor\repos\rougemeilland\palmtree.math.core.uint\palmtree.math.core.uint\pmc_equals.cpp
; File z:\sources\lunor\repos\rougemeilland\palmtree.math.core.uint\palmtree.math.core.uint\pmc_inline_func.h
; File z:\sources\lunor\repos\rougemeilland\palmtree.math.core.uint\palmtree.math.core.uint\pmc_equals.cpp
;	COMDAT ?Equals_X_L_Imp@Internal@Core@Math@Palmtree@@YAIPAU__tag_NUMBER_HEADER@1234@_K@Z
_TEXT	SEGMENT
_u$ = 8							; size = 4
_v$ = 12						; size = 8
?Equals_X_L_Imp@Internal@Core@Math@Palmtree@@YAIPAU__tag_NUMBER_HEADER@1234@_K@Z PROC ; Palmtree::Math::Core::Internal::Equals_X_L_Imp, COMDAT

; 67   :     {

  00000	55		 push	 ebp
  00001	8b ec		 mov	 ebp, esp
  00003	56		 push	 esi

; 68   :         if (u->IS_ZERO)

  00004	8b 75 08	 mov	 esi, DWORD PTR _u$[ebp]
  00007	f6 46 04 01	 test	 BYTE PTR [esi+4], 1
  0000b	74 15		 je	 SHORT $LN2@Equals_X_L

; 69   :         {
; 70   :             // u が 0 である場合
; 71   :             return (v == 0);

  0000d	8b 45 0c	 mov	 eax, DWORD PTR _v$[ebp]
  00010	0b 45 10	 or	 eax, DWORD PTR _v$[ebp+4]
  00013	75 08		 jne	 SHORT $LN17@Equals_X_L
  00015	b8 01 00 00 00	 mov	 eax, 1
  0001a	5e		 pop	 esi

; 117  :                     }
; 118  :                 }
; 119  :             }
; 120  :             else
; 121  :             {
; 122  :                 // _UINT64_T が 1 ワードで表現できる場合
; 123  : 
; 124  :                 __UNIT_TYPE u_bit_count = u->UNIT_BIT_COUNT;
; 125  :                 __UNIT_TYPE v_bit_count = sizeof(v) * 8 - _LZCNT_ALT_UNIT((__UNIT_TYPE)v);
; 126  :                 if (u_bit_count != v_bit_count)
; 127  :                 {
; 128  :                     // 明らかに u > v である場合
; 129  :                     return (0);
; 130  :                 }
; 131  :                 else
; 132  :                 {
; 133  :                     // u > 0 && v > 0 かつ u のビット長と v のビット長が等しく、かつ v が 1 ワードで表現できる場合
; 134  :                     // ⇒ u と v はともに 1 ワードで表現できる
; 135  :                     return (u->BLOCK[0] == v);
; 136  :                 }
; 137  :             }
; 138  :         }
; 139  :     }

  0001b	5d		 pop	 ebp
  0001c	c3		 ret	 0
$LN17@Equals_X_L:

; 69   :         {
; 70   :             // u が 0 である場合
; 71   :             return (v == 0);

  0001d	33 c0		 xor	 eax, eax
  0001f	5e		 pop	 esi

; 117  :                     }
; 118  :                 }
; 119  :             }
; 120  :             else
; 121  :             {
; 122  :                 // _UINT64_T が 1 ワードで表現できる場合
; 123  : 
; 124  :                 __UNIT_TYPE u_bit_count = u->UNIT_BIT_COUNT;
; 125  :                 __UNIT_TYPE v_bit_count = sizeof(v) * 8 - _LZCNT_ALT_UNIT((__UNIT_TYPE)v);
; 126  :                 if (u_bit_count != v_bit_count)
; 127  :                 {
; 128  :                     // 明らかに u > v である場合
; 129  :                     return (0);
; 130  :                 }
; 131  :                 else
; 132  :                 {
; 133  :                     // u > 0 && v > 0 かつ u のビット長と v のビット長が等しく、かつ v が 1 ワードで表現できる場合
; 134  :                     // ⇒ u と v はともに 1 ワードで表現できる
; 135  :                     return (u->BLOCK[0] == v);
; 136  :                 }
; 137  :             }
; 138  :         }
; 139  :     }

  00020	5d		 pop	 ebp
  00021	c3		 ret	 0
$LN2@Equals_X_L:

; 72   :         }
; 73   :         else if (v == 0)

  00022	8b 55 0c	 mov	 edx, DWORD PTR _v$[ebp]
  00025	8b c2		 mov	 eax, edx
  00027	57		 push	 edi
  00028	8b 7d 10	 mov	 edi, DWORD PTR _v$[ebp+4]
  0002b	0b c7		 or	 eax, edi
  0002d	74 5c		 je	 SHORT $LN34@Equals_X_L

; 74   :         {
; 75   :             // v が 0 である場合
; 76   :             return (0);
; 77   :         }
; 78   :         else
; 79   :         {
; 80   :             // u と v がともに 0 ではない場合
; 81   :             if (__UNIT_TYPE_BIT_COUNT < sizeof(v) * 8)
; 82   :             {
; 83   :                 // _UINT64_T が 1 ワードで表現しきれない場合
; 84   :                 __UNIT_TYPE u_bit_count = u->UNIT_BIT_COUNT;
; 85   :                 _UINT32_T v_hi;
; 86   :                 _UINT32_T v_lo = _FROMDWORDTOWORD(v, &v_hi);
; 87   :                 if (v_hi == 0)

  0002f	85 ff		 test	 edi, edi
  00031	75 2d		 jne	 SHORT $LN8@Equals_X_L
; File z:\sources\lunor\repos\rougemeilland\palmtree.math.core.uint\palmtree.math.core.uint\pmc_inline_func.h

; 422  :             if (x == 0)

  00033	85 d2		 test	 edx, edx
  00035	75 05		 jne	 SHORT $LN26@Equals_X_L

; 423  :                 return (sizeof(x) * 8);

  00037	8d 4a 20	 lea	 ecx, DWORD PTR [edx+32]
  0003a	eb 0a		 jmp	 SHORT $LN25@Equals_X_L
$LN26@Equals_X_L:

; 426  :             _BitScanReverse(&pos, x);

  0003c	0f bd c2	 bsr	 eax, edx

; 427  : #elif defined(__GNUC__)
; 428  :             __asm__("bsrl %1, %0" : "=r"(pos) : "rm"(x));
; 429  : #else
; 430  : #error unknown compiler
; 431  : #endif
; 432  :             return (sizeof(x) * 8 - 1 - pos);

  0003f	b9 1f 00 00 00	 mov	 ecx, 31			; 0000001fH
  00044	2b c8		 sub	 ecx, eax
$LN25@Equals_X_L:
; File z:\sources\lunor\repos\rougemeilland\palmtree.math.core.uint\palmtree.math.core.uint\pmc_equals.cpp

; 90   :                     __UNIT_TYPE v_bit_count = sizeof(v_lo) * 8 - _LZCNT_ALT_32(v_lo);

  00046	b8 20 00 00 00	 mov	 eax, 32			; 00000020H
  0004b	2b c1		 sub	 eax, ecx

; 91   :                     if (u_bit_count != v_bit_count)

  0004d	39 46 14	 cmp	 DWORD PTR [esi+20], eax
  00050	75 39		 jne	 SHORT $LN34@Equals_X_L

; 92   :                     {
; 93   :                         // 明らかに u > v である場合
; 94   :                         return (0);
; 95   :                     }
; 96   :                     else
; 97   :                     {
; 98   :                         // u > 0 && v > 0 かつ u のビット長と v のビット長が等しく、かつ v が 1 ワードで表現できる場合
; 99   :                         // ⇒ u と v はともに 1 ワードで表現できる
; 100  :                         return (u->BLOCK[0] == v_lo);

  00052	8b 4e 24	 mov	 ecx, DWORD PTR [esi+36]
  00055	33 c0		 xor	 eax, eax
  00057	5f		 pop	 edi
  00058	5e		 pop	 esi
  00059	39 11		 cmp	 DWORD PTR [ecx], edx
  0005b	0f 94 c0	 sete	 al

; 117  :                     }
; 118  :                 }
; 119  :             }
; 120  :             else
; 121  :             {
; 122  :                 // _UINT64_T が 1 ワードで表現できる場合
; 123  : 
; 124  :                 __UNIT_TYPE u_bit_count = u->UNIT_BIT_COUNT;
; 125  :                 __UNIT_TYPE v_bit_count = sizeof(v) * 8 - _LZCNT_ALT_UNIT((__UNIT_TYPE)v);
; 126  :                 if (u_bit_count != v_bit_count)
; 127  :                 {
; 128  :                     // 明らかに u > v である場合
; 129  :                     return (0);
; 130  :                 }
; 131  :                 else
; 132  :                 {
; 133  :                     // u > 0 && v > 0 かつ u のビット長と v のビット長が等しく、かつ v が 1 ワードで表現できる場合
; 134  :                     // ⇒ u と v はともに 1 ワードで表現できる
; 135  :                     return (u->BLOCK[0] == v);
; 136  :                 }
; 137  :             }
; 138  :         }
; 139  :     }

  0005e	5d		 pop	 ebp
  0005f	c3		 ret	 0
$LN8@Equals_X_L:
; File z:\sources\lunor\repos\rougemeilland\palmtree.math.core.uint\palmtree.math.core.uint\pmc_inline_func.h

; 426  :             _BitScanReverse(&pos, x);

  00060	0f bd c7	 bsr	 eax, edi

; 427  : #elif defined(__GNUC__)
; 428  :             __asm__("bsrl %1, %0" : "=r"(pos) : "rm"(x));
; 429  : #else
; 430  : #error unknown compiler
; 431  : #endif
; 432  :             return (sizeof(x) * 8 - 1 - pos);

  00063	b9 1f 00 00 00	 mov	 ecx, 31			; 0000001fH
  00068	2b c8		 sub	 ecx, eax
; File z:\sources\lunor\repos\rougemeilland\palmtree.math.core.uint\palmtree.math.core.uint\pmc_equals.cpp

; 106  :                     __UNIT_TYPE v_bit_count = sizeof(v) * 8 - _LZCNT_ALT_32(v_hi);

  0006a	b8 40 00 00 00	 mov	 eax, 64			; 00000040H
  0006f	2b c1		 sub	 eax, ecx

; 107  :                     if (u_bit_count != v_bit_count)

  00071	39 46 14	 cmp	 DWORD PTR [esi+20], eax
  00074	75 15		 jne	 SHORT $LN34@Equals_X_L

; 111  :                     }
; 112  :                     else
; 113  :                     {
; 114  :                         // u > 0 && v > 0 かつ u のビット長と v のビット長が等しく、かつ v が 2 ワードで表現できる場合
; 115  :                         // ⇒ u と v はともに 2 ワードで表現できる
; 116  :                         return (u->BLOCK[1] == v_hi && u->BLOCK[0] == v_lo);

  00076	8b 46 24	 mov	 eax, DWORD PTR [esi+36]
  00079	39 78 04	 cmp	 DWORD PTR [eax+4], edi
  0007c	75 0d		 jne	 SHORT $LN34@Equals_X_L
  0007e	39 10		 cmp	 DWORD PTR [eax], edx
  00080	75 09		 jne	 SHORT $LN34@Equals_X_L
  00082	5f		 pop	 edi
  00083	b8 01 00 00 00	 mov	 eax, 1
  00088	5e		 pop	 esi

; 117  :                     }
; 118  :                 }
; 119  :             }
; 120  :             else
; 121  :             {
; 122  :                 // _UINT64_T が 1 ワードで表現できる場合
; 123  : 
; 124  :                 __UNIT_TYPE u_bit_count = u->UNIT_BIT_COUNT;
; 125  :                 __UNIT_TYPE v_bit_count = sizeof(v) * 8 - _LZCNT_ALT_UNIT((__UNIT_TYPE)v);
; 126  :                 if (u_bit_count != v_bit_count)
; 127  :                 {
; 128  :                     // 明らかに u > v である場合
; 129  :                     return (0);
; 130  :                 }
; 131  :                 else
; 132  :                 {
; 133  :                     // u > 0 && v > 0 かつ u のビット長と v のビット長が等しく、かつ v が 1 ワードで表現できる場合
; 134  :                     // ⇒ u と v はともに 1 ワードで表現できる
; 135  :                     return (u->BLOCK[0] == v);
; 136  :                 }
; 137  :             }
; 138  :         }
; 139  :     }

  00089	5d		 pop	 ebp
  0008a	c3		 ret	 0
$LN34@Equals_X_L:
  0008b	5f		 pop	 edi

; 108  :                     {
; 109  :                         // 明らかに u > v である場合
; 110  :                         return (0);

  0008c	33 c0		 xor	 eax, eax
  0008e	5e		 pop	 esi

; 117  :                     }
; 118  :                 }
; 119  :             }
; 120  :             else
; 121  :             {
; 122  :                 // _UINT64_T が 1 ワードで表現できる場合
; 123  : 
; 124  :                 __UNIT_TYPE u_bit_count = u->UNIT_BIT_COUNT;
; 125  :                 __UNIT_TYPE v_bit_count = sizeof(v) * 8 - _LZCNT_ALT_UNIT((__UNIT_TYPE)v);
; 126  :                 if (u_bit_count != v_bit_count)
; 127  :                 {
; 128  :                     // 明らかに u > v である場合
; 129  :                     return (0);
; 130  :                 }
; 131  :                 else
; 132  :                 {
; 133  :                     // u > 0 && v > 0 かつ u のビット長と v のビット長が等しく、かつ v が 1 ワードで表現できる場合
; 134  :                     // ⇒ u と v はともに 1 ワードで表現できる
; 135  :                     return (u->BLOCK[0] == v);
; 136  :                 }
; 137  :             }
; 138  :         }
; 139  :     }

  0008f	5d		 pop	 ebp
  00090	c3		 ret	 0
?Equals_X_L_Imp@Internal@Core@Math@Palmtree@@YAIPAU__tag_NUMBER_HEADER@1234@_K@Z ENDP ; Palmtree::Math::Core::Internal::Equals_X_L_Imp
_TEXT	ENDS
; Function compile flags: /Ogtp
; File z:\sources\lunor\repos\rougemeilland\palmtree.math.core.uint\palmtree.math.core.uint\pmc_equals.cpp
; File z:\sources\lunor\repos\rougemeilland\palmtree.math.core.uint\palmtree.math.core.uint\pmc_inline_func.h
; File z:\sources\lunor\repos\rougemeilland\palmtree.math.core.uint\palmtree.math.core.uint\pmc_equals.cpp
;	COMDAT ?Equals_X_I_Imp@Internal@Core@Math@Palmtree@@YAIPAU__tag_NUMBER_HEADER@1234@I@Z
_TEXT	SEGMENT
_u$ = 8							; size = 4
_v$ = 12						; size = 4
?Equals_X_I_Imp@Internal@Core@Math@Palmtree@@YAIPAU__tag_NUMBER_HEADER@1234@I@Z PROC ; Palmtree::Math::Core::Internal::Equals_X_I_Imp, COMDAT

; 36   :     {

  00000	55		 push	 ebp
  00001	8b ec		 mov	 ebp, esp

; 37   :         if (u->IS_ZERO)

  00003	8b 55 08	 mov	 edx, DWORD PTR _u$[ebp]
  00006	f6 42 04 01	 test	 BYTE PTR [edx+4], 1
  0000a	74 0a		 je	 SHORT $LN2@Equals_X_I

; 38   :         {
; 39   :             // u が 0 である場合
; 40   :             return (v == 0);

  0000c	33 c0		 xor	 eax, eax
  0000e	39 45 0c	 cmp	 DWORD PTR _v$[ebp], eax
  00011	0f 94 c0	 sete	 al

; 62   :             }
; 63   :         }
; 64   :     }

  00014	5d		 pop	 ebp
  00015	c3		 ret	 0
$LN2@Equals_X_I:
  00016	56		 push	 esi

; 41   :         }
; 42   :         else if (v == 0)

  00017	8b 75 0c	 mov	 esi, DWORD PTR _v$[ebp]
  0001a	85 f6		 test	 esi, esi
  0001c	74 23		 je	 SHORT $LN12@Equals_X_I
; File z:\sources\lunor\repos\rougemeilland\palmtree.math.core.uint\palmtree.math.core.uint\pmc_inline_func.h

; 426  :             _BitScanReverse(&pos, x);

  0001e	0f bd c6	 bsr	 eax, esi

; 427  : #elif defined(__GNUC__)
; 428  :             __asm__("bsrl %1, %0" : "=r"(pos) : "rm"(x));
; 429  : #else
; 430  : #error unknown compiler
; 431  : #endif
; 432  :             return (sizeof(x) * 8 - 1 - pos);

  00021	b9 1f 00 00 00	 mov	 ecx, 31			; 0000001fH
  00026	2b c8		 sub	 ecx, eax
; File z:\sources\lunor\repos\rougemeilland\palmtree.math.core.uint\palmtree.math.core.uint\pmc_equals.cpp

; 51   :             __UNIT_TYPE v_bit_count = sizeof(v) * 8 - _LZCNT_ALT_32(v);

  00028	b8 20 00 00 00	 mov	 eax, 32			; 00000020H
  0002d	2b c1		 sub	 eax, ecx

; 52   :             if (u_bit_count != v_bit_count)

  0002f	39 42 14	 cmp	 DWORD PTR [edx+20], eax
  00032	75 0d		 jne	 SHORT $LN12@Equals_X_I

; 56   :             }
; 57   :             else
; 58   :             {
; 59   :                 // u > 0 && v > 0 かつ u のビット長と v のビット長が等しい場合
; 60   :                 // ⇒ u と v はともに 1 ワードで表現できる
; 61   :                 return (u->BLOCK[0] == v);

  00034	8b 4a 24	 mov	 ecx, DWORD PTR [edx+36]
  00037	33 c0		 xor	 eax, eax
  00039	39 31		 cmp	 DWORD PTR [ecx], esi
  0003b	5e		 pop	 esi
  0003c	0f 94 c0	 sete	 al

; 62   :             }
; 63   :         }
; 64   :     }

  0003f	5d		 pop	 ebp
  00040	c3		 ret	 0
$LN12@Equals_X_I:

; 53   :             {
; 54   :                 // 明らかに u != v である場合
; 55   :                 return (0);

  00041	33 c0		 xor	 eax, eax
  00043	5e		 pop	 esi

; 62   :             }
; 63   :         }
; 64   :     }

  00044	5d		 pop	 ebp
  00045	c3		 ret	 0
?Equals_X_I_Imp@Internal@Core@Math@Palmtree@@YAIPAU__tag_NUMBER_HEADER@1234@I@Z ENDP ; Palmtree::Math::Core::Internal::Equals_X_I_Imp
_TEXT	ENDS
; Function compile flags: /Ogtp
; File z:\sources\lunor\repos\rougemeilland\palmtree.math.core.uint\palmtree.math.core.uint\pmc_inline_func.h
;	COMDAT __LZCNT_ALT_UNIT
_TEXT	SEGMENT
_x$ = 8							; size = 4
__LZCNT_ALT_UNIT PROC					; COMDAT

; 454  :         {

  00000	55		 push	 ebp
  00001	8b ec		 mov	 ebp, esp

; 455  :             if (x == 0)

  00003	8b 45 08	 mov	 eax, DWORD PTR _x$[ebp]
  00006	85 c0		 test	 eax, eax
  00008	75 07		 jne	 SHORT $LN2@LZCNT_ALT_

; 456  :                 return (sizeof(x) * 8);

  0000a	b8 20 00 00 00	 mov	 eax, 32			; 00000020H

; 480  :         }

  0000f	5d		 pop	 ebp
  00010	c3		 ret	 0
$LN2@LZCNT_ALT_:

; 457  : #ifdef _M_IX86
; 458  :             DWORD pos;
; 459  : #ifdef _MSC_VER
; 460  :             _BitScanReverse(&pos, x);

  00011	0f bd c8	 bsr	 ecx, eax

; 461  : #elif defined(__GNUC__)
; 462  :             __asm__("bsrl %1, %0" : "=r"(pos) : "rm"(x));
; 463  : #else
; 464  : #error unknown compiler
; 465  : #endif
; 466  : #elif defined(_M_X64)
; 467  : #ifdef _MSC_VER
; 468  :             DWORD pos;
; 469  :             _BitScanReverse64(&pos, x);
; 470  : #elif defined(__GNUC__)
; 471  :             _UINT64_T pos;
; 472  :             __asm__("bsrq %1, %0" : "=r"(pos) : "rm"(x));
; 473  : #else
; 474  : #error unknown compiler
; 475  : #endif
; 476  : #else
; 477  : #error unknown platform
; 478  : #endif
; 479  :             return (sizeof(x) * 8 - 1 - pos);

  00014	b8 1f 00 00 00	 mov	 eax, 31			; 0000001fH
  00019	2b c1		 sub	 eax, ecx

; 480  :         }

  0001b	5d		 pop	 ebp
  0001c	c3		 ret	 0
__LZCNT_ALT_UNIT ENDP
_TEXT	ENDS
; Function compile flags: /Ogtp
; File z:\sources\lunor\repos\rougemeilland\palmtree.math.core.uint\palmtree.math.core.uint\pmc_inline_func.h
;	COMDAT __LZCNT_ALT_32
_TEXT	SEGMENT
_x$ = 8							; size = 4
__LZCNT_ALT_32 PROC					; COMDAT

; 421  :         {

  00000	55		 push	 ebp
  00001	8b ec		 mov	 ebp, esp

; 422  :             if (x == 0)

  00003	8b 45 08	 mov	 eax, DWORD PTR _x$[ebp]
  00006	85 c0		 test	 eax, eax
  00008	75 07		 jne	 SHORT $LN2@LZCNT_ALT_

; 423  :                 return (sizeof(x) * 8);

  0000a	b8 20 00 00 00	 mov	 eax, 32			; 00000020H

; 433  :         }

  0000f	5d		 pop	 ebp
  00010	c3		 ret	 0
$LN2@LZCNT_ALT_:

; 424  :             DWORD pos;
; 425  : #ifdef _MSC_VER
; 426  :             _BitScanReverse(&pos, x);

  00011	0f bd c8	 bsr	 ecx, eax

; 427  : #elif defined(__GNUC__)
; 428  :             __asm__("bsrl %1, %0" : "=r"(pos) : "rm"(x));
; 429  : #else
; 430  : #error unknown compiler
; 431  : #endif
; 432  :             return (sizeof(x) * 8 - 1 - pos);

  00014	b8 1f 00 00 00	 mov	 eax, 31			; 0000001fH
  00019	2b c1		 sub	 eax, ecx

; 433  :         }

  0001b	5d		 pop	 ebp
  0001c	c3		 ret	 0
__LZCNT_ALT_32 ENDP
_TEXT	ENDS
; Function compile flags: /Ogtp
; File z:\sources\lunor\repos\rougemeilland\palmtree.math.core.uint\palmtree.math.core.uint\pmc_inline_func.h
;	COMDAT __FROMDWORDTOWORD
_TEXT	SEGMENT
_value$ = 8						; size = 8
_result_high$ = 16					; size = 4
__FROMDWORDTOWORD PROC					; COMDAT

; 145  :         {

  00000	55		 push	 ebp
  00001	8b ec		 mov	 ebp, esp

; 146  :             *result_high = (_UINT32_T)(value >> 32);

  00003	8b 45 10	 mov	 eax, DWORD PTR _result_high$[ebp]
  00006	8b 4d 0c	 mov	 ecx, DWORD PTR _value$[ebp+4]
  00009	89 08		 mov	 DWORD PTR [eax], ecx

; 147  :             return ((_UINT32_T)value);

  0000b	8b 45 08	 mov	 eax, DWORD PTR _value$[ebp]

; 148  :         }

  0000e	5d		 pop	 ebp
  0000f	c3		 ret	 0
__FROMDWORDTOWORD ENDP
_TEXT	ENDS
; Function compile flags: /Ogtp
; File z:\sources\lunor\repos\rougemeilland\palmtree.math.core.uint\palmtree.math.core.uint\pmc_equals.cpp
;	COMDAT ?PMC_Equals_X_X@Internal@Core@Math@Palmtree@@YGIPAU__tag_PMC_HANDLE_UINT@1234@0@Z
_TEXT	SEGMENT
$T1 = -24						; size = 24
_u$ = 8							; size = 4
_v$ = 12						; size = 4
?PMC_Equals_X_X@Internal@Core@Math@Palmtree@@YGIPAU__tag_PMC_HANDLE_UINT@1234@0@Z PROC ; Palmtree::Math::Core::Internal::PMC_Equals_X_X, COMDAT

; 227  :     {

  00000	55		 push	 ebp
  00001	8b ec		 mov	 ebp, esp
  00003	83 ec 18	 sub	 esp, 24			; 00000018H
  00006	56		 push	 esi
  00007	57		 push	 edi

; 228  :         if (u == nullptr)

  00008	8b 7d 08	 mov	 edi, DWORD PTR _u$[ebp]
  0000b	85 ff		 test	 edi, edi
  0000d	74 77		 je	 SHORT $LN24@PMC_Equals

; 230  :         if (v == nullptr)

  0000f	8b 75 0c	 mov	 esi, DWORD PTR _v$[ebp]
  00012	85 f6		 test	 esi, esi
  00014	75 07		 jne	 SHORT $LN3@PMC_Equals

; 231  :             throw ArgumentNullException(L"引数にnullptrが与えられています。", L"v");

  00016	68 00 00 00 00	 push	 OFFSET ??_C@_13JAOPNPKD@?$AAv@
  0001b	eb 6e		 jmp	 SHORT $LN22@PMC_Equals
$LN3@PMC_Equals:

; 232  :         NUMBER_HEADER* nu = (NUMBER_HEADER*)u;
; 233  :         NUMBER_HEADER* nv = (NUMBER_HEADER*)v;
; 234  :         CheckNumber(nu);

  0001d	57		 push	 edi
  0001e	e8 00 00 00 00	 call	 ?CheckNumber@Internal@Core@Math@Palmtree@@YAXPAU__tag_NUMBER_HEADER@1234@@Z ; Palmtree::Math::Core::Internal::CheckNumber

; 235  :         CheckNumber(nv);

  00023	56		 push	 esi
  00024	e8 00 00 00 00	 call	 ?CheckNumber@Internal@Core@Math@Palmtree@@YAXPAU__tag_NUMBER_HEADER@1234@@Z ; Palmtree::Math::Core::Internal::CheckNumber
  00029	83 c4 08	 add	 esp, 8

; 236  :         _INT32_T w;
; 237  :         if (nu->IS_ZERO)

  0002c	f6 47 04 01	 test	 BYTE PTR [edi+4], 1
  00030	74 0e		 je	 SHORT $LN4@PMC_Equals

; 238  :             w = nv->IS_ZERO ? 1 : 0;

  00032	8b 46 04	 mov	 eax, DWORD PTR [esi+4]

; 254  :             }
; 255  :         }
; 256  : #ifdef _DEBUG
; 257  :         if (w != 0 && w != 1)
; 258  :             throw InternalErrorException(L"内部エラーが発生しました。", L"pmc_equals.cpp;PMC_Equals_X_X;1");
; 259  : #endif
; 260  :         return (w);

  00035	5f		 pop	 edi
  00036	83 e0 01	 and	 eax, 1
  00039	5e		 pop	 esi

; 261  :     }

  0003a	8b e5		 mov	 esp, ebp
  0003c	5d		 pop	 ebp
  0003d	c2 08 00	 ret	 8
$LN4@PMC_Equals:

; 239  :         else if (nv->IS_ZERO)

  00040	f6 46 04 01	 test	 BYTE PTR [esi+4], 1
  00044	75 36		 jne	 SHORT $LN17@PMC_Equals

; 240  :             w = 0;
; 241  :         else
; 242  :         {
; 243  :             __UNIT_TYPE u_bit_count = nu->UNIT_BIT_COUNT;
; 244  :             __UNIT_TYPE v_bit_count = nv->UNIT_BIT_COUNT;
; 245  :             if (u_bit_count != v_bit_count)

  00046	8b 47 14	 mov	 eax, DWORD PTR [edi+20]
  00049	3b 46 14	 cmp	 eax, DWORD PTR [esi+20]
  0004c	75 2e		 jne	 SHORT $LN17@PMC_Equals

; 246  :             {
; 247  :                 // 明らかに u > v である場合
; 248  :                 w = 0;
; 249  :             }
; 250  :             else
; 251  :             {
; 252  :                 // u > 0 && v > 0 かつ u のビット長と v のビット長が等しい場合
; 253  :                 w = Equals_X_X_Imp(nu->BLOCK, nv->BLOCK, nu->UNIT_WORD_COUNT);

  0004e	8b 57 10	 mov	 edx, DWORD PTR [edi+16]
  00051	8b 4e 24	 mov	 ecx, DWORD PTR [esi+36]

; 143  :         while (count > 0)

  00054	85 d2		 test	 edx, edx
  00056	74 17		 je	 SHORT $LN13@PMC_Equals
  00058	8b 77 24	 mov	 esi, DWORD PTR [edi+36]
  0005b	2b f1		 sub	 esi, ecx
  0005d	0f 1f 00	 npad	 3
$LL12@PMC_Equals:

; 144  :         {
; 145  :             if (*u != *v)

  00060	8b 04 0e	 mov	 eax, DWORD PTR [esi+ecx]
  00063	3b 01		 cmp	 eax, DWORD PTR [ecx]
  00065	75 15		 jne	 SHORT $LN17@PMC_Equals

; 146  :                 return (0);
; 147  :             ++u;
; 148  :             ++v;

  00067	83 c1 04	 add	 ecx, 4

; 149  :             --count;

  0006a	83 ea 01	 sub	 edx, 1
  0006d	75 f1		 jne	 SHORT $LL12@PMC_Equals
$LN13@PMC_Equals:

; 254  :             }
; 255  :         }
; 256  : #ifdef _DEBUG
; 257  :         if (w != 0 && w != 1)
; 258  :             throw InternalErrorException(L"内部エラーが発生しました。", L"pmc_equals.cpp;PMC_Equals_X_X;1");
; 259  : #endif
; 260  :         return (w);

  0006f	5f		 pop	 edi

; 151  :         return (1);

  00070	b8 01 00 00 00	 mov	 eax, 1

; 254  :             }
; 255  :         }
; 256  : #ifdef _DEBUG
; 257  :         if (w != 0 && w != 1)
; 258  :             throw InternalErrorException(L"内部エラーが発生しました。", L"pmc_equals.cpp;PMC_Equals_X_X;1");
; 259  : #endif
; 260  :         return (w);

  00075	5e		 pop	 esi

; 261  :     }

  00076	8b e5		 mov	 esp, ebp
  00078	5d		 pop	 ebp
  00079	c2 08 00	 ret	 8
$LN17@PMC_Equals:

; 254  :             }
; 255  :         }
; 256  : #ifdef _DEBUG
; 257  :         if (w != 0 && w != 1)
; 258  :             throw InternalErrorException(L"内部エラーが発生しました。", L"pmc_equals.cpp;PMC_Equals_X_X;1");
; 259  : #endif
; 260  :         return (w);

  0007c	5f		 pop	 edi
  0007d	33 c0		 xor	 eax, eax
  0007f	5e		 pop	 esi

; 261  :     }

  00080	8b e5		 mov	 esp, ebp
  00082	5d		 pop	 ebp
  00083	c2 08 00	 ret	 8
$LN24@PMC_Equals:

; 229  :             throw ArgumentNullException(L"引数にnullptrが与えられています。", L"u");

  00086	68 00 00 00 00	 push	 OFFSET ??_C@_13ICFKHAEN@?$AAu@
$LN22@PMC_Equals:

; 261  :     }

  0008b	68 00 00 00 00	 push	 OFFSET ??_C@_1CK@ECFIEPAC@?$AA?$BF?$AAp?$AAk?$AAn?$AAu?$AAl?$AAl?$AAp?$AAt?$AAr?$AAL?$AA?$AO?$AAH?$PP?$IJ?$PP?$IM@
  00090	8d 4d e8	 lea	 ecx, DWORD PTR $T1[ebp]
  00093	e8 00 00 00 00	 call	 ??0ArgumentNullException@Internal@Core@Math@Palmtree@@QAE@PB_W0@Z ; Palmtree::Math::Core::Internal::ArgumentNullException::ArgumentNullException
  00098	68 00 00 00 00	 push	 OFFSET __TI2?AVArgumentNullException@Internal@Core@Math@Palmtree@@
  0009d	8d 45 e8	 lea	 eax, DWORD PTR $T1[ebp]
  000a0	50		 push	 eax
  000a1	e8 00 00 00 00	 call	 __CxxThrowException@8
$LN21@PMC_Equals:
  000a6	cc		 int	 3
?PMC_Equals_X_X@Internal@Core@Math@Palmtree@@YGIPAU__tag_PMC_HANDLE_UINT@1234@0@Z ENDP ; Palmtree::Math::Core::Internal::PMC_Equals_X_X
_TEXT	ENDS
; Function compile flags: /Ogtp
; File z:\sources\lunor\repos\rougemeilland\palmtree.math.core.uint\palmtree.math.core.uint\pmc_equals.cpp
;	COMDAT ?PMC_Equals_X_L@Internal@Core@Math@Palmtree@@YGIPAU__tag_PMC_HANDLE_UINT@1234@_K@Z
_TEXT	SEGMENT
$T1 = -24						; size = 24
_u$ = 8							; size = 4
_v$ = 12						; size = 8
?PMC_Equals_X_L@Internal@Core@Math@Palmtree@@YGIPAU__tag_PMC_HANDLE_UINT@1234@_K@Z PROC ; Palmtree::Math::Core::Internal::PMC_Equals_X_L, COMDAT

; 209  :     {

  00000	55		 push	 ebp
  00001	8b ec		 mov	 ebp, esp
  00003	83 ec 18	 sub	 esp, 24			; 00000018H
  00006	56		 push	 esi

; 210  :         if (__UNIT_TYPE_BIT_COUNT * 2 < sizeof(v) * 8)
; 211  :         {
; 212  :             // _UINT64_T が 2 ワードで表現しきれない処理系には対応しない
; 213  :             throw InternalErrorException(L"予期していないコードに到達しました。", L"pmc_equals.cpp;PMC_Equals_X_L;1");
; 214  :         }
; 215  :         if (u == nullptr)

  00007	8b 75 08	 mov	 esi, DWORD PTR _u$[ebp]
  0000a	85 f6		 test	 esi, esi
  0000c	74 1c		 je	 SHORT $LN7@PMC_Equals

; 217  :         CheckNumber((NUMBER_HEADER*)u);

  0000e	56		 push	 esi
  0000f	e8 00 00 00 00	 call	 ?CheckNumber@Internal@Core@Math@Palmtree@@YAXPAU__tag_NUMBER_HEADER@1234@@Z ; Palmtree::Math::Core::Internal::CheckNumber

; 218  :         _UINT32_T w = Equals_X_L_Imp((NUMBER_HEADER*)u, v);

  00014	ff 75 10	 push	 DWORD PTR _v$[ebp+4]
  00017	ff 75 0c	 push	 DWORD PTR _v$[ebp]
  0001a	56		 push	 esi
  0001b	e8 00 00 00 00	 call	 ?Equals_X_L_Imp@Internal@Core@Math@Palmtree@@YAIPAU__tag_NUMBER_HEADER@1234@_K@Z ; Palmtree::Math::Core::Internal::Equals_X_L_Imp
  00020	83 c4 10	 add	 esp, 16			; 00000010H

; 219  : #ifdef _DEBUG
; 220  :         if (w != 0 && w != 1)
; 221  :             throw InternalErrorException(L"内部エラーが発生しました。", L"pmc_equals.cpp;PMC_Equals_X_L;2");
; 222  : #endif
; 223  :         return (w);

  00023	5e		 pop	 esi

; 224  :     }

  00024	8b e5		 mov	 esp, ebp
  00026	5d		 pop	 ebp
  00027	c2 0c 00	 ret	 12			; 0000000cH
$LN7@PMC_Equals:

; 216  :             throw ArgumentNullException(L"引数にnullptrが与えられています。", L"u");

  0002a	68 00 00 00 00	 push	 OFFSET ??_C@_13ICFKHAEN@?$AAu@
  0002f	68 00 00 00 00	 push	 OFFSET ??_C@_1CK@ECFIEPAC@?$AA?$BF?$AAp?$AAk?$AAn?$AAu?$AAl?$AAl?$AAp?$AAt?$AAr?$AAL?$AA?$AO?$AAH?$PP?$IJ?$PP?$IM@
  00034	8d 4d e8	 lea	 ecx, DWORD PTR $T1[ebp]
  00037	e8 00 00 00 00	 call	 ??0ArgumentNullException@Internal@Core@Math@Palmtree@@QAE@PB_W0@Z ; Palmtree::Math::Core::Internal::ArgumentNullException::ArgumentNullException
  0003c	68 00 00 00 00	 push	 OFFSET __TI2?AVArgumentNullException@Internal@Core@Math@Palmtree@@
  00041	8d 45 e8	 lea	 eax, DWORD PTR $T1[ebp]
  00044	50		 push	 eax
  00045	e8 00 00 00 00	 call	 __CxxThrowException@8
$LN5@PMC_Equals:
  0004a	cc		 int	 3
?PMC_Equals_X_L@Internal@Core@Math@Palmtree@@YGIPAU__tag_PMC_HANDLE_UINT@1234@_K@Z ENDP ; Palmtree::Math::Core::Internal::PMC_Equals_X_L
_TEXT	ENDS
; Function compile flags: /Ogtp
; File z:\sources\lunor\repos\rougemeilland\palmtree.math.core.uint\palmtree.math.core.uint\pmc_equals.cpp
;	COMDAT ?PMC_Equals_X_I@Internal@Core@Math@Palmtree@@YGIPAU__tag_PMC_HANDLE_UINT@1234@I@Z
_TEXT	SEGMENT
$T1 = -24						; size = 24
_u$ = 8							; size = 4
_v$ = 12						; size = 4
?PMC_Equals_X_I@Internal@Core@Math@Palmtree@@YGIPAU__tag_PMC_HANDLE_UINT@1234@I@Z PROC ; Palmtree::Math::Core::Internal::PMC_Equals_X_I, COMDAT

; 173  :     {

  00000	55		 push	 ebp
  00001	8b ec		 mov	 ebp, esp
  00003	83 ec 18	 sub	 esp, 24			; 00000018H
  00006	56		 push	 esi

; 174  :         if (__UNIT_TYPE_BIT_COUNT < sizeof(v) * 8)
; 175  :         {
; 176  :             // _UINT32_T が 1 ワードで表現しきれない処理系には対応しない
; 177  :             throw InternalErrorException(L"予期していないコードに到達しました。", L"pmc_equals.cpp;PMC_Equals_X_I;1");
; 178  :         }
; 179  :         if (u == nullptr)

  00007	8b 75 08	 mov	 esi, DWORD PTR _u$[ebp]
  0000a	85 f6		 test	 esi, esi
  0000c	74 19		 je	 SHORT $LN7@PMC_Equals

; 181  :         CheckNumber((NUMBER_HEADER*)u);

  0000e	56		 push	 esi
  0000f	e8 00 00 00 00	 call	 ?CheckNumber@Internal@Core@Math@Palmtree@@YAXPAU__tag_NUMBER_HEADER@1234@@Z ; Palmtree::Math::Core::Internal::CheckNumber

; 182  :         _INT32_T w = Equals_X_I_Imp((NUMBER_HEADER*)u, v);

  00014	ff 75 0c	 push	 DWORD PTR _v$[ebp]
  00017	56		 push	 esi
  00018	e8 00 00 00 00	 call	 ?Equals_X_I_Imp@Internal@Core@Math@Palmtree@@YAIPAU__tag_NUMBER_HEADER@1234@I@Z ; Palmtree::Math::Core::Internal::Equals_X_I_Imp
  0001d	83 c4 0c	 add	 esp, 12			; 0000000cH

; 183  : #ifdef _DEBUG
; 184  :         if (w != 0 && w != 1)
; 185  :             throw InternalErrorException(L"内部エラーが発生しました。", L"pmc_equals.cpp;PMC_Equals_X_I;2");
; 186  : #endif
; 187  :         return (w);

  00020	5e		 pop	 esi

; 188  :     }

  00021	8b e5		 mov	 esp, ebp
  00023	5d		 pop	 ebp
  00024	c2 08 00	 ret	 8
$LN7@PMC_Equals:

; 180  :             throw ArgumentNullException(L"引数にnullptrが与えられています。", L"u");

  00027	68 00 00 00 00	 push	 OFFSET ??_C@_13ICFKHAEN@?$AAu@
  0002c	68 00 00 00 00	 push	 OFFSET ??_C@_1CK@ECFIEPAC@?$AA?$BF?$AAp?$AAk?$AAn?$AAu?$AAl?$AAl?$AAp?$AAt?$AAr?$AAL?$AA?$AO?$AAH?$PP?$IJ?$PP?$IM@
  00031	8d 4d e8	 lea	 ecx, DWORD PTR $T1[ebp]
  00034	e8 00 00 00 00	 call	 ??0ArgumentNullException@Internal@Core@Math@Palmtree@@QAE@PB_W0@Z ; Palmtree::Math::Core::Internal::ArgumentNullException::ArgumentNullException
  00039	68 00 00 00 00	 push	 OFFSET __TI2?AVArgumentNullException@Internal@Core@Math@Palmtree@@
  0003e	8d 45 e8	 lea	 eax, DWORD PTR $T1[ebp]
  00041	50		 push	 eax
  00042	e8 00 00 00 00	 call	 __CxxThrowException@8
$LN5@PMC_Equals:
  00047	cc		 int	 3
?PMC_Equals_X_I@Internal@Core@Math@Palmtree@@YGIPAU__tag_PMC_HANDLE_UINT@1234@I@Z ENDP ; Palmtree::Math::Core::Internal::PMC_Equals_X_I
_TEXT	ENDS
; Function compile flags: /Ogtp
; File z:\sources\lunor\repos\rougemeilland\palmtree.math.core.uint\palmtree.math.core.uint\pmc_equals.cpp
;	COMDAT ?PMC_Equals_L_X@Internal@Core@Math@Palmtree@@YGI_KPAU__tag_PMC_HANDLE_UINT@1234@@Z
_TEXT	SEGMENT
$T1 = -24						; size = 24
_u$ = 8							; size = 8
_v$ = 16						; size = 4
?PMC_Equals_L_X@Internal@Core@Math@Palmtree@@YGI_KPAU__tag_PMC_HANDLE_UINT@1234@@Z PROC ; Palmtree::Math::Core::Internal::PMC_Equals_L_X, COMDAT

; 191  :     {

  00000	55		 push	 ebp
  00001	8b ec		 mov	 ebp, esp
  00003	83 ec 18	 sub	 esp, 24			; 00000018H
  00006	56		 push	 esi

; 192  :         if (__UNIT_TYPE_BIT_COUNT * 2 < sizeof(u) * 8)
; 193  :         {
; 194  :             // _UINT64_T が 2 ワードで表現しきれない処理系には対応しない
; 195  :             throw InternalErrorException(L"予期していないコードに到達しました。", L"pmc_equals.cpp;PMC_Equals_L_X;1");
; 196  :         }
; 197  :         if (v == nullptr)

  00007	8b 75 10	 mov	 esi, DWORD PTR _v$[ebp]
  0000a	85 f6		 test	 esi, esi
  0000c	74 1c		 je	 SHORT $LN7@PMC_Equals

; 199  :         CheckNumber((NUMBER_HEADER*)v);

  0000e	56		 push	 esi
  0000f	e8 00 00 00 00	 call	 ?CheckNumber@Internal@Core@Math@Palmtree@@YAXPAU__tag_NUMBER_HEADER@1234@@Z ; Palmtree::Math::Core::Internal::CheckNumber

; 200  :         _UINT32_T w = Equals_X_L_Imp((NUMBER_HEADER*)v, u);

  00014	ff 75 0c	 push	 DWORD PTR _u$[ebp+4]
  00017	ff 75 08	 push	 DWORD PTR _u$[ebp]
  0001a	56		 push	 esi
  0001b	e8 00 00 00 00	 call	 ?Equals_X_L_Imp@Internal@Core@Math@Palmtree@@YAIPAU__tag_NUMBER_HEADER@1234@_K@Z ; Palmtree::Math::Core::Internal::Equals_X_L_Imp
  00020	83 c4 10	 add	 esp, 16			; 00000010H

; 201  : #ifdef _DEBUG
; 202  :         if (w != 0 && w != 1)
; 203  :             throw InternalErrorException(L"内部エラーが発生しました。", L"pmc_equals.cpp;PMC_Equals_L_X;2");
; 204  : #endif
; 205  :         return (w);

  00023	5e		 pop	 esi

; 206  :     }

  00024	8b e5		 mov	 esp, ebp
  00026	5d		 pop	 ebp
  00027	c2 0c 00	 ret	 12			; 0000000cH
$LN7@PMC_Equals:

; 198  :             throw ArgumentNullException(L"引数にnullptrが与えられています。", L"v");

  0002a	68 00 00 00 00	 push	 OFFSET ??_C@_13JAOPNPKD@?$AAv@
  0002f	68 00 00 00 00	 push	 OFFSET ??_C@_1CK@ECFIEPAC@?$AA?$BF?$AAp?$AAk?$AAn?$AAu?$AAl?$AAl?$AAp?$AAt?$AAr?$AAL?$AA?$AO?$AAH?$PP?$IJ?$PP?$IM@
  00034	8d 4d e8	 lea	 ecx, DWORD PTR $T1[ebp]
  00037	e8 00 00 00 00	 call	 ??0ArgumentNullException@Internal@Core@Math@Palmtree@@QAE@PB_W0@Z ; Palmtree::Math::Core::Internal::ArgumentNullException::ArgumentNullException
  0003c	68 00 00 00 00	 push	 OFFSET __TI2?AVArgumentNullException@Internal@Core@Math@Palmtree@@
  00041	8d 45 e8	 lea	 eax, DWORD PTR $T1[ebp]
  00044	50		 push	 eax
  00045	e8 00 00 00 00	 call	 __CxxThrowException@8
$LN5@PMC_Equals:
  0004a	cc		 int	 3
?PMC_Equals_L_X@Internal@Core@Math@Palmtree@@YGI_KPAU__tag_PMC_HANDLE_UINT@1234@@Z ENDP ; Palmtree::Math::Core::Internal::PMC_Equals_L_X
_TEXT	ENDS
; Function compile flags: /Ogtp
; File z:\sources\lunor\repos\rougemeilland\palmtree.math.core.uint\palmtree.math.core.uint\pmc_equals.cpp
;	COMDAT ?PMC_Equals_I_X@Internal@Core@Math@Palmtree@@YGIIPAU__tag_PMC_HANDLE_UINT@1234@@Z
_TEXT	SEGMENT
$T1 = -24						; size = 24
_u$ = 8							; size = 4
_v$ = 12						; size = 4
?PMC_Equals_I_X@Internal@Core@Math@Palmtree@@YGIIPAU__tag_PMC_HANDLE_UINT@1234@@Z PROC ; Palmtree::Math::Core::Internal::PMC_Equals_I_X, COMDAT

; 155  :     {

  00000	55		 push	 ebp
  00001	8b ec		 mov	 ebp, esp
  00003	83 ec 18	 sub	 esp, 24			; 00000018H
  00006	56		 push	 esi

; 156  :         if (__UNIT_TYPE_BIT_COUNT < sizeof(u) * 8)
; 157  :         {
; 158  :             // _UINT32_T が 1 ワードで表現しきれない処理系には対応しない
; 159  :             throw InternalErrorException(L"予期していないコードに到達しました。", L"pmc_equals.cpp;PMC_Equals_I_X;1");
; 160  :         }
; 161  :         if (v == nullptr)

  00007	8b 75 0c	 mov	 esi, DWORD PTR _v$[ebp]
  0000a	85 f6		 test	 esi, esi
  0000c	74 19		 je	 SHORT $LN7@PMC_Equals

; 163  :         CheckNumber((NUMBER_HEADER*)v);

  0000e	56		 push	 esi
  0000f	e8 00 00 00 00	 call	 ?CheckNumber@Internal@Core@Math@Palmtree@@YAXPAU__tag_NUMBER_HEADER@1234@@Z ; Palmtree::Math::Core::Internal::CheckNumber

; 164  :         _UINT32_T w = Equals_X_I_Imp((NUMBER_HEADER*)v, u);

  00014	ff 75 08	 push	 DWORD PTR _u$[ebp]
  00017	56		 push	 esi
  00018	e8 00 00 00 00	 call	 ?Equals_X_I_Imp@Internal@Core@Math@Palmtree@@YAIPAU__tag_NUMBER_HEADER@1234@I@Z ; Palmtree::Math::Core::Internal::Equals_X_I_Imp
  0001d	83 c4 0c	 add	 esp, 12			; 0000000cH

; 165  : #ifdef _DEBUG
; 166  :         if (w != 0 && w != 1)
; 167  :             throw InternalErrorException(L"内部エラーが発生しました。", L"pmc_equals.cpp;PMC_Equals_I_X;2");
; 168  : #endif
; 169  :         return (w);

  00020	5e		 pop	 esi

; 170  :     }

  00021	8b e5		 mov	 esp, ebp
  00023	5d		 pop	 ebp
  00024	c2 08 00	 ret	 8
$LN7@PMC_Equals:

; 162  :             throw ArgumentNullException(L"引数にnullptrが与えられています。", L"v");

  00027	68 00 00 00 00	 push	 OFFSET ??_C@_13JAOPNPKD@?$AAv@
  0002c	68 00 00 00 00	 push	 OFFSET ??_C@_1CK@ECFIEPAC@?$AA?$BF?$AAp?$AAk?$AAn?$AAu?$AAl?$AAl?$AAp?$AAt?$AAr?$AAL?$AA?$AO?$AAH?$PP?$IJ?$PP?$IM@
  00031	8d 4d e8	 lea	 ecx, DWORD PTR $T1[ebp]
  00034	e8 00 00 00 00	 call	 ??0ArgumentNullException@Internal@Core@Math@Palmtree@@QAE@PB_W0@Z ; Palmtree::Math::Core::Internal::ArgumentNullException::ArgumentNullException
  00039	68 00 00 00 00	 push	 OFFSET __TI2?AVArgumentNullException@Internal@Core@Math@Palmtree@@
  0003e	8d 45 e8	 lea	 eax, DWORD PTR $T1[ebp]
  00041	50		 push	 eax
  00042	e8 00 00 00 00	 call	 __CxxThrowException@8
$LN5@PMC_Equals:
  00047	cc		 int	 3
?PMC_Equals_I_X@Internal@Core@Math@Palmtree@@YGIIPAU__tag_PMC_HANDLE_UINT@1234@@Z ENDP ; Palmtree::Math::Core::Internal::PMC_Equals_I_X
_TEXT	ENDS
; Function compile flags: /Ogtp
; File z:\sources\lunor\repos\rougemeilland\palmtree.math.core.uint\palmtree.math.core.uint\pmc_equals.cpp
;	COMDAT ?Initialize_Equals@Internal@Core@Math@Palmtree@@YAHPAU_tag_PROCESSOR_FEATURES@1234@@Z
_TEXT	SEGMENT
_feature$ = 8						; size = 4
?Initialize_Equals@Internal@Core@Math@Palmtree@@YAHPAU_tag_PROCESSOR_FEATURES@1234@@Z PROC ; Palmtree::Math::Core::Internal::Initialize_Equals, COMDAT

; 265  :         return (PMC_STATUS_OK);

  00000	33 c0		 xor	 eax, eax

; 266  :     }

  00002	c3		 ret	 0
?Initialize_Equals@Internal@Core@Math@Palmtree@@YAHPAU_tag_PROCESSOR_FEATURES@1234@@Z ENDP ; Palmtree::Math::Core::Internal::Initialize_Equals
_TEXT	ENDS
; Function compile flags: /Ogtp
; File z:\sources\lunor\repos\rougemeilland\palmtree.math.core.uint\palmtree.math.core.uint\pmc_exception.h
; File c:\program files (x86)\microsoft visual studio\2017\community\vc\tools\msvc\14.16.27023\include\vcruntime_exception.h
;	COMDAT ??_GInternalErrorException@Internal@Core@Math@Palmtree@@UAEPAXI@Z
_TEXT	SEGMENT
_this$ = -16						; size = 4
__$EHRec$ = -12						; size = 12
___flags$ = 8						; size = 4
??_GInternalErrorException@Internal@Core@Math@Palmtree@@UAEPAXI@Z PROC ; Palmtree::Math::Core::Internal::InternalErrorException::`scalar deleting destructor', COMDAT
; _this$ = ecx
  00000	55		 push	 ebp
  00001	8b ec		 mov	 ebp, esp
  00003	6a ff		 push	 -1
  00005	68 00 00 00 00	 push	 __ehhandler$??_GInternalErrorException@Internal@Core@Math@Palmtree@@UAEPAXI@Z
  0000a	64 a1 00 00 00
	00		 mov	 eax, DWORD PTR fs:0
  00010	50		 push	 eax
  00011	51		 push	 ecx
  00012	56		 push	 esi
  00013	a1 00 00 00 00	 mov	 eax, DWORD PTR ___security_cookie
  00018	33 c5		 xor	 eax, ebp
  0001a	50		 push	 eax
  0001b	8d 45 f4	 lea	 eax, DWORD PTR __$EHRec$[ebp]
  0001e	64 a3 00 00 00
	00		 mov	 DWORD PTR fs:0, eax
  00024	8b f1		 mov	 esi, ecx
  00026	89 75 f0	 mov	 DWORD PTR _this$[ebp], esi
; File z:\sources\lunor\repos\rougemeilland\palmtree.math.core.uint\palmtree.math.core.uint\pmc_exception.h

; 295  :         {

  00029	c7 06 00 00 00
	00		 mov	 DWORD PTR [esi], OFFSET ??_7InternalErrorException@Internal@Core@Math@Palmtree@@6B@

; 296  :         }

  0002f	c7 45 fc ff ff
	ff ff		 mov	 DWORD PTR __$EHRec$[ebp+8], -1

; 70   :         {

  00036	c7 06 00 00 00
	00		 mov	 DWORD PTR [esi], OFFSET ??_7Exception@Internal@Core@Math@Palmtree@@6B@

; 71   :         }

  0003c	c7 45 fc ff ff
	ff ff		 mov	 DWORD PTR __$EHRec$[ebp+8], -1
; File c:\program files (x86)\microsoft visual studio\2017\community\vc\tools\msvc\14.16.27023\include\vcruntime_exception.h

; 86   :         __std_exception_destroy(&_Data);

  00043	8d 46 04	 lea	 eax, DWORD PTR [esi+4]
  00046	50		 push	 eax
  00047	c7 06 00 00 00
	00		 mov	 DWORD PTR [esi], OFFSET ??_7exception@std@@6B@
  0004d	e8 00 00 00 00	 call	 ___std_exception_destroy
  00052	83 c4 04	 add	 esp, 4
  00055	f6 45 08 01	 test	 BYTE PTR ___flags$[ebp], 1
  00059	74 0b		 je	 SHORT $LN12@scalar
  0005b	6a 18		 push	 24			; 00000018H
  0005d	56		 push	 esi
  0005e	e8 00 00 00 00	 call	 ??3@YAXPAXI@Z		; operator delete
  00063	83 c4 08	 add	 esp, 8
$LN12@scalar:
  00066	8b c6		 mov	 eax, esi
  00068	8b 4d f4	 mov	 ecx, DWORD PTR __$EHRec$[ebp]
  0006b	64 89 0d 00 00
	00 00		 mov	 DWORD PTR fs:0, ecx
  00072	59		 pop	 ecx
  00073	5e		 pop	 esi
  00074	8b e5		 mov	 esp, ebp
  00076	5d		 pop	 ebp
  00077	c2 04 00	 ret	 4
_TEXT	ENDS
;	COMDAT text$x
text$x	SEGMENT
__unwindfunclet$??_GInternalErrorException@Internal@Core@Math@Palmtree@@UAEPAXI@Z$0:
  00000	8b 4d f0	 mov	 ecx, DWORD PTR _this$[ebp]
  00003	e9 00 00 00 00	 jmp	 ??1Exception@Internal@Core@Math@Palmtree@@UAE@XZ ; Palmtree::Math::Core::Internal::Exception::~Exception
__unwindfunclet$??_GInternalErrorException@Internal@Core@Math@Palmtree@@UAEPAXI@Z$1:
  00008	8b 4d f0	 mov	 ecx, DWORD PTR _this$[ebp]
  0000b	e9 00 00 00 00	 jmp	 ??1exception@std@@UAE@XZ ; std::exception::~exception
__ehhandler$??_GInternalErrorException@Internal@Core@Math@Palmtree@@UAEPAXI@Z:
  00010	8b 54 24 08	 mov	 edx, DWORD PTR [esp+8]
  00014	8d 42 0c	 lea	 eax, DWORD PTR [edx+12]
  00017	8b 4a f4	 mov	 ecx, DWORD PTR [edx-12]
  0001a	33 c8		 xor	 ecx, eax
  0001c	e8 00 00 00 00	 call	 @__security_check_cookie@4
  00021	b8 00 00 00 00	 mov	 eax, OFFSET __ehfuncinfo$??_GInternalErrorException@Internal@Core@Math@Palmtree@@UAEPAXI@Z
  00026	e9 00 00 00 00	 jmp	 ___CxxFrameHandler3
text$x	ENDS
??_GInternalErrorException@Internal@Core@Math@Palmtree@@UAEPAXI@Z ENDP ; Palmtree::Math::Core::Internal::InternalErrorException::`scalar deleting destructor'
; Function compile flags: /Ogtp
; File z:\sources\lunor\repos\rougemeilland\palmtree.math.core.uint\palmtree.math.core.uint\pmc_exception.h
; File c:\program files (x86)\microsoft visual studio\2017\community\vc\tools\msvc\14.16.27023\include\vcruntime_exception.h
; File z:\sources\lunor\repos\rougemeilland\palmtree.math.core.uint\palmtree.math.core.uint\pmc_exception.h
;	COMDAT ??1InternalErrorException@Internal@Core@Math@Palmtree@@UAE@XZ
_TEXT	SEGMENT
_this$ = -16						; size = 4
__$EHRec$ = -12						; size = 12
??1InternalErrorException@Internal@Core@Math@Palmtree@@UAE@XZ PROC ; Palmtree::Math::Core::Internal::InternalErrorException::~InternalErrorException, COMDAT
; _this$ = ecx

; 295  :         {

  00000	55		 push	 ebp
  00001	8b ec		 mov	 ebp, esp
  00003	6a ff		 push	 -1
  00005	68 00 00 00 00	 push	 __ehhandler$??1InternalErrorException@Internal@Core@Math@Palmtree@@UAE@XZ
  0000a	64 a1 00 00 00
	00		 mov	 eax, DWORD PTR fs:0
  00010	50		 push	 eax
  00011	51		 push	 ecx
  00012	a1 00 00 00 00	 mov	 eax, DWORD PTR ___security_cookie
  00017	33 c5		 xor	 eax, ebp
  00019	50		 push	 eax
  0001a	8d 45 f4	 lea	 eax, DWORD PTR __$EHRec$[ebp]
  0001d	64 a3 00 00 00
	00		 mov	 DWORD PTR fs:0, eax
  00023	89 4d f0	 mov	 DWORD PTR _this$[ebp], ecx
  00026	c7 01 00 00 00
	00		 mov	 DWORD PTR [ecx], OFFSET ??_7InternalErrorException@Internal@Core@Math@Palmtree@@6B@

; 296  :         }

  0002c	c7 45 fc ff ff
	ff ff		 mov	 DWORD PTR __$EHRec$[ebp+8], -1

; 70   :         {

  00033	c7 01 00 00 00
	00		 mov	 DWORD PTR [ecx], OFFSET ??_7Exception@Internal@Core@Math@Palmtree@@6B@

; 71   :         }

  00039	c7 45 fc ff ff
	ff ff		 mov	 DWORD PTR __$EHRec$[ebp+8], -1
; File c:\program files (x86)\microsoft visual studio\2017\community\vc\tools\msvc\14.16.27023\include\vcruntime_exception.h

; 86   :         __std_exception_destroy(&_Data);

  00040	8d 41 04	 lea	 eax, DWORD PTR [ecx+4]
  00043	50		 push	 eax
  00044	c7 01 00 00 00
	00		 mov	 DWORD PTR [ecx], OFFSET ??_7exception@std@@6B@
  0004a	e8 00 00 00 00	 call	 ___std_exception_destroy
  0004f	83 c4 04	 add	 esp, 4
; File z:\sources\lunor\repos\rougemeilland\palmtree.math.core.uint\palmtree.math.core.uint\pmc_exception.h

; 296  :         }

  00052	8b 4d f4	 mov	 ecx, DWORD PTR __$EHRec$[ebp]
  00055	64 89 0d 00 00
	00 00		 mov	 DWORD PTR fs:0, ecx
  0005c	59		 pop	 ecx
  0005d	8b e5		 mov	 esp, ebp
  0005f	5d		 pop	 ebp
  00060	c3		 ret	 0
_TEXT	ENDS
;	COMDAT text$x
text$x	SEGMENT
__unwindfunclet$??1InternalErrorException@Internal@Core@Math@Palmtree@@UAE@XZ$0:
  00000	8b 4d f0	 mov	 ecx, DWORD PTR _this$[ebp]
  00003	e9 00 00 00 00	 jmp	 ??1Exception@Internal@Core@Math@Palmtree@@UAE@XZ ; Palmtree::Math::Core::Internal::Exception::~Exception
__unwindfunclet$??1InternalErrorException@Internal@Core@Math@Palmtree@@UAE@XZ$1:
  00008	8b 4d f0	 mov	 ecx, DWORD PTR _this$[ebp]
  0000b	e9 00 00 00 00	 jmp	 ??1exception@std@@UAE@XZ ; std::exception::~exception
__ehhandler$??1InternalErrorException@Internal@Core@Math@Palmtree@@UAE@XZ:
  00010	8b 54 24 08	 mov	 edx, DWORD PTR [esp+8]
  00014	8d 42 0c	 lea	 eax, DWORD PTR [edx+12]
  00017	8b 4a f8	 mov	 ecx, DWORD PTR [edx-8]
  0001a	33 c8		 xor	 ecx, eax
  0001c	e8 00 00 00 00	 call	 @__security_check_cookie@4
  00021	b8 00 00 00 00	 mov	 eax, OFFSET __ehfuncinfo$??1InternalErrorException@Internal@Core@Math@Palmtree@@UAE@XZ
  00026	e9 00 00 00 00	 jmp	 ___CxxFrameHandler3
text$x	ENDS
??1InternalErrorException@Internal@Core@Math@Palmtree@@UAE@XZ ENDP ; Palmtree::Math::Core::Internal::InternalErrorException::~InternalErrorException
; Function compile flags: /Ogtp
; File z:\sources\lunor\repos\rougemeilland\palmtree.math.core.uint\palmtree.math.core.uint\pmc_exception.h
; File c:\program files (x86)\microsoft visual studio\2017\community\vc\tools\msvc\14.16.27023\include\vcruntime_exception.h
; File z:\sources\lunor\repos\rougemeilland\palmtree.math.core.uint\palmtree.math.core.uint\pmc_exception.h
;	COMDAT ??0InternalErrorException@Internal@Core@Math@Palmtree@@QAE@PB_W0@Z
_TEXT	SEGMENT
_this$ = -16						; size = 4
__$EHRec$ = -12						; size = 12
_message$ = 8						; size = 4
_data$ = 12						; size = 4
??0InternalErrorException@Internal@Core@Math@Palmtree@@QAE@PB_W0@Z PROC ; Palmtree::Math::Core::Internal::InternalErrorException::InternalErrorException, COMDAT
; _this$ = ecx

; 286  :         {

  00000	55		 push	 ebp
  00001	8b ec		 mov	 ebp, esp
  00003	6a ff		 push	 -1
  00005	68 00 00 00 00	 push	 __ehhandler$??0InternalErrorException@Internal@Core@Math@Palmtree@@QAE@PB_W0@Z
  0000a	64 a1 00 00 00
	00		 mov	 eax, DWORD PTR fs:0
  00010	50		 push	 eax
  00011	51		 push	 ecx
  00012	a1 00 00 00 00	 mov	 eax, DWORD PTR ___security_cookie
  00017	33 c5		 xor	 eax, ebp
  00019	50		 push	 eax
  0001a	8d 45 f4	 lea	 eax, DWORD PTR __$EHRec$[ebp]
  0001d	64 a3 00 00 00
	00		 mov	 DWORD PTR fs:0, eax
  00023	89 4d f0	 mov	 DWORD PTR _this$[ebp], ecx
  00026	0f 57 c0	 xorps	 xmm0, xmm0
; File c:\program files (x86)\microsoft visual studio\2017\community\vc\tools\msvc\14.16.27023\include\vcruntime_exception.h

; 50   :     {

  00029	c7 01 00 00 00
	00		 mov	 DWORD PTR [ecx], OFFSET ??_7exception@std@@6B@
  0002f	66 0f d6 41 04	 movq	 QWORD PTR [ecx+4], xmm0
; File z:\sources\lunor\repos\rougemeilland\palmtree.math.core.uint\palmtree.math.core.uint\pmc_exception.h

; 54   :         Exception(PMC_STATUS_CODE code, const wchar_t* message, const wchar_t* data) noexcept(true)

  00034	c7 45 fc 00 00
	00 00		 mov	 DWORD PTR __$EHRec$[ebp+8], 0

; 55   :         {
; 56   :             _code = code;
; 57   :             _message = message;

  0003b	8b 45 08	 mov	 eax, DWORD PTR _message$[ebp]
  0003e	89 41 10	 mov	 DWORD PTR [ecx+16], eax

; 58   :             _data = data;

  00041	8b 45 0c	 mov	 eax, DWORD PTR _data$[ebp]
  00044	c7 01 00 00 00
	00		 mov	 DWORD PTR [ecx], OFFSET ??_7Exception@Internal@Core@Math@Palmtree@@6B@
  0004a	c7 41 0c 00 ff
	ff ff		 mov	 DWORD PTR [ecx+12], -256 ; ffffff00H
  00051	89 41 14	 mov	 DWORD PTR [ecx+20], eax

; 59   :         }
; 60   : 
; 61   :     public:
; 62   :         Exception(const Exception& p) noexcept(true)
; 63   :         {
; 64   :             _code = p._code;
; 65   :             _message = p._message;
; 66   :             _data = p._data;
; 67   :         }
; 68   : 
; 69   :         virtual ~Exception() noexcept(true)
; 70   :         {
; 71   :         }
; 72   : 
; 73   :         PMC_STATUS_CODE GetStatusCode() const noexcept(true)
; 74   :         {
; 75   :             return (_code);
; 76   :         }
; 77   : 
; 78   :         wchar_t const* What() const noexcept(true)
; 79   :         {
; 80   :             return (_message);
; 81   :         }
; 82   : 
; 83   :         wchar_t const* Data() const noexcept(true)
; 84   :         {
; 85   :             return (_data);
; 86   :         }
; 87   : 
; 88   :     };
; 89   : 
; 90   :     class ArgumentException
; 91   :         : public Exception
; 92   :     {
; 93   :     public:
; 94   :         ArgumentException(const wchar_t* message) noexcept(true)
; 95   :             : Exception(PMC_STATUS_ARGUMENT_ERROR, message)
; 96   :         {
; 97   :         }
; 98   : 
; 99   :         ArgumentException(const ArgumentException& p) noexcept(true)
; 100  :             : Exception(p)
; 101  :         {
; 102  :         }
; 103  : 
; 104  :         virtual ~ArgumentException() noexcept(true)
; 105  :         {
; 106  :         }
; 107  :     };
; 108  : 
; 109  :     class ArgumentNullException
; 110  :         : public Exception
; 111  :     {
; 112  :     public:
; 113  :         ArgumentNullException(const wchar_t* message, const wchar_t* param_name) noexcept(true)
; 114  :             : Exception(PMC_STATUS_ARGUMENT_NULL_ERROR, message, param_name)
; 115  :         {
; 116  :         }
; 117  : 
; 118  :         ArgumentNullException(const ArgumentNullException& p) noexcept(true)
; 119  :             : Exception(p)
; 120  :         {
; 121  :         }
; 122  : 
; 123  :         virtual ~ArgumentNullException() noexcept(true)
; 124  :         {
; 125  :         }
; 126  :     };
; 127  : 
; 128  :     class ArgumentOutOfRangeException
; 129  :         : public Exception
; 130  :     {
; 131  :     public:
; 132  :         ArgumentOutOfRangeException(const wchar_t* message) noexcept(true)
; 133  :             : Exception(PMC_STATUS_ARGUMENT_OUT_OF_RANGE_ERROR, message)
; 134  :         {
; 135  :         }
; 136  : 
; 137  :         ArgumentOutOfRangeException(const ArgumentOutOfRangeException& p) noexcept(true)
; 138  :             : Exception(p)
; 139  :         {
; 140  :         }
; 141  : 
; 142  :         virtual ~ArgumentOutOfRangeException() noexcept(true)
; 143  :         {
; 144  :         }
; 145  :     };
; 146  : 
; 147  :     class OverflowException
; 148  :         : public Exception
; 149  :     {
; 150  :     public:
; 151  :         OverflowException(const wchar_t* message) noexcept(true)
; 152  :             : Exception(PMC_STATUS_OVERFLOW, message)
; 153  :         {
; 154  :         }
; 155  : 
; 156  :         OverflowException(const OverflowException& p) noexcept(true)
; 157  :             : Exception(p)
; 158  :         {
; 159  :         }
; 160  : 
; 161  :         virtual ~OverflowException() noexcept(true)
; 162  :         {
; 163  :         }
; 164  :     };
; 165  : 
; 166  :     class DivisionByZeroException
; 167  :         : public Exception
; 168  :     {
; 169  :     public:
; 170  :         DivisionByZeroException(const wchar_t* message) noexcept(true)
; 171  :             : Exception(PMC_STATUS_DIVISION_BY_ZERO, message)
; 172  :         {
; 173  :         }
; 174  : 
; 175  :         DivisionByZeroException(const DivisionByZeroException& p) noexcept(true)
; 176  :             : Exception(p)
; 177  :         {
; 178  :         }
; 179  : 
; 180  :         virtual ~DivisionByZeroException() noexcept(true)
; 181  :         {
; 182  :         }
; 183  :     };
; 184  : 
; 185  :     class ArithmeticException
; 186  :         : public Exception
; 187  :     {
; 188  :     public:
; 189  :         ArithmeticException(const wchar_t* message) noexcept(true)
; 190  :             : Exception(PMC_STATUS_ARITHMETIC_ERROR, message)
; 191  :         {
; 192  :         }
; 193  : 
; 194  :         ArithmeticException(const OverflowException& p) noexcept(true)
; 195  :             : Exception(p)
; 196  :         {
; 197  :         }
; 198  : 
; 199  :         virtual ~ArithmeticException() noexcept(true)
; 200  :         {
; 201  :         }
; 202  :     };
; 203  : 
; 204  :     class FormatException
; 205  :         : public Exception
; 206  :     {
; 207  :     public:
; 208  :         FormatException(const wchar_t* message) noexcept(true)
; 209  :             : Exception(PMC_STATUS_FORMAT_ERROR, message)
; 210  :         {
; 211  :         }
; 212  : 
; 213  :         FormatException(const FormatException& p) noexcept(true)
; 214  :             : Exception(p)
; 215  :         {
; 216  :         }
; 217  : 
; 218  :         virtual ~FormatException() noexcept(true)
; 219  :         {
; 220  :         }
; 221  :     };
; 222  : 
; 223  :     class InsufficientBufferException
; 224  :         : public Exception
; 225  :     {
; 226  :     public:
; 227  :         InsufficientBufferException(const wchar_t* message)
; 228  :             : Exception(PMC_STATUS_INSUFFICIENT_BUFFER, message)
; 229  :         {
; 230  :         }
; 231  : 
; 232  :         InsufficientBufferException(const InsufficientBufferException& p) noexcept(true)
; 233  :             : Exception(p)
; 234  :         {
; 235  :         }
; 236  : 
; 237  :         virtual ~InsufficientBufferException() noexcept(true)
; 238  :         {
; 239  :         }
; 240  :     };
; 241  : 
; 242  :     class NotEnoughMemoryException
; 243  :         : public Exception
; 244  :     {
; 245  :     public:
; 246  :         NotEnoughMemoryException(const wchar_t* message) noexcept(true)
; 247  :             : Exception(PMC_STATUS_NOT_ENOUGH_MEMORY, message)
; 248  :         {
; 249  :         }
; 250  : 
; 251  :         NotEnoughMemoryException(const NotEnoughMemoryException& p) noexcept(true)
; 252  :             : Exception(p)
; 253  :         {
; 254  :         }
; 255  : 
; 256  :         virtual ~NotEnoughMemoryException() noexcept(true)
; 257  :         {
; 258  :         }
; 259  :     };
; 260  : 
; 261  :     class NotSupportedException
; 262  :         : public Exception
; 263  :     {
; 264  :     public:
; 265  :         NotSupportedException(const wchar_t* message) noexcept(true)
; 266  :             : Exception(PMC_STATUS_NOT_SUPPORTED, message)
; 267  :         {
; 268  :         }
; 269  : 
; 270  :         NotSupportedException(const NotSupportedException& p) noexcept(true)
; 271  :             : Exception(p)
; 272  :         {
; 273  :         }
; 274  : 
; 275  :         virtual ~NotSupportedException() noexcept(true)
; 276  :         {
; 277  :         }
; 278  :     };
; 279  : 
; 280  :     class InternalErrorException
; 281  :         : public Exception
; 282  :     {
; 283  :     public:
; 284  :         InternalErrorException(const wchar_t* message, const wchar_t* data) noexcept(true)
; 285  :             : Exception(PMC_STATUS_INTERNAL_ERROR, message, data)

  00054	c7 45 fc 01 00
	00 00		 mov	 DWORD PTR __$EHRec$[ebp+8], 1

; 286  :         {

  0005b	c7 01 00 00 00
	00		 mov	 DWORD PTR [ecx], OFFSET ??_7InternalErrorException@Internal@Core@Math@Palmtree@@6B@

; 287  :         }

  00061	c7 45 fc ff ff
	ff ff		 mov	 DWORD PTR __$EHRec$[ebp+8], -1
  00068	8b c1		 mov	 eax, ecx
  0006a	8b 4d f4	 mov	 ecx, DWORD PTR __$EHRec$[ebp]
  0006d	64 89 0d 00 00
	00 00		 mov	 DWORD PTR fs:0, ecx
  00074	59		 pop	 ecx
  00075	8b e5		 mov	 esp, ebp
  00077	5d		 pop	 ebp
  00078	c2 08 00	 ret	 8
_TEXT	ENDS
;	COMDAT text$x
text$x	SEGMENT
__unwindfunclet$??0InternalErrorException@Internal@Core@Math@Palmtree@@QAE@PB_W0@Z$1:
  00000	8b 4d f0	 mov	 ecx, DWORD PTR _this$[ebp]
  00003	e9 00 00 00 00	 jmp	 ??1exception@std@@UAE@XZ ; std::exception::~exception
__unwindfunclet$??0InternalErrorException@Internal@Core@Math@Palmtree@@QAE@PB_W0@Z$0:
  00008	8b 4d f0	 mov	 ecx, DWORD PTR _this$[ebp]
  0000b	e9 00 00 00 00	 jmp	 ??1Exception@Internal@Core@Math@Palmtree@@UAE@XZ ; Palmtree::Math::Core::Internal::Exception::~Exception
__ehhandler$??0InternalErrorException@Internal@Core@Math@Palmtree@@QAE@PB_W0@Z:
  00010	8b 54 24 08	 mov	 edx, DWORD PTR [esp+8]
  00014	8d 42 0c	 lea	 eax, DWORD PTR [edx+12]
  00017	8b 4a f8	 mov	 ecx, DWORD PTR [edx-8]
  0001a	33 c8		 xor	 ecx, eax
  0001c	e8 00 00 00 00	 call	 @__security_check_cookie@4
  00021	b8 00 00 00 00	 mov	 eax, OFFSET __ehfuncinfo$??0InternalErrorException@Internal@Core@Math@Palmtree@@QAE@PB_W0@Z
  00026	e9 00 00 00 00	 jmp	 ___CxxFrameHandler3
text$x	ENDS
??0InternalErrorException@Internal@Core@Math@Palmtree@@QAE@PB_W0@Z ENDP ; Palmtree::Math::Core::Internal::InternalErrorException::InternalErrorException
; Function compile flags: /Ogtp
; File z:\sources\lunor\repos\rougemeilland\palmtree.math.core.uint\palmtree.math.core.uint\pmc_exception.h
; File c:\program files (x86)\microsoft visual studio\2017\community\vc\tools\msvc\14.16.27023\include\vcruntime_exception.h
;	COMDAT ??_GArgumentNullException@Internal@Core@Math@Palmtree@@UAEPAXI@Z
_TEXT	SEGMENT
_this$ = -16						; size = 4
__$EHRec$ = -12						; size = 12
___flags$ = 8						; size = 4
??_GArgumentNullException@Internal@Core@Math@Palmtree@@UAEPAXI@Z PROC ; Palmtree::Math::Core::Internal::ArgumentNullException::`scalar deleting destructor', COMDAT
; _this$ = ecx
  00000	55		 push	 ebp
  00001	8b ec		 mov	 ebp, esp
  00003	6a ff		 push	 -1
  00005	68 00 00 00 00	 push	 __ehhandler$??_GArgumentNullException@Internal@Core@Math@Palmtree@@UAEPAXI@Z
  0000a	64 a1 00 00 00
	00		 mov	 eax, DWORD PTR fs:0
  00010	50		 push	 eax
  00011	51		 push	 ecx
  00012	56		 push	 esi
  00013	a1 00 00 00 00	 mov	 eax, DWORD PTR ___security_cookie
  00018	33 c5		 xor	 eax, ebp
  0001a	50		 push	 eax
  0001b	8d 45 f4	 lea	 eax, DWORD PTR __$EHRec$[ebp]
  0001e	64 a3 00 00 00
	00		 mov	 DWORD PTR fs:0, eax
  00024	8b f1		 mov	 esi, ecx
  00026	89 75 f0	 mov	 DWORD PTR _this$[ebp], esi
; File z:\sources\lunor\repos\rougemeilland\palmtree.math.core.uint\palmtree.math.core.uint\pmc_exception.h

; 124  :         {

  00029	c7 06 00 00 00
	00		 mov	 DWORD PTR [esi], OFFSET ??_7ArgumentNullException@Internal@Core@Math@Palmtree@@6B@

; 125  :         }

  0002f	c7 45 fc ff ff
	ff ff		 mov	 DWORD PTR __$EHRec$[ebp+8], -1

; 70   :         {

  00036	c7 06 00 00 00
	00		 mov	 DWORD PTR [esi], OFFSET ??_7Exception@Internal@Core@Math@Palmtree@@6B@

; 71   :         }

  0003c	c7 45 fc ff ff
	ff ff		 mov	 DWORD PTR __$EHRec$[ebp+8], -1
; File c:\program files (x86)\microsoft visual studio\2017\community\vc\tools\msvc\14.16.27023\include\vcruntime_exception.h

; 86   :         __std_exception_destroy(&_Data);

  00043	8d 46 04	 lea	 eax, DWORD PTR [esi+4]
  00046	50		 push	 eax
  00047	c7 06 00 00 00
	00		 mov	 DWORD PTR [esi], OFFSET ??_7exception@std@@6B@
  0004d	e8 00 00 00 00	 call	 ___std_exception_destroy
  00052	83 c4 04	 add	 esp, 4
  00055	f6 45 08 01	 test	 BYTE PTR ___flags$[ebp], 1
  00059	74 0b		 je	 SHORT $LN12@scalar
  0005b	6a 18		 push	 24			; 00000018H
  0005d	56		 push	 esi
  0005e	e8 00 00 00 00	 call	 ??3@YAXPAXI@Z		; operator delete
  00063	83 c4 08	 add	 esp, 8
$LN12@scalar:
  00066	8b c6		 mov	 eax, esi
  00068	8b 4d f4	 mov	 ecx, DWORD PTR __$EHRec$[ebp]
  0006b	64 89 0d 00 00
	00 00		 mov	 DWORD PTR fs:0, ecx
  00072	59		 pop	 ecx
  00073	5e		 pop	 esi
  00074	8b e5		 mov	 esp, ebp
  00076	5d		 pop	 ebp
  00077	c2 04 00	 ret	 4
_TEXT	ENDS
;	COMDAT text$x
text$x	SEGMENT
__unwindfunclet$??_GArgumentNullException@Internal@Core@Math@Palmtree@@UAEPAXI@Z$0:
  00000	8b 4d f0	 mov	 ecx, DWORD PTR _this$[ebp]
  00003	e9 00 00 00 00	 jmp	 ??1Exception@Internal@Core@Math@Palmtree@@UAE@XZ ; Palmtree::Math::Core::Internal::Exception::~Exception
__unwindfunclet$??_GArgumentNullException@Internal@Core@Math@Palmtree@@UAEPAXI@Z$1:
  00008	8b 4d f0	 mov	 ecx, DWORD PTR _this$[ebp]
  0000b	e9 00 00 00 00	 jmp	 ??1exception@std@@UAE@XZ ; std::exception::~exception
__ehhandler$??_GArgumentNullException@Internal@Core@Math@Palmtree@@UAEPAXI@Z:
  00010	8b 54 24 08	 mov	 edx, DWORD PTR [esp+8]
  00014	8d 42 0c	 lea	 eax, DWORD PTR [edx+12]
  00017	8b 4a f4	 mov	 ecx, DWORD PTR [edx-12]
  0001a	33 c8		 xor	 ecx, eax
  0001c	e8 00 00 00 00	 call	 @__security_check_cookie@4
  00021	b8 00 00 00 00	 mov	 eax, OFFSET __ehfuncinfo$??_GArgumentNullException@Internal@Core@Math@Palmtree@@UAEPAXI@Z
  00026	e9 00 00 00 00	 jmp	 ___CxxFrameHandler3
text$x	ENDS
??_GArgumentNullException@Internal@Core@Math@Palmtree@@UAEPAXI@Z ENDP ; Palmtree::Math::Core::Internal::ArgumentNullException::`scalar deleting destructor'
; Function compile flags: /Ogtp
; File z:\sources\lunor\repos\rougemeilland\palmtree.math.core.uint\palmtree.math.core.uint\pmc_exception.h
; File c:\program files (x86)\microsoft visual studio\2017\community\vc\tools\msvc\14.16.27023\include\vcruntime_exception.h
; File z:\sources\lunor\repos\rougemeilland\palmtree.math.core.uint\palmtree.math.core.uint\pmc_exception.h
;	COMDAT ??1ArgumentNullException@Internal@Core@Math@Palmtree@@UAE@XZ
_TEXT	SEGMENT
_this$ = -16						; size = 4
__$EHRec$ = -12						; size = 12
??1ArgumentNullException@Internal@Core@Math@Palmtree@@UAE@XZ PROC ; Palmtree::Math::Core::Internal::ArgumentNullException::~ArgumentNullException, COMDAT
; _this$ = ecx

; 124  :         {

  00000	55		 push	 ebp
  00001	8b ec		 mov	 ebp, esp
  00003	6a ff		 push	 -1
  00005	68 00 00 00 00	 push	 __ehhandler$??1ArgumentNullException@Internal@Core@Math@Palmtree@@UAE@XZ
  0000a	64 a1 00 00 00
	00		 mov	 eax, DWORD PTR fs:0
  00010	50		 push	 eax
  00011	51		 push	 ecx
  00012	a1 00 00 00 00	 mov	 eax, DWORD PTR ___security_cookie
  00017	33 c5		 xor	 eax, ebp
  00019	50		 push	 eax
  0001a	8d 45 f4	 lea	 eax, DWORD PTR __$EHRec$[ebp]
  0001d	64 a3 00 00 00
	00		 mov	 DWORD PTR fs:0, eax
  00023	89 4d f0	 mov	 DWORD PTR _this$[ebp], ecx
  00026	c7 01 00 00 00
	00		 mov	 DWORD PTR [ecx], OFFSET ??_7ArgumentNullException@Internal@Core@Math@Palmtree@@6B@

; 125  :         }

  0002c	c7 45 fc ff ff
	ff ff		 mov	 DWORD PTR __$EHRec$[ebp+8], -1

; 70   :         {

  00033	c7 01 00 00 00
	00		 mov	 DWORD PTR [ecx], OFFSET ??_7Exception@Internal@Core@Math@Palmtree@@6B@

; 71   :         }

  00039	c7 45 fc ff ff
	ff ff		 mov	 DWORD PTR __$EHRec$[ebp+8], -1
; File c:\program files (x86)\microsoft visual studio\2017\community\vc\tools\msvc\14.16.27023\include\vcruntime_exception.h

; 86   :         __std_exception_destroy(&_Data);

  00040	8d 41 04	 lea	 eax, DWORD PTR [ecx+4]
  00043	50		 push	 eax
  00044	c7 01 00 00 00
	00		 mov	 DWORD PTR [ecx], OFFSET ??_7exception@std@@6B@
  0004a	e8 00 00 00 00	 call	 ___std_exception_destroy
  0004f	83 c4 04	 add	 esp, 4
; File z:\sources\lunor\repos\rougemeilland\palmtree.math.core.uint\palmtree.math.core.uint\pmc_exception.h

; 125  :         }

  00052	8b 4d f4	 mov	 ecx, DWORD PTR __$EHRec$[ebp]
  00055	64 89 0d 00 00
	00 00		 mov	 DWORD PTR fs:0, ecx
  0005c	59		 pop	 ecx
  0005d	8b e5		 mov	 esp, ebp
  0005f	5d		 pop	 ebp
  00060	c3		 ret	 0
_TEXT	ENDS
;	COMDAT text$x
text$x	SEGMENT
__unwindfunclet$??1ArgumentNullException@Internal@Core@Math@Palmtree@@UAE@XZ$0:
  00000	8b 4d f0	 mov	 ecx, DWORD PTR _this$[ebp]
  00003	e9 00 00 00 00	 jmp	 ??1Exception@Internal@Core@Math@Palmtree@@UAE@XZ ; Palmtree::Math::Core::Internal::Exception::~Exception
__unwindfunclet$??1ArgumentNullException@Internal@Core@Math@Palmtree@@UAE@XZ$1:
  00008	8b 4d f0	 mov	 ecx, DWORD PTR _this$[ebp]
  0000b	e9 00 00 00 00	 jmp	 ??1exception@std@@UAE@XZ ; std::exception::~exception
__ehhandler$??1ArgumentNullException@Internal@Core@Math@Palmtree@@UAE@XZ:
  00010	8b 54 24 08	 mov	 edx, DWORD PTR [esp+8]
  00014	8d 42 0c	 lea	 eax, DWORD PTR [edx+12]
  00017	8b 4a f8	 mov	 ecx, DWORD PTR [edx-8]
  0001a	33 c8		 xor	 ecx, eax
  0001c	e8 00 00 00 00	 call	 @__security_check_cookie@4
  00021	b8 00 00 00 00	 mov	 eax, OFFSET __ehfuncinfo$??1ArgumentNullException@Internal@Core@Math@Palmtree@@UAE@XZ
  00026	e9 00 00 00 00	 jmp	 ___CxxFrameHandler3
text$x	ENDS
??1ArgumentNullException@Internal@Core@Math@Palmtree@@UAE@XZ ENDP ; Palmtree::Math::Core::Internal::ArgumentNullException::~ArgumentNullException
; Function compile flags: /Ogtp
; File z:\sources\lunor\repos\rougemeilland\palmtree.math.core.uint\palmtree.math.core.uint\pmc_exception.h
; File c:\program files (x86)\microsoft visual studio\2017\community\vc\tools\msvc\14.16.27023\include\vcruntime_exception.h
; File z:\sources\lunor\repos\rougemeilland\palmtree.math.core.uint\palmtree.math.core.uint\pmc_exception.h
;	COMDAT ??0ArgumentNullException@Internal@Core@Math@Palmtree@@QAE@ABV01234@@Z
_TEXT	SEGMENT
_this$ = -16						; size = 4
__$EHRec$ = -12						; size = 12
_p$ = 8							; size = 4
??0ArgumentNullException@Internal@Core@Math@Palmtree@@QAE@ABV01234@@Z PROC ; Palmtree::Math::Core::Internal::ArgumentNullException::ArgumentNullException, COMDAT
; _this$ = ecx

; 120  :         {

  00000	55		 push	 ebp
  00001	8b ec		 mov	 ebp, esp
  00003	6a ff		 push	 -1
  00005	68 00 00 00 00	 push	 __ehhandler$??0ArgumentNullException@Internal@Core@Math@Palmtree@@QAE@ABV01234@@Z
  0000a	64 a1 00 00 00
	00		 mov	 eax, DWORD PTR fs:0
  00010	50		 push	 eax
  00011	51		 push	 ecx
  00012	a1 00 00 00 00	 mov	 eax, DWORD PTR ___security_cookie
  00017	33 c5		 xor	 eax, ebp
  00019	50		 push	 eax
  0001a	8d 45 f4	 lea	 eax, DWORD PTR __$EHRec$[ebp]
  0001d	64 a3 00 00 00
	00		 mov	 DWORD PTR fs:0, eax
  00023	8b d1		 mov	 edx, ecx
  00025	89 55 f0	 mov	 DWORD PTR _this$[ebp], edx
  00028	0f 57 c0	 xorps	 xmm0, xmm0
; File c:\program files (x86)\microsoft visual studio\2017\community\vc\tools\msvc\14.16.27023\include\vcruntime_exception.h

; 50   :     {

  0002b	c7 02 00 00 00
	00		 mov	 DWORD PTR [edx], OFFSET ??_7exception@std@@6B@
  00031	66 0f d6 42 04	 movq	 QWORD PTR [edx+4], xmm0
; File z:\sources\lunor\repos\rougemeilland\palmtree.math.core.uint\palmtree.math.core.uint\pmc_exception.h

; 62   :         Exception(const Exception& p) noexcept(true)

  00036	c7 45 fc 00 00
	00 00		 mov	 DWORD PTR __$EHRec$[ebp+8], 0

; 63   :         {
; 64   :             _code = p._code;

  0003d	8b 4d 08	 mov	 ecx, DWORD PTR _p$[ebp]
  00040	c7 02 00 00 00
	00		 mov	 DWORD PTR [edx], OFFSET ??_7Exception@Internal@Core@Math@Palmtree@@6B@
  00046	8b 41 0c	 mov	 eax, DWORD PTR [ecx+12]
  00049	89 42 0c	 mov	 DWORD PTR [edx+12], eax

; 65   :             _message = p._message;

  0004c	8b 41 10	 mov	 eax, DWORD PTR [ecx+16]
  0004f	89 42 10	 mov	 DWORD PTR [edx+16], eax

; 66   :             _data = p._data;

  00052	8b 41 14	 mov	 eax, DWORD PTR [ecx+20]
  00055	89 42 14	 mov	 DWORD PTR [edx+20], eax

; 67   :         }
; 68   : 
; 69   :         virtual ~Exception() noexcept(true)
; 70   :         {
; 71   :         }
; 72   : 
; 73   :         PMC_STATUS_CODE GetStatusCode() const noexcept(true)
; 74   :         {
; 75   :             return (_code);
; 76   :         }
; 77   : 
; 78   :         wchar_t const* What() const noexcept(true)
; 79   :         {
; 80   :             return (_message);
; 81   :         }
; 82   : 
; 83   :         wchar_t const* Data() const noexcept(true)
; 84   :         {
; 85   :             return (_data);
; 86   :         }
; 87   : 
; 88   :     };
; 89   : 
; 90   :     class ArgumentException
; 91   :         : public Exception
; 92   :     {
; 93   :     public:
; 94   :         ArgumentException(const wchar_t* message) noexcept(true)
; 95   :             : Exception(PMC_STATUS_ARGUMENT_ERROR, message)
; 96   :         {
; 97   :         }
; 98   : 
; 99   :         ArgumentException(const ArgumentException& p) noexcept(true)
; 100  :             : Exception(p)
; 101  :         {
; 102  :         }
; 103  : 
; 104  :         virtual ~ArgumentException() noexcept(true)
; 105  :         {
; 106  :         }
; 107  :     };
; 108  : 
; 109  :     class ArgumentNullException
; 110  :         : public Exception
; 111  :     {
; 112  :     public:
; 113  :         ArgumentNullException(const wchar_t* message, const wchar_t* param_name) noexcept(true)
; 114  :             : Exception(PMC_STATUS_ARGUMENT_NULL_ERROR, message, param_name)
; 115  :         {
; 116  :         }
; 117  : 
; 118  :         ArgumentNullException(const ArgumentNullException& p) noexcept(true)
; 119  :             : Exception(p)

  00058	c7 45 fc 01 00
	00 00		 mov	 DWORD PTR __$EHRec$[ebp+8], 1

; 120  :         {

  0005f	c7 02 00 00 00
	00		 mov	 DWORD PTR [edx], OFFSET ??_7ArgumentNullException@Internal@Core@Math@Palmtree@@6B@

; 121  :         }

  00065	c7 45 fc ff ff
	ff ff		 mov	 DWORD PTR __$EHRec$[ebp+8], -1
  0006c	8b c2		 mov	 eax, edx
  0006e	8b 4d f4	 mov	 ecx, DWORD PTR __$EHRec$[ebp]
  00071	64 89 0d 00 00
	00 00		 mov	 DWORD PTR fs:0, ecx
  00078	59		 pop	 ecx
  00079	8b e5		 mov	 esp, ebp
  0007b	5d		 pop	 ebp
  0007c	c2 04 00	 ret	 4
_TEXT	ENDS
;	COMDAT text$x
text$x	SEGMENT
__unwindfunclet$??0ArgumentNullException@Internal@Core@Math@Palmtree@@QAE@ABV01234@@Z$1:
  00000	8b 4d f0	 mov	 ecx, DWORD PTR _this$[ebp]
  00003	e9 00 00 00 00	 jmp	 ??1exception@std@@UAE@XZ ; std::exception::~exception
__unwindfunclet$??0ArgumentNullException@Internal@Core@Math@Palmtree@@QAE@ABV01234@@Z$0:
  00008	8b 4d f0	 mov	 ecx, DWORD PTR _this$[ebp]
  0000b	e9 00 00 00 00	 jmp	 ??1Exception@Internal@Core@Math@Palmtree@@UAE@XZ ; Palmtree::Math::Core::Internal::Exception::~Exception
__ehhandler$??0ArgumentNullException@Internal@Core@Math@Palmtree@@QAE@ABV01234@@Z:
  00010	8b 54 24 08	 mov	 edx, DWORD PTR [esp+8]
  00014	8d 42 0c	 lea	 eax, DWORD PTR [edx+12]
  00017	8b 4a f8	 mov	 ecx, DWORD PTR [edx-8]
  0001a	33 c8		 xor	 ecx, eax
  0001c	e8 00 00 00 00	 call	 @__security_check_cookie@4
  00021	b8 00 00 00 00	 mov	 eax, OFFSET __ehfuncinfo$??0ArgumentNullException@Internal@Core@Math@Palmtree@@QAE@ABV01234@@Z
  00026	e9 00 00 00 00	 jmp	 ___CxxFrameHandler3
text$x	ENDS
??0ArgumentNullException@Internal@Core@Math@Palmtree@@QAE@ABV01234@@Z ENDP ; Palmtree::Math::Core::Internal::ArgumentNullException::ArgumentNullException
; Function compile flags: /Ogtp
; File z:\sources\lunor\repos\rougemeilland\palmtree.math.core.uint\palmtree.math.core.uint\pmc_exception.h
; File c:\program files (x86)\microsoft visual studio\2017\community\vc\tools\msvc\14.16.27023\include\vcruntime_exception.h
; File z:\sources\lunor\repos\rougemeilland\palmtree.math.core.uint\palmtree.math.core.uint\pmc_exception.h
;	COMDAT ??0ArgumentNullException@Internal@Core@Math@Palmtree@@QAE@PB_W0@Z
_TEXT	SEGMENT
_this$ = -16						; size = 4
__$EHRec$ = -12						; size = 12
_message$ = 8						; size = 4
_param_name$ = 12					; size = 4
??0ArgumentNullException@Internal@Core@Math@Palmtree@@QAE@PB_W0@Z PROC ; Palmtree::Math::Core::Internal::ArgumentNullException::ArgumentNullException, COMDAT
; _this$ = ecx

; 115  :         {

  00000	55		 push	 ebp
  00001	8b ec		 mov	 ebp, esp
  00003	6a ff		 push	 -1
  00005	68 00 00 00 00	 push	 __ehhandler$??0ArgumentNullException@Internal@Core@Math@Palmtree@@QAE@PB_W0@Z
  0000a	64 a1 00 00 00
	00		 mov	 eax, DWORD PTR fs:0
  00010	50		 push	 eax
  00011	51		 push	 ecx
  00012	a1 00 00 00 00	 mov	 eax, DWORD PTR ___security_cookie
  00017	33 c5		 xor	 eax, ebp
  00019	50		 push	 eax
  0001a	8d 45 f4	 lea	 eax, DWORD PTR __$EHRec$[ebp]
  0001d	64 a3 00 00 00
	00		 mov	 DWORD PTR fs:0, eax
  00023	89 4d f0	 mov	 DWORD PTR _this$[ebp], ecx
  00026	0f 57 c0	 xorps	 xmm0, xmm0
; File c:\program files (x86)\microsoft visual studio\2017\community\vc\tools\msvc\14.16.27023\include\vcruntime_exception.h

; 50   :     {

  00029	c7 01 00 00 00
	00		 mov	 DWORD PTR [ecx], OFFSET ??_7exception@std@@6B@
  0002f	66 0f d6 41 04	 movq	 QWORD PTR [ecx+4], xmm0
; File z:\sources\lunor\repos\rougemeilland\palmtree.math.core.uint\palmtree.math.core.uint\pmc_exception.h

; 54   :         Exception(PMC_STATUS_CODE code, const wchar_t* message, const wchar_t* data) noexcept(true)

  00034	c7 45 fc 00 00
	00 00		 mov	 DWORD PTR __$EHRec$[ebp+8], 0

; 55   :         {
; 56   :             _code = code;
; 57   :             _message = message;

  0003b	8b 45 08	 mov	 eax, DWORD PTR _message$[ebp]
  0003e	89 41 10	 mov	 DWORD PTR [ecx+16], eax

; 58   :             _data = data;

  00041	8b 45 0c	 mov	 eax, DWORD PTR _param_name$[ebp]
  00044	c7 01 00 00 00
	00		 mov	 DWORD PTR [ecx], OFFSET ??_7Exception@Internal@Core@Math@Palmtree@@6B@
  0004a	c7 41 0c fe ff
	ff ff		 mov	 DWORD PTR [ecx+12], -2	; fffffffeH
  00051	89 41 14	 mov	 DWORD PTR [ecx+20], eax

; 59   :         }
; 60   : 
; 61   :     public:
; 62   :         Exception(const Exception& p) noexcept(true)
; 63   :         {
; 64   :             _code = p._code;
; 65   :             _message = p._message;
; 66   :             _data = p._data;
; 67   :         }
; 68   : 
; 69   :         virtual ~Exception() noexcept(true)
; 70   :         {
; 71   :         }
; 72   : 
; 73   :         PMC_STATUS_CODE GetStatusCode() const noexcept(true)
; 74   :         {
; 75   :             return (_code);
; 76   :         }
; 77   : 
; 78   :         wchar_t const* What() const noexcept(true)
; 79   :         {
; 80   :             return (_message);
; 81   :         }
; 82   : 
; 83   :         wchar_t const* Data() const noexcept(true)
; 84   :         {
; 85   :             return (_data);
; 86   :         }
; 87   : 
; 88   :     };
; 89   : 
; 90   :     class ArgumentException
; 91   :         : public Exception
; 92   :     {
; 93   :     public:
; 94   :         ArgumentException(const wchar_t* message) noexcept(true)
; 95   :             : Exception(PMC_STATUS_ARGUMENT_ERROR, message)
; 96   :         {
; 97   :         }
; 98   : 
; 99   :         ArgumentException(const ArgumentException& p) noexcept(true)
; 100  :             : Exception(p)
; 101  :         {
; 102  :         }
; 103  : 
; 104  :         virtual ~ArgumentException() noexcept(true)
; 105  :         {
; 106  :         }
; 107  :     };
; 108  : 
; 109  :     class ArgumentNullException
; 110  :         : public Exception
; 111  :     {
; 112  :     public:
; 113  :         ArgumentNullException(const wchar_t* message, const wchar_t* param_name) noexcept(true)
; 114  :             : Exception(PMC_STATUS_ARGUMENT_NULL_ERROR, message, param_name)

  00054	c7 45 fc 01 00
	00 00		 mov	 DWORD PTR __$EHRec$[ebp+8], 1

; 115  :         {

  0005b	c7 01 00 00 00
	00		 mov	 DWORD PTR [ecx], OFFSET ??_7ArgumentNullException@Internal@Core@Math@Palmtree@@6B@

; 116  :         }

  00061	c7 45 fc ff ff
	ff ff		 mov	 DWORD PTR __$EHRec$[ebp+8], -1
  00068	8b c1		 mov	 eax, ecx
  0006a	8b 4d f4	 mov	 ecx, DWORD PTR __$EHRec$[ebp]
  0006d	64 89 0d 00 00
	00 00		 mov	 DWORD PTR fs:0, ecx
  00074	59		 pop	 ecx
  00075	8b e5		 mov	 esp, ebp
  00077	5d		 pop	 ebp
  00078	c2 08 00	 ret	 8
_TEXT	ENDS
;	COMDAT text$x
text$x	SEGMENT
__unwindfunclet$??0ArgumentNullException@Internal@Core@Math@Palmtree@@QAE@PB_W0@Z$1:
  00000	8b 4d f0	 mov	 ecx, DWORD PTR _this$[ebp]
  00003	e9 00 00 00 00	 jmp	 ??1exception@std@@UAE@XZ ; std::exception::~exception
__unwindfunclet$??0ArgumentNullException@Internal@Core@Math@Palmtree@@QAE@PB_W0@Z$0:
  00008	8b 4d f0	 mov	 ecx, DWORD PTR _this$[ebp]
  0000b	e9 00 00 00 00	 jmp	 ??1Exception@Internal@Core@Math@Palmtree@@UAE@XZ ; Palmtree::Math::Core::Internal::Exception::~Exception
__ehhandler$??0ArgumentNullException@Internal@Core@Math@Palmtree@@QAE@PB_W0@Z:
  00010	8b 54 24 08	 mov	 edx, DWORD PTR [esp+8]
  00014	8d 42 0c	 lea	 eax, DWORD PTR [edx+12]
  00017	8b 4a f8	 mov	 ecx, DWORD PTR [edx-8]
  0001a	33 c8		 xor	 ecx, eax
  0001c	e8 00 00 00 00	 call	 @__security_check_cookie@4
  00021	b8 00 00 00 00	 mov	 eax, OFFSET __ehfuncinfo$??0ArgumentNullException@Internal@Core@Math@Palmtree@@QAE@PB_W0@Z
  00026	e9 00 00 00 00	 jmp	 ___CxxFrameHandler3
text$x	ENDS
??0ArgumentNullException@Internal@Core@Math@Palmtree@@QAE@PB_W0@Z ENDP ; Palmtree::Math::Core::Internal::ArgumentNullException::ArgumentNullException
; Function compile flags: /Ogtp
; File z:\sources\lunor\repos\rougemeilland\palmtree.math.core.uint\palmtree.math.core.uint\pmc_exception.h
; File c:\program files (x86)\microsoft visual studio\2017\community\vc\tools\msvc\14.16.27023\include\vcruntime_exception.h
;	COMDAT ??_GException@Internal@Core@Math@Palmtree@@UAEPAXI@Z
_TEXT	SEGMENT
_this$ = -16						; size = 4
__$EHRec$ = -12						; size = 12
___flags$ = 8						; size = 4
??_GException@Internal@Core@Math@Palmtree@@UAEPAXI@Z PROC ; Palmtree::Math::Core::Internal::Exception::`scalar deleting destructor', COMDAT
; _this$ = ecx
  00000	55		 push	 ebp
  00001	8b ec		 mov	 ebp, esp
  00003	6a ff		 push	 -1
  00005	68 00 00 00 00	 push	 __ehhandler$??_GException@Internal@Core@Math@Palmtree@@UAEPAXI@Z
  0000a	64 a1 00 00 00
	00		 mov	 eax, DWORD PTR fs:0
  00010	50		 push	 eax
  00011	51		 push	 ecx
  00012	56		 push	 esi
  00013	a1 00 00 00 00	 mov	 eax, DWORD PTR ___security_cookie
  00018	33 c5		 xor	 eax, ebp
  0001a	50		 push	 eax
  0001b	8d 45 f4	 lea	 eax, DWORD PTR __$EHRec$[ebp]
  0001e	64 a3 00 00 00
	00		 mov	 DWORD PTR fs:0, eax
  00024	8b f1		 mov	 esi, ecx
  00026	89 75 f0	 mov	 DWORD PTR _this$[ebp], esi
; File z:\sources\lunor\repos\rougemeilland\palmtree.math.core.uint\palmtree.math.core.uint\pmc_exception.h

; 70   :         {

  00029	c7 06 00 00 00
	00		 mov	 DWORD PTR [esi], OFFSET ??_7Exception@Internal@Core@Math@Palmtree@@6B@

; 71   :         }

  0002f	c7 45 fc ff ff
	ff ff		 mov	 DWORD PTR __$EHRec$[ebp+8], -1
; File c:\program files (x86)\microsoft visual studio\2017\community\vc\tools\msvc\14.16.27023\include\vcruntime_exception.h

; 86   :         __std_exception_destroy(&_Data);

  00036	8d 46 04	 lea	 eax, DWORD PTR [esi+4]
  00039	50		 push	 eax
  0003a	c7 06 00 00 00
	00		 mov	 DWORD PTR [esi], OFFSET ??_7exception@std@@6B@
  00040	e8 00 00 00 00	 call	 ___std_exception_destroy
  00045	83 c4 04	 add	 esp, 4
  00048	f6 45 08 01	 test	 BYTE PTR ___flags$[ebp], 1
  0004c	74 0b		 je	 SHORT $LN9@scalar
  0004e	6a 18		 push	 24			; 00000018H
  00050	56		 push	 esi
  00051	e8 00 00 00 00	 call	 ??3@YAXPAXI@Z		; operator delete
  00056	83 c4 08	 add	 esp, 8
$LN9@scalar:
  00059	8b c6		 mov	 eax, esi
  0005b	8b 4d f4	 mov	 ecx, DWORD PTR __$EHRec$[ebp]
  0005e	64 89 0d 00 00
	00 00		 mov	 DWORD PTR fs:0, ecx
  00065	59		 pop	 ecx
  00066	5e		 pop	 esi
  00067	8b e5		 mov	 esp, ebp
  00069	5d		 pop	 ebp
  0006a	c2 04 00	 ret	 4
_TEXT	ENDS
;	COMDAT text$x
text$x	SEGMENT
__unwindfunclet$??_GException@Internal@Core@Math@Palmtree@@UAEPAXI@Z$0:
  00000	8b 4d f0	 mov	 ecx, DWORD PTR _this$[ebp]
  00003	e9 00 00 00 00	 jmp	 ??1exception@std@@UAE@XZ ; std::exception::~exception
__ehhandler$??_GException@Internal@Core@Math@Palmtree@@UAEPAXI@Z:
  00008	8b 54 24 08	 mov	 edx, DWORD PTR [esp+8]
  0000c	8d 42 0c	 lea	 eax, DWORD PTR [edx+12]
  0000f	8b 4a f4	 mov	 ecx, DWORD PTR [edx-12]
  00012	33 c8		 xor	 ecx, eax
  00014	e8 00 00 00 00	 call	 @__security_check_cookie@4
  00019	b8 00 00 00 00	 mov	 eax, OFFSET __ehfuncinfo$??_GException@Internal@Core@Math@Palmtree@@UAEPAXI@Z
  0001e	e9 00 00 00 00	 jmp	 ___CxxFrameHandler3
text$x	ENDS
??_GException@Internal@Core@Math@Palmtree@@UAEPAXI@Z ENDP ; Palmtree::Math::Core::Internal::Exception::`scalar deleting destructor'
; Function compile flags: /Ogtp
; File z:\sources\lunor\repos\rougemeilland\palmtree.math.core.uint\palmtree.math.core.uint\pmc_exception.h
; File c:\program files (x86)\microsoft visual studio\2017\community\vc\tools\msvc\14.16.27023\include\vcruntime_exception.h
; File z:\sources\lunor\repos\rougemeilland\palmtree.math.core.uint\palmtree.math.core.uint\pmc_exception.h
;	COMDAT ??1Exception@Internal@Core@Math@Palmtree@@UAE@XZ
_TEXT	SEGMENT
_this$ = -16						; size = 4
__$EHRec$ = -12						; size = 12
??1Exception@Internal@Core@Math@Palmtree@@UAE@XZ PROC	; Palmtree::Math::Core::Internal::Exception::~Exception, COMDAT
; _this$ = ecx

; 70   :         {

  00000	55		 push	 ebp
  00001	8b ec		 mov	 ebp, esp
  00003	6a ff		 push	 -1
  00005	68 00 00 00 00	 push	 __ehhandler$??1Exception@Internal@Core@Math@Palmtree@@UAE@XZ
  0000a	64 a1 00 00 00
	00		 mov	 eax, DWORD PTR fs:0
  00010	50		 push	 eax
  00011	51		 push	 ecx
  00012	a1 00 00 00 00	 mov	 eax, DWORD PTR ___security_cookie
  00017	33 c5		 xor	 eax, ebp
  00019	50		 push	 eax
  0001a	8d 45 f4	 lea	 eax, DWORD PTR __$EHRec$[ebp]
  0001d	64 a3 00 00 00
	00		 mov	 DWORD PTR fs:0, eax
  00023	89 4d f0	 mov	 DWORD PTR _this$[ebp], ecx
  00026	c7 01 00 00 00
	00		 mov	 DWORD PTR [ecx], OFFSET ??_7Exception@Internal@Core@Math@Palmtree@@6B@

; 71   :         }

  0002c	c7 45 fc ff ff
	ff ff		 mov	 DWORD PTR __$EHRec$[ebp+8], -1
; File c:\program files (x86)\microsoft visual studio\2017\community\vc\tools\msvc\14.16.27023\include\vcruntime_exception.h

; 86   :         __std_exception_destroy(&_Data);

  00033	8d 41 04	 lea	 eax, DWORD PTR [ecx+4]
  00036	50		 push	 eax
  00037	c7 01 00 00 00
	00		 mov	 DWORD PTR [ecx], OFFSET ??_7exception@std@@6B@
  0003d	e8 00 00 00 00	 call	 ___std_exception_destroy
  00042	83 c4 04	 add	 esp, 4
; File z:\sources\lunor\repos\rougemeilland\palmtree.math.core.uint\palmtree.math.core.uint\pmc_exception.h

; 71   :         }

  00045	8b 4d f4	 mov	 ecx, DWORD PTR __$EHRec$[ebp]
  00048	64 89 0d 00 00
	00 00		 mov	 DWORD PTR fs:0, ecx
  0004f	59		 pop	 ecx
  00050	8b e5		 mov	 esp, ebp
  00052	5d		 pop	 ebp
  00053	c3		 ret	 0
_TEXT	ENDS
;	COMDAT text$x
text$x	SEGMENT
__unwindfunclet$??1Exception@Internal@Core@Math@Palmtree@@UAE@XZ$0:
  00000	8b 4d f0	 mov	 ecx, DWORD PTR _this$[ebp]
  00003	e9 00 00 00 00	 jmp	 ??1exception@std@@UAE@XZ ; std::exception::~exception
__ehhandler$??1Exception@Internal@Core@Math@Palmtree@@UAE@XZ:
  00008	8b 54 24 08	 mov	 edx, DWORD PTR [esp+8]
  0000c	8d 42 0c	 lea	 eax, DWORD PTR [edx+12]
  0000f	8b 4a f8	 mov	 ecx, DWORD PTR [edx-8]
  00012	33 c8		 xor	 ecx, eax
  00014	e8 00 00 00 00	 call	 @__security_check_cookie@4
  00019	b8 00 00 00 00	 mov	 eax, OFFSET __ehfuncinfo$??1Exception@Internal@Core@Math@Palmtree@@UAE@XZ
  0001e	e9 00 00 00 00	 jmp	 ___CxxFrameHandler3
text$x	ENDS
??1Exception@Internal@Core@Math@Palmtree@@UAE@XZ ENDP	; Palmtree::Math::Core::Internal::Exception::~Exception
; Function compile flags: /Ogtp
; File z:\sources\lunor\repos\rougemeilland\palmtree.math.core.uint\palmtree.math.core.uint\pmc_exception.h
; File c:\program files (x86)\microsoft visual studio\2017\community\vc\tools\msvc\14.16.27023\include\vcruntime_exception.h
; File z:\sources\lunor\repos\rougemeilland\palmtree.math.core.uint\palmtree.math.core.uint\pmc_exception.h
;	COMDAT ??0Exception@Internal@Core@Math@Palmtree@@QAE@ABV01234@@Z
_TEXT	SEGMENT
_this$ = -16						; size = 4
__$EHRec$ = -12						; size = 12
_p$ = 8							; size = 4
??0Exception@Internal@Core@Math@Palmtree@@QAE@ABV01234@@Z PROC ; Palmtree::Math::Core::Internal::Exception::Exception, COMDAT
; _this$ = ecx

; 62   :         Exception(const Exception& p) noexcept(true)

  00000	55		 push	 ebp
  00001	8b ec		 mov	 ebp, esp
  00003	6a ff		 push	 -1
  00005	68 00 00 00 00	 push	 __ehhandler$??0Exception@Internal@Core@Math@Palmtree@@QAE@ABV01234@@Z
  0000a	64 a1 00 00 00
	00		 mov	 eax, DWORD PTR fs:0
  00010	50		 push	 eax
  00011	51		 push	 ecx
  00012	a1 00 00 00 00	 mov	 eax, DWORD PTR ___security_cookie
  00017	33 c5		 xor	 eax, ebp
  00019	50		 push	 eax
  0001a	8d 45 f4	 lea	 eax, DWORD PTR __$EHRec$[ebp]
  0001d	64 a3 00 00 00
	00		 mov	 DWORD PTR fs:0, eax
  00023	8b d1		 mov	 edx, ecx
  00025	89 55 f0	 mov	 DWORD PTR _this$[ebp], edx
  00028	0f 57 c0	 xorps	 xmm0, xmm0
; File c:\program files (x86)\microsoft visual studio\2017\community\vc\tools\msvc\14.16.27023\include\vcruntime_exception.h

; 50   :     {

  0002b	c7 02 00 00 00
	00		 mov	 DWORD PTR [edx], OFFSET ??_7exception@std@@6B@
  00031	66 0f d6 42 04	 movq	 QWORD PTR [edx+4], xmm0
; File z:\sources\lunor\repos\rougemeilland\palmtree.math.core.uint\palmtree.math.core.uint\pmc_exception.h

; 62   :         Exception(const Exception& p) noexcept(true)

  00036	c7 45 fc 00 00
	00 00		 mov	 DWORD PTR __$EHRec$[ebp+8], 0

; 63   :         {
; 64   :             _code = p._code;

  0003d	8b 4d 08	 mov	 ecx, DWORD PTR _p$[ebp]
  00040	c7 02 00 00 00
	00		 mov	 DWORD PTR [edx], OFFSET ??_7Exception@Internal@Core@Math@Palmtree@@6B@
  00046	8b 41 0c	 mov	 eax, DWORD PTR [ecx+12]
  00049	89 42 0c	 mov	 DWORD PTR [edx+12], eax

; 65   :             _message = p._message;

  0004c	8b 41 10	 mov	 eax, DWORD PTR [ecx+16]
  0004f	89 42 10	 mov	 DWORD PTR [edx+16], eax

; 66   :             _data = p._data;

  00052	8b 41 14	 mov	 eax, DWORD PTR [ecx+20]
  00055	89 42 14	 mov	 DWORD PTR [edx+20], eax

; 67   :         }

  00058	c7 45 fc ff ff
	ff ff		 mov	 DWORD PTR __$EHRec$[ebp+8], -1
  0005f	8b c2		 mov	 eax, edx
  00061	8b 4d f4	 mov	 ecx, DWORD PTR __$EHRec$[ebp]
  00064	64 89 0d 00 00
	00 00		 mov	 DWORD PTR fs:0, ecx
  0006b	59		 pop	 ecx
  0006c	8b e5		 mov	 esp, ebp
  0006e	5d		 pop	 ebp
  0006f	c2 04 00	 ret	 4
_TEXT	ENDS
;	COMDAT text$x
text$x	SEGMENT
__unwindfunclet$??0Exception@Internal@Core@Math@Palmtree@@QAE@ABV01234@@Z$0:
  00000	8b 4d f0	 mov	 ecx, DWORD PTR _this$[ebp]
  00003	e9 00 00 00 00	 jmp	 ??1exception@std@@UAE@XZ ; std::exception::~exception
__ehhandler$??0Exception@Internal@Core@Math@Palmtree@@QAE@ABV01234@@Z:
  00008	8b 54 24 08	 mov	 edx, DWORD PTR [esp+8]
  0000c	8d 42 0c	 lea	 eax, DWORD PTR [edx+12]
  0000f	8b 4a f8	 mov	 ecx, DWORD PTR [edx-8]
  00012	33 c8		 xor	 ecx, eax
  00014	e8 00 00 00 00	 call	 @__security_check_cookie@4
  00019	b8 00 00 00 00	 mov	 eax, OFFSET __ehfuncinfo$??0Exception@Internal@Core@Math@Palmtree@@QAE@ABV01234@@Z
  0001e	e9 00 00 00 00	 jmp	 ___CxxFrameHandler3
text$x	ENDS
??0Exception@Internal@Core@Math@Palmtree@@QAE@ABV01234@@Z ENDP ; Palmtree::Math::Core::Internal::Exception::Exception
; Function compile flags: /Ogtp
; File z:\sources\lunor\repos\rougemeilland\palmtree.math.core.uint\palmtree.math.core.uint\pmc_exception.h
; File c:\program files (x86)\microsoft visual studio\2017\community\vc\tools\msvc\14.16.27023\include\vcruntime_exception.h
; File z:\sources\lunor\repos\rougemeilland\palmtree.math.core.uint\palmtree.math.core.uint\pmc_exception.h
;	COMDAT ??0Exception@Internal@Core@Math@Palmtree@@IAE@HPB_W0@Z
_TEXT	SEGMENT
_this$ = -16						; size = 4
__$EHRec$ = -12						; size = 12
_code$ = 8						; size = 4
_message$ = 12						; size = 4
_data$ = 16						; size = 4
??0Exception@Internal@Core@Math@Palmtree@@IAE@HPB_W0@Z PROC ; Palmtree::Math::Core::Internal::Exception::Exception, COMDAT
; _this$ = ecx

; 54   :         Exception(PMC_STATUS_CODE code, const wchar_t* message, const wchar_t* data) noexcept(true)

  00000	55		 push	 ebp
  00001	8b ec		 mov	 ebp, esp
  00003	6a ff		 push	 -1
  00005	68 00 00 00 00	 push	 __ehhandler$??0Exception@Internal@Core@Math@Palmtree@@IAE@HPB_W0@Z
  0000a	64 a1 00 00 00
	00		 mov	 eax, DWORD PTR fs:0
  00010	50		 push	 eax
  00011	51		 push	 ecx
  00012	a1 00 00 00 00	 mov	 eax, DWORD PTR ___security_cookie
  00017	33 c5		 xor	 eax, ebp
  00019	50		 push	 eax
  0001a	8d 45 f4	 lea	 eax, DWORD PTR __$EHRec$[ebp]
  0001d	64 a3 00 00 00
	00		 mov	 DWORD PTR fs:0, eax
  00023	89 4d f0	 mov	 DWORD PTR _this$[ebp], ecx
  00026	0f 57 c0	 xorps	 xmm0, xmm0
; File c:\program files (x86)\microsoft visual studio\2017\community\vc\tools\msvc\14.16.27023\include\vcruntime_exception.h

; 50   :     {

  00029	c7 01 00 00 00
	00		 mov	 DWORD PTR [ecx], OFFSET ??_7exception@std@@6B@
  0002f	66 0f d6 41 04	 movq	 QWORD PTR [ecx+4], xmm0
; File z:\sources\lunor\repos\rougemeilland\palmtree.math.core.uint\palmtree.math.core.uint\pmc_exception.h

; 54   :         Exception(PMC_STATUS_CODE code, const wchar_t* message, const wchar_t* data) noexcept(true)

  00034	c7 45 fc 00 00
	00 00		 mov	 DWORD PTR __$EHRec$[ebp+8], 0

; 55   :         {
; 56   :             _code = code;

  0003b	8b 45 08	 mov	 eax, DWORD PTR _code$[ebp]
  0003e	89 41 0c	 mov	 DWORD PTR [ecx+12], eax

; 57   :             _message = message;

  00041	8b 45 0c	 mov	 eax, DWORD PTR _message$[ebp]
  00044	89 41 10	 mov	 DWORD PTR [ecx+16], eax

; 58   :             _data = data;

  00047	8b 45 10	 mov	 eax, DWORD PTR _data$[ebp]
  0004a	c7 01 00 00 00
	00		 mov	 DWORD PTR [ecx], OFFSET ??_7Exception@Internal@Core@Math@Palmtree@@6B@
  00050	89 41 14	 mov	 DWORD PTR [ecx+20], eax

; 59   :         }

  00053	c7 45 fc ff ff
	ff ff		 mov	 DWORD PTR __$EHRec$[ebp+8], -1
  0005a	8b c1		 mov	 eax, ecx
  0005c	8b 4d f4	 mov	 ecx, DWORD PTR __$EHRec$[ebp]
  0005f	64 89 0d 00 00
	00 00		 mov	 DWORD PTR fs:0, ecx
  00066	59		 pop	 ecx
  00067	8b e5		 mov	 esp, ebp
  00069	5d		 pop	 ebp
  0006a	c2 0c 00	 ret	 12			; 0000000cH
_TEXT	ENDS
;	COMDAT text$x
text$x	SEGMENT
__unwindfunclet$??0Exception@Internal@Core@Math@Palmtree@@IAE@HPB_W0@Z$0:
  00000	8b 4d f0	 mov	 ecx, DWORD PTR _this$[ebp]
  00003	e9 00 00 00 00	 jmp	 ??1exception@std@@UAE@XZ ; std::exception::~exception
__ehhandler$??0Exception@Internal@Core@Math@Palmtree@@IAE@HPB_W0@Z:
  00008	8b 54 24 08	 mov	 edx, DWORD PTR [esp+8]
  0000c	8d 42 0c	 lea	 eax, DWORD PTR [edx+12]
  0000f	8b 4a f8	 mov	 ecx, DWORD PTR [edx-8]
  00012	33 c8		 xor	 ecx, eax
  00014	e8 00 00 00 00	 call	 @__security_check_cookie@4
  00019	b8 00 00 00 00	 mov	 eax, OFFSET __ehfuncinfo$??0Exception@Internal@Core@Math@Palmtree@@IAE@HPB_W0@Z
  0001e	e9 00 00 00 00	 jmp	 ___CxxFrameHandler3
text$x	ENDS
??0Exception@Internal@Core@Math@Palmtree@@IAE@HPB_W0@Z ENDP ; Palmtree::Math::Core::Internal::Exception::Exception
; Function compile flags: /Ogtp
; File c:\program files (x86)\microsoft visual studio\2017\community\vc\tools\msvc\14.16.27023\include\vcruntime_exception.h
;	COMDAT ??_Gexception@std@@UAEPAXI@Z
_TEXT	SEGMENT
__$EHRec$ = -12						; size = 12
___flags$ = 8						; size = 4
??_Gexception@std@@UAEPAXI@Z PROC			; std::exception::`scalar deleting destructor', COMDAT
; _this$ = ecx
  00000	55		 push	 ebp
  00001	8b ec		 mov	 ebp, esp
  00003	6a ff		 push	 -1
  00005	68 00 00 00 00	 push	 __ehhandler$??_Gexception@std@@UAEPAXI@Z
  0000a	64 a1 00 00 00
	00		 mov	 eax, DWORD PTR fs:0
  00010	50		 push	 eax
  00011	56		 push	 esi
  00012	a1 00 00 00 00	 mov	 eax, DWORD PTR ___security_cookie
  00017	33 c5		 xor	 eax, ebp
  00019	50		 push	 eax
  0001a	8d 45 f4	 lea	 eax, DWORD PTR __$EHRec$[ebp]
  0001d	64 a3 00 00 00
	00		 mov	 DWORD PTR fs:0, eax
  00023	8b f1		 mov	 esi, ecx

; 86   :         __std_exception_destroy(&_Data);

  00025	8d 46 04	 lea	 eax, DWORD PTR [esi+4]
  00028	c7 06 00 00 00
	00		 mov	 DWORD PTR [esi], OFFSET ??_7exception@std@@6B@
  0002e	50		 push	 eax
  0002f	e8 00 00 00 00	 call	 ___std_exception_destroy
  00034	83 c4 04	 add	 esp, 4
  00037	f6 45 08 01	 test	 BYTE PTR ___flags$[ebp], 1
  0003b	74 0b		 je	 SHORT $LN6@scalar
  0003d	6a 0c		 push	 12			; 0000000cH
  0003f	56		 push	 esi
  00040	e8 00 00 00 00	 call	 ??3@YAXPAXI@Z		; operator delete
  00045	83 c4 08	 add	 esp, 8
$LN6@scalar:
  00048	8b c6		 mov	 eax, esi
  0004a	8b 4d f4	 mov	 ecx, DWORD PTR __$EHRec$[ebp]
  0004d	64 89 0d 00 00
	00 00		 mov	 DWORD PTR fs:0, ecx
  00054	59		 pop	 ecx
  00055	5e		 pop	 esi
  00056	8b e5		 mov	 esp, ebp
  00058	5d		 pop	 ebp
  00059	c2 04 00	 ret	 4
_TEXT	ENDS
;	COMDAT text$x
text$x	SEGMENT
__ehhandler$??_Gexception@std@@UAEPAXI@Z:
  00000	8b 54 24 08	 mov	 edx, DWORD PTR [esp+8]
  00004	8d 42 0c	 lea	 eax, DWORD PTR [edx+12]
  00007	8b 4a f8	 mov	 ecx, DWORD PTR [edx-8]
  0000a	33 c8		 xor	 ecx, eax
  0000c	e8 00 00 00 00	 call	 @__security_check_cookie@4
  00011	b8 00 00 00 00	 mov	 eax, OFFSET __ehfuncinfo$??_Gexception@std@@UAEPAXI@Z
  00016	e9 00 00 00 00	 jmp	 ___CxxFrameHandler3
text$x	ENDS
??_Gexception@std@@UAEPAXI@Z ENDP			; std::exception::`scalar deleting destructor'
; Function compile flags: /Ogtp
; File c:\program files (x86)\microsoft visual studio\2017\community\vc\tools\msvc\14.16.27023\include\vcruntime_exception.h
;	COMDAT ?what@exception@std@@UBEPBDXZ
_TEXT	SEGMENT
?what@exception@std@@UBEPBDXZ PROC			; std::exception::what, COMDAT
; _this$ = ecx

; 91   :         return _Data._What ? _Data._What : "Unknown exception";

  00000	8b 49 04	 mov	 ecx, DWORD PTR [ecx+4]
  00003	b8 00 00 00 00	 mov	 eax, OFFSET ??_C@_0BC@EOODALEL@Unknown?5exception@
  00008	85 c9		 test	 ecx, ecx
  0000a	0f 45 c1	 cmovne	 eax, ecx

; 92   :     }

  0000d	c3		 ret	 0
?what@exception@std@@UBEPBDXZ ENDP			; std::exception::what
_TEXT	ENDS
; Function compile flags: /Ogtp
; File c:\program files (x86)\microsoft visual studio\2017\community\vc\tools\msvc\14.16.27023\include\vcruntime_exception.h
;	COMDAT ??1exception@std@@UAE@XZ
_TEXT	SEGMENT
__$EHRec$ = -12						; size = 12
??1exception@std@@UAE@XZ PROC				; std::exception::~exception, COMDAT
; _this$ = ecx

; 85   :     {

  00000	55		 push	 ebp
  00001	8b ec		 mov	 ebp, esp
  00003	6a ff		 push	 -1
  00005	68 00 00 00 00	 push	 __ehhandler$??1exception@std@@UAE@XZ
  0000a	64 a1 00 00 00
	00		 mov	 eax, DWORD PTR fs:0
  00010	50		 push	 eax
  00011	a1 00 00 00 00	 mov	 eax, DWORD PTR ___security_cookie
  00016	33 c5		 xor	 eax, ebp
  00018	50		 push	 eax
  00019	8d 45 f4	 lea	 eax, DWORD PTR __$EHRec$[ebp]
  0001c	64 a3 00 00 00
	00		 mov	 DWORD PTR fs:0, eax

; 86   :         __std_exception_destroy(&_Data);

  00022	8d 41 04	 lea	 eax, DWORD PTR [ecx+4]
  00025	c7 01 00 00 00
	00		 mov	 DWORD PTR [ecx], OFFSET ??_7exception@std@@6B@
  0002b	50		 push	 eax
  0002c	e8 00 00 00 00	 call	 ___std_exception_destroy
  00031	83 c4 04	 add	 esp, 4

; 87   :     }

  00034	8b 4d f4	 mov	 ecx, DWORD PTR __$EHRec$[ebp]
  00037	64 89 0d 00 00
	00 00		 mov	 DWORD PTR fs:0, ecx
  0003e	59		 pop	 ecx
  0003f	8b e5		 mov	 esp, ebp
  00041	5d		 pop	 ebp
  00042	c3		 ret	 0
_TEXT	ENDS
;	COMDAT text$x
text$x	SEGMENT
__ehhandler$??1exception@std@@UAE@XZ:
  00000	8b 54 24 08	 mov	 edx, DWORD PTR [esp+8]
  00004	8d 42 0c	 lea	 eax, DWORD PTR [edx+12]
  00007	8b 4a fc	 mov	 ecx, DWORD PTR [edx-4]
  0000a	33 c8		 xor	 ecx, eax
  0000c	e8 00 00 00 00	 call	 @__security_check_cookie@4
  00011	b8 00 00 00 00	 mov	 eax, OFFSET __ehfuncinfo$??1exception@std@@UAE@XZ
  00016	e9 00 00 00 00	 jmp	 ___CxxFrameHandler3
text$x	ENDS
??1exception@std@@UAE@XZ ENDP				; std::exception::~exception
; Function compile flags: /Ogtp
; File c:\program files (x86)\microsoft visual studio\2017\community\vc\tools\msvc\14.16.27023\include\vcruntime_exception.h
;	COMDAT ??0exception@std@@QAE@XZ
_TEXT	SEGMENT
??0exception@std@@QAE@XZ PROC				; std::exception::exception, COMDAT
; _this$ = ecx

; 50   :     {

  00000	0f 57 c0	 xorps	 xmm0, xmm0
  00003	c7 01 00 00 00
	00		 mov	 DWORD PTR [ecx], OFFSET ??_7exception@std@@6B@
  00009	66 0f d6 41 04	 movq	 QWORD PTR [ecx+4], xmm0

; 51   :     }

  0000e	8b c1		 mov	 eax, ecx
  00010	c3		 ret	 0
??0exception@std@@QAE@XZ ENDP				; std::exception::exception
_TEXT	ENDS
END
