; Listing generated by Microsoft (R) Optimizing Compiler Version 19.16.27026.1 

	TITLE	Z:\Sources\Lunor\Repos\rougemeilland\Palmtree.Math.Core.Uint\Palmtree.Math.Core.Uint\pmc_bitwiseor.c
	.686P
	.XMM
	include listing.inc
	.model	flat

INCLUDELIB MSVCRT
INCLUDELIB OLDNAMES

PUBLIC	_Initialize_BitwiseOr
PUBLIC	_PMC_BitwiseOr_I_X@12
PUBLIC	_PMC_BitwiseOr_L_X@16
PUBLIC	_PMC_BitwiseOr_X_I@12
PUBLIC	_PMC_BitwiseOr_X_L@16
PUBLIC	_PMC_BitwiseOr_X_X@12
EXTRN	_CheckBlockLight:PROC
EXTRN	_AllocateNumber:PROC
EXTRN	_CommitNumber:PROC
EXTRN	_CheckNumber:PROC
EXTRN	_DuplicateNumber:PROC
EXTRN	_From_I_Imp:PROC
EXTRN	_From_L_Imp:PROC
EXTRN	_number_zero:BYTE
; Function compile flags: /Ogtp
; File z:\sources\lunor\repos\rougemeilland\palmtree.math.core.uint\palmtree.math.core.uint\pmc_bitwiseor.c
; File z:\sources\lunor\repos\rougemeilland\palmtree.math.core.uint\palmtree.math.core.uint\pmc_inline_func.h
; File z:\sources\lunor\repos\rougemeilland\palmtree.math.core.uint\palmtree.math.core.uint\pmc_bitwiseor.c
; File z:\sources\lunor\repos\rougemeilland\palmtree.math.core.uint\palmtree.math.core.uint\pmc_inline_func.h
; File z:\sources\lunor\repos\rougemeilland\palmtree.math.core.uint\palmtree.math.core.uint\pmc_bitwiseor.c
; File z:\sources\lunor\repos\rougemeilland\palmtree.math.core.uint\palmtree.math.core.uint\pmc_inline_func.h
; File z:\sources\lunor\repos\rougemeilland\palmtree.math.core.uint\palmtree.math.core.uint\pmc_bitwiseor.c
; File z:\sources\lunor\repos\rougemeilland\palmtree.math.core.uint\palmtree.math.core.uint\pmc_inline_func.h
; File z:\sources\lunor\repos\rougemeilland\palmtree.math.core.uint\palmtree.math.core.uint\pmc_bitwiseor.c
; File z:\sources\lunor\repos\rougemeilland\palmtree.math.core.uint\palmtree.math.core.uint\pmc_inline_func.h
; File z:\sources\lunor\repos\rougemeilland\palmtree.math.core.uint\palmtree.math.core.uint\pmc_bitwiseor.c
; File z:\sources\lunor\repos\rougemeilland\palmtree.math.core.uint\palmtree.math.core.uint\pmc_inline_func.h
; File z:\sources\lunor\repos\rougemeilland\palmtree.math.core.uint\palmtree.math.core.uint\pmc_bitwiseor.c
; File z:\sources\lunor\repos\rougemeilland\palmtree.math.core.uint\palmtree.math.core.uint\pmc_inline_func.h
; File z:\sources\lunor\repos\rougemeilland\palmtree.math.core.uint\palmtree.math.core.uint\pmc_bitwiseor.c
; File z:\sources\lunor\repos\rougemeilland\palmtree.math.core.uint\palmtree.math.core.uint\pmc_inline_func.h
; File z:\sources\lunor\repos\rougemeilland\palmtree.math.core.uint\palmtree.math.core.uint\pmc_bitwiseor.c
;	COMDAT _PMC_BitwiseOr_X_L_Imp
_TEXT	SEGMENT
_w_light_check_code$1 = -4				; size = 4
_w_light_check_code$2 = 8				; size = 4
_u$ = 8							; size = 4
_v$ = 12						; size = 8
_w$ = 20						; size = 4
_PMC_BitwiseOr_X_L_Imp PROC				; COMDAT

; 268  : {

	push	ebp
	mov	ebp, esp
	push	ecx
	push	ebx
	push	esi

; 269  :     PMC_STATUS_CODE result;
; 270  :     if (u->IS_ZERO)

	mov	esi, DWORD PTR _u$[ebp]
	push	edi
	test	BYTE PTR [esi+24], 2
	je	SHORT $LN2@PMC_Bitwis

; 271  :     {
; 272  :         // u が 0 である場合
; 273  :         if (v == 0)

	mov	ecx, DWORD PTR _v$[ebp]
	mov	eax, ecx
	mov	edx, DWORD PTR _v$[ebp+4]
	or	eax, edx
	jne	SHORT $LN4@PMC_Bitwis

; 274  :         {
; 275  :             // v が 0 である場合
; 276  :             *w = &number_zero;

	mov	eax, DWORD PTR _w$[ebp]
	pop	edi

; 343  : }

	pop	esi
	pop	ebx
	mov	DWORD PTR [eax], OFFSET _number_zero
	xor	eax, eax
	mov	esp, ebp
	pop	ebp
	ret	0
$LN4@PMC_Bitwis:

; 277  :         }
; 278  :         else
; 279  :         {
; 280  :             // v が 0 でない場合
; 281  :             if ((result = From_L_Imp(v, w)) != PMC_STATUS_OK)

	push	DWORD PTR _w$[ebp]
	push	edx
	push	ecx
	call	_From_L_Imp
	add	esp, 12					; 0000000cH
	test	eax, eax
	je	$LN11@PMC_Bitwis

; 343  : }

	pop	edi
	pop	esi
	pop	ebx
	mov	esp, ebp
	pop	ebp
	ret	0
$LN2@PMC_Bitwis:

; 282  :                 return (result);
; 283  :         }
; 284  :     }
; 285  :     else if (v == 0)

	mov	edi, DWORD PTR _v$[ebp]
	mov	eax, edi
	mov	ecx, DWORD PTR _v$[ebp+4]
	or	eax, ecx
	jne	SHORT $LN7@PMC_Bitwis

; 286  :     {
; 287  :         // v が 0 である場合
; 288  :         if ((result = DuplicateNumber(u, w)) != PMC_STATUS_OK)

	push	DWORD PTR _w$[ebp]
	push	esi
	call	_DuplicateNumber
	add	esp, 8
	test	eax, eax
	je	$LN11@PMC_Bitwis

; 343  : }

	pop	edi
	pop	esi
	pop	ebx
	mov	esp, ebp
	pop	ebp
	ret	0
$LN7@PMC_Bitwis:

; 289  :             return (result);
; 290  :     }
; 291  :     else
; 292  :     {
; 293  :         // u と v がともに 0 ではない場合
; 294  :         if (__UNIT_TYPE_BIT_COUNT < sizeof(v) * 8)
; 295  :         {
; 296  :             // _UINT64_T が 1 ワードで表現しきれない場合
; 297  :             __UNIT_TYPE u_bit_count = u->UNIT_BIT_COUNT;

	mov	edx, DWORD PTR [esi+12]

; 298  :             _UINT32_T v_hi;
; 299  :             _UINT32_T v_lo = _FROMDWORDTOWORD(v, &v_hi);
; 300  :             if (v_hi == 0)

	test	ecx, ecx
	jne	SHORT $LN12@PMC_Bitwis
; File z:\sources\lunor\repos\rougemeilland\palmtree.math.core.uint\palmtree.math.core.uint\pmc_inline_func.h

; 590  :         if (x == 0)

	test	edi, edi
	jne	SHORT $LN24@PMC_Bitwis

; 591  :             return (sizeof(x) * 8);

	lea	ecx, DWORD PTR [edi+32]
	jmp	SHORT $LN23@PMC_Bitwis
$LN24@PMC_Bitwis:

; 594  :         _BitScanReverse(&pos, x);

	bsr	eax, edi

; 600  :         return (sizeof(x) * 8 - 1 - pos);

	mov	ecx, 31					; 0000001fH
	sub	ecx, eax
$LN23@PMC_Bitwis:
; File z:\sources\lunor\repos\rougemeilland\palmtree.math.core.uint\palmtree.math.core.uint\pmc_bitwiseor.c

; 306  :                 if ((result = AllocateNumber(w, w_bit_count, &w_light_check_code)) != PMC_STATUS_OK)

	mov	ebx, DWORD PTR _w$[ebp]
	mov	eax, 32					; 00000020H
	sub	eax, ecx
	lea	ecx, DWORD PTR _w_light_check_code$2[ebp]
; File z:\sources\lunor\repos\rougemeilland\palmtree.math.core.uint\palmtree.math.core.uint\pmc_inline_func.h

; 197  :         return (x >= y ? x : y);

	cmp	edx, eax
; File z:\sources\lunor\repos\rougemeilland\palmtree.math.core.uint\palmtree.math.core.uint\pmc_bitwiseor.c

; 306  :                 if ((result = AllocateNumber(w, w_bit_count, &w_light_check_code)) != PMC_STATUS_OK)

	push	ecx
; File z:\sources\lunor\repos\rougemeilland\palmtree.math.core.uint\palmtree.math.core.uint\pmc_inline_func.h

; 197  :         return (x >= y ? x : y);

	cmovae	eax, edx
; File z:\sources\lunor\repos\rougemeilland\palmtree.math.core.uint\palmtree.math.core.uint\pmc_bitwiseor.c

; 306  :                 if ((result = AllocateNumber(w, w_bit_count, &w_light_check_code)) != PMC_STATUS_OK)

	push	eax
	push	ebx
	call	_AllocateNumber
	add	esp, 12					; 0000000cH
	test	eax, eax
	jne	$LN1@PMC_Bitwis

; 307  :                     return (result);
; 308  :                 BitwiseOr_X_1W(u->BLOCK, u->UNIT_WORD_COUNT, v_lo, (*w)->BLOCK);

	mov	eax, DWORD PTR [ebx]
	push	DWORD PTR [eax+32]
	push	edi
	push	DWORD PTR [esi+8]
	push	DWORD PTR [esi+32]
	call	_BitwiseOr_X_1W

; 309  :                 if ((result = CheckBlockLight((*w)->BLOCK, w_light_check_code)) != PMC_STATUS_OK)

	mov	eax, DWORD PTR [ebx]
	push	DWORD PTR _w_light_check_code$2[ebp]
	push	DWORD PTR [eax+32]
	call	_CheckBlockLight
	add	esp, 24					; 00000018H
	test	eax, eax
	je	SHORT $LN17@PMC_Bitwis

; 343  : }

	pop	edi
	pop	esi
	pop	ebx
	mov	esp, ebp
	pop	ebp
	ret	0
$LN12@PMC_Bitwis:
; File z:\sources\lunor\repos\rougemeilland\palmtree.math.core.uint\palmtree.math.core.uint\pmc_inline_func.h

; 594  :         _BitScanReverse(&pos, x);

	bsr	eax, ecx
; File z:\sources\lunor\repos\rougemeilland\palmtree.math.core.uint\palmtree.math.core.uint\pmc_bitwiseor.c

; 318  :                 if ((result = AllocateNumber(w, w_bit_count, &w_light_check_code)) != PMC_STATUS_OK)

	mov	ebx, DWORD PTR _w$[ebp]
; File z:\sources\lunor\repos\rougemeilland\palmtree.math.core.uint\palmtree.math.core.uint\pmc_inline_func.h

; 600  :         return (sizeof(x) * 8 - 1 - pos);

	mov	ecx, 31					; 0000001fH
	sub	ecx, eax
; File z:\sources\lunor\repos\rougemeilland\palmtree.math.core.uint\palmtree.math.core.uint\pmc_bitwiseor.c

; 315  :                 __UNIT_TYPE v_bit_count = sizeof(v) * 8 - _LZCNT_ALT_32(v_hi);

	mov	eax, 64					; 00000040H
	sub	eax, ecx

; 318  :                 if ((result = AllocateNumber(w, w_bit_count, &w_light_check_code)) != PMC_STATUS_OK)

	lea	ecx, DWORD PTR _w_light_check_code$1[ebp]
; File z:\sources\lunor\repos\rougemeilland\palmtree.math.core.uint\palmtree.math.core.uint\pmc_inline_func.h

; 197  :         return (x >= y ? x : y);

	cmp	edx, eax
; File z:\sources\lunor\repos\rougemeilland\palmtree.math.core.uint\palmtree.math.core.uint\pmc_bitwiseor.c

; 318  :                 if ((result = AllocateNumber(w, w_bit_count, &w_light_check_code)) != PMC_STATUS_OK)

	push	ecx
; File z:\sources\lunor\repos\rougemeilland\palmtree.math.core.uint\palmtree.math.core.uint\pmc_inline_func.h

; 197  :         return (x >= y ? x : y);

	cmovae	eax, edx
; File z:\sources\lunor\repos\rougemeilland\palmtree.math.core.uint\palmtree.math.core.uint\pmc_bitwiseor.c

; 318  :                 if ((result = AllocateNumber(w, w_bit_count, &w_light_check_code)) != PMC_STATUS_OK)

	push	eax
	push	ebx
	call	_AllocateNumber
	add	esp, 12					; 0000000cH
	test	eax, eax
	jne	SHORT $LN1@PMC_Bitwis

; 319  :                     return (result);
; 320  :                 BitwiseOr_X_2W(u->BLOCK, u->UNIT_WORD_COUNT, v_hi, v_lo, (*w)->BLOCK);

	mov	eax, DWORD PTR [ebx]
	mov	ecx, DWORD PTR [esi+8]
	mov	esi, DWORD PTR [esi+32]
	mov	edx, DWORD PTR [eax+32]
	mov	eax, DWORD PTR [esi]
	or	eax, edi

; 46   :     if (u_count == 1)

	mov	DWORD PTR [edx], eax
	cmp	ecx, 1
	jne	SHORT $LN34@PMC_Bitwis

; 47   :     {
; 48   :         w[0] = u[0] | v_lo;
; 49   :         w[1] = v_hi;

	mov	ecx, DWORD PTR _v$[ebp+4]
	mov	DWORD PTR [edx+4], ecx

; 50   :     }

	jmp	SHORT $LN39@PMC_Bitwis
$LN34@PMC_Bitwis:

; 51   :     else if (u_count == 2)

	mov	eax, DWORD PTR [esi+4]
	or	eax, DWORD PTR _v$[ebp+4]
	mov	DWORD PTR [edx+4], eax
	cmp	ecx, 2
	je	SHORT $LN39@PMC_Bitwis

; 52   :     {
; 53   :         w[0] = u[0] | v_lo;
; 54   :         w[1] = u[1] | v_hi;
; 55   :     }
; 56   :     else
; 57   :     {
; 58   :         w[0] = u[0] | v_lo;
; 59   :         w[1] = u[1] | v_hi;
; 60   :         _COPY_MEMORY_UNIT(w + 2, u + 2, u_count - 2);

	add	ecx, -2					; fffffffeH
	lea	edi, DWORD PTR [edx+8]
	add	esi, 8
; File z:\sources\lunor\repos\rougemeilland\palmtree.math.core.uint\palmtree.math.core.uint\pmc_inline_func.h

; 61   :         __movsd((unsigned long *)d, (unsigned long *)s, (unsigned long)count);

	rep movsd
$LN39@PMC_Bitwis:
; File z:\sources\lunor\repos\rougemeilland\palmtree.math.core.uint\palmtree.math.core.uint\pmc_bitwiseor.c

; 321  :                 if ((result = CheckBlockLight((*w)->BLOCK, w_light_check_code)) != PMC_STATUS_OK)

	mov	eax, DWORD PTR [ebx]
	push	DWORD PTR _w_light_check_code$1[ebp]
	push	DWORD PTR [eax+32]
	call	_CheckBlockLight
	add	esp, 8
	test	eax, eax
	jne	SHORT $LN1@PMC_Bitwis
$LN17@PMC_Bitwis:

; 322  :                     return (result);
; 323  :             }
; 324  :             CommitNumber(*w);

	push	DWORD PTR [ebx]
	call	_CommitNumber
	add	esp, 4
$LN11@PMC_Bitwis:

; 325  :         }
; 326  :         else
; 327  :         {
; 328  :             // _UINT64_T が 1 ワードで表現できる場合
; 329  : 
; 330  :             __UNIT_TYPE u_bit_count = u->UNIT_BIT_COUNT;
; 331  :             __UNIT_TYPE v_bit_count = sizeof(v) * 8 - _LZCNT_ALT_UNIT((__UNIT_TYPE)v);
; 332  :             __UNIT_TYPE w_bit_count = _MAXIMUM_UNIT(u_bit_count, v_bit_count) + 1;
; 333  :             __UNIT_TYPE nw_light_check_code;
; 334  :             if ((result = AllocateNumber(w, w_bit_count, &nw_light_check_code)) != PMC_STATUS_OK)
; 335  :                 return (result);
; 336  :             BitwiseOr_X_1W(u->BLOCK, u->UNIT_WORD_COUNT, (__UNIT_TYPE)v, (*w)->BLOCK);
; 337  :             if ((result = CheckBlockLight((*w)->BLOCK, nw_light_check_code)) != PMC_STATUS_OK)
; 338  :                 return (result);
; 339  :             CommitNumber(*w);
; 340  :         }
; 341  :     }
; 342  :     return (PMC_STATUS_OK);

	xor	eax, eax
$LN1@PMC_Bitwis:
	pop	edi

; 343  : }

	pop	esi
	pop	ebx
	mov	esp, ebp
	pop	ebp
	ret	0
_PMC_BitwiseOr_X_L_Imp ENDP
_TEXT	ENDS
; Function compile flags: /Ogtp
; File z:\sources\lunor\repos\rougemeilland\palmtree.math.core.uint\palmtree.math.core.uint\pmc_bitwiseor.c
; File z:\sources\lunor\repos\rougemeilland\palmtree.math.core.uint\palmtree.math.core.uint\pmc_inline_func.h
; File z:\sources\lunor\repos\rougemeilland\palmtree.math.core.uint\palmtree.math.core.uint\pmc_bitwiseor.c
; File z:\sources\lunor\repos\rougemeilland\palmtree.math.core.uint\palmtree.math.core.uint\pmc_inline_func.h
; File z:\sources\lunor\repos\rougemeilland\palmtree.math.core.uint\palmtree.math.core.uint\pmc_bitwiseor.c
; File z:\sources\lunor\repos\rougemeilland\palmtree.math.core.uint\palmtree.math.core.uint\pmc_inline_func.h
; File z:\sources\lunor\repos\rougemeilland\palmtree.math.core.uint\palmtree.math.core.uint\pmc_bitwiseor.c
; File z:\sources\lunor\repos\rougemeilland\palmtree.math.core.uint\palmtree.math.core.uint\pmc_inline_func.h
; File z:\sources\lunor\repos\rougemeilland\palmtree.math.core.uint\palmtree.math.core.uint\pmc_bitwiseor.c
; File z:\sources\lunor\repos\rougemeilland\palmtree.math.core.uint\palmtree.math.core.uint\pmc_inline_func.h
; File z:\sources\lunor\repos\rougemeilland\palmtree.math.core.uint\palmtree.math.core.uint\pmc_bitwiseor.c
;	COMDAT _PMC_BitwiseOr_X_I_Imp
_TEXT	SEGMENT
_nz_check_code$1 = 8					; size = 4
_u$ = 8							; size = 4
_v$ = 12						; size = 4
_w$ = 16						; size = 4
_PMC_BitwiseOr_X_I_Imp PROC				; COMDAT

; 181  : {

	push	ebp
	mov	ebp, esp
	push	ebx
	push	esi
	mov	esi, DWORD PTR _v$[ebp]
	push	edi

; 182  :     PMC_STATUS_CODE result;
; 183  :     if (u->IS_ZERO)

	mov	edi, DWORD PTR _u$[ebp]
	test	BYTE PTR [edi+24], 2
	je	SHORT $LN2@PMC_Bitwis

; 184  :     {
; 185  :         // u が 0 である場合
; 186  :         if (v == 0)

	test	esi, esi
	jne	SHORT $LN4@PMC_Bitwis

; 187  :         {
; 188  :             // v が 0 である場合
; 189  :             *w = &number_zero;

	mov	eax, DWORD PTR _w$[ebp]
	pop	edi

; 219  : }

	pop	esi
	pop	ebx
	mov	DWORD PTR [eax], OFFSET _number_zero
	xor	eax, eax
	pop	ebp
	ret	0
$LN4@PMC_Bitwis:

; 190  :         }
; 191  :         else
; 192  :         {
; 193  :             // v が 0 でない場合
; 194  :             if ((result = From_I_Imp(v, w)) != PMC_STATUS_OK)

	push	DWORD PTR _w$[ebp]
	push	esi
	call	_From_I_Imp
	add	esp, 8
	test	eax, eax
	je	$LN8@PMC_Bitwis

; 219  : }

	pop	edi
	pop	esi
	pop	ebx
	pop	ebp
	ret	0
$LN2@PMC_Bitwis:

; 195  :                 return (result);
; 196  :         }
; 197  :     }
; 198  :     else if (v == 0)

	test	esi, esi
	jne	SHORT $LN7@PMC_Bitwis

; 199  :     {
; 200  :         // v が 0 である場合
; 201  :         if ((result = DuplicateNumber(u, w)) != PMC_STATUS_OK)

	push	DWORD PTR _w$[ebp]
	push	edi
	call	_DuplicateNumber
	add	esp, 8
	test	eax, eax
	je	SHORT $LN8@PMC_Bitwis

; 219  : }

	pop	edi
	pop	esi
	pop	ebx
	pop	ebp
	ret	0
$LN7@PMC_Bitwis:
; File z:\sources\lunor\repos\rougemeilland\palmtree.math.core.uint\palmtree.math.core.uint\pmc_inline_func.h

; 594  :         _BitScanReverse(&pos, x);

	bsr	eax, esi
; File z:\sources\lunor\repos\rougemeilland\palmtree.math.core.uint\palmtree.math.core.uint\pmc_bitwiseor.c

; 211  :         if ((result = AllocateNumber(w, w_bit_count, &nz_check_code)) != PMC_STATUS_OK)

	mov	ebx, DWORD PTR _w$[ebp]
; File z:\sources\lunor\repos\rougemeilland\palmtree.math.core.uint\palmtree.math.core.uint\pmc_inline_func.h

; 600  :         return (sizeof(x) * 8 - 1 - pos);

	mov	ecx, 31					; 0000001fH
	sub	ecx, eax
; File z:\sources\lunor\repos\rougemeilland\palmtree.math.core.uint\palmtree.math.core.uint\pmc_bitwiseor.c

; 208  :         __UNIT_TYPE v_bit_count = sizeof(v) * 8 - _LZCNT_ALT_32(v);

	mov	eax, 32					; 00000020H
	sub	eax, ecx

; 211  :         if ((result = AllocateNumber(w, w_bit_count, &nz_check_code)) != PMC_STATUS_OK)

	lea	ecx, DWORD PTR _nz_check_code$1[ebp]
; File z:\sources\lunor\repos\rougemeilland\palmtree.math.core.uint\palmtree.math.core.uint\pmc_inline_func.h

; 197  :         return (x >= y ? x : y);

	cmp	DWORD PTR [edi+12], eax
; File z:\sources\lunor\repos\rougemeilland\palmtree.math.core.uint\palmtree.math.core.uint\pmc_bitwiseor.c

; 211  :         if ((result = AllocateNumber(w, w_bit_count, &nz_check_code)) != PMC_STATUS_OK)

	push	ecx
; File z:\sources\lunor\repos\rougemeilland\palmtree.math.core.uint\palmtree.math.core.uint\pmc_inline_func.h

; 197  :         return (x >= y ? x : y);

	cmovae	eax, DWORD PTR [edi+12]
; File z:\sources\lunor\repos\rougemeilland\palmtree.math.core.uint\palmtree.math.core.uint\pmc_bitwiseor.c

; 209  :         __UNIT_TYPE w_bit_count = _MAXIMUM_UNIT(u_bit_count, v_bit_count) + 1;

	inc	eax

; 211  :         if ((result = AllocateNumber(w, w_bit_count, &nz_check_code)) != PMC_STATUS_OK)

	push	eax
	push	ebx
	call	_AllocateNumber
	add	esp, 12					; 0000000cH
	test	eax, eax
	jne	SHORT $LN1@PMC_Bitwis

; 212  :             return (result);
; 213  :         BitwiseOr_X_1W(u->BLOCK, u->UNIT_WORD_COUNT, v, (*w)->BLOCK);

	mov	eax, DWORD PTR [ebx]
	mov	ecx, DWORD PTR [edi+8]
	mov	edi, DWORD PTR [edi+32]
	mov	edx, DWORD PTR [eax+32]
	mov	eax, DWORD PTR [edi]
	or	eax, esi
	mov	DWORD PTR [edx], eax

; 34   :     if (u_count == 1)

	cmp	ecx, 1
	je	SHORT $LN22@PMC_Bitwis

; 35   :         w[0] = u[0] | v;
; 36   :     else
; 37   :     {
; 38   :         w[0] = u[0] | v;
; 39   :         _COPY_MEMORY_UNIT(w + 1, u + 1, u_count - 1);

	lea	esi, DWORD PTR [edi+4]
	dec	ecx
	lea	edi, DWORD PTR [edx+4]
; File z:\sources\lunor\repos\rougemeilland\palmtree.math.core.uint\palmtree.math.core.uint\pmc_inline_func.h

; 61   :         __movsd((unsigned long *)d, (unsigned long *)s, (unsigned long)count);

	rep movsd
$LN22@PMC_Bitwis:
; File z:\sources\lunor\repos\rougemeilland\palmtree.math.core.uint\palmtree.math.core.uint\pmc_bitwiseor.c

; 214  :         if ((result = CheckBlockLight((*w)->BLOCK, nz_check_code)) != PMC_STATUS_OK)

	mov	eax, DWORD PTR [ebx]
	push	DWORD PTR _nz_check_code$1[ebp]
	push	DWORD PTR [eax+32]
	call	_CheckBlockLight
	add	esp, 8
	test	eax, eax
	jne	SHORT $LN1@PMC_Bitwis

; 215  :             return (result);
; 216  :         CommitNumber(*w);

	push	DWORD PTR [ebx]
	call	_CommitNumber
	add	esp, 4
$LN8@PMC_Bitwis:

; 217  :     }
; 218  :     return (PMC_STATUS_OK);

	xor	eax, eax
$LN1@PMC_Bitwis:
	pop	edi

; 219  : }

	pop	esi
	pop	ebx
	pop	ebp
	ret	0
_PMC_BitwiseOr_X_I_Imp ENDP
_TEXT	ENDS
; Function compile flags: /Ogtp
; File z:\sources\lunor\repos\rougemeilland\palmtree.math.core.uint\palmtree.math.core.uint\pmc_bitwiseor.c
; File z:\sources\lunor\repos\rougemeilland\palmtree.math.core.uint\palmtree.math.core.uint\pmc_inline_func.h
; File z:\sources\lunor\repos\rougemeilland\palmtree.math.core.uint\palmtree.math.core.uint\pmc_bitwiseor.c
;	COMDAT _BitwiseOr_X_X
_TEXT	SEGMENT
tv2458 = -32						; size = 4
tv2453 = -32						; size = 4
tv2455 = -28						; size = 4
tv2454 = -28						; size = 4
tv2456 = -24						; size = 4
tv2459 = -20						; size = 4
_count$1$ = -16						; size = 4
_v$1$ = -12						; size = 4
tv2460 = -8						; size = 4
tv2457 = -8						; size = 4
_w$1$ = -8						; size = 4
_u$1$ = -4						; size = 4
_u$ = 8							; size = 4
_u_count$ = 12						; size = 4
_v$ = 16						; size = 4
_v_count$ = 20						; size = 4
_w$ = 24						; size = 4
_BitwiseOr_X_X PROC					; COMDAT

; 66   : {

	push	ebp
	mov	ebp, esp
	sub	esp, 32					; 00000020H

; 67   :     __UNIT_TYPE or_count = v_count;
; 68   :     __UNIT_TYPE cp_count = u_count - v_count;
; 69   : 
; 70   :     __UNIT_TYPE count = or_count >> 5;
; 71   :     while (count > 0)

	mov	edx, DWORD PTR _v$[ebp]
	push	ebx
	mov	ebx, DWORD PTR _v_count$[ebp]
	mov	eax, ebx
	sub	DWORD PTR _u_count$[ebp], ebx
	push	esi
	mov	esi, DWORD PTR _u$[ebp]
	shr	eax, 5
	mov	DWORD PTR _count$1$[ebp], eax
	mov	DWORD PTR _u$1$[ebp], esi
	push	edi
	mov	edi, DWORD PTR _w$[ebp]
	mov	DWORD PTR _w$1$[ebp], edi
	test	eax, eax
	je	$LN3@BitwiseOr_
	mov	DWORD PTR _v$1$[ebp], edx
$LL2@BitwiseOr_:

; 72   :     {
; 73   :         w[0] = u[0] | v[0];

	lea	ecx, DWORD PTR [edx+16]
	xor	ebx, ebx
	lea	eax, DWORD PTR [ecx+108]
	cmp	edi, eax
	ja	SHORT $LN29@BitwiseOr_
	lea	eax, DWORD PTR [edi+124]
	cmp	eax, edx
	jae	SHORT $LN69@BitwiseOr_
$LN29@BitwiseOr_:
	lea	eax, DWORD PTR [esi+48]
	mov	DWORD PTR tv2453[ebp], eax
	add	eax, 76					; 0000004cH
	cmp	edi, eax
	ja	SHORT $LN30@BitwiseOr_
	lea	eax, DWORD PTR [edi+124]
	cmp	eax, esi
	jb	SHORT $LN30@BitwiseOr_
$LN69@BitwiseOr_:
	mov	DWORD PTR tv2460[ebp], esi
	mov	ecx, edi
	sub	esi, edx
	mov	eax, edx
	sub	ecx, edx
	mov	ebx, 32					; 00000020H
	mov	DWORD PTR tv2457[ebp], ecx
	mov	edx, ecx
	npad	3
$LL67@BitwiseOr_:
	mov	ecx, DWORD PTR [eax+esi]
	lea	eax, DWORD PTR [eax+4]
	or	ecx, DWORD PTR [eax-4]
	mov	DWORD PTR [eax+edx-4], ecx
	sub	ebx, 1
	jne	SHORT $LL67@BitwiseOr_
	mov	esi, DWORD PTR _u$1$[ebp]
	jmp	$LN73@BitwiseOr_
$LN30@BitwiseOr_:
	lea	eax, DWORD PTR [edi+32]
	mov	edi, esi
	mov	esi, DWORD PTR _w$1$[ebp]
	sub	edi, edx
	sub	esi, edx
	mov	DWORD PTR tv2459[ebp], edi
	mov	DWORD PTR tv2456[ebp], esi
	mov	esi, DWORD PTR _u$1$[ebp]
	mov	edx, esi
	sub	edx, DWORD PTR _w$1$[ebp]
	mov	DWORD PTR tv2454[ebp], edx
	mov	edx, edi
	mov	edi, DWORD PTR tv2456[ebp]
	npad	4
$LL14@BitwiseOr_:
	movups	xmm1, XMMWORD PTR [esi+ebx*4]
	mov	esi, DWORD PTR tv2454[ebp]
	lea	ecx, DWORD PTR [ecx+64]
	movups	xmm0, XMMWORD PTR [ecx-80]
	lea	eax, DWORD PTR [eax+64]
	por	xmm1, xmm0
	movups	xmm0, XMMWORD PTR [ecx-64]
	movups	XMMWORD PTR [eax-96], xmm1
	movups	xmm1, XMMWORD PTR [edx+ecx-64]
	por	xmm1, xmm0
	movups	xmm0, XMMWORD PTR [ecx-48]
	movups	XMMWORD PTR [edi+ecx-64], xmm1
	movups	xmm1, XMMWORD PTR [esi+eax-64]
	mov	esi, DWORD PTR tv2453[ebp]
	por	xmm1, xmm0
	movups	xmm0, XMMWORD PTR [ecx-32]
	movups	XMMWORD PTR [eax-64], xmm1
	movups	xmm1, XMMWORD PTR [esi+ebx*4]
	mov	esi, DWORD PTR _u$1$[ebp]
	add	ebx, 16					; 00000010H
	por	xmm1, xmm0
	movups	XMMWORD PTR [eax-48], xmm1
	cmp	ebx, 32					; 00000020H
	jl	SHORT $LL14@BitwiseOr_
	mov	edi, DWORD PTR _w$1$[ebp]
$LN73@BitwiseOr_:

; 74   :         w[1] = u[1] | v[1];
; 75   :         w[2] = u[2] | v[2];
; 76   :         w[3] = u[3] | v[3];
; 77   :         w[4] = u[4] | v[4];
; 78   :         w[5] = u[5] | v[5];
; 79   :         w[6] = u[6] | v[6];
; 80   :         w[7] = u[7] | v[7];
; 81   :         w[8] = u[8] | v[8];
; 82   :         w[9] = u[9] | v[9];
; 83   :         w[10] = u[10] | v[10];
; 84   :         w[11] = u[11] | v[11];
; 85   :         w[12] = u[12] | v[12];
; 86   :         w[13] = u[13] | v[13];
; 87   :         w[14] = u[14] | v[14];
; 88   :         w[15] = u[15] | v[15];
; 89   :         w[16] = u[16] | v[16];
; 90   :         w[17] = u[17] | v[17];
; 91   :         w[18] = u[18] | v[18];
; 92   :         w[19] = u[19] | v[19];
; 93   :         w[20] = u[20] | v[20];
; 94   :         w[21] = u[21] | v[21];
; 95   :         w[22] = u[22] | v[22];
; 96   :         w[23] = u[23] | v[23];
; 97   :         w[24] = u[24] | v[24];
; 98   :         w[25] = u[25] | v[25];
; 99   :         w[26] = u[26] | v[26];
; 100  :         w[27] = u[27] | v[27];
; 101  :         w[28] = u[28] | v[28];
; 102  :         w[29] = u[29] | v[29];
; 103  :         w[30] = u[30] | v[30];
; 104  :         w[31] = u[31] | v[31];
; 105  :         u += 32;

	mov	edx, DWORD PTR _v$1$[ebp]
	sub	esi, -128				; ffffff80H

; 106  :         v += 32;

	sub	edx, -128				; ffffff80H
	mov	DWORD PTR _u$1$[ebp], esi

; 107  :         w += 32;

	sub	edi, -128				; ffffff80H
	mov	DWORD PTR _v$1$[ebp], edx

; 108  :         --count;

	sub	DWORD PTR _count$1$[ebp], 1
	mov	DWORD PTR _w$1$[ebp], edi
	jne	$LL2@BitwiseOr_

; 67   :     __UNIT_TYPE or_count = v_count;
; 68   :     __UNIT_TYPE cp_count = u_count - v_count;
; 69   : 
; 70   :     __UNIT_TYPE count = or_count >> 5;
; 71   :     while (count > 0)

	mov	ebx, DWORD PTR _v_count$[ebp]
$LN3@BitwiseOr_:

; 109  :     }
; 110  : 
; 111  :     if (or_count & 0x10)

	test	bl, 16					; 00000010H
	je	$LN4@BitwiseOr_

; 112  :     {
; 113  :         w[0] = u[0] | v[0];

	lea	eax, DWORD PTR [edx+60]
	lea	ecx, DWORD PTR [edi+60]
	cmp	edi, eax
	ja	SHORT $LN33@BitwiseOr_
	cmp	ecx, edx
	jae	SHORT $LN71@BitwiseOr_
$LN33@BitwiseOr_:
	lea	eax, DWORD PTR [esi+60]
	cmp	edi, eax
	ja	SHORT $LN34@BitwiseOr_
	cmp	ecx, esi
	jb	SHORT $LN34@BitwiseOr_
$LN71@BitwiseOr_:
	mov	eax, esi
	mov	ecx, edx
	sub	eax, edx
	mov	ebx, 16					; 00000010H
	mov	DWORD PTR tv2458[ebp], eax
	mov	eax, edi
	mov	edi, DWORD PTR tv2458[ebp]
	sub	eax, edx
	mov	DWORD PTR tv2455[ebp], eax
	mov	esi, eax
	npad	5
$LL68@BitwiseOr_:
	mov	eax, DWORD PTR [edi+ecx]
	lea	ecx, DWORD PTR [ecx+4]
	or	eax, DWORD PTR [ecx-4]
	mov	DWORD PTR [esi+ecx-4], eax
	sub	ebx, 1
	jne	SHORT $LL68@BitwiseOr_
	mov	edi, DWORD PTR _w$1$[ebp]
	mov	esi, DWORD PTR _u$1$[ebp]
	mov	ebx, DWORD PTR _v_count$[ebp]
	jmp	SHORT $LN17@BitwiseOr_
$LN34@BitwiseOr_:
	movups	xmm0, XMMWORD PTR [edx]
	movups	xmm1, XMMWORD PTR [esi]
	por	xmm1, xmm0
	movups	xmm0, XMMWORD PTR [edx+16]
	movups	XMMWORD PTR [edi], xmm1
	movups	xmm1, XMMWORD PTR [esi+16]
	por	xmm1, xmm0
	movups	xmm0, XMMWORD PTR [edx+32]
	movups	XMMWORD PTR [edi+16], xmm1
	movups	xmm1, XMMWORD PTR [esi+32]
	por	xmm1, xmm0
	movups	xmm0, XMMWORD PTR [edx+48]
	movups	XMMWORD PTR [edi+32], xmm1
	movups	xmm1, XMMWORD PTR [esi+48]
	por	xmm1, xmm0
	movups	XMMWORD PTR [edi+48], xmm1
$LN17@BitwiseOr_:

; 114  :         w[1] = u[1] | v[1];
; 115  :         w[2] = u[2] | v[2];
; 116  :         w[3] = u[3] | v[3];
; 117  :         w[4] = u[4] | v[4];
; 118  :         w[5] = u[5] | v[5];
; 119  :         w[6] = u[6] | v[6];
; 120  :         w[7] = u[7] | v[7];
; 121  :         w[8] = u[8] | v[8];
; 122  :         w[9] = u[9] | v[9];
; 123  :         w[10] = u[10] | v[10];
; 124  :         w[11] = u[11] | v[11];
; 125  :         w[12] = u[12] | v[12];
; 126  :         w[13] = u[13] | v[13];
; 127  :         w[14] = u[14] | v[14];
; 128  :         w[15] = u[15] | v[15];
; 129  :         u += 16;

	add	esi, 64					; 00000040H

; 130  :         v += 16;

	add	edx, 64					; 00000040H

; 131  :         w += 16;

	add	edi, 64					; 00000040H
$LN4@BitwiseOr_:

; 132  :     }
; 133  : 
; 134  :     if (or_count & 0x8)

	test	bl, 8
	je	SHORT $LN5@BitwiseOr_

; 135  :     {
; 136  :         w[0] = u[0] | v[0];

	mov	eax, DWORD PTR [esi]
	or	eax, DWORD PTR [edx]
	mov	DWORD PTR [edi], eax
	mov	eax, DWORD PTR [esi+4]
	or	eax, DWORD PTR [edx+4]
	mov	DWORD PTR [edi+4], eax
	mov	eax, DWORD PTR [esi+8]
	or	eax, DWORD PTR [edx+8]
	mov	DWORD PTR [edi+8], eax
	mov	eax, DWORD PTR [esi+12]
	or	eax, DWORD PTR [edx+12]
	mov	DWORD PTR [edi+12], eax
	mov	eax, DWORD PTR [esi+16]
	or	eax, DWORD PTR [edx+16]
	mov	DWORD PTR [edi+16], eax
	mov	eax, DWORD PTR [esi+20]
	or	eax, DWORD PTR [edx+20]
	mov	DWORD PTR [edi+20], eax
	mov	eax, DWORD PTR [esi+24]
	or	eax, DWORD PTR [edx+24]
	mov	DWORD PTR [edi+24], eax
	mov	eax, DWORD PTR [esi+28]

; 137  :         w[1] = u[1] | v[1];
; 138  :         w[2] = u[2] | v[2];
; 139  :         w[3] = u[3] | v[3];
; 140  :         w[4] = u[4] | v[4];
; 141  :         w[5] = u[5] | v[5];
; 142  :         w[6] = u[6] | v[6];
; 143  :         w[7] = u[7] | v[7];
; 144  :         u += 8;

	add	esi, 32					; 00000020H
	or	eax, DWORD PTR [edx+28]

; 145  :         v += 8;

	add	edx, 32					; 00000020H
	mov	DWORD PTR [edi+28], eax

; 146  :         w += 8;

	add	edi, 32					; 00000020H
$LN5@BitwiseOr_:

; 147  :     }
; 148  : 
; 149  :     if (or_count & 0x4)

	test	bl, 4
	je	SHORT $LN6@BitwiseOr_

; 150  :     {
; 151  :         w[0] = u[0] | v[0];

	mov	eax, DWORD PTR [esi]
	or	eax, DWORD PTR [edx]
	mov	DWORD PTR [edi], eax
	mov	eax, DWORD PTR [esi+4]
	or	eax, DWORD PTR [edx+4]
	mov	DWORD PTR [edi+4], eax
	mov	eax, DWORD PTR [esi+8]
	or	eax, DWORD PTR [edx+8]
	mov	DWORD PTR [edi+8], eax
	mov	eax, DWORD PTR [esi+12]

; 152  :         w[1] = u[1] | v[1];
; 153  :         w[2] = u[2] | v[2];
; 154  :         w[3] = u[3] | v[3];
; 155  :         u += 4;

	add	esi, 16					; 00000010H
	or	eax, DWORD PTR [edx+12]

; 156  :         v += 4;

	add	edx, 16					; 00000010H
	mov	DWORD PTR [edi+12], eax

; 157  :         w += 4;

	add	edi, 16					; 00000010H
$LN6@BitwiseOr_:

; 158  :     }
; 159  : 
; 160  :     if (or_count & 0x2)

	test	bl, 2
	je	SHORT $LN7@BitwiseOr_

; 161  :     {
; 162  :         w[0] = u[0] | v[0];

	mov	eax, DWORD PTR [esi]
	or	eax, DWORD PTR [edx]
	mov	DWORD PTR [edi], eax

; 163  :         w[1] = u[1] | v[1];

	mov	eax, DWORD PTR [esi+4]

; 164  :         u += 2;

	add	esi, 8
	or	eax, DWORD PTR [edx+4]

; 165  :         v += 2;

	add	edx, 8
	mov	DWORD PTR [edi+4], eax

; 166  :         w += 2;

	add	edi, 8
$LN7@BitwiseOr_:

; 167  :     }
; 168  : 
; 169  :     if (or_count & 0x1)

	test	bl, 1
	je	SHORT $LN8@BitwiseOr_

; 170  :     {
; 171  :         w[0] = u[0] | v[0];

	mov	eax, DWORD PTR [esi]

; 172  :         u += 1;

	add	esi, 4
	or	eax, DWORD PTR [edx]
	mov	DWORD PTR [edi], eax

; 173  :         v += 1;
; 174  :         w += 1;

	add	edi, 4
$LN8@BitwiseOr_:
; File z:\sources\lunor\repos\rougemeilland\palmtree.math.core.uint\palmtree.math.core.uint\pmc_inline_func.h

; 61   :         __movsd((unsigned long *)d, (unsigned long *)s, (unsigned long)count);

	mov	ecx, DWORD PTR _u_count$[ebp]
	rep movsd
	pop	edi
	pop	esi
	pop	ebx
; File z:\sources\lunor\repos\rougemeilland\palmtree.math.core.uint\palmtree.math.core.uint\pmc_bitwiseor.c

; 178  : }

	mov	esp, ebp
	pop	ebp
	ret	0
_BitwiseOr_X_X ENDP
_TEXT	ENDS
; Function compile flags: /Ogtp
; File z:\sources\lunor\repos\rougemeilland\palmtree.math.core.uint\palmtree.math.core.uint\pmc_bitwiseor.c
; File z:\sources\lunor\repos\rougemeilland\palmtree.math.core.uint\palmtree.math.core.uint\pmc_inline_func.h
; File z:\sources\lunor\repos\rougemeilland\palmtree.math.core.uint\palmtree.math.core.uint\pmc_bitwiseor.c
;	COMDAT _BitwiseOr_X_2W
_TEXT	SEGMENT
_u$ = 8							; size = 4
_u_count$ = 12						; size = 4
_v_hi$ = 16						; size = 4
_v_lo$ = 20						; size = 4
_w$ = 24						; size = 4
_BitwiseOr_X_2W PROC					; COMDAT

; 45   : {

	push	ebp
	mov	ebp, esp

; 46   :     if (u_count == 1)

	mov	edx, DWORD PTR _u_count$[ebp]
	mov	ecx, DWORD PTR _v_hi$[ebp]
	push	esi
	mov	esi, DWORD PTR _u$[ebp]
	push	edi
	mov	edi, DWORD PTR _w$[ebp]
	mov	eax, DWORD PTR [esi]
	or	eax, DWORD PTR _v_lo$[ebp]
	mov	DWORD PTR [edi], eax
	cmp	edx, 1
	jne	SHORT $LN2@BitwiseOr_

; 47   :     {
; 48   :         w[0] = u[0] | v_lo;
; 49   :         w[1] = v_hi;

	mov	DWORD PTR [edi+4], ecx
	pop	edi

; 62   : }

	pop	esi
	pop	ebp
	ret	0
$LN2@BitwiseOr_:

; 50   :     }
; 51   :     else if (u_count == 2)

	mov	eax, DWORD PTR [esi+4]
	or	eax, ecx
	mov	DWORD PTR [edi+4], eax
	cmp	edx, 2
	je	SHORT $LN7@BitwiseOr_

; 52   :     {
; 53   :         w[0] = u[0] | v_lo;
; 54   :         w[1] = u[1] | v_hi;
; 55   :     }
; 56   :     else
; 57   :     {
; 58   :         w[0] = u[0] | v_lo;
; 59   :         w[1] = u[1] | v_hi;
; 60   :         _COPY_MEMORY_UNIT(w + 2, u + 2, u_count - 2);

	add	esi, 8
	lea	ecx, DWORD PTR [edx-2]
	add	edi, 8
; File z:\sources\lunor\repos\rougemeilland\palmtree.math.core.uint\palmtree.math.core.uint\pmc_inline_func.h

; 61   :         __movsd((unsigned long *)d, (unsigned long *)s, (unsigned long)count);

	rep movsd
$LN7@BitwiseOr_:
	pop	edi
; File z:\sources\lunor\repos\rougemeilland\palmtree.math.core.uint\palmtree.math.core.uint\pmc_bitwiseor.c

; 62   : }

	pop	esi
	pop	ebp
	ret	0
_BitwiseOr_X_2W ENDP
_TEXT	ENDS
; Function compile flags: /Ogtp
; File z:\sources\lunor\repos\rougemeilland\palmtree.math.core.uint\palmtree.math.core.uint\pmc_bitwiseor.c
; File z:\sources\lunor\repos\rougemeilland\palmtree.math.core.uint\palmtree.math.core.uint\pmc_inline_func.h
; File z:\sources\lunor\repos\rougemeilland\palmtree.math.core.uint\palmtree.math.core.uint\pmc_bitwiseor.c
;	COMDAT _BitwiseOr_X_1W
_TEXT	SEGMENT
_u$ = 8							; size = 4
_u_count$ = 12						; size = 4
_v$ = 16						; size = 4
_w$ = 20						; size = 4
_BitwiseOr_X_1W PROC					; COMDAT

; 33   : {

	push	ebp
	mov	ebp, esp

; 34   :     if (u_count == 1)

	mov	ecx, DWORD PTR _u_count$[ebp]
	push	esi
	mov	esi, DWORD PTR _u$[ebp]
	push	edi
	mov	edi, DWORD PTR _w$[ebp]
	mov	eax, DWORD PTR [esi]
	or	eax, DWORD PTR _v$[ebp]
	mov	DWORD PTR [edi], eax
	cmp	ecx, 1
	je	SHORT $LN5@BitwiseOr_

; 35   :         w[0] = u[0] | v;
; 36   :     else
; 37   :     {
; 38   :         w[0] = u[0] | v;
; 39   :         _COPY_MEMORY_UNIT(w + 1, u + 1, u_count - 1);

	dec	ecx
	add	esi, 4
	add	edi, 4
; File z:\sources\lunor\repos\rougemeilland\palmtree.math.core.uint\palmtree.math.core.uint\pmc_inline_func.h

; 61   :         __movsd((unsigned long *)d, (unsigned long *)s, (unsigned long)count);

	rep movsd
$LN5@BitwiseOr_:
	pop	edi
; File z:\sources\lunor\repos\rougemeilland\palmtree.math.core.uint\palmtree.math.core.uint\pmc_bitwiseor.c

; 41   : }

	pop	esi
	pop	ebp
	ret	0
_BitwiseOr_X_1W ENDP
_TEXT	ENDS
; Function compile flags: /Ogtp
; File z:\sources\lunor\repos\rougemeilland\palmtree.math.core.uint\palmtree.math.core.uint\pmc_inline_func.h
;	COMDAT __LZCNT_ALT_UNIT
_TEXT	SEGMENT
_x$ = 8							; size = 4
__LZCNT_ALT_UNIT PROC					; COMDAT

; 622  :     {

	push	ebp
	mov	ebp, esp

; 623  :         if (x == 0)

	mov	eax, DWORD PTR _x$[ebp]
	test	eax, eax
	jne	SHORT $LN2@LZCNT_ALT_

; 624  :             return (sizeof(x) * 8);

	mov	eax, 32					; 00000020H

; 648  :     }

	pop	ebp
	ret	0
$LN2@LZCNT_ALT_:

; 625  : #ifdef _M_IX86
; 626  :         _UINT32_T pos;
; 627  : #ifdef _MSC_VER
; 628  :         _BitScanReverse(&pos, x);

	bsr	ecx, eax

; 629  : #elif defined(__GNUC__)
; 630  :         __asm__("bsrl %1, %0" : "=r"(pos) : "rm"(x));
; 631  : #else
; 632  : #error unknown compiler
; 633  : #endif
; 634  : #elif defined(_M_X64)
; 635  : #ifdef _MSC_VER
; 636  :         _UINT32_T pos;
; 637  :         _BitScanReverse64(&pos, x);
; 638  : #elif defined(__GNUC__)
; 639  :         _UINT64_T pos;
; 640  :         __asm__("bsrq %1, %0" : "=r"(pos) : "rm"(x));
; 641  : #else
; 642  : #error unknown compiler
; 643  : #endif
; 644  : #else
; 645  : #error unknown platform
; 646  : #endif
; 647  :         return (sizeof(x) * 8 - 1 - pos);

	mov	eax, 31					; 0000001fH
	sub	eax, ecx

; 648  :     }

	pop	ebp
	ret	0
__LZCNT_ALT_UNIT ENDP
_TEXT	ENDS
; Function compile flags: /Ogtp
; File z:\sources\lunor\repos\rougemeilland\palmtree.math.core.uint\palmtree.math.core.uint\pmc_inline_func.h
;	COMDAT __LZCNT_ALT_32
_TEXT	SEGMENT
_x$ = 8							; size = 4
__LZCNT_ALT_32 PROC					; COMDAT

; 589  :     {

	push	ebp
	mov	ebp, esp

; 590  :         if (x == 0)

	mov	eax, DWORD PTR _x$[ebp]
	test	eax, eax
	jne	SHORT $LN2@LZCNT_ALT_

; 591  :             return (sizeof(x) * 8);

	mov	eax, 32					; 00000020H

; 601  :     }

	pop	ebp
	ret	0
$LN2@LZCNT_ALT_:

; 592  :         _UINT32_T pos;
; 593  : #ifdef _MSC_VER
; 594  :         _BitScanReverse(&pos, x);

	bsr	ecx, eax

; 595  : #elif defined(__GNUC__)
; 596  :         __asm__("bsrl %1, %0" : "=r"(pos) : "rm"(x));
; 597  : #else
; 598  : #error unknown compiler
; 599  : #endif
; 600  :         return (sizeof(x) * 8 - 1 - pos);

	mov	eax, 31					; 0000001fH
	sub	eax, ecx

; 601  :     }

	pop	ebp
	ret	0
__LZCNT_ALT_32 ENDP
_TEXT	ENDS
; Function compile flags: /Ogtp
; File z:\sources\lunor\repos\rougemeilland\palmtree.math.core.uint\palmtree.math.core.uint\pmc_inline_func.h
;	COMDAT __MAXIMUM_UNIT
_TEXT	SEGMENT
_x$ = 8							; size = 4
_y$ = 12						; size = 4
__MAXIMUM_UNIT PROC					; COMDAT

; 196  :     {

	push	ebp
	mov	ebp, esp

; 197  :         return (x >= y ? x : y);

	mov	eax, DWORD PTR _y$[ebp]
	cmp	DWORD PTR _x$[ebp], eax
	cmovae	eax, DWORD PTR _x$[ebp]

; 198  :     }

	pop	ebp
	ret	0
__MAXIMUM_UNIT ENDP
_TEXT	ENDS
; Function compile flags: /Ogtp
; File z:\sources\lunor\repos\rougemeilland\palmtree.math.core.uint\palmtree.math.core.uint\pmc_inline_func.h
;	COMDAT __FROMDWORDTOWORD
_TEXT	SEGMENT
_value$ = 8						; size = 8
_result_high$ = 16					; size = 4
__FROMDWORDTOWORD PROC					; COMDAT

; 175  :     {

	push	ebp
	mov	ebp, esp

; 176  :         *result_high = (_UINT32_T)(value >> 32);

	mov	eax, DWORD PTR _result_high$[ebp]
	mov	ecx, DWORD PTR _value$[ebp+4]
	mov	DWORD PTR [eax], ecx

; 177  :         return ((_UINT32_T)value);

	mov	eax, DWORD PTR _value$[ebp]

; 178  :     }

	pop	ebp
	ret	0
__FROMDWORDTOWORD ENDP
_TEXT	ENDS
; Function compile flags: /Ogtp
; File z:\sources\lunor\repos\rougemeilland\palmtree.math.core.uint\palmtree.math.core.uint\pmc_inline_func.h
;	COMDAT __COPY_MEMORY_UNIT
_TEXT	SEGMENT
_d$ = 8							; size = 4
_s$ = 12						; size = 4
_count$ = 16						; size = 4
__COPY_MEMORY_UNIT PROC					; COMDAT

; 59   :     {

	push	ebp
	mov	ebp, esp

; 60   : #ifdef _M_IX86
; 61   :         __movsd((unsigned long *)d, (unsigned long *)s, (unsigned long)count);

	mov	ecx, DWORD PTR _count$[ebp]
	push	esi
	mov	esi, DWORD PTR _s$[ebp]
	push	edi
	mov	edi, DWORD PTR _d$[ebp]
	rep movsd
	pop	edi
	pop	esi

; 62   : #elif defined(_M_X64)
; 63   :         __movsq(d, s, count);
; 64   : #else
; 65   : #error unknown platform
; 66   : #endif
; 67   :     }

	pop	ebp
	ret	0
__COPY_MEMORY_UNIT ENDP
_TEXT	ENDS
; Function compile flags: /Ogtp
; File z:\sources\lunor\repos\rougemeilland\palmtree.math.core.uint\palmtree.math.core.uint\pmc_bitwiseor.c
; File z:\sources\lunor\repos\rougemeilland\palmtree.math.core.uint\palmtree.math.core.uint\pmc_inline_func.h
; File z:\sources\lunor\repos\rougemeilland\palmtree.math.core.uint\palmtree.math.core.uint\pmc_bitwiseor.c
; File z:\sources\lunor\repos\rougemeilland\palmtree.math.core.uint\palmtree.math.core.uint\pmc_inline_func.h
; File z:\sources\lunor\repos\rougemeilland\palmtree.math.core.uint\palmtree.math.core.uint\pmc_bitwiseor.c
;	COMDAT _PMC_BitwiseOr_X_X@12
_TEXT	SEGMENT
tv263 = 8						; size = 4
_u$ = 8							; size = 4
_nw$ = 12						; size = 4
_v$ = 12						; size = 4
_nw_light_check_code$1 = 16				; size = 4
_w$ = 16						; size = 4
_PMC_BitwiseOr_X_X@12 PROC				; COMDAT

; 392  : {

	push	ebp
	mov	ebp, esp
	push	ebx
	push	esi
	mov	esi, DWORD PTR _v$[ebp]
	push	edi
	mov	edi, DWORD PTR _u$[ebp]

; 393  :     if (u == NULL)

	test	edi, edi
	je	$LN19@PMC_Bitwis

; 394  :         return (PMC_STATUS_ARGUMENT_ERROR);
; 395  :     if (v == NULL)

	test	esi, esi
	je	$LN19@PMC_Bitwis

; 396  :         return (PMC_STATUS_ARGUMENT_ERROR);
; 397  :     if (w == NULL)

	mov	ebx, DWORD PTR _w$[ebp]
	test	ebx, ebx
	je	$LN19@PMC_Bitwis

; 399  :     NUMBER_HEADER* nu = (NUMBER_HEADER*)u;
; 400  :     NUMBER_HEADER* nv = (NUMBER_HEADER*)v;
; 401  :     PMC_STATUS_CODE result;
; 402  :     if ((result = CheckNumber(nu)) != PMC_STATUS_OK)

	push	edi
	call	_CheckNumber
	add	esp, 4
	test	eax, eax
	jne	$LN1@PMC_Bitwis

; 403  :         return (result);
; 404  :     if ((result = CheckNumber(nv)) != PMC_STATUS_OK)

	push	esi
	call	_CheckNumber
	add	esp, 4
	test	eax, eax
	jne	$LN1@PMC_Bitwis

; 405  :         return (result);
; 406  :     NUMBER_HEADER* nw;
; 407  :     if (nu->IS_ZERO)

	test	BYTE PTR [edi+24], 2
	lea	eax, DWORD PTR _nw$[ebp]
	je	SHORT $LN7@PMC_Bitwis

; 408  :     {
; 409  :         if ((result = DuplicateNumber(nv, &nw)) != PMC_STATUS_OK)

	push	eax
	push	esi
$LN20@PMC_Bitwis:

; 442  : }

	call	_DuplicateNumber
	add	esp, 8
	test	eax, eax
	je	SHORT $LN11@PMC_Bitwis
	pop	edi
	pop	esi
	pop	ebx
	pop	ebp
	ret	12					; 0000000cH
$LN7@PMC_Bitwis:

; 410  :             return (result);
; 411  :     }
; 412  :     else if (nv->IS_ZERO)

	test	BYTE PTR [esi+24], 2
	je	SHORT $LN10@PMC_Bitwis

; 413  :     {
; 414  :         if ((result = DuplicateNumber(nu, &nw)) != PMC_STATUS_OK)

	push	eax
	push	edi

; 415  :             return (result);

	jmp	SHORT $LN20@PMC_Bitwis
$LN10@PMC_Bitwis:

; 416  :     }
; 417  :     else
; 418  :     {
; 419  :         if (nu->UNIT_WORD_COUNT < nv->UNIT_WORD_COUNT)

	mov	ecx, DWORD PTR [edi+8]

; 420  :         {
; 421  :             NUMBER_HEADER* t = nu;
; 422  :             nu = nv;
; 423  :             nv = t;
; 424  :         }
; 425  :         __UNIT_TYPE u_bit_count = nu->UNIT_BIT_COUNT;

	mov	edx, edi
	cmp	ecx, DWORD PTR [esi+8]
	cmovae	edx, esi
	cmovae	esi, edi
	mov	DWORD PTR tv263[ebp], edx

; 426  :         __UNIT_TYPE v_bit_count = nv->UNIT_BIT_COUNT;

	mov	ecx, DWORD PTR [edx+12]

; 429  :         if ((result = AllocateNumber(&nw, w_bit_count, &nw_light_check_code)) != PMC_STATUS_OK)

	lea	edx, DWORD PTR _nw_light_check_code$1[ebp]
; File z:\sources\lunor\repos\rougemeilland\palmtree.math.core.uint\palmtree.math.core.uint\pmc_inline_func.h

; 197  :         return (x >= y ? x : y);

	cmp	DWORD PTR [esi+12], ecx
; File z:\sources\lunor\repos\rougemeilland\palmtree.math.core.uint\palmtree.math.core.uint\pmc_bitwiseor.c

; 429  :         if ((result = AllocateNumber(&nw, w_bit_count, &nw_light_check_code)) != PMC_STATUS_OK)

	push	edx
; File z:\sources\lunor\repos\rougemeilland\palmtree.math.core.uint\palmtree.math.core.uint\pmc_inline_func.h

; 197  :         return (x >= y ? x : y);

	cmovae	ecx, DWORD PTR [esi+12]
; File z:\sources\lunor\repos\rougemeilland\palmtree.math.core.uint\palmtree.math.core.uint\pmc_bitwiseor.c

; 429  :         if ((result = AllocateNumber(&nw, w_bit_count, &nw_light_check_code)) != PMC_STATUS_OK)

	push	ecx
	push	eax
	call	_AllocateNumber
	add	esp, 12					; 0000000cH
	test	eax, eax
	jne	SHORT $LN1@PMC_Bitwis

; 430  :             return (result);
; 431  :         BitwiseOr_X_X(nu->BLOCK, nu->UNIT_WORD_COUNT, nv->BLOCK, nv->UNIT_WORD_COUNT, nw->BLOCK);

	mov	eax, DWORD PTR _nw$[ebp]
	push	DWORD PTR [eax+32]
	mov	eax, DWORD PTR tv263[ebp]
	push	DWORD PTR [eax+8]
	push	DWORD PTR [eax+32]
	push	DWORD PTR [esi+8]
	push	DWORD PTR [esi+32]
	call	_BitwiseOr_X_X

; 432  :         if ((result = CheckBlockLight(nw->BLOCK, nw_light_check_code)) != PMC_STATUS_OK)

	mov	eax, DWORD PTR _nw$[ebp]
	push	DWORD PTR _nw_light_check_code$1[ebp]
	push	DWORD PTR [eax+32]
	call	_CheckBlockLight
	add	esp, 28					; 0000001cH
	test	eax, eax
	jne	SHORT $LN1@PMC_Bitwis

; 433  :             return (result);
; 434  :         CommitNumber(nw);

	push	DWORD PTR _nw$[ebp]
	call	_CommitNumber
	add	esp, 4
$LN11@PMC_Bitwis:

; 435  :     }
; 436  :     *w = (PMC_HANDLE_UINT)nw;

	mov	eax, DWORD PTR _nw$[ebp]
	pop	edi
	mov	DWORD PTR [ebx], eax

; 437  : #ifdef _DEBUG
; 438  :     if ((result = CheckNumber((NUMBER_HEADER*)*w)) != PMC_STATUS_OK)
; 439  :         return (result);
; 440  : #endif
; 441  :     return (PMC_STATUS_OK);

	xor	eax, eax

; 442  : }

	pop	esi
	pop	ebx
	pop	ebp
	ret	12					; 0000000cH
$LN19@PMC_Bitwis:

; 398  :         return (PMC_STATUS_ARGUMENT_ERROR);

	or	eax, -1
$LN1@PMC_Bitwis:
	pop	edi

; 442  : }

	pop	esi
	pop	ebx
	pop	ebp
	ret	12					; 0000000cH
_PMC_BitwiseOr_X_X@12 ENDP
_TEXT	ENDS
; Function compile flags: /Ogtp
; File z:\sources\lunor\repos\rougemeilland\palmtree.math.core.uint\palmtree.math.core.uint\pmc_bitwiseor.c
;	COMDAT _PMC_BitwiseOr_X_L@16
_TEXT	SEGMENT
_u$ = 8							; size = 4
_v$ = 12						; size = 8
_w$ = 20						; size = 4
_PMC_BitwiseOr_X_L@16 PROC				; COMDAT

; 369  : {

	push	ebp
	mov	ebp, esp
	push	esi

; 370  :     if (__UNIT_TYPE_BIT_COUNT * 2 < sizeof(v) * 8)
; 371  :     {
; 372  :         // _UINT64_T が 2 ワードで表現しきれない処理系には対応しない
; 373  :         return (PMC_STATUS_INTERNAL_ERROR);
; 374  :     }
; 375  :     if (u == NULL)

	mov	esi, DWORD PTR _u$[ebp]
	test	esi, esi
	je	SHORT $LN8@PMC_Bitwis

; 376  :         return (PMC_STATUS_ARGUMENT_ERROR);
; 377  :     if (w == NULL)

	cmp	DWORD PTR _w$[ebp], 0
	je	SHORT $LN8@PMC_Bitwis

; 379  :     PMC_STATUS_CODE result;
; 380  :     if ((result = CheckNumber((NUMBER_HEADER*)u)) != PMC_STATUS_OK)

	push	esi
	call	_CheckNumber
	add	esp, 4
	test	eax, eax
	jne	SHORT $LN6@PMC_Bitwis

; 381  :         return (result);
; 382  :     if ((result = PMC_BitwiseOr_X_L_Imp((NUMBER_HEADER*)u, v, (NUMBER_HEADER**)w)) != PMC_STATUS_OK)

	push	DWORD PTR _w$[ebp]
	push	DWORD PTR _v$[ebp+4]
	push	DWORD PTR _v$[ebp]
	push	esi
	call	_PMC_BitwiseOr_X_L_Imp
	add	esp, 16					; 00000010H
	pop	esi

; 383  :         return (result);
; 384  : #ifdef _DEBUG
; 385  :     if ((result = CheckNumber((NUMBER_HEADER*)*w)) != PMC_STATUS_OK)
; 386  :         return (result);
; 387  : #endif
; 388  :     return (PMC_STATUS_OK);
; 389  : }

	pop	ebp
	ret	16					; 00000010H
$LN8@PMC_Bitwis:

; 378  :         return (PMC_STATUS_ARGUMENT_ERROR);

	or	eax, -1
$LN6@PMC_Bitwis:
	pop	esi

; 383  :         return (result);
; 384  : #ifdef _DEBUG
; 385  :     if ((result = CheckNumber((NUMBER_HEADER*)*w)) != PMC_STATUS_OK)
; 386  :         return (result);
; 387  : #endif
; 388  :     return (PMC_STATUS_OK);
; 389  : }

	pop	ebp
	ret	16					; 00000010H
_PMC_BitwiseOr_X_L@16 ENDP
_TEXT	ENDS
; Function compile flags: /Ogtp
; File z:\sources\lunor\repos\rougemeilland\palmtree.math.core.uint\palmtree.math.core.uint\pmc_bitwiseor.c
;	COMDAT _PMC_BitwiseOr_X_I@12
_TEXT	SEGMENT
_u$ = 8							; size = 4
_v$ = 12						; size = 4
_w$ = 16						; size = 4
_PMC_BitwiseOr_X_I@12 PROC				; COMDAT

; 245  : {

	push	ebp
	mov	ebp, esp
	push	esi

; 246  :     if (__UNIT_TYPE_BIT_COUNT < sizeof(v) * 8)
; 247  :     {
; 248  :         // _UINT32_T が 1 ワードで表現しきれない処理系には対応しない
; 249  :         return (PMC_STATUS_INTERNAL_ERROR);
; 250  :     }
; 251  :     if (u == NULL)

	mov	esi, DWORD PTR _u$[ebp]
	test	esi, esi
	je	SHORT $LN8@PMC_Bitwis

; 252  :         return (PMC_STATUS_ARGUMENT_ERROR);
; 253  :     if (w == NULL)

	cmp	DWORD PTR _w$[ebp], 0
	je	SHORT $LN8@PMC_Bitwis

; 255  :     PMC_STATUS_CODE result;
; 256  :     if ((result = CheckNumber((NUMBER_HEADER*)u)) != PMC_STATUS_OK)

	push	esi
	call	_CheckNumber
	add	esp, 4
	test	eax, eax
	jne	SHORT $LN6@PMC_Bitwis

; 257  :         return (result);
; 258  :     if ((result = PMC_BitwiseOr_X_I_Imp((NUMBER_HEADER*)u, v, (NUMBER_HEADER**)w)) != PMC_STATUS_OK)

	push	DWORD PTR _w$[ebp]
	push	DWORD PTR _v$[ebp]
	push	esi
	call	_PMC_BitwiseOr_X_I_Imp
	add	esp, 12					; 0000000cH
	pop	esi

; 259  :         return (result);
; 260  : #ifdef _DEBUG
; 261  :     if ((result = CheckNumber((NUMBER_HEADER*)*w)) != PMC_STATUS_OK)
; 262  :         return (result);
; 263  : #endif
; 264  :     return (PMC_STATUS_OK);
; 265  : }

	pop	ebp
	ret	12					; 0000000cH
$LN8@PMC_Bitwis:

; 254  :         return (PMC_STATUS_ARGUMENT_ERROR);

	or	eax, -1
$LN6@PMC_Bitwis:
	pop	esi

; 259  :         return (result);
; 260  : #ifdef _DEBUG
; 261  :     if ((result = CheckNumber((NUMBER_HEADER*)*w)) != PMC_STATUS_OK)
; 262  :         return (result);
; 263  : #endif
; 264  :     return (PMC_STATUS_OK);
; 265  : }

	pop	ebp
	ret	12					; 0000000cH
_PMC_BitwiseOr_X_I@12 ENDP
_TEXT	ENDS
; Function compile flags: /Ogtp
; File z:\sources\lunor\repos\rougemeilland\palmtree.math.core.uint\palmtree.math.core.uint\pmc_bitwiseor.c
;	COMDAT _PMC_BitwiseOr_L_X@16
_TEXT	SEGMENT
_u$ = 8							; size = 8
_v$ = 16						; size = 4
_w$ = 20						; size = 4
_PMC_BitwiseOr_L_X@16 PROC				; COMDAT

; 346  : {

	push	ebp
	mov	ebp, esp
	push	esi

; 347  :     if (__UNIT_TYPE_BIT_COUNT * 2 < sizeof(u) * 8)
; 348  :     {
; 349  :         // _UINT64_T が 2 ワードで表現しきれない処理系には対応しない
; 350  :         return (PMC_STATUS_INTERNAL_ERROR);
; 351  :     }
; 352  :     if (v == NULL)

	mov	esi, DWORD PTR _v$[ebp]
	test	esi, esi
	je	SHORT $LN8@PMC_Bitwis

; 353  :         return (PMC_STATUS_ARGUMENT_ERROR);
; 354  :     if (w == NULL)

	cmp	DWORD PTR _w$[ebp], 0
	je	SHORT $LN8@PMC_Bitwis

; 356  :     PMC_STATUS_CODE result;
; 357  :     if ((result = CheckNumber((NUMBER_HEADER*)v)) != PMC_STATUS_OK)

	push	esi
	call	_CheckNumber
	add	esp, 4
	test	eax, eax
	jne	SHORT $LN6@PMC_Bitwis

; 358  :         return (result);
; 359  :     if ((result = PMC_BitwiseOr_X_L_Imp((NUMBER_HEADER*)v, u, (NUMBER_HEADER**)w)) != PMC_STATUS_OK)

	push	DWORD PTR _w$[ebp]
	push	DWORD PTR _u$[ebp+4]
	push	DWORD PTR _u$[ebp]
	push	esi
	call	_PMC_BitwiseOr_X_L_Imp
	add	esp, 16					; 00000010H
	pop	esi

; 360  :         return (result);
; 361  : #ifdef _DEBUG
; 362  :     if ((result = CheckNumber((NUMBER_HEADER*)*w)) != PMC_STATUS_OK)
; 363  :         return (result);
; 364  : #endif
; 365  :     return (PMC_STATUS_OK);
; 366  : }

	pop	ebp
	ret	16					; 00000010H
$LN8@PMC_Bitwis:

; 355  :         return (PMC_STATUS_ARGUMENT_ERROR);

	or	eax, -1
$LN6@PMC_Bitwis:
	pop	esi

; 360  :         return (result);
; 361  : #ifdef _DEBUG
; 362  :     if ((result = CheckNumber((NUMBER_HEADER*)*w)) != PMC_STATUS_OK)
; 363  :         return (result);
; 364  : #endif
; 365  :     return (PMC_STATUS_OK);
; 366  : }

	pop	ebp
	ret	16					; 00000010H
_PMC_BitwiseOr_L_X@16 ENDP
_TEXT	ENDS
; Function compile flags: /Ogtp
; File z:\sources\lunor\repos\rougemeilland\palmtree.math.core.uint\palmtree.math.core.uint\pmc_bitwiseor.c
;	COMDAT _PMC_BitwiseOr_I_X@12
_TEXT	SEGMENT
_u$ = 8							; size = 4
_v$ = 12						; size = 4
_w$ = 16						; size = 4
_PMC_BitwiseOr_I_X@12 PROC				; COMDAT

; 222  : {

	push	ebp
	mov	ebp, esp
	push	esi

; 223  :     if (__UNIT_TYPE_BIT_COUNT < sizeof(u) * 8)
; 224  :     {
; 225  :         // _UINT32_T が 1 ワードで表現しきれない処理系には対応しない
; 226  :         return (PMC_STATUS_INTERNAL_ERROR);
; 227  :     }
; 228  :     if (v == NULL)

	mov	esi, DWORD PTR _v$[ebp]
	test	esi, esi
	je	SHORT $LN8@PMC_Bitwis

; 229  :         return (PMC_STATUS_ARGUMENT_ERROR);
; 230  :     if (w == NULL)

	cmp	DWORD PTR _w$[ebp], 0
	je	SHORT $LN8@PMC_Bitwis

; 232  :     PMC_STATUS_CODE result;
; 233  :     if ((result = CheckNumber((NUMBER_HEADER*)v)) != PMC_STATUS_OK)

	push	esi
	call	_CheckNumber
	add	esp, 4
	test	eax, eax
	jne	SHORT $LN6@PMC_Bitwis

; 234  :         return (result);
; 235  :     if ((result = PMC_BitwiseOr_X_I_Imp((NUMBER_HEADER*)v, u, (NUMBER_HEADER**)w)) != PMC_STATUS_OK)

	push	DWORD PTR _w$[ebp]
	push	DWORD PTR _u$[ebp]
	push	esi
	call	_PMC_BitwiseOr_X_I_Imp
	add	esp, 12					; 0000000cH
	pop	esi

; 236  :         return (result);
; 237  : #ifdef _DEBUG
; 238  :     if ((result = CheckNumber((NUMBER_HEADER*)*w)) != PMC_STATUS_OK)
; 239  :         return (result);
; 240  : #endif
; 241  :     return (PMC_STATUS_OK);
; 242  : }

	pop	ebp
	ret	12					; 0000000cH
$LN8@PMC_Bitwis:

; 231  :         return (PMC_STATUS_ARGUMENT_ERROR);

	or	eax, -1
$LN6@PMC_Bitwis:
	pop	esi

; 236  :         return (result);
; 237  : #ifdef _DEBUG
; 238  :     if ((result = CheckNumber((NUMBER_HEADER*)*w)) != PMC_STATUS_OK)
; 239  :         return (result);
; 240  : #endif
; 241  :     return (PMC_STATUS_OK);
; 242  : }

	pop	ebp
	ret	12					; 0000000cH
_PMC_BitwiseOr_I_X@12 ENDP
_TEXT	ENDS
; Function compile flags: /Ogtp
; File z:\sources\lunor\repos\rougemeilland\palmtree.math.core.uint\palmtree.math.core.uint\pmc_bitwiseor.c
;	COMDAT _Initialize_BitwiseOr
_TEXT	SEGMENT
_feature$ = 8						; size = 4
_Initialize_BitwiseOr PROC				; COMDAT

; 446  :     return (PMC_STATUS_OK);

	xor	eax, eax

; 447  : }

	ret	0
_Initialize_BitwiseOr ENDP
_TEXT	ENDS
END
