; Listing generated by Microsoft (R) Optimizing Compiler Version 19.16.27027.1 

	TITLE	Z:\Sources\Lunor\Repos\rougemeilland\Palmtree.Math.Core.Uint\Palmtree.Math.Core.Uint\pmc_from.cpp
	.686P
	.XMM
	include listing.inc
	.model	flat

INCLUDELIB MSVCRT
INCLUDELIB OLDNAMES

PUBLIC	??1exception@std@@UAE@XZ			; std::exception::~exception
PUBLIC	?what@exception@std@@UBEPBDXZ			; std::exception::what
PUBLIC	??_Gexception@std@@UAEPAXI@Z			; std::exception::`scalar deleting destructor'
PUBLIC	??1Exception@Internal@Core@Math@Palmtree@@UAE@XZ ; Palmtree::Math::Core::Internal::Exception::~Exception
PUBLIC	??_GException@Internal@Core@Math@Palmtree@@UAEPAXI@Z ; Palmtree::Math::Core::Internal::Exception::`scalar deleting destructor'
PUBLIC	??1InternalErrorException@Internal@Core@Math@Palmtree@@UAE@XZ ; Palmtree::Math::Core::Internal::InternalErrorException::~InternalErrorException
PUBLIC	??_GInternalErrorException@Internal@Core@Math@Palmtree@@UAEPAXI@Z ; Palmtree::Math::Core::Internal::InternalErrorException::`scalar deleting destructor'
PUBLIC	?From_I_Imp@Internal@Core@Math@Palmtree@@YAPAU__tag_NUMBER_HEADER@1234@I@Z ; Palmtree::Math::Core::Internal::From_I_Imp
PUBLIC	?From_L_Imp@Internal@Core@Math@Palmtree@@YAPAU__tag_NUMBER_HEADER@1234@_K@Z ; Palmtree::Math::Core::Internal::From_L_Imp
PUBLIC	?Initialize_From@Internal@Core@Math@Palmtree@@YAHPAU_tag_PROCESSOR_FEATURES@1234@@Z ; Palmtree::Math::Core::Internal::Initialize_From
PUBLIC	?PMC_From_I@Internal@Core@Math@Palmtree@@YGPAU__tag_PMC_HANDLE_UINT@1234@I@Z ; Palmtree::Math::Core::Internal::PMC_From_I
PUBLIC	?PMC_From_L@Internal@Core@Math@Palmtree@@YGPAU__tag_PMC_HANDLE_UINT@1234@_K@Z ; Palmtree::Math::Core::Internal::PMC_From_L
PUBLIC	??_7exception@std@@6B@				; std::exception::`vftable'
PUBLIC	??_C@_0BC@EOODALEL@Unknown?5exception@		; `string'
PUBLIC	??_7Exception@Internal@Core@Math@Palmtree@@6B@	; Palmtree::Math::Core::Internal::Exception::`vftable'
PUBLIC	??_7InternalErrorException@Internal@Core@Math@Palmtree@@6B@ ; Palmtree::Math::Core::Internal::InternalErrorException::`vftable'
PUBLIC	??_R0?AVInternalErrorException@Internal@Core@Math@Palmtree@@@8 ; Palmtree::Math::Core::Internal::InternalErrorException `RTTI Type Descriptor'
PUBLIC	??_R0?AVException@Internal@Core@Math@Palmtree@@@8 ; Palmtree::Math::Core::Internal::Exception `RTTI Type Descriptor'
PUBLIC	??_R4exception@std@@6B@				; std::exception::`RTTI Complete Object Locator'
PUBLIC	??_R0?AVexception@std@@@8			; std::exception `RTTI Type Descriptor'
PUBLIC	??_R3exception@std@@8				; std::exception::`RTTI Class Hierarchy Descriptor'
PUBLIC	??_R2exception@std@@8				; std::exception::`RTTI Base Class Array'
PUBLIC	??_R1A@?0A@EA@exception@std@@8			; std::exception::`RTTI Base Class Descriptor at (0,-1,0,64)'
PUBLIC	??_R4Exception@Internal@Core@Math@Palmtree@@6B@	; Palmtree::Math::Core::Internal::Exception::`RTTI Complete Object Locator'
PUBLIC	??_R3Exception@Internal@Core@Math@Palmtree@@8	; Palmtree::Math::Core::Internal::Exception::`RTTI Class Hierarchy Descriptor'
PUBLIC	??_R2Exception@Internal@Core@Math@Palmtree@@8	; Palmtree::Math::Core::Internal::Exception::`RTTI Base Class Array'
PUBLIC	??_R1A@?0A@EA@Exception@Internal@Core@Math@Palmtree@@8 ; Palmtree::Math::Core::Internal::Exception::`RTTI Base Class Descriptor at (0,-1,0,64)'
PUBLIC	??_R1A@?0A@EN@exception@std@@8			; std::exception::`RTTI Base Class Descriptor at (0,-1,0,77)'
PUBLIC	??_R4InternalErrorException@Internal@Core@Math@Palmtree@@6B@ ; Palmtree::Math::Core::Internal::InternalErrorException::`RTTI Complete Object Locator'
PUBLIC	??_R3InternalErrorException@Internal@Core@Math@Palmtree@@8 ; Palmtree::Math::Core::Internal::InternalErrorException::`RTTI Class Hierarchy Descriptor'
PUBLIC	??_R2InternalErrorException@Internal@Core@Math@Palmtree@@8 ; Palmtree::Math::Core::Internal::InternalErrorException::`RTTI Base Class Array'
PUBLIC	??_R1A@?0A@EA@InternalErrorException@Internal@Core@Math@Palmtree@@8 ; Palmtree::Math::Core::Internal::InternalErrorException::`RTTI Base Class Descriptor at (0,-1,0,64)'
EXTRN	??3@YAXPAXI@Z:PROC				; operator delete
EXTRN	___std_exception_destroy:PROC
EXTRN	??_Eexception@std@@UAEPAXI@Z:PROC		; std::exception::`vector deleting destructor'
EXTRN	??_EException@Internal@Core@Math@Palmtree@@UAEPAXI@Z:PROC ; Palmtree::Math::Core::Internal::Exception::`vector deleting destructor'
EXTRN	??_EInternalErrorException@Internal@Core@Math@Palmtree@@UAEPAXI@Z:PROC ; Palmtree::Math::Core::Internal::InternalErrorException::`vector deleting destructor'
EXTRN	?CommitNumber@Internal@Core@Math@Palmtree@@YAXPAU__tag_NUMBER_HEADER@1234@@Z:PROC ; Palmtree::Math::Core::Internal::CommitNumber
EXTRN	??0ResourceHolderUINT@Internal@Core@Math@Palmtree@@QAE@XZ:PROC ; Palmtree::Math::Core::Internal::ResourceHolderUINT::ResourceHolderUINT
EXTRN	??1ResourceHolderUINT@Internal@Core@Math@Palmtree@@UAE@XZ:PROC ; Palmtree::Math::Core::Internal::ResourceHolderUINT::~ResourceHolderUINT
EXTRN	?AllocateNumber@ResourceHolderUINT@Internal@Core@Math@Palmtree@@QAEPAU__tag_NUMBER_HEADER@2345@I@Z:PROC ; Palmtree::Math::Core::Internal::ResourceHolderUINT::AllocateNumber
EXTRN	?HookNumber@ResourceHolderUINT@Internal@Core@Math@Palmtree@@QAEXPAU__tag_NUMBER_HEADER@2345@@Z:PROC ; Palmtree::Math::Core::Internal::ResourceHolderUINT::HookNumber
EXTRN	?UnlinkNumber@ResourceHolderUINT@Internal@Core@Math@Palmtree@@QAEXPAU__tag_NUMBER_HEADER@2345@@Z:PROC ; Palmtree::Math::Core::Internal::ResourceHolderUINT::UnlinkNumber
EXTRN	@__security_check_cookie@4:PROC
EXTRN	__CxxThrowException@8:PROC
EXTRN	___CxxFrameHandler3:PROC
EXTRN	?number_zero@Internal@Core@Math@Palmtree@@3U__tag_NUMBER_HEADER@1234@A:BYTE ; Palmtree::Math::Core::Internal::number_zero
EXTRN	??_7type_info@@6B@:QWORD			; type_info::`vftable'
EXTRN	___security_cookie:DWORD
;	COMDAT ??_R1A@?0A@EA@InternalErrorException@Internal@Core@Math@Palmtree@@8
rdata$r	SEGMENT
??_R1A@?0A@EA@InternalErrorException@Internal@Core@Math@Palmtree@@8 DD FLAT:??_R0?AVInternalErrorException@Internal@Core@Math@Palmtree@@@8 ; Palmtree::Math::Core::Internal::InternalErrorException::`RTTI Base Class Descriptor at (0,-1,0,64)'
	DD	02H
	DD	00H
	DD	0ffffffffH
	DD	00H
	DD	040H
	DD	FLAT:??_R3InternalErrorException@Internal@Core@Math@Palmtree@@8
rdata$r	ENDS
;	COMDAT ??_R2InternalErrorException@Internal@Core@Math@Palmtree@@8
rdata$r	SEGMENT
??_R2InternalErrorException@Internal@Core@Math@Palmtree@@8 DD FLAT:??_R1A@?0A@EA@InternalErrorException@Internal@Core@Math@Palmtree@@8 ; Palmtree::Math::Core::Internal::InternalErrorException::`RTTI Base Class Array'
	DD	FLAT:??_R1A@?0A@EA@Exception@Internal@Core@Math@Palmtree@@8
	DD	FLAT:??_R1A@?0A@EN@exception@std@@8
rdata$r	ENDS
;	COMDAT ??_R3InternalErrorException@Internal@Core@Math@Palmtree@@8
rdata$r	SEGMENT
??_R3InternalErrorException@Internal@Core@Math@Palmtree@@8 DD 00H ; Palmtree::Math::Core::Internal::InternalErrorException::`RTTI Class Hierarchy Descriptor'
	DD	00H
	DD	03H
	DD	FLAT:??_R2InternalErrorException@Internal@Core@Math@Palmtree@@8
rdata$r	ENDS
;	COMDAT ??_R4InternalErrorException@Internal@Core@Math@Palmtree@@6B@
rdata$r	SEGMENT
??_R4InternalErrorException@Internal@Core@Math@Palmtree@@6B@ DD 00H ; Palmtree::Math::Core::Internal::InternalErrorException::`RTTI Complete Object Locator'
	DD	00H
	DD	00H
	DD	FLAT:??_R0?AVInternalErrorException@Internal@Core@Math@Palmtree@@@8
	DD	FLAT:??_R3InternalErrorException@Internal@Core@Math@Palmtree@@8
rdata$r	ENDS
;	COMDAT ??_R1A@?0A@EN@exception@std@@8
rdata$r	SEGMENT
??_R1A@?0A@EN@exception@std@@8 DD FLAT:??_R0?AVexception@std@@@8 ; std::exception::`RTTI Base Class Descriptor at (0,-1,0,77)'
	DD	00H
	DD	00H
	DD	0ffffffffH
	DD	00H
	DD	04dH
	DD	FLAT:??_R3exception@std@@8
rdata$r	ENDS
;	COMDAT ??_R1A@?0A@EA@Exception@Internal@Core@Math@Palmtree@@8
rdata$r	SEGMENT
??_R1A@?0A@EA@Exception@Internal@Core@Math@Palmtree@@8 DD FLAT:??_R0?AVException@Internal@Core@Math@Palmtree@@@8 ; Palmtree::Math::Core::Internal::Exception::`RTTI Base Class Descriptor at (0,-1,0,64)'
	DD	01H
	DD	00H
	DD	0ffffffffH
	DD	00H
	DD	040H
	DD	FLAT:??_R3Exception@Internal@Core@Math@Palmtree@@8
rdata$r	ENDS
;	COMDAT ??_R2Exception@Internal@Core@Math@Palmtree@@8
rdata$r	SEGMENT
??_R2Exception@Internal@Core@Math@Palmtree@@8 DD FLAT:??_R1A@?0A@EA@Exception@Internal@Core@Math@Palmtree@@8 ; Palmtree::Math::Core::Internal::Exception::`RTTI Base Class Array'
	DD	FLAT:??_R1A@?0A@EN@exception@std@@8
rdata$r	ENDS
;	COMDAT ??_R3Exception@Internal@Core@Math@Palmtree@@8
rdata$r	SEGMENT
??_R3Exception@Internal@Core@Math@Palmtree@@8 DD 00H	; Palmtree::Math::Core::Internal::Exception::`RTTI Class Hierarchy Descriptor'
	DD	00H
	DD	02H
	DD	FLAT:??_R2Exception@Internal@Core@Math@Palmtree@@8
rdata$r	ENDS
;	COMDAT ??_R4Exception@Internal@Core@Math@Palmtree@@6B@
rdata$r	SEGMENT
??_R4Exception@Internal@Core@Math@Palmtree@@6B@ DD 00H	; Palmtree::Math::Core::Internal::Exception::`RTTI Complete Object Locator'
	DD	00H
	DD	00H
	DD	FLAT:??_R0?AVException@Internal@Core@Math@Palmtree@@@8
	DD	FLAT:??_R3Exception@Internal@Core@Math@Palmtree@@8
rdata$r	ENDS
;	COMDAT ??_R1A@?0A@EA@exception@std@@8
rdata$r	SEGMENT
??_R1A@?0A@EA@exception@std@@8 DD FLAT:??_R0?AVexception@std@@@8 ; std::exception::`RTTI Base Class Descriptor at (0,-1,0,64)'
	DD	00H
	DD	00H
	DD	0ffffffffH
	DD	00H
	DD	040H
	DD	FLAT:??_R3exception@std@@8
rdata$r	ENDS
;	COMDAT ??_R2exception@std@@8
rdata$r	SEGMENT
??_R2exception@std@@8 DD FLAT:??_R1A@?0A@EA@exception@std@@8 ; std::exception::`RTTI Base Class Array'
rdata$r	ENDS
;	COMDAT ??_R3exception@std@@8
rdata$r	SEGMENT
??_R3exception@std@@8 DD 00H				; std::exception::`RTTI Class Hierarchy Descriptor'
	DD	00H
	DD	01H
	DD	FLAT:??_R2exception@std@@8
rdata$r	ENDS
;	COMDAT ??_R0?AVexception@std@@@8
data$r	SEGMENT
??_R0?AVexception@std@@@8 DD FLAT:??_7type_info@@6B@	; std::exception `RTTI Type Descriptor'
	DD	00H
	DB	'.?AVexception@std@@', 00H
data$r	ENDS
;	COMDAT ??_R4exception@std@@6B@
rdata$r	SEGMENT
??_R4exception@std@@6B@ DD 00H				; std::exception::`RTTI Complete Object Locator'
	DD	00H
	DD	00H
	DD	FLAT:??_R0?AVexception@std@@@8
	DD	FLAT:??_R3exception@std@@8
rdata$r	ENDS
;	COMDAT ??_R0?AVException@Internal@Core@Math@Palmtree@@@8
data$r	SEGMENT
??_R0?AVException@Internal@Core@Math@Palmtree@@@8 DD FLAT:??_7type_info@@6B@ ; Palmtree::Math::Core::Internal::Exception `RTTI Type Descriptor'
	DD	00H
	DB	'.?AVException@Internal@Core@Math@Palmtree@@', 00H
data$r	ENDS
;	COMDAT ??_R0?AVInternalErrorException@Internal@Core@Math@Palmtree@@@8
data$r	SEGMENT
??_R0?AVInternalErrorException@Internal@Core@Math@Palmtree@@@8 DD FLAT:??_7type_info@@6B@ ; Palmtree::Math::Core::Internal::InternalErrorException `RTTI Type Descriptor'
	DD	00H
	DB	'.?AVInternalErrorException@Internal@Core@Math@Palmtree@@'
	DB	00H
data$r	ENDS
;	COMDAT ??_7InternalErrorException@Internal@Core@Math@Palmtree@@6B@
CONST	SEGMENT
??_7InternalErrorException@Internal@Core@Math@Palmtree@@6B@ DD FLAT:??_R4InternalErrorException@Internal@Core@Math@Palmtree@@6B@ ; Palmtree::Math::Core::Internal::InternalErrorException::`vftable'
	DD	FLAT:??_EInternalErrorException@Internal@Core@Math@Palmtree@@UAEPAXI@Z
	DD	FLAT:?what@exception@std@@UBEPBDXZ
CONST	ENDS
;	COMDAT ??_7Exception@Internal@Core@Math@Palmtree@@6B@
CONST	SEGMENT
??_7Exception@Internal@Core@Math@Palmtree@@6B@ DD FLAT:??_R4Exception@Internal@Core@Math@Palmtree@@6B@ ; Palmtree::Math::Core::Internal::Exception::`vftable'
	DD	FLAT:??_EException@Internal@Core@Math@Palmtree@@UAEPAXI@Z
	DD	FLAT:?what@exception@std@@UBEPBDXZ
CONST	ENDS
;	COMDAT ??_C@_0BC@EOODALEL@Unknown?5exception@
CONST	SEGMENT
??_C@_0BC@EOODALEL@Unknown?5exception@ DB 'Unknown exception', 00H ; `string'
CONST	ENDS
;	COMDAT ??_7exception@std@@6B@
CONST	SEGMENT
??_7exception@std@@6B@ DD FLAT:??_R4exception@std@@6B@	; std::exception::`vftable'
	DD	FLAT:??_Eexception@std@@UAEPAXI@Z
	DD	FLAT:?what@exception@std@@UBEPBDXZ
CONST	ENDS
;	COMDAT xdata$x
xdata$x	SEGMENT
__unwindtable$?PMC_From_L@Internal@Core@Math@Palmtree@@YGPAU__tag_PMC_HANDLE_UINT@1234@_K@Z DD 0ffffffffH
	DD	FLAT:__unwindfunclet$?PMC_From_L@Internal@Core@Math@Palmtree@@YGPAU__tag_PMC_HANDLE_UINT@1234@_K@Z$0
	DD	00H
	DD	FLAT:__unwindfunclet$?PMC_From_L@Internal@Core@Math@Palmtree@@YGPAU__tag_PMC_HANDLE_UINT@1234@_K@Z$1
	DD	00H
	DD	FLAT:__unwindfunclet$?PMC_From_L@Internal@Core@Math@Palmtree@@YGPAU__tag_PMC_HANDLE_UINT@1234@_K@Z$2
	DD	00H
	DD	00H
__ehfuncinfo$?PMC_From_L@Internal@Core@Math@Palmtree@@YGPAU__tag_PMC_HANDLE_UINT@1234@_K@Z DD 019930522H
	DD	04H
	DD	FLAT:__unwindtable$?PMC_From_L@Internal@Core@Math@Palmtree@@YGPAU__tag_PMC_HANDLE_UINT@1234@_K@Z
	DD	2 DUP(00H)
	DD	2 DUP(00H)
	DD	00H
	DD	00H
xdata$x	ENDS
;	COMDAT xdata$x
xdata$x	SEGMENT
__unwindtable$?PMC_From_I@Internal@Core@Math@Palmtree@@YGPAU__tag_PMC_HANDLE_UINT@1234@I@Z DD 0ffffffffH
	DD	FLAT:__unwindfunclet$?PMC_From_I@Internal@Core@Math@Palmtree@@YGPAU__tag_PMC_HANDLE_UINT@1234@I@Z$0
	DD	00H
	DD	FLAT:__unwindfunclet$?PMC_From_I@Internal@Core@Math@Palmtree@@YGPAU__tag_PMC_HANDLE_UINT@1234@I@Z$1
__ehfuncinfo$?PMC_From_I@Internal@Core@Math@Palmtree@@YGPAU__tag_PMC_HANDLE_UINT@1234@I@Z DD 019930522H
	DD	02H
	DD	FLAT:__unwindtable$?PMC_From_I@Internal@Core@Math@Palmtree@@YGPAU__tag_PMC_HANDLE_UINT@1234@I@Z
	DD	2 DUP(00H)
	DD	2 DUP(00H)
	DD	00H
	DD	00H
xdata$x	ENDS
;	COMDAT xdata$x
xdata$x	SEGMENT
__unwindtable$?From_L_Imp@Internal@Core@Math@Palmtree@@YAPAU__tag_NUMBER_HEADER@1234@_K@Z DD 0ffffffffH
	DD	FLAT:__unwindfunclet$?From_L_Imp@Internal@Core@Math@Palmtree@@YAPAU__tag_NUMBER_HEADER@1234@_K@Z$0
	DD	0ffffffffH
	DD	FLAT:__unwindfunclet$?From_L_Imp@Internal@Core@Math@Palmtree@@YAPAU__tag_NUMBER_HEADER@1234@_K@Z$1
	DD	0ffffffffH
	DD	00H
__ehfuncinfo$?From_L_Imp@Internal@Core@Math@Palmtree@@YAPAU__tag_NUMBER_HEADER@1234@_K@Z DD 019930522H
	DD	03H
	DD	FLAT:__unwindtable$?From_L_Imp@Internal@Core@Math@Palmtree@@YAPAU__tag_NUMBER_HEADER@1234@_K@Z
	DD	2 DUP(00H)
	DD	2 DUP(00H)
	DD	00H
	DD	00H
xdata$x	ENDS
;	COMDAT xdata$x
xdata$x	SEGMENT
__unwindtable$?From_I_Imp@Internal@Core@Math@Palmtree@@YAPAU__tag_NUMBER_HEADER@1234@I@Z DD 0ffffffffH
	DD	FLAT:__unwindfunclet$?From_I_Imp@Internal@Core@Math@Palmtree@@YAPAU__tag_NUMBER_HEADER@1234@I@Z$0
__ehfuncinfo$?From_I_Imp@Internal@Core@Math@Palmtree@@YAPAU__tag_NUMBER_HEADER@1234@I@Z DD 019930522H
	DD	01H
	DD	FLAT:__unwindtable$?From_I_Imp@Internal@Core@Math@Palmtree@@YAPAU__tag_NUMBER_HEADER@1234@I@Z
	DD	2 DUP(00H)
	DD	2 DUP(00H)
	DD	00H
	DD	00H
xdata$x	ENDS
;	COMDAT xdata$x
xdata$x	SEGMENT
__unwindtable$??_GInternalErrorException@Internal@Core@Math@Palmtree@@UAEPAXI@Z DD 0ffffffffH
	DD	FLAT:__unwindfunclet$??_GInternalErrorException@Internal@Core@Math@Palmtree@@UAEPAXI@Z$0
	DD	0ffffffffH
	DD	FLAT:__unwindfunclet$??_GInternalErrorException@Internal@Core@Math@Palmtree@@UAEPAXI@Z$1
__ehfuncinfo$??_GInternalErrorException@Internal@Core@Math@Palmtree@@UAEPAXI@Z DD 019930522H
	DD	02H
	DD	FLAT:__unwindtable$??_GInternalErrorException@Internal@Core@Math@Palmtree@@UAEPAXI@Z
	DD	2 DUP(00H)
	DD	2 DUP(00H)
	DD	00H
	DD	04H
xdata$x	ENDS
;	COMDAT xdata$x
xdata$x	SEGMENT
__unwindtable$??1InternalErrorException@Internal@Core@Math@Palmtree@@UAE@XZ DD 0ffffffffH
	DD	FLAT:__unwindfunclet$??1InternalErrorException@Internal@Core@Math@Palmtree@@UAE@XZ$0
	DD	0ffffffffH
	DD	FLAT:__unwindfunclet$??1InternalErrorException@Internal@Core@Math@Palmtree@@UAE@XZ$1
__ehfuncinfo$??1InternalErrorException@Internal@Core@Math@Palmtree@@UAE@XZ DD 019930522H
	DD	02H
	DD	FLAT:__unwindtable$??1InternalErrorException@Internal@Core@Math@Palmtree@@UAE@XZ
	DD	2 DUP(00H)
	DD	2 DUP(00H)
	DD	00H
	DD	04H
xdata$x	ENDS
;	COMDAT xdata$x
xdata$x	SEGMENT
__unwindtable$??0InternalErrorException@Internal@Core@Math@Palmtree@@QAE@PB_W0@Z DD 0ffffffffH
	DD	FLAT:__unwindfunclet$??0InternalErrorException@Internal@Core@Math@Palmtree@@QAE@PB_W0@Z$1
	DD	0ffffffffH
	DD	FLAT:__unwindfunclet$??0InternalErrorException@Internal@Core@Math@Palmtree@@QAE@PB_W0@Z$0
__ehfuncinfo$??0InternalErrorException@Internal@Core@Math@Palmtree@@QAE@PB_W0@Z DD 019930522H
	DD	02H
	DD	FLAT:__unwindtable$??0InternalErrorException@Internal@Core@Math@Palmtree@@QAE@PB_W0@Z
	DD	2 DUP(00H)
	DD	2 DUP(00H)
	DD	00H
	DD	04H
xdata$x	ENDS
;	COMDAT xdata$x
xdata$x	SEGMENT
__unwindtable$??_GException@Internal@Core@Math@Palmtree@@UAEPAXI@Z DD 0ffffffffH
	DD	FLAT:__unwindfunclet$??_GException@Internal@Core@Math@Palmtree@@UAEPAXI@Z$0
__ehfuncinfo$??_GException@Internal@Core@Math@Palmtree@@UAEPAXI@Z DD 019930522H
	DD	01H
	DD	FLAT:__unwindtable$??_GException@Internal@Core@Math@Palmtree@@UAEPAXI@Z
	DD	2 DUP(00H)
	DD	2 DUP(00H)
	DD	00H
	DD	04H
xdata$x	ENDS
;	COMDAT xdata$x
xdata$x	SEGMENT
__unwindtable$??1Exception@Internal@Core@Math@Palmtree@@UAE@XZ DD 0ffffffffH
	DD	FLAT:__unwindfunclet$??1Exception@Internal@Core@Math@Palmtree@@UAE@XZ$0
__ehfuncinfo$??1Exception@Internal@Core@Math@Palmtree@@UAE@XZ DD 019930522H
	DD	01H
	DD	FLAT:__unwindtable$??1Exception@Internal@Core@Math@Palmtree@@UAE@XZ
	DD	2 DUP(00H)
	DD	2 DUP(00H)
	DD	00H
	DD	04H
xdata$x	ENDS
;	COMDAT xdata$x
xdata$x	SEGMENT
__unwindtable$??0Exception@Internal@Core@Math@Palmtree@@IAE@HPB_W0@Z DD 0ffffffffH
	DD	FLAT:__unwindfunclet$??0Exception@Internal@Core@Math@Palmtree@@IAE@HPB_W0@Z$0
__ehfuncinfo$??0Exception@Internal@Core@Math@Palmtree@@IAE@HPB_W0@Z DD 019930522H
	DD	01H
	DD	FLAT:__unwindtable$??0Exception@Internal@Core@Math@Palmtree@@IAE@HPB_W0@Z
	DD	2 DUP(00H)
	DD	2 DUP(00H)
	DD	00H
	DD	04H
xdata$x	ENDS
;	COMDAT xdata$x
xdata$x	SEGMENT
__ehfuncinfo$??_Gexception@std@@UAEPAXI@Z DD 019930522H
	DD	00H
	DD	00H
	DD	2 DUP(00H)
	DD	2 DUP(00H)
	DD	00H
	DD	04H
xdata$x	ENDS
;	COMDAT xdata$x
xdata$x	SEGMENT
__ehfuncinfo$??1exception@std@@UAE@XZ DD 019930522H
	DD	00H
	DD	00H
	DD	2 DUP(00H)
	DD	2 DUP(00H)
	DD	00H
	DD	04H
xdata$x	ENDS
; Function compile flags: /Ogtp
; File z:\sources\lunor\repos\rougemeilland\palmtree.math.core.uint\palmtree.math.core.uint\pmc_inline_func.h
;	COMDAT __LZCNT_ALT_UNIT
_TEXT	SEGMENT
_x$ = 8							; size = 4
__LZCNT_ALT_UNIT PROC					; COMDAT

; 454  :         {

  00000	55		 push	 ebp
  00001	8b ec		 mov	 ebp, esp

; 455  :             if (x == 0)

  00003	8b 45 08	 mov	 eax, DWORD PTR _x$[ebp]
  00006	85 c0		 test	 eax, eax
  00008	75 07		 jne	 SHORT $LN2@LZCNT_ALT_

; 456  :                 return (sizeof(x) * 8);

  0000a	b8 20 00 00 00	 mov	 eax, 32			; 00000020H

; 480  :         }

  0000f	5d		 pop	 ebp
  00010	c3		 ret	 0
$LN2@LZCNT_ALT_:

; 457  : #ifdef _M_IX86
; 458  :             DWORD pos;
; 459  : #ifdef _MSC_VER
; 460  :             _BitScanReverse(&pos, x);

  00011	0f bd c8	 bsr	 ecx, eax

; 461  : #elif defined(__GNUC__)
; 462  :             __asm__("bsrl %1, %0" : "=r"(pos) : "rm"(x));
; 463  : #else
; 464  : #error unknown compiler
; 465  : #endif
; 466  : #elif defined(_M_X64)
; 467  : #ifdef _MSC_VER
; 468  :             DWORD pos;
; 469  :             _BitScanReverse64(&pos, x);
; 470  : #elif defined(__GNUC__)
; 471  :             _UINT64_T pos;
; 472  :             __asm__("bsrq %1, %0" : "=r"(pos) : "rm"(x));
; 473  : #else
; 474  : #error unknown compiler
; 475  : #endif
; 476  : #else
; 477  : #error unknown platform
; 478  : #endif
; 479  :             return (sizeof(x) * 8 - 1 - pos);

  00014	b8 1f 00 00 00	 mov	 eax, 31			; 0000001fH
  00019	2b c1		 sub	 eax, ecx

; 480  :         }

  0001b	5d		 pop	 ebp
  0001c	c3		 ret	 0
__LZCNT_ALT_UNIT ENDP
_TEXT	ENDS
; Function compile flags: /Ogtp
; File z:\sources\lunor\repos\rougemeilland\palmtree.math.core.uint\palmtree.math.core.uint\pmc_inline_func.h
;	COMDAT __LZCNT_ALT_32
_TEXT	SEGMENT
_x$ = 8							; size = 4
__LZCNT_ALT_32 PROC					; COMDAT

; 421  :         {

  00000	55		 push	 ebp
  00001	8b ec		 mov	 ebp, esp

; 422  :             if (x == 0)

  00003	8b 45 08	 mov	 eax, DWORD PTR _x$[ebp]
  00006	85 c0		 test	 eax, eax
  00008	75 07		 jne	 SHORT $LN2@LZCNT_ALT_

; 423  :                 return (sizeof(x) * 8);

  0000a	b8 20 00 00 00	 mov	 eax, 32			; 00000020H

; 433  :         }

  0000f	5d		 pop	 ebp
  00010	c3		 ret	 0
$LN2@LZCNT_ALT_:

; 424  :             DWORD pos;
; 425  : #ifdef _MSC_VER
; 426  :             _BitScanReverse(&pos, x);

  00011	0f bd c8	 bsr	 ecx, eax

; 427  : #elif defined(__GNUC__)
; 428  :             __asm__("bsrl %1, %0" : "=r"(pos) : "rm"(x));
; 429  : #else
; 430  : #error unknown compiler
; 431  : #endif
; 432  :             return (sizeof(x) * 8 - 1 - pos);

  00014	b8 1f 00 00 00	 mov	 eax, 31			; 0000001fH
  00019	2b c1		 sub	 eax, ecx

; 433  :         }

  0001b	5d		 pop	 ebp
  0001c	c3		 ret	 0
__LZCNT_ALT_32 ENDP
_TEXT	ENDS
; Function compile flags: /Ogtp
; File z:\sources\lunor\repos\rougemeilland\palmtree.math.core.uint\palmtree.math.core.uint\pmc_inline_func.h
;	COMDAT __FROMDWORDTOWORD
_TEXT	SEGMENT
_value$ = 8						; size = 8
_result_high$ = 16					; size = 4
__FROMDWORDTOWORD PROC					; COMDAT

; 145  :         {

  00000	55		 push	 ebp
  00001	8b ec		 mov	 ebp, esp

; 146  :             *result_high = (_UINT32_T)(value >> 32);

  00003	8b 45 10	 mov	 eax, DWORD PTR _result_high$[ebp]
  00006	8b 4d 0c	 mov	 ecx, DWORD PTR _value$[ebp+4]
  00009	89 08		 mov	 DWORD PTR [eax], ecx

; 147  :             return ((_UINT32_T)value);

  0000b	8b 45 08	 mov	 eax, DWORD PTR _value$[ebp]

; 148  :         }

  0000e	5d		 pop	 ebp
  0000f	c3		 ret	 0
__FROMDWORDTOWORD ENDP
_TEXT	ENDS
; Function compile flags: /Ogtp
; File z:\sources\lunor\repos\rougemeilland\palmtree.math.core.uint\palmtree.math.core.uint\pmc_from.cpp
; File z:\sources\lunor\repos\rougemeilland\palmtree.math.core.uint\palmtree.math.core.uint\pmc_inline_func.h
; File z:\sources\lunor\repos\rougemeilland\palmtree.math.core.uint\palmtree.math.core.uint\pmc_from.cpp
; File z:\sources\lunor\repos\rougemeilland\palmtree.math.core.uint\palmtree.math.core.uint\pmc_inline_func.h
; File z:\sources\lunor\repos\rougemeilland\palmtree.math.core.uint\palmtree.math.core.uint\pmc_from.cpp
;	COMDAT ?PMC_From_L@Internal@Core@Math@Palmtree@@YGPAU__tag_PMC_HANDLE_UINT@1234@_K@Z
_TEXT	SEGMENT
_root$ = -60						; size = 16
_root$2 = -44						; size = 16
_root$3 = -28						; size = 16
__$EHRec$ = -12						; size = 12
_x$ = 8							; size = 8
?PMC_From_L@Internal@Core@Math@Palmtree@@YGPAU__tag_PMC_HANDLE_UINT@1234@_K@Z PROC ; Palmtree::Math::Core::Internal::PMC_From_L, COMDAT

; 113  :     {

  00000	55		 push	 ebp
  00001	8b ec		 mov	 ebp, esp
  00003	6a ff		 push	 -1
  00005	68 00 00 00 00	 push	 __ehhandler$?PMC_From_L@Internal@Core@Math@Palmtree@@YGPAU__tag_PMC_HANDLE_UINT@1234@_K@Z
  0000a	64 a1 00 00 00
	00		 mov	 eax, DWORD PTR fs:0
  00010	50		 push	 eax
  00011	83 ec 30	 sub	 esp, 48			; 00000030H
  00014	53		 push	 ebx
  00015	56		 push	 esi
  00016	57		 push	 edi
  00017	a1 00 00 00 00	 mov	 eax, DWORD PTR ___security_cookie
  0001c	33 c5		 xor	 eax, ebp
  0001e	50		 push	 eax
  0001f	8d 45 f4	 lea	 eax, DWORD PTR __$EHRec$[ebp]
  00022	64 a3 00 00 00
	00		 mov	 DWORD PTR fs:0, eax

; 114  :         if (sizeof(__UNIT_TYPE) * 2 < sizeof(x))
; 115  :         {
; 116  :             // 32bit未満のCPUには未対応
; 117  :             throw InternalErrorException(L"予期していないコードに到達しました。", L"pmc_from.cpp;PMC_From_L;1");
; 118  :         }
; 119  :         ResourceHolderUINT root;

  00028	8d 4d c4	 lea	 ecx, DWORD PTR _root$[ebp]
  0002b	e8 00 00 00 00	 call	 ??0ResourceHolderUINT@Internal@Core@Math@Palmtree@@QAE@XZ ; Palmtree::Math::Core::Internal::ResourceHolderUINT::ResourceHolderUINT
  00030	c7 45 fc 00 00
	00 00		 mov	 DWORD PTR __$EHRec$[ebp+8], 0

; 120  :         NUMBER_HEADER* o;
; 121  :         if (x == 0)

  00037	8b 7d 08	 mov	 edi, DWORD PTR _x$[ebp]
  0003a	8b c7		 mov	 eax, edi
  0003c	8b 5d 0c	 mov	 ebx, DWORD PTR _x$[ebp+4]
  0003f	0b c3		 or	 eax, ebx
  00041	75 0a		 jne	 SHORT $LN3@PMC_From_L

; 122  :             o = &number_zero;

  00043	be 00 00 00 00	 mov	 esi, OFFSET ?number_zero@Internal@Core@Math@Palmtree@@3U__tag_NUMBER_HEADER@1234@A ; Palmtree::Math::Core::Internal::number_zero

; 123  :         else

  00048	e9 a6 00 00 00	 jmp	 $LN11@PMC_From_L
$LN3@PMC_From_L:

; 59   :             if (x_hi == 0)

  0004d	85 db		 test	 ebx, ebx
  0004f	75 51		 jne	 SHORT $LN12@PMC_From_L

; 60   :             {
; 61   :                 ResourceHolderUINT root;

  00051	8d 4d e4	 lea	 ecx, DWORD PTR _root$3[ebp]
  00054	e8 00 00 00 00	 call	 ??0ResourceHolderUINT@Internal@Core@Math@Palmtree@@QAE@XZ ; Palmtree::Math::Core::Internal::ResourceHolderUINT::ResourceHolderUINT
  00059	c6 45 fc 01	 mov	 BYTE PTR __$EHRec$[ebp+8], 1
; File z:\sources\lunor\repos\rougemeilland\palmtree.math.core.uint\palmtree.math.core.uint\pmc_inline_func.h

; 422  :             if (x == 0)

  0005d	85 ff		 test	 edi, edi
  0005f	75 05		 jne	 SHORT $LN21@PMC_From_L

; 423  :                 return (sizeof(x) * 8);

  00061	8d 4b 20	 lea	 ecx, DWORD PTR [ebx+32]
  00064	eb 0a		 jmp	 SHORT $LN20@PMC_From_L
$LN21@PMC_From_L:

; 424  :             DWORD pos;
; 425  : #ifdef _MSC_VER
; 426  :             _BitScanReverse(&pos, x);

  00066	0f bd c7	 bsr	 eax, edi

; 432  :             return (sizeof(x) * 8 - 1 - pos);

  00069	b9 1f 00 00 00	 mov	 ecx, 31			; 0000001fH
  0006e	2b c8		 sub	 ecx, eax
$LN20@PMC_From_L:
; File z:\sources\lunor\repos\rougemeilland\palmtree.math.core.uint\palmtree.math.core.uint\pmc_from.cpp

; 62   :                 __UNIT_TYPE x_bit_length = sizeof(x_lo) * 8 - _LZCNT_ALT_32(x_lo);

  00070	b8 20 00 00 00	 mov	 eax, 32			; 00000020H
  00075	2b c1		 sub	 eax, ecx

; 63   :                 NUMBER_HEADER* o = root.AllocateNumber(x_bit_length);

  00077	8d 4d e4	 lea	 ecx, DWORD PTR _root$3[ebp]
  0007a	50		 push	 eax
  0007b	e8 00 00 00 00	 call	 ?AllocateNumber@ResourceHolderUINT@Internal@Core@Math@Palmtree@@QAEPAU__tag_NUMBER_HEADER@2345@I@Z ; Palmtree::Math::Core::Internal::ResourceHolderUINT::AllocateNumber
  00080	8b f0		 mov	 esi, eax

; 64   :                 o->BLOCK[0] = x_lo;
; 65   :                 CommitNumber(o);

  00082	56		 push	 esi
  00083	8b 46 24	 mov	 eax, DWORD PTR [esi+36]
  00086	89 38		 mov	 DWORD PTR [eax], edi
  00088	e8 00 00 00 00	 call	 ?CommitNumber@Internal@Core@Math@Palmtree@@YAXPAU__tag_NUMBER_HEADER@1234@@Z ; Palmtree::Math::Core::Internal::CommitNumber
  0008d	83 c4 04	 add	 esp, 4

; 66   :                 root.UnlinkNumber(o);

  00090	8d 4d e4	 lea	 ecx, DWORD PTR _root$3[ebp]
  00093	56		 push	 esi
  00094	e8 00 00 00 00	 call	 ?UnlinkNumber@ResourceHolderUINT@Internal@Core@Math@Palmtree@@QAEXPAU__tag_NUMBER_HEADER@2345@@Z ; Palmtree::Math::Core::Internal::ResourceHolderUINT::UnlinkNumber

; 67   :                 return (o);

  00099	c6 45 fc 00	 mov	 BYTE PTR __$EHRec$[ebp+8], 0
  0009d	8d 4d e4	 lea	 ecx, DWORD PTR _root$3[ebp]
  000a0	eb 4c		 jmp	 SHORT $LN31@PMC_From_L
$LN12@PMC_From_L:

; 68   :             }
; 69   :             else
; 70   :             {
; 71   :                 ResourceHolderUINT root;

  000a2	8d 4d d4	 lea	 ecx, DWORD PTR _root$2[ebp]
  000a5	e8 00 00 00 00	 call	 ??0ResourceHolderUINT@Internal@Core@Math@Palmtree@@QAE@XZ ; Palmtree::Math::Core::Internal::ResourceHolderUINT::ResourceHolderUINT
  000aa	c6 45 fc 02	 mov	 BYTE PTR __$EHRec$[ebp+8], 2
; File z:\sources\lunor\repos\rougemeilland\palmtree.math.core.uint\palmtree.math.core.uint\pmc_inline_func.h

; 432  :             return (sizeof(x) * 8 - 1 - pos);

  000ae	b9 1f 00 00 00	 mov	 ecx, 31			; 0000001fH
  000b3	0f bd c3	 bsr	 eax, ebx
  000b6	2b c8		 sub	 ecx, eax
; File z:\sources\lunor\repos\rougemeilland\palmtree.math.core.uint\palmtree.math.core.uint\pmc_from.cpp

; 72   :                 __UNIT_TYPE x_bit_length = sizeof(x) * 8 - _LZCNT_ALT_32(x_hi);

  000b8	b8 40 00 00 00	 mov	 eax, 64			; 00000040H
  000bd	2b c1		 sub	 eax, ecx

; 73   :                 NUMBER_HEADER* o = root.AllocateNumber(x_bit_length);

  000bf	8d 4d d4	 lea	 ecx, DWORD PTR _root$2[ebp]
  000c2	50		 push	 eax
  000c3	e8 00 00 00 00	 call	 ?AllocateNumber@ResourceHolderUINT@Internal@Core@Math@Palmtree@@QAEPAU__tag_NUMBER_HEADER@2345@I@Z ; Palmtree::Math::Core::Internal::ResourceHolderUINT::AllocateNumber
  000c8	8b f0		 mov	 esi, eax

; 74   :                 o->BLOCK[0] = x_lo;
; 75   :                 o->BLOCK[1] = x_hi;
; 76   :                 CommitNumber(o);

  000ca	56		 push	 esi
  000cb	8b 46 24	 mov	 eax, DWORD PTR [esi+36]
  000ce	89 38		 mov	 DWORD PTR [eax], edi
  000d0	8b 46 24	 mov	 eax, DWORD PTR [esi+36]
  000d3	89 58 04	 mov	 DWORD PTR [eax+4], ebx
  000d6	e8 00 00 00 00	 call	 ?CommitNumber@Internal@Core@Math@Palmtree@@YAXPAU__tag_NUMBER_HEADER@1234@@Z ; Palmtree::Math::Core::Internal::CommitNumber
  000db	83 c4 04	 add	 esp, 4

; 77   :                 root.UnlinkNumber(o);

  000de	8d 4d d4	 lea	 ecx, DWORD PTR _root$2[ebp]
  000e1	56		 push	 esi
  000e2	e8 00 00 00 00	 call	 ?UnlinkNumber@ResourceHolderUINT@Internal@Core@Math@Palmtree@@QAEXPAU__tag_NUMBER_HEADER@2345@@Z ; Palmtree::Math::Core::Internal::ResourceHolderUINT::UnlinkNumber

; 78   :                 return (o);

  000e7	c6 45 fc 00	 mov	 BYTE PTR __$EHRec$[ebp+8], 0
  000eb	8d 4d d4	 lea	 ecx, DWORD PTR _root$2[ebp]
$LN31@PMC_From_L:

; 124  :             o = From_L_Imp(x);
; 125  :         root.HookNumber(o);

  000ee	e8 00 00 00 00	 call	 ??1ResourceHolderUINT@Internal@Core@Math@Palmtree@@UAE@XZ ; Palmtree::Math::Core::Internal::ResourceHolderUINT::~ResourceHolderUINT
$LN11@PMC_From_L:
  000f3	56		 push	 esi
  000f4	8d 4d c4	 lea	 ecx, DWORD PTR _root$[ebp]
  000f7	e8 00 00 00 00	 call	 ?HookNumber@ResourceHolderUINT@Internal@Core@Math@Palmtree@@QAEXPAU__tag_NUMBER_HEADER@2345@@Z ; Palmtree::Math::Core::Internal::ResourceHolderUINT::HookNumber

; 126  : #ifdef _DEBUG
; 127  :         CheckNumber(o);
; 128  : #endif
; 129  :         root.UnlinkNumber(o);

  000fc	56		 push	 esi
  000fd	8d 4d c4	 lea	 ecx, DWORD PTR _root$[ebp]
  00100	e8 00 00 00 00	 call	 ?UnlinkNumber@ResourceHolderUINT@Internal@Core@Math@Palmtree@@QAEXPAU__tag_NUMBER_HEADER@2345@@Z ; Palmtree::Math::Core::Internal::ResourceHolderUINT::UnlinkNumber

; 130  :         return ((PMC_HANDLE_UINT)o);

  00105	c7 45 fc ff ff
	ff ff		 mov	 DWORD PTR __$EHRec$[ebp+8], -1
  0010c	8d 4d c4	 lea	 ecx, DWORD PTR _root$[ebp]
  0010f	e8 00 00 00 00	 call	 ??1ResourceHolderUINT@Internal@Core@Math@Palmtree@@UAE@XZ ; Palmtree::Math::Core::Internal::ResourceHolderUINT::~ResourceHolderUINT
  00114	8b c6		 mov	 eax, esi

; 131  :     }

  00116	8b 4d f4	 mov	 ecx, DWORD PTR __$EHRec$[ebp]
  00119	64 89 0d 00 00
	00 00		 mov	 DWORD PTR fs:0, ecx
  00120	59		 pop	 ecx
  00121	5f		 pop	 edi
  00122	5e		 pop	 esi
  00123	5b		 pop	 ebx
  00124	8b e5		 mov	 esp, ebp
  00126	5d		 pop	 ebp
  00127	c2 08 00	 ret	 8
_TEXT	ENDS
;	COMDAT text$x
text$x	SEGMENT
__unwindfunclet$?PMC_From_L@Internal@Core@Math@Palmtree@@YGPAU__tag_PMC_HANDLE_UINT@1234@_K@Z$0:
  00000	8d 4d c4	 lea	 ecx, DWORD PTR _root$[ebp]
  00003	e9 00 00 00 00	 jmp	 ??1ResourceHolderUINT@Internal@Core@Math@Palmtree@@UAE@XZ ; Palmtree::Math::Core::Internal::ResourceHolderUINT::~ResourceHolderUINT
__unwindfunclet$?PMC_From_L@Internal@Core@Math@Palmtree@@YGPAU__tag_PMC_HANDLE_UINT@1234@_K@Z$1:
  00008	8d 4d e4	 lea	 ecx, DWORD PTR _root$3[ebp]
  0000b	e9 00 00 00 00	 jmp	 ??1ResourceHolderUINT@Internal@Core@Math@Palmtree@@UAE@XZ ; Palmtree::Math::Core::Internal::ResourceHolderUINT::~ResourceHolderUINT
__unwindfunclet$?PMC_From_L@Internal@Core@Math@Palmtree@@YGPAU__tag_PMC_HANDLE_UINT@1234@_K@Z$2:
  00010	8d 4d d4	 lea	 ecx, DWORD PTR _root$2[ebp]
  00013	e9 00 00 00 00	 jmp	 ??1ResourceHolderUINT@Internal@Core@Math@Palmtree@@UAE@XZ ; Palmtree::Math::Core::Internal::ResourceHolderUINT::~ResourceHolderUINT
__ehhandler$?PMC_From_L@Internal@Core@Math@Palmtree@@YGPAU__tag_PMC_HANDLE_UINT@1234@_K@Z:
  00018	8b 54 24 08	 mov	 edx, DWORD PTR [esp+8]
  0001c	8d 42 0c	 lea	 eax, DWORD PTR [edx+12]
  0001f	8b 4a c0	 mov	 ecx, DWORD PTR [edx-64]
  00022	33 c8		 xor	 ecx, eax
  00024	e8 00 00 00 00	 call	 @__security_check_cookie@4
  00029	b8 00 00 00 00	 mov	 eax, OFFSET __ehfuncinfo$?PMC_From_L@Internal@Core@Math@Palmtree@@YGPAU__tag_PMC_HANDLE_UINT@1234@_K@Z
  0002e	e9 00 00 00 00	 jmp	 ___CxxFrameHandler3
text$x	ENDS
?PMC_From_L@Internal@Core@Math@Palmtree@@YGPAU__tag_PMC_HANDLE_UINT@1234@_K@Z ENDP ; Palmtree::Math::Core::Internal::PMC_From_L
; Function compile flags: /Ogtp
; File z:\sources\lunor\repos\rougemeilland\palmtree.math.core.uint\palmtree.math.core.uint\pmc_from.cpp
; File z:\sources\lunor\repos\rougemeilland\palmtree.math.core.uint\palmtree.math.core.uint\pmc_inline_func.h
; File z:\sources\lunor\repos\rougemeilland\palmtree.math.core.uint\palmtree.math.core.uint\pmc_from.cpp
;	COMDAT ?PMC_From_I@Internal@Core@Math@Palmtree@@YGPAU__tag_PMC_HANDLE_UINT@1234@I@Z
_TEXT	SEGMENT
_root$ = -44						; size = 16
_root$2 = -28						; size = 16
__$EHRec$ = -12						; size = 12
_x$ = 8							; size = 4
?PMC_From_I@Internal@Core@Math@Palmtree@@YGPAU__tag_PMC_HANDLE_UINT@1234@I@Z PROC ; Palmtree::Math::Core::Internal::PMC_From_I, COMDAT

; 95   :     {

  00000	55		 push	 ebp
  00001	8b ec		 mov	 ebp, esp
  00003	6a ff		 push	 -1
  00005	68 00 00 00 00	 push	 __ehhandler$?PMC_From_I@Internal@Core@Math@Palmtree@@YGPAU__tag_PMC_HANDLE_UINT@1234@I@Z
  0000a	64 a1 00 00 00
	00		 mov	 eax, DWORD PTR fs:0
  00010	50		 push	 eax
  00011	83 ec 20	 sub	 esp, 32			; 00000020H
  00014	56		 push	 esi
  00015	57		 push	 edi
  00016	a1 00 00 00 00	 mov	 eax, DWORD PTR ___security_cookie
  0001b	33 c5		 xor	 eax, ebp
  0001d	50		 push	 eax
  0001e	8d 45 f4	 lea	 eax, DWORD PTR __$EHRec$[ebp]
  00021	64 a3 00 00 00
	00		 mov	 DWORD PTR fs:0, eax

; 96   :         if (sizeof(__UNIT_TYPE) < sizeof(x))
; 97   :             throw InternalErrorException(L"予期していないコードに到達しました。", L"pmc_from.cpp;PMC_From_I;1");
; 98   :         ResourceHolderUINT root;

  00027	8d 4d d4	 lea	 ecx, DWORD PTR _root$[ebp]
  0002a	e8 00 00 00 00	 call	 ??0ResourceHolderUINT@Internal@Core@Math@Palmtree@@QAE@XZ ; Palmtree::Math::Core::Internal::ResourceHolderUINT::ResourceHolderUINT
  0002f	c7 45 fc 00 00
	00 00		 mov	 DWORD PTR __$EHRec$[ebp+8], 0

; 99   :         NUMBER_HEADER* o;
; 100  :         if (x == 0)

  00036	8b 7d 08	 mov	 edi, DWORD PTR _x$[ebp]
  00039	85 ff		 test	 edi, edi
  0003b	75 07		 jne	 SHORT $LN3@PMC_From_I

; 101  :             o = &number_zero;

  0003d	be 00 00 00 00	 mov	 esi, OFFSET ?number_zero@Internal@Core@Math@Palmtree@@3U__tag_NUMBER_HEADER@1234@A ; Palmtree::Math::Core::Internal::number_zero

; 102  :         else

  00042	eb 4b		 jmp	 SHORT $LN4@PMC_From_I
$LN3@PMC_From_I:

; 38   :         ResourceHolderUINT root;

  00044	8d 4d e4	 lea	 ecx, DWORD PTR _root$2[ebp]
  00047	e8 00 00 00 00	 call	 ??0ResourceHolderUINT@Internal@Core@Math@Palmtree@@QAE@XZ ; Palmtree::Math::Core::Internal::ResourceHolderUINT::ResourceHolderUINT
  0004c	c6 45 fc 01	 mov	 BYTE PTR __$EHRec$[ebp+8], 1
; File z:\sources\lunor\repos\rougemeilland\palmtree.math.core.uint\palmtree.math.core.uint\pmc_inline_func.h

; 432  :             return (sizeof(x) * 8 - 1 - pos);

  00050	b9 1f 00 00 00	 mov	 ecx, 31			; 0000001fH
  00055	0f bd c7	 bsr	 eax, edi
  00058	2b c8		 sub	 ecx, eax
; File z:\sources\lunor\repos\rougemeilland\palmtree.math.core.uint\palmtree.math.core.uint\pmc_from.cpp

; 39   :         NUMBER_HEADER* o = root.AllocateNumber(sizeof(x) * 8 - _LZCNT_ALT_32(x));

  0005a	b8 20 00 00 00	 mov	 eax, 32			; 00000020H
  0005f	2b c1		 sub	 eax, ecx
  00061	8d 4d e4	 lea	 ecx, DWORD PTR _root$2[ebp]
  00064	50		 push	 eax
  00065	e8 00 00 00 00	 call	 ?AllocateNumber@ResourceHolderUINT@Internal@Core@Math@Palmtree@@QAEPAU__tag_NUMBER_HEADER@2345@I@Z ; Palmtree::Math::Core::Internal::ResourceHolderUINT::AllocateNumber
  0006a	8b f0		 mov	 esi, eax

; 40   :         o->BLOCK[0] = x;
; 41   :         CommitNumber(o);

  0006c	56		 push	 esi
  0006d	8b 46 24	 mov	 eax, DWORD PTR [esi+36]
  00070	89 38		 mov	 DWORD PTR [eax], edi
  00072	e8 00 00 00 00	 call	 ?CommitNumber@Internal@Core@Math@Palmtree@@YAXPAU__tag_NUMBER_HEADER@1234@@Z ; Palmtree::Math::Core::Internal::CommitNumber
  00077	83 c4 04	 add	 esp, 4

; 42   :         root.UnlinkNumber(o);

  0007a	8d 4d e4	 lea	 ecx, DWORD PTR _root$2[ebp]
  0007d	56		 push	 esi
  0007e	e8 00 00 00 00	 call	 ?UnlinkNumber@ResourceHolderUINT@Internal@Core@Math@Palmtree@@QAEXPAU__tag_NUMBER_HEADER@2345@@Z ; Palmtree::Math::Core::Internal::ResourceHolderUINT::UnlinkNumber

; 43   :         return (o);

  00083	c6 45 fc 00	 mov	 BYTE PTR __$EHRec$[ebp+8], 0
  00087	8d 4d e4	 lea	 ecx, DWORD PTR _root$2[ebp]
  0008a	e8 00 00 00 00	 call	 ??1ResourceHolderUINT@Internal@Core@Math@Palmtree@@UAE@XZ ; Palmtree::Math::Core::Internal::ResourceHolderUINT::~ResourceHolderUINT
$LN4@PMC_From_I:

; 103  :             o = From_I_Imp(x);
; 104  :         root.HookNumber(o);

  0008f	56		 push	 esi
  00090	8d 4d d4	 lea	 ecx, DWORD PTR _root$[ebp]
  00093	e8 00 00 00 00	 call	 ?HookNumber@ResourceHolderUINT@Internal@Core@Math@Palmtree@@QAEXPAU__tag_NUMBER_HEADER@2345@@Z ; Palmtree::Math::Core::Internal::ResourceHolderUINT::HookNumber

; 105  : #ifdef _DEBUG
; 106  :         CheckNumber(o);
; 107  : #endif
; 108  :         root.UnlinkNumber(o);

  00098	56		 push	 esi
  00099	8d 4d d4	 lea	 ecx, DWORD PTR _root$[ebp]
  0009c	e8 00 00 00 00	 call	 ?UnlinkNumber@ResourceHolderUINT@Internal@Core@Math@Palmtree@@QAEXPAU__tag_NUMBER_HEADER@2345@@Z ; Palmtree::Math::Core::Internal::ResourceHolderUINT::UnlinkNumber

; 109  :         return ((PMC_HANDLE_UINT)o);

  000a1	c7 45 fc ff ff
	ff ff		 mov	 DWORD PTR __$EHRec$[ebp+8], -1
  000a8	8d 4d d4	 lea	 ecx, DWORD PTR _root$[ebp]
  000ab	e8 00 00 00 00	 call	 ??1ResourceHolderUINT@Internal@Core@Math@Palmtree@@UAE@XZ ; Palmtree::Math::Core::Internal::ResourceHolderUINT::~ResourceHolderUINT
  000b0	8b c6		 mov	 eax, esi

; 110  :     }

  000b2	8b 4d f4	 mov	 ecx, DWORD PTR __$EHRec$[ebp]
  000b5	64 89 0d 00 00
	00 00		 mov	 DWORD PTR fs:0, ecx
  000bc	59		 pop	 ecx
  000bd	5f		 pop	 edi
  000be	5e		 pop	 esi
  000bf	8b e5		 mov	 esp, ebp
  000c1	5d		 pop	 ebp
  000c2	c2 04 00	 ret	 4
_TEXT	ENDS
;	COMDAT text$x
text$x	SEGMENT
__unwindfunclet$?PMC_From_I@Internal@Core@Math@Palmtree@@YGPAU__tag_PMC_HANDLE_UINT@1234@I@Z$0:
  00000	8d 4d d4	 lea	 ecx, DWORD PTR _root$[ebp]
  00003	e9 00 00 00 00	 jmp	 ??1ResourceHolderUINT@Internal@Core@Math@Palmtree@@UAE@XZ ; Palmtree::Math::Core::Internal::ResourceHolderUINT::~ResourceHolderUINT
__unwindfunclet$?PMC_From_I@Internal@Core@Math@Palmtree@@YGPAU__tag_PMC_HANDLE_UINT@1234@I@Z$1:
  00008	8d 4d e4	 lea	 ecx, DWORD PTR _root$2[ebp]
  0000b	e9 00 00 00 00	 jmp	 ??1ResourceHolderUINT@Internal@Core@Math@Palmtree@@UAE@XZ ; Palmtree::Math::Core::Internal::ResourceHolderUINT::~ResourceHolderUINT
__ehhandler$?PMC_From_I@Internal@Core@Math@Palmtree@@YGPAU__tag_PMC_HANDLE_UINT@1234@I@Z:
  00010	8b 54 24 08	 mov	 edx, DWORD PTR [esp+8]
  00014	8d 42 0c	 lea	 eax, DWORD PTR [edx+12]
  00017	8b 4a d4	 mov	 ecx, DWORD PTR [edx-44]
  0001a	33 c8		 xor	 ecx, eax
  0001c	e8 00 00 00 00	 call	 @__security_check_cookie@4
  00021	b8 00 00 00 00	 mov	 eax, OFFSET __ehfuncinfo$?PMC_From_I@Internal@Core@Math@Palmtree@@YGPAU__tag_PMC_HANDLE_UINT@1234@I@Z
  00026	e9 00 00 00 00	 jmp	 ___CxxFrameHandler3
text$x	ENDS
?PMC_From_I@Internal@Core@Math@Palmtree@@YGPAU__tag_PMC_HANDLE_UINT@1234@I@Z ENDP ; Palmtree::Math::Core::Internal::PMC_From_I
; Function compile flags: /Ogtp
; File z:\sources\lunor\repos\rougemeilland\palmtree.math.core.uint\palmtree.math.core.uint\pmc_from.cpp
;	COMDAT ?Initialize_From@Internal@Core@Math@Palmtree@@YAHPAU_tag_PROCESSOR_FEATURES@1234@@Z
_TEXT	SEGMENT
_feature$ = 8						; size = 4
?Initialize_From@Internal@Core@Math@Palmtree@@YAHPAU_tag_PROCESSOR_FEATURES@1234@@Z PROC ; Palmtree::Math::Core::Internal::Initialize_From, COMDAT

; 135  :         return (PMC_STATUS_OK);

  00000	33 c0		 xor	 eax, eax

; 136  :     }

  00002	c3		 ret	 0
?Initialize_From@Internal@Core@Math@Palmtree@@YAHPAU_tag_PROCESSOR_FEATURES@1234@@Z ENDP ; Palmtree::Math::Core::Internal::Initialize_From
_TEXT	ENDS
; Function compile flags: /Ogtp
; File z:\sources\lunor\repos\rougemeilland\palmtree.math.core.uint\palmtree.math.core.uint\pmc_from.cpp
; File z:\sources\lunor\repos\rougemeilland\palmtree.math.core.uint\palmtree.math.core.uint\pmc_inline_func.h
; File z:\sources\lunor\repos\rougemeilland\palmtree.math.core.uint\palmtree.math.core.uint\pmc_from.cpp
; File z:\sources\lunor\repos\rougemeilland\palmtree.math.core.uint\palmtree.math.core.uint\pmc_inline_func.h
; File z:\sources\lunor\repos\rougemeilland\palmtree.math.core.uint\palmtree.math.core.uint\pmc_from.cpp
; File z:\sources\lunor\repos\rougemeilland\palmtree.math.core.uint\palmtree.math.core.uint\pmc_inline_func.h
; File z:\sources\lunor\repos\rougemeilland\palmtree.math.core.uint\palmtree.math.core.uint\pmc_from.cpp
;	COMDAT ?From_L_Imp@Internal@Core@Math@Palmtree@@YAPAU__tag_NUMBER_HEADER@1234@_K@Z
_TEXT	SEGMENT
_root$2 = -28						; size = 16
_root$3 = -28						; size = 16
__$EHRec$ = -12						; size = 12
_x$ = 8							; size = 8
?From_L_Imp@Internal@Core@Math@Palmtree@@YAPAU__tag_NUMBER_HEADER@1234@_K@Z PROC ; Palmtree::Math::Core::Internal::From_L_Imp, COMDAT

; 47   :     {

  00000	55		 push	 ebp
  00001	8b ec		 mov	 ebp, esp
  00003	6a ff		 push	 -1
  00005	68 00 00 00 00	 push	 __ehhandler$?From_L_Imp@Internal@Core@Math@Palmtree@@YAPAU__tag_NUMBER_HEADER@1234@_K@Z
  0000a	64 a1 00 00 00
	00		 mov	 eax, DWORD PTR fs:0
  00010	50		 push	 eax
  00011	83 ec 10	 sub	 esp, 16			; 00000010H
  00014	53		 push	 ebx
  00015	56		 push	 esi
  00016	57		 push	 edi
  00017	a1 00 00 00 00	 mov	 eax, DWORD PTR ___security_cookie
  0001c	33 c5		 xor	 eax, ebp
  0001e	50		 push	 eax
  0001f	8d 45 f4	 lea	 eax, DWORD PTR __$EHRec$[ebp]
  00022	64 a3 00 00 00
	00		 mov	 DWORD PTR fs:0, eax
; File z:\sources\lunor\repos\rougemeilland\palmtree.math.core.uint\palmtree.math.core.uint\pmc_inline_func.h

; 146  :             *result_high = (_UINT32_T)(value >> 32);

  00028	8b 5d 0c	 mov	 ebx, DWORD PTR _x$[ebp+4]
; File z:\sources\lunor\repos\rougemeilland\palmtree.math.core.uint\palmtree.math.core.uint\pmc_from.cpp

; 59   :             if (x_hi == 0)

  0002b	8d 4d e4	 lea	 ecx, DWORD PTR _root$3[ebp]
  0002e	8b 7d 08	 mov	 edi, DWORD PTR _x$[ebp]
  00031	e8 00 00 00 00	 call	 ??0ResourceHolderUINT@Internal@Core@Math@Palmtree@@QAE@XZ ; Palmtree::Math::Core::Internal::ResourceHolderUINT::ResourceHolderUINT
  00036	85 db		 test	 ebx, ebx
  00038	75 2f		 jne	 SHORT $LN6@From_L_Imp

; 60   :             {
; 61   :                 ResourceHolderUINT root;

  0003a	89 5d fc	 mov	 DWORD PTR __$EHRec$[ebp+8], ebx
; File z:\sources\lunor\repos\rougemeilland\palmtree.math.core.uint\palmtree.math.core.uint\pmc_inline_func.h

; 422  :             if (x == 0)

  0003d	85 ff		 test	 edi, edi
  0003f	75 05		 jne	 SHORT $LN15@From_L_Imp

; 423  :                 return (sizeof(x) * 8);

  00041	8d 4b 20	 lea	 ecx, DWORD PTR [ebx+32]
  00044	eb 0a		 jmp	 SHORT $LN14@From_L_Imp
$LN15@From_L_Imp:

; 424  :             DWORD pos;
; 425  : #ifdef _MSC_VER
; 426  :             _BitScanReverse(&pos, x);

  00046	0f bd c7	 bsr	 eax, edi

; 432  :             return (sizeof(x) * 8 - 1 - pos);

  00049	b9 1f 00 00 00	 mov	 ecx, 31			; 0000001fH
  0004e	2b c8		 sub	 ecx, eax
$LN14@From_L_Imp:
; File z:\sources\lunor\repos\rougemeilland\palmtree.math.core.uint\palmtree.math.core.uint\pmc_from.cpp

; 62   :                 __UNIT_TYPE x_bit_length = sizeof(x_lo) * 8 - _LZCNT_ALT_32(x_lo);

  00050	b8 20 00 00 00	 mov	 eax, 32			; 00000020H
  00055	2b c1		 sub	 eax, ecx

; 63   :                 NUMBER_HEADER* o = root.AllocateNumber(x_bit_length);

  00057	8d 4d e4	 lea	 ecx, DWORD PTR _root$3[ebp]
  0005a	50		 push	 eax
  0005b	e8 00 00 00 00	 call	 ?AllocateNumber@ResourceHolderUINT@Internal@Core@Math@Palmtree@@QAEPAU__tag_NUMBER_HEADER@2345@I@Z ; Palmtree::Math::Core::Internal::ResourceHolderUINT::AllocateNumber
  00060	8b f0		 mov	 esi, eax

; 64   :                 o->BLOCK[0] = x_lo;

  00062	8b 4e 24	 mov	 ecx, DWORD PTR [esi+36]
  00065	89 39		 mov	 DWORD PTR [ecx], edi

; 65   :                 CommitNumber(o);
; 66   :                 root.UnlinkNumber(o);
; 67   :                 return (o);

  00067	eb 2e		 jmp	 SHORT $LN24@From_L_Imp
$LN6@From_L_Imp:

; 68   :             }
; 69   :             else
; 70   :             {
; 71   :                 ResourceHolderUINT root;

  00069	c7 45 fc 01 00
	00 00		 mov	 DWORD PTR __$EHRec$[ebp+8], 1
; File z:\sources\lunor\repos\rougemeilland\palmtree.math.core.uint\palmtree.math.core.uint\pmc_inline_func.h

; 432  :             return (sizeof(x) * 8 - 1 - pos);

  00070	b9 1f 00 00 00	 mov	 ecx, 31			; 0000001fH
  00075	0f bd c3	 bsr	 eax, ebx
  00078	2b c8		 sub	 ecx, eax
; File z:\sources\lunor\repos\rougemeilland\palmtree.math.core.uint\palmtree.math.core.uint\pmc_from.cpp

; 72   :                 __UNIT_TYPE x_bit_length = sizeof(x) * 8 - _LZCNT_ALT_32(x_hi);

  0007a	b8 40 00 00 00	 mov	 eax, 64			; 00000040H
  0007f	2b c1		 sub	 eax, ecx

; 73   :                 NUMBER_HEADER* o = root.AllocateNumber(x_bit_length);

  00081	8d 4d e4	 lea	 ecx, DWORD PTR _root$2[ebp]
  00084	50		 push	 eax
  00085	e8 00 00 00 00	 call	 ?AllocateNumber@ResourceHolderUINT@Internal@Core@Math@Palmtree@@QAEPAU__tag_NUMBER_HEADER@2345@I@Z ; Palmtree::Math::Core::Internal::ResourceHolderUINT::AllocateNumber
  0008a	8b f0		 mov	 esi, eax

; 74   :                 o->BLOCK[0] = x_lo;

  0008c	8b 4e 24	 mov	 ecx, DWORD PTR [esi+36]
  0008f	89 39		 mov	 DWORD PTR [ecx], edi

; 75   :                 o->BLOCK[1] = x_hi;

  00091	8b 4e 24	 mov	 ecx, DWORD PTR [esi+36]
  00094	89 59 04	 mov	 DWORD PTR [ecx+4], ebx
$LN24@From_L_Imp:

; 76   :                 CommitNumber(o);
; 77   :                 root.UnlinkNumber(o);
; 78   :                 return (o);
; 79   :             }
; 80   :         }
; 81   :         else
; 82   :         {
; 83   :             // _UINT64_T を表現するのに 1 ワードで十分である処理系の場合
; 84   :             ResourceHolderUINT root;
; 85   :             __UNIT_TYPE x_bit_length = sizeof(x) * 8 - _LZCNT_ALT_UNIT((__UNIT_TYPE)x);
; 86   :             NUMBER_HEADER* o = root.AllocateNumber(x_bit_length);
; 87   :             o->BLOCK[0] = (__UNIT_TYPE)x;
; 88   :             CommitNumber(o);
; 89   :             root.UnlinkNumber(o);
; 90   :             return (o);
; 91   :         }
; 92   :     }

  00097	56		 push	 esi
  00098	e8 00 00 00 00	 call	 ?CommitNumber@Internal@Core@Math@Palmtree@@YAXPAU__tag_NUMBER_HEADER@1234@@Z ; Palmtree::Math::Core::Internal::CommitNumber
  0009d	83 c4 04	 add	 esp, 4
  000a0	8d 4d e4	 lea	 ecx, DWORD PTR _root$2[ebp]
  000a3	56		 push	 esi
  000a4	e8 00 00 00 00	 call	 ?UnlinkNumber@ResourceHolderUINT@Internal@Core@Math@Palmtree@@QAEXPAU__tag_NUMBER_HEADER@2345@@Z ; Palmtree::Math::Core::Internal::ResourceHolderUINT::UnlinkNumber
  000a9	c7 45 fc ff ff
	ff ff		 mov	 DWORD PTR __$EHRec$[ebp+8], -1
  000b0	8d 4d e4	 lea	 ecx, DWORD PTR _root$2[ebp]
  000b3	e8 00 00 00 00	 call	 ??1ResourceHolderUINT@Internal@Core@Math@Palmtree@@UAE@XZ ; Palmtree::Math::Core::Internal::ResourceHolderUINT::~ResourceHolderUINT
  000b8	8b c6		 mov	 eax, esi
  000ba	8b 4d f4	 mov	 ecx, DWORD PTR __$EHRec$[ebp]
  000bd	64 89 0d 00 00
	00 00		 mov	 DWORD PTR fs:0, ecx
  000c4	59		 pop	 ecx
  000c5	5f		 pop	 edi
  000c6	5e		 pop	 esi
  000c7	5b		 pop	 ebx
  000c8	8b e5		 mov	 esp, ebp
  000ca	5d		 pop	 ebp
  000cb	c3		 ret	 0
_TEXT	ENDS
;	COMDAT text$x
text$x	SEGMENT
__unwindfunclet$?From_L_Imp@Internal@Core@Math@Palmtree@@YAPAU__tag_NUMBER_HEADER@1234@_K@Z$0:
  00000	8d 4d e4	 lea	 ecx, DWORD PTR _root$3[ebp]
  00003	e9 00 00 00 00	 jmp	 ??1ResourceHolderUINT@Internal@Core@Math@Palmtree@@UAE@XZ ; Palmtree::Math::Core::Internal::ResourceHolderUINT::~ResourceHolderUINT
__unwindfunclet$?From_L_Imp@Internal@Core@Math@Palmtree@@YAPAU__tag_NUMBER_HEADER@1234@_K@Z$1:
  00008	8d 4d e4	 lea	 ecx, DWORD PTR _root$2[ebp]
  0000b	e9 00 00 00 00	 jmp	 ??1ResourceHolderUINT@Internal@Core@Math@Palmtree@@UAE@XZ ; Palmtree::Math::Core::Internal::ResourceHolderUINT::~ResourceHolderUINT
__ehhandler$?From_L_Imp@Internal@Core@Math@Palmtree@@YAPAU__tag_NUMBER_HEADER@1234@_K@Z:
  00010	8b 54 24 08	 mov	 edx, DWORD PTR [esp+8]
  00014	8d 42 0c	 lea	 eax, DWORD PTR [edx+12]
  00017	8b 4a e0	 mov	 ecx, DWORD PTR [edx-32]
  0001a	33 c8		 xor	 ecx, eax
  0001c	e8 00 00 00 00	 call	 @__security_check_cookie@4
  00021	b8 00 00 00 00	 mov	 eax, OFFSET __ehfuncinfo$?From_L_Imp@Internal@Core@Math@Palmtree@@YAPAU__tag_NUMBER_HEADER@1234@_K@Z
  00026	e9 00 00 00 00	 jmp	 ___CxxFrameHandler3
text$x	ENDS
?From_L_Imp@Internal@Core@Math@Palmtree@@YAPAU__tag_NUMBER_HEADER@1234@_K@Z ENDP ; Palmtree::Math::Core::Internal::From_L_Imp
; Function compile flags: /Ogtp
; File z:\sources\lunor\repos\rougemeilland\palmtree.math.core.uint\palmtree.math.core.uint\pmc_from.cpp
; File z:\sources\lunor\repos\rougemeilland\palmtree.math.core.uint\palmtree.math.core.uint\pmc_inline_func.h
; File z:\sources\lunor\repos\rougemeilland\palmtree.math.core.uint\palmtree.math.core.uint\pmc_from.cpp
;	COMDAT ?From_I_Imp@Internal@Core@Math@Palmtree@@YAPAU__tag_NUMBER_HEADER@1234@I@Z
_TEXT	SEGMENT
_root$ = -28						; size = 16
__$EHRec$ = -12						; size = 12
_x$ = 8							; size = 4
?From_I_Imp@Internal@Core@Math@Palmtree@@YAPAU__tag_NUMBER_HEADER@1234@I@Z PROC ; Palmtree::Math::Core::Internal::From_I_Imp, COMDAT

; 37   :     {

  00000	55		 push	 ebp
  00001	8b ec		 mov	 ebp, esp
  00003	6a ff		 push	 -1
  00005	68 00 00 00 00	 push	 __ehhandler$?From_I_Imp@Internal@Core@Math@Palmtree@@YAPAU__tag_NUMBER_HEADER@1234@I@Z
  0000a	64 a1 00 00 00
	00		 mov	 eax, DWORD PTR fs:0
  00010	50		 push	 eax
  00011	83 ec 10	 sub	 esp, 16			; 00000010H
  00014	56		 push	 esi
  00015	57		 push	 edi
  00016	a1 00 00 00 00	 mov	 eax, DWORD PTR ___security_cookie
  0001b	33 c5		 xor	 eax, ebp
  0001d	50		 push	 eax
  0001e	8d 45 f4	 lea	 eax, DWORD PTR __$EHRec$[ebp]
  00021	64 a3 00 00 00
	00		 mov	 DWORD PTR fs:0, eax

; 38   :         ResourceHolderUINT root;

  00027	8d 4d e4	 lea	 ecx, DWORD PTR _root$[ebp]
  0002a	e8 00 00 00 00	 call	 ??0ResourceHolderUINT@Internal@Core@Math@Palmtree@@QAE@XZ ; Palmtree::Math::Core::Internal::ResourceHolderUINT::ResourceHolderUINT
  0002f	c7 45 fc 00 00
	00 00		 mov	 DWORD PTR __$EHRec$[ebp+8], 0
; File z:\sources\lunor\repos\rougemeilland\palmtree.math.core.uint\palmtree.math.core.uint\pmc_inline_func.h

; 422  :             if (x == 0)

  00036	8b 7d 08	 mov	 edi, DWORD PTR _x$[ebp]
  00039	85 ff		 test	 edi, edi
  0003b	75 05		 jne	 SHORT $LN5@From_I_Imp

; 423  :                 return (sizeof(x) * 8);

  0003d	8d 4f 20	 lea	 ecx, DWORD PTR [edi+32]
  00040	eb 0a		 jmp	 SHORT $LN4@From_I_Imp
$LN5@From_I_Imp:

; 424  :             DWORD pos;
; 425  : #ifdef _MSC_VER
; 426  :             _BitScanReverse(&pos, x);

  00042	0f bd c7	 bsr	 eax, edi

; 427  : #elif defined(__GNUC__)
; 428  :             __asm__("bsrl %1, %0" : "=r"(pos) : "rm"(x));
; 429  : #else
; 430  : #error unknown compiler
; 431  : #endif
; 432  :             return (sizeof(x) * 8 - 1 - pos);

  00045	b9 1f 00 00 00	 mov	 ecx, 31			; 0000001fH
  0004a	2b c8		 sub	 ecx, eax
$LN4@From_I_Imp:
; File z:\sources\lunor\repos\rougemeilland\palmtree.math.core.uint\palmtree.math.core.uint\pmc_from.cpp

; 39   :         NUMBER_HEADER* o = root.AllocateNumber(sizeof(x) * 8 - _LZCNT_ALT_32(x));

  0004c	b8 20 00 00 00	 mov	 eax, 32			; 00000020H
  00051	2b c1		 sub	 eax, ecx
  00053	8d 4d e4	 lea	 ecx, DWORD PTR _root$[ebp]
  00056	50		 push	 eax
  00057	e8 00 00 00 00	 call	 ?AllocateNumber@ResourceHolderUINT@Internal@Core@Math@Palmtree@@QAEPAU__tag_NUMBER_HEADER@2345@I@Z ; Palmtree::Math::Core::Internal::ResourceHolderUINT::AllocateNumber
  0005c	8b f0		 mov	 esi, eax

; 40   :         o->BLOCK[0] = x;
; 41   :         CommitNumber(o);

  0005e	56		 push	 esi
  0005f	8b 4e 24	 mov	 ecx, DWORD PTR [esi+36]
  00062	89 39		 mov	 DWORD PTR [ecx], edi
  00064	e8 00 00 00 00	 call	 ?CommitNumber@Internal@Core@Math@Palmtree@@YAXPAU__tag_NUMBER_HEADER@1234@@Z ; Palmtree::Math::Core::Internal::CommitNumber
  00069	83 c4 04	 add	 esp, 4

; 42   :         root.UnlinkNumber(o);

  0006c	8d 4d e4	 lea	 ecx, DWORD PTR _root$[ebp]
  0006f	56		 push	 esi
  00070	e8 00 00 00 00	 call	 ?UnlinkNumber@ResourceHolderUINT@Internal@Core@Math@Palmtree@@QAEXPAU__tag_NUMBER_HEADER@2345@@Z ; Palmtree::Math::Core::Internal::ResourceHolderUINT::UnlinkNumber

; 43   :         return (o);

  00075	c7 45 fc ff ff
	ff ff		 mov	 DWORD PTR __$EHRec$[ebp+8], -1
  0007c	8d 4d e4	 lea	 ecx, DWORD PTR _root$[ebp]
  0007f	e8 00 00 00 00	 call	 ??1ResourceHolderUINT@Internal@Core@Math@Palmtree@@UAE@XZ ; Palmtree::Math::Core::Internal::ResourceHolderUINT::~ResourceHolderUINT
  00084	8b c6		 mov	 eax, esi

; 44   :     }

  00086	8b 4d f4	 mov	 ecx, DWORD PTR __$EHRec$[ebp]
  00089	64 89 0d 00 00
	00 00		 mov	 DWORD PTR fs:0, ecx
  00090	59		 pop	 ecx
  00091	5f		 pop	 edi
  00092	5e		 pop	 esi
  00093	8b e5		 mov	 esp, ebp
  00095	5d		 pop	 ebp
  00096	c3		 ret	 0
_TEXT	ENDS
;	COMDAT text$x
text$x	SEGMENT
__unwindfunclet$?From_I_Imp@Internal@Core@Math@Palmtree@@YAPAU__tag_NUMBER_HEADER@1234@I@Z$0:
  00000	8d 4d e4	 lea	 ecx, DWORD PTR _root$[ebp]
  00003	e9 00 00 00 00	 jmp	 ??1ResourceHolderUINT@Internal@Core@Math@Palmtree@@UAE@XZ ; Palmtree::Math::Core::Internal::ResourceHolderUINT::~ResourceHolderUINT
__ehhandler$?From_I_Imp@Internal@Core@Math@Palmtree@@YAPAU__tag_NUMBER_HEADER@1234@I@Z:
  00008	8b 54 24 08	 mov	 edx, DWORD PTR [esp+8]
  0000c	8d 42 0c	 lea	 eax, DWORD PTR [edx+12]
  0000f	8b 4a e4	 mov	 ecx, DWORD PTR [edx-28]
  00012	33 c8		 xor	 ecx, eax
  00014	e8 00 00 00 00	 call	 @__security_check_cookie@4
  00019	b8 00 00 00 00	 mov	 eax, OFFSET __ehfuncinfo$?From_I_Imp@Internal@Core@Math@Palmtree@@YAPAU__tag_NUMBER_HEADER@1234@I@Z
  0001e	e9 00 00 00 00	 jmp	 ___CxxFrameHandler3
text$x	ENDS
?From_I_Imp@Internal@Core@Math@Palmtree@@YAPAU__tag_NUMBER_HEADER@1234@I@Z ENDP ; Palmtree::Math::Core::Internal::From_I_Imp
; Function compile flags: /Ogtp
; File z:\sources\lunor\repos\rougemeilland\palmtree.math.core.uint\palmtree.math.core.uint\pmc_exception.h
; File c:\program files (x86)\microsoft visual studio\2017\community\vc\tools\msvc\14.16.27023\include\vcruntime_exception.h
;	COMDAT ??_GInternalErrorException@Internal@Core@Math@Palmtree@@UAEPAXI@Z
_TEXT	SEGMENT
_this$ = -16						; size = 4
__$EHRec$ = -12						; size = 12
___flags$ = 8						; size = 4
??_GInternalErrorException@Internal@Core@Math@Palmtree@@UAEPAXI@Z PROC ; Palmtree::Math::Core::Internal::InternalErrorException::`scalar deleting destructor', COMDAT
; _this$ = ecx
  00000	55		 push	 ebp
  00001	8b ec		 mov	 ebp, esp
  00003	6a ff		 push	 -1
  00005	68 00 00 00 00	 push	 __ehhandler$??_GInternalErrorException@Internal@Core@Math@Palmtree@@UAEPAXI@Z
  0000a	64 a1 00 00 00
	00		 mov	 eax, DWORD PTR fs:0
  00010	50		 push	 eax
  00011	51		 push	 ecx
  00012	56		 push	 esi
  00013	a1 00 00 00 00	 mov	 eax, DWORD PTR ___security_cookie
  00018	33 c5		 xor	 eax, ebp
  0001a	50		 push	 eax
  0001b	8d 45 f4	 lea	 eax, DWORD PTR __$EHRec$[ebp]
  0001e	64 a3 00 00 00
	00		 mov	 DWORD PTR fs:0, eax
  00024	8b f1		 mov	 esi, ecx
  00026	89 75 f0	 mov	 DWORD PTR _this$[ebp], esi
; File z:\sources\lunor\repos\rougemeilland\palmtree.math.core.uint\palmtree.math.core.uint\pmc_exception.h

; 295  :         {

  00029	c7 06 00 00 00
	00		 mov	 DWORD PTR [esi], OFFSET ??_7InternalErrorException@Internal@Core@Math@Palmtree@@6B@

; 296  :         }

  0002f	c7 45 fc ff ff
	ff ff		 mov	 DWORD PTR __$EHRec$[ebp+8], -1

; 70   :         {

  00036	c7 06 00 00 00
	00		 mov	 DWORD PTR [esi], OFFSET ??_7Exception@Internal@Core@Math@Palmtree@@6B@

; 71   :         }

  0003c	c7 45 fc ff ff
	ff ff		 mov	 DWORD PTR __$EHRec$[ebp+8], -1
; File c:\program files (x86)\microsoft visual studio\2017\community\vc\tools\msvc\14.16.27023\include\vcruntime_exception.h

; 86   :         __std_exception_destroy(&_Data);

  00043	8d 46 04	 lea	 eax, DWORD PTR [esi+4]
  00046	50		 push	 eax
  00047	c7 06 00 00 00
	00		 mov	 DWORD PTR [esi], OFFSET ??_7exception@std@@6B@
  0004d	e8 00 00 00 00	 call	 ___std_exception_destroy
  00052	83 c4 04	 add	 esp, 4
  00055	f6 45 08 01	 test	 BYTE PTR ___flags$[ebp], 1
  00059	74 0b		 je	 SHORT $LN12@scalar
  0005b	6a 18		 push	 24			; 00000018H
  0005d	56		 push	 esi
  0005e	e8 00 00 00 00	 call	 ??3@YAXPAXI@Z		; operator delete
  00063	83 c4 08	 add	 esp, 8
$LN12@scalar:
  00066	8b c6		 mov	 eax, esi
  00068	8b 4d f4	 mov	 ecx, DWORD PTR __$EHRec$[ebp]
  0006b	64 89 0d 00 00
	00 00		 mov	 DWORD PTR fs:0, ecx
  00072	59		 pop	 ecx
  00073	5e		 pop	 esi
  00074	8b e5		 mov	 esp, ebp
  00076	5d		 pop	 ebp
  00077	c2 04 00	 ret	 4
_TEXT	ENDS
;	COMDAT text$x
text$x	SEGMENT
__unwindfunclet$??_GInternalErrorException@Internal@Core@Math@Palmtree@@UAEPAXI@Z$0:
  00000	8b 4d f0	 mov	 ecx, DWORD PTR _this$[ebp]
  00003	e9 00 00 00 00	 jmp	 ??1Exception@Internal@Core@Math@Palmtree@@UAE@XZ ; Palmtree::Math::Core::Internal::Exception::~Exception
__unwindfunclet$??_GInternalErrorException@Internal@Core@Math@Palmtree@@UAEPAXI@Z$1:
  00008	8b 4d f0	 mov	 ecx, DWORD PTR _this$[ebp]
  0000b	e9 00 00 00 00	 jmp	 ??1exception@std@@UAE@XZ ; std::exception::~exception
__ehhandler$??_GInternalErrorException@Internal@Core@Math@Palmtree@@UAEPAXI@Z:
  00010	8b 54 24 08	 mov	 edx, DWORD PTR [esp+8]
  00014	8d 42 0c	 lea	 eax, DWORD PTR [edx+12]
  00017	8b 4a f4	 mov	 ecx, DWORD PTR [edx-12]
  0001a	33 c8		 xor	 ecx, eax
  0001c	e8 00 00 00 00	 call	 @__security_check_cookie@4
  00021	b8 00 00 00 00	 mov	 eax, OFFSET __ehfuncinfo$??_GInternalErrorException@Internal@Core@Math@Palmtree@@UAEPAXI@Z
  00026	e9 00 00 00 00	 jmp	 ___CxxFrameHandler3
text$x	ENDS
??_GInternalErrorException@Internal@Core@Math@Palmtree@@UAEPAXI@Z ENDP ; Palmtree::Math::Core::Internal::InternalErrorException::`scalar deleting destructor'
; Function compile flags: /Ogtp
; File z:\sources\lunor\repos\rougemeilland\palmtree.math.core.uint\palmtree.math.core.uint\pmc_exception.h
; File c:\program files (x86)\microsoft visual studio\2017\community\vc\tools\msvc\14.16.27023\include\vcruntime_exception.h
; File z:\sources\lunor\repos\rougemeilland\palmtree.math.core.uint\palmtree.math.core.uint\pmc_exception.h
;	COMDAT ??1InternalErrorException@Internal@Core@Math@Palmtree@@UAE@XZ
_TEXT	SEGMENT
_this$ = -16						; size = 4
__$EHRec$ = -12						; size = 12
??1InternalErrorException@Internal@Core@Math@Palmtree@@UAE@XZ PROC ; Palmtree::Math::Core::Internal::InternalErrorException::~InternalErrorException, COMDAT
; _this$ = ecx

; 295  :         {

  00000	55		 push	 ebp
  00001	8b ec		 mov	 ebp, esp
  00003	6a ff		 push	 -1
  00005	68 00 00 00 00	 push	 __ehhandler$??1InternalErrorException@Internal@Core@Math@Palmtree@@UAE@XZ
  0000a	64 a1 00 00 00
	00		 mov	 eax, DWORD PTR fs:0
  00010	50		 push	 eax
  00011	51		 push	 ecx
  00012	a1 00 00 00 00	 mov	 eax, DWORD PTR ___security_cookie
  00017	33 c5		 xor	 eax, ebp
  00019	50		 push	 eax
  0001a	8d 45 f4	 lea	 eax, DWORD PTR __$EHRec$[ebp]
  0001d	64 a3 00 00 00
	00		 mov	 DWORD PTR fs:0, eax
  00023	89 4d f0	 mov	 DWORD PTR _this$[ebp], ecx
  00026	c7 01 00 00 00
	00		 mov	 DWORD PTR [ecx], OFFSET ??_7InternalErrorException@Internal@Core@Math@Palmtree@@6B@

; 296  :         }

  0002c	c7 45 fc ff ff
	ff ff		 mov	 DWORD PTR __$EHRec$[ebp+8], -1

; 70   :         {

  00033	c7 01 00 00 00
	00		 mov	 DWORD PTR [ecx], OFFSET ??_7Exception@Internal@Core@Math@Palmtree@@6B@

; 71   :         }

  00039	c7 45 fc ff ff
	ff ff		 mov	 DWORD PTR __$EHRec$[ebp+8], -1
; File c:\program files (x86)\microsoft visual studio\2017\community\vc\tools\msvc\14.16.27023\include\vcruntime_exception.h

; 86   :         __std_exception_destroy(&_Data);

  00040	8d 41 04	 lea	 eax, DWORD PTR [ecx+4]
  00043	50		 push	 eax
  00044	c7 01 00 00 00
	00		 mov	 DWORD PTR [ecx], OFFSET ??_7exception@std@@6B@
  0004a	e8 00 00 00 00	 call	 ___std_exception_destroy
  0004f	83 c4 04	 add	 esp, 4
; File z:\sources\lunor\repos\rougemeilland\palmtree.math.core.uint\palmtree.math.core.uint\pmc_exception.h

; 296  :         }

  00052	8b 4d f4	 mov	 ecx, DWORD PTR __$EHRec$[ebp]
  00055	64 89 0d 00 00
	00 00		 mov	 DWORD PTR fs:0, ecx
  0005c	59		 pop	 ecx
  0005d	8b e5		 mov	 esp, ebp
  0005f	5d		 pop	 ebp
  00060	c3		 ret	 0
_TEXT	ENDS
;	COMDAT text$x
text$x	SEGMENT
__unwindfunclet$??1InternalErrorException@Internal@Core@Math@Palmtree@@UAE@XZ$0:
  00000	8b 4d f0	 mov	 ecx, DWORD PTR _this$[ebp]
  00003	e9 00 00 00 00	 jmp	 ??1Exception@Internal@Core@Math@Palmtree@@UAE@XZ ; Palmtree::Math::Core::Internal::Exception::~Exception
__unwindfunclet$??1InternalErrorException@Internal@Core@Math@Palmtree@@UAE@XZ$1:
  00008	8b 4d f0	 mov	 ecx, DWORD PTR _this$[ebp]
  0000b	e9 00 00 00 00	 jmp	 ??1exception@std@@UAE@XZ ; std::exception::~exception
__ehhandler$??1InternalErrorException@Internal@Core@Math@Palmtree@@UAE@XZ:
  00010	8b 54 24 08	 mov	 edx, DWORD PTR [esp+8]
  00014	8d 42 0c	 lea	 eax, DWORD PTR [edx+12]
  00017	8b 4a f8	 mov	 ecx, DWORD PTR [edx-8]
  0001a	33 c8		 xor	 ecx, eax
  0001c	e8 00 00 00 00	 call	 @__security_check_cookie@4
  00021	b8 00 00 00 00	 mov	 eax, OFFSET __ehfuncinfo$??1InternalErrorException@Internal@Core@Math@Palmtree@@UAE@XZ
  00026	e9 00 00 00 00	 jmp	 ___CxxFrameHandler3
text$x	ENDS
??1InternalErrorException@Internal@Core@Math@Palmtree@@UAE@XZ ENDP ; Palmtree::Math::Core::Internal::InternalErrorException::~InternalErrorException
; Function compile flags: /Ogtp
; File z:\sources\lunor\repos\rougemeilland\palmtree.math.core.uint\palmtree.math.core.uint\pmc_exception.h
; File c:\program files (x86)\microsoft visual studio\2017\community\vc\tools\msvc\14.16.27023\include\vcruntime_exception.h
; File z:\sources\lunor\repos\rougemeilland\palmtree.math.core.uint\palmtree.math.core.uint\pmc_exception.h
;	COMDAT ??0InternalErrorException@Internal@Core@Math@Palmtree@@QAE@PB_W0@Z
_TEXT	SEGMENT
_this$ = -16						; size = 4
__$EHRec$ = -12						; size = 12
_message$ = 8						; size = 4
_data$ = 12						; size = 4
??0InternalErrorException@Internal@Core@Math@Palmtree@@QAE@PB_W0@Z PROC ; Palmtree::Math::Core::Internal::InternalErrorException::InternalErrorException, COMDAT
; _this$ = ecx

; 286  :         {

  00000	55		 push	 ebp
  00001	8b ec		 mov	 ebp, esp
  00003	6a ff		 push	 -1
  00005	68 00 00 00 00	 push	 __ehhandler$??0InternalErrorException@Internal@Core@Math@Palmtree@@QAE@PB_W0@Z
  0000a	64 a1 00 00 00
	00		 mov	 eax, DWORD PTR fs:0
  00010	50		 push	 eax
  00011	51		 push	 ecx
  00012	a1 00 00 00 00	 mov	 eax, DWORD PTR ___security_cookie
  00017	33 c5		 xor	 eax, ebp
  00019	50		 push	 eax
  0001a	8d 45 f4	 lea	 eax, DWORD PTR __$EHRec$[ebp]
  0001d	64 a3 00 00 00
	00		 mov	 DWORD PTR fs:0, eax
  00023	89 4d f0	 mov	 DWORD PTR _this$[ebp], ecx
  00026	0f 57 c0	 xorps	 xmm0, xmm0
; File c:\program files (x86)\microsoft visual studio\2017\community\vc\tools\msvc\14.16.27023\include\vcruntime_exception.h

; 50   :     {

  00029	c7 01 00 00 00
	00		 mov	 DWORD PTR [ecx], OFFSET ??_7exception@std@@6B@
  0002f	66 0f d6 41 04	 movq	 QWORD PTR [ecx+4], xmm0
; File z:\sources\lunor\repos\rougemeilland\palmtree.math.core.uint\palmtree.math.core.uint\pmc_exception.h

; 54   :         Exception(PMC_STATUS_CODE code, const wchar_t* message, const wchar_t* data) noexcept(true)

  00034	c7 45 fc 00 00
	00 00		 mov	 DWORD PTR __$EHRec$[ebp+8], 0

; 55   :         {
; 56   :             _code = code;
; 57   :             _message = message;

  0003b	8b 45 08	 mov	 eax, DWORD PTR _message$[ebp]
  0003e	89 41 10	 mov	 DWORD PTR [ecx+16], eax

; 58   :             _data = data;

  00041	8b 45 0c	 mov	 eax, DWORD PTR _data$[ebp]
  00044	c7 01 00 00 00
	00		 mov	 DWORD PTR [ecx], OFFSET ??_7Exception@Internal@Core@Math@Palmtree@@6B@
  0004a	c7 41 0c 00 ff
	ff ff		 mov	 DWORD PTR [ecx+12], -256 ; ffffff00H
  00051	89 41 14	 mov	 DWORD PTR [ecx+20], eax

; 59   :         }
; 60   : 
; 61   :     public:
; 62   :         Exception(const Exception& p) noexcept(true)
; 63   :         {
; 64   :             _code = p._code;
; 65   :             _message = p._message;
; 66   :             _data = p._data;
; 67   :         }
; 68   : 
; 69   :         virtual ~Exception() noexcept(true)
; 70   :         {
; 71   :         }
; 72   : 
; 73   :         PMC_STATUS_CODE GetStatusCode() const noexcept(true)
; 74   :         {
; 75   :             return (_code);
; 76   :         }
; 77   : 
; 78   :         wchar_t const* What() const noexcept(true)
; 79   :         {
; 80   :             return (_message);
; 81   :         }
; 82   : 
; 83   :         wchar_t const* Data() const noexcept(true)
; 84   :         {
; 85   :             return (_data);
; 86   :         }
; 87   : 
; 88   :     };
; 89   : 
; 90   :     class ArgumentException
; 91   :         : public Exception
; 92   :     {
; 93   :     public:
; 94   :         ArgumentException(const wchar_t* message) noexcept(true)
; 95   :             : Exception(PMC_STATUS_ARGUMENT_ERROR, message)
; 96   :         {
; 97   :         }
; 98   : 
; 99   :         ArgumentException(const ArgumentException& p) noexcept(true)
; 100  :             : Exception(p)
; 101  :         {
; 102  :         }
; 103  : 
; 104  :         virtual ~ArgumentException() noexcept(true)
; 105  :         {
; 106  :         }
; 107  :     };
; 108  : 
; 109  :     class ArgumentNullException
; 110  :         : public Exception
; 111  :     {
; 112  :     public:
; 113  :         ArgumentNullException(const wchar_t* message, const wchar_t* param_name) noexcept(true)
; 114  :             : Exception(PMC_STATUS_ARGUMENT_NULL_ERROR, message, param_name)
; 115  :         {
; 116  :         }
; 117  : 
; 118  :         ArgumentNullException(const ArgumentNullException& p) noexcept(true)
; 119  :             : Exception(p)
; 120  :         {
; 121  :         }
; 122  : 
; 123  :         virtual ~ArgumentNullException() noexcept(true)
; 124  :         {
; 125  :         }
; 126  :     };
; 127  : 
; 128  :     class ArgumentOutOfRangeException
; 129  :         : public Exception
; 130  :     {
; 131  :     public:
; 132  :         ArgumentOutOfRangeException(const wchar_t* message) noexcept(true)
; 133  :             : Exception(PMC_STATUS_ARGUMENT_OUT_OF_RANGE_ERROR, message)
; 134  :         {
; 135  :         }
; 136  : 
; 137  :         ArgumentOutOfRangeException(const ArgumentOutOfRangeException& p) noexcept(true)
; 138  :             : Exception(p)
; 139  :         {
; 140  :         }
; 141  : 
; 142  :         virtual ~ArgumentOutOfRangeException() noexcept(true)
; 143  :         {
; 144  :         }
; 145  :     };
; 146  : 
; 147  :     class OverflowException
; 148  :         : public Exception
; 149  :     {
; 150  :     public:
; 151  :         OverflowException(const wchar_t* message) noexcept(true)
; 152  :             : Exception(PMC_STATUS_OVERFLOW, message)
; 153  :         {
; 154  :         }
; 155  : 
; 156  :         OverflowException(const OverflowException& p) noexcept(true)
; 157  :             : Exception(p)
; 158  :         {
; 159  :         }
; 160  : 
; 161  :         virtual ~OverflowException() noexcept(true)
; 162  :         {
; 163  :         }
; 164  :     };
; 165  : 
; 166  :     class DivisionByZeroException
; 167  :         : public Exception
; 168  :     {
; 169  :     public:
; 170  :         DivisionByZeroException(const wchar_t* message) noexcept(true)
; 171  :             : Exception(PMC_STATUS_DIVISION_BY_ZERO, message)
; 172  :         {
; 173  :         }
; 174  : 
; 175  :         DivisionByZeroException(const DivisionByZeroException& p) noexcept(true)
; 176  :             : Exception(p)
; 177  :         {
; 178  :         }
; 179  : 
; 180  :         virtual ~DivisionByZeroException() noexcept(true)
; 181  :         {
; 182  :         }
; 183  :     };
; 184  : 
; 185  :     class ArithmeticException
; 186  :         : public Exception
; 187  :     {
; 188  :     public:
; 189  :         ArithmeticException(const wchar_t* message) noexcept(true)
; 190  :             : Exception(PMC_STATUS_ARITHMETIC_ERROR, message)
; 191  :         {
; 192  :         }
; 193  : 
; 194  :         ArithmeticException(const OverflowException& p) noexcept(true)
; 195  :             : Exception(p)
; 196  :         {
; 197  :         }
; 198  : 
; 199  :         virtual ~ArithmeticException() noexcept(true)
; 200  :         {
; 201  :         }
; 202  :     };
; 203  : 
; 204  :     class FormatException
; 205  :         : public Exception
; 206  :     {
; 207  :     public:
; 208  :         FormatException(const wchar_t* message) noexcept(true)
; 209  :             : Exception(PMC_STATUS_FORMAT_ERROR, message)
; 210  :         {
; 211  :         }
; 212  : 
; 213  :         FormatException(const FormatException& p) noexcept(true)
; 214  :             : Exception(p)
; 215  :         {
; 216  :         }
; 217  : 
; 218  :         virtual ~FormatException() noexcept(true)
; 219  :         {
; 220  :         }
; 221  :     };
; 222  : 
; 223  :     class InsufficientBufferException
; 224  :         : public Exception
; 225  :     {
; 226  :     public:
; 227  :         InsufficientBufferException(const wchar_t* message)
; 228  :             : Exception(PMC_STATUS_INSUFFICIENT_BUFFER, message)
; 229  :         {
; 230  :         }
; 231  : 
; 232  :         InsufficientBufferException(const InsufficientBufferException& p) noexcept(true)
; 233  :             : Exception(p)
; 234  :         {
; 235  :         }
; 236  : 
; 237  :         virtual ~InsufficientBufferException() noexcept(true)
; 238  :         {
; 239  :         }
; 240  :     };
; 241  : 
; 242  :     class NotEnoughMemoryException
; 243  :         : public Exception
; 244  :     {
; 245  :     public:
; 246  :         NotEnoughMemoryException(const wchar_t* message) noexcept(true)
; 247  :             : Exception(PMC_STATUS_NOT_ENOUGH_MEMORY, message)
; 248  :         {
; 249  :         }
; 250  : 
; 251  :         NotEnoughMemoryException(const NotEnoughMemoryException& p) noexcept(true)
; 252  :             : Exception(p)
; 253  :         {
; 254  :         }
; 255  : 
; 256  :         virtual ~NotEnoughMemoryException() noexcept(true)
; 257  :         {
; 258  :         }
; 259  :     };
; 260  : 
; 261  :     class NotSupportedException
; 262  :         : public Exception
; 263  :     {
; 264  :     public:
; 265  :         NotSupportedException(const wchar_t* message) noexcept(true)
; 266  :             : Exception(PMC_STATUS_NOT_SUPPORTED, message)
; 267  :         {
; 268  :         }
; 269  : 
; 270  :         NotSupportedException(const NotSupportedException& p) noexcept(true)
; 271  :             : Exception(p)
; 272  :         {
; 273  :         }
; 274  : 
; 275  :         virtual ~NotSupportedException() noexcept(true)
; 276  :         {
; 277  :         }
; 278  :     };
; 279  : 
; 280  :     class InternalErrorException
; 281  :         : public Exception
; 282  :     {
; 283  :     public:
; 284  :         InternalErrorException(const wchar_t* message, const wchar_t* data) noexcept(true)
; 285  :             : Exception(PMC_STATUS_INTERNAL_ERROR, message, data)

  00054	c7 45 fc 01 00
	00 00		 mov	 DWORD PTR __$EHRec$[ebp+8], 1

; 286  :         {

  0005b	c7 01 00 00 00
	00		 mov	 DWORD PTR [ecx], OFFSET ??_7InternalErrorException@Internal@Core@Math@Palmtree@@6B@

; 287  :         }

  00061	c7 45 fc ff ff
	ff ff		 mov	 DWORD PTR __$EHRec$[ebp+8], -1
  00068	8b c1		 mov	 eax, ecx
  0006a	8b 4d f4	 mov	 ecx, DWORD PTR __$EHRec$[ebp]
  0006d	64 89 0d 00 00
	00 00		 mov	 DWORD PTR fs:0, ecx
  00074	59		 pop	 ecx
  00075	8b e5		 mov	 esp, ebp
  00077	5d		 pop	 ebp
  00078	c2 08 00	 ret	 8
_TEXT	ENDS
;	COMDAT text$x
text$x	SEGMENT
__unwindfunclet$??0InternalErrorException@Internal@Core@Math@Palmtree@@QAE@PB_W0@Z$1:
  00000	8b 4d f0	 mov	 ecx, DWORD PTR _this$[ebp]
  00003	e9 00 00 00 00	 jmp	 ??1exception@std@@UAE@XZ ; std::exception::~exception
__unwindfunclet$??0InternalErrorException@Internal@Core@Math@Palmtree@@QAE@PB_W0@Z$0:
  00008	8b 4d f0	 mov	 ecx, DWORD PTR _this$[ebp]
  0000b	e9 00 00 00 00	 jmp	 ??1Exception@Internal@Core@Math@Palmtree@@UAE@XZ ; Palmtree::Math::Core::Internal::Exception::~Exception
__ehhandler$??0InternalErrorException@Internal@Core@Math@Palmtree@@QAE@PB_W0@Z:
  00010	8b 54 24 08	 mov	 edx, DWORD PTR [esp+8]
  00014	8d 42 0c	 lea	 eax, DWORD PTR [edx+12]
  00017	8b 4a f8	 mov	 ecx, DWORD PTR [edx-8]
  0001a	33 c8		 xor	 ecx, eax
  0001c	e8 00 00 00 00	 call	 @__security_check_cookie@4
  00021	b8 00 00 00 00	 mov	 eax, OFFSET __ehfuncinfo$??0InternalErrorException@Internal@Core@Math@Palmtree@@QAE@PB_W0@Z
  00026	e9 00 00 00 00	 jmp	 ___CxxFrameHandler3
text$x	ENDS
??0InternalErrorException@Internal@Core@Math@Palmtree@@QAE@PB_W0@Z ENDP ; Palmtree::Math::Core::Internal::InternalErrorException::InternalErrorException
; Function compile flags: /Ogtp
; File z:\sources\lunor\repos\rougemeilland\palmtree.math.core.uint\palmtree.math.core.uint\pmc_exception.h
; File c:\program files (x86)\microsoft visual studio\2017\community\vc\tools\msvc\14.16.27023\include\vcruntime_exception.h
;	COMDAT ??_GException@Internal@Core@Math@Palmtree@@UAEPAXI@Z
_TEXT	SEGMENT
_this$ = -16						; size = 4
__$EHRec$ = -12						; size = 12
___flags$ = 8						; size = 4
??_GException@Internal@Core@Math@Palmtree@@UAEPAXI@Z PROC ; Palmtree::Math::Core::Internal::Exception::`scalar deleting destructor', COMDAT
; _this$ = ecx
  00000	55		 push	 ebp
  00001	8b ec		 mov	 ebp, esp
  00003	6a ff		 push	 -1
  00005	68 00 00 00 00	 push	 __ehhandler$??_GException@Internal@Core@Math@Palmtree@@UAEPAXI@Z
  0000a	64 a1 00 00 00
	00		 mov	 eax, DWORD PTR fs:0
  00010	50		 push	 eax
  00011	51		 push	 ecx
  00012	56		 push	 esi
  00013	a1 00 00 00 00	 mov	 eax, DWORD PTR ___security_cookie
  00018	33 c5		 xor	 eax, ebp
  0001a	50		 push	 eax
  0001b	8d 45 f4	 lea	 eax, DWORD PTR __$EHRec$[ebp]
  0001e	64 a3 00 00 00
	00		 mov	 DWORD PTR fs:0, eax
  00024	8b f1		 mov	 esi, ecx
  00026	89 75 f0	 mov	 DWORD PTR _this$[ebp], esi
; File z:\sources\lunor\repos\rougemeilland\palmtree.math.core.uint\palmtree.math.core.uint\pmc_exception.h

; 70   :         {

  00029	c7 06 00 00 00
	00		 mov	 DWORD PTR [esi], OFFSET ??_7Exception@Internal@Core@Math@Palmtree@@6B@

; 71   :         }

  0002f	c7 45 fc ff ff
	ff ff		 mov	 DWORD PTR __$EHRec$[ebp+8], -1
; File c:\program files (x86)\microsoft visual studio\2017\community\vc\tools\msvc\14.16.27023\include\vcruntime_exception.h

; 86   :         __std_exception_destroy(&_Data);

  00036	8d 46 04	 lea	 eax, DWORD PTR [esi+4]
  00039	50		 push	 eax
  0003a	c7 06 00 00 00
	00		 mov	 DWORD PTR [esi], OFFSET ??_7exception@std@@6B@
  00040	e8 00 00 00 00	 call	 ___std_exception_destroy
  00045	83 c4 04	 add	 esp, 4
  00048	f6 45 08 01	 test	 BYTE PTR ___flags$[ebp], 1
  0004c	74 0b		 je	 SHORT $LN9@scalar
  0004e	6a 18		 push	 24			; 00000018H
  00050	56		 push	 esi
  00051	e8 00 00 00 00	 call	 ??3@YAXPAXI@Z		; operator delete
  00056	83 c4 08	 add	 esp, 8
$LN9@scalar:
  00059	8b c6		 mov	 eax, esi
  0005b	8b 4d f4	 mov	 ecx, DWORD PTR __$EHRec$[ebp]
  0005e	64 89 0d 00 00
	00 00		 mov	 DWORD PTR fs:0, ecx
  00065	59		 pop	 ecx
  00066	5e		 pop	 esi
  00067	8b e5		 mov	 esp, ebp
  00069	5d		 pop	 ebp
  0006a	c2 04 00	 ret	 4
_TEXT	ENDS
;	COMDAT text$x
text$x	SEGMENT
__unwindfunclet$??_GException@Internal@Core@Math@Palmtree@@UAEPAXI@Z$0:
  00000	8b 4d f0	 mov	 ecx, DWORD PTR _this$[ebp]
  00003	e9 00 00 00 00	 jmp	 ??1exception@std@@UAE@XZ ; std::exception::~exception
__ehhandler$??_GException@Internal@Core@Math@Palmtree@@UAEPAXI@Z:
  00008	8b 54 24 08	 mov	 edx, DWORD PTR [esp+8]
  0000c	8d 42 0c	 lea	 eax, DWORD PTR [edx+12]
  0000f	8b 4a f4	 mov	 ecx, DWORD PTR [edx-12]
  00012	33 c8		 xor	 ecx, eax
  00014	e8 00 00 00 00	 call	 @__security_check_cookie@4
  00019	b8 00 00 00 00	 mov	 eax, OFFSET __ehfuncinfo$??_GException@Internal@Core@Math@Palmtree@@UAEPAXI@Z
  0001e	e9 00 00 00 00	 jmp	 ___CxxFrameHandler3
text$x	ENDS
??_GException@Internal@Core@Math@Palmtree@@UAEPAXI@Z ENDP ; Palmtree::Math::Core::Internal::Exception::`scalar deleting destructor'
; Function compile flags: /Ogtp
; File z:\sources\lunor\repos\rougemeilland\palmtree.math.core.uint\palmtree.math.core.uint\pmc_exception.h
; File c:\program files (x86)\microsoft visual studio\2017\community\vc\tools\msvc\14.16.27023\include\vcruntime_exception.h
; File z:\sources\lunor\repos\rougemeilland\palmtree.math.core.uint\palmtree.math.core.uint\pmc_exception.h
;	COMDAT ??1Exception@Internal@Core@Math@Palmtree@@UAE@XZ
_TEXT	SEGMENT
_this$ = -16						; size = 4
__$EHRec$ = -12						; size = 12
??1Exception@Internal@Core@Math@Palmtree@@UAE@XZ PROC	; Palmtree::Math::Core::Internal::Exception::~Exception, COMDAT
; _this$ = ecx

; 70   :         {

  00000	55		 push	 ebp
  00001	8b ec		 mov	 ebp, esp
  00003	6a ff		 push	 -1
  00005	68 00 00 00 00	 push	 __ehhandler$??1Exception@Internal@Core@Math@Palmtree@@UAE@XZ
  0000a	64 a1 00 00 00
	00		 mov	 eax, DWORD PTR fs:0
  00010	50		 push	 eax
  00011	51		 push	 ecx
  00012	a1 00 00 00 00	 mov	 eax, DWORD PTR ___security_cookie
  00017	33 c5		 xor	 eax, ebp
  00019	50		 push	 eax
  0001a	8d 45 f4	 lea	 eax, DWORD PTR __$EHRec$[ebp]
  0001d	64 a3 00 00 00
	00		 mov	 DWORD PTR fs:0, eax
  00023	89 4d f0	 mov	 DWORD PTR _this$[ebp], ecx
  00026	c7 01 00 00 00
	00		 mov	 DWORD PTR [ecx], OFFSET ??_7Exception@Internal@Core@Math@Palmtree@@6B@

; 71   :         }

  0002c	c7 45 fc ff ff
	ff ff		 mov	 DWORD PTR __$EHRec$[ebp+8], -1
; File c:\program files (x86)\microsoft visual studio\2017\community\vc\tools\msvc\14.16.27023\include\vcruntime_exception.h

; 86   :         __std_exception_destroy(&_Data);

  00033	8d 41 04	 lea	 eax, DWORD PTR [ecx+4]
  00036	50		 push	 eax
  00037	c7 01 00 00 00
	00		 mov	 DWORD PTR [ecx], OFFSET ??_7exception@std@@6B@
  0003d	e8 00 00 00 00	 call	 ___std_exception_destroy
  00042	83 c4 04	 add	 esp, 4
; File z:\sources\lunor\repos\rougemeilland\palmtree.math.core.uint\palmtree.math.core.uint\pmc_exception.h

; 71   :         }

  00045	8b 4d f4	 mov	 ecx, DWORD PTR __$EHRec$[ebp]
  00048	64 89 0d 00 00
	00 00		 mov	 DWORD PTR fs:0, ecx
  0004f	59		 pop	 ecx
  00050	8b e5		 mov	 esp, ebp
  00052	5d		 pop	 ebp
  00053	c3		 ret	 0
_TEXT	ENDS
;	COMDAT text$x
text$x	SEGMENT
__unwindfunclet$??1Exception@Internal@Core@Math@Palmtree@@UAE@XZ$0:
  00000	8b 4d f0	 mov	 ecx, DWORD PTR _this$[ebp]
  00003	e9 00 00 00 00	 jmp	 ??1exception@std@@UAE@XZ ; std::exception::~exception
__ehhandler$??1Exception@Internal@Core@Math@Palmtree@@UAE@XZ:
  00008	8b 54 24 08	 mov	 edx, DWORD PTR [esp+8]
  0000c	8d 42 0c	 lea	 eax, DWORD PTR [edx+12]
  0000f	8b 4a f8	 mov	 ecx, DWORD PTR [edx-8]
  00012	33 c8		 xor	 ecx, eax
  00014	e8 00 00 00 00	 call	 @__security_check_cookie@4
  00019	b8 00 00 00 00	 mov	 eax, OFFSET __ehfuncinfo$??1Exception@Internal@Core@Math@Palmtree@@UAE@XZ
  0001e	e9 00 00 00 00	 jmp	 ___CxxFrameHandler3
text$x	ENDS
??1Exception@Internal@Core@Math@Palmtree@@UAE@XZ ENDP	; Palmtree::Math::Core::Internal::Exception::~Exception
; Function compile flags: /Ogtp
; File z:\sources\lunor\repos\rougemeilland\palmtree.math.core.uint\palmtree.math.core.uint\pmc_exception.h
; File c:\program files (x86)\microsoft visual studio\2017\community\vc\tools\msvc\14.16.27023\include\vcruntime_exception.h
; File z:\sources\lunor\repos\rougemeilland\palmtree.math.core.uint\palmtree.math.core.uint\pmc_exception.h
;	COMDAT ??0Exception@Internal@Core@Math@Palmtree@@IAE@HPB_W0@Z
_TEXT	SEGMENT
_this$ = -16						; size = 4
__$EHRec$ = -12						; size = 12
_code$ = 8						; size = 4
_message$ = 12						; size = 4
_data$ = 16						; size = 4
??0Exception@Internal@Core@Math@Palmtree@@IAE@HPB_W0@Z PROC ; Palmtree::Math::Core::Internal::Exception::Exception, COMDAT
; _this$ = ecx

; 54   :         Exception(PMC_STATUS_CODE code, const wchar_t* message, const wchar_t* data) noexcept(true)

  00000	55		 push	 ebp
  00001	8b ec		 mov	 ebp, esp
  00003	6a ff		 push	 -1
  00005	68 00 00 00 00	 push	 __ehhandler$??0Exception@Internal@Core@Math@Palmtree@@IAE@HPB_W0@Z
  0000a	64 a1 00 00 00
	00		 mov	 eax, DWORD PTR fs:0
  00010	50		 push	 eax
  00011	51		 push	 ecx
  00012	a1 00 00 00 00	 mov	 eax, DWORD PTR ___security_cookie
  00017	33 c5		 xor	 eax, ebp
  00019	50		 push	 eax
  0001a	8d 45 f4	 lea	 eax, DWORD PTR __$EHRec$[ebp]
  0001d	64 a3 00 00 00
	00		 mov	 DWORD PTR fs:0, eax
  00023	89 4d f0	 mov	 DWORD PTR _this$[ebp], ecx
  00026	0f 57 c0	 xorps	 xmm0, xmm0
; File c:\program files (x86)\microsoft visual studio\2017\community\vc\tools\msvc\14.16.27023\include\vcruntime_exception.h

; 50   :     {

  00029	c7 01 00 00 00
	00		 mov	 DWORD PTR [ecx], OFFSET ??_7exception@std@@6B@
  0002f	66 0f d6 41 04	 movq	 QWORD PTR [ecx+4], xmm0
; File z:\sources\lunor\repos\rougemeilland\palmtree.math.core.uint\palmtree.math.core.uint\pmc_exception.h

; 54   :         Exception(PMC_STATUS_CODE code, const wchar_t* message, const wchar_t* data) noexcept(true)

  00034	c7 45 fc 00 00
	00 00		 mov	 DWORD PTR __$EHRec$[ebp+8], 0

; 55   :         {
; 56   :             _code = code;

  0003b	8b 45 08	 mov	 eax, DWORD PTR _code$[ebp]
  0003e	89 41 0c	 mov	 DWORD PTR [ecx+12], eax

; 57   :             _message = message;

  00041	8b 45 0c	 mov	 eax, DWORD PTR _message$[ebp]
  00044	89 41 10	 mov	 DWORD PTR [ecx+16], eax

; 58   :             _data = data;

  00047	8b 45 10	 mov	 eax, DWORD PTR _data$[ebp]
  0004a	c7 01 00 00 00
	00		 mov	 DWORD PTR [ecx], OFFSET ??_7Exception@Internal@Core@Math@Palmtree@@6B@
  00050	89 41 14	 mov	 DWORD PTR [ecx+20], eax

; 59   :         }

  00053	c7 45 fc ff ff
	ff ff		 mov	 DWORD PTR __$EHRec$[ebp+8], -1
  0005a	8b c1		 mov	 eax, ecx
  0005c	8b 4d f4	 mov	 ecx, DWORD PTR __$EHRec$[ebp]
  0005f	64 89 0d 00 00
	00 00		 mov	 DWORD PTR fs:0, ecx
  00066	59		 pop	 ecx
  00067	8b e5		 mov	 esp, ebp
  00069	5d		 pop	 ebp
  0006a	c2 0c 00	 ret	 12			; 0000000cH
_TEXT	ENDS
;	COMDAT text$x
text$x	SEGMENT
__unwindfunclet$??0Exception@Internal@Core@Math@Palmtree@@IAE@HPB_W0@Z$0:
  00000	8b 4d f0	 mov	 ecx, DWORD PTR _this$[ebp]
  00003	e9 00 00 00 00	 jmp	 ??1exception@std@@UAE@XZ ; std::exception::~exception
__ehhandler$??0Exception@Internal@Core@Math@Palmtree@@IAE@HPB_W0@Z:
  00008	8b 54 24 08	 mov	 edx, DWORD PTR [esp+8]
  0000c	8d 42 0c	 lea	 eax, DWORD PTR [edx+12]
  0000f	8b 4a f8	 mov	 ecx, DWORD PTR [edx-8]
  00012	33 c8		 xor	 ecx, eax
  00014	e8 00 00 00 00	 call	 @__security_check_cookie@4
  00019	b8 00 00 00 00	 mov	 eax, OFFSET __ehfuncinfo$??0Exception@Internal@Core@Math@Palmtree@@IAE@HPB_W0@Z
  0001e	e9 00 00 00 00	 jmp	 ___CxxFrameHandler3
text$x	ENDS
??0Exception@Internal@Core@Math@Palmtree@@IAE@HPB_W0@Z ENDP ; Palmtree::Math::Core::Internal::Exception::Exception
; Function compile flags: /Ogtp
; File c:\program files (x86)\microsoft visual studio\2017\community\vc\tools\msvc\14.16.27023\include\vcruntime_exception.h
;	COMDAT ??_Gexception@std@@UAEPAXI@Z
_TEXT	SEGMENT
__$EHRec$ = -12						; size = 12
___flags$ = 8						; size = 4
??_Gexception@std@@UAEPAXI@Z PROC			; std::exception::`scalar deleting destructor', COMDAT
; _this$ = ecx
  00000	55		 push	 ebp
  00001	8b ec		 mov	 ebp, esp
  00003	6a ff		 push	 -1
  00005	68 00 00 00 00	 push	 __ehhandler$??_Gexception@std@@UAEPAXI@Z
  0000a	64 a1 00 00 00
	00		 mov	 eax, DWORD PTR fs:0
  00010	50		 push	 eax
  00011	56		 push	 esi
  00012	a1 00 00 00 00	 mov	 eax, DWORD PTR ___security_cookie
  00017	33 c5		 xor	 eax, ebp
  00019	50		 push	 eax
  0001a	8d 45 f4	 lea	 eax, DWORD PTR __$EHRec$[ebp]
  0001d	64 a3 00 00 00
	00		 mov	 DWORD PTR fs:0, eax
  00023	8b f1		 mov	 esi, ecx

; 86   :         __std_exception_destroy(&_Data);

  00025	8d 46 04	 lea	 eax, DWORD PTR [esi+4]
  00028	c7 06 00 00 00
	00		 mov	 DWORD PTR [esi], OFFSET ??_7exception@std@@6B@
  0002e	50		 push	 eax
  0002f	e8 00 00 00 00	 call	 ___std_exception_destroy
  00034	83 c4 04	 add	 esp, 4
  00037	f6 45 08 01	 test	 BYTE PTR ___flags$[ebp], 1
  0003b	74 0b		 je	 SHORT $LN6@scalar
  0003d	6a 0c		 push	 12			; 0000000cH
  0003f	56		 push	 esi
  00040	e8 00 00 00 00	 call	 ??3@YAXPAXI@Z		; operator delete
  00045	83 c4 08	 add	 esp, 8
$LN6@scalar:
  00048	8b c6		 mov	 eax, esi
  0004a	8b 4d f4	 mov	 ecx, DWORD PTR __$EHRec$[ebp]
  0004d	64 89 0d 00 00
	00 00		 mov	 DWORD PTR fs:0, ecx
  00054	59		 pop	 ecx
  00055	5e		 pop	 esi
  00056	8b e5		 mov	 esp, ebp
  00058	5d		 pop	 ebp
  00059	c2 04 00	 ret	 4
_TEXT	ENDS
;	COMDAT text$x
text$x	SEGMENT
__ehhandler$??_Gexception@std@@UAEPAXI@Z:
  00000	8b 54 24 08	 mov	 edx, DWORD PTR [esp+8]
  00004	8d 42 0c	 lea	 eax, DWORD PTR [edx+12]
  00007	8b 4a f8	 mov	 ecx, DWORD PTR [edx-8]
  0000a	33 c8		 xor	 ecx, eax
  0000c	e8 00 00 00 00	 call	 @__security_check_cookie@4
  00011	b8 00 00 00 00	 mov	 eax, OFFSET __ehfuncinfo$??_Gexception@std@@UAEPAXI@Z
  00016	e9 00 00 00 00	 jmp	 ___CxxFrameHandler3
text$x	ENDS
??_Gexception@std@@UAEPAXI@Z ENDP			; std::exception::`scalar deleting destructor'
; Function compile flags: /Ogtp
; File c:\program files (x86)\microsoft visual studio\2017\community\vc\tools\msvc\14.16.27023\include\vcruntime_exception.h
;	COMDAT ?what@exception@std@@UBEPBDXZ
_TEXT	SEGMENT
?what@exception@std@@UBEPBDXZ PROC			; std::exception::what, COMDAT
; _this$ = ecx

; 91   :         return _Data._What ? _Data._What : "Unknown exception";

  00000	8b 49 04	 mov	 ecx, DWORD PTR [ecx+4]
  00003	b8 00 00 00 00	 mov	 eax, OFFSET ??_C@_0BC@EOODALEL@Unknown?5exception@
  00008	85 c9		 test	 ecx, ecx
  0000a	0f 45 c1	 cmovne	 eax, ecx

; 92   :     }

  0000d	c3		 ret	 0
?what@exception@std@@UBEPBDXZ ENDP			; std::exception::what
_TEXT	ENDS
; Function compile flags: /Ogtp
; File c:\program files (x86)\microsoft visual studio\2017\community\vc\tools\msvc\14.16.27023\include\vcruntime_exception.h
;	COMDAT ??1exception@std@@UAE@XZ
_TEXT	SEGMENT
__$EHRec$ = -12						; size = 12
??1exception@std@@UAE@XZ PROC				; std::exception::~exception, COMDAT
; _this$ = ecx

; 85   :     {

  00000	55		 push	 ebp
  00001	8b ec		 mov	 ebp, esp
  00003	6a ff		 push	 -1
  00005	68 00 00 00 00	 push	 __ehhandler$??1exception@std@@UAE@XZ
  0000a	64 a1 00 00 00
	00		 mov	 eax, DWORD PTR fs:0
  00010	50		 push	 eax
  00011	a1 00 00 00 00	 mov	 eax, DWORD PTR ___security_cookie
  00016	33 c5		 xor	 eax, ebp
  00018	50		 push	 eax
  00019	8d 45 f4	 lea	 eax, DWORD PTR __$EHRec$[ebp]
  0001c	64 a3 00 00 00
	00		 mov	 DWORD PTR fs:0, eax

; 86   :         __std_exception_destroy(&_Data);

  00022	8d 41 04	 lea	 eax, DWORD PTR [ecx+4]
  00025	c7 01 00 00 00
	00		 mov	 DWORD PTR [ecx], OFFSET ??_7exception@std@@6B@
  0002b	50		 push	 eax
  0002c	e8 00 00 00 00	 call	 ___std_exception_destroy
  00031	83 c4 04	 add	 esp, 4

; 87   :     }

  00034	8b 4d f4	 mov	 ecx, DWORD PTR __$EHRec$[ebp]
  00037	64 89 0d 00 00
	00 00		 mov	 DWORD PTR fs:0, ecx
  0003e	59		 pop	 ecx
  0003f	8b e5		 mov	 esp, ebp
  00041	5d		 pop	 ebp
  00042	c3		 ret	 0
_TEXT	ENDS
;	COMDAT text$x
text$x	SEGMENT
__ehhandler$??1exception@std@@UAE@XZ:
  00000	8b 54 24 08	 mov	 edx, DWORD PTR [esp+8]
  00004	8d 42 0c	 lea	 eax, DWORD PTR [edx+12]
  00007	8b 4a fc	 mov	 ecx, DWORD PTR [edx-4]
  0000a	33 c8		 xor	 ecx, eax
  0000c	e8 00 00 00 00	 call	 @__security_check_cookie@4
  00011	b8 00 00 00 00	 mov	 eax, OFFSET __ehfuncinfo$??1exception@std@@UAE@XZ
  00016	e9 00 00 00 00	 jmp	 ___CxxFrameHandler3
text$x	ENDS
??1exception@std@@UAE@XZ ENDP				; std::exception::~exception
; Function compile flags: /Ogtp
; File c:\program files (x86)\microsoft visual studio\2017\community\vc\tools\msvc\14.16.27023\include\vcruntime_exception.h
;	COMDAT ??0exception@std@@QAE@XZ
_TEXT	SEGMENT
??0exception@std@@QAE@XZ PROC				; std::exception::exception, COMDAT
; _this$ = ecx

; 50   :     {

  00000	0f 57 c0	 xorps	 xmm0, xmm0
  00003	c7 01 00 00 00
	00		 mov	 DWORD PTR [ecx], OFFSET ??_7exception@std@@6B@
  00009	66 0f d6 41 04	 movq	 QWORD PTR [ecx+4], xmm0

; 51   :     }

  0000e	8b c1		 mov	 eax, ecx
  00010	c3		 ret	 0
??0exception@std@@QAE@XZ ENDP				; std::exception::exception
_TEXT	ENDS
END
