; Listing generated by Microsoft (R) Optimizing Compiler Version 19.16.27026.1 

	TITLE	Z:\Sources\Lunor\Repos\rougemeilland\Palmtree.Math.Core.Uint\Palmtree.Math.Core.Uint\pmc_divrem.c
	.686P
	.XMM
	include listing.inc
	.model	flat

INCLUDELIB MSVCRT
INCLUDELIB OLDNAMES

PUBLIC	_DivRem_X_1W
PUBLIC	_DivRem_X_X
PUBLIC	_Initialize_DivRem
PUBLIC	_PMC_DivRem_I_X@16
PUBLIC	_PMC_DivRem_L_X@20
PUBLIC	_PMC_DivRem_X_I@16
PUBLIC	_PMC_DivRem_X_L@20
PUBLIC	_PMC_DivRem_X_X@16
EXTRN	_AllocateBlock:PROC
EXTRN	_DeallocateBlock:PROC
EXTRN	_CheckBlockLight:PROC
EXTRN	_AllocateNumber:PROC
EXTRN	_DeallocateNumber:PROC
EXTRN	_CommitNumber:PROC
EXTRN	_CheckNumber:PROC
EXTRN	_DuplicateNumber:PROC
EXTRN	_RightShift_Imp_DIV:PROC
EXTRN	_LeftShift_Imp_DIV:PROC
EXTRN	@__security_check_cookie@4:PROC
EXTRN	__aulldiv:PROC
EXTRN	__aulldvrm:PROC
EXTRN	__aullrem:PROC
EXTRN	_number_zero:BYTE
EXTRN	_statistics_info:BYTE
EXTRN	___security_cookie:DWORD
_BSS	SEGMENT
_fp_DivRem_X_X DD 01H DUP (?)
_BSS	ENDS
; Function compile flags: /Ogtp
; File z:\sources\lunor\repos\rougemeilland\palmtree.math.core.uint\palmtree.math.core.uint\pmc_divrem.c
; File z:\sources\lunor\repos\rougemeilland\palmtree.math.core.uint\palmtree.math.core.uint\pmc_inline_func.h
; File z:\sources\lunor\repos\rougemeilland\palmtree.math.core.uint\palmtree.math.core.uint\pmc_divrem.c
; File z:\sources\lunor\repos\rougemeilland\palmtree.math.core.uint\palmtree.math.core.uint\pmc_inline_func.h
; File z:\sources\lunor\repos\rougemeilland\palmtree.math.core.uint\palmtree.math.core.uint\pmc_divrem.c
; File z:\sources\lunor\repos\rougemeilland\palmtree.math.core.uint\palmtree.math.core.uint\pmc_inline_func.h
; File z:\sources\lunor\repos\rougemeilland\palmtree.math.core.uint\palmtree.math.core.uint\pmc_divrem.c
; File z:\sources\lunor\repos\rougemeilland\palmtree.math.core.uint\palmtree.math.core.uint\pmc_uint_internal.h
; File z:\sources\lunor\repos\rougemeilland\palmtree.math.core.uint\palmtree.math.core.uint\pmc_inline_func.h
; File z:\sources\lunor\repos\rougemeilland\palmtree.math.core.uint\palmtree.math.core.uint\pmc_divrem.c
; File z:\sources\lunor\repos\rougemeilland\palmtree.math.core.uint\palmtree.math.core.uint\pmc_inline_func.h
; File z:\sources\lunor\repos\rougemeilland\palmtree.math.core.uint\palmtree.math.core.uint\pmc_uint_internal.h
; File z:\sources\lunor\repos\rougemeilland\palmtree.math.core.uint\palmtree.math.core.uint\pmc_inline_func.h
; File z:\sources\lunor\repos\rougemeilland\palmtree.math.core.uint\palmtree.math.core.uint\pmc_uint_internal.h
; File z:\sources\lunor\repos\rougemeilland\palmtree.math.core.uint\palmtree.math.core.uint\pmc_divrem.c
; File z:\sources\lunor\repos\rougemeilland\palmtree.math.core.uint\palmtree.math.core.uint\pmc_inline_func.h
; File z:\sources\lunor\repos\rougemeilland\palmtree.math.core.uint\palmtree.math.core.uint\pmc_divrem.c
; File z:\sources\lunor\repos\rougemeilland\palmtree.math.core.uint\palmtree.math.core.uint\pmc_inline_func.h
; File z:\sources\lunor\repos\rougemeilland\palmtree.math.core.uint\palmtree.math.core.uint\pmc_uint_internal.h
; File z:\sources\lunor\repos\rougemeilland\palmtree.math.core.uint\palmtree.math.core.uint\pmc_inline_func.h
; File z:\sources\lunor\repos\rougemeilland\palmtree.math.core.uint\palmtree.math.core.uint\pmc_uint_internal.h
; File z:\sources\lunor\repos\rougemeilland\palmtree.math.core.uint\palmtree.math.core.uint\pmc_divrem.c
;	COMDAT _DivRem_X_X_using_ADX_MULX
_TEXT	SEGMENT
tv647 = -40						; size = 4
_lh_mi$1$ = -36						; size = 4
_value$1$ = -36						; size = 4
_lh_mi$1$ = -32						; size = 4
_value$1$ = -32						; size = 4
_rh_mi$1$ = -28						; size = 4
tv646 = -24						; size = 4
$T1 = -20						; size = 4
tv643 = -16						; size = 4
_rh_mi$1$ = -12						; size = 4
_v1$1$ = -8						; size = 4
_v2$1$ = -4						; size = 4
_u_buf$ = 8						; size = 4
_u_buf_len$ = 12					; size = 4
_rh_hi$1$ = 16						; size = 4
_v_buf$ = 16						; size = 4
_v_buf_len$ = 20					; size = 4
_work_v_buf$ = 24					; size = 4
_q_buf$ = 28						; size = 4
_r_buf$ = 32						; size = 4
_DivRem_X_X_using_ADX_MULX PROC				; COMDAT

; 965  : {

	push	ebp
	mov	ebp, esp
	sub	esp, 40					; 00000028H
	push	ebx

; 966  :     // u および v の最上位ワードは 0 でありうることに注意すること。
; 967  :     if (sizeof(__UNIT_TYPE) != sizeof(__UNIT_TYPE_DIV))
; 968  :     {
; 969  :         while (u_buf[u_buf_len - 1] == 0)
; 970  :             --u_buf_len;
; 971  :         while (v_buf[v_buf_len - 1] == 0)
; 972  :             --v_buf_len;
; 973  :     }
; 974  : 
; 975  : #ifdef _DEBUG
; 976  :     if (v_buf[v_buf_len - 1] == 0)
; 977  :     {
; 978  :         ; // このルートには到達しないはず。デバッグ用。
; 979  :     }
; 980  : #endif
; 981  : 
; 982  : #ifdef DO_TRACE
; 983  :     ReportLabel("uとvのシフト");
; 984  :     ReportDump("u", (__UNIT_TYPE*)u_buf, _DIVIDE_CEILING_UNIT(u_buf_len * sizeof(__UNIT_TYPE_DIV), sizeof(__UNIT_TYPE)));
; 985  :     ReportDump("v", (__UNIT_TYPE*)v_buf, _DIVIDE_CEILING_UNIT(v_buf_len * sizeof(__UNIT_TYPE_DIV), sizeof(__UNIT_TYPE)));
; 986  : #endif
; 987  : 
; 988  :     __UNIT_TYPE_DIV d_factor = _LZCNT_ALT_UNIT_DIV(v_buf[v_buf_len - 1]);

	mov	ebx, DWORD PTR _v_buf_len$[ebp]
	push	esi
	mov	esi, DWORD PTR _v_buf$[ebp]
	push	edi
	mov	eax, DWORD PTR [esi+ebx*4-4]
; File z:\sources\lunor\repos\rougemeilland\palmtree.math.core.uint\palmtree.math.core.uint\pmc_inline_func.h

; 653  :         if (x == 0)

	test	eax, eax
	jne	SHORT $LN18@DivRem_X_X

; 654  :             return (sizeof(x) * 8);

	mov	edi, 32					; 00000020H
	mov	DWORD PTR $T1[ebp], edi
$LN10@DivRem_X_X:
; File z:\sources\lunor\repos\rougemeilland\palmtree.math.core.uint\palmtree.math.core.uint\pmc_divrem.c

; 997  :         LeftShift_Imp_DIV(u_buf, u_buf_len, d_factor, r_buf, FALSE);

	push	0
	push	DWORD PTR _r_buf$[ebp]
	push	edi
	push	DWORD PTR _u_buf_len$[ebp]
	push	DWORD PTR _u_buf$[ebp]
	call	_LeftShift_Imp_DIV

; 998  :         LeftShift_Imp_DIV(v_buf, v_buf_len, d_factor, work_v_buf, FALSE);

	push	0
	push	DWORD PTR _work_v_buf$[ebp]
	push	edi
	push	ebx
	push	esi
	call	_LeftShift_Imp_DIV
	mov	eax, DWORD PTR _r_buf$[ebp]
	add	esp, 40					; 00000028H
	mov	edx, DWORD PTR _u_buf_len$[ebp]
$LN11@DivRem_X_X:

; 999  :     }
; 1000 : #ifdef DO_TRACE
; 1001 :     ReportDump("⇒u", (__UNIT_TYPE*)r_buf, _DIVIDE_CEILING_UNIT((u_buf_len + 1) * sizeof(__UNIT_TYPE_DIV), sizeof(__UNIT_TYPE)));
; 1002 :     ReportDump("⇒v", (__UNIT_TYPE*)work_v_buf, _DIVIDE_CEILING_UNIT(v_buf_len * sizeof(__UNIT_TYPE_DIV), sizeof(__UNIT_TYPE)));
; 1003 : #endif
; 1004 : 
; 1005 :     __UNIT_TYPE_DIV* work_u_buf = r_buf;
; 1006 :     __UNIT_TYPE q_index = u_buf_len - v_buf_len;

	mov	ecx, DWORD PTR _work_v_buf$[ebp]
	lea	esi, DWORD PTR [ebx-1]
	mov	edi, edx
	sub	edi, ebx
	lea	esi, DWORD PTR [ecx+esi*4]
	lea	ecx, DWORD PTR [ecx+ebx*4]
	mov	DWORD PTR tv647[ebp], esi
	add	ecx, -8					; fffffff8H
	lea	ebx, DWORD PTR [edx-2]
	mov	DWORD PTR tv646[ebp], ecx
	lea	ebx, DWORD PTR [eax+ebx*4]
$LL6@DivRem_X_X:

; 363  :     __UNIT_TYPE_DIV uj_2 = u_buf[u_index - 2];

	mov	ecx, DWORD PTR [ebx]
	mov	eax, DWORD PTR [ebx+8]

; 364  :     __UNIT_TYPE_DIV v1 = v_buf[v_buf_len - 1];

	mov	esi, DWORD PTR [esi]
	mov	edx, DWORD PTR [ebx+4]
	mov	DWORD PTR tv643[ebp], ecx

; 365  :     __UNIT_TYPE_DIV v2 = v_buf[v_buf_len - 2];

	mov	ecx, DWORD PTR tv646[ebp]
	mov	DWORD PTR _rh_hi$1$[ebp], eax
	mov	DWORD PTR _rh_mi$1$[ebp], edx
	mov	DWORD PTR _v1$1$[ebp], esi
	mov	ecx, DWORD PTR [ecx]
	mov	DWORD PTR _v2$1$[ebp], ecx

; 243  :     if (uj == v1)

	cmp	eax, esi
	jne	SHORT $LN29@DivRem_X_X

; 244  :         return (-1);

	or	esi, -1
	jmp	SHORT $LN28@DivRem_X_X
$LN18@DivRem_X_X:
; File z:\sources\lunor\repos\rougemeilland\palmtree.math.core.uint\palmtree.math.core.uint\pmc_inline_func.h

; 658  :         _BitScanReverse(&pos, x);

	bsr	eax, eax

; 659  : #elif defined(__GNUC__)
; 660  :         __asm__("bsrl %1, %0" : "=r"(pos) : "rm"(x));
; 661  : #else
; 662  : #error unknown compiler
; 663  : #endif
; 664  : #elif defined(_M_X64)
; 665  : #ifdef _MSC_VER
; 666  :         _UINT32_T pos;
; 667  :         _BitScanReverse(&pos, x);
; 668  : #elif defined(__GNUC__)
; 669  :         _UINT64_T pos;
; 670  :         __asm__("bsrq %1, %0" : "=r"(pos) : "rm"(x));
; 671  : #else
; 672  : #error unknown compiler
; 673  : #endif
; 674  : #else
; 675  : #error unknown platform
; 676  : #endif
; 677  :         return (sizeof(x) * 8 - 1 - pos);

	mov	edi, 31					; 0000001fH
	sub	edi, eax
	mov	DWORD PTR $T1[ebp], edi
; File z:\sources\lunor\repos\rougemeilland\palmtree.math.core.uint\palmtree.math.core.uint\pmc_divrem.c

; 989  :     if (d_factor == 0)

	jne	SHORT $LN10@DivRem_X_X
; File z:\sources\lunor\repos\rougemeilland\palmtree.math.core.uint\palmtree.math.core.uint\pmc_inline_func.h

; 73   :         __movsd((unsigned long *)d, (unsigned long *)s, (unsigned long)count);

	mov	eax, DWORD PTR _r_buf$[ebp]
	mov	edi, eax
	mov	edx, DWORD PTR _u_buf_len$[ebp]
	mov	ecx, edx
	mov	esi, DWORD PTR _u_buf$[ebp]
	rep movsd
	mov	edi, DWORD PTR _work_v_buf$[ebp]
	mov	ecx, ebx
	mov	esi, DWORD PTR _v_buf$[ebp]
	rep movsd
; File z:\sources\lunor\repos\rougemeilland\palmtree.math.core.uint\palmtree.math.core.uint\pmc_divrem.c

; 993  :         r_buf[u_buf_len] = 0;

	mov	DWORD PTR [eax+edx*4], 0

; 994  :     }

	jmp	SHORT $LN11@DivRem_X_X
$LN29@DivRem_X_X:
; File z:\sources\lunor\repos\rougemeilland\palmtree.math.core.uint\palmtree.math.core.uint\pmc_uint_internal.h

; 313  :         _InterlockedIncrement(&statistics_info.COUNT_DIV32);

	lock	 inc	 (null) PTR _statistics_info+12
; File z:\sources\lunor\repos\rougemeilland\palmtree.math.core.uint\palmtree.math.core.uint\pmc_inline_func.h

; 385  :             return ((_UINT32_T)(t / v));

	push	0
	push	esi

; 172  :         return (((_UINT64_T)value_high << 32) | value_low);

	xor	ecx, ecx
	or	ecx, edx

; 385  :             return ((_UINT32_T)(t / v));

	push	eax
	push	ecx
	call	__aulldiv
	mov	ecx, DWORD PTR _v2$1$[ebp]
; File z:\sources\lunor\repos\rougemeilland\palmtree.math.core.uint\palmtree.math.core.uint\pmc_divrem.c

; 253  :     return (q);

	mov	esi, eax
$LN28@DivRem_X_X:
; File z:\sources\lunor\repos\rougemeilland\palmtree.math.core.uint\palmtree.math.core.uint\pmc_inline_func.h

; 358  :         return (_FROMDWORDTOWORD((_UINT64_T)u * v, w_hi));

	mov	eax, esi
	mul	ecx

; 276  :         return (_subborrow_u32(borrow, u, v, w));

	mov	ecx, DWORD PTR _rh_mi$1$[ebp]

; 358  :         return (_FROMDWORDTOWORD((_UINT64_T)u * v, w_hi));

	mov	DWORD PTR _value$1$[ebp], eax
	mov	eax, esi
	mov	DWORD PTR _lh_mi$1$[ebp], edx
	mul	DWORD PTR _v1$1$[ebp]

; 276  :         return (_subborrow_u32(borrow, u, v, w));

	sub	ecx, eax
; File z:\sources\lunor\repos\rougemeilland\palmtree.math.core.uint\palmtree.math.core.uint\pmc_uint_internal.h

; 348  :         _InterlockedExchangeAdd(&statistics_info.COUNT_MULTI32, value);

	mov	eax, 2
; File z:\sources\lunor\repos\rougemeilland\palmtree.math.core.uint\palmtree.math.core.uint\pmc_inline_func.h

; 276  :         return (_subborrow_u32(borrow, u, v, w));

	mov	DWORD PTR _rh_mi$1$[ebp], ecx
	mov	ecx, DWORD PTR _rh_hi$1$[ebp]
	sbb	ecx, edx
; File z:\sources\lunor\repos\rougemeilland\palmtree.math.core.uint\palmtree.math.core.uint\pmc_uint_internal.h

; 348  :         _InterlockedExchangeAdd(&statistics_info.COUNT_MULTI32, value);

	mov	edx, OFFSET _statistics_info+4
	lock	 xadd	 DWORD PTR [edx], eax
; File z:\sources\lunor\repos\rougemeilland\palmtree.math.core.uint\palmtree.math.core.uint\pmc_divrem.c

; 310  :     if (rh_hi > 0)

	test	ecx, ecx
	jne	SHORT $LN102@DivRem_X_X

; 311  :     {
; 312  : #ifdef DO_TRACE
; 313  :         ReportVar("result", 0);
; 314  : #endif
; 315  :         return (FALSE);
; 316  :     }
; 317  :     else if (lh_mi > rh_mi)

	mov	eax, DWORD PTR _rh_mi$1$[ebp]
	cmp	DWORD PTR _lh_mi$1$[ebp], eax
	ja	SHORT $LN25@DivRem_X_X

; 318  :     {
; 319  : #ifdef DO_TRACE
; 320  :         ReportVar("result", 1);
; 321  : #endif
; 322  :         return (TRUE);
; 323  :     }
; 324  :     else if (lh_mi < rh_mi)

	jb	SHORT $LN102@DivRem_X_X

; 374  :     if (!CheckQ_X(q_, uj, uj_1, uj_2, v1, v2))

	mov	eax, DWORD PTR _value$1$[ebp]
	cmp	eax, DWORD PTR tv643[ebp]
	jbe	SHORT $LN102@DivRem_X_X
$LN25@DivRem_X_X:
; File z:\sources\lunor\repos\rougemeilland\palmtree.math.core.uint\palmtree.math.core.uint\pmc_inline_func.h

; 276  :         return (_subborrow_u32(borrow, u, v, w));

	mov	ecx, DWORD PTR _rh_mi$1$[ebp]
; File z:\sources\lunor\repos\rougemeilland\palmtree.math.core.uint\palmtree.math.core.uint\pmc_divrem.c

; 376  :     --q_;

	dec	esi
; File z:\sources\lunor\repos\rougemeilland\palmtree.math.core.uint\palmtree.math.core.uint\pmc_inline_func.h

; 358  :         return (_FROMDWORDTOWORD((_UINT64_T)u * v, w_hi));

	mov	eax, esi
	mul	DWORD PTR _v2$1$[ebp]
	mov	DWORD PTR _value$1$[ebp], eax
	mov	eax, esi
	mov	DWORD PTR _lh_mi$1$[ebp], edx
	mul	DWORD PTR _v1$1$[ebp]

; 276  :         return (_subborrow_u32(borrow, u, v, w));

	sub	ecx, eax
; File z:\sources\lunor\repos\rougemeilland\palmtree.math.core.uint\palmtree.math.core.uint\pmc_uint_internal.h

; 348  :         _InterlockedExchangeAdd(&statistics_info.COUNT_MULTI32, value);

	mov	eax, 2
; File z:\sources\lunor\repos\rougemeilland\palmtree.math.core.uint\palmtree.math.core.uint\pmc_inline_func.h

; 276  :         return (_subborrow_u32(borrow, u, v, w));

	sbb	DWORD PTR _rh_hi$1$[ebp], edx
; File z:\sources\lunor\repos\rougemeilland\palmtree.math.core.uint\palmtree.math.core.uint\pmc_uint_internal.h

; 348  :         _InterlockedExchangeAdd(&statistics_info.COUNT_MULTI32, value);

	mov	edx, OFFSET _statistics_info+4
	lock	 xadd	 DWORD PTR [edx], eax
; File z:\sources\lunor\repos\rougemeilland\palmtree.math.core.uint\palmtree.math.core.uint\pmc_divrem.c

; 310  :     if (rh_hi > 0)

	cmp	DWORD PTR _rh_hi$1$[ebp], 0
	ja	SHORT $LN102@DivRem_X_X

; 311  :     {
; 312  : #ifdef DO_TRACE
; 313  :         ReportVar("result", 0);
; 314  : #endif
; 315  :         return (FALSE);
; 316  :     }
; 317  :     else if (lh_mi > rh_mi)

	cmp	DWORD PTR _lh_mi$1$[ebp], ecx
	ja	SHORT $LN26@DivRem_X_X

; 318  :     {
; 319  : #ifdef DO_TRACE
; 320  :         ReportVar("result", 1);
; 321  : #endif
; 322  :         return (TRUE);
; 323  :     }
; 324  :     else if (lh_mi < rh_mi)

	jb	SHORT $LN102@DivRem_X_X

; 377  :     if (!CheckQ_X(q_, uj, uj_1, uj_2, v1, v2))

	mov	eax, DWORD PTR _value$1$[ebp]
	cmp	eax, DWORD PTR tv643[ebp]
	jbe	SHORT $LN102@DivRem_X_X
$LN26@DivRem_X_X:

; 378  :         return (q_);
; 379  :     --q_;

	dec	esi
$LN102@DivRem_X_X:

; 1007 : 
; 1008 :     for (;;)
; 1009 :     {
; 1010 :         __UNIT_TYPE_DIV q_ = CalculateQ_X(work_u_buf, work_v_buf, v_buf_len, q_index);
; 1011 : 
; 1012 : #ifdef DO_TRACE
; 1013 :         ReportLabel("uの減算");
; 1014 :         ReportDump("u", (__UNIT_TYPE*)work_u_buf, _DIVIDE_CEILING_UNIT(u_buf_len * sizeof(__UNIT_TYPE_DIV), sizeof(__UNIT_TYPE)));
; 1015 :         ReportDump("v", (__UNIT_TYPE*)work_v_buf, _DIVIDE_CEILING_UNIT(v_buf_len * sizeof(__UNIT_TYPE_DIV), sizeof(__UNIT_TYPE)));
; 1016 :         ReportVar("q_", q_);
; 1017 : #endif
; 1018 :         if (SubtructOneLineX(work_u_buf, u_buf_len, work_v_buf, v_buf_len, q_index, q_))

	push	esi
	push	edi
	push	DWORD PTR _v_buf_len$[ebp]
	push	DWORD PTR _work_v_buf$[ebp]
	push	DWORD PTR _u_buf_len$[ebp]
	push	DWORD PTR _r_buf$[ebp]
	call	_SubtructOneLineX
	add	esp, 24					; 00000018H
	test	eax, eax
	je	SHORT $LN12@DivRem_X_X

; 1019 :         {
; 1020 : #ifdef DO_TRACE
; 1021 :             ReportDump("⇒u", (__UNIT_TYPE*)work_u_buf, _DIVIDE_CEILING_UNIT(u_buf_len * sizeof(__UNIT_TYPE_DIV), sizeof(__UNIT_TYPE)));
; 1022 : #endif
; 1023 :             // 桁借りが発生した場合
; 1024 : 
; 1025 : #ifdef DO_TRACE
; 1026 :             ReportLabel("uの加え戻しとq_の更新");
; 1027 :             ReportDump("u", (__UNIT_TYPE*)work_u_buf, _DIVIDE_CEILING_UNIT(u_buf_len * sizeof(__UNIT_TYPE_DIV), sizeof(__UNIT_TYPE)));
; 1028 : #endif
; 1029 :             --q_;
; 1030 :             AddOneLineX(work_u_buf, u_buf_len, work_v_buf, v_buf_len, q_index);

	push	edi
	push	DWORD PTR _v_buf_len$[ebp]
	dec	esi
	push	DWORD PTR _work_v_buf$[ebp]
	push	DWORD PTR _u_buf_len$[ebp]
	push	DWORD PTR _r_buf$[ebp]
	call	_AddOneLineX
	add	esp, 20					; 00000014H
$LN12@DivRem_X_X:

; 1031 : #ifdef DO_TRACE
; 1032 :             ReportVar("q_", q_);
; 1033 :             ReportDump("⇒u", (__UNIT_TYPE*)work_u_buf, _DIVIDE_CEILING_UNIT(u_buf_len * sizeof(__UNIT_TYPE_DIV), sizeof(__UNIT_TYPE)));
; 1034 : #endif
; 1035 :         }
; 1036 :         else
; 1037 :         {
; 1038 : #ifdef DO_TRACE
; 1039 :             ReportDump("⇒u", (__UNIT_TYPE*)work_u_buf, _DIVIDE_CEILING_UNIT(u_buf_len * sizeof(__UNIT_TYPE_DIV), sizeof(__UNIT_TYPE)));
; 1040 : #endif
; 1041 :         }
; 1042 : 
; 1043 :         q_buf[q_index] = q_;

	mov	eax, DWORD PTR _q_buf$[ebp]
	mov	DWORD PTR [eax+edi*4], esi

; 1044 : 
; 1045 : #ifdef DO_TRACE
; 1046 :         ReportLabel("qの現在値");
; 1047 :         ReportDump("q", (__UNIT_TYPE*)q_buf, _DIVIDE_CEILING_UNIT((u_buf_len - v_buf_len) * sizeof(__UNIT_TYPE_DIV), sizeof(__UNIT_TYPE)));
; 1048 : #endif
; 1049 : 
; 1050 :         if (q_index == 0)

	test	edi, edi
	je	SHORT $LN99@DivRem_X_X

; 1051 :             break;
; 1052 :         --q_index;
; 1053 :     }

	mov	esi, DWORD PTR tv647[ebp]
	dec	edi
	sub	ebx, 4
	jmp	$LL6@DivRem_X_X
$LN99@DivRem_X_X:

; 1054 : 
; 1055 :     if (d_factor > 0)

	mov	eax, DWORD PTR $T1[ebp]
	pop	edi
	pop	esi
	pop	ebx
	test	eax, eax
	je	SHORT $LN15@DivRem_X_X

; 1056 :         RightShift_Imp_DIV(work_u_buf, u_buf_len + 1, d_factor, work_u_buf, FALSE);

	mov	ecx, DWORD PTR _r_buf$[ebp]
	push	0
	push	ecx
	push	eax
	mov	eax, DWORD PTR _u_buf_len$[ebp]
	inc	eax
	push	eax
	push	ecx
	call	_RightShift_Imp_DIV
	add	esp, 20					; 00000014H
$LN15@DivRem_X_X:

; 1057 : 
; 1058 : #ifdef DO_TRACE
; 1059 :     ReportLabel("計算終了");
; 1060 :     ReportDump("q", (__UNIT_TYPE*)q_buf, _DIVIDE_CEILING_UNIT((u_buf_len - v_buf_len) * sizeof(__UNIT_TYPE_DIV), sizeof(__UNIT_TYPE)));
; 1061 :     ReportDump("r", (__UNIT_TYPE*)work_u_buf, _DIVIDE_CEILING_UNIT((u_buf_len + 1) * sizeof(__UNIT_TYPE_DIV), sizeof(__UNIT_TYPE)));
; 1062 : #endif
; 1063 : }

	mov	esp, ebp
	pop	ebp
	ret	0
_DivRem_X_X_using_ADX_MULX ENDP
_TEXT	ENDS
; Function compile flags: /Ogtp
; File z:\sources\lunor\repos\rougemeilland\palmtree.math.core.uint\palmtree.math.core.uint\pmc_divrem.c
; File z:\sources\lunor\repos\rougemeilland\palmtree.math.core.uint\palmtree.math.core.uint\pmc_inline_func.h
; File z:\sources\lunor\repos\rougemeilland\palmtree.math.core.uint\palmtree.math.core.uint\pmc_divrem.c
; File z:\sources\lunor\repos\rougemeilland\palmtree.math.core.uint\palmtree.math.core.uint\pmc_inline_func.h
; File z:\sources\lunor\repos\rougemeilland\palmtree.math.core.uint\palmtree.math.core.uint\pmc_divrem.c
; File z:\sources\lunor\repos\rougemeilland\palmtree.math.core.uint\palmtree.math.core.uint\pmc_inline_func.h
; File z:\sources\lunor\repos\rougemeilland\palmtree.math.core.uint\palmtree.math.core.uint\pmc_divrem.c
; File z:\sources\lunor\repos\rougemeilland\palmtree.math.core.uint\palmtree.math.core.uint\pmc_uint_internal.h
; File z:\sources\lunor\repos\rougemeilland\palmtree.math.core.uint\palmtree.math.core.uint\pmc_inline_func.h
; File z:\sources\lunor\repos\rougemeilland\palmtree.math.core.uint\palmtree.math.core.uint\pmc_divrem.c
; File z:\sources\lunor\repos\rougemeilland\palmtree.math.core.uint\palmtree.math.core.uint\pmc_inline_func.h
; File z:\sources\lunor\repos\rougemeilland\palmtree.math.core.uint\palmtree.math.core.uint\pmc_uint_internal.h
; File z:\sources\lunor\repos\rougemeilland\palmtree.math.core.uint\palmtree.math.core.uint\pmc_inline_func.h
; File z:\sources\lunor\repos\rougemeilland\palmtree.math.core.uint\palmtree.math.core.uint\pmc_uint_internal.h
; File z:\sources\lunor\repos\rougemeilland\palmtree.math.core.uint\palmtree.math.core.uint\pmc_divrem.c
; File z:\sources\lunor\repos\rougemeilland\palmtree.math.core.uint\palmtree.math.core.uint\pmc_inline_func.h
; File z:\sources\lunor\repos\rougemeilland\palmtree.math.core.uint\palmtree.math.core.uint\pmc_divrem.c
; File z:\sources\lunor\repos\rougemeilland\palmtree.math.core.uint\palmtree.math.core.uint\pmc_inline_func.h
; File z:\sources\lunor\repos\rougemeilland\palmtree.math.core.uint\palmtree.math.core.uint\pmc_uint_internal.h
; File z:\sources\lunor\repos\rougemeilland\palmtree.math.core.uint\palmtree.math.core.uint\pmc_inline_func.h
; File z:\sources\lunor\repos\rougemeilland\palmtree.math.core.uint\palmtree.math.core.uint\pmc_uint_internal.h
; File z:\sources\lunor\repos\rougemeilland\palmtree.math.core.uint\palmtree.math.core.uint\pmc_divrem.c
;	COMDAT _DivRem_X_X_using_ADC_MUL
_TEXT	SEGMENT
tv647 = -40						; size = 4
_lh_mi$1$ = -36						; size = 4
_value$1$ = -36						; size = 4
_lh_mi$1$ = -32						; size = 4
_value$1$ = -32						; size = 4
_rh_mi$1$ = -28						; size = 4
tv646 = -24						; size = 4
$T1 = -20						; size = 4
tv643 = -16						; size = 4
_rh_mi$1$ = -12						; size = 4
_v1$1$ = -8						; size = 4
_v2$1$ = -4						; size = 4
_u_buf$ = 8						; size = 4
_u_buf_len$ = 12					; size = 4
_rh_hi$1$ = 16						; size = 4
_v_buf$ = 16						; size = 4
_v_buf_len$ = 20					; size = 4
_work_v_buf$ = 24					; size = 4
_q_buf$ = 28						; size = 4
_r_buf$ = 32						; size = 4
_DivRem_X_X_using_ADC_MUL PROC				; COMDAT

; 909  : {

	push	ebp
	mov	ebp, esp
	sub	esp, 40					; 00000028H
	push	ebx

; 910  :     // u および v の最上位ワードは 0 でありうることに注意すること。
; 911  :     if (sizeof(__UNIT_TYPE) != sizeof(__UNIT_TYPE_DIV))
; 912  :     {
; 913  :         while (u_buf[u_buf_len - 1] == 0)
; 914  :             --u_buf_len;
; 915  :         while (v_buf[v_buf_len - 1] == 0)
; 916  :             --v_buf_len;
; 917  :     }
; 918  : 
; 919  : #ifdef _DEBUG
; 920  :     if (v_buf[v_buf_len - 1] == 0)
; 921  :     {
; 922  :         ; // このルートには到達しないはず。デバッグ用。
; 923  :     }
; 924  : #endif
; 925  : 
; 926  :     __UNIT_TYPE_DIV d_factor = _LZCNT_ALT_UNIT_DIV(v_buf[v_buf_len - 1]);

	mov	ebx, DWORD PTR _v_buf_len$[ebp]
	push	esi
	mov	esi, DWORD PTR _v_buf$[ebp]
	push	edi
	mov	eax, DWORD PTR [esi+ebx*4-4]
; File z:\sources\lunor\repos\rougemeilland\palmtree.math.core.uint\palmtree.math.core.uint\pmc_inline_func.h

; 653  :         if (x == 0)

	test	eax, eax
	jne	SHORT $LN17@DivRem_X_X

; 654  :             return (sizeof(x) * 8);

	mov	edi, 32					; 00000020H
	mov	DWORD PTR $T1[ebp], edi
$LN10@DivRem_X_X:
; File z:\sources\lunor\repos\rougemeilland\palmtree.math.core.uint\palmtree.math.core.uint\pmc_divrem.c

; 935  :         LeftShift_Imp_DIV(u_buf, u_buf_len, d_factor, r_buf, FALSE);

	push	0
	push	DWORD PTR _r_buf$[ebp]
	push	edi
	push	DWORD PTR _u_buf_len$[ebp]
	push	DWORD PTR _u_buf$[ebp]
	call	_LeftShift_Imp_DIV

; 936  :         LeftShift_Imp_DIV(v_buf, v_buf_len, d_factor, work_v_buf, FALSE);

	push	0
	push	DWORD PTR _work_v_buf$[ebp]
	push	edi
	push	ebx
	push	esi
	call	_LeftShift_Imp_DIV
	mov	eax, DWORD PTR _r_buf$[ebp]
	add	esp, 40					; 00000028H
	mov	edx, DWORD PTR _u_buf_len$[ebp]
$LN11@DivRem_X_X:

; 937  :     }
; 938  : 
; 939  :     __UNIT_TYPE_DIV* work_u_buf = r_buf;
; 940  :     __UNIT_TYPE q_index = u_buf_len - v_buf_len;

	mov	ecx, DWORD PTR _work_v_buf$[ebp]
	lea	esi, DWORD PTR [ebx-1]
	mov	edi, edx
	sub	edi, ebx
	lea	esi, DWORD PTR [ecx+esi*4]
	lea	ecx, DWORD PTR [ecx+ebx*4]
	mov	DWORD PTR tv647[ebp], esi
	add	ecx, -8					; fffffff8H
	lea	ebx, DWORD PTR [edx-2]
	mov	DWORD PTR tv646[ebp], ecx
	lea	ebx, DWORD PTR [eax+ebx*4]
$LL6@DivRem_X_X:

; 345  :     __UNIT_TYPE_DIV uj_2 = u_buf[u_index - 2];

	mov	ecx, DWORD PTR [ebx]
	mov	eax, DWORD PTR [ebx+8]

; 346  :     __UNIT_TYPE_DIV v1 = v_buf[v_buf_len - 1];

	mov	esi, DWORD PTR [esi]
	mov	edx, DWORD PTR [ebx+4]
	mov	DWORD PTR tv643[ebp], ecx

; 347  :     __UNIT_TYPE_DIV v2 = v_buf[v_buf_len - 2];

	mov	ecx, DWORD PTR tv646[ebp]
	mov	DWORD PTR _rh_hi$1$[ebp], eax
	mov	DWORD PTR _rh_mi$1$[ebp], edx
	mov	DWORD PTR _v1$1$[ebp], esi
	mov	ecx, DWORD PTR [ecx]
	mov	DWORD PTR _v2$1$[ebp], ecx

; 243  :     if (uj == v1)

	cmp	eax, esi
	jne	SHORT $LN28@DivRem_X_X

; 244  :         return (-1);

	or	esi, -1
	jmp	SHORT $LN27@DivRem_X_X
$LN17@DivRem_X_X:
; File z:\sources\lunor\repos\rougemeilland\palmtree.math.core.uint\palmtree.math.core.uint\pmc_inline_func.h

; 658  :         _BitScanReverse(&pos, x);

	bsr	eax, eax

; 659  : #elif defined(__GNUC__)
; 660  :         __asm__("bsrl %1, %0" : "=r"(pos) : "rm"(x));
; 661  : #else
; 662  : #error unknown compiler
; 663  : #endif
; 664  : #elif defined(_M_X64)
; 665  : #ifdef _MSC_VER
; 666  :         _UINT32_T pos;
; 667  :         _BitScanReverse(&pos, x);
; 668  : #elif defined(__GNUC__)
; 669  :         _UINT64_T pos;
; 670  :         __asm__("bsrq %1, %0" : "=r"(pos) : "rm"(x));
; 671  : #else
; 672  : #error unknown compiler
; 673  : #endif
; 674  : #else
; 675  : #error unknown platform
; 676  : #endif
; 677  :         return (sizeof(x) * 8 - 1 - pos);

	mov	edi, 31					; 0000001fH
	sub	edi, eax
	mov	DWORD PTR $T1[ebp], edi
; File z:\sources\lunor\repos\rougemeilland\palmtree.math.core.uint\palmtree.math.core.uint\pmc_divrem.c

; 927  :     if (d_factor == 0)

	jne	SHORT $LN10@DivRem_X_X
; File z:\sources\lunor\repos\rougemeilland\palmtree.math.core.uint\palmtree.math.core.uint\pmc_inline_func.h

; 73   :         __movsd((unsigned long *)d, (unsigned long *)s, (unsigned long)count);

	mov	eax, DWORD PTR _r_buf$[ebp]
	mov	edi, eax
	mov	edx, DWORD PTR _u_buf_len$[ebp]
	mov	ecx, edx
	mov	esi, DWORD PTR _u_buf$[ebp]
	rep movsd
	mov	edi, DWORD PTR _work_v_buf$[ebp]
	mov	ecx, ebx
	mov	esi, DWORD PTR _v_buf$[ebp]
	rep movsd
; File z:\sources\lunor\repos\rougemeilland\palmtree.math.core.uint\palmtree.math.core.uint\pmc_divrem.c

; 931  :         r_buf[u_buf_len] = 0;

	mov	DWORD PTR [eax+edx*4], 0

; 932  :     }

	jmp	SHORT $LN11@DivRem_X_X
$LN28@DivRem_X_X:
; File z:\sources\lunor\repos\rougemeilland\palmtree.math.core.uint\palmtree.math.core.uint\pmc_uint_internal.h

; 313  :         _InterlockedIncrement(&statistics_info.COUNT_DIV32);

	lock	 inc	 (null) PTR _statistics_info+12
; File z:\sources\lunor\repos\rougemeilland\palmtree.math.core.uint\palmtree.math.core.uint\pmc_inline_func.h

; 385  :             return ((_UINT32_T)(t / v));

	push	0
	push	esi

; 172  :         return (((_UINT64_T)value_high << 32) | value_low);

	xor	ecx, ecx
	or	ecx, edx

; 385  :             return ((_UINT32_T)(t / v));

	push	eax
	push	ecx
	call	__aulldiv
	mov	ecx, DWORD PTR _v2$1$[ebp]
; File z:\sources\lunor\repos\rougemeilland\palmtree.math.core.uint\palmtree.math.core.uint\pmc_divrem.c

; 253  :     return (q);

	mov	esi, eax
$LN27@DivRem_X_X:
; File z:\sources\lunor\repos\rougemeilland\palmtree.math.core.uint\palmtree.math.core.uint\pmc_inline_func.h

; 312  :         return (_FROMDWORDTOWORD((_UINT64_T)u * v, w_hi));

	mov	eax, esi
	mul	ecx

; 276  :         return (_subborrow_u32(borrow, u, v, w));

	mov	ecx, DWORD PTR _rh_mi$1$[ebp]

; 312  :         return (_FROMDWORDTOWORD((_UINT64_T)u * v, w_hi));

	mov	DWORD PTR _value$1$[ebp], eax
	mov	eax, esi
	mov	DWORD PTR _lh_mi$1$[ebp], edx
	mul	DWORD PTR _v1$1$[ebp]

; 276  :         return (_subborrow_u32(borrow, u, v, w));

	sub	ecx, eax
; File z:\sources\lunor\repos\rougemeilland\palmtree.math.core.uint\palmtree.math.core.uint\pmc_uint_internal.h

; 348  :         _InterlockedExchangeAdd(&statistics_info.COUNT_MULTI32, value);

	mov	eax, 2
; File z:\sources\lunor\repos\rougemeilland\palmtree.math.core.uint\palmtree.math.core.uint\pmc_inline_func.h

; 276  :         return (_subborrow_u32(borrow, u, v, w));

	mov	DWORD PTR _rh_mi$1$[ebp], ecx
	mov	ecx, DWORD PTR _rh_hi$1$[ebp]
	sbb	ecx, edx
; File z:\sources\lunor\repos\rougemeilland\palmtree.math.core.uint\palmtree.math.core.uint\pmc_uint_internal.h

; 348  :         _InterlockedExchangeAdd(&statistics_info.COUNT_MULTI32, value);

	mov	edx, OFFSET _statistics_info+4
	lock	 xadd	 DWORD PTR [edx], eax
; File z:\sources\lunor\repos\rougemeilland\palmtree.math.core.uint\palmtree.math.core.uint\pmc_divrem.c

; 273  :     if (rh_hi > 0)

	test	ecx, ecx
	jne	SHORT $LN101@DivRem_X_X

; 274  :         return (FALSE);
; 275  :     else if (lh_mi > rh_mi)

	mov	eax, DWORD PTR _rh_mi$1$[ebp]
	cmp	DWORD PTR _lh_mi$1$[ebp], eax
	ja	SHORT $LN24@DivRem_X_X

; 276  :         return (TRUE);
; 277  :     else if (lh_mi < rh_mi)

	jb	SHORT $LN101@DivRem_X_X

; 349  :     if (!CheckQ_(q_, uj, uj_1, uj_2, v1, v2))

	mov	eax, DWORD PTR _value$1$[ebp]
	cmp	eax, DWORD PTR tv643[ebp]
	jbe	SHORT $LN101@DivRem_X_X
$LN24@DivRem_X_X:
; File z:\sources\lunor\repos\rougemeilland\palmtree.math.core.uint\palmtree.math.core.uint\pmc_inline_func.h

; 276  :         return (_subborrow_u32(borrow, u, v, w));

	mov	ecx, DWORD PTR _rh_mi$1$[ebp]
; File z:\sources\lunor\repos\rougemeilland\palmtree.math.core.uint\palmtree.math.core.uint\pmc_divrem.c

; 351  :     --q_;

	dec	esi
; File z:\sources\lunor\repos\rougemeilland\palmtree.math.core.uint\palmtree.math.core.uint\pmc_inline_func.h

; 312  :         return (_FROMDWORDTOWORD((_UINT64_T)u * v, w_hi));

	mov	eax, esi
	mul	DWORD PTR _v2$1$[ebp]
	mov	DWORD PTR _value$1$[ebp], eax
	mov	eax, esi
	mov	DWORD PTR _lh_mi$1$[ebp], edx
	mul	DWORD PTR _v1$1$[ebp]

; 276  :         return (_subborrow_u32(borrow, u, v, w));

	sub	ecx, eax
; File z:\sources\lunor\repos\rougemeilland\palmtree.math.core.uint\palmtree.math.core.uint\pmc_uint_internal.h

; 348  :         _InterlockedExchangeAdd(&statistics_info.COUNT_MULTI32, value);

	mov	eax, 2
; File z:\sources\lunor\repos\rougemeilland\palmtree.math.core.uint\palmtree.math.core.uint\pmc_inline_func.h

; 276  :         return (_subborrow_u32(borrow, u, v, w));

	sbb	DWORD PTR _rh_hi$1$[ebp], edx
; File z:\sources\lunor\repos\rougemeilland\palmtree.math.core.uint\palmtree.math.core.uint\pmc_uint_internal.h

; 348  :         _InterlockedExchangeAdd(&statistics_info.COUNT_MULTI32, value);

	mov	edx, OFFSET _statistics_info+4
	lock	 xadd	 DWORD PTR [edx], eax
; File z:\sources\lunor\repos\rougemeilland\palmtree.math.core.uint\palmtree.math.core.uint\pmc_divrem.c

; 273  :     if (rh_hi > 0)

	cmp	DWORD PTR _rh_hi$1$[ebp], 0
	ja	SHORT $LN101@DivRem_X_X

; 274  :         return (FALSE);
; 275  :     else if (lh_mi > rh_mi)

	cmp	DWORD PTR _lh_mi$1$[ebp], ecx
	ja	SHORT $LN25@DivRem_X_X

; 276  :         return (TRUE);
; 277  :     else if (lh_mi < rh_mi)

	jb	SHORT $LN101@DivRem_X_X

; 352  :     if (!CheckQ_(q_, uj, uj_1, uj_2, v1, v2))

	mov	eax, DWORD PTR _value$1$[ebp]
	cmp	eax, DWORD PTR tv643[ebp]
	jbe	SHORT $LN101@DivRem_X_X
$LN25@DivRem_X_X:

; 353  :         return (q_);
; 354  :     --q_;

	dec	esi
$LN101@DivRem_X_X:

; 941  : 
; 942  :     for (;;)
; 943  :     {
; 944  :         __UNIT_TYPE_DIV q_ = CalculateQ_(work_u_buf, work_v_buf, v_buf_len, q_index);
; 945  : 
; 946  : 
; 947  :         if (SubtructOneLine(work_u_buf, u_buf_len, work_v_buf, v_buf_len, q_index, q_))

	push	esi
	push	edi
	push	DWORD PTR _v_buf_len$[ebp]
	push	DWORD PTR _work_v_buf$[ebp]
	push	DWORD PTR _u_buf_len$[ebp]
	push	DWORD PTR _r_buf$[ebp]
	call	_SubtructOneLine
	add	esp, 24					; 00000018H
	test	eax, eax
	je	SHORT $LN12@DivRem_X_X

; 948  :         {
; 949  :             // 桁借りが発生した場合
; 950  :             --q_;
; 951  :             AddOneLine(work_u_buf, u_buf_len, work_v_buf, v_buf_len, q_index);

	push	edi
	push	DWORD PTR _v_buf_len$[ebp]
	dec	esi
	push	DWORD PTR _work_v_buf$[ebp]
	push	DWORD PTR _u_buf_len$[ebp]
	push	DWORD PTR _r_buf$[ebp]
	call	_AddOneLine
	add	esp, 20					; 00000014H
$LN12@DivRem_X_X:

; 952  :         }
; 953  : 
; 954  :         q_buf[q_index] = q_;

	mov	eax, DWORD PTR _q_buf$[ebp]
	mov	DWORD PTR [eax+edi*4], esi

; 955  :         if (q_index == 0)

	test	edi, edi
	je	SHORT $LN98@DivRem_X_X

; 956  :             break;
; 957  :         --q_index;
; 958  :     }

	mov	esi, DWORD PTR tv647[ebp]
	dec	edi
	sub	ebx, 4
	jmp	$LL6@DivRem_X_X
$LN98@DivRem_X_X:

; 959  : 
; 960  :     if (d_factor > 0)

	mov	eax, DWORD PTR $T1[ebp]
	pop	edi
	pop	esi
	pop	ebx
	test	eax, eax
	je	SHORT $LN14@DivRem_X_X

; 961  :         RightShift_Imp_DIV(work_u_buf, u_buf_len + 1, d_factor, work_u_buf, FALSE);

	mov	ecx, DWORD PTR _r_buf$[ebp]
	push	0
	push	ecx
	push	eax
	mov	eax, DWORD PTR _u_buf_len$[ebp]
	inc	eax
	push	eax
	push	ecx
	call	_RightShift_Imp_DIV
	add	esp, 20					; 00000014H
$LN14@DivRem_X_X:

; 962  : }

	mov	esp, ebp
	pop	ebp
	ret	0
_DivRem_X_X_using_ADC_MUL ENDP
_TEXT	ENDS
; Function compile flags: /Ogtp
; File z:\sources\lunor\repos\rougemeilland\palmtree.math.core.uint\palmtree.math.core.uint\pmc_divrem.c
; File z:\sources\lunor\repos\rougemeilland\palmtree.math.core.uint\palmtree.math.core.uint\autogenerated_inline_func.h
; File z:\sources\lunor\repos\rougemeilland\palmtree.math.core.uint\palmtree.math.core.uint\pmc_inline_func.h
; File z:\sources\lunor\repos\rougemeilland\palmtree.math.core.uint\palmtree.math.core.uint\autogenerated_inline_func.h
; File z:\sources\lunor\repos\rougemeilland\palmtree.math.core.uint\palmtree.math.core.uint\pmc_inline_func.h
; File z:\sources\lunor\repos\rougemeilland\palmtree.math.core.uint\palmtree.math.core.uint\autogenerated_inline_func.h
; File z:\sources\lunor\repos\rougemeilland\palmtree.math.core.uint\palmtree.math.core.uint\pmc_inline_func.h
; File z:\sources\lunor\repos\rougemeilland\palmtree.math.core.uint\palmtree.math.core.uint\autogenerated_inline_func.h
; File z:\sources\lunor\repos\rougemeilland\palmtree.math.core.uint\palmtree.math.core.uint\pmc_inline_func.h
; File z:\sources\lunor\repos\rougemeilland\palmtree.math.core.uint\palmtree.math.core.uint\autogenerated_inline_func.h
; File z:\sources\lunor\repos\rougemeilland\palmtree.math.core.uint\palmtree.math.core.uint\pmc_inline_func.h
; File z:\sources\lunor\repos\rougemeilland\palmtree.math.core.uint\palmtree.math.core.uint\autogenerated_inline_func.h
; File z:\sources\lunor\repos\rougemeilland\palmtree.math.core.uint\palmtree.math.core.uint\pmc_inline_func.h
; File z:\sources\lunor\repos\rougemeilland\palmtree.math.core.uint\palmtree.math.core.uint\autogenerated_inline_func.h
; File z:\sources\lunor\repos\rougemeilland\palmtree.math.core.uint\palmtree.math.core.uint\pmc_inline_func.h
; File z:\sources\lunor\repos\rougemeilland\palmtree.math.core.uint\palmtree.math.core.uint\autogenerated_inline_func.h
; File z:\sources\lunor\repos\rougemeilland\palmtree.math.core.uint\palmtree.math.core.uint\pmc_inline_func.h
; File z:\sources\lunor\repos\rougemeilland\palmtree.math.core.uint\palmtree.math.core.uint\autogenerated_inline_func.h
; File z:\sources\lunor\repos\rougemeilland\palmtree.math.core.uint\palmtree.math.core.uint\pmc_inline_func.h
; File z:\sources\lunor\repos\rougemeilland\palmtree.math.core.uint\palmtree.math.core.uint\autogenerated_inline_func.h
; File z:\sources\lunor\repos\rougemeilland\palmtree.math.core.uint\palmtree.math.core.uint\pmc_inline_func.h
; File z:\sources\lunor\repos\rougemeilland\palmtree.math.core.uint\palmtree.math.core.uint\autogenerated_inline_func.h
; File z:\sources\lunor\repos\rougemeilland\palmtree.math.core.uint\palmtree.math.core.uint\pmc_inline_func.h
; File z:\sources\lunor\repos\rougemeilland\palmtree.math.core.uint\palmtree.math.core.uint\autogenerated_inline_func.h
; File z:\sources\lunor\repos\rougemeilland\palmtree.math.core.uint\palmtree.math.core.uint\pmc_inline_func.h
; File z:\sources\lunor\repos\rougemeilland\palmtree.math.core.uint\palmtree.math.core.uint\autogenerated_inline_func.h
; File z:\sources\lunor\repos\rougemeilland\palmtree.math.core.uint\palmtree.math.core.uint\pmc_inline_func.h
; File z:\sources\lunor\repos\rougemeilland\palmtree.math.core.uint\palmtree.math.core.uint\autogenerated_inline_func.h
; File z:\sources\lunor\repos\rougemeilland\palmtree.math.core.uint\palmtree.math.core.uint\pmc_inline_func.h
; File z:\sources\lunor\repos\rougemeilland\palmtree.math.core.uint\palmtree.math.core.uint\autogenerated_inline_func.h
; File z:\sources\lunor\repos\rougemeilland\palmtree.math.core.uint\palmtree.math.core.uint\pmc_inline_func.h
; File z:\sources\lunor\repos\rougemeilland\palmtree.math.core.uint\palmtree.math.core.uint\autogenerated_inline_func.h
; File z:\sources\lunor\repos\rougemeilland\palmtree.math.core.uint\palmtree.math.core.uint\pmc_inline_func.h
; File z:\sources\lunor\repos\rougemeilland\palmtree.math.core.uint\palmtree.math.core.uint\autogenerated_inline_func.h
; File z:\sources\lunor\repos\rougemeilland\palmtree.math.core.uint\palmtree.math.core.uint\pmc_inline_func.h
; File z:\sources\lunor\repos\rougemeilland\palmtree.math.core.uint\palmtree.math.core.uint\autogenerated_inline_func.h
; File z:\sources\lunor\repos\rougemeilland\palmtree.math.core.uint\palmtree.math.core.uint\pmc_inline_func.h
; File z:\sources\lunor\repos\rougemeilland\palmtree.math.core.uint\palmtree.math.core.uint\autogenerated_inline_func.h
; File z:\sources\lunor\repos\rougemeilland\palmtree.math.core.uint\palmtree.math.core.uint\pmc_inline_func.h
; File z:\sources\lunor\repos\rougemeilland\palmtree.math.core.uint\palmtree.math.core.uint\autogenerated_inline_func.h
; File z:\sources\lunor\repos\rougemeilland\palmtree.math.core.uint\palmtree.math.core.uint\pmc_inline_func.h
; File z:\sources\lunor\repos\rougemeilland\palmtree.math.core.uint\palmtree.math.core.uint\autogenerated_inline_func.h
; File z:\sources\lunor\repos\rougemeilland\palmtree.math.core.uint\palmtree.math.core.uint\pmc_inline_func.h
; File z:\sources\lunor\repos\rougemeilland\palmtree.math.core.uint\palmtree.math.core.uint\autogenerated_inline_func.h
; File z:\sources\lunor\repos\rougemeilland\palmtree.math.core.uint\palmtree.math.core.uint\pmc_inline_func.h
; File z:\sources\lunor\repos\rougemeilland\palmtree.math.core.uint\palmtree.math.core.uint\autogenerated_inline_func.h
; File z:\sources\lunor\repos\rougemeilland\palmtree.math.core.uint\palmtree.math.core.uint\pmc_inline_func.h
; File z:\sources\lunor\repos\rougemeilland\palmtree.math.core.uint\palmtree.math.core.uint\autogenerated_inline_func.h
; File z:\sources\lunor\repos\rougemeilland\palmtree.math.core.uint\palmtree.math.core.uint\pmc_inline_func.h
; File z:\sources\lunor\repos\rougemeilland\palmtree.math.core.uint\palmtree.math.core.uint\autogenerated_inline_func.h
; File z:\sources\lunor\repos\rougemeilland\palmtree.math.core.uint\palmtree.math.core.uint\pmc_inline_func.h
; File z:\sources\lunor\repos\rougemeilland\palmtree.math.core.uint\palmtree.math.core.uint\autogenerated_inline_func.h
; File z:\sources\lunor\repos\rougemeilland\palmtree.math.core.uint\palmtree.math.core.uint\pmc_inline_func.h
; File z:\sources\lunor\repos\rougemeilland\palmtree.math.core.uint\palmtree.math.core.uint\autogenerated_inline_func.h
; File z:\sources\lunor\repos\rougemeilland\palmtree.math.core.uint\palmtree.math.core.uint\pmc_inline_func.h
; File z:\sources\lunor\repos\rougemeilland\palmtree.math.core.uint\palmtree.math.core.uint\autogenerated_inline_func.h
; File z:\sources\lunor\repos\rougemeilland\palmtree.math.core.uint\palmtree.math.core.uint\pmc_inline_func.h
; File z:\sources\lunor\repos\rougemeilland\palmtree.math.core.uint\palmtree.math.core.uint\autogenerated_inline_func.h
; File z:\sources\lunor\repos\rougemeilland\palmtree.math.core.uint\palmtree.math.core.uint\pmc_inline_func.h
; File z:\sources\lunor\repos\rougemeilland\palmtree.math.core.uint\palmtree.math.core.uint\autogenerated_inline_func.h
; File z:\sources\lunor\repos\rougemeilland\palmtree.math.core.uint\palmtree.math.core.uint\pmc_inline_func.h
; File z:\sources\lunor\repos\rougemeilland\palmtree.math.core.uint\palmtree.math.core.uint\autogenerated_inline_func.h
; File z:\sources\lunor\repos\rougemeilland\palmtree.math.core.uint\palmtree.math.core.uint\pmc_inline_func.h
; File z:\sources\lunor\repos\rougemeilland\palmtree.math.core.uint\palmtree.math.core.uint\autogenerated_inline_func.h
; File z:\sources\lunor\repos\rougemeilland\palmtree.math.core.uint\palmtree.math.core.uint\pmc_inline_func.h
; File z:\sources\lunor\repos\rougemeilland\palmtree.math.core.uint\palmtree.math.core.uint\pmc_divrem.c
; File z:\sources\lunor\repos\rougemeilland\palmtree.math.core.uint\palmtree.math.core.uint\autogenerated_inline_func.h
; File z:\sources\lunor\repos\rougemeilland\palmtree.math.core.uint\palmtree.math.core.uint\pmc_inline_func.h
; File z:\sources\lunor\repos\rougemeilland\palmtree.math.core.uint\palmtree.math.core.uint\autogenerated_inline_func.h
; File z:\sources\lunor\repos\rougemeilland\palmtree.math.core.uint\palmtree.math.core.uint\pmc_inline_func.h
; File z:\sources\lunor\repos\rougemeilland\palmtree.math.core.uint\palmtree.math.core.uint\autogenerated_inline_func.h
; File z:\sources\lunor\repos\rougemeilland\palmtree.math.core.uint\palmtree.math.core.uint\pmc_inline_func.h
; File z:\sources\lunor\repos\rougemeilland\palmtree.math.core.uint\palmtree.math.core.uint\autogenerated_inline_func.h
; File z:\sources\lunor\repos\rougemeilland\palmtree.math.core.uint\palmtree.math.core.uint\pmc_inline_func.h
; File z:\sources\lunor\repos\rougemeilland\palmtree.math.core.uint\palmtree.math.core.uint\autogenerated_inline_func.h
; File z:\sources\lunor\repos\rougemeilland\palmtree.math.core.uint\palmtree.math.core.uint\pmc_inline_func.h
; File z:\sources\lunor\repos\rougemeilland\palmtree.math.core.uint\palmtree.math.core.uint\autogenerated_inline_func.h
; File z:\sources\lunor\repos\rougemeilland\palmtree.math.core.uint\palmtree.math.core.uint\pmc_inline_func.h
; File z:\sources\lunor\repos\rougemeilland\palmtree.math.core.uint\palmtree.math.core.uint\autogenerated_inline_func.h
; File z:\sources\lunor\repos\rougemeilland\palmtree.math.core.uint\palmtree.math.core.uint\pmc_inline_func.h
; File z:\sources\lunor\repos\rougemeilland\palmtree.math.core.uint\palmtree.math.core.uint\autogenerated_inline_func.h
; File z:\sources\lunor\repos\rougemeilland\palmtree.math.core.uint\palmtree.math.core.uint\pmc_inline_func.h
; File z:\sources\lunor\repos\rougemeilland\palmtree.math.core.uint\palmtree.math.core.uint\pmc_divrem.c
; File z:\sources\lunor\repos\rougemeilland\palmtree.math.core.uint\palmtree.math.core.uint\autogenerated_inline_func.h
; File z:\sources\lunor\repos\rougemeilland\palmtree.math.core.uint\palmtree.math.core.uint\pmc_inline_func.h
; File z:\sources\lunor\repos\rougemeilland\palmtree.math.core.uint\palmtree.math.core.uint\autogenerated_inline_func.h
; File z:\sources\lunor\repos\rougemeilland\palmtree.math.core.uint\palmtree.math.core.uint\pmc_inline_func.h
; File z:\sources\lunor\repos\rougemeilland\palmtree.math.core.uint\palmtree.math.core.uint\autogenerated_inline_func.h
; File z:\sources\lunor\repos\rougemeilland\palmtree.math.core.uint\palmtree.math.core.uint\pmc_inline_func.h
; File z:\sources\lunor\repos\rougemeilland\palmtree.math.core.uint\palmtree.math.core.uint\autogenerated_inline_func.h
; File z:\sources\lunor\repos\rougemeilland\palmtree.math.core.uint\palmtree.math.core.uint\pmc_inline_func.h
; File z:\sources\lunor\repos\rougemeilland\palmtree.math.core.uint\palmtree.math.core.uint\pmc_divrem.c
; File z:\sources\lunor\repos\rougemeilland\palmtree.math.core.uint\palmtree.math.core.uint\autogenerated_inline_func.h
; File z:\sources\lunor\repos\rougemeilland\palmtree.math.core.uint\palmtree.math.core.uint\pmc_inline_func.h
; File z:\sources\lunor\repos\rougemeilland\palmtree.math.core.uint\palmtree.math.core.uint\autogenerated_inline_func.h
; File z:\sources\lunor\repos\rougemeilland\palmtree.math.core.uint\palmtree.math.core.uint\pmc_inline_func.h
; File z:\sources\lunor\repos\rougemeilland\palmtree.math.core.uint\palmtree.math.core.uint\pmc_divrem.c
; File z:\sources\lunor\repos\rougemeilland\palmtree.math.core.uint\palmtree.math.core.uint\pmc_inline_func.h
; File z:\sources\lunor\repos\rougemeilland\palmtree.math.core.uint\palmtree.math.core.uint\pmc_divrem.c
; File z:\sources\lunor\repos\rougemeilland\palmtree.math.core.uint\palmtree.math.core.uint\pmc_inline_func.h
; File z:\sources\lunor\repos\rougemeilland\palmtree.math.core.uint\palmtree.math.core.uint\pmc_divrem.c
;	COMDAT _AddOneLineX
_TEXT	SEGMENT
_u_buf$ = 8						; size = 4
_u_buf_len$ = 12					; size = 4
_v_buf$ = 16						; size = 4
_v_buf_len$ = 20					; size = 4
_c$ = 24						; size = 1
_q_index$ = 24						; size = 4
_AddOneLineX PROC					; COMDAT

; 843  : {

	push	ebp
	mov	ebp, esp

; 844  :     __UNIT_TYPE_DIV* u_ptr = &u_buf[q_index];

	mov	eax, DWORD PTR _q_index$[ebp]

; 845  :     __UNIT_TYPE_DIV* v_ptr = &v_buf[0];
; 846  :     __UNIT_TYPE v_count = v_buf_len;
; 847  :     char c = 0;

	xor	dl, dl
	mov	ecx, DWORD PTR _u_buf$[ebp]
	push	ebx

; 848  : 
; 849  :     // まず 32 ワードずつ加算をする。
; 850  :     __UNIT_TYPE count = v_count >> 5;

	mov	ebx, DWORD PTR _v_buf_len$[ebp]
	push	esi
	lea	esi, DWORD PTR [ecx+eax*4]
	mov	BYTE PTR _c$[ebp], dl
	mov	ecx, ebx
	shr	ecx, 5
	push	edi
	mov	edi, DWORD PTR _v_buf$[ebp]

; 851  :     while (count != 0)

	test	ecx, ecx
	je	$LN3@AddOneLine
	npad	9
$LL2@AddOneLine:
; File z:\sources\lunor\repos\rougemeilland\palmtree.math.core.uint\palmtree.math.core.uint\autogenerated_inline_func.h

; 1307 :     c = _ADDX_UNIT_DIV(c, xp[0], yp[0], &zp[0]);

	mov	eax, DWORD PTR [esi]
; File z:\sources\lunor\repos\rougemeilland\palmtree.math.core.uint\palmtree.math.core.uint\pmc_inline_func.h

; 248  :         return (_addcarryx_u32(carry, u, v, w));

	add	dl, 255					; 000000ffH
	adcx	eax, DWORD PTR [edi]
	mov	DWORD PTR [esi], eax
; File z:\sources\lunor\repos\rougemeilland\palmtree.math.core.uint\palmtree.math.core.uint\autogenerated_inline_func.h

; 1308 :     c = _ADDX_UNIT_DIV(c, xp[1], yp[1], &zp[1]);

	mov	eax, DWORD PTR [esi+4]
; File z:\sources\lunor\repos\rougemeilland\palmtree.math.core.uint\palmtree.math.core.uint\pmc_inline_func.h

; 248  :         return (_addcarryx_u32(carry, u, v, w));

	adcx	eax, DWORD PTR [edi+4]
	mov	DWORD PTR [esi+4], eax
; File z:\sources\lunor\repos\rougemeilland\palmtree.math.core.uint\palmtree.math.core.uint\autogenerated_inline_func.h

; 1309 :     c = _ADDX_UNIT_DIV(c, xp[2], yp[2], &zp[2]);

	mov	eax, DWORD PTR [esi+8]
; File z:\sources\lunor\repos\rougemeilland\palmtree.math.core.uint\palmtree.math.core.uint\pmc_inline_func.h

; 248  :         return (_addcarryx_u32(carry, u, v, w));

	adcx	eax, DWORD PTR [edi+8]
	mov	DWORD PTR [esi+8], eax
; File z:\sources\lunor\repos\rougemeilland\palmtree.math.core.uint\palmtree.math.core.uint\autogenerated_inline_func.h

; 1310 :     c = _ADDX_UNIT_DIV(c, xp[3], yp[3], &zp[3]);

	mov	eax, DWORD PTR [esi+12]
; File z:\sources\lunor\repos\rougemeilland\palmtree.math.core.uint\palmtree.math.core.uint\pmc_inline_func.h

; 248  :         return (_addcarryx_u32(carry, u, v, w));

	adcx	eax, DWORD PTR [edi+12]
	mov	DWORD PTR [esi+12], eax
; File z:\sources\lunor\repos\rougemeilland\palmtree.math.core.uint\palmtree.math.core.uint\autogenerated_inline_func.h

; 1311 :     c = _ADDX_UNIT_DIV(c, xp[4], yp[4], &zp[4]);

	mov	eax, DWORD PTR [esi+16]
; File z:\sources\lunor\repos\rougemeilland\palmtree.math.core.uint\palmtree.math.core.uint\pmc_inline_func.h

; 248  :         return (_addcarryx_u32(carry, u, v, w));

	adcx	eax, DWORD PTR [edi+16]
	mov	DWORD PTR [esi+16], eax
; File z:\sources\lunor\repos\rougemeilland\palmtree.math.core.uint\palmtree.math.core.uint\autogenerated_inline_func.h

; 1312 :     c = _ADDX_UNIT_DIV(c, xp[5], yp[5], &zp[5]);

	mov	eax, DWORD PTR [esi+20]
; File z:\sources\lunor\repos\rougemeilland\palmtree.math.core.uint\palmtree.math.core.uint\pmc_inline_func.h

; 248  :         return (_addcarryx_u32(carry, u, v, w));

	adcx	eax, DWORD PTR [edi+20]
	mov	DWORD PTR [esi+20], eax
; File z:\sources\lunor\repos\rougemeilland\palmtree.math.core.uint\palmtree.math.core.uint\autogenerated_inline_func.h

; 1313 :     c = _ADDX_UNIT_DIV(c, xp[6], yp[6], &zp[6]);

	mov	eax, DWORD PTR [esi+24]
; File z:\sources\lunor\repos\rougemeilland\palmtree.math.core.uint\palmtree.math.core.uint\pmc_inline_func.h

; 248  :         return (_addcarryx_u32(carry, u, v, w));

	adcx	eax, DWORD PTR [edi+24]
	mov	DWORD PTR [esi+24], eax
; File z:\sources\lunor\repos\rougemeilland\palmtree.math.core.uint\palmtree.math.core.uint\autogenerated_inline_func.h

; 1314 :     c = _ADDX_UNIT_DIV(c, xp[7], yp[7], &zp[7]);

	mov	eax, DWORD PTR [esi+28]
; File z:\sources\lunor\repos\rougemeilland\palmtree.math.core.uint\palmtree.math.core.uint\pmc_inline_func.h

; 248  :         return (_addcarryx_u32(carry, u, v, w));

	adcx	eax, DWORD PTR [edi+28]
	mov	DWORD PTR [esi+28], eax
; File z:\sources\lunor\repos\rougemeilland\palmtree.math.core.uint\palmtree.math.core.uint\autogenerated_inline_func.h

; 1315 :     c = _ADDX_UNIT_DIV(c, xp[8], yp[8], &zp[8]);

	mov	eax, DWORD PTR [esi+32]
; File z:\sources\lunor\repos\rougemeilland\palmtree.math.core.uint\palmtree.math.core.uint\pmc_inline_func.h

; 248  :         return (_addcarryx_u32(carry, u, v, w));

	adcx	eax, DWORD PTR [edi+32]
	mov	DWORD PTR [esi+32], eax
; File z:\sources\lunor\repos\rougemeilland\palmtree.math.core.uint\palmtree.math.core.uint\autogenerated_inline_func.h

; 1316 :     c = _ADDX_UNIT_DIV(c, xp[9], yp[9], &zp[9]);

	mov	eax, DWORD PTR [esi+36]
; File z:\sources\lunor\repos\rougemeilland\palmtree.math.core.uint\palmtree.math.core.uint\pmc_inline_func.h

; 248  :         return (_addcarryx_u32(carry, u, v, w));

	adcx	eax, DWORD PTR [edi+36]
	mov	DWORD PTR [esi+36], eax
; File z:\sources\lunor\repos\rougemeilland\palmtree.math.core.uint\palmtree.math.core.uint\autogenerated_inline_func.h

; 1317 :     c = _ADDX_UNIT_DIV(c, xp[10], yp[10], &zp[10]);

	mov	eax, DWORD PTR [esi+40]
; File z:\sources\lunor\repos\rougemeilland\palmtree.math.core.uint\palmtree.math.core.uint\pmc_inline_func.h

; 248  :         return (_addcarryx_u32(carry, u, v, w));

	adcx	eax, DWORD PTR [edi+40]
	mov	DWORD PTR [esi+40], eax
; File z:\sources\lunor\repos\rougemeilland\palmtree.math.core.uint\palmtree.math.core.uint\autogenerated_inline_func.h

; 1318 :     c = _ADDX_UNIT_DIV(c, xp[11], yp[11], &zp[11]);

	mov	eax, DWORD PTR [esi+44]
; File z:\sources\lunor\repos\rougemeilland\palmtree.math.core.uint\palmtree.math.core.uint\pmc_inline_func.h

; 248  :         return (_addcarryx_u32(carry, u, v, w));

	adcx	eax, DWORD PTR [edi+44]
	mov	DWORD PTR [esi+44], eax
; File z:\sources\lunor\repos\rougemeilland\palmtree.math.core.uint\palmtree.math.core.uint\autogenerated_inline_func.h

; 1319 :     c = _ADDX_UNIT_DIV(c, xp[12], yp[12], &zp[12]);

	mov	eax, DWORD PTR [esi+48]
; File z:\sources\lunor\repos\rougemeilland\palmtree.math.core.uint\palmtree.math.core.uint\pmc_inline_func.h

; 248  :         return (_addcarryx_u32(carry, u, v, w));

	adcx	eax, DWORD PTR [edi+48]
	mov	DWORD PTR [esi+48], eax
; File z:\sources\lunor\repos\rougemeilland\palmtree.math.core.uint\palmtree.math.core.uint\autogenerated_inline_func.h

; 1320 :     c = _ADDX_UNIT_DIV(c, xp[13], yp[13], &zp[13]);

	mov	eax, DWORD PTR [esi+52]
; File z:\sources\lunor\repos\rougemeilland\palmtree.math.core.uint\palmtree.math.core.uint\pmc_inline_func.h

; 248  :         return (_addcarryx_u32(carry, u, v, w));

	adcx	eax, DWORD PTR [edi+52]
	mov	DWORD PTR [esi+52], eax
; File z:\sources\lunor\repos\rougemeilland\palmtree.math.core.uint\palmtree.math.core.uint\autogenerated_inline_func.h

; 1321 :     c = _ADDX_UNIT_DIV(c, xp[14], yp[14], &zp[14]);

	mov	eax, DWORD PTR [esi+56]
; File z:\sources\lunor\repos\rougemeilland\palmtree.math.core.uint\palmtree.math.core.uint\pmc_inline_func.h

; 248  :         return (_addcarryx_u32(carry, u, v, w));

	adcx	eax, DWORD PTR [edi+56]
	mov	DWORD PTR [esi+56], eax
; File z:\sources\lunor\repos\rougemeilland\palmtree.math.core.uint\palmtree.math.core.uint\autogenerated_inline_func.h

; 1322 :     c = _ADDX_UNIT_DIV(c, xp[15], yp[15], &zp[15]);

	mov	eax, DWORD PTR [esi+60]
; File z:\sources\lunor\repos\rougemeilland\palmtree.math.core.uint\palmtree.math.core.uint\pmc_inline_func.h

; 248  :         return (_addcarryx_u32(carry, u, v, w));

	adcx	eax, DWORD PTR [edi+60]
	mov	DWORD PTR [esi+60], eax
; File z:\sources\lunor\repos\rougemeilland\palmtree.math.core.uint\palmtree.math.core.uint\autogenerated_inline_func.h

; 1323 :     c = _ADDX_UNIT_DIV(c, xp[16], yp[16], &zp[16]);

	mov	eax, DWORD PTR [esi+64]
; File z:\sources\lunor\repos\rougemeilland\palmtree.math.core.uint\palmtree.math.core.uint\pmc_inline_func.h

; 248  :         return (_addcarryx_u32(carry, u, v, w));

	adcx	eax, DWORD PTR [edi+64]
	mov	DWORD PTR [esi+64], eax
; File z:\sources\lunor\repos\rougemeilland\palmtree.math.core.uint\palmtree.math.core.uint\autogenerated_inline_func.h

; 1324 :     c = _ADDX_UNIT_DIV(c, xp[17], yp[17], &zp[17]);

	mov	eax, DWORD PTR [esi+68]
; File z:\sources\lunor\repos\rougemeilland\palmtree.math.core.uint\palmtree.math.core.uint\pmc_inline_func.h

; 248  :         return (_addcarryx_u32(carry, u, v, w));

	adcx	eax, DWORD PTR [edi+68]
	mov	DWORD PTR [esi+68], eax
; File z:\sources\lunor\repos\rougemeilland\palmtree.math.core.uint\palmtree.math.core.uint\autogenerated_inline_func.h

; 1325 :     c = _ADDX_UNIT_DIV(c, xp[18], yp[18], &zp[18]);

	mov	eax, DWORD PTR [esi+72]
; File z:\sources\lunor\repos\rougemeilland\palmtree.math.core.uint\palmtree.math.core.uint\pmc_inline_func.h

; 248  :         return (_addcarryx_u32(carry, u, v, w));

	adcx	eax, DWORD PTR [edi+72]
	mov	DWORD PTR [esi+72], eax
; File z:\sources\lunor\repos\rougemeilland\palmtree.math.core.uint\palmtree.math.core.uint\autogenerated_inline_func.h

; 1326 :     c = _ADDX_UNIT_DIV(c, xp[19], yp[19], &zp[19]);

	mov	eax, DWORD PTR [esi+76]
; File z:\sources\lunor\repos\rougemeilland\palmtree.math.core.uint\palmtree.math.core.uint\pmc_inline_func.h

; 248  :         return (_addcarryx_u32(carry, u, v, w));

	adcx	eax, DWORD PTR [edi+76]
	mov	DWORD PTR [esi+76], eax
; File z:\sources\lunor\repos\rougemeilland\palmtree.math.core.uint\palmtree.math.core.uint\autogenerated_inline_func.h

; 1327 :     c = _ADDX_UNIT_DIV(c, xp[20], yp[20], &zp[20]);

	mov	eax, DWORD PTR [esi+80]
; File z:\sources\lunor\repos\rougemeilland\palmtree.math.core.uint\palmtree.math.core.uint\pmc_inline_func.h

; 248  :         return (_addcarryx_u32(carry, u, v, w));

	adcx	eax, DWORD PTR [edi+80]
	mov	DWORD PTR [esi+80], eax
; File z:\sources\lunor\repos\rougemeilland\palmtree.math.core.uint\palmtree.math.core.uint\autogenerated_inline_func.h

; 1328 :     c = _ADDX_UNIT_DIV(c, xp[21], yp[21], &zp[21]);

	mov	eax, DWORD PTR [esi+84]
; File z:\sources\lunor\repos\rougemeilland\palmtree.math.core.uint\palmtree.math.core.uint\pmc_inline_func.h

; 248  :         return (_addcarryx_u32(carry, u, v, w));

	adcx	eax, DWORD PTR [edi+84]
	mov	DWORD PTR [esi+84], eax
; File z:\sources\lunor\repos\rougemeilland\palmtree.math.core.uint\palmtree.math.core.uint\autogenerated_inline_func.h

; 1329 :     c = _ADDX_UNIT_DIV(c, xp[22], yp[22], &zp[22]);

	mov	eax, DWORD PTR [esi+88]
; File z:\sources\lunor\repos\rougemeilland\palmtree.math.core.uint\palmtree.math.core.uint\pmc_inline_func.h

; 248  :         return (_addcarryx_u32(carry, u, v, w));

	adcx	eax, DWORD PTR [edi+88]
	mov	DWORD PTR [esi+88], eax
; File z:\sources\lunor\repos\rougemeilland\palmtree.math.core.uint\palmtree.math.core.uint\autogenerated_inline_func.h

; 1330 :     c = _ADDX_UNIT_DIV(c, xp[23], yp[23], &zp[23]);

	mov	eax, DWORD PTR [esi+92]
; File z:\sources\lunor\repos\rougemeilland\palmtree.math.core.uint\palmtree.math.core.uint\pmc_inline_func.h

; 248  :         return (_addcarryx_u32(carry, u, v, w));

	adcx	eax, DWORD PTR [edi+92]
	mov	DWORD PTR [esi+92], eax
; File z:\sources\lunor\repos\rougemeilland\palmtree.math.core.uint\palmtree.math.core.uint\autogenerated_inline_func.h

; 1331 :     c = _ADDX_UNIT_DIV(c, xp[24], yp[24], &zp[24]);

	mov	eax, DWORD PTR [esi+96]
; File z:\sources\lunor\repos\rougemeilland\palmtree.math.core.uint\palmtree.math.core.uint\pmc_inline_func.h

; 248  :         return (_addcarryx_u32(carry, u, v, w));

	adcx	eax, DWORD PTR [edi+96]
	mov	DWORD PTR [esi+96], eax
; File z:\sources\lunor\repos\rougemeilland\palmtree.math.core.uint\palmtree.math.core.uint\autogenerated_inline_func.h

; 1332 :     c = _ADDX_UNIT_DIV(c, xp[25], yp[25], &zp[25]);

	mov	eax, DWORD PTR [esi+100]
; File z:\sources\lunor\repos\rougemeilland\palmtree.math.core.uint\palmtree.math.core.uint\pmc_inline_func.h

; 248  :         return (_addcarryx_u32(carry, u, v, w));

	adcx	eax, DWORD PTR [edi+100]
	mov	DWORD PTR [esi+100], eax
; File z:\sources\lunor\repos\rougemeilland\palmtree.math.core.uint\palmtree.math.core.uint\autogenerated_inline_func.h

; 1333 :     c = _ADDX_UNIT_DIV(c, xp[26], yp[26], &zp[26]);

	mov	eax, DWORD PTR [esi+104]
; File z:\sources\lunor\repos\rougemeilland\palmtree.math.core.uint\palmtree.math.core.uint\pmc_inline_func.h

; 248  :         return (_addcarryx_u32(carry, u, v, w));

	adcx	eax, DWORD PTR [edi+104]
	mov	DWORD PTR [esi+104], eax
; File z:\sources\lunor\repos\rougemeilland\palmtree.math.core.uint\palmtree.math.core.uint\autogenerated_inline_func.h

; 1334 :     c = _ADDX_UNIT_DIV(c, xp[27], yp[27], &zp[27]);

	mov	eax, DWORD PTR [esi+108]
; File z:\sources\lunor\repos\rougemeilland\palmtree.math.core.uint\palmtree.math.core.uint\pmc_inline_func.h

; 248  :         return (_addcarryx_u32(carry, u, v, w));

	adcx	eax, DWORD PTR [edi+108]
	mov	DWORD PTR [esi+108], eax
; File z:\sources\lunor\repos\rougemeilland\palmtree.math.core.uint\palmtree.math.core.uint\autogenerated_inline_func.h

; 1335 :     c = _ADDX_UNIT_DIV(c, xp[28], yp[28], &zp[28]);

	mov	eax, DWORD PTR [esi+112]
; File z:\sources\lunor\repos\rougemeilland\palmtree.math.core.uint\palmtree.math.core.uint\pmc_inline_func.h

; 248  :         return (_addcarryx_u32(carry, u, v, w));

	adcx	eax, DWORD PTR [edi+112]
	mov	DWORD PTR [esi+112], eax
; File z:\sources\lunor\repos\rougemeilland\palmtree.math.core.uint\palmtree.math.core.uint\autogenerated_inline_func.h

; 1336 :     c = _ADDX_UNIT_DIV(c, xp[29], yp[29], &zp[29]);

	mov	eax, DWORD PTR [esi+116]
; File z:\sources\lunor\repos\rougemeilland\palmtree.math.core.uint\palmtree.math.core.uint\pmc_inline_func.h

; 248  :         return (_addcarryx_u32(carry, u, v, w));

	adcx	eax, DWORD PTR [edi+116]
	mov	DWORD PTR [esi+116], eax
; File z:\sources\lunor\repos\rougemeilland\palmtree.math.core.uint\palmtree.math.core.uint\autogenerated_inline_func.h

; 1337 :     c = _ADDX_UNIT_DIV(c, xp[30], yp[30], &zp[30]);

	mov	eax, DWORD PTR [esi+120]
; File z:\sources\lunor\repos\rougemeilland\palmtree.math.core.uint\palmtree.math.core.uint\pmc_inline_func.h

; 248  :         return (_addcarryx_u32(carry, u, v, w));

	adcx	eax, DWORD PTR [edi+120]
	mov	DWORD PTR [esi+120], eax
; File z:\sources\lunor\repos\rougemeilland\palmtree.math.core.uint\palmtree.math.core.uint\autogenerated_inline_func.h

; 1338 :     c = _ADDX_UNIT_DIV(c, xp[31], yp[31], &zp[31]);

	mov	eax, DWORD PTR [esi+124]
; File z:\sources\lunor\repos\rougemeilland\palmtree.math.core.uint\palmtree.math.core.uint\pmc_inline_func.h

; 248  :         return (_addcarryx_u32(carry, u, v, w));

	adcx	eax, DWORD PTR [edi+124]
	mov	DWORD PTR [esi+124], eax
	setb	dl
; File z:\sources\lunor\repos\rougemeilland\palmtree.math.core.uint\palmtree.math.core.uint\pmc_divrem.c

; 854  :         u_ptr += 32;

	sub	esi, -128				; ffffff80H

; 855  :         v_ptr += 32;

	sub	edi, -128				; ffffff80H
	mov	BYTE PTR _c$[ebp], dl

; 856  :         --count;

	sub	ecx, 1
	jne	$LL2@AddOneLine
$LN3@AddOneLine:

; 857  :     }
; 858  :     // この時点で未処理の桁は 32 ワード未満のはず
; 859  : 
; 860  :     // 未処理の桁が 16 ワード以上あるなら 16 ワード加算を行う。
; 861  :     if (v_count & 0x10)

	test	bl, 16					; 00000010H
	je	SHORT $LN4@AddOneLine

; 862  :     {
; 863  :         c = _ADD_16WORDS_ADCX_DIV(c, u_ptr, v_ptr, u_ptr);

	push	esi
	push	edi
	push	esi
	push	DWORD PTR _c$[ebp]
	call	__ADD_16WORDS_ADCX_DIV
	add	esp, 16					; 00000010H

; 864  :         u_ptr += 16;

	add	esi, 64					; 00000040H
	mov	dl, al

; 865  :         v_ptr += 16;

	add	edi, 64					; 00000040H
$LN4@AddOneLine:

; 866  :     }
; 867  :     // この時点で未処理の桁は 16 ワード未満のはず
; 868  : 
; 869  :     // 未処理の桁が 8 ワード以上あるなら 8 ワード加算を行う。
; 870  :     if (v_count & 0x8)

	test	bl, 8
	je	SHORT $LN5@AddOneLine
; File z:\sources\lunor\repos\rougemeilland\palmtree.math.core.uint\palmtree.math.core.uint\autogenerated_inline_func.h

; 3619 :     c = _ADDX_UNIT_DIV(c, xp[0], yp[0], &zp[0]);

	mov	ecx, DWORD PTR [esi]
; File z:\sources\lunor\repos\rougemeilland\palmtree.math.core.uint\palmtree.math.core.uint\pmc_inline_func.h

; 248  :         return (_addcarryx_u32(carry, u, v, w));

	add	dl, 255					; 000000ffH
	adcx	ecx, DWORD PTR [edi]
	mov	DWORD PTR [esi], ecx
; File z:\sources\lunor\repos\rougemeilland\palmtree.math.core.uint\palmtree.math.core.uint\autogenerated_inline_func.h

; 3620 :     c = _ADDX_UNIT_DIV(c, xp[1], yp[1], &zp[1]);

	mov	eax, DWORD PTR [esi+4]
; File z:\sources\lunor\repos\rougemeilland\palmtree.math.core.uint\palmtree.math.core.uint\pmc_inline_func.h

; 248  :         return (_addcarryx_u32(carry, u, v, w));

	adcx	eax, DWORD PTR [edi+4]
	mov	DWORD PTR [esi+4], eax
; File z:\sources\lunor\repos\rougemeilland\palmtree.math.core.uint\palmtree.math.core.uint\autogenerated_inline_func.h

; 3621 :     c = _ADDX_UNIT_DIV(c, xp[2], yp[2], &zp[2]);

	mov	eax, DWORD PTR [esi+8]
; File z:\sources\lunor\repos\rougemeilland\palmtree.math.core.uint\palmtree.math.core.uint\pmc_inline_func.h

; 248  :         return (_addcarryx_u32(carry, u, v, w));

	adcx	eax, DWORD PTR [edi+8]
	mov	DWORD PTR [esi+8], eax
; File z:\sources\lunor\repos\rougemeilland\palmtree.math.core.uint\palmtree.math.core.uint\autogenerated_inline_func.h

; 3622 :     c = _ADDX_UNIT_DIV(c, xp[3], yp[3], &zp[3]);

	mov	eax, DWORD PTR [esi+12]
; File z:\sources\lunor\repos\rougemeilland\palmtree.math.core.uint\palmtree.math.core.uint\pmc_inline_func.h

; 248  :         return (_addcarryx_u32(carry, u, v, w));

	adcx	eax, DWORD PTR [edi+12]
	mov	DWORD PTR [esi+12], eax
; File z:\sources\lunor\repos\rougemeilland\palmtree.math.core.uint\palmtree.math.core.uint\autogenerated_inline_func.h

; 3623 :     c = _ADDX_UNIT_DIV(c, xp[4], yp[4], &zp[4]);

	mov	eax, DWORD PTR [esi+16]
; File z:\sources\lunor\repos\rougemeilland\palmtree.math.core.uint\palmtree.math.core.uint\pmc_inline_func.h

; 248  :         return (_addcarryx_u32(carry, u, v, w));

	adcx	eax, DWORD PTR [edi+16]
	mov	DWORD PTR [esi+16], eax
; File z:\sources\lunor\repos\rougemeilland\palmtree.math.core.uint\palmtree.math.core.uint\autogenerated_inline_func.h

; 3624 :     c = _ADDX_UNIT_DIV(c, xp[5], yp[5], &zp[5]);

	mov	eax, DWORD PTR [esi+20]
; File z:\sources\lunor\repos\rougemeilland\palmtree.math.core.uint\palmtree.math.core.uint\pmc_inline_func.h

; 248  :         return (_addcarryx_u32(carry, u, v, w));

	adcx	eax, DWORD PTR [edi+20]
	mov	DWORD PTR [esi+20], eax
; File z:\sources\lunor\repos\rougemeilland\palmtree.math.core.uint\palmtree.math.core.uint\autogenerated_inline_func.h

; 3625 :     c = _ADDX_UNIT_DIV(c, xp[6], yp[6], &zp[6]);

	mov	eax, DWORD PTR [esi+24]
; File z:\sources\lunor\repos\rougemeilland\palmtree.math.core.uint\palmtree.math.core.uint\pmc_inline_func.h

; 248  :         return (_addcarryx_u32(carry, u, v, w));

	adcx	eax, DWORD PTR [edi+24]
	mov	DWORD PTR [esi+24], eax
; File z:\sources\lunor\repos\rougemeilland\palmtree.math.core.uint\palmtree.math.core.uint\autogenerated_inline_func.h

; 3626 :     c = _ADDX_UNIT_DIV(c, xp[7], yp[7], &zp[7]);

	mov	eax, DWORD PTR [esi+28]
; File z:\sources\lunor\repos\rougemeilland\palmtree.math.core.uint\palmtree.math.core.uint\pmc_inline_func.h

; 248  :         return (_addcarryx_u32(carry, u, v, w));

	adcx	eax, DWORD PTR [edi+28]
	mov	DWORD PTR [esi+28], eax
	setb	dl
; File z:\sources\lunor\repos\rougemeilland\palmtree.math.core.uint\palmtree.math.core.uint\pmc_divrem.c

; 873  :         u_ptr += 8;

	add	esi, 32					; 00000020H

; 874  :         v_ptr += 8;

	add	edi, 32					; 00000020H
$LN5@AddOneLine:

; 875  :     }
; 876  :     // この時点で未処理の桁は 8 ワード未満のはず
; 877  : 
; 878  :     // 未処理の桁が 4 ワード以上あるなら 4 ワード加算を行う。
; 879  :     if (v_count & 0x4)

	test	bl, 4
	je	SHORT $LN6@AddOneLine
; File z:\sources\lunor\repos\rougemeilland\palmtree.math.core.uint\palmtree.math.core.uint\autogenerated_inline_func.h

; 4159 :     c = _ADDX_UNIT_DIV(c, xp[0], yp[0], &zp[0]);

	mov	eax, DWORD PTR [esi]
; File z:\sources\lunor\repos\rougemeilland\palmtree.math.core.uint\palmtree.math.core.uint\pmc_inline_func.h

; 248  :         return (_addcarryx_u32(carry, u, v, w));

	add	dl, 255					; 000000ffH
	adcx	eax, DWORD PTR [edi]
	mov	DWORD PTR [esi], eax
; File z:\sources\lunor\repos\rougemeilland\palmtree.math.core.uint\palmtree.math.core.uint\autogenerated_inline_func.h

; 4160 :     c = _ADDX_UNIT_DIV(c, xp[1], yp[1], &zp[1]);

	mov	eax, DWORD PTR [esi+4]
; File z:\sources\lunor\repos\rougemeilland\palmtree.math.core.uint\palmtree.math.core.uint\pmc_inline_func.h

; 248  :         return (_addcarryx_u32(carry, u, v, w));

	adcx	eax, DWORD PTR [edi+4]
	mov	DWORD PTR [esi+4], eax
; File z:\sources\lunor\repos\rougemeilland\palmtree.math.core.uint\palmtree.math.core.uint\autogenerated_inline_func.h

; 4161 :     c = _ADDX_UNIT_DIV(c, xp[2], yp[2], &zp[2]);

	mov	eax, DWORD PTR [esi+8]
; File z:\sources\lunor\repos\rougemeilland\palmtree.math.core.uint\palmtree.math.core.uint\pmc_inline_func.h

; 248  :         return (_addcarryx_u32(carry, u, v, w));

	adcx	eax, DWORD PTR [edi+8]
	mov	DWORD PTR [esi+8], eax
; File z:\sources\lunor\repos\rougemeilland\palmtree.math.core.uint\palmtree.math.core.uint\autogenerated_inline_func.h

; 4162 :     c = _ADDX_UNIT_DIV(c, xp[3], yp[3], &zp[3]);

	mov	eax, DWORD PTR [esi+12]
; File z:\sources\lunor\repos\rougemeilland\palmtree.math.core.uint\palmtree.math.core.uint\pmc_inline_func.h

; 248  :         return (_addcarryx_u32(carry, u, v, w));

	adcx	eax, DWORD PTR [edi+12]
	mov	DWORD PTR [esi+12], eax
	setb	dl
; File z:\sources\lunor\repos\rougemeilland\palmtree.math.core.uint\palmtree.math.core.uint\pmc_divrem.c

; 882  :         u_ptr += 4;

	add	esi, 16					; 00000010H

; 883  :         v_ptr += 4;

	add	edi, 16					; 00000010H
$LN6@AddOneLine:

; 884  :     }
; 885  :     // この時点で未処理の桁は 4 ワード未満のはず
; 886  : 
; 887  :     // 未処理の桁が 2 ワード以上あるなら 2 ワード加算を行う。
; 888  :     if (v_count & 0x2)

	test	bl, 2
	je	SHORT $LN7@AddOneLine
; File z:\sources\lunor\repos\rougemeilland\palmtree.math.core.uint\palmtree.math.core.uint\autogenerated_inline_func.h

; 4545 :     c = _ADDX_UNIT_DIV(c, xp[0], yp[0], &zp[0]);

	mov	eax, DWORD PTR [esi]
; File z:\sources\lunor\repos\rougemeilland\palmtree.math.core.uint\palmtree.math.core.uint\pmc_inline_func.h

; 248  :         return (_addcarryx_u32(carry, u, v, w));

	add	dl, 255					; 000000ffH
	adcx	eax, DWORD PTR [edi]
	mov	DWORD PTR [esi], eax
; File z:\sources\lunor\repos\rougemeilland\palmtree.math.core.uint\palmtree.math.core.uint\autogenerated_inline_func.h

; 4546 :     c = _ADDX_UNIT_DIV(c, xp[1], yp[1], &zp[1]);

	mov	eax, DWORD PTR [esi+4]
; File z:\sources\lunor\repos\rougemeilland\palmtree.math.core.uint\palmtree.math.core.uint\pmc_inline_func.h

; 248  :         return (_addcarryx_u32(carry, u, v, w));

	adcx	eax, DWORD PTR [edi+4]
	mov	DWORD PTR [esi+4], eax
	setb	dl
; File z:\sources\lunor\repos\rougemeilland\palmtree.math.core.uint\palmtree.math.core.uint\pmc_divrem.c

; 891  :         u_ptr += 2;

	add	esi, 8

; 892  :         v_ptr += 2;

	add	edi, 8
$LN7@AddOneLine:

; 893  :     }
; 894  :     // この時点で未処理の桁は 2 ワード未満のはず
; 895  : 
; 896  :     // 未処理の桁が 1 ワード以上あるなら 1 ワード加算を行う。
; 897  :     if (v_count & 0x1)

	test	bl, 1
	je	SHORT $LN8@AddOneLine

; 898  :     {
; 899  :         c = _ADD_UNIT_DIV(c, *u_ptr, *v_ptr, u_ptr);

	mov	eax, DWORD PTR [esi]
; File z:\sources\lunor\repos\rougemeilland\palmtree.math.core.uint\palmtree.math.core.uint\pmc_inline_func.h

; 220  :         return (_addcarry_u32(carry, u, v, w));

	add	dl, 255					; 000000ffH
	adc	eax, DWORD PTR [edi]
	mov	DWORD PTR [esi], eax
	setb	dl
; File z:\sources\lunor\repos\rougemeilland\palmtree.math.core.uint\palmtree.math.core.uint\pmc_divrem.c

; 900  :         ++u_ptr;

	add	esi, 4
$LN8@AddOneLine:

; 901  :         ++v_ptr;
; 902  :     }
; 903  : 
; 904  :     // 残りの桁の繰り上がりを計算する。
; 905  :     DoCarry(c, u_ptr, u_buf + u_buf_len + 1 - u_ptr);

	mov	eax, DWORD PTR _u_buf_len$[ebp]
	lea	ecx, DWORD PTR [eax*4+4]
	sub	ecx, esi
	add	ecx, DWORD PTR _u_buf$[ebp]
	sar	ecx, 2

; 752  :         if (u_count <= 0)

	test	ecx, ecx
	je	SHORT $LN131@AddOneLine
	npad	4
$LL113@AddOneLine:

; 753  :         {
; 754  :             // u の最上位まで達してしまった場合
; 755  :             return;
; 756  :         }
; 757  :         else if (c)

	test	dl, dl
	je	SHORT $LN131@AddOneLine

; 758  :         {
; 759  :             // u の最上位に達しておらず、かつキャリーが立っている場合
; 760  : 
; 761  :             // 繰り上がりを継続する
; 762  :             c = _ADD_UNIT_DIV(c, *u_ptr, 0, u_ptr);

	mov	eax, DWORD PTR [esi]
; File z:\sources\lunor\repos\rougemeilland\palmtree.math.core.uint\palmtree.math.core.uint\pmc_inline_func.h

; 220  :         return (_addcarry_u32(carry, u, v, w));

	add	dl, 255					; 000000ffH
	adc	eax, 0
	mov	DWORD PTR [esi], eax
	setb	dl
; File z:\sources\lunor\repos\rougemeilland\palmtree.math.core.uint\palmtree.math.core.uint\pmc_divrem.c

; 763  :             ++u_ptr;

	add	esi, 4

; 764  :             --u_count;

	sub	ecx, 1
	jne	SHORT $LL113@AddOneLine
$LN131@AddOneLine:
	pop	edi

; 906  : }

	pop	esi
	pop	ebx
	pop	ebp
	ret	0
_AddOneLineX ENDP
_TEXT	ENDS
; Function compile flags: /Ogtp
; File z:\sources\lunor\repos\rougemeilland\palmtree.math.core.uint\palmtree.math.core.uint\pmc_divrem.c
; File z:\sources\lunor\repos\rougemeilland\palmtree.math.core.uint\palmtree.math.core.uint\autogenerated_inline_func.h
; File z:\sources\lunor\repos\rougemeilland\palmtree.math.core.uint\palmtree.math.core.uint\pmc_inline_func.h
; File z:\sources\lunor\repos\rougemeilland\palmtree.math.core.uint\palmtree.math.core.uint\autogenerated_inline_func.h
; File z:\sources\lunor\repos\rougemeilland\palmtree.math.core.uint\palmtree.math.core.uint\pmc_inline_func.h
; File z:\sources\lunor\repos\rougemeilland\palmtree.math.core.uint\palmtree.math.core.uint\autogenerated_inline_func.h
; File z:\sources\lunor\repos\rougemeilland\palmtree.math.core.uint\palmtree.math.core.uint\pmc_inline_func.h
; File z:\sources\lunor\repos\rougemeilland\palmtree.math.core.uint\palmtree.math.core.uint\autogenerated_inline_func.h
; File z:\sources\lunor\repos\rougemeilland\palmtree.math.core.uint\palmtree.math.core.uint\pmc_inline_func.h
; File z:\sources\lunor\repos\rougemeilland\palmtree.math.core.uint\palmtree.math.core.uint\autogenerated_inline_func.h
; File z:\sources\lunor\repos\rougemeilland\palmtree.math.core.uint\palmtree.math.core.uint\pmc_inline_func.h
; File z:\sources\lunor\repos\rougemeilland\palmtree.math.core.uint\palmtree.math.core.uint\autogenerated_inline_func.h
; File z:\sources\lunor\repos\rougemeilland\palmtree.math.core.uint\palmtree.math.core.uint\pmc_inline_func.h
; File z:\sources\lunor\repos\rougemeilland\palmtree.math.core.uint\palmtree.math.core.uint\autogenerated_inline_func.h
; File z:\sources\lunor\repos\rougemeilland\palmtree.math.core.uint\palmtree.math.core.uint\pmc_inline_func.h
; File z:\sources\lunor\repos\rougemeilland\palmtree.math.core.uint\palmtree.math.core.uint\autogenerated_inline_func.h
; File z:\sources\lunor\repos\rougemeilland\palmtree.math.core.uint\palmtree.math.core.uint\pmc_inline_func.h
; File z:\sources\lunor\repos\rougemeilland\palmtree.math.core.uint\palmtree.math.core.uint\autogenerated_inline_func.h
; File z:\sources\lunor\repos\rougemeilland\palmtree.math.core.uint\palmtree.math.core.uint\pmc_inline_func.h
; File z:\sources\lunor\repos\rougemeilland\palmtree.math.core.uint\palmtree.math.core.uint\autogenerated_inline_func.h
; File z:\sources\lunor\repos\rougemeilland\palmtree.math.core.uint\palmtree.math.core.uint\pmc_inline_func.h
; File z:\sources\lunor\repos\rougemeilland\palmtree.math.core.uint\palmtree.math.core.uint\autogenerated_inline_func.h
; File z:\sources\lunor\repos\rougemeilland\palmtree.math.core.uint\palmtree.math.core.uint\pmc_inline_func.h
; File z:\sources\lunor\repos\rougemeilland\palmtree.math.core.uint\palmtree.math.core.uint\autogenerated_inline_func.h
; File z:\sources\lunor\repos\rougemeilland\palmtree.math.core.uint\palmtree.math.core.uint\pmc_inline_func.h
; File z:\sources\lunor\repos\rougemeilland\palmtree.math.core.uint\palmtree.math.core.uint\autogenerated_inline_func.h
; File z:\sources\lunor\repos\rougemeilland\palmtree.math.core.uint\palmtree.math.core.uint\pmc_inline_func.h
; File z:\sources\lunor\repos\rougemeilland\palmtree.math.core.uint\palmtree.math.core.uint\autogenerated_inline_func.h
; File z:\sources\lunor\repos\rougemeilland\palmtree.math.core.uint\palmtree.math.core.uint\pmc_inline_func.h
; File z:\sources\lunor\repos\rougemeilland\palmtree.math.core.uint\palmtree.math.core.uint\autogenerated_inline_func.h
; File z:\sources\lunor\repos\rougemeilland\palmtree.math.core.uint\palmtree.math.core.uint\pmc_inline_func.h
; File z:\sources\lunor\repos\rougemeilland\palmtree.math.core.uint\palmtree.math.core.uint\autogenerated_inline_func.h
; File z:\sources\lunor\repos\rougemeilland\palmtree.math.core.uint\palmtree.math.core.uint\pmc_inline_func.h
; File z:\sources\lunor\repos\rougemeilland\palmtree.math.core.uint\palmtree.math.core.uint\autogenerated_inline_func.h
; File z:\sources\lunor\repos\rougemeilland\palmtree.math.core.uint\palmtree.math.core.uint\pmc_inline_func.h
; File z:\sources\lunor\repos\rougemeilland\palmtree.math.core.uint\palmtree.math.core.uint\autogenerated_inline_func.h
; File z:\sources\lunor\repos\rougemeilland\palmtree.math.core.uint\palmtree.math.core.uint\pmc_inline_func.h
; File z:\sources\lunor\repos\rougemeilland\palmtree.math.core.uint\palmtree.math.core.uint\autogenerated_inline_func.h
; File z:\sources\lunor\repos\rougemeilland\palmtree.math.core.uint\palmtree.math.core.uint\pmc_inline_func.h
; File z:\sources\lunor\repos\rougemeilland\palmtree.math.core.uint\palmtree.math.core.uint\autogenerated_inline_func.h
; File z:\sources\lunor\repos\rougemeilland\palmtree.math.core.uint\palmtree.math.core.uint\pmc_inline_func.h
; File z:\sources\lunor\repos\rougemeilland\palmtree.math.core.uint\palmtree.math.core.uint\autogenerated_inline_func.h
; File z:\sources\lunor\repos\rougemeilland\palmtree.math.core.uint\palmtree.math.core.uint\pmc_inline_func.h
; File z:\sources\lunor\repos\rougemeilland\palmtree.math.core.uint\palmtree.math.core.uint\autogenerated_inline_func.h
; File z:\sources\lunor\repos\rougemeilland\palmtree.math.core.uint\palmtree.math.core.uint\pmc_inline_func.h
; File z:\sources\lunor\repos\rougemeilland\palmtree.math.core.uint\palmtree.math.core.uint\autogenerated_inline_func.h
; File z:\sources\lunor\repos\rougemeilland\palmtree.math.core.uint\palmtree.math.core.uint\pmc_inline_func.h
; File z:\sources\lunor\repos\rougemeilland\palmtree.math.core.uint\palmtree.math.core.uint\autogenerated_inline_func.h
; File z:\sources\lunor\repos\rougemeilland\palmtree.math.core.uint\palmtree.math.core.uint\pmc_inline_func.h
; File z:\sources\lunor\repos\rougemeilland\palmtree.math.core.uint\palmtree.math.core.uint\autogenerated_inline_func.h
; File z:\sources\lunor\repos\rougemeilland\palmtree.math.core.uint\palmtree.math.core.uint\pmc_inline_func.h
; File z:\sources\lunor\repos\rougemeilland\palmtree.math.core.uint\palmtree.math.core.uint\autogenerated_inline_func.h
; File z:\sources\lunor\repos\rougemeilland\palmtree.math.core.uint\palmtree.math.core.uint\pmc_inline_func.h
; File z:\sources\lunor\repos\rougemeilland\palmtree.math.core.uint\palmtree.math.core.uint\autogenerated_inline_func.h
; File z:\sources\lunor\repos\rougemeilland\palmtree.math.core.uint\palmtree.math.core.uint\pmc_inline_func.h
; File z:\sources\lunor\repos\rougemeilland\palmtree.math.core.uint\palmtree.math.core.uint\autogenerated_inline_func.h
; File z:\sources\lunor\repos\rougemeilland\palmtree.math.core.uint\palmtree.math.core.uint\pmc_inline_func.h
; File z:\sources\lunor\repos\rougemeilland\palmtree.math.core.uint\palmtree.math.core.uint\autogenerated_inline_func.h
; File z:\sources\lunor\repos\rougemeilland\palmtree.math.core.uint\palmtree.math.core.uint\pmc_inline_func.h
; File z:\sources\lunor\repos\rougemeilland\palmtree.math.core.uint\palmtree.math.core.uint\autogenerated_inline_func.h
; File z:\sources\lunor\repos\rougemeilland\palmtree.math.core.uint\palmtree.math.core.uint\pmc_inline_func.h
; File z:\sources\lunor\repos\rougemeilland\palmtree.math.core.uint\palmtree.math.core.uint\autogenerated_inline_func.h
; File z:\sources\lunor\repos\rougemeilland\palmtree.math.core.uint\palmtree.math.core.uint\pmc_inline_func.h
; File z:\sources\lunor\repos\rougemeilland\palmtree.math.core.uint\palmtree.math.core.uint\autogenerated_inline_func.h
; File z:\sources\lunor\repos\rougemeilland\palmtree.math.core.uint\palmtree.math.core.uint\pmc_inline_func.h
; File z:\sources\lunor\repos\rougemeilland\palmtree.math.core.uint\palmtree.math.core.uint\pmc_divrem.c
; File z:\sources\lunor\repos\rougemeilland\palmtree.math.core.uint\palmtree.math.core.uint\autogenerated_inline_func.h
; File z:\sources\lunor\repos\rougemeilland\palmtree.math.core.uint\palmtree.math.core.uint\pmc_inline_func.h
; File z:\sources\lunor\repos\rougemeilland\palmtree.math.core.uint\palmtree.math.core.uint\autogenerated_inline_func.h
; File z:\sources\lunor\repos\rougemeilland\palmtree.math.core.uint\palmtree.math.core.uint\pmc_inline_func.h
; File z:\sources\lunor\repos\rougemeilland\palmtree.math.core.uint\palmtree.math.core.uint\autogenerated_inline_func.h
; File z:\sources\lunor\repos\rougemeilland\palmtree.math.core.uint\palmtree.math.core.uint\pmc_inline_func.h
; File z:\sources\lunor\repos\rougemeilland\palmtree.math.core.uint\palmtree.math.core.uint\autogenerated_inline_func.h
; File z:\sources\lunor\repos\rougemeilland\palmtree.math.core.uint\palmtree.math.core.uint\pmc_inline_func.h
; File z:\sources\lunor\repos\rougemeilland\palmtree.math.core.uint\palmtree.math.core.uint\autogenerated_inline_func.h
; File z:\sources\lunor\repos\rougemeilland\palmtree.math.core.uint\palmtree.math.core.uint\pmc_inline_func.h
; File z:\sources\lunor\repos\rougemeilland\palmtree.math.core.uint\palmtree.math.core.uint\autogenerated_inline_func.h
; File z:\sources\lunor\repos\rougemeilland\palmtree.math.core.uint\palmtree.math.core.uint\pmc_inline_func.h
; File z:\sources\lunor\repos\rougemeilland\palmtree.math.core.uint\palmtree.math.core.uint\autogenerated_inline_func.h
; File z:\sources\lunor\repos\rougemeilland\palmtree.math.core.uint\palmtree.math.core.uint\pmc_inline_func.h
; File z:\sources\lunor\repos\rougemeilland\palmtree.math.core.uint\palmtree.math.core.uint\autogenerated_inline_func.h
; File z:\sources\lunor\repos\rougemeilland\palmtree.math.core.uint\palmtree.math.core.uint\pmc_inline_func.h
; File z:\sources\lunor\repos\rougemeilland\palmtree.math.core.uint\palmtree.math.core.uint\pmc_divrem.c
; File z:\sources\lunor\repos\rougemeilland\palmtree.math.core.uint\palmtree.math.core.uint\autogenerated_inline_func.h
; File z:\sources\lunor\repos\rougemeilland\palmtree.math.core.uint\palmtree.math.core.uint\pmc_inline_func.h
; File z:\sources\lunor\repos\rougemeilland\palmtree.math.core.uint\palmtree.math.core.uint\autogenerated_inline_func.h
; File z:\sources\lunor\repos\rougemeilland\palmtree.math.core.uint\palmtree.math.core.uint\pmc_inline_func.h
; File z:\sources\lunor\repos\rougemeilland\palmtree.math.core.uint\palmtree.math.core.uint\autogenerated_inline_func.h
; File z:\sources\lunor\repos\rougemeilland\palmtree.math.core.uint\palmtree.math.core.uint\pmc_inline_func.h
; File z:\sources\lunor\repos\rougemeilland\palmtree.math.core.uint\palmtree.math.core.uint\autogenerated_inline_func.h
; File z:\sources\lunor\repos\rougemeilland\palmtree.math.core.uint\palmtree.math.core.uint\pmc_inline_func.h
; File z:\sources\lunor\repos\rougemeilland\palmtree.math.core.uint\palmtree.math.core.uint\pmc_divrem.c
; File z:\sources\lunor\repos\rougemeilland\palmtree.math.core.uint\palmtree.math.core.uint\autogenerated_inline_func.h
; File z:\sources\lunor\repos\rougemeilland\palmtree.math.core.uint\palmtree.math.core.uint\pmc_inline_func.h
; File z:\sources\lunor\repos\rougemeilland\palmtree.math.core.uint\palmtree.math.core.uint\autogenerated_inline_func.h
; File z:\sources\lunor\repos\rougemeilland\palmtree.math.core.uint\palmtree.math.core.uint\pmc_inline_func.h
; File z:\sources\lunor\repos\rougemeilland\palmtree.math.core.uint\palmtree.math.core.uint\pmc_divrem.c
; File z:\sources\lunor\repos\rougemeilland\palmtree.math.core.uint\palmtree.math.core.uint\pmc_inline_func.h
; File z:\sources\lunor\repos\rougemeilland\palmtree.math.core.uint\palmtree.math.core.uint\pmc_divrem.c
; File z:\sources\lunor\repos\rougemeilland\palmtree.math.core.uint\palmtree.math.core.uint\pmc_inline_func.h
; File z:\sources\lunor\repos\rougemeilland\palmtree.math.core.uint\palmtree.math.core.uint\pmc_divrem.c
;	COMDAT _AddOneLine
_TEXT	SEGMENT
_u_buf$ = 8						; size = 4
_u_buf_len$ = 12					; size = 4
_v_buf$ = 16						; size = 4
_v_buf_len$ = 20					; size = 4
_c$ = 24						; size = 1
_q_index$ = 24						; size = 4
_AddOneLine PROC					; COMDAT

; 777  : {

	push	ebp
	mov	ebp, esp

; 778  :     __UNIT_TYPE_DIV* u_ptr = &u_buf[q_index];

	mov	eax, DWORD PTR _q_index$[ebp]

; 779  :     __UNIT_TYPE_DIV* v_ptr = &v_buf[0];
; 780  :     __UNIT_TYPE v_count = v_buf_len;
; 781  :     char c = 0;

	xor	dl, dl
	mov	ecx, DWORD PTR _u_buf$[ebp]
	push	ebx

; 782  : 
; 783  :     // まず 32 ワードずつ加算をする。
; 784  :     __UNIT_TYPE count = v_count >> 5;

	mov	ebx, DWORD PTR _v_buf_len$[ebp]
	push	esi
	lea	esi, DWORD PTR [ecx+eax*4]
	mov	BYTE PTR _c$[ebp], dl
	mov	ecx, ebx
	shr	ecx, 5
	push	edi
	mov	edi, DWORD PTR _v_buf$[ebp]

; 785  :     while (count != 0)

	test	ecx, ecx
	je	$LN3@AddOneLine
$LL2@AddOneLine:
; File z:\sources\lunor\repos\rougemeilland\palmtree.math.core.uint\palmtree.math.core.uint\autogenerated_inline_func.h

; 1054 :     c = _ADD_UNIT_DIV(c, xp[0], yp[0], &zp[0]);

	mov	eax, DWORD PTR [esi]
; File z:\sources\lunor\repos\rougemeilland\palmtree.math.core.uint\palmtree.math.core.uint\pmc_inline_func.h

; 220  :         return (_addcarry_u32(carry, u, v, w));

	add	dl, 255					; 000000ffH
	adc	eax, DWORD PTR [edi]
	mov	DWORD PTR [esi], eax
; File z:\sources\lunor\repos\rougemeilland\palmtree.math.core.uint\palmtree.math.core.uint\autogenerated_inline_func.h

; 1055 :     c = _ADD_UNIT_DIV(c, xp[1], yp[1], &zp[1]);

	mov	eax, DWORD PTR [esi+4]
; File z:\sources\lunor\repos\rougemeilland\palmtree.math.core.uint\palmtree.math.core.uint\pmc_inline_func.h

; 220  :         return (_addcarry_u32(carry, u, v, w));

	adc	eax, DWORD PTR [edi+4]
	mov	DWORD PTR [esi+4], eax
; File z:\sources\lunor\repos\rougemeilland\palmtree.math.core.uint\palmtree.math.core.uint\autogenerated_inline_func.h

; 1056 :     c = _ADD_UNIT_DIV(c, xp[2], yp[2], &zp[2]);

	mov	eax, DWORD PTR [esi+8]
; File z:\sources\lunor\repos\rougemeilland\palmtree.math.core.uint\palmtree.math.core.uint\pmc_inline_func.h

; 220  :         return (_addcarry_u32(carry, u, v, w));

	adc	eax, DWORD PTR [edi+8]
	mov	DWORD PTR [esi+8], eax
; File z:\sources\lunor\repos\rougemeilland\palmtree.math.core.uint\palmtree.math.core.uint\autogenerated_inline_func.h

; 1057 :     c = _ADD_UNIT_DIV(c, xp[3], yp[3], &zp[3]);

	mov	eax, DWORD PTR [esi+12]
; File z:\sources\lunor\repos\rougemeilland\palmtree.math.core.uint\palmtree.math.core.uint\pmc_inline_func.h

; 220  :         return (_addcarry_u32(carry, u, v, w));

	adc	eax, DWORD PTR [edi+12]
	mov	DWORD PTR [esi+12], eax
; File z:\sources\lunor\repos\rougemeilland\palmtree.math.core.uint\palmtree.math.core.uint\autogenerated_inline_func.h

; 1058 :     c = _ADD_UNIT_DIV(c, xp[4], yp[4], &zp[4]);

	mov	eax, DWORD PTR [esi+16]
; File z:\sources\lunor\repos\rougemeilland\palmtree.math.core.uint\palmtree.math.core.uint\pmc_inline_func.h

; 220  :         return (_addcarry_u32(carry, u, v, w));

	adc	eax, DWORD PTR [edi+16]
	mov	DWORD PTR [esi+16], eax
; File z:\sources\lunor\repos\rougemeilland\palmtree.math.core.uint\palmtree.math.core.uint\autogenerated_inline_func.h

; 1059 :     c = _ADD_UNIT_DIV(c, xp[5], yp[5], &zp[5]);

	mov	eax, DWORD PTR [esi+20]
; File z:\sources\lunor\repos\rougemeilland\palmtree.math.core.uint\palmtree.math.core.uint\pmc_inline_func.h

; 220  :         return (_addcarry_u32(carry, u, v, w));

	adc	eax, DWORD PTR [edi+20]
	mov	DWORD PTR [esi+20], eax
; File z:\sources\lunor\repos\rougemeilland\palmtree.math.core.uint\palmtree.math.core.uint\autogenerated_inline_func.h

; 1060 :     c = _ADD_UNIT_DIV(c, xp[6], yp[6], &zp[6]);

	mov	eax, DWORD PTR [esi+24]
; File z:\sources\lunor\repos\rougemeilland\palmtree.math.core.uint\palmtree.math.core.uint\pmc_inline_func.h

; 220  :         return (_addcarry_u32(carry, u, v, w));

	adc	eax, DWORD PTR [edi+24]
	mov	DWORD PTR [esi+24], eax
; File z:\sources\lunor\repos\rougemeilland\palmtree.math.core.uint\palmtree.math.core.uint\autogenerated_inline_func.h

; 1061 :     c = _ADD_UNIT_DIV(c, xp[7], yp[7], &zp[7]);

	mov	eax, DWORD PTR [esi+28]
; File z:\sources\lunor\repos\rougemeilland\palmtree.math.core.uint\palmtree.math.core.uint\pmc_inline_func.h

; 220  :         return (_addcarry_u32(carry, u, v, w));

	adc	eax, DWORD PTR [edi+28]
	mov	DWORD PTR [esi+28], eax
; File z:\sources\lunor\repos\rougemeilland\palmtree.math.core.uint\palmtree.math.core.uint\autogenerated_inline_func.h

; 1062 :     c = _ADD_UNIT_DIV(c, xp[8], yp[8], &zp[8]);

	mov	eax, DWORD PTR [esi+32]
; File z:\sources\lunor\repos\rougemeilland\palmtree.math.core.uint\palmtree.math.core.uint\pmc_inline_func.h

; 220  :         return (_addcarry_u32(carry, u, v, w));

	adc	eax, DWORD PTR [edi+32]
	mov	DWORD PTR [esi+32], eax
; File z:\sources\lunor\repos\rougemeilland\palmtree.math.core.uint\palmtree.math.core.uint\autogenerated_inline_func.h

; 1063 :     c = _ADD_UNIT_DIV(c, xp[9], yp[9], &zp[9]);

	mov	eax, DWORD PTR [esi+36]
; File z:\sources\lunor\repos\rougemeilland\palmtree.math.core.uint\palmtree.math.core.uint\pmc_inline_func.h

; 220  :         return (_addcarry_u32(carry, u, v, w));

	adc	eax, DWORD PTR [edi+36]
	mov	DWORD PTR [esi+36], eax
; File z:\sources\lunor\repos\rougemeilland\palmtree.math.core.uint\palmtree.math.core.uint\autogenerated_inline_func.h

; 1064 :     c = _ADD_UNIT_DIV(c, xp[10], yp[10], &zp[10]);

	mov	eax, DWORD PTR [esi+40]
; File z:\sources\lunor\repos\rougemeilland\palmtree.math.core.uint\palmtree.math.core.uint\pmc_inline_func.h

; 220  :         return (_addcarry_u32(carry, u, v, w));

	adc	eax, DWORD PTR [edi+40]
	mov	DWORD PTR [esi+40], eax
; File z:\sources\lunor\repos\rougemeilland\palmtree.math.core.uint\palmtree.math.core.uint\autogenerated_inline_func.h

; 1065 :     c = _ADD_UNIT_DIV(c, xp[11], yp[11], &zp[11]);

	mov	eax, DWORD PTR [esi+44]
; File z:\sources\lunor\repos\rougemeilland\palmtree.math.core.uint\palmtree.math.core.uint\pmc_inline_func.h

; 220  :         return (_addcarry_u32(carry, u, v, w));

	adc	eax, DWORD PTR [edi+44]
	mov	DWORD PTR [esi+44], eax
; File z:\sources\lunor\repos\rougemeilland\palmtree.math.core.uint\palmtree.math.core.uint\autogenerated_inline_func.h

; 1066 :     c = _ADD_UNIT_DIV(c, xp[12], yp[12], &zp[12]);

	mov	eax, DWORD PTR [esi+48]
; File z:\sources\lunor\repos\rougemeilland\palmtree.math.core.uint\palmtree.math.core.uint\pmc_inline_func.h

; 220  :         return (_addcarry_u32(carry, u, v, w));

	adc	eax, DWORD PTR [edi+48]
	mov	DWORD PTR [esi+48], eax
; File z:\sources\lunor\repos\rougemeilland\palmtree.math.core.uint\palmtree.math.core.uint\autogenerated_inline_func.h

; 1067 :     c = _ADD_UNIT_DIV(c, xp[13], yp[13], &zp[13]);

	mov	eax, DWORD PTR [esi+52]
; File z:\sources\lunor\repos\rougemeilland\palmtree.math.core.uint\palmtree.math.core.uint\pmc_inline_func.h

; 220  :         return (_addcarry_u32(carry, u, v, w));

	adc	eax, DWORD PTR [edi+52]
	mov	DWORD PTR [esi+52], eax
; File z:\sources\lunor\repos\rougemeilland\palmtree.math.core.uint\palmtree.math.core.uint\autogenerated_inline_func.h

; 1068 :     c = _ADD_UNIT_DIV(c, xp[14], yp[14], &zp[14]);

	mov	eax, DWORD PTR [esi+56]
; File z:\sources\lunor\repos\rougemeilland\palmtree.math.core.uint\palmtree.math.core.uint\pmc_inline_func.h

; 220  :         return (_addcarry_u32(carry, u, v, w));

	adc	eax, DWORD PTR [edi+56]
	mov	DWORD PTR [esi+56], eax
; File z:\sources\lunor\repos\rougemeilland\palmtree.math.core.uint\palmtree.math.core.uint\autogenerated_inline_func.h

; 1069 :     c = _ADD_UNIT_DIV(c, xp[15], yp[15], &zp[15]);

	mov	eax, DWORD PTR [esi+60]
; File z:\sources\lunor\repos\rougemeilland\palmtree.math.core.uint\palmtree.math.core.uint\pmc_inline_func.h

; 220  :         return (_addcarry_u32(carry, u, v, w));

	adc	eax, DWORD PTR [edi+60]
	mov	DWORD PTR [esi+60], eax
; File z:\sources\lunor\repos\rougemeilland\palmtree.math.core.uint\palmtree.math.core.uint\autogenerated_inline_func.h

; 1070 :     c = _ADD_UNIT_DIV(c, xp[16], yp[16], &zp[16]);

	mov	eax, DWORD PTR [esi+64]
; File z:\sources\lunor\repos\rougemeilland\palmtree.math.core.uint\palmtree.math.core.uint\pmc_inline_func.h

; 220  :         return (_addcarry_u32(carry, u, v, w));

	adc	eax, DWORD PTR [edi+64]
	mov	DWORD PTR [esi+64], eax
; File z:\sources\lunor\repos\rougemeilland\palmtree.math.core.uint\palmtree.math.core.uint\autogenerated_inline_func.h

; 1071 :     c = _ADD_UNIT_DIV(c, xp[17], yp[17], &zp[17]);

	mov	eax, DWORD PTR [esi+68]
; File z:\sources\lunor\repos\rougemeilland\palmtree.math.core.uint\palmtree.math.core.uint\pmc_inline_func.h

; 220  :         return (_addcarry_u32(carry, u, v, w));

	adc	eax, DWORD PTR [edi+68]
	mov	DWORD PTR [esi+68], eax
; File z:\sources\lunor\repos\rougemeilland\palmtree.math.core.uint\palmtree.math.core.uint\autogenerated_inline_func.h

; 1072 :     c = _ADD_UNIT_DIV(c, xp[18], yp[18], &zp[18]);

	mov	eax, DWORD PTR [esi+72]
; File z:\sources\lunor\repos\rougemeilland\palmtree.math.core.uint\palmtree.math.core.uint\pmc_inline_func.h

; 220  :         return (_addcarry_u32(carry, u, v, w));

	adc	eax, DWORD PTR [edi+72]
	mov	DWORD PTR [esi+72], eax
; File z:\sources\lunor\repos\rougemeilland\palmtree.math.core.uint\palmtree.math.core.uint\autogenerated_inline_func.h

; 1073 :     c = _ADD_UNIT_DIV(c, xp[19], yp[19], &zp[19]);

	mov	eax, DWORD PTR [esi+76]
; File z:\sources\lunor\repos\rougemeilland\palmtree.math.core.uint\palmtree.math.core.uint\pmc_inline_func.h

; 220  :         return (_addcarry_u32(carry, u, v, w));

	adc	eax, DWORD PTR [edi+76]
	mov	DWORD PTR [esi+76], eax
; File z:\sources\lunor\repos\rougemeilland\palmtree.math.core.uint\palmtree.math.core.uint\autogenerated_inline_func.h

; 1074 :     c = _ADD_UNIT_DIV(c, xp[20], yp[20], &zp[20]);

	mov	eax, DWORD PTR [esi+80]
; File z:\sources\lunor\repos\rougemeilland\palmtree.math.core.uint\palmtree.math.core.uint\pmc_inline_func.h

; 220  :         return (_addcarry_u32(carry, u, v, w));

	adc	eax, DWORD PTR [edi+80]
	mov	DWORD PTR [esi+80], eax
; File z:\sources\lunor\repos\rougemeilland\palmtree.math.core.uint\palmtree.math.core.uint\autogenerated_inline_func.h

; 1075 :     c = _ADD_UNIT_DIV(c, xp[21], yp[21], &zp[21]);

	mov	eax, DWORD PTR [esi+84]
; File z:\sources\lunor\repos\rougemeilland\palmtree.math.core.uint\palmtree.math.core.uint\pmc_inline_func.h

; 220  :         return (_addcarry_u32(carry, u, v, w));

	adc	eax, DWORD PTR [edi+84]
	mov	DWORD PTR [esi+84], eax
; File z:\sources\lunor\repos\rougemeilland\palmtree.math.core.uint\palmtree.math.core.uint\autogenerated_inline_func.h

; 1076 :     c = _ADD_UNIT_DIV(c, xp[22], yp[22], &zp[22]);

	mov	eax, DWORD PTR [esi+88]
; File z:\sources\lunor\repos\rougemeilland\palmtree.math.core.uint\palmtree.math.core.uint\pmc_inline_func.h

; 220  :         return (_addcarry_u32(carry, u, v, w));

	adc	eax, DWORD PTR [edi+88]
	mov	DWORD PTR [esi+88], eax
; File z:\sources\lunor\repos\rougemeilland\palmtree.math.core.uint\palmtree.math.core.uint\autogenerated_inline_func.h

; 1077 :     c = _ADD_UNIT_DIV(c, xp[23], yp[23], &zp[23]);

	mov	eax, DWORD PTR [esi+92]
; File z:\sources\lunor\repos\rougemeilland\palmtree.math.core.uint\palmtree.math.core.uint\pmc_inline_func.h

; 220  :         return (_addcarry_u32(carry, u, v, w));

	adc	eax, DWORD PTR [edi+92]
	mov	DWORD PTR [esi+92], eax
; File z:\sources\lunor\repos\rougemeilland\palmtree.math.core.uint\palmtree.math.core.uint\autogenerated_inline_func.h

; 1078 :     c = _ADD_UNIT_DIV(c, xp[24], yp[24], &zp[24]);

	mov	eax, DWORD PTR [esi+96]
; File z:\sources\lunor\repos\rougemeilland\palmtree.math.core.uint\palmtree.math.core.uint\pmc_inline_func.h

; 220  :         return (_addcarry_u32(carry, u, v, w));

	adc	eax, DWORD PTR [edi+96]
	mov	DWORD PTR [esi+96], eax
; File z:\sources\lunor\repos\rougemeilland\palmtree.math.core.uint\palmtree.math.core.uint\autogenerated_inline_func.h

; 1079 :     c = _ADD_UNIT_DIV(c, xp[25], yp[25], &zp[25]);

	mov	eax, DWORD PTR [esi+100]
; File z:\sources\lunor\repos\rougemeilland\palmtree.math.core.uint\palmtree.math.core.uint\pmc_inline_func.h

; 220  :         return (_addcarry_u32(carry, u, v, w));

	adc	eax, DWORD PTR [edi+100]
	mov	DWORD PTR [esi+100], eax
; File z:\sources\lunor\repos\rougemeilland\palmtree.math.core.uint\palmtree.math.core.uint\autogenerated_inline_func.h

; 1080 :     c = _ADD_UNIT_DIV(c, xp[26], yp[26], &zp[26]);

	mov	eax, DWORD PTR [esi+104]
; File z:\sources\lunor\repos\rougemeilland\palmtree.math.core.uint\palmtree.math.core.uint\pmc_inline_func.h

; 220  :         return (_addcarry_u32(carry, u, v, w));

	adc	eax, DWORD PTR [edi+104]
	mov	DWORD PTR [esi+104], eax
; File z:\sources\lunor\repos\rougemeilland\palmtree.math.core.uint\palmtree.math.core.uint\autogenerated_inline_func.h

; 1081 :     c = _ADD_UNIT_DIV(c, xp[27], yp[27], &zp[27]);

	mov	eax, DWORD PTR [esi+108]
; File z:\sources\lunor\repos\rougemeilland\palmtree.math.core.uint\palmtree.math.core.uint\pmc_inline_func.h

; 220  :         return (_addcarry_u32(carry, u, v, w));

	adc	eax, DWORD PTR [edi+108]
	mov	DWORD PTR [esi+108], eax
; File z:\sources\lunor\repos\rougemeilland\palmtree.math.core.uint\palmtree.math.core.uint\autogenerated_inline_func.h

; 1082 :     c = _ADD_UNIT_DIV(c, xp[28], yp[28], &zp[28]);

	mov	eax, DWORD PTR [esi+112]
; File z:\sources\lunor\repos\rougemeilland\palmtree.math.core.uint\palmtree.math.core.uint\pmc_inline_func.h

; 220  :         return (_addcarry_u32(carry, u, v, w));

	adc	eax, DWORD PTR [edi+112]
	mov	DWORD PTR [esi+112], eax
; File z:\sources\lunor\repos\rougemeilland\palmtree.math.core.uint\palmtree.math.core.uint\autogenerated_inline_func.h

; 1083 :     c = _ADD_UNIT_DIV(c, xp[29], yp[29], &zp[29]);

	mov	eax, DWORD PTR [esi+116]
; File z:\sources\lunor\repos\rougemeilland\palmtree.math.core.uint\palmtree.math.core.uint\pmc_inline_func.h

; 220  :         return (_addcarry_u32(carry, u, v, w));

	adc	eax, DWORD PTR [edi+116]
	mov	DWORD PTR [esi+116], eax
; File z:\sources\lunor\repos\rougemeilland\palmtree.math.core.uint\palmtree.math.core.uint\autogenerated_inline_func.h

; 1084 :     c = _ADD_UNIT_DIV(c, xp[30], yp[30], &zp[30]);

	mov	eax, DWORD PTR [esi+120]
; File z:\sources\lunor\repos\rougemeilland\palmtree.math.core.uint\palmtree.math.core.uint\pmc_inline_func.h

; 220  :         return (_addcarry_u32(carry, u, v, w));

	adc	eax, DWORD PTR [edi+120]
	mov	DWORD PTR [esi+120], eax
; File z:\sources\lunor\repos\rougemeilland\palmtree.math.core.uint\palmtree.math.core.uint\autogenerated_inline_func.h

; 1085 :     c = _ADD_UNIT_DIV(c, xp[31], yp[31], &zp[31]);

	mov	eax, DWORD PTR [esi+124]
; File z:\sources\lunor\repos\rougemeilland\palmtree.math.core.uint\palmtree.math.core.uint\pmc_inline_func.h

; 220  :         return (_addcarry_u32(carry, u, v, w));

	adc	eax, DWORD PTR [edi+124]
	mov	DWORD PTR [esi+124], eax
	setb	dl
; File z:\sources\lunor\repos\rougemeilland\palmtree.math.core.uint\palmtree.math.core.uint\pmc_divrem.c

; 788  :         u_ptr += 32;

	sub	esi, -128				; ffffff80H

; 789  :         v_ptr += 32;

	sub	edi, -128				; ffffff80H
	mov	BYTE PTR _c$[ebp], dl

; 790  :         --count;

	sub	ecx, 1
	jne	$LL2@AddOneLine
$LN3@AddOneLine:

; 791  :     }
; 792  :     // この時点で未処理の桁は 32 ワード未満のはず
; 793  : 
; 794  :     // 未処理の桁が 16 ワード以上あるなら 16 ワード加算を行う。
; 795  :     if (v_count & 0x10)

	test	bl, 16					; 00000010H
	je	SHORT $LN4@AddOneLine

; 796  :     {
; 797  :         c = _ADD_16WORDS_ADC_DIV(c, u_ptr, v_ptr, u_ptr);

	push	esi
	push	edi
	push	esi
	push	DWORD PTR _c$[ebp]
	call	__ADD_16WORDS_ADC_DIV
	add	esp, 16					; 00000010H

; 798  :         u_ptr += 16;

	add	esi, 64					; 00000040H
	mov	dl, al

; 799  :         v_ptr += 16;

	add	edi, 64					; 00000040H
$LN4@AddOneLine:

; 800  :     }
; 801  :     // この時点で未処理の桁は 16 ワード未満のはず
; 802  : 
; 803  :     // 未処理の桁が 8 ワード以上あるなら 8 ワード加算を行う。
; 804  :     if (v_count & 0x8)

	test	bl, 8
	je	SHORT $LN5@AddOneLine
; File z:\sources\lunor\repos\rougemeilland\palmtree.math.core.uint\palmtree.math.core.uint\autogenerated_inline_func.h

; 3534 :     c = _ADD_UNIT_DIV(c, xp[0], yp[0], &zp[0]);

	mov	ecx, DWORD PTR [esi]
; File z:\sources\lunor\repos\rougemeilland\palmtree.math.core.uint\palmtree.math.core.uint\pmc_inline_func.h

; 220  :         return (_addcarry_u32(carry, u, v, w));

	add	dl, 255					; 000000ffH
	adc	ecx, DWORD PTR [edi]
	mov	DWORD PTR [esi], ecx
; File z:\sources\lunor\repos\rougemeilland\palmtree.math.core.uint\palmtree.math.core.uint\autogenerated_inline_func.h

; 3535 :     c = _ADD_UNIT_DIV(c, xp[1], yp[1], &zp[1]);

	mov	eax, DWORD PTR [esi+4]
; File z:\sources\lunor\repos\rougemeilland\palmtree.math.core.uint\palmtree.math.core.uint\pmc_inline_func.h

; 220  :         return (_addcarry_u32(carry, u, v, w));

	adc	eax, DWORD PTR [edi+4]
	mov	DWORD PTR [esi+4], eax
; File z:\sources\lunor\repos\rougemeilland\palmtree.math.core.uint\palmtree.math.core.uint\autogenerated_inline_func.h

; 3536 :     c = _ADD_UNIT_DIV(c, xp[2], yp[2], &zp[2]);

	mov	eax, DWORD PTR [esi+8]
; File z:\sources\lunor\repos\rougemeilland\palmtree.math.core.uint\palmtree.math.core.uint\pmc_inline_func.h

; 220  :         return (_addcarry_u32(carry, u, v, w));

	adc	eax, DWORD PTR [edi+8]
	mov	DWORD PTR [esi+8], eax
; File z:\sources\lunor\repos\rougemeilland\palmtree.math.core.uint\palmtree.math.core.uint\autogenerated_inline_func.h

; 3537 :     c = _ADD_UNIT_DIV(c, xp[3], yp[3], &zp[3]);

	mov	eax, DWORD PTR [esi+12]
; File z:\sources\lunor\repos\rougemeilland\palmtree.math.core.uint\palmtree.math.core.uint\pmc_inline_func.h

; 220  :         return (_addcarry_u32(carry, u, v, w));

	adc	eax, DWORD PTR [edi+12]
	mov	DWORD PTR [esi+12], eax
; File z:\sources\lunor\repos\rougemeilland\palmtree.math.core.uint\palmtree.math.core.uint\autogenerated_inline_func.h

; 3538 :     c = _ADD_UNIT_DIV(c, xp[4], yp[4], &zp[4]);

	mov	eax, DWORD PTR [esi+16]
; File z:\sources\lunor\repos\rougemeilland\palmtree.math.core.uint\palmtree.math.core.uint\pmc_inline_func.h

; 220  :         return (_addcarry_u32(carry, u, v, w));

	adc	eax, DWORD PTR [edi+16]
	mov	DWORD PTR [esi+16], eax
; File z:\sources\lunor\repos\rougemeilland\palmtree.math.core.uint\palmtree.math.core.uint\autogenerated_inline_func.h

; 3539 :     c = _ADD_UNIT_DIV(c, xp[5], yp[5], &zp[5]);

	mov	eax, DWORD PTR [esi+20]
; File z:\sources\lunor\repos\rougemeilland\palmtree.math.core.uint\palmtree.math.core.uint\pmc_inline_func.h

; 220  :         return (_addcarry_u32(carry, u, v, w));

	adc	eax, DWORD PTR [edi+20]
	mov	DWORD PTR [esi+20], eax
; File z:\sources\lunor\repos\rougemeilland\palmtree.math.core.uint\palmtree.math.core.uint\autogenerated_inline_func.h

; 3540 :     c = _ADD_UNIT_DIV(c, xp[6], yp[6], &zp[6]);

	mov	eax, DWORD PTR [esi+24]
; File z:\sources\lunor\repos\rougemeilland\palmtree.math.core.uint\palmtree.math.core.uint\pmc_inline_func.h

; 220  :         return (_addcarry_u32(carry, u, v, w));

	adc	eax, DWORD PTR [edi+24]
	mov	DWORD PTR [esi+24], eax
; File z:\sources\lunor\repos\rougemeilland\palmtree.math.core.uint\palmtree.math.core.uint\autogenerated_inline_func.h

; 3541 :     c = _ADD_UNIT_DIV(c, xp[7], yp[7], &zp[7]);

	mov	eax, DWORD PTR [esi+28]
; File z:\sources\lunor\repos\rougemeilland\palmtree.math.core.uint\palmtree.math.core.uint\pmc_inline_func.h

; 220  :         return (_addcarry_u32(carry, u, v, w));

	adc	eax, DWORD PTR [edi+28]
	mov	DWORD PTR [esi+28], eax
	setb	dl
; File z:\sources\lunor\repos\rougemeilland\palmtree.math.core.uint\palmtree.math.core.uint\pmc_divrem.c

; 807  :         u_ptr += 8;

	add	esi, 32					; 00000020H

; 808  :         v_ptr += 8;

	add	edi, 32					; 00000020H
$LN5@AddOneLine:

; 809  :     }
; 810  :     // この時点で未処理の桁は 8 ワード未満のはず
; 811  : 
; 812  :     // 未処理の桁が 4 ワード以上あるなら 4 ワード加算を行う。
; 813  :     if (v_count & 0x4)

	test	bl, 4
	je	SHORT $LN6@AddOneLine
; File z:\sources\lunor\repos\rougemeilland\palmtree.math.core.uint\palmtree.math.core.uint\autogenerated_inline_func.h

; 4102 :     c = _ADD_UNIT_DIV(c, xp[0], yp[0], &zp[0]);

	mov	eax, DWORD PTR [esi]
; File z:\sources\lunor\repos\rougemeilland\palmtree.math.core.uint\palmtree.math.core.uint\pmc_inline_func.h

; 220  :         return (_addcarry_u32(carry, u, v, w));

	add	dl, 255					; 000000ffH
	adc	eax, DWORD PTR [edi]
	mov	DWORD PTR [esi], eax
; File z:\sources\lunor\repos\rougemeilland\palmtree.math.core.uint\palmtree.math.core.uint\autogenerated_inline_func.h

; 4103 :     c = _ADD_UNIT_DIV(c, xp[1], yp[1], &zp[1]);

	mov	eax, DWORD PTR [esi+4]
; File z:\sources\lunor\repos\rougemeilland\palmtree.math.core.uint\palmtree.math.core.uint\pmc_inline_func.h

; 220  :         return (_addcarry_u32(carry, u, v, w));

	adc	eax, DWORD PTR [edi+4]
	mov	DWORD PTR [esi+4], eax
; File z:\sources\lunor\repos\rougemeilland\palmtree.math.core.uint\palmtree.math.core.uint\autogenerated_inline_func.h

; 4104 :     c = _ADD_UNIT_DIV(c, xp[2], yp[2], &zp[2]);

	mov	eax, DWORD PTR [esi+8]
; File z:\sources\lunor\repos\rougemeilland\palmtree.math.core.uint\palmtree.math.core.uint\pmc_inline_func.h

; 220  :         return (_addcarry_u32(carry, u, v, w));

	adc	eax, DWORD PTR [edi+8]
	mov	DWORD PTR [esi+8], eax
; File z:\sources\lunor\repos\rougemeilland\palmtree.math.core.uint\palmtree.math.core.uint\autogenerated_inline_func.h

; 4105 :     c = _ADD_UNIT_DIV(c, xp[3], yp[3], &zp[3]);

	mov	eax, DWORD PTR [esi+12]
; File z:\sources\lunor\repos\rougemeilland\palmtree.math.core.uint\palmtree.math.core.uint\pmc_inline_func.h

; 220  :         return (_addcarry_u32(carry, u, v, w));

	adc	eax, DWORD PTR [edi+12]
	mov	DWORD PTR [esi+12], eax
	setb	dl
; File z:\sources\lunor\repos\rougemeilland\palmtree.math.core.uint\palmtree.math.core.uint\pmc_divrem.c

; 816  :         u_ptr += 4;

	add	esi, 16					; 00000010H

; 817  :         v_ptr += 4;

	add	edi, 16					; 00000010H
$LN6@AddOneLine:

; 818  :     }
; 819  :     // この時点で未処理の桁は 4 ワード未満のはず
; 820  : 
; 821  :     // 未処理の桁が 2 ワード以上あるなら 2 ワード加算を行う。
; 822  :     if (v_count & 0x2)

	test	bl, 2
	je	SHORT $LN7@AddOneLine
; File z:\sources\lunor\repos\rougemeilland\palmtree.math.core.uint\palmtree.math.core.uint\autogenerated_inline_func.h

; 4502 :     c = _ADD_UNIT_DIV(c, xp[0], yp[0], &zp[0]);

	mov	eax, DWORD PTR [esi]
; File z:\sources\lunor\repos\rougemeilland\palmtree.math.core.uint\palmtree.math.core.uint\pmc_inline_func.h

; 220  :         return (_addcarry_u32(carry, u, v, w));

	add	dl, 255					; 000000ffH
	adc	eax, DWORD PTR [edi]
	mov	DWORD PTR [esi], eax
; File z:\sources\lunor\repos\rougemeilland\palmtree.math.core.uint\palmtree.math.core.uint\autogenerated_inline_func.h

; 4503 :     c = _ADD_UNIT_DIV(c, xp[1], yp[1], &zp[1]);

	mov	eax, DWORD PTR [esi+4]
; File z:\sources\lunor\repos\rougemeilland\palmtree.math.core.uint\palmtree.math.core.uint\pmc_inline_func.h

; 220  :         return (_addcarry_u32(carry, u, v, w));

	adc	eax, DWORD PTR [edi+4]
	mov	DWORD PTR [esi+4], eax
	setb	dl
; File z:\sources\lunor\repos\rougemeilland\palmtree.math.core.uint\palmtree.math.core.uint\pmc_divrem.c

; 825  :         u_ptr += 2;

	add	esi, 8

; 826  :         v_ptr += 2;

	add	edi, 8
$LN7@AddOneLine:

; 827  :     }
; 828  :     // この時点で未処理の桁は 2 ワード未満のはず
; 829  : 
; 830  :     // 未処理の桁が 1 ワード以上あるなら 1 ワード加算を行う。
; 831  :     if (v_count & 0x1)

	test	bl, 1
	je	SHORT $LN8@AddOneLine

; 832  :     {
; 833  :         c = _ADD_UNIT_DIV(c, *u_ptr, *v_ptr, u_ptr);

	mov	eax, DWORD PTR [esi]
; File z:\sources\lunor\repos\rougemeilland\palmtree.math.core.uint\palmtree.math.core.uint\pmc_inline_func.h

; 220  :         return (_addcarry_u32(carry, u, v, w));

	add	dl, 255					; 000000ffH
	adc	eax, DWORD PTR [edi]
	mov	DWORD PTR [esi], eax
	setb	dl
; File z:\sources\lunor\repos\rougemeilland\palmtree.math.core.uint\palmtree.math.core.uint\pmc_divrem.c

; 834  :         ++u_ptr;

	add	esi, 4
$LN8@AddOneLine:

; 835  :         ++v_ptr;
; 836  :     }
; 837  : 
; 838  :     // 残りの桁の繰り上がりを計算する。
; 839  :     DoCarry(c, u_ptr, u_buf + u_buf_len + 1 - u_ptr);

	mov	eax, DWORD PTR _u_buf_len$[ebp]
	lea	ecx, DWORD PTR [eax*4+4]
	sub	ecx, esi
	add	ecx, DWORD PTR _u_buf$[ebp]
	sar	ecx, 2

; 752  :         if (u_count <= 0)

	test	ecx, ecx
	je	SHORT $LN131@AddOneLine
	npad	7
$LL113@AddOneLine:

; 753  :         {
; 754  :             // u の最上位まで達してしまった場合
; 755  :             return;
; 756  :         }
; 757  :         else if (c)

	test	dl, dl
	je	SHORT $LN131@AddOneLine

; 758  :         {
; 759  :             // u の最上位に達しておらず、かつキャリーが立っている場合
; 760  : 
; 761  :             // 繰り上がりを継続する
; 762  :             c = _ADD_UNIT_DIV(c, *u_ptr, 0, u_ptr);

	mov	eax, DWORD PTR [esi]
; File z:\sources\lunor\repos\rougemeilland\palmtree.math.core.uint\palmtree.math.core.uint\pmc_inline_func.h

; 220  :         return (_addcarry_u32(carry, u, v, w));

	add	dl, 255					; 000000ffH
	adc	eax, 0
	mov	DWORD PTR [esi], eax
	setb	dl
; File z:\sources\lunor\repos\rougemeilland\palmtree.math.core.uint\palmtree.math.core.uint\pmc_divrem.c

; 763  :             ++u_ptr;

	add	esi, 4

; 764  :             --u_count;

	sub	ecx, 1
	jne	SHORT $LL113@AddOneLine
$LN131@AddOneLine:
	pop	edi

; 840  : }

	pop	esi
	pop	ebx
	pop	ebp
	ret	0
_AddOneLine ENDP
_TEXT	ENDS
; Function compile flags: /Ogtp
; File z:\sources\lunor\repos\rougemeilland\palmtree.math.core.uint\palmtree.math.core.uint\pmc_divrem.c
; File z:\sources\lunor\repos\rougemeilland\palmtree.math.core.uint\palmtree.math.core.uint\pmc_inline_func.h
; File z:\sources\lunor\repos\rougemeilland\palmtree.math.core.uint\palmtree.math.core.uint\pmc_divrem.c
;	COMDAT _DoCarry
_TEXT	SEGMENT
_c$ = 8							; size = 1
_u_ptr$ = 12						; size = 4
_u_count$ = 16						; size = 4
_DoCarry PROC						; COMDAT

; 748  : {

	push	ebp
	mov	ebp, esp
	push	esi

; 749  :     // 繰り上がりを続く限り行う
; 750  :     for (;;)
; 751  :     {
; 752  :         if (u_count <= 0)

	mov	esi, DWORD PTR _u_count$[ebp]
	test	esi, esi
	je	SHORT $LN16@DoCarry
	mov	edx, DWORD PTR _u_ptr$[ebp]
	mov	al, BYTE PTR _c$[ebp]
$LL2@DoCarry:

; 753  :         {
; 754  :             // u の最上位まで達してしまった場合
; 755  :             return;
; 756  :         }
; 757  :         else if (c)

	test	al, al
	je	SHORT $LN16@DoCarry

; 758  :         {
; 759  :             // u の最上位に達しておらず、かつキャリーが立っている場合
; 760  : 
; 761  :             // 繰り上がりを継続する
; 762  :             c = _ADD_UNIT_DIV(c, *u_ptr, 0, u_ptr);

	mov	ecx, DWORD PTR [edx]
; File z:\sources\lunor\repos\rougemeilland\palmtree.math.core.uint\palmtree.math.core.uint\pmc_inline_func.h

; 220  :         return (_addcarry_u32(carry, u, v, w));

	add	al, 255					; 000000ffH
	adc	ecx, 0
	mov	DWORD PTR [edx], ecx
	setb	al
; File z:\sources\lunor\repos\rougemeilland\palmtree.math.core.uint\palmtree.math.core.uint\pmc_divrem.c

; 763  :             ++u_ptr;

	add	edx, 4

; 764  :             --u_count;

	sub	esi, 1
	jne	SHORT $LL2@DoCarry
$LN16@DoCarry:
	pop	esi

; 765  :         }
; 766  :         else
; 767  :         {
; 768  :             // u の最上位に達しておらず、かつキャリーが立っていない場合
; 769  : 
; 770  :             // 繰り上がりを中断し、復帰する。
; 771  :             return;
; 772  :         }
; 773  :     }
; 774  : }

	pop	ebp
	ret	0
_DoCarry ENDP
_TEXT	ENDS
; Function compile flags: /Ogtp
; File z:\sources\lunor\repos\rougemeilland\palmtree.math.core.uint\palmtree.math.core.uint\pmc_divrem.c
; File z:\sources\lunor\repos\rougemeilland\palmtree.math.core.uint\palmtree.math.core.uint\pmc_inline_func.h
; File z:\sources\lunor\repos\rougemeilland\palmtree.math.core.uint\palmtree.math.core.uint\pmc_divrem.c
; File z:\sources\lunor\repos\rougemeilland\palmtree.math.core.uint\palmtree.math.core.uint\pmc_inline_func.h
; File z:\sources\lunor\repos\rougemeilland\palmtree.math.core.uint\palmtree.math.core.uint\pmc_divrem.c
; File z:\sources\lunor\repos\rougemeilland\palmtree.math.core.uint\palmtree.math.core.uint\pmc_inline_func.h
; File z:\sources\lunor\repos\rougemeilland\palmtree.math.core.uint\palmtree.math.core.uint\pmc_divrem.c
; File z:\sources\lunor\repos\rougemeilland\palmtree.math.core.uint\palmtree.math.core.uint\pmc_inline_func.h
; File z:\sources\lunor\repos\rougemeilland\palmtree.math.core.uint\palmtree.math.core.uint\pmc_divrem.c
; File z:\sources\lunor\repos\rougemeilland\palmtree.math.core.uint\palmtree.math.core.uint\pmc_inline_func.h
; File z:\sources\lunor\repos\rougemeilland\palmtree.math.core.uint\palmtree.math.core.uint\pmc_divrem.c
; File z:\sources\lunor\repos\rougemeilland\palmtree.math.core.uint\palmtree.math.core.uint\pmc_inline_func.h
; File z:\sources\lunor\repos\rougemeilland\palmtree.math.core.uint\palmtree.math.core.uint\pmc_divrem.c
; File z:\sources\lunor\repos\rougemeilland\palmtree.math.core.uint\palmtree.math.core.uint\pmc_inline_func.h
; File z:\sources\lunor\repos\rougemeilland\palmtree.math.core.uint\palmtree.math.core.uint\pmc_divrem.c
; File z:\sources\lunor\repos\rougemeilland\palmtree.math.core.uint\palmtree.math.core.uint\pmc_inline_func.h
; File z:\sources\lunor\repos\rougemeilland\palmtree.math.core.uint\palmtree.math.core.uint\pmc_divrem.c
; File z:\sources\lunor\repos\rougemeilland\palmtree.math.core.uint\palmtree.math.core.uint\pmc_inline_func.h
; File z:\sources\lunor\repos\rougemeilland\palmtree.math.core.uint\palmtree.math.core.uint\pmc_divrem.c
; File z:\sources\lunor\repos\rougemeilland\palmtree.math.core.uint\palmtree.math.core.uint\pmc_inline_func.h
; File z:\sources\lunor\repos\rougemeilland\palmtree.math.core.uint\palmtree.math.core.uint\pmc_divrem.c
; File z:\sources\lunor\repos\rougemeilland\palmtree.math.core.uint\palmtree.math.core.uint\pmc_inline_func.h
; File z:\sources\lunor\repos\rougemeilland\palmtree.math.core.uint\palmtree.math.core.uint\pmc_divrem.c
; File z:\sources\lunor\repos\rougemeilland\palmtree.math.core.uint\palmtree.math.core.uint\pmc_inline_func.h
; File z:\sources\lunor\repos\rougemeilland\palmtree.math.core.uint\palmtree.math.core.uint\pmc_divrem.c
; File z:\sources\lunor\repos\rougemeilland\palmtree.math.core.uint\palmtree.math.core.uint\pmc_inline_func.h
; File z:\sources\lunor\repos\rougemeilland\palmtree.math.core.uint\palmtree.math.core.uint\pmc_divrem.c
; File z:\sources\lunor\repos\rougemeilland\palmtree.math.core.uint\palmtree.math.core.uint\pmc_inline_func.h
; File z:\sources\lunor\repos\rougemeilland\palmtree.math.core.uint\palmtree.math.core.uint\pmc_divrem.c
; File z:\sources\lunor\repos\rougemeilland\palmtree.math.core.uint\palmtree.math.core.uint\pmc_inline_func.h
; File z:\sources\lunor\repos\rougemeilland\palmtree.math.core.uint\palmtree.math.core.uint\pmc_divrem.c
; File z:\sources\lunor\repos\rougemeilland\palmtree.math.core.uint\palmtree.math.core.uint\pmc_inline_func.h
; File z:\sources\lunor\repos\rougemeilland\palmtree.math.core.uint\palmtree.math.core.uint\pmc_divrem.c
; File z:\sources\lunor\repos\rougemeilland\palmtree.math.core.uint\palmtree.math.core.uint\pmc_inline_func.h
; File z:\sources\lunor\repos\rougemeilland\palmtree.math.core.uint\palmtree.math.core.uint\pmc_divrem.c
; File z:\sources\lunor\repos\rougemeilland\palmtree.math.core.uint\palmtree.math.core.uint\pmc_inline_func.h
; File z:\sources\lunor\repos\rougemeilland\palmtree.math.core.uint\palmtree.math.core.uint\pmc_divrem.c
; File z:\sources\lunor\repos\rougemeilland\palmtree.math.core.uint\palmtree.math.core.uint\pmc_inline_func.h
; File z:\sources\lunor\repos\rougemeilland\palmtree.math.core.uint\palmtree.math.core.uint\pmc_divrem.c
; File z:\sources\lunor\repos\rougemeilland\palmtree.math.core.uint\palmtree.math.core.uint\pmc_inline_func.h
; File z:\sources\lunor\repos\rougemeilland\palmtree.math.core.uint\palmtree.math.core.uint\pmc_divrem.c
; File z:\sources\lunor\repos\rougemeilland\palmtree.math.core.uint\palmtree.math.core.uint\pmc_inline_func.h
; File z:\sources\lunor\repos\rougemeilland\palmtree.math.core.uint\palmtree.math.core.uint\pmc_divrem.c
; File z:\sources\lunor\repos\rougemeilland\palmtree.math.core.uint\palmtree.math.core.uint\pmc_inline_func.h
; File z:\sources\lunor\repos\rougemeilland\palmtree.math.core.uint\palmtree.math.core.uint\pmc_divrem.c
; File z:\sources\lunor\repos\rougemeilland\palmtree.math.core.uint\palmtree.math.core.uint\pmc_inline_func.h
; File z:\sources\lunor\repos\rougemeilland\palmtree.math.core.uint\palmtree.math.core.uint\pmc_divrem.c
; File z:\sources\lunor\repos\rougemeilland\palmtree.math.core.uint\palmtree.math.core.uint\pmc_inline_func.h
; File z:\sources\lunor\repos\rougemeilland\palmtree.math.core.uint\palmtree.math.core.uint\pmc_divrem.c
; File z:\sources\lunor\repos\rougemeilland\palmtree.math.core.uint\palmtree.math.core.uint\pmc_inline_func.h
; File z:\sources\lunor\repos\rougemeilland\palmtree.math.core.uint\palmtree.math.core.uint\pmc_divrem.c
; File z:\sources\lunor\repos\rougemeilland\palmtree.math.core.uint\palmtree.math.core.uint\pmc_inline_func.h
; File z:\sources\lunor\repos\rougemeilland\palmtree.math.core.uint\palmtree.math.core.uint\pmc_divrem.c
; File z:\sources\lunor\repos\rougemeilland\palmtree.math.core.uint\palmtree.math.core.uint\pmc_inline_func.h
; File z:\sources\lunor\repos\rougemeilland\palmtree.math.core.uint\palmtree.math.core.uint\pmc_divrem.c
; File z:\sources\lunor\repos\rougemeilland\palmtree.math.core.uint\palmtree.math.core.uint\pmc_inline_func.h
; File z:\sources\lunor\repos\rougemeilland\palmtree.math.core.uint\palmtree.math.core.uint\pmc_divrem.c
; File z:\sources\lunor\repos\rougemeilland\palmtree.math.core.uint\palmtree.math.core.uint\pmc_inline_func.h
; File z:\sources\lunor\repos\rougemeilland\palmtree.math.core.uint\palmtree.math.core.uint\pmc_divrem.c
; File z:\sources\lunor\repos\rougemeilland\palmtree.math.core.uint\palmtree.math.core.uint\pmc_inline_func.h
; File z:\sources\lunor\repos\rougemeilland\palmtree.math.core.uint\palmtree.math.core.uint\pmc_divrem.c
; File z:\sources\lunor\repos\rougemeilland\palmtree.math.core.uint\palmtree.math.core.uint\pmc_inline_func.h
; File z:\sources\lunor\repos\rougemeilland\palmtree.math.core.uint\palmtree.math.core.uint\pmc_divrem.c
; File z:\sources\lunor\repos\rougemeilland\palmtree.math.core.uint\palmtree.math.core.uint\pmc_inline_func.h
; File z:\sources\lunor\repos\rougemeilland\palmtree.math.core.uint\palmtree.math.core.uint\pmc_divrem.c
; File z:\sources\lunor\repos\rougemeilland\palmtree.math.core.uint\palmtree.math.core.uint\pmc_inline_func.h
; File z:\sources\lunor\repos\rougemeilland\palmtree.math.core.uint\palmtree.math.core.uint\pmc_divrem.c
; File z:\sources\lunor\repos\rougemeilland\palmtree.math.core.uint\palmtree.math.core.uint\pmc_inline_func.h
; File z:\sources\lunor\repos\rougemeilland\palmtree.math.core.uint\palmtree.math.core.uint\pmc_divrem.c
; File z:\sources\lunor\repos\rougemeilland\palmtree.math.core.uint\palmtree.math.core.uint\pmc_inline_func.h
; File z:\sources\lunor\repos\rougemeilland\palmtree.math.core.uint\palmtree.math.core.uint\pmc_divrem.c
; File z:\sources\lunor\repos\rougemeilland\palmtree.math.core.uint\palmtree.math.core.uint\pmc_inline_func.h
; File z:\sources\lunor\repos\rougemeilland\palmtree.math.core.uint\palmtree.math.core.uint\pmc_divrem.c
; File z:\sources\lunor\repos\rougemeilland\palmtree.math.core.uint\palmtree.math.core.uint\pmc_inline_func.h
; File z:\sources\lunor\repos\rougemeilland\palmtree.math.core.uint\palmtree.math.core.uint\pmc_uint_internal.h
; File z:\sources\lunor\repos\rougemeilland\palmtree.math.core.uint\palmtree.math.core.uint\pmc_inline_func.h
; File z:\sources\lunor\repos\rougemeilland\palmtree.math.core.uint\palmtree.math.core.uint\pmc_uint_internal.h
; File z:\sources\lunor\repos\rougemeilland\palmtree.math.core.uint\palmtree.math.core.uint\pmc_inline_func.h
; File z:\sources\lunor\repos\rougemeilland\palmtree.math.core.uint\palmtree.math.core.uint\pmc_divrem.c
; File z:\sources\lunor\repos\rougemeilland\palmtree.math.core.uint\palmtree.math.core.uint\pmc_uint_internal.h
; File z:\sources\lunor\repos\rougemeilland\palmtree.math.core.uint\palmtree.math.core.uint\pmc_divrem.c
; File z:\sources\lunor\repos\rougemeilland\palmtree.math.core.uint\palmtree.math.core.uint\pmc_inline_func.h
; File z:\sources\lunor\repos\rougemeilland\palmtree.math.core.uint\palmtree.math.core.uint\pmc_divrem.c
; File z:\sources\lunor\repos\rougemeilland\palmtree.math.core.uint\palmtree.math.core.uint\pmc_inline_func.h
; File z:\sources\lunor\repos\rougemeilland\palmtree.math.core.uint\palmtree.math.core.uint\pmc_divrem.c
; File z:\sources\lunor\repos\rougemeilland\palmtree.math.core.uint\palmtree.math.core.uint\pmc_inline_func.h
; File z:\sources\lunor\repos\rougemeilland\palmtree.math.core.uint\palmtree.math.core.uint\pmc_divrem.c
; File z:\sources\lunor\repos\rougemeilland\palmtree.math.core.uint\palmtree.math.core.uint\pmc_inline_func.h
; File z:\sources\lunor\repos\rougemeilland\palmtree.math.core.uint\palmtree.math.core.uint\pmc_divrem.c
; File z:\sources\lunor\repos\rougemeilland\palmtree.math.core.uint\palmtree.math.core.uint\pmc_inline_func.h
; File z:\sources\lunor\repos\rougemeilland\palmtree.math.core.uint\palmtree.math.core.uint\pmc_divrem.c
; File z:\sources\lunor\repos\rougemeilland\palmtree.math.core.uint\palmtree.math.core.uint\pmc_inline_func.h
; File z:\sources\lunor\repos\rougemeilland\palmtree.math.core.uint\palmtree.math.core.uint\pmc_divrem.c
; File z:\sources\lunor\repos\rougemeilland\palmtree.math.core.uint\palmtree.math.core.uint\pmc_inline_func.h
; File z:\sources\lunor\repos\rougemeilland\palmtree.math.core.uint\palmtree.math.core.uint\pmc_divrem.c
; File z:\sources\lunor\repos\rougemeilland\palmtree.math.core.uint\palmtree.math.core.uint\pmc_inline_func.h
; File z:\sources\lunor\repos\rougemeilland\palmtree.math.core.uint\palmtree.math.core.uint\pmc_divrem.c
; File z:\sources\lunor\repos\rougemeilland\palmtree.math.core.uint\palmtree.math.core.uint\pmc_inline_func.h
; File z:\sources\lunor\repos\rougemeilland\palmtree.math.core.uint\palmtree.math.core.uint\pmc_divrem.c
; File z:\sources\lunor\repos\rougemeilland\palmtree.math.core.uint\palmtree.math.core.uint\pmc_inline_func.h
; File z:\sources\lunor\repos\rougemeilland\palmtree.math.core.uint\palmtree.math.core.uint\pmc_divrem.c
; File z:\sources\lunor\repos\rougemeilland\palmtree.math.core.uint\palmtree.math.core.uint\pmc_inline_func.h
; File z:\sources\lunor\repos\rougemeilland\palmtree.math.core.uint\palmtree.math.core.uint\pmc_divrem.c
; File z:\sources\lunor\repos\rougemeilland\palmtree.math.core.uint\palmtree.math.core.uint\pmc_inline_func.h
; File z:\sources\lunor\repos\rougemeilland\palmtree.math.core.uint\palmtree.math.core.uint\pmc_divrem.c
; File z:\sources\lunor\repos\rougemeilland\palmtree.math.core.uint\palmtree.math.core.uint\pmc_inline_func.h
; File z:\sources\lunor\repos\rougemeilland\palmtree.math.core.uint\palmtree.math.core.uint\pmc_divrem.c
; File z:\sources\lunor\repos\rougemeilland\palmtree.math.core.uint\palmtree.math.core.uint\pmc_inline_func.h
; File z:\sources\lunor\repos\rougemeilland\palmtree.math.core.uint\palmtree.math.core.uint\pmc_divrem.c
; File z:\sources\lunor\repos\rougemeilland\palmtree.math.core.uint\palmtree.math.core.uint\pmc_inline_func.h
; File z:\sources\lunor\repos\rougemeilland\palmtree.math.core.uint\palmtree.math.core.uint\pmc_divrem.c
; File z:\sources\lunor\repos\rougemeilland\palmtree.math.core.uint\palmtree.math.core.uint\pmc_inline_func.h
; File z:\sources\lunor\repos\rougemeilland\palmtree.math.core.uint\palmtree.math.core.uint\pmc_divrem.c
; File z:\sources\lunor\repos\rougemeilland\palmtree.math.core.uint\palmtree.math.core.uint\pmc_inline_func.h
; File z:\sources\lunor\repos\rougemeilland\palmtree.math.core.uint\palmtree.math.core.uint\pmc_divrem.c
; File z:\sources\lunor\repos\rougemeilland\palmtree.math.core.uint\palmtree.math.core.uint\pmc_inline_func.h
; File z:\sources\lunor\repos\rougemeilland\palmtree.math.core.uint\palmtree.math.core.uint\pmc_divrem.c
; File z:\sources\lunor\repos\rougemeilland\palmtree.math.core.uint\palmtree.math.core.uint\pmc_inline_func.h
; File z:\sources\lunor\repos\rougemeilland\palmtree.math.core.uint\palmtree.math.core.uint\pmc_divrem.c
; File z:\sources\lunor\repos\rougemeilland\palmtree.math.core.uint\palmtree.math.core.uint\pmc_inline_func.h
; File z:\sources\lunor\repos\rougemeilland\palmtree.math.core.uint\palmtree.math.core.uint\pmc_uint_internal.h
; File z:\sources\lunor\repos\rougemeilland\palmtree.math.core.uint\palmtree.math.core.uint\pmc_inline_func.h
; File z:\sources\lunor\repos\rougemeilland\palmtree.math.core.uint\palmtree.math.core.uint\pmc_uint_internal.h
; File z:\sources\lunor\repos\rougemeilland\palmtree.math.core.uint\palmtree.math.core.uint\pmc_inline_func.h
; File z:\sources\lunor\repos\rougemeilland\palmtree.math.core.uint\palmtree.math.core.uint\pmc_divrem.c
; File z:\sources\lunor\repos\rougemeilland\palmtree.math.core.uint\palmtree.math.core.uint\pmc_uint_internal.h
; File z:\sources\lunor\repos\rougemeilland\palmtree.math.core.uint\palmtree.math.core.uint\pmc_divrem.c
; File z:\sources\lunor\repos\rougemeilland\palmtree.math.core.uint\palmtree.math.core.uint\pmc_inline_func.h
; File z:\sources\lunor\repos\rougemeilland\palmtree.math.core.uint\palmtree.math.core.uint\pmc_divrem.c
; File z:\sources\lunor\repos\rougemeilland\palmtree.math.core.uint\palmtree.math.core.uint\pmc_inline_func.h
; File z:\sources\lunor\repos\rougemeilland\palmtree.math.core.uint\palmtree.math.core.uint\pmc_divrem.c
; File z:\sources\lunor\repos\rougemeilland\palmtree.math.core.uint\palmtree.math.core.uint\pmc_inline_func.h
; File z:\sources\lunor\repos\rougemeilland\palmtree.math.core.uint\palmtree.math.core.uint\pmc_divrem.c
; File z:\sources\lunor\repos\rougemeilland\palmtree.math.core.uint\palmtree.math.core.uint\pmc_inline_func.h
; File z:\sources\lunor\repos\rougemeilland\palmtree.math.core.uint\palmtree.math.core.uint\pmc_divrem.c
; File z:\sources\lunor\repos\rougemeilland\palmtree.math.core.uint\palmtree.math.core.uint\pmc_inline_func.h
; File z:\sources\lunor\repos\rougemeilland\palmtree.math.core.uint\palmtree.math.core.uint\pmc_divrem.c
; File z:\sources\lunor\repos\rougemeilland\palmtree.math.core.uint\palmtree.math.core.uint\pmc_inline_func.h
; File z:\sources\lunor\repos\rougemeilland\palmtree.math.core.uint\palmtree.math.core.uint\pmc_divrem.c
; File z:\sources\lunor\repos\rougemeilland\palmtree.math.core.uint\palmtree.math.core.uint\pmc_inline_func.h
; File z:\sources\lunor\repos\rougemeilland\palmtree.math.core.uint\palmtree.math.core.uint\pmc_divrem.c
; File z:\sources\lunor\repos\rougemeilland\palmtree.math.core.uint\palmtree.math.core.uint\pmc_inline_func.h
; File z:\sources\lunor\repos\rougemeilland\palmtree.math.core.uint\palmtree.math.core.uint\pmc_divrem.c
; File z:\sources\lunor\repos\rougemeilland\palmtree.math.core.uint\palmtree.math.core.uint\pmc_inline_func.h
; File z:\sources\lunor\repos\rougemeilland\palmtree.math.core.uint\palmtree.math.core.uint\pmc_divrem.c
; File z:\sources\lunor\repos\rougemeilland\palmtree.math.core.uint\palmtree.math.core.uint\pmc_inline_func.h
; File z:\sources\lunor\repos\rougemeilland\palmtree.math.core.uint\palmtree.math.core.uint\pmc_divrem.c
; File z:\sources\lunor\repos\rougemeilland\palmtree.math.core.uint\palmtree.math.core.uint\pmc_inline_func.h
; File z:\sources\lunor\repos\rougemeilland\palmtree.math.core.uint\palmtree.math.core.uint\pmc_divrem.c
; File z:\sources\lunor\repos\rougemeilland\palmtree.math.core.uint\palmtree.math.core.uint\pmc_inline_func.h
; File z:\sources\lunor\repos\rougemeilland\palmtree.math.core.uint\palmtree.math.core.uint\pmc_divrem.c
; File z:\sources\lunor\repos\rougemeilland\palmtree.math.core.uint\palmtree.math.core.uint\pmc_inline_func.h
; File z:\sources\lunor\repos\rougemeilland\palmtree.math.core.uint\palmtree.math.core.uint\pmc_uint_internal.h
; File z:\sources\lunor\repos\rougemeilland\palmtree.math.core.uint\palmtree.math.core.uint\pmc_inline_func.h
; File z:\sources\lunor\repos\rougemeilland\palmtree.math.core.uint\palmtree.math.core.uint\pmc_uint_internal.h
; File z:\sources\lunor\repos\rougemeilland\palmtree.math.core.uint\palmtree.math.core.uint\pmc_inline_func.h
; File z:\sources\lunor\repos\rougemeilland\palmtree.math.core.uint\palmtree.math.core.uint\pmc_divrem.c
; File z:\sources\lunor\repos\rougemeilland\palmtree.math.core.uint\palmtree.math.core.uint\pmc_uint_internal.h
; File z:\sources\lunor\repos\rougemeilland\palmtree.math.core.uint\palmtree.math.core.uint\pmc_divrem.c
; File z:\sources\lunor\repos\rougemeilland\palmtree.math.core.uint\palmtree.math.core.uint\pmc_inline_func.h
; File z:\sources\lunor\repos\rougemeilland\palmtree.math.core.uint\palmtree.math.core.uint\pmc_divrem.c
; File z:\sources\lunor\repos\rougemeilland\palmtree.math.core.uint\palmtree.math.core.uint\pmc_inline_func.h
; File z:\sources\lunor\repos\rougemeilland\palmtree.math.core.uint\palmtree.math.core.uint\pmc_divrem.c
; File z:\sources\lunor\repos\rougemeilland\palmtree.math.core.uint\palmtree.math.core.uint\pmc_inline_func.h
; File z:\sources\lunor\repos\rougemeilland\palmtree.math.core.uint\palmtree.math.core.uint\pmc_divrem.c
; File z:\sources\lunor\repos\rougemeilland\palmtree.math.core.uint\palmtree.math.core.uint\pmc_inline_func.h
; File z:\sources\lunor\repos\rougemeilland\palmtree.math.core.uint\palmtree.math.core.uint\pmc_divrem.c
; File z:\sources\lunor\repos\rougemeilland\palmtree.math.core.uint\palmtree.math.core.uint\pmc_inline_func.h
; File z:\sources\lunor\repos\rougemeilland\palmtree.math.core.uint\palmtree.math.core.uint\pmc_divrem.c
; File z:\sources\lunor\repos\rougemeilland\palmtree.math.core.uint\palmtree.math.core.uint\pmc_inline_func.h
; File z:\sources\lunor\repos\rougemeilland\palmtree.math.core.uint\palmtree.math.core.uint\pmc_divrem.c
; File z:\sources\lunor\repos\rougemeilland\palmtree.math.core.uint\palmtree.math.core.uint\pmc_inline_func.h
; File z:\sources\lunor\repos\rougemeilland\palmtree.math.core.uint\palmtree.math.core.uint\pmc_divrem.c
; File z:\sources\lunor\repos\rougemeilland\palmtree.math.core.uint\palmtree.math.core.uint\pmc_inline_func.h
; File z:\sources\lunor\repos\rougemeilland\palmtree.math.core.uint\palmtree.math.core.uint\pmc_uint_internal.h
; File z:\sources\lunor\repos\rougemeilland\palmtree.math.core.uint\palmtree.math.core.uint\pmc_inline_func.h
; File z:\sources\lunor\repos\rougemeilland\palmtree.math.core.uint\palmtree.math.core.uint\pmc_uint_internal.h
; File z:\sources\lunor\repos\rougemeilland\palmtree.math.core.uint\palmtree.math.core.uint\pmc_inline_func.h
; File z:\sources\lunor\repos\rougemeilland\palmtree.math.core.uint\palmtree.math.core.uint\pmc_divrem.c
; File z:\sources\lunor\repos\rougemeilland\palmtree.math.core.uint\palmtree.math.core.uint\pmc_uint_internal.h
; File z:\sources\lunor\repos\rougemeilland\palmtree.math.core.uint\palmtree.math.core.uint\pmc_divrem.c
; File z:\sources\lunor\repos\rougemeilland\palmtree.math.core.uint\palmtree.math.core.uint\pmc_inline_func.h
; File z:\sources\lunor\repos\rougemeilland\palmtree.math.core.uint\palmtree.math.core.uint\pmc_divrem.c
; File z:\sources\lunor\repos\rougemeilland\palmtree.math.core.uint\palmtree.math.core.uint\pmc_inline_func.h
; File z:\sources\lunor\repos\rougemeilland\palmtree.math.core.uint\palmtree.math.core.uint\pmc_divrem.c
; File z:\sources\lunor\repos\rougemeilland\palmtree.math.core.uint\palmtree.math.core.uint\pmc_inline_func.h
; File z:\sources\lunor\repos\rougemeilland\palmtree.math.core.uint\palmtree.math.core.uint\pmc_divrem.c
; File z:\sources\lunor\repos\rougemeilland\palmtree.math.core.uint\palmtree.math.core.uint\pmc_inline_func.h
; File z:\sources\lunor\repos\rougemeilland\palmtree.math.core.uint\palmtree.math.core.uint\pmc_divrem.c
; File z:\sources\lunor\repos\rougemeilland\palmtree.math.core.uint\palmtree.math.core.uint\pmc_uint_internal.h
; File z:\sources\lunor\repos\rougemeilland\palmtree.math.core.uint\palmtree.math.core.uint\pmc_inline_func.h
; File z:\sources\lunor\repos\rougemeilland\palmtree.math.core.uint\palmtree.math.core.uint\pmc_uint_internal.h
; File z:\sources\lunor\repos\rougemeilland\palmtree.math.core.uint\palmtree.math.core.uint\pmc_inline_func.h
; File z:\sources\lunor\repos\rougemeilland\palmtree.math.core.uint\palmtree.math.core.uint\pmc_divrem.c
; File z:\sources\lunor\repos\rougemeilland\palmtree.math.core.uint\palmtree.math.core.uint\pmc_uint_internal.h
; File z:\sources\lunor\repos\rougemeilland\palmtree.math.core.uint\palmtree.math.core.uint\pmc_divrem.c
; File z:\sources\lunor\repos\rougemeilland\palmtree.math.core.uint\palmtree.math.core.uint\pmc_inline_func.h
; File z:\sources\lunor\repos\rougemeilland\palmtree.math.core.uint\palmtree.math.core.uint\pmc_divrem.c
; File z:\sources\lunor\repos\rougemeilland\palmtree.math.core.uint\palmtree.math.core.uint\pmc_inline_func.h
; File z:\sources\lunor\repos\rougemeilland\palmtree.math.core.uint\palmtree.math.core.uint\pmc_divrem.c
; File z:\sources\lunor\repos\rougemeilland\palmtree.math.core.uint\palmtree.math.core.uint\pmc_uint_internal.h
; File z:\sources\lunor\repos\rougemeilland\palmtree.math.core.uint\palmtree.math.core.uint\pmc_divrem.c
; File z:\sources\lunor\repos\rougemeilland\palmtree.math.core.uint\palmtree.math.core.uint\pmc_inline_func.h
; File z:\sources\lunor\repos\rougemeilland\palmtree.math.core.uint\palmtree.math.core.uint\pmc_divrem.c
; File z:\sources\lunor\repos\rougemeilland\palmtree.math.core.uint\palmtree.math.core.uint\pmc_inline_func.h
; File z:\sources\lunor\repos\rougemeilland\palmtree.math.core.uint\palmtree.math.core.uint\pmc_divrem.c
; File z:\sources\lunor\repos\rougemeilland\palmtree.math.core.uint\palmtree.math.core.uint\pmc_inline_func.h
; File z:\sources\lunor\repos\rougemeilland\palmtree.math.core.uint\palmtree.math.core.uint\pmc_divrem.c
;	COMDAT _SubtructOneLineX
_TEXT	SEGMENT
_count$1$ = -4						; size = 4
_u_buf$ = 8						; size = 4
_u_buf_len$ = 12					; size = 4
_v_buf$ = 16						; size = 4
_v_buf_len$ = 20					; size = 4
_t_hi$2$ = 24						; size = 4
_t_hi$2$ = 24						; size = 4
_t_hi$2$ = 24						; size = 4
_t_hi$2$ = 24						; size = 4
_t_hi$2$ = 24						; size = 4
_t_hi$2$ = 24						; size = 4
_t_hi$2$ = 24						; size = 4
_t_hi$2$ = 24						; size = 4
_t_hi$2$ = 24						; size = 4
_t_hi$2$ = 24						; size = 4
_t_hi$2$ = 24						; size = 4
_t_hi$2$ = 24						; size = 4
_t_hi$2$ = 24						; size = 4
_t_hi$2$ = 24						; size = 4
_t_hi$2$ = 24						; size = 4
_t_hi$2$ = 24						; size = 4
_t_hi$2$ = 24						; size = 4
_t_hi$2$ = 24						; size = 4
_t_hi$2$ = 24						; size = 4
_t_hi$2$ = 24						; size = 4
_t_hi$2$ = 24						; size = 4
_t_hi$2$ = 24						; size = 4
_t_hi$2$ = 24						; size = 4
_t_hi$2$ = 24						; size = 4
_t_hi$2$ = 24						; size = 4
_t_hi$2$ = 24						; size = 4
_t_hi$2$ = 24						; size = 4
_t_hi$2$ = 24						; size = 4
_k$1$ = 24						; size = 4
_t_lo$1 = 24						; size = 4
_t_lo$2 = 24						; size = 4
_t_lo$3 = 24						; size = 4
_t_lo$4 = 24						; size = 4
_t_lo$5 = 24						; size = 4
_t_lo$6 = 24						; size = 4
_t_lo$7 = 24						; size = 4
_t_lo$8 = 24						; size = 4
_t_lo$9 = 24						; size = 4
_t_lo$10 = 24						; size = 4
_t_lo$11 = 24						; size = 4
_t_lo$12 = 24						; size = 4
_q_index$ = 24						; size = 4
_q_$ = 28						; size = 4
_SubtructOneLineX PROC					; COMDAT

; 597  : {

	push	ebp
	mov	ebp, esp
	sub	esp, 8

; 598  :     __UNIT_TYPE_DIV* u_ptr = &u_buf[q_index];

	mov	eax, DWORD PTR _q_index$[ebp]
	mov	ecx, DWORD PTR _u_buf$[ebp]
	push	ebx
	push	esi

; 599  :     __UNIT_TYPE_DIV* v_ptr = &v_buf[0];
; 600  :     __UNIT_TYPE v_count = v_buf_len;
; 601  :     __UNIT_TYPE_DIV k = 0;
; 602  :     char c = 0;

	xor	bl, bl
	mov	DWORD PTR _k$1$[ebp], 0
	lea	ecx, DWORD PTR [ecx+eax*4]

; 603  : 
; 604  :     __UNIT_TYPE count = v_count >> 5;

	mov	eax, DWORD PTR _v_buf_len$[ebp]
	mov	edx, eax
	shr	edx, 5
	push	edi

; 605  :     while (count != 0)

	mov	edi, DWORD PTR _v_buf$[ebp]
	test	edx, edx
	mov	DWORD PTR _count$1$[ebp], edx
	mov	edx, DWORD PTR _q_$[ebp]
	je	$LN3@SubtructOn
$LL2@SubtructOn:
; File z:\sources\lunor\repos\rougemeilland\palmtree.math.core.uint\palmtree.math.core.uint\pmc_inline_func.h

; 358  :         return (_FROMDWORDTOWORD((_UINT64_T)u * v, w_hi));

	mov	eax, DWORD PTR [edi]
	mul	edx
	mov	esi, eax
	mov	edi, edx

; 248  :         return (_addcarryx_u32(carry, u, v, w));

	add	esi, DWORD PTR _k$1$[ebp]
	mov	eax, 0
	adcx	edi, eax
; File z:\sources\lunor\repos\rougemeilland\palmtree.math.core.uint\palmtree.math.core.uint\pmc_divrem.c

; 440  :     c = _SUBTRUCT_UNIT_DIV(c, *up, t_lo, up);

	mov	eax, DWORD PTR [ecx]
; File z:\sources\lunor\repos\rougemeilland\palmtree.math.core.uint\palmtree.math.core.uint\pmc_inline_func.h

; 276  :         return (_subborrow_u32(borrow, u, v, w));

	add	bl, 255					; 000000ffH
	sbb	eax, esi
	mov	DWORD PTR [ecx], eax

; 358  :         return (_FROMDWORDTOWORD((_UINT64_T)u * v, w_hi));

	mov	eax, DWORD PTR _v_buf$[ebp]

; 276  :         return (_subborrow_u32(borrow, u, v, w));

	setb	bl

; 358  :         return (_FROMDWORDTOWORD((_UINT64_T)u * v, w_hi));

	mov	eax, DWORD PTR [eax+4]
	mul	DWORD PTR _q_$[ebp]
	mov	esi, eax
	mov	eax, edx
; File z:\sources\lunor\repos\rougemeilland\palmtree.math.core.uint\palmtree.math.core.uint\pmc_divrem.c

; 438  :     t_lo = _MULTIPLYX_UNIT_DIV(*vp, q_, &t_hi);

	mov	DWORD PTR _t_lo$12[ebp], esi
; File z:\sources\lunor\repos\rougemeilland\palmtree.math.core.uint\palmtree.math.core.uint\pmc_inline_func.h

; 248  :         return (_addcarryx_u32(carry, u, v, w));

	mov	edx, 0
	add	esi, edi
	adcx	eax, edx
	mov	DWORD PTR _t_hi$2$[ebp], eax

; 276  :         return (_subborrow_u32(borrow, u, v, w));

	add	bl, 255					; 000000ffH
; File z:\sources\lunor\repos\rougemeilland\palmtree.math.core.uint\palmtree.math.core.uint\pmc_divrem.c

; 440  :     c = _SUBTRUCT_UNIT_DIV(c, *up, t_lo, up);

	mov	eax, DWORD PTR [ecx+4]
; File z:\sources\lunor\repos\rougemeilland\palmtree.math.core.uint\palmtree.math.core.uint\pmc_inline_func.h

; 276  :         return (_subborrow_u32(borrow, u, v, w));

	sbb	eax, esi
	mov	DWORD PTR [ecx+4], eax

; 358  :         return (_FROMDWORDTOWORD((_UINT64_T)u * v, w_hi));

	mov	eax, DWORD PTR _v_buf$[ebp]

; 276  :         return (_subborrow_u32(borrow, u, v, w));

	setb	bl

; 358  :         return (_FROMDWORDTOWORD((_UINT64_T)u * v, w_hi));

	mov	eax, DWORD PTR [eax+8]
	mul	DWORD PTR _q_$[ebp]
	mov	esi, eax
	mov	edi, edx

; 248  :         return (_addcarryx_u32(carry, u, v, w));

	add	esi, DWORD PTR _t_hi$2$[ebp]
	mov	eax, 0
	adcx	edi, eax
; File z:\sources\lunor\repos\rougemeilland\palmtree.math.core.uint\palmtree.math.core.uint\pmc_divrem.c

; 440  :     c = _SUBTRUCT_UNIT_DIV(c, *up, t_lo, up);

	mov	eax, DWORD PTR [ecx+8]
; File z:\sources\lunor\repos\rougemeilland\palmtree.math.core.uint\palmtree.math.core.uint\pmc_inline_func.h

; 276  :         return (_subborrow_u32(borrow, u, v, w));

	add	bl, 255					; 000000ffH
	sbb	eax, esi
	mov	DWORD PTR [ecx+8], eax

; 358  :         return (_FROMDWORDTOWORD((_UINT64_T)u * v, w_hi));

	mov	eax, DWORD PTR _v_buf$[ebp]

; 276  :         return (_subborrow_u32(borrow, u, v, w));

	setb	bl

; 358  :         return (_FROMDWORDTOWORD((_UINT64_T)u * v, w_hi));

	mov	eax, DWORD PTR [eax+12]
	mul	DWORD PTR _q_$[ebp]
	mov	esi, eax
	mov	eax, edx
; File z:\sources\lunor\repos\rougemeilland\palmtree.math.core.uint\palmtree.math.core.uint\pmc_divrem.c

; 438  :     t_lo = _MULTIPLYX_UNIT_DIV(*vp, q_, &t_hi);

	mov	DWORD PTR _t_lo$11[ebp], esi
; File z:\sources\lunor\repos\rougemeilland\palmtree.math.core.uint\palmtree.math.core.uint\pmc_inline_func.h

; 248  :         return (_addcarryx_u32(carry, u, v, w));

	mov	edx, 0
	add	esi, edi
	adcx	eax, edx
	mov	DWORD PTR _t_hi$2$[ebp], eax

; 276  :         return (_subborrow_u32(borrow, u, v, w));

	add	bl, 255					; 000000ffH
; File z:\sources\lunor\repos\rougemeilland\palmtree.math.core.uint\palmtree.math.core.uint\pmc_divrem.c

; 440  :     c = _SUBTRUCT_UNIT_DIV(c, *up, t_lo, up);

	mov	eax, DWORD PTR [ecx+12]
; File z:\sources\lunor\repos\rougemeilland\palmtree.math.core.uint\palmtree.math.core.uint\pmc_inline_func.h

; 276  :         return (_subborrow_u32(borrow, u, v, w));

	sbb	eax, esi
	mov	DWORD PTR [ecx+12], eax

; 358  :         return (_FROMDWORDTOWORD((_UINT64_T)u * v, w_hi));

	mov	eax, DWORD PTR _v_buf$[ebp]

; 276  :         return (_subborrow_u32(borrow, u, v, w));

	setb	bl

; 358  :         return (_FROMDWORDTOWORD((_UINT64_T)u * v, w_hi));

	mov	eax, DWORD PTR [eax+16]
	mul	DWORD PTR _q_$[ebp]
	mov	esi, eax
	mov	edi, edx

; 248  :         return (_addcarryx_u32(carry, u, v, w));

	add	esi, DWORD PTR _t_hi$2$[ebp]
	mov	eax, 0
	adcx	edi, eax
; File z:\sources\lunor\repos\rougemeilland\palmtree.math.core.uint\palmtree.math.core.uint\pmc_divrem.c

; 440  :     c = _SUBTRUCT_UNIT_DIV(c, *up, t_lo, up);

	mov	eax, DWORD PTR [ecx+16]
; File z:\sources\lunor\repos\rougemeilland\palmtree.math.core.uint\palmtree.math.core.uint\pmc_inline_func.h

; 276  :         return (_subborrow_u32(borrow, u, v, w));

	add	bl, 255					; 000000ffH
	sbb	eax, esi
	mov	DWORD PTR [ecx+16], eax

; 358  :         return (_FROMDWORDTOWORD((_UINT64_T)u * v, w_hi));

	mov	eax, DWORD PTR _v_buf$[ebp]

; 276  :         return (_subborrow_u32(borrow, u, v, w));

	setb	bl

; 358  :         return (_FROMDWORDTOWORD((_UINT64_T)u * v, w_hi));

	mov	eax, DWORD PTR [eax+20]
	mul	DWORD PTR _q_$[ebp]
	mov	esi, eax
	mov	eax, edx
; File z:\sources\lunor\repos\rougemeilland\palmtree.math.core.uint\palmtree.math.core.uint\pmc_divrem.c

; 438  :     t_lo = _MULTIPLYX_UNIT_DIV(*vp, q_, &t_hi);

	mov	DWORD PTR _t_lo$10[ebp], esi
; File z:\sources\lunor\repos\rougemeilland\palmtree.math.core.uint\palmtree.math.core.uint\pmc_inline_func.h

; 248  :         return (_addcarryx_u32(carry, u, v, w));

	mov	edx, 0
	add	esi, edi
	adcx	eax, edx
	mov	DWORD PTR _t_hi$2$[ebp], eax

; 276  :         return (_subborrow_u32(borrow, u, v, w));

	add	bl, 255					; 000000ffH
; File z:\sources\lunor\repos\rougemeilland\palmtree.math.core.uint\palmtree.math.core.uint\pmc_divrem.c

; 440  :     c = _SUBTRUCT_UNIT_DIV(c, *up, t_lo, up);

	mov	eax, DWORD PTR [ecx+20]
; File z:\sources\lunor\repos\rougemeilland\palmtree.math.core.uint\palmtree.math.core.uint\pmc_inline_func.h

; 276  :         return (_subborrow_u32(borrow, u, v, w));

	sbb	eax, esi
	mov	DWORD PTR [ecx+20], eax
	setb	bl

; 358  :         return (_FROMDWORDTOWORD((_UINT64_T)u * v, w_hi));

	mov	edi, DWORD PTR _v_buf$[ebp]
	mov	eax, DWORD PTR [edi+24]
	mul	DWORD PTR _q_$[ebp]
	mov	esi, eax
	mov	eax, edx

; 248  :         return (_addcarryx_u32(carry, u, v, w));

	add	esi, DWORD PTR _t_hi$2$[ebp]
	mov	edx, 0
	adcx	eax, edx
	mov	DWORD PTR _t_hi$2$[ebp], eax

; 276  :         return (_subborrow_u32(borrow, u, v, w));

	add	bl, 255					; 000000ffH
; File z:\sources\lunor\repos\rougemeilland\palmtree.math.core.uint\palmtree.math.core.uint\pmc_divrem.c

; 440  :     c = _SUBTRUCT_UNIT_DIV(c, *up, t_lo, up);

	mov	eax, DWORD PTR [ecx+24]
; File z:\sources\lunor\repos\rougemeilland\palmtree.math.core.uint\palmtree.math.core.uint\pmc_inline_func.h

; 276  :         return (_subborrow_u32(borrow, u, v, w));

	sbb	eax, esi
	mov	DWORD PTR [ecx+24], eax

; 358  :         return (_FROMDWORDTOWORD((_UINT64_T)u * v, w_hi));

	mov	eax, DWORD PTR [edi+28]

; 276  :         return (_subborrow_u32(borrow, u, v, w));

	setb	bl

; 358  :         return (_FROMDWORDTOWORD((_UINT64_T)u * v, w_hi));

	mul	DWORD PTR _q_$[ebp]
	mov	esi, eax
	mov	edi, edx

; 248  :         return (_addcarryx_u32(carry, u, v, w));

	add	esi, DWORD PTR _t_hi$2$[ebp]
	mov	eax, 0
	adcx	edi, eax
; File z:\sources\lunor\repos\rougemeilland\palmtree.math.core.uint\palmtree.math.core.uint\pmc_divrem.c

; 440  :     c = _SUBTRUCT_UNIT_DIV(c, *up, t_lo, up);

	mov	eax, DWORD PTR [ecx+28]
; File z:\sources\lunor\repos\rougemeilland\palmtree.math.core.uint\palmtree.math.core.uint\pmc_inline_func.h

; 276  :         return (_subborrow_u32(borrow, u, v, w));

	add	bl, 255					; 000000ffH
	sbb	eax, esi
	mov	DWORD PTR [ecx+28], eax

; 358  :         return (_FROMDWORDTOWORD((_UINT64_T)u * v, w_hi));

	mov	eax, DWORD PTR _v_buf$[ebp]

; 276  :         return (_subborrow_u32(borrow, u, v, w));

	setb	bl

; 358  :         return (_FROMDWORDTOWORD((_UINT64_T)u * v, w_hi));

	mov	eax, DWORD PTR [eax+32]
	mul	DWORD PTR _q_$[ebp]
	mov	esi, eax
	mov	eax, edx

; 248  :         return (_addcarryx_u32(carry, u, v, w));

	add	esi, edi
	mov	edx, 0
	adcx	eax, edx
	mov	DWORD PTR _t_hi$2$[ebp], eax

; 276  :         return (_subborrow_u32(borrow, u, v, w));

	add	bl, 255					; 000000ffH
; File z:\sources\lunor\repos\rougemeilland\palmtree.math.core.uint\palmtree.math.core.uint\pmc_divrem.c

; 440  :     c = _SUBTRUCT_UNIT_DIV(c, *up, t_lo, up);

	mov	eax, DWORD PTR [ecx+32]
; File z:\sources\lunor\repos\rougemeilland\palmtree.math.core.uint\palmtree.math.core.uint\pmc_inline_func.h

; 276  :         return (_subborrow_u32(borrow, u, v, w));

	sbb	eax, esi
	mov	DWORD PTR [ecx+32], eax

; 358  :         return (_FROMDWORDTOWORD((_UINT64_T)u * v, w_hi));

	mov	eax, DWORD PTR _v_buf$[ebp]

; 276  :         return (_subborrow_u32(borrow, u, v, w));

	setb	bl

; 358  :         return (_FROMDWORDTOWORD((_UINT64_T)u * v, w_hi));

	mov	eax, DWORD PTR [eax+36]
	mul	DWORD PTR _q_$[ebp]
	mov	esi, eax
	mov	edi, edx

; 248  :         return (_addcarryx_u32(carry, u, v, w));

	add	esi, DWORD PTR _t_hi$2$[ebp]
	mov	eax, 0
	adcx	edi, eax
; File z:\sources\lunor\repos\rougemeilland\palmtree.math.core.uint\palmtree.math.core.uint\pmc_divrem.c

; 440  :     c = _SUBTRUCT_UNIT_DIV(c, *up, t_lo, up);

	mov	eax, DWORD PTR [ecx+36]
; File z:\sources\lunor\repos\rougemeilland\palmtree.math.core.uint\palmtree.math.core.uint\pmc_inline_func.h

; 276  :         return (_subborrow_u32(borrow, u, v, w));

	add	bl, 255					; 000000ffH
	sbb	eax, esi
	mov	DWORD PTR [ecx+36], eax

; 358  :         return (_FROMDWORDTOWORD((_UINT64_T)u * v, w_hi));

	mov	eax, DWORD PTR _v_buf$[ebp]

; 276  :         return (_subborrow_u32(borrow, u, v, w));

	setb	bl

; 358  :         return (_FROMDWORDTOWORD((_UINT64_T)u * v, w_hi));

	mov	eax, DWORD PTR [eax+40]
	mul	DWORD PTR _q_$[ebp]
	mov	esi, eax
	mov	eax, edx

; 248  :         return (_addcarryx_u32(carry, u, v, w));

	add	esi, edi
	mov	edx, 0
	adcx	eax, edx
	mov	DWORD PTR _t_hi$2$[ebp], eax

; 276  :         return (_subborrow_u32(borrow, u, v, w));

	add	bl, 255					; 000000ffH
; File z:\sources\lunor\repos\rougemeilland\palmtree.math.core.uint\palmtree.math.core.uint\pmc_divrem.c

; 440  :     c = _SUBTRUCT_UNIT_DIV(c, *up, t_lo, up);

	mov	eax, DWORD PTR [ecx+40]
; File z:\sources\lunor\repos\rougemeilland\palmtree.math.core.uint\palmtree.math.core.uint\pmc_inline_func.h

; 276  :         return (_subborrow_u32(borrow, u, v, w));

	sbb	eax, esi
	mov	DWORD PTR [ecx+40], eax

; 358  :         return (_FROMDWORDTOWORD((_UINT64_T)u * v, w_hi));

	mov	eax, DWORD PTR _v_buf$[ebp]

; 276  :         return (_subborrow_u32(borrow, u, v, w));

	setb	bl

; 358  :         return (_FROMDWORDTOWORD((_UINT64_T)u * v, w_hi));

	mov	eax, DWORD PTR [eax+44]
	mul	DWORD PTR _q_$[ebp]
	mov	esi, eax
	mov	edi, edx

; 248  :         return (_addcarryx_u32(carry, u, v, w));

	add	esi, DWORD PTR _t_hi$2$[ebp]
	mov	eax, 0
	adcx	edi, eax
; File z:\sources\lunor\repos\rougemeilland\palmtree.math.core.uint\palmtree.math.core.uint\pmc_divrem.c

; 440  :     c = _SUBTRUCT_UNIT_DIV(c, *up, t_lo, up);

	mov	eax, DWORD PTR [ecx+44]
; File z:\sources\lunor\repos\rougemeilland\palmtree.math.core.uint\palmtree.math.core.uint\pmc_inline_func.h

; 276  :         return (_subborrow_u32(borrow, u, v, w));

	add	bl, 255					; 000000ffH
	sbb	eax, esi
	setb	bl
	mov	DWORD PTR [ecx+44], eax

; 358  :         return (_FROMDWORDTOWORD((_UINT64_T)u * v, w_hi));

	mov	eax, DWORD PTR _v_buf$[ebp]
	mov	eax, DWORD PTR [eax+48]
	mul	DWORD PTR _q_$[ebp]
	mov	esi, eax
	mov	eax, edx

; 248  :         return (_addcarryx_u32(carry, u, v, w));

	add	esi, edi
	mov	edx, 0
	adcx	eax, edx
	mov	DWORD PTR _t_hi$2$[ebp], eax

; 276  :         return (_subborrow_u32(borrow, u, v, w));

	add	bl, 255					; 000000ffH
; File z:\sources\lunor\repos\rougemeilland\palmtree.math.core.uint\palmtree.math.core.uint\pmc_divrem.c

; 440  :     c = _SUBTRUCT_UNIT_DIV(c, *up, t_lo, up);

	mov	eax, DWORD PTR [ecx+48]
; File z:\sources\lunor\repos\rougemeilland\palmtree.math.core.uint\palmtree.math.core.uint\pmc_inline_func.h

; 276  :         return (_subborrow_u32(borrow, u, v, w));

	sbb	eax, esi
	mov	DWORD PTR [ecx+48], eax

; 358  :         return (_FROMDWORDTOWORD((_UINT64_T)u * v, w_hi));

	mov	eax, DWORD PTR _v_buf$[ebp]

; 276  :         return (_subborrow_u32(borrow, u, v, w));

	setb	bl

; 358  :         return (_FROMDWORDTOWORD((_UINT64_T)u * v, w_hi));

	mov	eax, DWORD PTR [eax+52]
	mul	DWORD PTR _q_$[ebp]
	mov	esi, eax
	mov	edi, edx

; 248  :         return (_addcarryx_u32(carry, u, v, w));

	add	esi, DWORD PTR _t_hi$2$[ebp]
	mov	eax, 0
	adcx	edi, eax
; File z:\sources\lunor\repos\rougemeilland\palmtree.math.core.uint\palmtree.math.core.uint\pmc_divrem.c

; 440  :     c = _SUBTRUCT_UNIT_DIV(c, *up, t_lo, up);

	mov	eax, DWORD PTR [ecx+52]
; File z:\sources\lunor\repos\rougemeilland\palmtree.math.core.uint\palmtree.math.core.uint\pmc_inline_func.h

; 276  :         return (_subborrow_u32(borrow, u, v, w));

	add	bl, 255					; 000000ffH
	sbb	eax, esi
	mov	DWORD PTR [ecx+52], eax

; 358  :         return (_FROMDWORDTOWORD((_UINT64_T)u * v, w_hi));

	mov	eax, DWORD PTR _v_buf$[ebp]

; 276  :         return (_subborrow_u32(borrow, u, v, w));

	setb	bl

; 358  :         return (_FROMDWORDTOWORD((_UINT64_T)u * v, w_hi));

	mov	eax, DWORD PTR [eax+56]
	mul	DWORD PTR _q_$[ebp]
	mov	esi, eax
	mov	eax, edx

; 248  :         return (_addcarryx_u32(carry, u, v, w));

	add	esi, edi
	mov	edx, 0
	adcx	eax, edx
	mov	DWORD PTR _t_hi$2$[ebp], eax

; 276  :         return (_subborrow_u32(borrow, u, v, w));

	add	bl, 255					; 000000ffH
; File z:\sources\lunor\repos\rougemeilland\palmtree.math.core.uint\palmtree.math.core.uint\pmc_divrem.c

; 440  :     c = _SUBTRUCT_UNIT_DIV(c, *up, t_lo, up);

	mov	eax, DWORD PTR [ecx+56]
; File z:\sources\lunor\repos\rougemeilland\palmtree.math.core.uint\palmtree.math.core.uint\pmc_inline_func.h

; 276  :         return (_subborrow_u32(borrow, u, v, w));

	sbb	eax, esi
	mov	DWORD PTR [ecx+56], eax

; 358  :         return (_FROMDWORDTOWORD((_UINT64_T)u * v, w_hi));

	mov	eax, DWORD PTR _v_buf$[ebp]

; 276  :         return (_subborrow_u32(borrow, u, v, w));

	setb	bl

; 358  :         return (_FROMDWORDTOWORD((_UINT64_T)u * v, w_hi));

	mov	eax, DWORD PTR [eax+60]
	mul	DWORD PTR _q_$[ebp]
	mov	esi, eax
	mov	edi, edx

; 248  :         return (_addcarryx_u32(carry, u, v, w));

	add	esi, DWORD PTR _t_hi$2$[ebp]
	mov	eax, 0
	adcx	edi, eax
; File z:\sources\lunor\repos\rougemeilland\palmtree.math.core.uint\palmtree.math.core.uint\pmc_divrem.c

; 440  :     c = _SUBTRUCT_UNIT_DIV(c, *up, t_lo, up);

	mov	eax, DWORD PTR [ecx+60]
; File z:\sources\lunor\repos\rougemeilland\palmtree.math.core.uint\palmtree.math.core.uint\pmc_inline_func.h

; 276  :         return (_subborrow_u32(borrow, u, v, w));

	add	bl, 255					; 000000ffH
	sbb	eax, esi
	mov	DWORD PTR [ecx+60], eax

; 358  :         return (_FROMDWORDTOWORD((_UINT64_T)u * v, w_hi));

	mov	eax, DWORD PTR _v_buf$[ebp]

; 276  :         return (_subborrow_u32(borrow, u, v, w));

	setb	bl

; 358  :         return (_FROMDWORDTOWORD((_UINT64_T)u * v, w_hi));

	mov	eax, DWORD PTR [eax+64]
	mul	DWORD PTR _q_$[ebp]
	mov	esi, eax
	mov	eax, edx

; 248  :         return (_addcarryx_u32(carry, u, v, w));

	add	esi, edi
	mov	edx, 0
	adcx	eax, edx
	mov	DWORD PTR _t_hi$2$[ebp], eax

; 276  :         return (_subborrow_u32(borrow, u, v, w));

	add	bl, 255					; 000000ffH
; File z:\sources\lunor\repos\rougemeilland\palmtree.math.core.uint\palmtree.math.core.uint\pmc_divrem.c

; 440  :     c = _SUBTRUCT_UNIT_DIV(c, *up, t_lo, up);

	mov	eax, DWORD PTR [ecx+64]
; File z:\sources\lunor\repos\rougemeilland\palmtree.math.core.uint\palmtree.math.core.uint\pmc_inline_func.h

; 276  :         return (_subborrow_u32(borrow, u, v, w));

	sbb	eax, esi
	mov	DWORD PTR [ecx+64], eax

; 358  :         return (_FROMDWORDTOWORD((_UINT64_T)u * v, w_hi));

	mov	eax, DWORD PTR _v_buf$[ebp]

; 276  :         return (_subborrow_u32(borrow, u, v, w));

	setb	bl

; 358  :         return (_FROMDWORDTOWORD((_UINT64_T)u * v, w_hi));

	mov	eax, DWORD PTR [eax+68]
	mul	DWORD PTR _q_$[ebp]
	mov	esi, eax
	mov	edi, edx

; 248  :         return (_addcarryx_u32(carry, u, v, w));

	add	esi, DWORD PTR _t_hi$2$[ebp]
	mov	eax, 0
	adcx	edi, eax
; File z:\sources\lunor\repos\rougemeilland\palmtree.math.core.uint\palmtree.math.core.uint\pmc_divrem.c

; 440  :     c = _SUBTRUCT_UNIT_DIV(c, *up, t_lo, up);

	mov	eax, DWORD PTR [ecx+68]
; File z:\sources\lunor\repos\rougemeilland\palmtree.math.core.uint\palmtree.math.core.uint\pmc_inline_func.h

; 276  :         return (_subborrow_u32(borrow, u, v, w));

	add	bl, 255					; 000000ffH
	sbb	eax, esi
	setb	bl
	mov	DWORD PTR [ecx+68], eax

; 358  :         return (_FROMDWORDTOWORD((_UINT64_T)u * v, w_hi));

	mov	eax, DWORD PTR _v_buf$[ebp]
	mov	eax, DWORD PTR [eax+72]
	mul	DWORD PTR _q_$[ebp]
	mov	esi, eax
	mov	eax, edx

; 248  :         return (_addcarryx_u32(carry, u, v, w));

	add	esi, edi
	mov	edx, 0
	adcx	eax, edx
	mov	DWORD PTR _t_hi$2$[ebp], eax

; 276  :         return (_subborrow_u32(borrow, u, v, w));

	add	bl, 255					; 000000ffH
; File z:\sources\lunor\repos\rougemeilland\palmtree.math.core.uint\palmtree.math.core.uint\pmc_divrem.c

; 440  :     c = _SUBTRUCT_UNIT_DIV(c, *up, t_lo, up);

	mov	eax, DWORD PTR [ecx+72]
; File z:\sources\lunor\repos\rougemeilland\palmtree.math.core.uint\palmtree.math.core.uint\pmc_inline_func.h

; 276  :         return (_subborrow_u32(borrow, u, v, w));

	sbb	eax, esi
	mov	DWORD PTR [ecx+72], eax

; 358  :         return (_FROMDWORDTOWORD((_UINT64_T)u * v, w_hi));

	mov	eax, DWORD PTR _v_buf$[ebp]

; 276  :         return (_subborrow_u32(borrow, u, v, w));

	setb	bl

; 358  :         return (_FROMDWORDTOWORD((_UINT64_T)u * v, w_hi));

	mov	eax, DWORD PTR [eax+76]
	mul	DWORD PTR _q_$[ebp]
	mov	esi, eax
	mov	edi, edx

; 248  :         return (_addcarryx_u32(carry, u, v, w));

	add	esi, DWORD PTR _t_hi$2$[ebp]
	mov	eax, 0
	adcx	edi, eax
; File z:\sources\lunor\repos\rougemeilland\palmtree.math.core.uint\palmtree.math.core.uint\pmc_divrem.c

; 440  :     c = _SUBTRUCT_UNIT_DIV(c, *up, t_lo, up);

	mov	eax, DWORD PTR [ecx+76]
; File z:\sources\lunor\repos\rougemeilland\palmtree.math.core.uint\palmtree.math.core.uint\pmc_inline_func.h

; 276  :         return (_subborrow_u32(borrow, u, v, w));

	add	bl, 255					; 000000ffH
	sbb	eax, esi
	mov	DWORD PTR [ecx+76], eax

; 358  :         return (_FROMDWORDTOWORD((_UINT64_T)u * v, w_hi));

	mov	eax, DWORD PTR _v_buf$[ebp]

; 276  :         return (_subborrow_u32(borrow, u, v, w));

	setb	bl

; 358  :         return (_FROMDWORDTOWORD((_UINT64_T)u * v, w_hi));

	mov	eax, DWORD PTR [eax+80]
	mul	DWORD PTR _q_$[ebp]
	mov	esi, eax
	mov	eax, edx

; 248  :         return (_addcarryx_u32(carry, u, v, w));

	add	esi, edi
	mov	edx, 0
	adcx	eax, edx
	mov	DWORD PTR _t_hi$2$[ebp], eax

; 276  :         return (_subborrow_u32(borrow, u, v, w));

	add	bl, 255					; 000000ffH
; File z:\sources\lunor\repos\rougemeilland\palmtree.math.core.uint\palmtree.math.core.uint\pmc_divrem.c

; 440  :     c = _SUBTRUCT_UNIT_DIV(c, *up, t_lo, up);

	mov	eax, DWORD PTR [ecx+80]
; File z:\sources\lunor\repos\rougemeilland\palmtree.math.core.uint\palmtree.math.core.uint\pmc_inline_func.h

; 276  :         return (_subborrow_u32(borrow, u, v, w));

	sbb	eax, esi
	mov	DWORD PTR [ecx+80], eax

; 358  :         return (_FROMDWORDTOWORD((_UINT64_T)u * v, w_hi));

	mov	eax, DWORD PTR _v_buf$[ebp]

; 276  :         return (_subborrow_u32(borrow, u, v, w));

	setb	bl

; 358  :         return (_FROMDWORDTOWORD((_UINT64_T)u * v, w_hi));

	mov	eax, DWORD PTR [eax+84]
	mul	DWORD PTR _q_$[ebp]
	mov	esi, eax
	mov	edi, edx

; 248  :         return (_addcarryx_u32(carry, u, v, w));

	add	esi, DWORD PTR _t_hi$2$[ebp]
	mov	eax, 0
	adcx	edi, eax
; File z:\sources\lunor\repos\rougemeilland\palmtree.math.core.uint\palmtree.math.core.uint\pmc_divrem.c

; 440  :     c = _SUBTRUCT_UNIT_DIV(c, *up, t_lo, up);

	mov	eax, DWORD PTR [ecx+84]
; File z:\sources\lunor\repos\rougemeilland\palmtree.math.core.uint\palmtree.math.core.uint\pmc_inline_func.h

; 276  :         return (_subborrow_u32(borrow, u, v, w));

	add	bl, 255					; 000000ffH
	sbb	eax, esi
	mov	DWORD PTR [ecx+84], eax

; 358  :         return (_FROMDWORDTOWORD((_UINT64_T)u * v, w_hi));

	mov	eax, DWORD PTR _v_buf$[ebp]

; 276  :         return (_subborrow_u32(borrow, u, v, w));

	setb	bl

; 358  :         return (_FROMDWORDTOWORD((_UINT64_T)u * v, w_hi));

	mov	eax, DWORD PTR [eax+88]
	mul	DWORD PTR _q_$[ebp]
	mov	esi, eax
	mov	eax, edx

; 248  :         return (_addcarryx_u32(carry, u, v, w));

	add	esi, edi
	mov	edx, 0
	adcx	eax, edx
	mov	DWORD PTR _t_hi$2$[ebp], eax

; 276  :         return (_subborrow_u32(borrow, u, v, w));

	add	bl, 255					; 000000ffH
; File z:\sources\lunor\repos\rougemeilland\palmtree.math.core.uint\palmtree.math.core.uint\pmc_divrem.c

; 440  :     c = _SUBTRUCT_UNIT_DIV(c, *up, t_lo, up);

	mov	eax, DWORD PTR [ecx+88]
; File z:\sources\lunor\repos\rougemeilland\palmtree.math.core.uint\palmtree.math.core.uint\pmc_inline_func.h

; 276  :         return (_subborrow_u32(borrow, u, v, w));

	sbb	eax, esi
	mov	DWORD PTR [ecx+88], eax

; 358  :         return (_FROMDWORDTOWORD((_UINT64_T)u * v, w_hi));

	mov	eax, DWORD PTR _v_buf$[ebp]

; 276  :         return (_subborrow_u32(borrow, u, v, w));

	setb	bl

; 358  :         return (_FROMDWORDTOWORD((_UINT64_T)u * v, w_hi));

	mov	eax, DWORD PTR [eax+92]
	mul	DWORD PTR _q_$[ebp]
	mov	esi, eax
	mov	edi, edx

; 248  :         return (_addcarryx_u32(carry, u, v, w));

	add	esi, DWORD PTR _t_hi$2$[ebp]
	mov	eax, 0
	adcx	edi, eax
; File z:\sources\lunor\repos\rougemeilland\palmtree.math.core.uint\palmtree.math.core.uint\pmc_divrem.c

; 440  :     c = _SUBTRUCT_UNIT_DIV(c, *up, t_lo, up);

	mov	eax, DWORD PTR [ecx+92]
; File z:\sources\lunor\repos\rougemeilland\palmtree.math.core.uint\palmtree.math.core.uint\pmc_inline_func.h

; 276  :         return (_subborrow_u32(borrow, u, v, w));

	add	bl, 255					; 000000ffH
	sbb	eax, esi
	setb	bl
	mov	DWORD PTR [ecx+92], eax

; 358  :         return (_FROMDWORDTOWORD((_UINT64_T)u * v, w_hi));

	mov	eax, DWORD PTR _v_buf$[ebp]
	mov	eax, DWORD PTR [eax+96]
	mul	DWORD PTR _q_$[ebp]
	mov	esi, eax
	mov	eax, edx

; 248  :         return (_addcarryx_u32(carry, u, v, w));

	add	esi, edi
	mov	edx, 0
	adcx	eax, edx
	mov	DWORD PTR _t_hi$2$[ebp], eax

; 276  :         return (_subborrow_u32(borrow, u, v, w));

	add	bl, 255					; 000000ffH
; File z:\sources\lunor\repos\rougemeilland\palmtree.math.core.uint\palmtree.math.core.uint\pmc_divrem.c

; 440  :     c = _SUBTRUCT_UNIT_DIV(c, *up, t_lo, up);

	mov	eax, DWORD PTR [ecx+96]
; File z:\sources\lunor\repos\rougemeilland\palmtree.math.core.uint\palmtree.math.core.uint\pmc_inline_func.h

; 276  :         return (_subborrow_u32(borrow, u, v, w));

	sbb	eax, esi
	mov	DWORD PTR [ecx+96], eax

; 358  :         return (_FROMDWORDTOWORD((_UINT64_T)u * v, w_hi));

	mov	eax, DWORD PTR _v_buf$[ebp]

; 276  :         return (_subborrow_u32(borrow, u, v, w));

	setb	bl

; 358  :         return (_FROMDWORDTOWORD((_UINT64_T)u * v, w_hi));

	mov	eax, DWORD PTR [eax+100]
	mul	DWORD PTR _q_$[ebp]
	mov	esi, eax
	mov	edi, edx

; 248  :         return (_addcarryx_u32(carry, u, v, w));

	add	esi, DWORD PTR _t_hi$2$[ebp]
	mov	eax, 0
	adcx	edi, eax
; File z:\sources\lunor\repos\rougemeilland\palmtree.math.core.uint\palmtree.math.core.uint\pmc_divrem.c

; 440  :     c = _SUBTRUCT_UNIT_DIV(c, *up, t_lo, up);

	mov	eax, DWORD PTR [ecx+100]
; File z:\sources\lunor\repos\rougemeilland\palmtree.math.core.uint\palmtree.math.core.uint\pmc_inline_func.h

; 276  :         return (_subborrow_u32(borrow, u, v, w));

	add	bl, 255					; 000000ffH
	sbb	eax, esi
	mov	DWORD PTR [ecx+100], eax

; 358  :         return (_FROMDWORDTOWORD((_UINT64_T)u * v, w_hi));

	mov	eax, DWORD PTR _v_buf$[ebp]

; 276  :         return (_subborrow_u32(borrow, u, v, w));

	setb	bl

; 358  :         return (_FROMDWORDTOWORD((_UINT64_T)u * v, w_hi));

	mov	eax, DWORD PTR [eax+104]
	mul	DWORD PTR _q_$[ebp]
	mov	esi, eax
	mov	eax, edx

; 248  :         return (_addcarryx_u32(carry, u, v, w));

	add	esi, edi
	mov	edx, 0
	adcx	eax, edx
	mov	DWORD PTR _t_hi$2$[ebp], eax

; 276  :         return (_subborrow_u32(borrow, u, v, w));

	add	bl, 255					; 000000ffH
; File z:\sources\lunor\repos\rougemeilland\palmtree.math.core.uint\palmtree.math.core.uint\pmc_divrem.c

; 440  :     c = _SUBTRUCT_UNIT_DIV(c, *up, t_lo, up);

	mov	eax, DWORD PTR [ecx+104]
; File z:\sources\lunor\repos\rougemeilland\palmtree.math.core.uint\palmtree.math.core.uint\pmc_inline_func.h

; 276  :         return (_subborrow_u32(borrow, u, v, w));

	sbb	eax, esi
	mov	DWORD PTR [ecx+104], eax

; 358  :         return (_FROMDWORDTOWORD((_UINT64_T)u * v, w_hi));

	mov	eax, DWORD PTR _v_buf$[ebp]

; 276  :         return (_subborrow_u32(borrow, u, v, w));

	setb	bl

; 358  :         return (_FROMDWORDTOWORD((_UINT64_T)u * v, w_hi));

	mov	eax, DWORD PTR [eax+108]
	mul	DWORD PTR _q_$[ebp]
	mov	esi, eax
	mov	edi, edx

; 248  :         return (_addcarryx_u32(carry, u, v, w));

	add	esi, DWORD PTR _t_hi$2$[ebp]
	mov	eax, 0
	adcx	edi, eax
; File z:\sources\lunor\repos\rougemeilland\palmtree.math.core.uint\palmtree.math.core.uint\pmc_divrem.c

; 440  :     c = _SUBTRUCT_UNIT_DIV(c, *up, t_lo, up);

	mov	eax, DWORD PTR [ecx+108]
; File z:\sources\lunor\repos\rougemeilland\palmtree.math.core.uint\palmtree.math.core.uint\pmc_inline_func.h

; 276  :         return (_subborrow_u32(borrow, u, v, w));

	add	bl, 255					; 000000ffH
	sbb	eax, esi
	mov	DWORD PTR [ecx+108], eax

; 358  :         return (_FROMDWORDTOWORD((_UINT64_T)u * v, w_hi));

	mov	eax, DWORD PTR _v_buf$[ebp]

; 276  :         return (_subborrow_u32(borrow, u, v, w));

	setb	bl

; 358  :         return (_FROMDWORDTOWORD((_UINT64_T)u * v, w_hi));

	mov	eax, DWORD PTR [eax+112]
	mul	DWORD PTR _q_$[ebp]
	mov	esi, eax
	mov	eax, edx

; 248  :         return (_addcarryx_u32(carry, u, v, w));

	add	esi, edi
	mov	edx, 0
	adcx	eax, edx
	mov	DWORD PTR _t_hi$2$[ebp], eax

; 276  :         return (_subborrow_u32(borrow, u, v, w));

	add	bl, 255					; 000000ffH
; File z:\sources\lunor\repos\rougemeilland\palmtree.math.core.uint\palmtree.math.core.uint\pmc_divrem.c

; 440  :     c = _SUBTRUCT_UNIT_DIV(c, *up, t_lo, up);

	mov	eax, DWORD PTR [ecx+112]
; File z:\sources\lunor\repos\rougemeilland\palmtree.math.core.uint\palmtree.math.core.uint\pmc_inline_func.h

; 276  :         return (_subborrow_u32(borrow, u, v, w));

	sbb	eax, esi
	mov	DWORD PTR [ecx+112], eax

; 358  :         return (_FROMDWORDTOWORD((_UINT64_T)u * v, w_hi));

	mov	eax, DWORD PTR _v_buf$[ebp]

; 276  :         return (_subborrow_u32(borrow, u, v, w));

	setb	bl

; 358  :         return (_FROMDWORDTOWORD((_UINT64_T)u * v, w_hi));

	mov	eax, DWORD PTR [eax+116]
	mul	DWORD PTR _q_$[ebp]
	mov	esi, eax
	mov	edi, edx

; 248  :         return (_addcarryx_u32(carry, u, v, w));

	add	esi, DWORD PTR _t_hi$2$[ebp]
	mov	eax, 0
	adcx	edi, eax
; File z:\sources\lunor\repos\rougemeilland\palmtree.math.core.uint\palmtree.math.core.uint\pmc_divrem.c

; 440  :     c = _SUBTRUCT_UNIT_DIV(c, *up, t_lo, up);

	mov	eax, DWORD PTR [ecx+116]
; File z:\sources\lunor\repos\rougemeilland\palmtree.math.core.uint\palmtree.math.core.uint\pmc_inline_func.h

; 276  :         return (_subborrow_u32(borrow, u, v, w));

	add	bl, 255					; 000000ffH
	sbb	eax, esi
	setb	bl
	mov	DWORD PTR [ecx+116], eax

; 358  :         return (_FROMDWORDTOWORD((_UINT64_T)u * v, w_hi));

	mov	eax, DWORD PTR _v_buf$[ebp]
	mov	eax, DWORD PTR [eax+120]
	mul	DWORD PTR _q_$[ebp]
	mov	esi, eax
	mov	eax, edx

; 248  :         return (_addcarryx_u32(carry, u, v, w));

	add	esi, edi
	mov	edx, 0

; 358  :         return (_FROMDWORDTOWORD((_UINT64_T)u * v, w_hi));

	mov	edi, DWORD PTR _v_buf$[ebp]

; 248  :         return (_addcarryx_u32(carry, u, v, w));

	adcx	eax, edx
	mov	DWORD PTR _t_hi$2$[ebp], eax

; 276  :         return (_subborrow_u32(borrow, u, v, w));

	add	bl, 255					; 000000ffH
; File z:\sources\lunor\repos\rougemeilland\palmtree.math.core.uint\palmtree.math.core.uint\pmc_divrem.c

; 440  :     c = _SUBTRUCT_UNIT_DIV(c, *up, t_lo, up);

	mov	eax, DWORD PTR [ecx+120]
; File z:\sources\lunor\repos\rougemeilland\palmtree.math.core.uint\palmtree.math.core.uint\pmc_inline_func.h

; 276  :         return (_subborrow_u32(borrow, u, v, w));

	sbb	eax, esi
	mov	DWORD PTR [ecx+120], eax

; 358  :         return (_FROMDWORDTOWORD((_UINT64_T)u * v, w_hi));

	mov	eax, DWORD PTR [edi+124]

; 276  :         return (_subborrow_u32(borrow, u, v, w));

	setb	bl

; 358  :         return (_FROMDWORDTOWORD((_UINT64_T)u * v, w_hi));

	mul	DWORD PTR _q_$[ebp]
	mov	esi, eax
	mov	eax, edx

; 248  :         return (_addcarryx_u32(carry, u, v, w));

	add	esi, DWORD PTR _t_hi$2$[ebp]
	mov	edx, 0
	adcx	eax, edx
; File z:\sources\lunor\repos\rougemeilland\palmtree.math.core.uint\palmtree.math.core.uint\pmc_divrem.c

; 641  :         --count;

	mov	edx, DWORD PTR _count$1$[ebp]
; File z:\sources\lunor\repos\rougemeilland\palmtree.math.core.uint\palmtree.math.core.uint\pmc_inline_func.h

; 276  :         return (_subborrow_u32(borrow, u, v, w));

	add	bl, 255					; 000000ffH

; 248  :         return (_addcarryx_u32(carry, u, v, w));

	mov	DWORD PTR _k$1$[ebp], eax
; File z:\sources\lunor\repos\rougemeilland\palmtree.math.core.uint\palmtree.math.core.uint\pmc_divrem.c

; 440  :     c = _SUBTRUCT_UNIT_DIV(c, *up, t_lo, up);

	mov	eax, DWORD PTR [ecx+124]
; File z:\sources\lunor\repos\rougemeilland\palmtree.math.core.uint\palmtree.math.core.uint\pmc_inline_func.h

; 276  :         return (_subborrow_u32(borrow, u, v, w));

	sbb	eax, esi
; File z:\sources\lunor\repos\rougemeilland\palmtree.math.core.uint\palmtree.math.core.uint\pmc_uint_internal.h

; 348  :         _InterlockedExchangeAdd(&statistics_info.COUNT_MULTI32, value);

	mov	esi, OFFSET _statistics_info+4
; File z:\sources\lunor\repos\rougemeilland\palmtree.math.core.uint\palmtree.math.core.uint\pmc_inline_func.h

; 276  :         return (_subborrow_u32(borrow, u, v, w));

	mov	DWORD PTR [ecx+124], eax
; File z:\sources\lunor\repos\rougemeilland\palmtree.math.core.uint\palmtree.math.core.uint\pmc_uint_internal.h

; 348  :         _InterlockedExchangeAdd(&statistics_info.COUNT_MULTI32, value);

	mov	eax, 32					; 00000020H
; File z:\sources\lunor\repos\rougemeilland\palmtree.math.core.uint\palmtree.math.core.uint\pmc_inline_func.h

; 276  :         return (_subborrow_u32(borrow, u, v, w));

	setb	bl
; File z:\sources\lunor\repos\rougemeilland\palmtree.math.core.uint\palmtree.math.core.uint\pmc_divrem.c

; 640  :         v_ptr += 32;

	sub	edi, -128				; ffffff80H

; 641  :         --count;

	dec	edx
	mov	DWORD PTR _v_buf$[ebp], edi
	sub	ecx, -128				; ffffff80H
	mov	DWORD PTR _count$1$[ebp], edx
; File z:\sources\lunor\repos\rougemeilland\palmtree.math.core.uint\palmtree.math.core.uint\pmc_uint_internal.h

; 348  :         _InterlockedExchangeAdd(&statistics_info.COUNT_MULTI32, value);

	lock	 xadd	 DWORD PTR [esi], eax
; File z:\sources\lunor\repos\rougemeilland\palmtree.math.core.uint\palmtree.math.core.uint\pmc_divrem.c

; 605  :     while (count != 0)

	test	edx, edx
	mov	edx, DWORD PTR _q_$[ebp]
	jne	$LL2@SubtructOn
	mov	eax, DWORD PTR _v_buf_len$[ebp]
$LN3@SubtructOn:

; 642  : #ifdef ENABLED_PERFORMANCE_COUNTER
; 643  :         if (sizeof(k) == sizeof(_UINT64_T))
; 644  :             AddToMULTI64Counter(32);
; 645  :         else
; 646  :             AddToMULTI32Counter(32);
; 647  : #endif
; 648  :     }
; 649  : 
; 650  :     if (v_count & 0x10)

	test	al, 16					; 00000010H
	je	$LN604@SubtructOn
; File z:\sources\lunor\repos\rougemeilland\palmtree.math.core.uint\palmtree.math.core.uint\pmc_inline_func.h

; 358  :         return (_FROMDWORDTOWORD((_UINT64_T)u * v, w_hi));

	mov	eax, DWORD PTR [edi]
	mul	edx
	mov	esi, eax
	mov	edi, edx

; 248  :         return (_addcarryx_u32(carry, u, v, w));

	add	esi, DWORD PTR _k$1$[ebp]
	mov	eax, 0
	adcx	edi, eax
; File z:\sources\lunor\repos\rougemeilland\palmtree.math.core.uint\palmtree.math.core.uint\pmc_divrem.c

; 440  :     c = _SUBTRUCT_UNIT_DIV(c, *up, t_lo, up);

	mov	eax, DWORD PTR [ecx]
; File z:\sources\lunor\repos\rougemeilland\palmtree.math.core.uint\palmtree.math.core.uint\pmc_inline_func.h

; 276  :         return (_subborrow_u32(borrow, u, v, w));

	add	bl, 255					; 000000ffH
	sbb	eax, esi
	mov	DWORD PTR [ecx], eax

; 358  :         return (_FROMDWORDTOWORD((_UINT64_T)u * v, w_hi));

	mov	eax, DWORD PTR _v_buf$[ebp]

; 276  :         return (_subborrow_u32(borrow, u, v, w));

	setb	bl

; 358  :         return (_FROMDWORDTOWORD((_UINT64_T)u * v, w_hi));

	mov	eax, DWORD PTR [eax+4]
	mul	DWORD PTR _q_$[ebp]
	mov	esi, eax
	mov	eax, edx
; File z:\sources\lunor\repos\rougemeilland\palmtree.math.core.uint\palmtree.math.core.uint\pmc_divrem.c

; 438  :     t_lo = _MULTIPLYX_UNIT_DIV(*vp, q_, &t_hi);

	mov	DWORD PTR _t_lo$9[ebp], esi
; File z:\sources\lunor\repos\rougemeilland\palmtree.math.core.uint\palmtree.math.core.uint\pmc_inline_func.h

; 248  :         return (_addcarryx_u32(carry, u, v, w));

	mov	edx, 0
	add	esi, edi
	adcx	eax, edx
	mov	DWORD PTR _t_hi$2$[ebp], eax

; 276  :         return (_subborrow_u32(borrow, u, v, w));

	add	bl, 255					; 000000ffH
; File z:\sources\lunor\repos\rougemeilland\palmtree.math.core.uint\palmtree.math.core.uint\pmc_divrem.c

; 440  :     c = _SUBTRUCT_UNIT_DIV(c, *up, t_lo, up);

	mov	eax, DWORD PTR [ecx+4]
; File z:\sources\lunor\repos\rougemeilland\palmtree.math.core.uint\palmtree.math.core.uint\pmc_inline_func.h

; 276  :         return (_subborrow_u32(borrow, u, v, w));

	sbb	eax, esi
	mov	DWORD PTR [ecx+4], eax

; 358  :         return (_FROMDWORDTOWORD((_UINT64_T)u * v, w_hi));

	mov	eax, DWORD PTR _v_buf$[ebp]

; 276  :         return (_subborrow_u32(borrow, u, v, w));

	setb	bl

; 358  :         return (_FROMDWORDTOWORD((_UINT64_T)u * v, w_hi));

	mov	eax, DWORD PTR [eax+8]
	mul	DWORD PTR _q_$[ebp]
	mov	esi, eax
	mov	edi, edx

; 248  :         return (_addcarryx_u32(carry, u, v, w));

	add	esi, DWORD PTR _t_hi$2$[ebp]
	mov	eax, 0
	adcx	edi, eax
; File z:\sources\lunor\repos\rougemeilland\palmtree.math.core.uint\palmtree.math.core.uint\pmc_divrem.c

; 440  :     c = _SUBTRUCT_UNIT_DIV(c, *up, t_lo, up);

	mov	eax, DWORD PTR [ecx+8]
; File z:\sources\lunor\repos\rougemeilland\palmtree.math.core.uint\palmtree.math.core.uint\pmc_inline_func.h

; 276  :         return (_subborrow_u32(borrow, u, v, w));

	add	bl, 255					; 000000ffH
	sbb	eax, esi
	mov	DWORD PTR [ecx+8], eax

; 358  :         return (_FROMDWORDTOWORD((_UINT64_T)u * v, w_hi));

	mov	eax, DWORD PTR _v_buf$[ebp]

; 276  :         return (_subborrow_u32(borrow, u, v, w));

	setb	bl

; 358  :         return (_FROMDWORDTOWORD((_UINT64_T)u * v, w_hi));

	mov	eax, DWORD PTR [eax+12]
	mul	DWORD PTR _q_$[ebp]
	mov	esi, eax
	mov	eax, edx
; File z:\sources\lunor\repos\rougemeilland\palmtree.math.core.uint\palmtree.math.core.uint\pmc_divrem.c

; 438  :     t_lo = _MULTIPLYX_UNIT_DIV(*vp, q_, &t_hi);

	mov	DWORD PTR _t_lo$8[ebp], esi
; File z:\sources\lunor\repos\rougemeilland\palmtree.math.core.uint\palmtree.math.core.uint\pmc_inline_func.h

; 248  :         return (_addcarryx_u32(carry, u, v, w));

	mov	edx, 0
	add	esi, edi
	adcx	eax, edx
	mov	DWORD PTR _t_hi$2$[ebp], eax

; 276  :         return (_subborrow_u32(borrow, u, v, w));

	add	bl, 255					; 000000ffH
; File z:\sources\lunor\repos\rougemeilland\palmtree.math.core.uint\palmtree.math.core.uint\pmc_divrem.c

; 440  :     c = _SUBTRUCT_UNIT_DIV(c, *up, t_lo, up);

	mov	eax, DWORD PTR [ecx+12]
; File z:\sources\lunor\repos\rougemeilland\palmtree.math.core.uint\palmtree.math.core.uint\pmc_inline_func.h

; 276  :         return (_subborrow_u32(borrow, u, v, w));

	sbb	eax, esi
	mov	DWORD PTR [ecx+12], eax

; 358  :         return (_FROMDWORDTOWORD((_UINT64_T)u * v, w_hi));

	mov	eax, DWORD PTR _v_buf$[ebp]

; 276  :         return (_subborrow_u32(borrow, u, v, w));

	setb	bl

; 358  :         return (_FROMDWORDTOWORD((_UINT64_T)u * v, w_hi));

	mov	eax, DWORD PTR [eax+16]
	mul	DWORD PTR _q_$[ebp]
	mov	esi, eax
	mov	edi, edx

; 248  :         return (_addcarryx_u32(carry, u, v, w));

	add	esi, DWORD PTR _t_hi$2$[ebp]
	mov	eax, 0
	adcx	edi, eax
; File z:\sources\lunor\repos\rougemeilland\palmtree.math.core.uint\palmtree.math.core.uint\pmc_divrem.c

; 440  :     c = _SUBTRUCT_UNIT_DIV(c, *up, t_lo, up);

	mov	eax, DWORD PTR [ecx+16]
; File z:\sources\lunor\repos\rougemeilland\palmtree.math.core.uint\palmtree.math.core.uint\pmc_inline_func.h

; 276  :         return (_subborrow_u32(borrow, u, v, w));

	add	bl, 255					; 000000ffH
	sbb	eax, esi
	mov	DWORD PTR [ecx+16], eax

; 358  :         return (_FROMDWORDTOWORD((_UINT64_T)u * v, w_hi));

	mov	eax, DWORD PTR _v_buf$[ebp]

; 276  :         return (_subborrow_u32(borrow, u, v, w));

	setb	bl

; 358  :         return (_FROMDWORDTOWORD((_UINT64_T)u * v, w_hi));

	mov	eax, DWORD PTR [eax+20]
	mul	DWORD PTR _q_$[ebp]
	mov	esi, eax
	mov	eax, edx
; File z:\sources\lunor\repos\rougemeilland\palmtree.math.core.uint\palmtree.math.core.uint\pmc_divrem.c

; 438  :     t_lo = _MULTIPLYX_UNIT_DIV(*vp, q_, &t_hi);

	mov	DWORD PTR _t_lo$7[ebp], esi
; File z:\sources\lunor\repos\rougemeilland\palmtree.math.core.uint\palmtree.math.core.uint\pmc_inline_func.h

; 248  :         return (_addcarryx_u32(carry, u, v, w));

	mov	edx, 0
	add	esi, edi
	adcx	eax, edx
	mov	DWORD PTR _t_hi$2$[ebp], eax

; 276  :         return (_subborrow_u32(borrow, u, v, w));

	add	bl, 255					; 000000ffH
; File z:\sources\lunor\repos\rougemeilland\palmtree.math.core.uint\palmtree.math.core.uint\pmc_divrem.c

; 440  :     c = _SUBTRUCT_UNIT_DIV(c, *up, t_lo, up);

	mov	eax, DWORD PTR [ecx+20]
; File z:\sources\lunor\repos\rougemeilland\palmtree.math.core.uint\palmtree.math.core.uint\pmc_inline_func.h

; 276  :         return (_subborrow_u32(borrow, u, v, w));

	sbb	eax, esi
	mov	DWORD PTR [ecx+20], eax
	setb	bl

; 358  :         return (_FROMDWORDTOWORD((_UINT64_T)u * v, w_hi));

	mov	edi, DWORD PTR _v_buf$[ebp]
	mov	eax, DWORD PTR [edi+24]
	mul	DWORD PTR _q_$[ebp]
	mov	esi, eax
	mov	eax, edx

; 248  :         return (_addcarryx_u32(carry, u, v, w));

	add	esi, DWORD PTR _t_hi$2$[ebp]
	mov	edx, 0
	adcx	eax, edx
	mov	DWORD PTR _t_hi$2$[ebp], eax

; 276  :         return (_subborrow_u32(borrow, u, v, w));

	add	bl, 255					; 000000ffH
; File z:\sources\lunor\repos\rougemeilland\palmtree.math.core.uint\palmtree.math.core.uint\pmc_divrem.c

; 440  :     c = _SUBTRUCT_UNIT_DIV(c, *up, t_lo, up);

	mov	eax, DWORD PTR [ecx+24]
; File z:\sources\lunor\repos\rougemeilland\palmtree.math.core.uint\palmtree.math.core.uint\pmc_inline_func.h

; 276  :         return (_subborrow_u32(borrow, u, v, w));

	sbb	eax, esi
	mov	DWORD PTR [ecx+24], eax

; 358  :         return (_FROMDWORDTOWORD((_UINT64_T)u * v, w_hi));

	mov	eax, DWORD PTR [edi+28]

; 276  :         return (_subborrow_u32(borrow, u, v, w));

	setb	bl

; 358  :         return (_FROMDWORDTOWORD((_UINT64_T)u * v, w_hi));

	mul	DWORD PTR _q_$[ebp]
	mov	esi, eax
	mov	edi, edx

; 248  :         return (_addcarryx_u32(carry, u, v, w));

	add	esi, DWORD PTR _t_hi$2$[ebp]
	mov	eax, 0
	adcx	edi, eax
; File z:\sources\lunor\repos\rougemeilland\palmtree.math.core.uint\palmtree.math.core.uint\pmc_divrem.c

; 440  :     c = _SUBTRUCT_UNIT_DIV(c, *up, t_lo, up);

	mov	eax, DWORD PTR [ecx+28]
; File z:\sources\lunor\repos\rougemeilland\palmtree.math.core.uint\palmtree.math.core.uint\pmc_inline_func.h

; 276  :         return (_subborrow_u32(borrow, u, v, w));

	add	bl, 255					; 000000ffH
	sbb	eax, esi
	mov	DWORD PTR [ecx+28], eax

; 358  :         return (_FROMDWORDTOWORD((_UINT64_T)u * v, w_hi));

	mov	eax, DWORD PTR _v_buf$[ebp]

; 276  :         return (_subborrow_u32(borrow, u, v, w));

	setb	bl

; 358  :         return (_FROMDWORDTOWORD((_UINT64_T)u * v, w_hi));

	mov	eax, DWORD PTR [eax+32]
	mul	DWORD PTR _q_$[ebp]
	mov	esi, eax
	mov	eax, edx

; 248  :         return (_addcarryx_u32(carry, u, v, w));

	add	esi, edi
	mov	edx, 0
	adcx	eax, edx
	mov	DWORD PTR _t_hi$2$[ebp], eax

; 276  :         return (_subborrow_u32(borrow, u, v, w));

	add	bl, 255					; 000000ffH
; File z:\sources\lunor\repos\rougemeilland\palmtree.math.core.uint\palmtree.math.core.uint\pmc_divrem.c

; 440  :     c = _SUBTRUCT_UNIT_DIV(c, *up, t_lo, up);

	mov	eax, DWORD PTR [ecx+32]
; File z:\sources\lunor\repos\rougemeilland\palmtree.math.core.uint\palmtree.math.core.uint\pmc_inline_func.h

; 276  :         return (_subborrow_u32(borrow, u, v, w));

	sbb	eax, esi
	mov	DWORD PTR [ecx+32], eax

; 358  :         return (_FROMDWORDTOWORD((_UINT64_T)u * v, w_hi));

	mov	eax, DWORD PTR _v_buf$[ebp]

; 276  :         return (_subborrow_u32(borrow, u, v, w));

	setb	bl

; 358  :         return (_FROMDWORDTOWORD((_UINT64_T)u * v, w_hi));

	mov	eax, DWORD PTR [eax+36]
	mul	DWORD PTR _q_$[ebp]
	mov	esi, eax
	mov	edi, edx

; 248  :         return (_addcarryx_u32(carry, u, v, w));

	add	esi, DWORD PTR _t_hi$2$[ebp]
	mov	eax, 0
	adcx	edi, eax
; File z:\sources\lunor\repos\rougemeilland\palmtree.math.core.uint\palmtree.math.core.uint\pmc_divrem.c

; 440  :     c = _SUBTRUCT_UNIT_DIV(c, *up, t_lo, up);

	mov	eax, DWORD PTR [ecx+36]
; File z:\sources\lunor\repos\rougemeilland\palmtree.math.core.uint\palmtree.math.core.uint\pmc_inline_func.h

; 276  :         return (_subborrow_u32(borrow, u, v, w));

	add	bl, 255					; 000000ffH
	sbb	eax, esi
	mov	DWORD PTR [ecx+36], eax

; 358  :         return (_FROMDWORDTOWORD((_UINT64_T)u * v, w_hi));

	mov	eax, DWORD PTR _v_buf$[ebp]

; 276  :         return (_subborrow_u32(borrow, u, v, w));

	setb	bl

; 358  :         return (_FROMDWORDTOWORD((_UINT64_T)u * v, w_hi));

	mov	eax, DWORD PTR [eax+40]
	mul	DWORD PTR _q_$[ebp]
	mov	esi, eax
	mov	eax, edx

; 248  :         return (_addcarryx_u32(carry, u, v, w));

	add	esi, edi
	mov	edx, 0
	adcx	eax, edx
	mov	DWORD PTR _t_hi$2$[ebp], eax

; 276  :         return (_subborrow_u32(borrow, u, v, w));

	add	bl, 255					; 000000ffH
; File z:\sources\lunor\repos\rougemeilland\palmtree.math.core.uint\palmtree.math.core.uint\pmc_divrem.c

; 440  :     c = _SUBTRUCT_UNIT_DIV(c, *up, t_lo, up);

	mov	eax, DWORD PTR [ecx+40]
; File z:\sources\lunor\repos\rougemeilland\palmtree.math.core.uint\palmtree.math.core.uint\pmc_inline_func.h

; 276  :         return (_subborrow_u32(borrow, u, v, w));

	sbb	eax, esi
	mov	DWORD PTR [ecx+40], eax

; 358  :         return (_FROMDWORDTOWORD((_UINT64_T)u * v, w_hi));

	mov	eax, DWORD PTR _v_buf$[ebp]

; 276  :         return (_subborrow_u32(borrow, u, v, w));

	setb	bl

; 358  :         return (_FROMDWORDTOWORD((_UINT64_T)u * v, w_hi));

	mov	eax, DWORD PTR [eax+44]
	mul	DWORD PTR _q_$[ebp]
	mov	esi, eax
	mov	edi, edx

; 248  :         return (_addcarryx_u32(carry, u, v, w));

	add	esi, DWORD PTR _t_hi$2$[ebp]
	mov	eax, 0
	adcx	edi, eax
; File z:\sources\lunor\repos\rougemeilland\palmtree.math.core.uint\palmtree.math.core.uint\pmc_divrem.c

; 440  :     c = _SUBTRUCT_UNIT_DIV(c, *up, t_lo, up);

	mov	eax, DWORD PTR [ecx+44]
; File z:\sources\lunor\repos\rougemeilland\palmtree.math.core.uint\palmtree.math.core.uint\pmc_inline_func.h

; 276  :         return (_subborrow_u32(borrow, u, v, w));

	add	bl, 255					; 000000ffH
	sbb	eax, esi
	setb	bl
	mov	DWORD PTR [ecx+44], eax

; 358  :         return (_FROMDWORDTOWORD((_UINT64_T)u * v, w_hi));

	mov	eax, DWORD PTR _v_buf$[ebp]
	mov	eax, DWORD PTR [eax+48]
	mul	DWORD PTR _q_$[ebp]
	mov	esi, eax
	mov	eax, edx

; 248  :         return (_addcarryx_u32(carry, u, v, w));

	add	esi, edi
	mov	edx, 0
	adcx	eax, edx
	mov	DWORD PTR _t_hi$2$[ebp], eax

; 276  :         return (_subborrow_u32(borrow, u, v, w));

	add	bl, 255					; 000000ffH
; File z:\sources\lunor\repos\rougemeilland\palmtree.math.core.uint\palmtree.math.core.uint\pmc_divrem.c

; 440  :     c = _SUBTRUCT_UNIT_DIV(c, *up, t_lo, up);

	mov	eax, DWORD PTR [ecx+48]
; File z:\sources\lunor\repos\rougemeilland\palmtree.math.core.uint\palmtree.math.core.uint\pmc_inline_func.h

; 276  :         return (_subborrow_u32(borrow, u, v, w));

	sbb	eax, esi
	mov	DWORD PTR [ecx+48], eax

; 358  :         return (_FROMDWORDTOWORD((_UINT64_T)u * v, w_hi));

	mov	eax, DWORD PTR _v_buf$[ebp]

; 276  :         return (_subborrow_u32(borrow, u, v, w));

	setb	bl

; 358  :         return (_FROMDWORDTOWORD((_UINT64_T)u * v, w_hi));

	mov	eax, DWORD PTR [eax+52]
	mul	DWORD PTR _q_$[ebp]
	mov	esi, eax
	mov	edi, edx

; 248  :         return (_addcarryx_u32(carry, u, v, w));

	add	esi, DWORD PTR _t_hi$2$[ebp]
	mov	eax, 0
	adcx	edi, eax
; File z:\sources\lunor\repos\rougemeilland\palmtree.math.core.uint\palmtree.math.core.uint\pmc_divrem.c

; 440  :     c = _SUBTRUCT_UNIT_DIV(c, *up, t_lo, up);

	mov	eax, DWORD PTR [ecx+52]
; File z:\sources\lunor\repos\rougemeilland\palmtree.math.core.uint\palmtree.math.core.uint\pmc_inline_func.h

; 276  :         return (_subborrow_u32(borrow, u, v, w));

	add	bl, 255					; 000000ffH
	sbb	eax, esi
	mov	DWORD PTR [ecx+52], eax

; 358  :         return (_FROMDWORDTOWORD((_UINT64_T)u * v, w_hi));

	mov	eax, DWORD PTR _v_buf$[ebp]

; 276  :         return (_subborrow_u32(borrow, u, v, w));

	setb	bl

; 358  :         return (_FROMDWORDTOWORD((_UINT64_T)u * v, w_hi));

	mov	eax, DWORD PTR [eax+56]
	mul	DWORD PTR _q_$[ebp]
	mov	esi, eax
	mov	eax, edx

; 248  :         return (_addcarryx_u32(carry, u, v, w));

	add	esi, edi
	mov	edx, 0

; 358  :         return (_FROMDWORDTOWORD((_UINT64_T)u * v, w_hi));

	mov	edi, DWORD PTR _v_buf$[ebp]

; 248  :         return (_addcarryx_u32(carry, u, v, w));

	adcx	eax, edx
	mov	DWORD PTR _t_hi$2$[ebp], eax

; 276  :         return (_subborrow_u32(borrow, u, v, w));

	add	bl, 255					; 000000ffH
; File z:\sources\lunor\repos\rougemeilland\palmtree.math.core.uint\palmtree.math.core.uint\pmc_divrem.c

; 440  :     c = _SUBTRUCT_UNIT_DIV(c, *up, t_lo, up);

	mov	eax, DWORD PTR [ecx+56]
; File z:\sources\lunor\repos\rougemeilland\palmtree.math.core.uint\palmtree.math.core.uint\pmc_inline_func.h

; 276  :         return (_subborrow_u32(borrow, u, v, w));

	sbb	eax, esi
	mov	DWORD PTR [ecx+56], eax

; 358  :         return (_FROMDWORDTOWORD((_UINT64_T)u * v, w_hi));

	mov	eax, DWORD PTR [edi+60]

; 276  :         return (_subborrow_u32(borrow, u, v, w));

	setb	bl

; 358  :         return (_FROMDWORDTOWORD((_UINT64_T)u * v, w_hi));

	mul	DWORD PTR _q_$[ebp]
	mov	esi, eax

; 248  :         return (_addcarryx_u32(carry, u, v, w));

	mov	eax, 0
	add	esi, DWORD PTR _t_hi$2$[ebp]
	adcx	edx, eax
; File z:\sources\lunor\repos\rougemeilland\palmtree.math.core.uint\palmtree.math.core.uint\pmc_divrem.c

; 440  :     c = _SUBTRUCT_UNIT_DIV(c, *up, t_lo, up);

	mov	eax, DWORD PTR [ecx+60]
; File z:\sources\lunor\repos\rougemeilland\palmtree.math.core.uint\palmtree.math.core.uint\pmc_inline_func.h

; 276  :         return (_subborrow_u32(borrow, u, v, w));

	add	bl, 255					; 000000ffH

; 248  :         return (_addcarryx_u32(carry, u, v, w));

	mov	DWORD PTR _k$1$[ebp], edx
; File z:\sources\lunor\repos\rougemeilland\palmtree.math.core.uint\palmtree.math.core.uint\pmc_uint_internal.h

; 348  :         _InterlockedExchangeAdd(&statistics_info.COUNT_MULTI32, value);

	mov	edx, OFFSET _statistics_info+4
; File z:\sources\lunor\repos\rougemeilland\palmtree.math.core.uint\palmtree.math.core.uint\pmc_inline_func.h

; 276  :         return (_subborrow_u32(borrow, u, v, w));

	sbb	eax, esi
	mov	DWORD PTR [ecx+60], eax
; File z:\sources\lunor\repos\rougemeilland\palmtree.math.core.uint\palmtree.math.core.uint\pmc_uint_internal.h

; 348  :         _InterlockedExchangeAdd(&statistics_info.COUNT_MULTI32, value);

	mov	eax, 16					; 00000010H
; File z:\sources\lunor\repos\rougemeilland\palmtree.math.core.uint\palmtree.math.core.uint\pmc_inline_func.h

; 276  :         return (_subborrow_u32(borrow, u, v, w));

	setb	bl
; File z:\sources\lunor\repos\rougemeilland\palmtree.math.core.uint\palmtree.math.core.uint\pmc_divrem.c

; 669  :         v_ptr += 16;

	add	edi, 64					; 00000040H
	add	ecx, 64					; 00000040H
	mov	DWORD PTR _v_buf$[ebp], edi
; File z:\sources\lunor\repos\rougemeilland\palmtree.math.core.uint\palmtree.math.core.uint\pmc_uint_internal.h

; 348  :         _InterlockedExchangeAdd(&statistics_info.COUNT_MULTI32, value);

	lock	 xadd	 DWORD PTR [edx], eax
	mov	eax, DWORD PTR _v_buf_len$[ebp]
$LN604@SubtructOn:
; File z:\sources\lunor\repos\rougemeilland\palmtree.math.core.uint\palmtree.math.core.uint\pmc_divrem.c

; 678  :     if (v_count & 0x8)

	test	al, 8
	je	$LN824@SubtructOn
; File z:\sources\lunor\repos\rougemeilland\palmtree.math.core.uint\palmtree.math.core.uint\pmc_inline_func.h

; 358  :         return (_FROMDWORDTOWORD((_UINT64_T)u * v, w_hi));

	mov	eax, DWORD PTR [edi]
	mul	DWORD PTR _q_$[ebp]
	mov	esi, eax
	mov	edi, edx

; 248  :         return (_addcarryx_u32(carry, u, v, w));

	add	esi, DWORD PTR _k$1$[ebp]
	mov	eax, 0
	adcx	edi, eax
; File z:\sources\lunor\repos\rougemeilland\palmtree.math.core.uint\palmtree.math.core.uint\pmc_divrem.c

; 440  :     c = _SUBTRUCT_UNIT_DIV(c, *up, t_lo, up);

	mov	eax, DWORD PTR [ecx]
; File z:\sources\lunor\repos\rougemeilland\palmtree.math.core.uint\palmtree.math.core.uint\pmc_inline_func.h

; 276  :         return (_subborrow_u32(borrow, u, v, w));

	add	bl, 255					; 000000ffH
	sbb	eax, esi
	mov	DWORD PTR [ecx], eax

; 358  :         return (_FROMDWORDTOWORD((_UINT64_T)u * v, w_hi));

	mov	eax, DWORD PTR _v_buf$[ebp]

; 276  :         return (_subborrow_u32(borrow, u, v, w));

	setb	bl

; 358  :         return (_FROMDWORDTOWORD((_UINT64_T)u * v, w_hi));

	mov	eax, DWORD PTR [eax+4]
	mul	DWORD PTR _q_$[ebp]
	mov	esi, eax
	mov	eax, edx
; File z:\sources\lunor\repos\rougemeilland\palmtree.math.core.uint\palmtree.math.core.uint\pmc_divrem.c

; 438  :     t_lo = _MULTIPLYX_UNIT_DIV(*vp, q_, &t_hi);

	mov	DWORD PTR _t_lo$6[ebp], esi
; File z:\sources\lunor\repos\rougemeilland\palmtree.math.core.uint\palmtree.math.core.uint\pmc_inline_func.h

; 248  :         return (_addcarryx_u32(carry, u, v, w));

	mov	edx, 0
	add	esi, edi
	adcx	eax, edx
	mov	DWORD PTR _t_hi$2$[ebp], eax

; 276  :         return (_subborrow_u32(borrow, u, v, w));

	add	bl, 255					; 000000ffH
; File z:\sources\lunor\repos\rougemeilland\palmtree.math.core.uint\palmtree.math.core.uint\pmc_divrem.c

; 440  :     c = _SUBTRUCT_UNIT_DIV(c, *up, t_lo, up);

	mov	eax, DWORD PTR [ecx+4]
; File z:\sources\lunor\repos\rougemeilland\palmtree.math.core.uint\palmtree.math.core.uint\pmc_inline_func.h

; 276  :         return (_subborrow_u32(borrow, u, v, w));

	sbb	eax, esi
	mov	DWORD PTR [ecx+4], eax

; 358  :         return (_FROMDWORDTOWORD((_UINT64_T)u * v, w_hi));

	mov	eax, DWORD PTR _v_buf$[ebp]

; 276  :         return (_subborrow_u32(borrow, u, v, w));

	setb	bl

; 358  :         return (_FROMDWORDTOWORD((_UINT64_T)u * v, w_hi));

	mov	eax, DWORD PTR [eax+8]
	mul	DWORD PTR _q_$[ebp]
	mov	esi, eax
	mov	edi, edx

; 248  :         return (_addcarryx_u32(carry, u, v, w));

	add	esi, DWORD PTR _t_hi$2$[ebp]
	mov	eax, 0
	adcx	edi, eax
; File z:\sources\lunor\repos\rougemeilland\palmtree.math.core.uint\palmtree.math.core.uint\pmc_divrem.c

; 440  :     c = _SUBTRUCT_UNIT_DIV(c, *up, t_lo, up);

	mov	eax, DWORD PTR [ecx+8]
; File z:\sources\lunor\repos\rougemeilland\palmtree.math.core.uint\palmtree.math.core.uint\pmc_inline_func.h

; 276  :         return (_subborrow_u32(borrow, u, v, w));

	add	bl, 255					; 000000ffH
	sbb	eax, esi
	mov	DWORD PTR [ecx+8], eax

; 358  :         return (_FROMDWORDTOWORD((_UINT64_T)u * v, w_hi));

	mov	eax, DWORD PTR _v_buf$[ebp]

; 276  :         return (_subborrow_u32(borrow, u, v, w));

	setb	bl

; 358  :         return (_FROMDWORDTOWORD((_UINT64_T)u * v, w_hi));

	mov	eax, DWORD PTR [eax+12]
	mul	DWORD PTR _q_$[ebp]
	mov	esi, eax
	mov	eax, edx
; File z:\sources\lunor\repos\rougemeilland\palmtree.math.core.uint\palmtree.math.core.uint\pmc_divrem.c

; 438  :     t_lo = _MULTIPLYX_UNIT_DIV(*vp, q_, &t_hi);

	mov	DWORD PTR _t_lo$5[ebp], esi
; File z:\sources\lunor\repos\rougemeilland\palmtree.math.core.uint\palmtree.math.core.uint\pmc_inline_func.h

; 248  :         return (_addcarryx_u32(carry, u, v, w));

	mov	edx, 0
	add	esi, edi
	adcx	eax, edx
	mov	DWORD PTR _t_hi$2$[ebp], eax

; 276  :         return (_subborrow_u32(borrow, u, v, w));

	add	bl, 255					; 000000ffH
; File z:\sources\lunor\repos\rougemeilland\palmtree.math.core.uint\palmtree.math.core.uint\pmc_divrem.c

; 440  :     c = _SUBTRUCT_UNIT_DIV(c, *up, t_lo, up);

	mov	eax, DWORD PTR [ecx+12]
; File z:\sources\lunor\repos\rougemeilland\palmtree.math.core.uint\palmtree.math.core.uint\pmc_inline_func.h

; 276  :         return (_subborrow_u32(borrow, u, v, w));

	sbb	eax, esi
	mov	DWORD PTR [ecx+12], eax

; 358  :         return (_FROMDWORDTOWORD((_UINT64_T)u * v, w_hi));

	mov	eax, DWORD PTR _v_buf$[ebp]

; 276  :         return (_subborrow_u32(borrow, u, v, w));

	setb	bl

; 358  :         return (_FROMDWORDTOWORD((_UINT64_T)u * v, w_hi));

	mov	eax, DWORD PTR [eax+16]
	mul	DWORD PTR _q_$[ebp]
	mov	esi, eax
	mov	edi, edx

; 248  :         return (_addcarryx_u32(carry, u, v, w));

	add	esi, DWORD PTR _t_hi$2$[ebp]
	mov	eax, 0
	adcx	edi, eax
; File z:\sources\lunor\repos\rougemeilland\palmtree.math.core.uint\palmtree.math.core.uint\pmc_divrem.c

; 440  :     c = _SUBTRUCT_UNIT_DIV(c, *up, t_lo, up);

	mov	eax, DWORD PTR [ecx+16]
; File z:\sources\lunor\repos\rougemeilland\palmtree.math.core.uint\palmtree.math.core.uint\pmc_inline_func.h

; 276  :         return (_subborrow_u32(borrow, u, v, w));

	add	bl, 255					; 000000ffH
	sbb	eax, esi
	mov	DWORD PTR [ecx+16], eax

; 358  :         return (_FROMDWORDTOWORD((_UINT64_T)u * v, w_hi));

	mov	eax, DWORD PTR _v_buf$[ebp]

; 276  :         return (_subborrow_u32(borrow, u, v, w));

	setb	bl

; 358  :         return (_FROMDWORDTOWORD((_UINT64_T)u * v, w_hi));

	mov	eax, DWORD PTR [eax+20]
	mul	DWORD PTR _q_$[ebp]
	mov	esi, eax
	mov	eax, edx
; File z:\sources\lunor\repos\rougemeilland\palmtree.math.core.uint\palmtree.math.core.uint\pmc_divrem.c

; 438  :     t_lo = _MULTIPLYX_UNIT_DIV(*vp, q_, &t_hi);

	mov	DWORD PTR _t_lo$4[ebp], esi
; File z:\sources\lunor\repos\rougemeilland\palmtree.math.core.uint\palmtree.math.core.uint\pmc_inline_func.h

; 248  :         return (_addcarryx_u32(carry, u, v, w));

	mov	edx, 0
	add	esi, edi
	adcx	eax, edx
	mov	DWORD PTR _t_hi$2$[ebp], eax

; 276  :         return (_subborrow_u32(borrow, u, v, w));

	add	bl, 255					; 000000ffH
; File z:\sources\lunor\repos\rougemeilland\palmtree.math.core.uint\palmtree.math.core.uint\pmc_divrem.c

; 440  :     c = _SUBTRUCT_UNIT_DIV(c, *up, t_lo, up);

	mov	eax, DWORD PTR [ecx+20]
; File z:\sources\lunor\repos\rougemeilland\palmtree.math.core.uint\palmtree.math.core.uint\pmc_inline_func.h

; 276  :         return (_subborrow_u32(borrow, u, v, w));

	sbb	eax, esi
	mov	DWORD PTR [ecx+20], eax
	setb	bl

; 358  :         return (_FROMDWORDTOWORD((_UINT64_T)u * v, w_hi));

	mov	eax, DWORD PTR _v_buf$[ebp]
	mov	eax, DWORD PTR [eax+24]
	mul	DWORD PTR _q_$[ebp]
	mov	esi, eax
	mov	edi, edx

; 248  :         return (_addcarryx_u32(carry, u, v, w));

	add	esi, DWORD PTR _t_hi$2$[ebp]
	mov	eax, 0
	adcx	edi, eax
; File z:\sources\lunor\repos\rougemeilland\palmtree.math.core.uint\palmtree.math.core.uint\pmc_divrem.c

; 440  :     c = _SUBTRUCT_UNIT_DIV(c, *up, t_lo, up);

	mov	eax, DWORD PTR [ecx+24]
; File z:\sources\lunor\repos\rougemeilland\palmtree.math.core.uint\palmtree.math.core.uint\pmc_inline_func.h

; 276  :         return (_subborrow_u32(borrow, u, v, w));

	add	bl, 255					; 000000ffH
	sbb	eax, esi
	mov	DWORD PTR [ecx+24], eax

; 358  :         return (_FROMDWORDTOWORD((_UINT64_T)u * v, w_hi));

	mov	eax, DWORD PTR _v_buf$[ebp]

; 276  :         return (_subborrow_u32(borrow, u, v, w));

	setb	bl

; 358  :         return (_FROMDWORDTOWORD((_UINT64_T)u * v, w_hi));

	mov	eax, DWORD PTR [eax+28]
	mul	DWORD PTR _q_$[ebp]
	mov	esi, eax

; 248  :         return (_addcarryx_u32(carry, u, v, w));

	mov	eax, 0
	add	esi, edi
; File z:\sources\lunor\repos\rougemeilland\palmtree.math.core.uint\palmtree.math.core.uint\pmc_divrem.c

; 689  :         v_ptr += 8;

	mov	edi, DWORD PTR _v_buf$[ebp]
; File z:\sources\lunor\repos\rougemeilland\palmtree.math.core.uint\palmtree.math.core.uint\pmc_inline_func.h

; 248  :         return (_addcarryx_u32(carry, u, v, w));

	adcx	edx, eax
; File z:\sources\lunor\repos\rougemeilland\palmtree.math.core.uint\palmtree.math.core.uint\pmc_divrem.c

; 440  :     c = _SUBTRUCT_UNIT_DIV(c, *up, t_lo, up);

	mov	eax, DWORD PTR [ecx+28]
; File z:\sources\lunor\repos\rougemeilland\palmtree.math.core.uint\palmtree.math.core.uint\pmc_inline_func.h

; 276  :         return (_subborrow_u32(borrow, u, v, w));

	add	bl, 255					; 000000ffH

; 248  :         return (_addcarryx_u32(carry, u, v, w));

	mov	DWORD PTR _k$1$[ebp], edx

; 276  :         return (_subborrow_u32(borrow, u, v, w));

	sbb	eax, esi
; File z:\sources\lunor\repos\rougemeilland\palmtree.math.core.uint\palmtree.math.core.uint\pmc_uint_internal.h

; 348  :         _InterlockedExchangeAdd(&statistics_info.COUNT_MULTI32, value);

	mov	esi, OFFSET _statistics_info+4
; File z:\sources\lunor\repos\rougemeilland\palmtree.math.core.uint\palmtree.math.core.uint\pmc_inline_func.h

; 276  :         return (_subborrow_u32(borrow, u, v, w));

	mov	DWORD PTR [ecx+28], eax
; File z:\sources\lunor\repos\rougemeilland\palmtree.math.core.uint\palmtree.math.core.uint\pmc_uint_internal.h

; 348  :         _InterlockedExchangeAdd(&statistics_info.COUNT_MULTI32, value);

	mov	eax, 8
; File z:\sources\lunor\repos\rougemeilland\palmtree.math.core.uint\palmtree.math.core.uint\pmc_inline_func.h

; 276  :         return (_subborrow_u32(borrow, u, v, w));

	setb	bl
; File z:\sources\lunor\repos\rougemeilland\palmtree.math.core.uint\palmtree.math.core.uint\pmc_divrem.c

; 689  :         v_ptr += 8;

	add	edi, 32					; 00000020H
	add	ecx, 32					; 00000020H
	mov	DWORD PTR _v_buf$[ebp], edi
; File z:\sources\lunor\repos\rougemeilland\palmtree.math.core.uint\palmtree.math.core.uint\pmc_uint_internal.h

; 348  :         _InterlockedExchangeAdd(&statistics_info.COUNT_MULTI32, value);

	lock	 xadd	 DWORD PTR [esi], eax
; File z:\sources\lunor\repos\rougemeilland\palmtree.math.core.uint\palmtree.math.core.uint\pmc_divrem.c

; 678  :     if (v_count & 0x8)

	mov	eax, DWORD PTR _v_buf_len$[ebp]
	jmp	SHORT $LN704@SubtructOn
$LN824@SubtructOn:
	mov	edx, DWORD PTR _k$1$[ebp]
$LN704@SubtructOn:

; 690  : #ifdef ENABLED_PERFORMANCE_COUNTER
; 691  :         if (sizeof(k) == sizeof(_UINT64_T))
; 692  :             AddToMULTI64Counter(8);
; 693  :         else
; 694  :             AddToMULTI32Counter(8);
; 695  : #endif
; 696  :     }
; 697  : 
; 698  :     if (v_count & 0x4)

	test	al, 4
	je	$LN756@SubtructOn
; File z:\sources\lunor\repos\rougemeilland\palmtree.math.core.uint\palmtree.math.core.uint\pmc_inline_func.h

; 358  :         return (_FROMDWORDTOWORD((_UINT64_T)u * v, w_hi));

	mov	eax, DWORD PTR [edi]
	mul	DWORD PTR _q_$[ebp]
	mov	esi, eax
	mov	edi, edx

; 248  :         return (_addcarryx_u32(carry, u, v, w));

	add	esi, DWORD PTR _k$1$[ebp]
	mov	eax, 0
	adcx	edi, eax
; File z:\sources\lunor\repos\rougemeilland\palmtree.math.core.uint\palmtree.math.core.uint\pmc_divrem.c

; 440  :     c = _SUBTRUCT_UNIT_DIV(c, *up, t_lo, up);

	mov	eax, DWORD PTR [ecx]
; File z:\sources\lunor\repos\rougemeilland\palmtree.math.core.uint\palmtree.math.core.uint\pmc_inline_func.h

; 276  :         return (_subborrow_u32(borrow, u, v, w));

	add	bl, 255					; 000000ffH
	sbb	eax, esi
	mov	DWORD PTR [ecx], eax

; 358  :         return (_FROMDWORDTOWORD((_UINT64_T)u * v, w_hi));

	mov	eax, DWORD PTR _v_buf$[ebp]

; 276  :         return (_subborrow_u32(borrow, u, v, w));

	setb	bl

; 358  :         return (_FROMDWORDTOWORD((_UINT64_T)u * v, w_hi));

	mov	eax, DWORD PTR [eax+4]
	mul	DWORD PTR _q_$[ebp]
	mov	esi, eax
	mov	eax, edx
; File z:\sources\lunor\repos\rougemeilland\palmtree.math.core.uint\palmtree.math.core.uint\pmc_divrem.c

; 438  :     t_lo = _MULTIPLYX_UNIT_DIV(*vp, q_, &t_hi);

	mov	DWORD PTR _t_lo$3[ebp], esi
; File z:\sources\lunor\repos\rougemeilland\palmtree.math.core.uint\palmtree.math.core.uint\pmc_inline_func.h

; 248  :         return (_addcarryx_u32(carry, u, v, w));

	mov	edx, 0
	add	esi, edi
	adcx	eax, edx
	mov	DWORD PTR _t_hi$2$[ebp], eax

; 276  :         return (_subborrow_u32(borrow, u, v, w));

	add	bl, 255					; 000000ffH
; File z:\sources\lunor\repos\rougemeilland\palmtree.math.core.uint\palmtree.math.core.uint\pmc_divrem.c

; 440  :     c = _SUBTRUCT_UNIT_DIV(c, *up, t_lo, up);

	mov	eax, DWORD PTR [ecx+4]
; File z:\sources\lunor\repos\rougemeilland\palmtree.math.core.uint\palmtree.math.core.uint\pmc_inline_func.h

; 276  :         return (_subborrow_u32(borrow, u, v, w));

	sbb	eax, esi
	mov	DWORD PTR [ecx+4], eax

; 358  :         return (_FROMDWORDTOWORD((_UINT64_T)u * v, w_hi));

	mov	eax, DWORD PTR _v_buf$[ebp]

; 276  :         return (_subborrow_u32(borrow, u, v, w));

	setb	bl

; 358  :         return (_FROMDWORDTOWORD((_UINT64_T)u * v, w_hi));

	mov	eax, DWORD PTR [eax+8]
	mul	DWORD PTR _q_$[ebp]
	mov	esi, eax
	mov	edi, edx

; 248  :         return (_addcarryx_u32(carry, u, v, w));

	add	esi, DWORD PTR _t_hi$2$[ebp]
	mov	eax, 0
	adcx	edi, eax
; File z:\sources\lunor\repos\rougemeilland\palmtree.math.core.uint\palmtree.math.core.uint\pmc_divrem.c

; 440  :     c = _SUBTRUCT_UNIT_DIV(c, *up, t_lo, up);

	mov	eax, DWORD PTR [ecx+8]
; File z:\sources\lunor\repos\rougemeilland\palmtree.math.core.uint\palmtree.math.core.uint\pmc_inline_func.h

; 276  :         return (_subborrow_u32(borrow, u, v, w));

	add	bl, 255					; 000000ffH
	sbb	eax, esi
	mov	DWORD PTR [ecx+8], eax

; 358  :         return (_FROMDWORDTOWORD((_UINT64_T)u * v, w_hi));

	mov	eax, DWORD PTR _v_buf$[ebp]

; 276  :         return (_subborrow_u32(borrow, u, v, w));

	setb	bl

; 358  :         return (_FROMDWORDTOWORD((_UINT64_T)u * v, w_hi));

	mov	eax, DWORD PTR [eax+12]
	mul	DWORD PTR _q_$[ebp]
	mov	esi, eax

; 248  :         return (_addcarryx_u32(carry, u, v, w));

	mov	eax, 0
; File z:\sources\lunor\repos\rougemeilland\palmtree.math.core.uint\palmtree.math.core.uint\pmc_divrem.c

; 438  :     t_lo = _MULTIPLYX_UNIT_DIV(*vp, q_, &t_hi);

	mov	DWORD PTR _t_lo$2[ebp], esi
; File z:\sources\lunor\repos\rougemeilland\palmtree.math.core.uint\palmtree.math.core.uint\pmc_inline_func.h

; 248  :         return (_addcarryx_u32(carry, u, v, w));

	add	esi, edi
; File z:\sources\lunor\repos\rougemeilland\palmtree.math.core.uint\palmtree.math.core.uint\pmc_divrem.c

; 705  :         v_ptr += 4;

	mov	edi, DWORD PTR _v_buf$[ebp]
; File z:\sources\lunor\repos\rougemeilland\palmtree.math.core.uint\palmtree.math.core.uint\pmc_inline_func.h

; 248  :         return (_addcarryx_u32(carry, u, v, w));

	adcx	edx, eax
; File z:\sources\lunor\repos\rougemeilland\palmtree.math.core.uint\palmtree.math.core.uint\pmc_divrem.c

; 440  :     c = _SUBTRUCT_UNIT_DIV(c, *up, t_lo, up);

	mov	eax, DWORD PTR [ecx+12]
; File z:\sources\lunor\repos\rougemeilland\palmtree.math.core.uint\palmtree.math.core.uint\pmc_inline_func.h

; 276  :         return (_subborrow_u32(borrow, u, v, w));

	add	bl, 255					; 000000ffH

; 248  :         return (_addcarryx_u32(carry, u, v, w));

	mov	DWORD PTR _k$1$[ebp], edx

; 276  :         return (_subborrow_u32(borrow, u, v, w));

	sbb	eax, esi
; File z:\sources\lunor\repos\rougemeilland\palmtree.math.core.uint\palmtree.math.core.uint\pmc_uint_internal.h

; 348  :         _InterlockedExchangeAdd(&statistics_info.COUNT_MULTI32, value);

	mov	esi, OFFSET _statistics_info+4
; File z:\sources\lunor\repos\rougemeilland\palmtree.math.core.uint\palmtree.math.core.uint\pmc_inline_func.h

; 276  :         return (_subborrow_u32(borrow, u, v, w));

	mov	DWORD PTR [ecx+12], eax
; File z:\sources\lunor\repos\rougemeilland\palmtree.math.core.uint\palmtree.math.core.uint\pmc_uint_internal.h

; 348  :         _InterlockedExchangeAdd(&statistics_info.COUNT_MULTI32, value);

	mov	eax, 4
; File z:\sources\lunor\repos\rougemeilland\palmtree.math.core.uint\palmtree.math.core.uint\pmc_inline_func.h

; 276  :         return (_subborrow_u32(borrow, u, v, w));

	setb	bl
; File z:\sources\lunor\repos\rougemeilland\palmtree.math.core.uint\palmtree.math.core.uint\pmc_divrem.c

; 705  :         v_ptr += 4;

	add	edi, 16					; 00000010H
	add	ecx, 16					; 00000010H
	mov	DWORD PTR _v_buf$[ebp], edi
; File z:\sources\lunor\repos\rougemeilland\palmtree.math.core.uint\palmtree.math.core.uint\pmc_uint_internal.h

; 348  :         _InterlockedExchangeAdd(&statistics_info.COUNT_MULTI32, value);

	lock	 xadd	 DWORD PTR [esi], eax
	mov	eax, DWORD PTR _v_buf_len$[ebp]
$LN756@SubtructOn:
; File z:\sources\lunor\repos\rougemeilland\palmtree.math.core.uint\palmtree.math.core.uint\pmc_divrem.c

; 714  :     if (v_count & 0x2)

	test	al, 2
	je	SHORT $LN784@SubtructOn
; File z:\sources\lunor\repos\rougemeilland\palmtree.math.core.uint\palmtree.math.core.uint\pmc_inline_func.h

; 358  :         return (_FROMDWORDTOWORD((_UINT64_T)u * v, w_hi));

	mov	eax, DWORD PTR [edi]
	mul	DWORD PTR _q_$[ebp]
	mov	esi, eax
	mov	edi, edx

; 248  :         return (_addcarryx_u32(carry, u, v, w));

	add	esi, DWORD PTR _k$1$[ebp]
	mov	eax, 0
	adcx	edi, eax
; File z:\sources\lunor\repos\rougemeilland\palmtree.math.core.uint\palmtree.math.core.uint\pmc_divrem.c

; 440  :     c = _SUBTRUCT_UNIT_DIV(c, *up, t_lo, up);

	mov	eax, DWORD PTR [ecx]
; File z:\sources\lunor\repos\rougemeilland\palmtree.math.core.uint\palmtree.math.core.uint\pmc_inline_func.h

; 276  :         return (_subborrow_u32(borrow, u, v, w));

	add	bl, 255					; 000000ffH
	sbb	eax, esi
	mov	DWORD PTR [ecx], eax

; 358  :         return (_FROMDWORDTOWORD((_UINT64_T)u * v, w_hi));

	mov	eax, DWORD PTR _v_buf$[ebp]

; 276  :         return (_subborrow_u32(borrow, u, v, w));

	setb	bl

; 358  :         return (_FROMDWORDTOWORD((_UINT64_T)u * v, w_hi));

	mov	eax, DWORD PTR [eax+4]
	mul	DWORD PTR _q_$[ebp]
	mov	esi, eax
	mov	eax, edx
; File z:\sources\lunor\repos\rougemeilland\palmtree.math.core.uint\palmtree.math.core.uint\pmc_divrem.c

; 438  :     t_lo = _MULTIPLYX_UNIT_DIV(*vp, q_, &t_hi);

	mov	DWORD PTR _t_lo$1[ebp], esi
; File z:\sources\lunor\repos\rougemeilland\palmtree.math.core.uint\palmtree.math.core.uint\pmc_inline_func.h

; 248  :         return (_addcarryx_u32(carry, u, v, w));

	mov	edx, 0
	add	esi, edi
; File z:\sources\lunor\repos\rougemeilland\palmtree.math.core.uint\palmtree.math.core.uint\pmc_divrem.c

; 719  :         v_ptr += 2;

	mov	edi, DWORD PTR _v_buf$[ebp]
; File z:\sources\lunor\repos\rougemeilland\palmtree.math.core.uint\palmtree.math.core.uint\pmc_inline_func.h

; 248  :         return (_addcarryx_u32(carry, u, v, w));

	adcx	eax, edx
	mov	DWORD PTR _k$1$[ebp], eax

; 276  :         return (_subborrow_u32(borrow, u, v, w));

	add	bl, 255					; 000000ffH
; File z:\sources\lunor\repos\rougemeilland\palmtree.math.core.uint\palmtree.math.core.uint\pmc_divrem.c

; 440  :     c = _SUBTRUCT_UNIT_DIV(c, *up, t_lo, up);

	mov	eax, DWORD PTR [ecx+4]
; File z:\sources\lunor\repos\rougemeilland\palmtree.math.core.uint\palmtree.math.core.uint\pmc_uint_internal.h

; 348  :         _InterlockedExchangeAdd(&statistics_info.COUNT_MULTI32, value);

	mov	edx, 2
; File z:\sources\lunor\repos\rougemeilland\palmtree.math.core.uint\palmtree.math.core.uint\pmc_inline_func.h

; 276  :         return (_subborrow_u32(borrow, u, v, w));

	sbb	eax, esi
	mov	DWORD PTR [ecx+4], eax
; File z:\sources\lunor\repos\rougemeilland\palmtree.math.core.uint\palmtree.math.core.uint\pmc_uint_internal.h

; 348  :         _InterlockedExchangeAdd(&statistics_info.COUNT_MULTI32, value);

	mov	eax, OFFSET _statistics_info+4
; File z:\sources\lunor\repos\rougemeilland\palmtree.math.core.uint\palmtree.math.core.uint\pmc_inline_func.h

; 276  :         return (_subborrow_u32(borrow, u, v, w));

	setb	bl
; File z:\sources\lunor\repos\rougemeilland\palmtree.math.core.uint\palmtree.math.core.uint\pmc_divrem.c

; 718  :         u_ptr += 2;

	add	ecx, 8

; 719  :         v_ptr += 2;

	add	edi, 8
; File z:\sources\lunor\repos\rougemeilland\palmtree.math.core.uint\palmtree.math.core.uint\pmc_uint_internal.h

; 348  :         _InterlockedExchangeAdd(&statistics_info.COUNT_MULTI32, value);

	lock	 xadd	 DWORD PTR [eax], edx
	mov	edx, DWORD PTR _k$1$[ebp]
	mov	eax, DWORD PTR _v_buf_len$[ebp]
$LN784@SubtructOn:
; File z:\sources\lunor\repos\rougemeilland\palmtree.math.core.uint\palmtree.math.core.uint\pmc_divrem.c

; 728  :     if (v_count & 0x1)

	test	al, 1
	je	SHORT $LN800@SubtructOn
; File z:\sources\lunor\repos\rougemeilland\palmtree.math.core.uint\palmtree.math.core.uint\pmc_inline_func.h

; 358  :         return (_FROMDWORDTOWORD((_UINT64_T)u * v, w_hi));

	mov	eax, DWORD PTR [edi]
	mul	DWORD PTR _q_$[ebp]
	mov	esi, eax

; 248  :         return (_addcarryx_u32(carry, u, v, w));

	mov	eax, 0
	add	esi, DWORD PTR _k$1$[ebp]
	adcx	edx, eax
; File z:\sources\lunor\repos\rougemeilland\palmtree.math.core.uint\palmtree.math.core.uint\pmc_divrem.c

; 440  :     c = _SUBTRUCT_UNIT_DIV(c, *up, t_lo, up);

	mov	eax, DWORD PTR [ecx]
; File z:\sources\lunor\repos\rougemeilland\palmtree.math.core.uint\palmtree.math.core.uint\pmc_inline_func.h

; 276  :         return (_subborrow_u32(borrow, u, v, w));

	add	bl, 255					; 000000ffH
	sbb	eax, esi
	mov	DWORD PTR [ecx], eax
	setb	bl
; File z:\sources\lunor\repos\rougemeilland\palmtree.math.core.uint\palmtree.math.core.uint\pmc_divrem.c

; 731  :         u_ptr += 1;

	add	ecx, 4
; File z:\sources\lunor\repos\rougemeilland\palmtree.math.core.uint\palmtree.math.core.uint\pmc_uint_internal.h

; 325  :         _InterlockedIncrement(&statistics_info.COUNT_MULTI32);

	lock	 inc	 (null) PTR _statistics_info+4
$LN800@SubtructOn:
; File z:\sources\lunor\repos\rougemeilland\palmtree.math.core.uint\palmtree.math.core.uint\pmc_divrem.c

; 741  :     c = _SUBTRUCT_UNIT_DIV(c, *u_ptr, k, u_ptr);

	mov	eax, DWORD PTR [ecx]
; File z:\sources\lunor\repos\rougemeilland\palmtree.math.core.uint\palmtree.math.core.uint\pmc_inline_func.h

; 276  :         return (_subborrow_u32(borrow, u, v, w));

	add	bl, 255					; 000000ffH
	sbb	eax, edx
	mov	DWORD PTR [ecx], eax
; File z:\sources\lunor\repos\rougemeilland\palmtree.math.core.uint\palmtree.math.core.uint\pmc_divrem.c

; 744  :     return (DoBorrow(c, u_ptr, u_buf + u_buf_len + 1 - u_ptr));

	mov	eax, DWORD PTR _u_buf_len$[ebp]
; File z:\sources\lunor\repos\rougemeilland\palmtree.math.core.uint\palmtree.math.core.uint\pmc_inline_func.h

; 276  :         return (_subborrow_u32(borrow, u, v, w));

	setb	dl
; File z:\sources\lunor\repos\rougemeilland\palmtree.math.core.uint\palmtree.math.core.uint\pmc_divrem.c

; 742  :     u_ptr += 1;

	add	ecx, 4

; 744  :     return (DoBorrow(c, u_ptr, u_buf + u_buf_len + 1 - u_ptr));

	lea	esi, DWORD PTR [eax*4+4]
	sub	esi, ecx
	add	esi, DWORD PTR _u_buf$[ebp]
	sar	esi, 2

; 388  :         if (u_count <= 0)

	test	esi, esi
	je	SHORT $LN818@SubtructOn
$LL805@SubtructOn:

; 393  :             {
; 394  :                 // かつそれでも桁借りを行う必要がある場合
; 395  : 
; 396  :                 // 減算結果が負になってしまったので呼び出し元に通知する。
; 397  :                 return (TRUE);
; 398  :             }
; 399  : 
; 400  :             // u の最上位に達してしまった場合はいずれにしろループを中断して正常復帰する。
; 401  : 
; 402  :             return (FALSE);
; 403  :         }
; 404  :         else if (c)

	test	dl, dl
	je	SHORT $LN811@SubtructOn

; 405  :         {
; 406  :             // u の最上位に達しておらず、かつボローが立っている場合
; 407  : 
; 408  :             // 桁借りを継続する
; 409  :             c = _SUBTRUCT_UNIT_DIV(c, *up, 0, up);

	mov	eax, DWORD PTR [ecx]
; File z:\sources\lunor\repos\rougemeilland\palmtree.math.core.uint\palmtree.math.core.uint\pmc_inline_func.h

; 276  :         return (_subborrow_u32(borrow, u, v, w));

	add	dl, 255					; 000000ffH
	sbb	eax, 0
	mov	DWORD PTR [ecx], eax
	setb	dl
; File z:\sources\lunor\repos\rougemeilland\palmtree.math.core.uint\palmtree.math.core.uint\pmc_divrem.c

; 410  :             ++up;

	add	ecx, 4

; 411  :             --u_count;

	sub	esi, 1
	jne	SHORT $LL805@SubtructOn
$LN818@SubtructOn:

; 389  :         {
; 390  :             // u の最上位まで達してしまった場合
; 391  : 
; 392  :             if (c)

	xor	eax, eax
	test	dl, dl
	pop	edi

; 745  : }

	pop	esi

; 392  :             if (c)

	setne	al

; 745  : }

	pop	ebx
	mov	esp, ebp
	pop	ebp
	ret	0
$LN811@SubtructOn:
	pop	edi
	pop	esi
	xor	eax, eax
	pop	ebx
	mov	esp, ebp
	pop	ebp
	ret	0
_SubtructOneLineX ENDP
_TEXT	ENDS
; Function compile flags: /Ogtp
; File z:\sources\lunor\repos\rougemeilland\palmtree.math.core.uint\palmtree.math.core.uint\pmc_divrem.c
; File z:\sources\lunor\repos\rougemeilland\palmtree.math.core.uint\palmtree.math.core.uint\pmc_inline_func.h
; File z:\sources\lunor\repos\rougemeilland\palmtree.math.core.uint\palmtree.math.core.uint\pmc_divrem.c
; File z:\sources\lunor\repos\rougemeilland\palmtree.math.core.uint\palmtree.math.core.uint\pmc_inline_func.h
; File z:\sources\lunor\repos\rougemeilland\palmtree.math.core.uint\palmtree.math.core.uint\pmc_divrem.c
; File z:\sources\lunor\repos\rougemeilland\palmtree.math.core.uint\palmtree.math.core.uint\pmc_inline_func.h
; File z:\sources\lunor\repos\rougemeilland\palmtree.math.core.uint\palmtree.math.core.uint\pmc_divrem.c
; File z:\sources\lunor\repos\rougemeilland\palmtree.math.core.uint\palmtree.math.core.uint\pmc_inline_func.h
; File z:\sources\lunor\repos\rougemeilland\palmtree.math.core.uint\palmtree.math.core.uint\pmc_divrem.c
; File z:\sources\lunor\repos\rougemeilland\palmtree.math.core.uint\palmtree.math.core.uint\pmc_inline_func.h
; File z:\sources\lunor\repos\rougemeilland\palmtree.math.core.uint\palmtree.math.core.uint\pmc_divrem.c
; File z:\sources\lunor\repos\rougemeilland\palmtree.math.core.uint\palmtree.math.core.uint\pmc_inline_func.h
; File z:\sources\lunor\repos\rougemeilland\palmtree.math.core.uint\palmtree.math.core.uint\pmc_divrem.c
; File z:\sources\lunor\repos\rougemeilland\palmtree.math.core.uint\palmtree.math.core.uint\pmc_inline_func.h
; File z:\sources\lunor\repos\rougemeilland\palmtree.math.core.uint\palmtree.math.core.uint\pmc_divrem.c
; File z:\sources\lunor\repos\rougemeilland\palmtree.math.core.uint\palmtree.math.core.uint\pmc_inline_func.h
; File z:\sources\lunor\repos\rougemeilland\palmtree.math.core.uint\palmtree.math.core.uint\pmc_divrem.c
; File z:\sources\lunor\repos\rougemeilland\palmtree.math.core.uint\palmtree.math.core.uint\pmc_inline_func.h
; File z:\sources\lunor\repos\rougemeilland\palmtree.math.core.uint\palmtree.math.core.uint\pmc_divrem.c
; File z:\sources\lunor\repos\rougemeilland\palmtree.math.core.uint\palmtree.math.core.uint\pmc_inline_func.h
; File z:\sources\lunor\repos\rougemeilland\palmtree.math.core.uint\palmtree.math.core.uint\pmc_divrem.c
; File z:\sources\lunor\repos\rougemeilland\palmtree.math.core.uint\palmtree.math.core.uint\pmc_inline_func.h
; File z:\sources\lunor\repos\rougemeilland\palmtree.math.core.uint\palmtree.math.core.uint\pmc_divrem.c
; File z:\sources\lunor\repos\rougemeilland\palmtree.math.core.uint\palmtree.math.core.uint\pmc_inline_func.h
; File z:\sources\lunor\repos\rougemeilland\palmtree.math.core.uint\palmtree.math.core.uint\pmc_divrem.c
; File z:\sources\lunor\repos\rougemeilland\palmtree.math.core.uint\palmtree.math.core.uint\pmc_inline_func.h
; File z:\sources\lunor\repos\rougemeilland\palmtree.math.core.uint\palmtree.math.core.uint\pmc_divrem.c
; File z:\sources\lunor\repos\rougemeilland\palmtree.math.core.uint\palmtree.math.core.uint\pmc_inline_func.h
; File z:\sources\lunor\repos\rougemeilland\palmtree.math.core.uint\palmtree.math.core.uint\pmc_divrem.c
; File z:\sources\lunor\repos\rougemeilland\palmtree.math.core.uint\palmtree.math.core.uint\pmc_inline_func.h
; File z:\sources\lunor\repos\rougemeilland\palmtree.math.core.uint\palmtree.math.core.uint\pmc_divrem.c
; File z:\sources\lunor\repos\rougemeilland\palmtree.math.core.uint\palmtree.math.core.uint\pmc_inline_func.h
; File z:\sources\lunor\repos\rougemeilland\palmtree.math.core.uint\palmtree.math.core.uint\pmc_divrem.c
; File z:\sources\lunor\repos\rougemeilland\palmtree.math.core.uint\palmtree.math.core.uint\pmc_inline_func.h
; File z:\sources\lunor\repos\rougemeilland\palmtree.math.core.uint\palmtree.math.core.uint\pmc_divrem.c
; File z:\sources\lunor\repos\rougemeilland\palmtree.math.core.uint\palmtree.math.core.uint\pmc_inline_func.h
; File z:\sources\lunor\repos\rougemeilland\palmtree.math.core.uint\palmtree.math.core.uint\pmc_divrem.c
; File z:\sources\lunor\repos\rougemeilland\palmtree.math.core.uint\palmtree.math.core.uint\pmc_inline_func.h
; File z:\sources\lunor\repos\rougemeilland\palmtree.math.core.uint\palmtree.math.core.uint\pmc_divrem.c
; File z:\sources\lunor\repos\rougemeilland\palmtree.math.core.uint\palmtree.math.core.uint\pmc_inline_func.h
; File z:\sources\lunor\repos\rougemeilland\palmtree.math.core.uint\palmtree.math.core.uint\pmc_divrem.c
; File z:\sources\lunor\repos\rougemeilland\palmtree.math.core.uint\palmtree.math.core.uint\pmc_inline_func.h
; File z:\sources\lunor\repos\rougemeilland\palmtree.math.core.uint\palmtree.math.core.uint\pmc_divrem.c
; File z:\sources\lunor\repos\rougemeilland\palmtree.math.core.uint\palmtree.math.core.uint\pmc_inline_func.h
; File z:\sources\lunor\repos\rougemeilland\palmtree.math.core.uint\palmtree.math.core.uint\pmc_divrem.c
; File z:\sources\lunor\repos\rougemeilland\palmtree.math.core.uint\palmtree.math.core.uint\pmc_inline_func.h
; File z:\sources\lunor\repos\rougemeilland\palmtree.math.core.uint\palmtree.math.core.uint\pmc_divrem.c
; File z:\sources\lunor\repos\rougemeilland\palmtree.math.core.uint\palmtree.math.core.uint\pmc_inline_func.h
; File z:\sources\lunor\repos\rougemeilland\palmtree.math.core.uint\palmtree.math.core.uint\pmc_divrem.c
; File z:\sources\lunor\repos\rougemeilland\palmtree.math.core.uint\palmtree.math.core.uint\pmc_inline_func.h
; File z:\sources\lunor\repos\rougemeilland\palmtree.math.core.uint\palmtree.math.core.uint\pmc_divrem.c
; File z:\sources\lunor\repos\rougemeilland\palmtree.math.core.uint\palmtree.math.core.uint\pmc_inline_func.h
; File z:\sources\lunor\repos\rougemeilland\palmtree.math.core.uint\palmtree.math.core.uint\pmc_divrem.c
; File z:\sources\lunor\repos\rougemeilland\palmtree.math.core.uint\palmtree.math.core.uint\pmc_inline_func.h
; File z:\sources\lunor\repos\rougemeilland\palmtree.math.core.uint\palmtree.math.core.uint\pmc_divrem.c
; File z:\sources\lunor\repos\rougemeilland\palmtree.math.core.uint\palmtree.math.core.uint\pmc_inline_func.h
; File z:\sources\lunor\repos\rougemeilland\palmtree.math.core.uint\palmtree.math.core.uint\pmc_divrem.c
; File z:\sources\lunor\repos\rougemeilland\palmtree.math.core.uint\palmtree.math.core.uint\pmc_inline_func.h
; File z:\sources\lunor\repos\rougemeilland\palmtree.math.core.uint\palmtree.math.core.uint\pmc_divrem.c
; File z:\sources\lunor\repos\rougemeilland\palmtree.math.core.uint\palmtree.math.core.uint\pmc_inline_func.h
; File z:\sources\lunor\repos\rougemeilland\palmtree.math.core.uint\palmtree.math.core.uint\pmc_divrem.c
; File z:\sources\lunor\repos\rougemeilland\palmtree.math.core.uint\palmtree.math.core.uint\pmc_inline_func.h
; File z:\sources\lunor\repos\rougemeilland\palmtree.math.core.uint\palmtree.math.core.uint\pmc_divrem.c
; File z:\sources\lunor\repos\rougemeilland\palmtree.math.core.uint\palmtree.math.core.uint\pmc_inline_func.h
; File z:\sources\lunor\repos\rougemeilland\palmtree.math.core.uint\palmtree.math.core.uint\pmc_divrem.c
; File z:\sources\lunor\repos\rougemeilland\palmtree.math.core.uint\palmtree.math.core.uint\pmc_inline_func.h
; File z:\sources\lunor\repos\rougemeilland\palmtree.math.core.uint\palmtree.math.core.uint\pmc_divrem.c
; File z:\sources\lunor\repos\rougemeilland\palmtree.math.core.uint\palmtree.math.core.uint\pmc_inline_func.h
; File z:\sources\lunor\repos\rougemeilland\palmtree.math.core.uint\palmtree.math.core.uint\pmc_divrem.c
; File z:\sources\lunor\repos\rougemeilland\palmtree.math.core.uint\palmtree.math.core.uint\pmc_inline_func.h
; File z:\sources\lunor\repos\rougemeilland\palmtree.math.core.uint\palmtree.math.core.uint\pmc_divrem.c
; File z:\sources\lunor\repos\rougemeilland\palmtree.math.core.uint\palmtree.math.core.uint\pmc_inline_func.h
; File z:\sources\lunor\repos\rougemeilland\palmtree.math.core.uint\palmtree.math.core.uint\pmc_divrem.c
; File z:\sources\lunor\repos\rougemeilland\palmtree.math.core.uint\palmtree.math.core.uint\pmc_uint_internal.h
; File z:\sources\lunor\repos\rougemeilland\palmtree.math.core.uint\palmtree.math.core.uint\pmc_divrem.c
; File z:\sources\lunor\repos\rougemeilland\palmtree.math.core.uint\palmtree.math.core.uint\pmc_uint_internal.h
; File z:\sources\lunor\repos\rougemeilland\palmtree.math.core.uint\palmtree.math.core.uint\pmc_divrem.c
; File z:\sources\lunor\repos\rougemeilland\palmtree.math.core.uint\palmtree.math.core.uint\pmc_uint_internal.h
; File z:\sources\lunor\repos\rougemeilland\palmtree.math.core.uint\palmtree.math.core.uint\pmc_divrem.c
; File z:\sources\lunor\repos\rougemeilland\palmtree.math.core.uint\palmtree.math.core.uint\pmc_inline_func.h
; File z:\sources\lunor\repos\rougemeilland\palmtree.math.core.uint\palmtree.math.core.uint\pmc_divrem.c
; File z:\sources\lunor\repos\rougemeilland\palmtree.math.core.uint\palmtree.math.core.uint\pmc_inline_func.h
; File z:\sources\lunor\repos\rougemeilland\palmtree.math.core.uint\palmtree.math.core.uint\pmc_divrem.c
; File z:\sources\lunor\repos\rougemeilland\palmtree.math.core.uint\palmtree.math.core.uint\pmc_inline_func.h
; File z:\sources\lunor\repos\rougemeilland\palmtree.math.core.uint\palmtree.math.core.uint\pmc_divrem.c
; File z:\sources\lunor\repos\rougemeilland\palmtree.math.core.uint\palmtree.math.core.uint\pmc_inline_func.h
; File z:\sources\lunor\repos\rougemeilland\palmtree.math.core.uint\palmtree.math.core.uint\pmc_divrem.c
; File z:\sources\lunor\repos\rougemeilland\palmtree.math.core.uint\palmtree.math.core.uint\pmc_inline_func.h
; File z:\sources\lunor\repos\rougemeilland\palmtree.math.core.uint\palmtree.math.core.uint\pmc_divrem.c
; File z:\sources\lunor\repos\rougemeilland\palmtree.math.core.uint\palmtree.math.core.uint\pmc_inline_func.h
; File z:\sources\lunor\repos\rougemeilland\palmtree.math.core.uint\palmtree.math.core.uint\pmc_divrem.c
; File z:\sources\lunor\repos\rougemeilland\palmtree.math.core.uint\palmtree.math.core.uint\pmc_inline_func.h
; File z:\sources\lunor\repos\rougemeilland\palmtree.math.core.uint\palmtree.math.core.uint\pmc_divrem.c
; File z:\sources\lunor\repos\rougemeilland\palmtree.math.core.uint\palmtree.math.core.uint\pmc_inline_func.h
; File z:\sources\lunor\repos\rougemeilland\palmtree.math.core.uint\palmtree.math.core.uint\pmc_divrem.c
; File z:\sources\lunor\repos\rougemeilland\palmtree.math.core.uint\palmtree.math.core.uint\pmc_inline_func.h
; File z:\sources\lunor\repos\rougemeilland\palmtree.math.core.uint\palmtree.math.core.uint\pmc_divrem.c
; File z:\sources\lunor\repos\rougemeilland\palmtree.math.core.uint\palmtree.math.core.uint\pmc_inline_func.h
; File z:\sources\lunor\repos\rougemeilland\palmtree.math.core.uint\palmtree.math.core.uint\pmc_divrem.c
; File z:\sources\lunor\repos\rougemeilland\palmtree.math.core.uint\palmtree.math.core.uint\pmc_inline_func.h
; File z:\sources\lunor\repos\rougemeilland\palmtree.math.core.uint\palmtree.math.core.uint\pmc_divrem.c
; File z:\sources\lunor\repos\rougemeilland\palmtree.math.core.uint\palmtree.math.core.uint\pmc_inline_func.h
; File z:\sources\lunor\repos\rougemeilland\palmtree.math.core.uint\palmtree.math.core.uint\pmc_divrem.c
; File z:\sources\lunor\repos\rougemeilland\palmtree.math.core.uint\palmtree.math.core.uint\pmc_inline_func.h
; File z:\sources\lunor\repos\rougemeilland\palmtree.math.core.uint\palmtree.math.core.uint\pmc_divrem.c
; File z:\sources\lunor\repos\rougemeilland\palmtree.math.core.uint\palmtree.math.core.uint\pmc_inline_func.h
; File z:\sources\lunor\repos\rougemeilland\palmtree.math.core.uint\palmtree.math.core.uint\pmc_divrem.c
; File z:\sources\lunor\repos\rougemeilland\palmtree.math.core.uint\palmtree.math.core.uint\pmc_inline_func.h
; File z:\sources\lunor\repos\rougemeilland\palmtree.math.core.uint\palmtree.math.core.uint\pmc_divrem.c
; File z:\sources\lunor\repos\rougemeilland\palmtree.math.core.uint\palmtree.math.core.uint\pmc_inline_func.h
; File z:\sources\lunor\repos\rougemeilland\palmtree.math.core.uint\palmtree.math.core.uint\pmc_divrem.c
; File z:\sources\lunor\repos\rougemeilland\palmtree.math.core.uint\palmtree.math.core.uint\pmc_inline_func.h
; File z:\sources\lunor\repos\rougemeilland\palmtree.math.core.uint\palmtree.math.core.uint\pmc_divrem.c
; File z:\sources\lunor\repos\rougemeilland\palmtree.math.core.uint\palmtree.math.core.uint\pmc_inline_func.h
; File z:\sources\lunor\repos\rougemeilland\palmtree.math.core.uint\palmtree.math.core.uint\pmc_divrem.c
; File z:\sources\lunor\repos\rougemeilland\palmtree.math.core.uint\palmtree.math.core.uint\pmc_inline_func.h
; File z:\sources\lunor\repos\rougemeilland\palmtree.math.core.uint\palmtree.math.core.uint\pmc_divrem.c
; File z:\sources\lunor\repos\rougemeilland\palmtree.math.core.uint\palmtree.math.core.uint\pmc_inline_func.h
; File z:\sources\lunor\repos\rougemeilland\palmtree.math.core.uint\palmtree.math.core.uint\pmc_uint_internal.h
; File z:\sources\lunor\repos\rougemeilland\palmtree.math.core.uint\palmtree.math.core.uint\pmc_inline_func.h
; File z:\sources\lunor\repos\rougemeilland\palmtree.math.core.uint\palmtree.math.core.uint\pmc_uint_internal.h
; File z:\sources\lunor\repos\rougemeilland\palmtree.math.core.uint\palmtree.math.core.uint\pmc_inline_func.h
; File z:\sources\lunor\repos\rougemeilland\palmtree.math.core.uint\palmtree.math.core.uint\pmc_divrem.c
; File z:\sources\lunor\repos\rougemeilland\palmtree.math.core.uint\palmtree.math.core.uint\pmc_uint_internal.h
; File z:\sources\lunor\repos\rougemeilland\palmtree.math.core.uint\palmtree.math.core.uint\pmc_divrem.c
; File z:\sources\lunor\repos\rougemeilland\palmtree.math.core.uint\palmtree.math.core.uint\pmc_inline_func.h
; File z:\sources\lunor\repos\rougemeilland\palmtree.math.core.uint\palmtree.math.core.uint\pmc_divrem.c
; File z:\sources\lunor\repos\rougemeilland\palmtree.math.core.uint\palmtree.math.core.uint\pmc_inline_func.h
; File z:\sources\lunor\repos\rougemeilland\palmtree.math.core.uint\palmtree.math.core.uint\pmc_divrem.c
; File z:\sources\lunor\repos\rougemeilland\palmtree.math.core.uint\palmtree.math.core.uint\pmc_inline_func.h
; File z:\sources\lunor\repos\rougemeilland\palmtree.math.core.uint\palmtree.math.core.uint\pmc_divrem.c
; File z:\sources\lunor\repos\rougemeilland\palmtree.math.core.uint\palmtree.math.core.uint\pmc_inline_func.h
; File z:\sources\lunor\repos\rougemeilland\palmtree.math.core.uint\palmtree.math.core.uint\pmc_divrem.c
; File z:\sources\lunor\repos\rougemeilland\palmtree.math.core.uint\palmtree.math.core.uint\pmc_inline_func.h
; File z:\sources\lunor\repos\rougemeilland\palmtree.math.core.uint\palmtree.math.core.uint\pmc_divrem.c
; File z:\sources\lunor\repos\rougemeilland\palmtree.math.core.uint\palmtree.math.core.uint\pmc_inline_func.h
; File z:\sources\lunor\repos\rougemeilland\palmtree.math.core.uint\palmtree.math.core.uint\pmc_divrem.c
; File z:\sources\lunor\repos\rougemeilland\palmtree.math.core.uint\palmtree.math.core.uint\pmc_inline_func.h
; File z:\sources\lunor\repos\rougemeilland\palmtree.math.core.uint\palmtree.math.core.uint\pmc_divrem.c
; File z:\sources\lunor\repos\rougemeilland\palmtree.math.core.uint\palmtree.math.core.uint\pmc_inline_func.h
; File z:\sources\lunor\repos\rougemeilland\palmtree.math.core.uint\palmtree.math.core.uint\pmc_divrem.c
; File z:\sources\lunor\repos\rougemeilland\palmtree.math.core.uint\palmtree.math.core.uint\pmc_inline_func.h
; File z:\sources\lunor\repos\rougemeilland\palmtree.math.core.uint\palmtree.math.core.uint\pmc_divrem.c
; File z:\sources\lunor\repos\rougemeilland\palmtree.math.core.uint\palmtree.math.core.uint\pmc_inline_func.h
; File z:\sources\lunor\repos\rougemeilland\palmtree.math.core.uint\palmtree.math.core.uint\pmc_divrem.c
; File z:\sources\lunor\repos\rougemeilland\palmtree.math.core.uint\palmtree.math.core.uint\pmc_inline_func.h
; File z:\sources\lunor\repos\rougemeilland\palmtree.math.core.uint\palmtree.math.core.uint\pmc_divrem.c
; File z:\sources\lunor\repos\rougemeilland\palmtree.math.core.uint\palmtree.math.core.uint\pmc_inline_func.h
; File z:\sources\lunor\repos\rougemeilland\palmtree.math.core.uint\palmtree.math.core.uint\pmc_divrem.c
; File z:\sources\lunor\repos\rougemeilland\palmtree.math.core.uint\palmtree.math.core.uint\pmc_inline_func.h
; File z:\sources\lunor\repos\rougemeilland\palmtree.math.core.uint\palmtree.math.core.uint\pmc_uint_internal.h
; File z:\sources\lunor\repos\rougemeilland\palmtree.math.core.uint\palmtree.math.core.uint\pmc_inline_func.h
; File z:\sources\lunor\repos\rougemeilland\palmtree.math.core.uint\palmtree.math.core.uint\pmc_uint_internal.h
; File z:\sources\lunor\repos\rougemeilland\palmtree.math.core.uint\palmtree.math.core.uint\pmc_inline_func.h
; File z:\sources\lunor\repos\rougemeilland\palmtree.math.core.uint\palmtree.math.core.uint\pmc_divrem.c
; File z:\sources\lunor\repos\rougemeilland\palmtree.math.core.uint\palmtree.math.core.uint\pmc_uint_internal.h
; File z:\sources\lunor\repos\rougemeilland\palmtree.math.core.uint\palmtree.math.core.uint\pmc_divrem.c
; File z:\sources\lunor\repos\rougemeilland\palmtree.math.core.uint\palmtree.math.core.uint\pmc_inline_func.h
; File z:\sources\lunor\repos\rougemeilland\palmtree.math.core.uint\palmtree.math.core.uint\pmc_divrem.c
; File z:\sources\lunor\repos\rougemeilland\palmtree.math.core.uint\palmtree.math.core.uint\pmc_inline_func.h
; File z:\sources\lunor\repos\rougemeilland\palmtree.math.core.uint\palmtree.math.core.uint\pmc_divrem.c
; File z:\sources\lunor\repos\rougemeilland\palmtree.math.core.uint\palmtree.math.core.uint\pmc_inline_func.h
; File z:\sources\lunor\repos\rougemeilland\palmtree.math.core.uint\palmtree.math.core.uint\pmc_divrem.c
; File z:\sources\lunor\repos\rougemeilland\palmtree.math.core.uint\palmtree.math.core.uint\pmc_inline_func.h
; File z:\sources\lunor\repos\rougemeilland\palmtree.math.core.uint\palmtree.math.core.uint\pmc_divrem.c
; File z:\sources\lunor\repos\rougemeilland\palmtree.math.core.uint\palmtree.math.core.uint\pmc_inline_func.h
; File z:\sources\lunor\repos\rougemeilland\palmtree.math.core.uint\palmtree.math.core.uint\pmc_divrem.c
; File z:\sources\lunor\repos\rougemeilland\palmtree.math.core.uint\palmtree.math.core.uint\pmc_inline_func.h
; File z:\sources\lunor\repos\rougemeilland\palmtree.math.core.uint\palmtree.math.core.uint\pmc_divrem.c
; File z:\sources\lunor\repos\rougemeilland\palmtree.math.core.uint\palmtree.math.core.uint\pmc_inline_func.h
; File z:\sources\lunor\repos\rougemeilland\palmtree.math.core.uint\palmtree.math.core.uint\pmc_uint_internal.h
; File z:\sources\lunor\repos\rougemeilland\palmtree.math.core.uint\palmtree.math.core.uint\pmc_inline_func.h
; File z:\sources\lunor\repos\rougemeilland\palmtree.math.core.uint\palmtree.math.core.uint\pmc_uint_internal.h
; File z:\sources\lunor\repos\rougemeilland\palmtree.math.core.uint\palmtree.math.core.uint\pmc_inline_func.h
; File z:\sources\lunor\repos\rougemeilland\palmtree.math.core.uint\palmtree.math.core.uint\pmc_divrem.c
; File z:\sources\lunor\repos\rougemeilland\palmtree.math.core.uint\palmtree.math.core.uint\pmc_uint_internal.h
; File z:\sources\lunor\repos\rougemeilland\palmtree.math.core.uint\palmtree.math.core.uint\pmc_divrem.c
; File z:\sources\lunor\repos\rougemeilland\palmtree.math.core.uint\palmtree.math.core.uint\pmc_inline_func.h
; File z:\sources\lunor\repos\rougemeilland\palmtree.math.core.uint\palmtree.math.core.uint\pmc_divrem.c
; File z:\sources\lunor\repos\rougemeilland\palmtree.math.core.uint\palmtree.math.core.uint\pmc_inline_func.h
; File z:\sources\lunor\repos\rougemeilland\palmtree.math.core.uint\palmtree.math.core.uint\pmc_divrem.c
; File z:\sources\lunor\repos\rougemeilland\palmtree.math.core.uint\palmtree.math.core.uint\pmc_uint_internal.h
; File z:\sources\lunor\repos\rougemeilland\palmtree.math.core.uint\palmtree.math.core.uint\pmc_inline_func.h
; File z:\sources\lunor\repos\rougemeilland\palmtree.math.core.uint\palmtree.math.core.uint\pmc_divrem.c
; File z:\sources\lunor\repos\rougemeilland\palmtree.math.core.uint\palmtree.math.core.uint\pmc_inline_func.h
; File z:\sources\lunor\repos\rougemeilland\palmtree.math.core.uint\palmtree.math.core.uint\pmc_divrem.c
; File z:\sources\lunor\repos\rougemeilland\palmtree.math.core.uint\palmtree.math.core.uint\pmc_inline_func.h
; File z:\sources\lunor\repos\rougemeilland\palmtree.math.core.uint\palmtree.math.core.uint\pmc_uint_internal.h
; File z:\sources\lunor\repos\rougemeilland\palmtree.math.core.uint\palmtree.math.core.uint\pmc_inline_func.h
; File z:\sources\lunor\repos\rougemeilland\palmtree.math.core.uint\palmtree.math.core.uint\pmc_divrem.c
; File z:\sources\lunor\repos\rougemeilland\palmtree.math.core.uint\palmtree.math.core.uint\pmc_uint_internal.h
; File z:\sources\lunor\repos\rougemeilland\palmtree.math.core.uint\palmtree.math.core.uint\pmc_divrem.c
; File z:\sources\lunor\repos\rougemeilland\palmtree.math.core.uint\palmtree.math.core.uint\pmc_inline_func.h
; File z:\sources\lunor\repos\rougemeilland\palmtree.math.core.uint\palmtree.math.core.uint\pmc_divrem.c
; File z:\sources\lunor\repos\rougemeilland\palmtree.math.core.uint\palmtree.math.core.uint\pmc_inline_func.h
; File z:\sources\lunor\repos\rougemeilland\palmtree.math.core.uint\palmtree.math.core.uint\pmc_divrem.c
; File z:\sources\lunor\repos\rougemeilland\palmtree.math.core.uint\palmtree.math.core.uint\pmc_uint_internal.h
; File z:\sources\lunor\repos\rougemeilland\palmtree.math.core.uint\palmtree.math.core.uint\pmc_divrem.c
; File z:\sources\lunor\repos\rougemeilland\palmtree.math.core.uint\palmtree.math.core.uint\pmc_inline_func.h
; File z:\sources\lunor\repos\rougemeilland\palmtree.math.core.uint\palmtree.math.core.uint\pmc_divrem.c
; File z:\sources\lunor\repos\rougemeilland\palmtree.math.core.uint\palmtree.math.core.uint\pmc_inline_func.h
; File z:\sources\lunor\repos\rougemeilland\palmtree.math.core.uint\palmtree.math.core.uint\pmc_divrem.c
; File z:\sources\lunor\repos\rougemeilland\palmtree.math.core.uint\palmtree.math.core.uint\pmc_inline_func.h
; File z:\sources\lunor\repos\rougemeilland\palmtree.math.core.uint\palmtree.math.core.uint\pmc_divrem.c
;	COMDAT _SubtructOneLine
_TEXT	SEGMENT
_count$1$ = -4						; size = 4
_u_buf$ = 8						; size = 4
_u_buf_len$ = 12					; size = 4
_v_buf$ = 16						; size = 4
_v_buf_len$ = 20					; size = 4
_t_hi$2$ = 24						; size = 4
_t_hi$2$ = 24						; size = 4
_t_hi$2$ = 24						; size = 4
_t_hi$2$ = 24						; size = 4
_t_hi$2$ = 24						; size = 4
_t_hi$2$ = 24						; size = 4
_t_hi$2$ = 24						; size = 4
_t_hi$2$ = 24						; size = 4
_t_hi$2$ = 24						; size = 4
_t_hi$2$ = 24						; size = 4
_t_hi$2$ = 24						; size = 4
_t_hi$2$ = 24						; size = 4
_t_hi$2$ = 24						; size = 4
_t_hi$2$ = 24						; size = 4
_t_hi$2$ = 24						; size = 4
_t_hi$2$ = 24						; size = 4
_t_hi$2$ = 24						; size = 4
_t_hi$2$ = 24						; size = 4
_t_hi$2$ = 24						; size = 4
_t_hi$2$ = 24						; size = 4
_t_hi$2$ = 24						; size = 4
_t_hi$2$ = 24						; size = 4
_t_hi$2$ = 24						; size = 4
_t_hi$2$ = 24						; size = 4
_t_hi$2$ = 24						; size = 4
_t_hi$2$ = 24						; size = 4
_t_hi$2$ = 24						; size = 4
_t_hi$2$ = 24						; size = 4
_k$1$ = 24						; size = 4
_t_lo$1 = 24						; size = 4
_t_lo$2 = 24						; size = 4
_t_lo$3 = 24						; size = 4
_t_lo$4 = 24						; size = 4
_t_lo$5 = 24						; size = 4
_t_lo$6 = 24						; size = 4
_t_lo$7 = 24						; size = 4
_t_lo$8 = 24						; size = 4
_t_lo$9 = 24						; size = 4
_t_lo$10 = 24						; size = 4
_t_lo$11 = 24						; size = 4
_t_lo$12 = 24						; size = 4
_q_index$ = 24						; size = 4
_q_$ = 28						; size = 4
_SubtructOneLine PROC					; COMDAT

; 446  : {

	push	ebp
	mov	ebp, esp
	sub	esp, 8

; 447  :     __UNIT_TYPE_DIV* u_ptr = &u_buf[q_index];

	mov	eax, DWORD PTR _q_index$[ebp]
	mov	ecx, DWORD PTR _u_buf$[ebp]
	push	ebx
	push	esi

; 448  :     __UNIT_TYPE_DIV* v_ptr = &v_buf[0];
; 449  :     __UNIT_TYPE v_count = v_buf_len;
; 450  :     __UNIT_TYPE_DIV k = 0;
; 451  :     char c = 0;

	xor	bl, bl
	mov	DWORD PTR _k$1$[ebp], 0
	lea	ecx, DWORD PTR [ecx+eax*4]

; 452  : 
; 453  :     __UNIT_TYPE count = v_count >> 5;

	mov	eax, DWORD PTR _v_buf_len$[ebp]
	mov	edx, eax
	shr	edx, 5
	push	edi

; 454  :     while (count != 0)

	mov	edi, DWORD PTR _v_buf$[ebp]
	test	edx, edx
	mov	DWORD PTR _count$1$[ebp], edx
	mov	edx, DWORD PTR _q_$[ebp]
	je	$LN3@SubtructOn
$LL2@SubtructOn:
; File z:\sources\lunor\repos\rougemeilland\palmtree.math.core.uint\palmtree.math.core.uint\pmc_inline_func.h

; 312  :         return (_FROMDWORDTOWORD((_UINT64_T)u * v, w_hi));

	mov	eax, DWORD PTR [edi]
	mul	edx
	mov	esi, eax
	mov	edi, edx

; 220  :         return (_addcarry_u32(carry, u, v, w));

	add	esi, DWORD PTR _k$1$[ebp]
; File z:\sources\lunor\repos\rougemeilland\palmtree.math.core.uint\palmtree.math.core.uint\pmc_divrem.c

; 429  :     c = _SUBTRUCT_UNIT_DIV(c, *up, t_lo, up);

	mov	eax, DWORD PTR [ecx]
; File z:\sources\lunor\repos\rougemeilland\palmtree.math.core.uint\palmtree.math.core.uint\pmc_inline_func.h

; 220  :         return (_addcarry_u32(carry, u, v, w));

	adc	edi, 0

; 276  :         return (_subborrow_u32(borrow, u, v, w));

	add	bl, 255					; 000000ffH
	sbb	eax, esi
	mov	DWORD PTR [ecx], eax

; 312  :         return (_FROMDWORDTOWORD((_UINT64_T)u * v, w_hi));

	mov	eax, DWORD PTR _v_buf$[ebp]

; 276  :         return (_subborrow_u32(borrow, u, v, w));

	setb	bl

; 312  :         return (_FROMDWORDTOWORD((_UINT64_T)u * v, w_hi));

	mov	eax, DWORD PTR [eax+4]
	mul	DWORD PTR _q_$[ebp]
	mov	esi, eax
	mov	eax, edx
; File z:\sources\lunor\repos\rougemeilland\palmtree.math.core.uint\palmtree.math.core.uint\pmc_divrem.c

; 427  :     t_lo = _MULTIPLY_UNIT_DIV(*vp, q_, &t_hi);

	mov	DWORD PTR _t_lo$12[ebp], esi
; File z:\sources\lunor\repos\rougemeilland\palmtree.math.core.uint\palmtree.math.core.uint\pmc_inline_func.h

; 220  :         return (_addcarry_u32(carry, u, v, w));

	add	esi, edi
	adc	eax, 0

; 276  :         return (_subborrow_u32(borrow, u, v, w));

	add	bl, 255					; 000000ffH

; 220  :         return (_addcarry_u32(carry, u, v, w));

	mov	DWORD PTR _t_hi$2$[ebp], eax
; File z:\sources\lunor\repos\rougemeilland\palmtree.math.core.uint\palmtree.math.core.uint\pmc_divrem.c

; 429  :     c = _SUBTRUCT_UNIT_DIV(c, *up, t_lo, up);

	mov	eax, DWORD PTR [ecx+4]
; File z:\sources\lunor\repos\rougemeilland\palmtree.math.core.uint\palmtree.math.core.uint\pmc_inline_func.h

; 276  :         return (_subborrow_u32(borrow, u, v, w));

	sbb	eax, esi
	mov	DWORD PTR [ecx+4], eax

; 312  :         return (_FROMDWORDTOWORD((_UINT64_T)u * v, w_hi));

	mov	eax, DWORD PTR _v_buf$[ebp]

; 276  :         return (_subborrow_u32(borrow, u, v, w));

	setb	bl

; 312  :         return (_FROMDWORDTOWORD((_UINT64_T)u * v, w_hi));

	mov	eax, DWORD PTR [eax+8]
	mul	DWORD PTR _q_$[ebp]
	mov	esi, eax
	mov	edi, edx

; 220  :         return (_addcarry_u32(carry, u, v, w));

	add	esi, DWORD PTR _t_hi$2$[ebp]
; File z:\sources\lunor\repos\rougemeilland\palmtree.math.core.uint\palmtree.math.core.uint\pmc_divrem.c

; 429  :     c = _SUBTRUCT_UNIT_DIV(c, *up, t_lo, up);

	mov	eax, DWORD PTR [ecx+8]
; File z:\sources\lunor\repos\rougemeilland\palmtree.math.core.uint\palmtree.math.core.uint\pmc_inline_func.h

; 220  :         return (_addcarry_u32(carry, u, v, w));

	adc	edi, 0

; 276  :         return (_subborrow_u32(borrow, u, v, w));

	add	bl, 255					; 000000ffH
	sbb	eax, esi
	mov	DWORD PTR [ecx+8], eax

; 312  :         return (_FROMDWORDTOWORD((_UINT64_T)u * v, w_hi));

	mov	eax, DWORD PTR _v_buf$[ebp]

; 276  :         return (_subborrow_u32(borrow, u, v, w));

	setb	bl

; 312  :         return (_FROMDWORDTOWORD((_UINT64_T)u * v, w_hi));

	mov	eax, DWORD PTR [eax+12]
	mul	DWORD PTR _q_$[ebp]
	mov	esi, eax
	mov	eax, edx
; File z:\sources\lunor\repos\rougemeilland\palmtree.math.core.uint\palmtree.math.core.uint\pmc_divrem.c

; 427  :     t_lo = _MULTIPLY_UNIT_DIV(*vp, q_, &t_hi);

	mov	DWORD PTR _t_lo$11[ebp], esi
; File z:\sources\lunor\repos\rougemeilland\palmtree.math.core.uint\palmtree.math.core.uint\pmc_inline_func.h

; 220  :         return (_addcarry_u32(carry, u, v, w));

	add	esi, edi
	adc	eax, 0

; 276  :         return (_subborrow_u32(borrow, u, v, w));

	add	bl, 255					; 000000ffH

; 220  :         return (_addcarry_u32(carry, u, v, w));

	mov	DWORD PTR _t_hi$2$[ebp], eax
; File z:\sources\lunor\repos\rougemeilland\palmtree.math.core.uint\palmtree.math.core.uint\pmc_divrem.c

; 429  :     c = _SUBTRUCT_UNIT_DIV(c, *up, t_lo, up);

	mov	eax, DWORD PTR [ecx+12]
; File z:\sources\lunor\repos\rougemeilland\palmtree.math.core.uint\palmtree.math.core.uint\pmc_inline_func.h

; 276  :         return (_subborrow_u32(borrow, u, v, w));

	sbb	eax, esi
	mov	DWORD PTR [ecx+12], eax

; 312  :         return (_FROMDWORDTOWORD((_UINT64_T)u * v, w_hi));

	mov	eax, DWORD PTR _v_buf$[ebp]

; 276  :         return (_subborrow_u32(borrow, u, v, w));

	setb	bl

; 312  :         return (_FROMDWORDTOWORD((_UINT64_T)u * v, w_hi));

	mov	eax, DWORD PTR [eax+16]
	mul	DWORD PTR _q_$[ebp]
	mov	esi, eax
	mov	edi, edx

; 220  :         return (_addcarry_u32(carry, u, v, w));

	add	esi, DWORD PTR _t_hi$2$[ebp]
; File z:\sources\lunor\repos\rougemeilland\palmtree.math.core.uint\palmtree.math.core.uint\pmc_divrem.c

; 429  :     c = _SUBTRUCT_UNIT_DIV(c, *up, t_lo, up);

	mov	eax, DWORD PTR [ecx+16]
; File z:\sources\lunor\repos\rougemeilland\palmtree.math.core.uint\palmtree.math.core.uint\pmc_inline_func.h

; 220  :         return (_addcarry_u32(carry, u, v, w));

	adc	edi, 0

; 276  :         return (_subborrow_u32(borrow, u, v, w));

	add	bl, 255					; 000000ffH
	sbb	eax, esi
	mov	DWORD PTR [ecx+16], eax

; 312  :         return (_FROMDWORDTOWORD((_UINT64_T)u * v, w_hi));

	mov	eax, DWORD PTR _v_buf$[ebp]

; 276  :         return (_subborrow_u32(borrow, u, v, w));

	setb	bl

; 312  :         return (_FROMDWORDTOWORD((_UINT64_T)u * v, w_hi));

	mov	eax, DWORD PTR [eax+20]
	mul	DWORD PTR _q_$[ebp]
	mov	esi, eax
	mov	eax, edx
; File z:\sources\lunor\repos\rougemeilland\palmtree.math.core.uint\palmtree.math.core.uint\pmc_divrem.c

; 427  :     t_lo = _MULTIPLY_UNIT_DIV(*vp, q_, &t_hi);

	mov	DWORD PTR _t_lo$10[ebp], esi
; File z:\sources\lunor\repos\rougemeilland\palmtree.math.core.uint\palmtree.math.core.uint\pmc_inline_func.h

; 220  :         return (_addcarry_u32(carry, u, v, w));

	add	esi, edi

; 312  :         return (_FROMDWORDTOWORD((_UINT64_T)u * v, w_hi));

	mov	edi, DWORD PTR _v_buf$[ebp]

; 220  :         return (_addcarry_u32(carry, u, v, w));

	adc	eax, 0

; 276  :         return (_subborrow_u32(borrow, u, v, w));

	add	bl, 255					; 000000ffH

; 220  :         return (_addcarry_u32(carry, u, v, w));

	mov	DWORD PTR _t_hi$2$[ebp], eax
; File z:\sources\lunor\repos\rougemeilland\palmtree.math.core.uint\palmtree.math.core.uint\pmc_divrem.c

; 429  :     c = _SUBTRUCT_UNIT_DIV(c, *up, t_lo, up);

	mov	eax, DWORD PTR [ecx+20]
; File z:\sources\lunor\repos\rougemeilland\palmtree.math.core.uint\palmtree.math.core.uint\pmc_inline_func.h

; 276  :         return (_subborrow_u32(borrow, u, v, w));

	sbb	eax, esi
	mov	DWORD PTR [ecx+20], eax

; 312  :         return (_FROMDWORDTOWORD((_UINT64_T)u * v, w_hi));

	mov	eax, DWORD PTR [edi+24]

; 276  :         return (_subborrow_u32(borrow, u, v, w));

	setb	bl

; 312  :         return (_FROMDWORDTOWORD((_UINT64_T)u * v, w_hi));

	mul	DWORD PTR _q_$[ebp]
	mov	esi, eax

; 220  :         return (_addcarry_u32(carry, u, v, w));

	add	esi, DWORD PTR _t_hi$2$[ebp]

; 312  :         return (_FROMDWORDTOWORD((_UINT64_T)u * v, w_hi));

	mov	eax, edx

; 220  :         return (_addcarry_u32(carry, u, v, w));

	adc	eax, 0

; 276  :         return (_subborrow_u32(borrow, u, v, w));

	add	bl, 255					; 000000ffH

; 220  :         return (_addcarry_u32(carry, u, v, w));

	mov	DWORD PTR _t_hi$2$[ebp], eax
; File z:\sources\lunor\repos\rougemeilland\palmtree.math.core.uint\palmtree.math.core.uint\pmc_divrem.c

; 429  :     c = _SUBTRUCT_UNIT_DIV(c, *up, t_lo, up);

	mov	eax, DWORD PTR [ecx+24]
; File z:\sources\lunor\repos\rougemeilland\palmtree.math.core.uint\palmtree.math.core.uint\pmc_inline_func.h

; 276  :         return (_subborrow_u32(borrow, u, v, w));

	sbb	eax, esi
	mov	DWORD PTR [ecx+24], eax

; 312  :         return (_FROMDWORDTOWORD((_UINT64_T)u * v, w_hi));

	mov	eax, DWORD PTR [edi+28]

; 276  :         return (_subborrow_u32(borrow, u, v, w));

	setb	bl

; 312  :         return (_FROMDWORDTOWORD((_UINT64_T)u * v, w_hi));

	mul	DWORD PTR _q_$[ebp]
	mov	esi, eax
	mov	edi, edx

; 220  :         return (_addcarry_u32(carry, u, v, w));

	add	esi, DWORD PTR _t_hi$2$[ebp]
; File z:\sources\lunor\repos\rougemeilland\palmtree.math.core.uint\palmtree.math.core.uint\pmc_divrem.c

; 429  :     c = _SUBTRUCT_UNIT_DIV(c, *up, t_lo, up);

	mov	eax, DWORD PTR [ecx+28]
; File z:\sources\lunor\repos\rougemeilland\palmtree.math.core.uint\palmtree.math.core.uint\pmc_inline_func.h

; 220  :         return (_addcarry_u32(carry, u, v, w));

	adc	edi, 0

; 276  :         return (_subborrow_u32(borrow, u, v, w));

	add	bl, 255					; 000000ffH
	sbb	eax, esi
	mov	DWORD PTR [ecx+28], eax

; 312  :         return (_FROMDWORDTOWORD((_UINT64_T)u * v, w_hi));

	mov	eax, DWORD PTR _v_buf$[ebp]

; 276  :         return (_subborrow_u32(borrow, u, v, w));

	setb	bl

; 312  :         return (_FROMDWORDTOWORD((_UINT64_T)u * v, w_hi));

	mov	eax, DWORD PTR [eax+32]
	mul	DWORD PTR _q_$[ebp]
	mov	esi, eax
	mov	eax, edx

; 220  :         return (_addcarry_u32(carry, u, v, w));

	add	esi, edi
	adc	eax, 0

; 276  :         return (_subborrow_u32(borrow, u, v, w));

	add	bl, 255					; 000000ffH

; 220  :         return (_addcarry_u32(carry, u, v, w));

	mov	DWORD PTR _t_hi$2$[ebp], eax
; File z:\sources\lunor\repos\rougemeilland\palmtree.math.core.uint\palmtree.math.core.uint\pmc_divrem.c

; 429  :     c = _SUBTRUCT_UNIT_DIV(c, *up, t_lo, up);

	mov	eax, DWORD PTR [ecx+32]
; File z:\sources\lunor\repos\rougemeilland\palmtree.math.core.uint\palmtree.math.core.uint\pmc_inline_func.h

; 276  :         return (_subborrow_u32(borrow, u, v, w));

	sbb	eax, esi
	mov	DWORD PTR [ecx+32], eax

; 312  :         return (_FROMDWORDTOWORD((_UINT64_T)u * v, w_hi));

	mov	eax, DWORD PTR _v_buf$[ebp]

; 276  :         return (_subborrow_u32(borrow, u, v, w));

	setb	bl

; 312  :         return (_FROMDWORDTOWORD((_UINT64_T)u * v, w_hi));

	mov	eax, DWORD PTR [eax+36]
	mul	DWORD PTR _q_$[ebp]
	mov	esi, eax
	mov	edi, edx

; 220  :         return (_addcarry_u32(carry, u, v, w));

	add	esi, DWORD PTR _t_hi$2$[ebp]
; File z:\sources\lunor\repos\rougemeilland\palmtree.math.core.uint\palmtree.math.core.uint\pmc_divrem.c

; 429  :     c = _SUBTRUCT_UNIT_DIV(c, *up, t_lo, up);

	mov	eax, DWORD PTR [ecx+36]
; File z:\sources\lunor\repos\rougemeilland\palmtree.math.core.uint\palmtree.math.core.uint\pmc_inline_func.h

; 220  :         return (_addcarry_u32(carry, u, v, w));

	adc	edi, 0

; 276  :         return (_subborrow_u32(borrow, u, v, w));

	add	bl, 255					; 000000ffH
	sbb	eax, esi
	mov	DWORD PTR [ecx+36], eax

; 312  :         return (_FROMDWORDTOWORD((_UINT64_T)u * v, w_hi));

	mov	eax, DWORD PTR _v_buf$[ebp]

; 276  :         return (_subborrow_u32(borrow, u, v, w));

	setb	bl

; 312  :         return (_FROMDWORDTOWORD((_UINT64_T)u * v, w_hi));

	mov	eax, DWORD PTR [eax+40]
	mul	DWORD PTR _q_$[ebp]
	mov	esi, eax
	mov	eax, edx

; 220  :         return (_addcarry_u32(carry, u, v, w));

	add	esi, edi
	adc	eax, 0

; 276  :         return (_subborrow_u32(borrow, u, v, w));

	add	bl, 255					; 000000ffH

; 220  :         return (_addcarry_u32(carry, u, v, w));

	mov	DWORD PTR _t_hi$2$[ebp], eax
; File z:\sources\lunor\repos\rougemeilland\palmtree.math.core.uint\palmtree.math.core.uint\pmc_divrem.c

; 429  :     c = _SUBTRUCT_UNIT_DIV(c, *up, t_lo, up);

	mov	eax, DWORD PTR [ecx+40]
; File z:\sources\lunor\repos\rougemeilland\palmtree.math.core.uint\palmtree.math.core.uint\pmc_inline_func.h

; 276  :         return (_subborrow_u32(borrow, u, v, w));

	sbb	eax, esi
	mov	DWORD PTR [ecx+40], eax

; 312  :         return (_FROMDWORDTOWORD((_UINT64_T)u * v, w_hi));

	mov	eax, DWORD PTR _v_buf$[ebp]

; 276  :         return (_subborrow_u32(borrow, u, v, w));

	setb	bl

; 312  :         return (_FROMDWORDTOWORD((_UINT64_T)u * v, w_hi));

	mov	eax, DWORD PTR [eax+44]
	mul	DWORD PTR _q_$[ebp]
	mov	esi, eax
	mov	edi, edx

; 220  :         return (_addcarry_u32(carry, u, v, w));

	add	esi, DWORD PTR _t_hi$2$[ebp]
; File z:\sources\lunor\repos\rougemeilland\palmtree.math.core.uint\palmtree.math.core.uint\pmc_divrem.c

; 429  :     c = _SUBTRUCT_UNIT_DIV(c, *up, t_lo, up);

	mov	eax, DWORD PTR [ecx+44]
; File z:\sources\lunor\repos\rougemeilland\palmtree.math.core.uint\palmtree.math.core.uint\pmc_inline_func.h

; 220  :         return (_addcarry_u32(carry, u, v, w));

	adc	edi, 0

; 276  :         return (_subborrow_u32(borrow, u, v, w));

	add	bl, 255					; 000000ffH
	sbb	eax, esi
	mov	DWORD PTR [ecx+44], eax

; 312  :         return (_FROMDWORDTOWORD((_UINT64_T)u * v, w_hi));

	mov	eax, DWORD PTR _v_buf$[ebp]

; 276  :         return (_subborrow_u32(borrow, u, v, w));

	setb	bl

; 312  :         return (_FROMDWORDTOWORD((_UINT64_T)u * v, w_hi));

	mov	eax, DWORD PTR [eax+48]
	mul	DWORD PTR _q_$[ebp]
	mov	esi, eax
	mov	eax, edx

; 220  :         return (_addcarry_u32(carry, u, v, w));

	add	esi, edi
	adc	eax, 0

; 276  :         return (_subborrow_u32(borrow, u, v, w));

	add	bl, 255					; 000000ffH

; 220  :         return (_addcarry_u32(carry, u, v, w));

	mov	DWORD PTR _t_hi$2$[ebp], eax
; File z:\sources\lunor\repos\rougemeilland\palmtree.math.core.uint\palmtree.math.core.uint\pmc_divrem.c

; 429  :     c = _SUBTRUCT_UNIT_DIV(c, *up, t_lo, up);

	mov	eax, DWORD PTR [ecx+48]
; File z:\sources\lunor\repos\rougemeilland\palmtree.math.core.uint\palmtree.math.core.uint\pmc_inline_func.h

; 276  :         return (_subborrow_u32(borrow, u, v, w));

	sbb	eax, esi
	mov	DWORD PTR [ecx+48], eax
	setb	bl

; 312  :         return (_FROMDWORDTOWORD((_UINT64_T)u * v, w_hi));

	mov	eax, DWORD PTR _v_buf$[ebp]
	mov	eax, DWORD PTR [eax+52]
	mul	DWORD PTR _q_$[ebp]
	mov	esi, eax
	mov	edi, edx

; 220  :         return (_addcarry_u32(carry, u, v, w));

	add	esi, DWORD PTR _t_hi$2$[ebp]
; File z:\sources\lunor\repos\rougemeilland\palmtree.math.core.uint\palmtree.math.core.uint\pmc_divrem.c

; 429  :     c = _SUBTRUCT_UNIT_DIV(c, *up, t_lo, up);

	mov	eax, DWORD PTR [ecx+52]
; File z:\sources\lunor\repos\rougemeilland\palmtree.math.core.uint\palmtree.math.core.uint\pmc_inline_func.h

; 220  :         return (_addcarry_u32(carry, u, v, w));

	adc	edi, 0

; 276  :         return (_subborrow_u32(borrow, u, v, w));

	add	bl, 255					; 000000ffH
	sbb	eax, esi
	mov	DWORD PTR [ecx+52], eax

; 312  :         return (_FROMDWORDTOWORD((_UINT64_T)u * v, w_hi));

	mov	eax, DWORD PTR _v_buf$[ebp]

; 276  :         return (_subborrow_u32(borrow, u, v, w));

	setb	bl

; 312  :         return (_FROMDWORDTOWORD((_UINT64_T)u * v, w_hi));

	mov	eax, DWORD PTR [eax+56]
	mul	DWORD PTR _q_$[ebp]
	mov	esi, eax
	mov	eax, edx

; 220  :         return (_addcarry_u32(carry, u, v, w));

	add	esi, edi
	adc	eax, 0

; 276  :         return (_subborrow_u32(borrow, u, v, w));

	add	bl, 255					; 000000ffH

; 220  :         return (_addcarry_u32(carry, u, v, w));

	mov	DWORD PTR _t_hi$2$[ebp], eax
; File z:\sources\lunor\repos\rougemeilland\palmtree.math.core.uint\palmtree.math.core.uint\pmc_divrem.c

; 429  :     c = _SUBTRUCT_UNIT_DIV(c, *up, t_lo, up);

	mov	eax, DWORD PTR [ecx+56]
; File z:\sources\lunor\repos\rougemeilland\palmtree.math.core.uint\palmtree.math.core.uint\pmc_inline_func.h

; 276  :         return (_subborrow_u32(borrow, u, v, w));

	sbb	eax, esi
	mov	DWORD PTR [ecx+56], eax

; 312  :         return (_FROMDWORDTOWORD((_UINT64_T)u * v, w_hi));

	mov	eax, DWORD PTR _v_buf$[ebp]

; 276  :         return (_subborrow_u32(borrow, u, v, w));

	setb	bl

; 312  :         return (_FROMDWORDTOWORD((_UINT64_T)u * v, w_hi));

	mov	eax, DWORD PTR [eax+60]
	mul	DWORD PTR _q_$[ebp]
	mov	esi, eax
	mov	edi, edx

; 220  :         return (_addcarry_u32(carry, u, v, w));

	add	esi, DWORD PTR _t_hi$2$[ebp]
; File z:\sources\lunor\repos\rougemeilland\palmtree.math.core.uint\palmtree.math.core.uint\pmc_divrem.c

; 429  :     c = _SUBTRUCT_UNIT_DIV(c, *up, t_lo, up);

	mov	eax, DWORD PTR [ecx+60]
; File z:\sources\lunor\repos\rougemeilland\palmtree.math.core.uint\palmtree.math.core.uint\pmc_inline_func.h

; 220  :         return (_addcarry_u32(carry, u, v, w));

	adc	edi, 0

; 276  :         return (_subborrow_u32(borrow, u, v, w));

	add	bl, 255					; 000000ffH
	sbb	eax, esi
	mov	DWORD PTR [ecx+60], eax

; 312  :         return (_FROMDWORDTOWORD((_UINT64_T)u * v, w_hi));

	mov	eax, DWORD PTR _v_buf$[ebp]

; 276  :         return (_subborrow_u32(borrow, u, v, w));

	setb	bl

; 312  :         return (_FROMDWORDTOWORD((_UINT64_T)u * v, w_hi));

	mov	eax, DWORD PTR [eax+64]
	mul	DWORD PTR _q_$[ebp]
	mov	esi, eax
	mov	eax, edx

; 220  :         return (_addcarry_u32(carry, u, v, w));

	add	esi, edi
	adc	eax, 0

; 276  :         return (_subborrow_u32(borrow, u, v, w));

	add	bl, 255					; 000000ffH

; 220  :         return (_addcarry_u32(carry, u, v, w));

	mov	DWORD PTR _t_hi$2$[ebp], eax
; File z:\sources\lunor\repos\rougemeilland\palmtree.math.core.uint\palmtree.math.core.uint\pmc_divrem.c

; 429  :     c = _SUBTRUCT_UNIT_DIV(c, *up, t_lo, up);

	mov	eax, DWORD PTR [ecx+64]
; File z:\sources\lunor\repos\rougemeilland\palmtree.math.core.uint\palmtree.math.core.uint\pmc_inline_func.h

; 276  :         return (_subborrow_u32(borrow, u, v, w));

	sbb	eax, esi
	mov	DWORD PTR [ecx+64], eax

; 312  :         return (_FROMDWORDTOWORD((_UINT64_T)u * v, w_hi));

	mov	eax, DWORD PTR _v_buf$[ebp]

; 276  :         return (_subborrow_u32(borrow, u, v, w));

	setb	bl

; 312  :         return (_FROMDWORDTOWORD((_UINT64_T)u * v, w_hi));

	mov	eax, DWORD PTR [eax+68]
	mul	DWORD PTR _q_$[ebp]
	mov	esi, eax
	mov	edi, edx

; 220  :         return (_addcarry_u32(carry, u, v, w));

	add	esi, DWORD PTR _t_hi$2$[ebp]
; File z:\sources\lunor\repos\rougemeilland\palmtree.math.core.uint\palmtree.math.core.uint\pmc_divrem.c

; 429  :     c = _SUBTRUCT_UNIT_DIV(c, *up, t_lo, up);

	mov	eax, DWORD PTR [ecx+68]
; File z:\sources\lunor\repos\rougemeilland\palmtree.math.core.uint\palmtree.math.core.uint\pmc_inline_func.h

; 220  :         return (_addcarry_u32(carry, u, v, w));

	adc	edi, 0

; 276  :         return (_subborrow_u32(borrow, u, v, w));

	add	bl, 255					; 000000ffH
	sbb	eax, esi
	mov	DWORD PTR [ecx+68], eax

; 312  :         return (_FROMDWORDTOWORD((_UINT64_T)u * v, w_hi));

	mov	eax, DWORD PTR _v_buf$[ebp]

; 276  :         return (_subborrow_u32(borrow, u, v, w));

	setb	bl

; 312  :         return (_FROMDWORDTOWORD((_UINT64_T)u * v, w_hi));

	mov	eax, DWORD PTR [eax+72]
	mul	DWORD PTR _q_$[ebp]
	mov	esi, eax
	mov	eax, edx

; 220  :         return (_addcarry_u32(carry, u, v, w));

	add	esi, edi
	adc	eax, 0

; 276  :         return (_subborrow_u32(borrow, u, v, w));

	add	bl, 255					; 000000ffH

; 220  :         return (_addcarry_u32(carry, u, v, w));

	mov	DWORD PTR _t_hi$2$[ebp], eax
; File z:\sources\lunor\repos\rougemeilland\palmtree.math.core.uint\palmtree.math.core.uint\pmc_divrem.c

; 429  :     c = _SUBTRUCT_UNIT_DIV(c, *up, t_lo, up);

	mov	eax, DWORD PTR [ecx+72]
; File z:\sources\lunor\repos\rougemeilland\palmtree.math.core.uint\palmtree.math.core.uint\pmc_inline_func.h

; 276  :         return (_subborrow_u32(borrow, u, v, w));

	sbb	eax, esi
	mov	DWORD PTR [ecx+72], eax

; 312  :         return (_FROMDWORDTOWORD((_UINT64_T)u * v, w_hi));

	mov	eax, DWORD PTR _v_buf$[ebp]

; 276  :         return (_subborrow_u32(borrow, u, v, w));

	setb	bl

; 312  :         return (_FROMDWORDTOWORD((_UINT64_T)u * v, w_hi));

	mov	eax, DWORD PTR [eax+76]
	mul	DWORD PTR _q_$[ebp]
	mov	esi, eax

; 220  :         return (_addcarry_u32(carry, u, v, w));

	add	esi, DWORD PTR _t_hi$2$[ebp]

; 312  :         return (_FROMDWORDTOWORD((_UINT64_T)u * v, w_hi));

	mov	edi, edx
; File z:\sources\lunor\repos\rougemeilland\palmtree.math.core.uint\palmtree.math.core.uint\pmc_divrem.c

