; Listing generated by Microsoft (R) Optimizing Compiler Version 19.16.27026.1 

	TITLE	Z:\Sources\Lunor\Repos\rougemeilland\Palmtree.Math.Core.Uint\Palmtree.Math.Core.Uint\pmc_multiply.c
	.686P
	.XMM
	include listing.inc
	.model	flat

INCLUDELIB MSVCRT
INCLUDELIB OLDNAMES

PUBLIC	_Multiply_X_X_Imp
PUBLIC	_Initialize_Multiply
PUBLIC	_PMC_Multiply_I_X@12
PUBLIC	_PMC_Multiply_L_X@16
PUBLIC	_PMC_Multiply_X_I@12
PUBLIC	_PMC_Multiply_X_L@16
PUBLIC	_PMC_Multiply_X_X@12
EXTRN	_CheckBlockLight:PROC
EXTRN	_AllocateNumber:PROC
EXTRN	_CommitNumber:PROC
EXTRN	_CheckNumber:PROC
EXTRN	_DuplicateNumber:PROC
EXTRN	_From_I_Imp:PROC
EXTRN	_From_L_Imp:PROC
EXTRN	_number_zero:BYTE
EXTRN	_statistics_info:BYTE
_BSS	SEGMENT
_fp_Multiply_X_1W DD 01H DUP (?)
_fp_Multiply_X_2W DD 01H DUP (?)
_fp_Multiply_X_X DD 01H DUP (?)
_BSS	ENDS
; Function compile flags: /Ogtp
; File z:\sources\lunor\repos\rougemeilland\palmtree.math.core.uint\palmtree.math.core.uint\pmc_multiply.c
;	COMDAT _PMC_Multiply_X_L_Imp
_TEXT	SEGMENT
_nz_light_check_code$1 = 8				; size = 4
_nz_light_check_code$2 = 8				; size = 4
_u$ = 8							; size = 4
_v$ = 12						; size = 8
_w$ = 20						; size = 4
_PMC_Multiply_X_L_Imp PROC				; COMDAT

; 553  : {

	push	ebp
	mov	ebp, esp
	push	ebx
	push	esi

; 554  :     PMC_STATUS_CODE result;
; 555  :     if (u->IS_ZERO)

	mov	esi, DWORD PTR _u$[ebp]
	push	edi
	mov	eax, DWORD PTR [esi+24]
	test	al, 2
	jne	SHORT $LN30@PMC_Multip

; 556  :     {
; 557  :         // x が 0 である場合
; 558  : 
; 559  :         // y の値にかかわらず 0 を返す。
; 560  :         *w = &number_zero;
; 561  :     }
; 562  :     else if (u->IS_ONE)

	mov	ecx, DWORD PTR _v$[ebp]
	test	al, 4
	mov	eax, ecx
	je	SHORT $LN4@PMC_Multip

; 563  :     {
; 564  :         // x が 1 である場合
; 565  :         if (v == 0)

	mov	edx, DWORD PTR _v$[ebp+4]
	or	eax, edx
	je	SHORT $LN30@PMC_Multip

; 566  :         {
; 567  :             // y が 0 である場合
; 568  : 
; 569  :             //  0  を返す。
; 570  :             *w = &number_zero;
; 571  :         }
; 572  :         else
; 573  :         {
; 574  :             // y が 0 ではない場合
; 575  : 
; 576  :             // 乗算結果は y に等しいため、y の値を持つ NUMBER_HEADER 構造体を獲得し、呼び出し元へ返す。
; 577  :             if ((result = From_L_Imp(v, w)) != PMC_STATUS_OK)

	push	DWORD PTR _w$[ebp]
	push	edx
	push	ecx
	call	_From_L_Imp
	add	esp, 12					; 0000000cH
	test	eax, eax
	je	$LN15@PMC_Multip

; 656  : }

	pop	edi
	pop	esi
	pop	ebx
	pop	ebp
	ret	0
$LN4@PMC_Multip:

; 578  :                 return (result);
; 579  :         }
; 580  :     }
; 581  :     else
; 582  :     {
; 583  :         // x が 0 と 1 のどちらでもない場合
; 584  : 
; 585  :         if (v == 0)

	mov	edi, DWORD PTR _v$[ebp+4]
	or	eax, edi
	jne	SHORT $LN9@PMC_Multip
$LN30@PMC_Multip:

; 637  :             }
; 638  :             else
; 639  :             {
; 640  :                 // _UINT64_T が 1 ワードで表現できる場合
; 641  : 
; 642  :                 __UNIT_TYPE x_bit_count = u->UNIT_BIT_COUNT;
; 643  :                 __UNIT_TYPE y_bit_count = sizeof(v) * 8 - _LZCNT_ALT_UNIT((__UNIT_TYPE)v);
; 644  :                 __UNIT_TYPE z_bit_count = x_bit_count + y_bit_count;
; 645  :                 __UNIT_TYPE nz_light_check_code;
; 646  :                 if ((result = AllocateNumber(w, z_bit_count, &nz_light_check_code)) != PMC_STATUS_OK)
; 647  :                     return (result);
; 648  :                 (*fp_Multiply_X_1W)(u->BLOCK, u->UNIT_WORD_COUNT, (__UNIT_TYPE)v, (*w)->BLOCK);
; 649  :                 if ((result = CheckBlockLight((*w)->BLOCK, nz_light_check_code)) != PMC_STATUS_OK)
; 650  :                     return (result);
; 651  :                 CommitNumber(*w);
; 652  :             }
; 653  :         }
; 654  :     }
; 655  :     return (PMC_STATUS_OK);

	mov	eax, DWORD PTR _w$[ebp]
	pop	edi

; 656  : }

	pop	esi
	pop	ebx
	mov	DWORD PTR [eax], OFFSET _number_zero
	xor	eax, eax
	pop	ebp
	ret	0
$LN9@PMC_Multip:

; 586  :         {
; 587  :             // y が 0 である場合
; 588  : 
; 589  :             //  0  を返す。
; 590  :             *w = &number_zero;
; 591  :         }
; 592  :         else if (v == 1)

	cmp	ecx, 1
	jne	SHORT $LN11@PMC_Multip
	test	edi, edi
	jne	SHORT $LN11@PMC_Multip

; 593  :         {
; 594  :             // y が 1 である場合
; 595  : 
; 596  :             // 乗算結果は x に等しいため、x の値を持つ NUMBER_HEADER 構造体を獲得し、呼び出し元へ返す。
; 597  :             if ((result = DuplicateNumber(u, w)) != PMC_STATUS_OK)

	push	DWORD PTR _w$[ebp]
	push	esi
	call	_DuplicateNumber
	add	esp, 8
	test	eax, eax
	je	$LN15@PMC_Multip

; 656  : }

	pop	edi
	pop	esi
	pop	ebx
	pop	ebp
	ret	0
$LN11@PMC_Multip:

; 598  :                 return (result);
; 599  :         }
; 600  :         else
; 601  :         {
; 602  :             // x と y がともに 0 、1 のどちらでもない場合
; 603  : 
; 604  :             // x と y の積を計算する
; 605  :             if (__UNIT_TYPE_BIT_COUNT < sizeof(v) * 8)
; 606  :             {
; 607  :                 // _UINT64_T が 1 ワードで表現しきれない場合
; 608  : 
; 609  :                 __UNIT_TYPE x_bit_count = u->UNIT_BIT_COUNT;

	mov	edx, DWORD PTR [esi+12]

; 610  :                 _UINT32_T y_hi;
; 611  :                 _UINT32_T y_lo = _FROMDWORDTOWORD(v, &y_hi);
; 612  :                 if (y_hi == 0)

	test	edi, edi
	jne	SHORT $LN16@PMC_Multip

; 613  :                 {
; 614  :                     // y の値が 32bit で表現可能な場合
; 615  :                     __UNIT_TYPE y_bit_count = sizeof(y_lo) * 8 - _LZCNT_ALT_32(y_lo);

	push	ecx
	call	__LZCNT_ALT_32

; 616  :                     __UNIT_TYPE z_bit_count = x_bit_count + y_bit_count;
; 617  :                     __UNIT_TYPE nz_light_check_code;
; 618  :                     if ((result = AllocateNumber(w, z_bit_count, &nz_light_check_code)) != PMC_STATUS_OK)

	mov	ebx, DWORD PTR _w$[ebp]
	sub	edx, eax
	lea	eax, DWORD PTR _nz_light_check_code$2[ebp]
	add	edx, 32					; 00000020H
	push	eax
	push	edx
	push	ebx
	call	_AllocateNumber
	add	esp, 16					; 00000010H
	test	eax, eax
	jne	$LN1@PMC_Multip

; 619  :                         return (result);
; 620  :                     (*fp_Multiply_X_1W)(u->BLOCK, u->UNIT_WORD_COUNT, y_lo, (*w)->BLOCK);

	mov	eax, DWORD PTR [ebx]
	push	DWORD PTR [eax+32]
	mov	eax, DWORD PTR _v$[ebp]
	push	eax
	push	DWORD PTR [esi+8]
	push	DWORD PTR [esi+32]
	call	DWORD PTR _fp_Multiply_X_1W

; 621  :                     if ((result = CheckBlockLight((*w)->BLOCK, nz_light_check_code)) != PMC_STATUS_OK)

	mov	eax, DWORD PTR [ebx]
	push	DWORD PTR _nz_light_check_code$2[ebp]
	push	DWORD PTR [eax+32]
	call	_CheckBlockLight
	add	esp, 24					; 00000018H
	test	eax, eax
	je	SHORT $LN21@PMC_Multip

; 656  : }

	pop	edi
	pop	esi
	pop	ebx
	pop	ebp
	ret	0
$LN16@PMC_Multip:

; 622  :                         return (result);
; 623  :                 }
; 624  :                 else
; 625  :                 {
; 626  :                     // y の値が 32bit では表現できない場合
; 627  :                     __UNIT_TYPE y_bit_count = sizeof(v) * 8 - _LZCNT_ALT_32(y_hi);

	push	edi
	call	__LZCNT_ALT_32

; 628  :                     __UNIT_TYPE z_bit_count = x_bit_count + y_bit_count;
; 629  :                     __UNIT_TYPE nz_light_check_code;
; 630  :                     if ((result = AllocateNumber(w, z_bit_count, &nz_light_check_code)) != PMC_STATUS_OK)

	mov	ebx, DWORD PTR _w$[ebp]
	sub	edx, eax
	lea	eax, DWORD PTR _nz_light_check_code$1[ebp]
	add	edx, 64					; 00000040H
	push	eax
	push	edx
	push	ebx
	call	_AllocateNumber
	add	esp, 16					; 00000010H
	test	eax, eax
	jne	SHORT $LN1@PMC_Multip

; 631  :                         return (result);
; 632  :                     (*fp_Multiply_X_2W)(u->BLOCK, u->UNIT_WORD_COUNT, y_hi, y_lo, (*w)->BLOCK);

	mov	eax, DWORD PTR [ebx]
	push	DWORD PTR [eax+32]
	mov	eax, DWORD PTR _v$[ebp]
	push	eax
	push	edi
	push	DWORD PTR [esi+8]
	push	DWORD PTR [esi+32]
	call	DWORD PTR _fp_Multiply_X_2W

; 633  :                     if ((result = CheckBlockLight((*w)->BLOCK, nz_light_check_code)) != PMC_STATUS_OK)

	mov	eax, DWORD PTR [ebx]
	push	DWORD PTR _nz_light_check_code$1[ebp]
	push	DWORD PTR [eax+32]
	call	_CheckBlockLight
	add	esp, 28					; 0000001cH
	test	eax, eax
	jne	SHORT $LN1@PMC_Multip
$LN21@PMC_Multip:

; 634  :                         return (result);
; 635  :                 }
; 636  :                 CommitNumber(*w);

	push	DWORD PTR [ebx]
	call	_CommitNumber
	add	esp, 4
$LN15@PMC_Multip:

; 637  :             }
; 638  :             else
; 639  :             {
; 640  :                 // _UINT64_T が 1 ワードで表現できる場合
; 641  : 
; 642  :                 __UNIT_TYPE x_bit_count = u->UNIT_BIT_COUNT;
; 643  :                 __UNIT_TYPE y_bit_count = sizeof(v) * 8 - _LZCNT_ALT_UNIT((__UNIT_TYPE)v);
; 644  :                 __UNIT_TYPE z_bit_count = x_bit_count + y_bit_count;
; 645  :                 __UNIT_TYPE nz_light_check_code;
; 646  :                 if ((result = AllocateNumber(w, z_bit_count, &nz_light_check_code)) != PMC_STATUS_OK)
; 647  :                     return (result);
; 648  :                 (*fp_Multiply_X_1W)(u->BLOCK, u->UNIT_WORD_COUNT, (__UNIT_TYPE)v, (*w)->BLOCK);
; 649  :                 if ((result = CheckBlockLight((*w)->BLOCK, nz_light_check_code)) != PMC_STATUS_OK)
; 650  :                     return (result);
; 651  :                 CommitNumber(*w);
; 652  :             }
; 653  :         }
; 654  :     }
; 655  :     return (PMC_STATUS_OK);

	xor	eax, eax
$LN1@PMC_Multip:
	pop	edi

; 656  : }

	pop	esi
	pop	ebx
	pop	ebp
	ret	0
_PMC_Multiply_X_L_Imp ENDP
_TEXT	ENDS
; Function compile flags: /Ogtp
; File z:\sources\lunor\repos\rougemeilland\palmtree.math.core.uint\palmtree.math.core.uint\pmc_multiply.c
; File z:\sources\lunor\repos\rougemeilland\palmtree.math.core.uint\palmtree.math.core.uint\pmc_inline_func.h
; File z:\sources\lunor\repos\rougemeilland\palmtree.math.core.uint\palmtree.math.core.uint\pmc_multiply.c
; File z:\sources\lunor\repos\rougemeilland\palmtree.math.core.uint\palmtree.math.core.uint\pmc_inline_func.h
; File z:\sources\lunor\repos\rougemeilland\palmtree.math.core.uint\palmtree.math.core.uint\pmc_multiply.c
;	COMDAT _PMC_Multiply_X_I_Imp
_TEXT	SEGMENT
_w_light_check_code$1 = 8				; size = 4
_u$ = 8							; size = 4
_v$ = 12						; size = 4
_w$ = 16						; size = 4
_PMC_Multiply_X_I_Imp PROC				; COMDAT

; 439  : {

	push	ebp
	mov	ebp, esp
	push	ebx
	push	esi

; 440  :     PMC_STATUS_CODE result;
; 441  :     if (u->IS_ZERO)

	mov	esi, DWORD PTR _u$[ebp]
	push	edi
	mov	eax, DWORD PTR [esi+24]
	test	al, 2
	jne	SHORT $LN20@PMC_Multip

; 442  :     {
; 443  :         // u が 0 である場合
; 444  : 
; 445  :         // v の値にかかわらず 0 を返す。
; 446  :         *w = &number_zero;
; 447  :     }
; 448  :     else if (u->IS_ONE)

	test	al, 4
	je	SHORT $LN4@PMC_Multip

; 449  :     {
; 450  :         // u が 1 である場合
; 451  :         if (v == 0)

	mov	eax, DWORD PTR _v$[ebp]
	test	eax, eax
	je	SHORT $LN20@PMC_Multip

; 452  :         {
; 453  :             // v が 0 である場合
; 454  : 
; 455  :             //  0  を返す。
; 456  :             *w = &number_zero;
; 457  :         }
; 458  :         else
; 459  :         {
; 460  :             // y が 0 ではない場合
; 461  : 
; 462  :             // 乗算結果は v に等しいため、v の値を持つ NUMBER_HEADER 構造体を獲得し、呼び出し元へ返す。
; 463  :             if ((result = From_I_Imp(v, w)) != PMC_STATUS_OK)

	push	DWORD PTR _w$[ebp]
	push	eax
	call	_From_I_Imp
	add	esp, 8
	test	eax, eax
	je	$LN12@PMC_Multip

; 504  : }

	pop	edi
	pop	esi
	pop	ebx
	pop	ebp
	ret	0
$LN4@PMC_Multip:

; 464  :                 return (result);
; 465  :         }
; 466  :     }
; 467  :     else
; 468  :     {
; 469  :         // u が 0 と 1 のどちらでもない場合
; 470  : 
; 471  :         if (v == 0)

	mov	edi, DWORD PTR _v$[ebp]
	test	edi, edi
	jne	SHORT $LN9@PMC_Multip
$LN20@PMC_Multip:

; 501  :         }
; 502  :     }
; 503  :     return (PMC_STATUS_OK);

	mov	eax, DWORD PTR _w$[ebp]
	pop	edi

; 504  : }

	pop	esi
	pop	ebx
	mov	DWORD PTR [eax], OFFSET _number_zero
	xor	eax, eax
	pop	ebp
	ret	0
$LN9@PMC_Multip:

; 472  :         {
; 473  :             // v が 0 である場合
; 474  : 
; 475  :             //  0  を返す。
; 476  :             *w = &number_zero;
; 477  :         }
; 478  :         else if (v == 1)

	cmp	edi, 1
	jne	SHORT $LN11@PMC_Multip

; 479  :         {
; 480  :             // v が 1 である場合
; 481  : 
; 482  :             // 乗算結果は u に等しいため、u の値を持つ NUMBER_HEADER 構造体を獲得し、呼び出し元へ返す。
; 483  :             if ((result = DuplicateNumber(u, w)) != PMC_STATUS_OK)

	push	DWORD PTR _w$[ebp]
	push	esi
	call	_DuplicateNumber
	add	esp, 8
	test	eax, eax
	je	SHORT $LN12@PMC_Multip

; 504  : }

	pop	edi
	pop	esi
	pop	ebx
	pop	ebp
	ret	0
$LN11@PMC_Multip:

; 484  :                 return (result);
; 485  :         }
; 486  :         else
; 487  :         {
; 488  :             // u と v がともに 0 、1 のどちらでもない場合
; 489  : 
; 490  :             // u と v の積を計算する
; 491  :             __UNIT_TYPE u_bit_count = u->UNIT_BIT_COUNT;

	mov	edx, DWORD PTR [esi+12]
; File z:\sources\lunor\repos\rougemeilland\palmtree.math.core.uint\palmtree.math.core.uint\pmc_inline_func.h

; 607  :         return (sizeof(x) * 8 - 1 - pos);

	mov	ecx, 31					; 0000001fH
; File z:\sources\lunor\repos\rougemeilland\palmtree.math.core.uint\palmtree.math.core.uint\pmc_multiply.c

; 495  :             if ((result = AllocateNumber(w, w_bit_count, &w_light_check_code)) != PMC_STATUS_OK)

	mov	ebx, DWORD PTR _w$[ebp]
; File z:\sources\lunor\repos\rougemeilland\palmtree.math.core.uint\palmtree.math.core.uint\pmc_inline_func.h

; 601  :         _BitScanReverse(&pos, x);

	bsr	eax, edi

; 607  :         return (sizeof(x) * 8 - 1 - pos);

	sub	ecx, eax
; File z:\sources\lunor\repos\rougemeilland\palmtree.math.core.uint\palmtree.math.core.uint\pmc_multiply.c

; 495  :             if ((result = AllocateNumber(w, w_bit_count, &w_light_check_code)) != PMC_STATUS_OK)

	lea	eax, DWORD PTR _w_light_check_code$1[ebp]
	sub	edx, ecx
	push	eax
	add	edx, 32					; 00000020H
	push	edx
	push	ebx
	call	_AllocateNumber
	add	esp, 12					; 0000000cH
	test	eax, eax
	jne	SHORT $LN1@PMC_Multip

; 496  :                 return (result);
; 497  :             (*fp_Multiply_X_1W)(u->BLOCK, u->UNIT_WORD_COUNT, v, (*w)->BLOCK);

	mov	eax, DWORD PTR [ebx]
	push	DWORD PTR [eax+32]
	push	edi
	push	DWORD PTR [esi+8]
	push	DWORD PTR [esi+32]
	call	DWORD PTR _fp_Multiply_X_1W

; 498  :             if ((result = CheckBlockLight((*w)->BLOCK, w_light_check_code)) != PMC_STATUS_OK)

	mov	eax, DWORD PTR [ebx]
	push	DWORD PTR _w_light_check_code$1[ebp]
	push	DWORD PTR [eax+32]
	call	_CheckBlockLight
	add	esp, 24					; 00000018H
	test	eax, eax
	jne	SHORT $LN1@PMC_Multip

; 499  :                 return (result);
; 500  :             CommitNumber(*w);

	push	DWORD PTR [ebx]
	call	_CommitNumber
	add	esp, 4
$LN12@PMC_Multip:

; 501  :         }
; 502  :     }
; 503  :     return (PMC_STATUS_OK);

	xor	eax, eax
$LN1@PMC_Multip:
	pop	edi

; 504  : }

	pop	esi
	pop	ebx
	pop	ebp
	ret	0
_PMC_Multiply_X_I_Imp ENDP
_TEXT	ENDS
; Function compile flags: /Ogtp
; File z:\sources\lunor\repos\rougemeilland\palmtree.math.core.uint\palmtree.math.core.uint\pmc_multiply.c
;	COMDAT _Multiply_X_X_using_MULX_ADCX
_TEXT	SEGMENT
_u_buf$ = 8						; size = 4
_u_count$ = 12						; size = 4
_v_buf$ = 16						; size = 4
tv198 = 20						; size = 4
_v_count$ = 20						; size = 4
_w_buf$ = 24						; size = 4
_Multiply_X_X_using_MULX_ADCX PROC			; COMDAT

; 414  : {

	push	ebp
	mov	ebp, esp
	mov	ecx, DWORD PTR _v_count$[ebp]

; 415  :     // x のワード長が y のワード長以上であるようにする
; 416  :     if (u_count < v_count)
; 417  :     {
; 418  :         __UNIT_TYPE* t_buf = u_buf;
; 419  :         u_buf = v_buf;
; 420  :         v_buf = t_buf;
; 421  :         __UNIT_TYPE t_count = u_count;
; 422  :         u_count = v_count;
; 423  :         v_count = t_count;
; 424  :     }
; 425  :     __UNIT_TYPE* up = u_buf;

	mov	edx, ecx
	mov	eax, DWORD PTR _w_buf$[ebp]
	push	ebx
	mov	ebx, DWORD PTR _v_buf$[ebp]
	push	esi
	mov	esi, DWORD PTR _u_buf$[ebp]
	push	edi
	mov	edi, DWORD PTR _u_count$[ebp]
	cmp	edi, ecx
	cmovae	esi, ebx
	cmovae	edx, edi
	cmovae	ebx, DWORD PTR _u_buf$[ebp]
	sub	eax, esi
	cmp	edi, ecx
	mov	DWORD PTR tv198[ebp], edx
	mov	DWORD PTR _w_buf$[ebp], eax
	cmovae	edi, ecx
$LL4@Multiply_X:

; 426  :     __UNIT_TYPE* vp = v_buf;
; 427  :     __UNIT_TYPE* wp = w_buf;
; 428  : 
; 429  :     do
; 430  :     {
; 431  :         Multiply_WORD_using_MULX_ADCX(up, u_count, *vp, wp);

	add	eax, esi
	push	eax
	push	DWORD PTR [esi]
	push	edx
	push	ebx
	call	_Multiply_WORD_using_MULX_ADCX

; 432  :         ++vp;
; 433  :         ++wp;
; 434  :         --v_count;
; 435  :     } while (v_count != 0);

	mov	edx, DWORD PTR tv198[ebp]
	add	esp, 16					; 00000010H
	mov	eax, DWORD PTR _w_buf$[ebp]
	add	esi, 4
	sub	edi, 1
	jne	SHORT $LL4@Multiply_X

; 436  : }

	pop	edi
	pop	esi
	pop	ebx
	pop	ebp
	ret	0
_Multiply_X_X_using_MULX_ADCX ENDP
_TEXT	ENDS
; Function compile flags: /Ogtp
; File z:\sources\lunor\repos\rougemeilland\palmtree.math.core.uint\palmtree.math.core.uint\pmc_multiply.c
;	COMDAT _Multiply_X_X_using_MUL_ADC
_TEXT	SEGMENT
_u_buf$ = 8						; size = 4
_u_count$ = 12						; size = 4
_v_buf$ = 16						; size = 4
tv198 = 20						; size = 4
_v_count$ = 20						; size = 4
_w_buf$ = 24						; size = 4
_Multiply_X_X_using_MUL_ADC PROC			; COMDAT

; 389  : {

	push	ebp
	mov	ebp, esp
	mov	ecx, DWORD PTR _v_count$[ebp]

; 390  :     // x のワード長が y のワード長以上であるようにする
; 391  :     if (u_count < v_count)
; 392  :     {
; 393  :         __UNIT_TYPE* t_buf = u_buf;
; 394  :         u_buf = v_buf;
; 395  :         v_buf = t_buf;
; 396  :         __UNIT_TYPE t_count = u_count;
; 397  :         u_count = v_count;
; 398  :         v_count = t_count;
; 399  :     }
; 400  :     __UNIT_TYPE* up = u_buf;

	mov	edx, ecx
	mov	eax, DWORD PTR _w_buf$[ebp]
	push	ebx
	mov	ebx, DWORD PTR _v_buf$[ebp]
	push	esi
	mov	esi, DWORD PTR _u_buf$[ebp]
	push	edi
	mov	edi, DWORD PTR _u_count$[ebp]
	cmp	edi, ecx
	cmovae	esi, ebx
	cmovae	edx, edi
	cmovae	ebx, DWORD PTR _u_buf$[ebp]
	sub	eax, esi
	cmp	edi, ecx
	mov	DWORD PTR tv198[ebp], edx
	mov	DWORD PTR _w_buf$[ebp], eax
	cmovae	edi, ecx
$LL4@Multiply_X:

; 401  :     __UNIT_TYPE* vp = v_buf;
; 402  :     __UNIT_TYPE* wp = w_buf;
; 403  : 
; 404  :     do
; 405  :     {
; 406  :         Multiply_WORD_using_MUL_ADC(up, u_count, *vp, wp);

	add	eax, esi
	push	eax
	push	DWORD PTR [esi]
	push	edx
	push	ebx
	call	_Multiply_WORD_using_MUL_ADC

; 407  :         ++vp;
; 408  :         ++wp;
; 409  :         --v_count;
; 410  :     } while (v_count != 0);

	mov	edx, DWORD PTR tv198[ebp]
	add	esp, 16					; 00000010H
	mov	eax, DWORD PTR _w_buf$[ebp]
	add	esi, 4
	sub	edi, 1
	jne	SHORT $LL4@Multiply_X

; 411  : }

	pop	edi
	pop	esi
	pop	ebx
	pop	ebp
	ret	0
_Multiply_X_X_using_MUL_ADC ENDP
_TEXT	ENDS
; Function compile flags: /Ogtp
; File z:\sources\lunor\repos\rougemeilland\palmtree.math.core.uint\palmtree.math.core.uint\pmc_multiply.c
;	COMDAT _Multiply_X_2W_using_MULX_ADCX
_TEXT	SEGMENT
_u_buf$ = 8						; size = 4
_u_count$ = 12						; size = 4
_v_hi$ = 16						; size = 4
_v_lo$ = 20						; size = 4
_w_buf$ = 24						; size = 4
_Multiply_X_2W_using_MULX_ADCX PROC			; COMDAT

; 383  : {

	push	ebp
	mov	ebp, esp
	push	edi

; 384  :     Multiply_WORD_using_MULX_ADCX(u_buf, u_count, v_lo, &w_buf[0]);

	mov	edi, DWORD PTR _w_buf$[ebp]
	push	edi
	push	DWORD PTR _v_lo$[ebp]
	push	DWORD PTR _u_count$[ebp]
	push	DWORD PTR _u_buf$[ebp]
	call	_Multiply_WORD_using_MULX_ADCX

; 385  :     Multiply_WORD_using_MULX_ADCX(u_buf, u_count, v_hi, &w_buf[1]);

	lea	eax, DWORD PTR [edi+4]
	push	eax
	push	DWORD PTR _v_hi$[ebp]
	push	DWORD PTR _u_count$[ebp]
	push	DWORD PTR _u_buf$[ebp]
	call	_Multiply_WORD_using_MULX_ADCX
	add	esp, 32					; 00000020H
	pop	edi

; 386  : }

	pop	ebp
	ret	0
_Multiply_X_2W_using_MULX_ADCX ENDP
_TEXT	ENDS
; Function compile flags: /Ogtp
; File z:\sources\lunor\repos\rougemeilland\palmtree.math.core.uint\palmtree.math.core.uint\pmc_multiply.c
;	COMDAT _Multiply_X_2W_using_MUL_ADC
_TEXT	SEGMENT
_u_buf$ = 8						; size = 4
_u_count$ = 12						; size = 4
_v_hi$ = 16						; size = 4
_v_lo$ = 20						; size = 4
_w_buf$ = 24						; size = 4
_Multiply_X_2W_using_MUL_ADC PROC			; COMDAT

; 377  : {

	push	ebp
	mov	ebp, esp
	push	edi

; 378  :     Multiply_WORD_using_MUL_ADC(u_buf, u_count, v_lo, &w_buf[0]);

	mov	edi, DWORD PTR _w_buf$[ebp]
	push	edi
	push	DWORD PTR _v_lo$[ebp]
	push	DWORD PTR _u_count$[ebp]
	push	DWORD PTR _u_buf$[ebp]
	call	_Multiply_WORD_using_MUL_ADC

; 379  :     Multiply_WORD_using_MUL_ADC(u_buf, u_count, v_hi, &w_buf[1]);

	lea	eax, DWORD PTR [edi+4]
	push	eax
	push	DWORD PTR _v_hi$[ebp]
	push	DWORD PTR _u_count$[ebp]
	push	DWORD PTR _u_buf$[ebp]
	call	_Multiply_WORD_using_MUL_ADC
	add	esp, 32					; 00000020H
	pop	edi

; 380  : }

	pop	ebp
	ret	0
_Multiply_X_2W_using_MUL_ADC ENDP
_TEXT	ENDS
; Function compile flags: /Ogtp
; File z:\sources\lunor\repos\rougemeilland\palmtree.math.core.uint\palmtree.math.core.uint\pmc_multiply.c
;	COMDAT _Multiply_X_1W_using_MULX_ADCX
_TEXT	SEGMENT
_u_buf$ = 8						; size = 4
_u_count$ = 12						; size = 4
_v$ = 16						; size = 4
_w_buf$ = 20						; size = 4
_Multiply_X_1W_using_MULX_ADCX PROC			; COMDAT

; 373  :     Multiply_WORD_using_MULX_ADCX(u_buf, u_count, v, w_buf);

	jmp	_Multiply_WORD_using_MULX_ADCX
_Multiply_X_1W_using_MULX_ADCX ENDP
_TEXT	ENDS
; Function compile flags: /Ogtp
; File z:\sources\lunor\repos\rougemeilland\palmtree.math.core.uint\palmtree.math.core.uint\pmc_multiply.c
;	COMDAT _Multiply_X_1W_using_MUL_ADC
_TEXT	SEGMENT
_u_buf$ = 8						; size = 4
_u_count$ = 12						; size = 4
_v$ = 16						; size = 4
_w_buf$ = 20						; size = 4
_Multiply_X_1W_using_MUL_ADC PROC			; COMDAT

; 368  :     Multiply_WORD_using_MUL_ADC(u_buf, u_count, v, w_buf);

	jmp	_Multiply_WORD_using_MUL_ADC
_Multiply_X_1W_using_MUL_ADC ENDP
_TEXT	ENDS
; Function compile flags: /Ogtp
; File z:\sources\lunor\repos\rougemeilland\palmtree.math.core.uint\palmtree.math.core.uint\pmc_multiply.c
; File z:\sources\lunor\repos\rougemeilland\palmtree.math.core.uint\palmtree.math.core.uint\pmc_inline_func.h
; File z:\sources\lunor\repos\rougemeilland\palmtree.math.core.uint\palmtree.math.core.uint\pmc_multiply.c
; File z:\sources\lunor\repos\rougemeilland\palmtree.math.core.uint\palmtree.math.core.uint\pmc_inline_func.h
; File z:\sources\lunor\repos\rougemeilland\palmtree.math.core.uint\palmtree.math.core.uint\pmc_multiply.c
; File z:\sources\lunor\repos\rougemeilland\palmtree.math.core.uint\palmtree.math.core.uint\pmc_inline_func.h
; File z:\sources\lunor\repos\rougemeilland\palmtree.math.core.uint\palmtree.math.core.uint\pmc_multiply.c
; File z:\sources\lunor\repos\rougemeilland\palmtree.math.core.uint\palmtree.math.core.uint\pmc_inline_func.h
; File z:\sources\lunor\repos\rougemeilland\palmtree.math.core.uint\palmtree.math.core.uint\pmc_multiply.c
; File z:\sources\lunor\repos\rougemeilland\palmtree.math.core.uint\palmtree.math.core.uint\pmc_inline_func.h
; File z:\sources\lunor\repos\rougemeilland\palmtree.math.core.uint\palmtree.math.core.uint\pmc_multiply.c
; File z:\sources\lunor\repos\rougemeilland\palmtree.math.core.uint\palmtree.math.core.uint\pmc_inline_func.h
; File z:\sources\lunor\repos\rougemeilland\palmtree.math.core.uint\palmtree.math.core.uint\pmc_multiply.c
; File z:\sources\lunor\repos\rougemeilland\palmtree.math.core.uint\palmtree.math.core.uint\pmc_inline_func.h
; File z:\sources\lunor\repos\rougemeilland\palmtree.math.core.uint\palmtree.math.core.uint\pmc_multiply.c
; File z:\sources\lunor\repos\rougemeilland\palmtree.math.core.uint\palmtree.math.core.uint\pmc_inline_func.h
; File z:\sources\lunor\repos\rougemeilland\palmtree.math.core.uint\palmtree.math.core.uint\pmc_multiply.c
; File z:\sources\lunor\repos\rougemeilland\palmtree.math.core.uint\palmtree.math.core.uint\pmc_inline_func.h
; File z:\sources\lunor\repos\rougemeilland\palmtree.math.core.uint\palmtree.math.core.uint\pmc_multiply.c
; File z:\sources\lunor\repos\rougemeilland\palmtree.math.core.uint\palmtree.math.core.uint\pmc_inline_func.h
; File z:\sources\lunor\repos\rougemeilland\palmtree.math.core.uint\palmtree.math.core.uint\pmc_multiply.c
; File z:\sources\lunor\repos\rougemeilland\palmtree.math.core.uint\palmtree.math.core.uint\pmc_inline_func.h
; File z:\sources\lunor\repos\rougemeilland\palmtree.math.core.uint\palmtree.math.core.uint\pmc_multiply.c
; File z:\sources\lunor\repos\rougemeilland\palmtree.math.core.uint\palmtree.math.core.uint\pmc_inline_func.h
; File z:\sources\lunor\repos\rougemeilland\palmtree.math.core.uint\palmtree.math.core.uint\pmc_multiply.c
; File z:\sources\lunor\repos\rougemeilland\palmtree.math.core.uint\palmtree.math.core.uint\pmc_inline_func.h
; File z:\sources\lunor\repos\rougemeilland\palmtree.math.core.uint\palmtree.math.core.uint\pmc_multiply.c
; File z:\sources\lunor\repos\rougemeilland\palmtree.math.core.uint\palmtree.math.core.uint\pmc_inline_func.h
; File z:\sources\lunor\repos\rougemeilland\palmtree.math.core.uint\palmtree.math.core.uint\pmc_multiply.c
; File z:\sources\lunor\repos\rougemeilland\palmtree.math.core.uint\palmtree.math.core.uint\pmc_inline_func.h
; File z:\sources\lunor\repos\rougemeilland\palmtree.math.core.uint\palmtree.math.core.uint\pmc_multiply.c
; File z:\sources\lunor\repos\rougemeilland\palmtree.math.core.uint\palmtree.math.core.uint\pmc_inline_func.h
; File z:\sources\lunor\repos\rougemeilland\palmtree.math.core.uint\palmtree.math.core.uint\pmc_multiply.c
; File z:\sources\lunor\repos\rougemeilland\palmtree.math.core.uint\palmtree.math.core.uint\pmc_inline_func.h
; File z:\sources\lunor\repos\rougemeilland\palmtree.math.core.uint\palmtree.math.core.uint\pmc_multiply.c
; File z:\sources\lunor\repos\rougemeilland\palmtree.math.core.uint\palmtree.math.core.uint\pmc_inline_func.h
; File z:\sources\lunor\repos\rougemeilland\palmtree.math.core.uint\palmtree.math.core.uint\pmc_multiply.c
; File z:\sources\lunor\repos\rougemeilland\palmtree.math.core.uint\palmtree.math.core.uint\pmc_inline_func.h
; File z:\sources\lunor\repos\rougemeilland\palmtree.math.core.uint\palmtree.math.core.uint\pmc_multiply.c
; File z:\sources\lunor\repos\rougemeilland\palmtree.math.core.uint\palmtree.math.core.uint\pmc_inline_func.h
; File z:\sources\lunor\repos\rougemeilland\palmtree.math.core.uint\palmtree.math.core.uint\pmc_multiply.c
; File z:\sources\lunor\repos\rougemeilland\palmtree.math.core.uint\palmtree.math.core.uint\pmc_inline_func.h
; File z:\sources\lunor\repos\rougemeilland\palmtree.math.core.uint\palmtree.math.core.uint\pmc_multiply.c
; File z:\sources\lunor\repos\rougemeilland\palmtree.math.core.uint\palmtree.math.core.uint\pmc_inline_func.h
; File z:\sources\lunor\repos\rougemeilland\palmtree.math.core.uint\palmtree.math.core.uint\pmc_multiply.c
; File z:\sources\lunor\repos\rougemeilland\palmtree.math.core.uint\palmtree.math.core.uint\pmc_inline_func.h
; File z:\sources\lunor\repos\rougemeilland\palmtree.math.core.uint\palmtree.math.core.uint\pmc_multiply.c
; File z:\sources\lunor\repos\rougemeilland\palmtree.math.core.uint\palmtree.math.core.uint\pmc_inline_func.h
; File z:\sources\lunor\repos\rougemeilland\palmtree.math.core.uint\palmtree.math.core.uint\pmc_multiply.c
; File z:\sources\lunor\repos\rougemeilland\palmtree.math.core.uint\palmtree.math.core.uint\pmc_inline_func.h
; File z:\sources\lunor\repos\rougemeilland\palmtree.math.core.uint\palmtree.math.core.uint\pmc_multiply.c
; File z:\sources\lunor\repos\rougemeilland\palmtree.math.core.uint\palmtree.math.core.uint\pmc_inline_func.h
; File z:\sources\lunor\repos\rougemeilland\palmtree.math.core.uint\palmtree.math.core.uint\pmc_multiply.c
; File z:\sources\lunor\repos\rougemeilland\palmtree.math.core.uint\palmtree.math.core.uint\pmc_inline_func.h
; File z:\sources\lunor\repos\rougemeilland\palmtree.math.core.uint\palmtree.math.core.uint\pmc_multiply.c
; File z:\sources\lunor\repos\rougemeilland\palmtree.math.core.uint\palmtree.math.core.uint\pmc_inline_func.h
; File z:\sources\lunor\repos\rougemeilland\palmtree.math.core.uint\palmtree.math.core.uint\pmc_multiply.c
; File z:\sources\lunor\repos\rougemeilland\palmtree.math.core.uint\palmtree.math.core.uint\pmc_inline_func.h
; File z:\sources\lunor\repos\rougemeilland\palmtree.math.core.uint\palmtree.math.core.uint\pmc_multiply.c
; File z:\sources\lunor\repos\rougemeilland\palmtree.math.core.uint\palmtree.math.core.uint\pmc_inline_func.h
; File z:\sources\lunor\repos\rougemeilland\palmtree.math.core.uint\palmtree.math.core.uint\pmc_multiply.c
; File z:\sources\lunor\repos\rougemeilland\palmtree.math.core.uint\palmtree.math.core.uint\pmc_inline_func.h
; File z:\sources\lunor\repos\rougemeilland\palmtree.math.core.uint\palmtree.math.core.uint\pmc_multiply.c
; File z:\sources\lunor\repos\rougemeilland\palmtree.math.core.uint\palmtree.math.core.uint\pmc_inline_func.h
; File z:\sources\lunor\repos\rougemeilland\palmtree.math.core.uint\palmtree.math.core.uint\pmc_uint_internal.h
; File z:\sources\lunor\repos\rougemeilland\palmtree.math.core.uint\palmtree.math.core.uint\pmc_multiply.c
; File z:\sources\lunor\repos\rougemeilland\palmtree.math.core.uint\palmtree.math.core.uint\pmc_uint_internal.h
; File z:\sources\lunor\repos\rougemeilland\palmtree.math.core.uint\palmtree.math.core.uint\pmc_inline_func.h
; File z:\sources\lunor\repos\rougemeilland\palmtree.math.core.uint\palmtree.math.core.uint\pmc_multiply.c
; File z:\sources\lunor\repos\rougemeilland\palmtree.math.core.uint\palmtree.math.core.uint\pmc_uint_internal.h
; File z:\sources\lunor\repos\rougemeilland\palmtree.math.core.uint\palmtree.math.core.uint\pmc_multiply.c
; File z:\sources\lunor\repos\rougemeilland\palmtree.math.core.uint\palmtree.math.core.uint\pmc_inline_func.h
; File z:\sources\lunor\repos\rougemeilland\palmtree.math.core.uint\palmtree.math.core.uint\pmc_multiply.c
; File z:\sources\lunor\repos\rougemeilland\palmtree.math.core.uint\palmtree.math.core.uint\pmc_inline_func.h
; File z:\sources\lunor\repos\rougemeilland\palmtree.math.core.uint\palmtree.math.core.uint\pmc_multiply.c
; File z:\sources\lunor\repos\rougemeilland\palmtree.math.core.uint\palmtree.math.core.uint\pmc_inline_func.h
; File z:\sources\lunor\repos\rougemeilland\palmtree.math.core.uint\palmtree.math.core.uint\pmc_multiply.c
; File z:\sources\lunor\repos\rougemeilland\palmtree.math.core.uint\palmtree.math.core.uint\pmc_inline_func.h
; File z:\sources\lunor\repos\rougemeilland\palmtree.math.core.uint\palmtree.math.core.uint\pmc_multiply.c
; File z:\sources\lunor\repos\rougemeilland\palmtree.math.core.uint\palmtree.math.core.uint\pmc_inline_func.h
; File z:\sources\lunor\repos\rougemeilland\palmtree.math.core.uint\palmtree.math.core.uint\pmc_multiply.c
; File z:\sources\lunor\repos\rougemeilland\palmtree.math.core.uint\palmtree.math.core.uint\pmc_inline_func.h
; File z:\sources\lunor\repos\rougemeilland\palmtree.math.core.uint\palmtree.math.core.uint\pmc_multiply.c
; File z:\sources\lunor\repos\rougemeilland\palmtree.math.core.uint\palmtree.math.core.uint\pmc_inline_func.h
; File z:\sources\lunor\repos\rougemeilland\palmtree.math.core.uint\palmtree.math.core.uint\pmc_multiply.c
; File z:\sources\lunor\repos\rougemeilland\palmtree.math.core.uint\palmtree.math.core.uint\pmc_inline_func.h
; File z:\sources\lunor\repos\rougemeilland\palmtree.math.core.uint\palmtree.math.core.uint\pmc_multiply.c
; File z:\sources\lunor\repos\rougemeilland\palmtree.math.core.uint\palmtree.math.core.uint\pmc_inline_func.h
; File z:\sources\lunor\repos\rougemeilland\palmtree.math.core.uint\palmtree.math.core.uint\pmc_multiply.c
; File z:\sources\lunor\repos\rougemeilland\palmtree.math.core.uint\palmtree.math.core.uint\pmc_inline_func.h
; File z:\sources\lunor\repos\rougemeilland\palmtree.math.core.uint\palmtree.math.core.uint\pmc_multiply.c
; File z:\sources\lunor\repos\rougemeilland\palmtree.math.core.uint\palmtree.math.core.uint\pmc_inline_func.h
; File z:\sources\lunor\repos\rougemeilland\palmtree.math.core.uint\palmtree.math.core.uint\pmc_multiply.c
; File z:\sources\lunor\repos\rougemeilland\palmtree.math.core.uint\palmtree.math.core.uint\pmc_inline_func.h
; File z:\sources\lunor\repos\rougemeilland\palmtree.math.core.uint\palmtree.math.core.uint\pmc_multiply.c
; File z:\sources\lunor\repos\rougemeilland\palmtree.math.core.uint\palmtree.math.core.uint\pmc_inline_func.h
; File z:\sources\lunor\repos\rougemeilland\palmtree.math.core.uint\palmtree.math.core.uint\pmc_multiply.c
; File z:\sources\lunor\repos\rougemeilland\palmtree.math.core.uint\palmtree.math.core.uint\pmc_inline_func.h
; File z:\sources\lunor\repos\rougemeilland\palmtree.math.core.uint\palmtree.math.core.uint\pmc_multiply.c
; File z:\sources\lunor\repos\rougemeilland\palmtree.math.core.uint\palmtree.math.core.uint\pmc_inline_func.h
; File z:\sources\lunor\repos\rougemeilland\palmtree.math.core.uint\palmtree.math.core.uint\pmc_multiply.c
; File z:\sources\lunor\repos\rougemeilland\palmtree.math.core.uint\palmtree.math.core.uint\pmc_inline_func.h
; File z:\sources\lunor\repos\rougemeilland\palmtree.math.core.uint\palmtree.math.core.uint\pmc_multiply.c
; File z:\sources\lunor\repos\rougemeilland\palmtree.math.core.uint\palmtree.math.core.uint\pmc_uint_internal.h
; File z:\sources\lunor\repos\rougemeilland\palmtree.math.core.uint\palmtree.math.core.uint\pmc_inline_func.h
; File z:\sources\lunor\repos\rougemeilland\palmtree.math.core.uint\palmtree.math.core.uint\pmc_multiply.c
; File z:\sources\lunor\repos\rougemeilland\palmtree.math.core.uint\palmtree.math.core.uint\pmc_uint_internal.h
; File z:\sources\lunor\repos\rougemeilland\palmtree.math.core.uint\palmtree.math.core.uint\pmc_multiply.c
; File z:\sources\lunor\repos\rougemeilland\palmtree.math.core.uint\palmtree.math.core.uint\pmc_inline_func.h
; File z:\sources\lunor\repos\rougemeilland\palmtree.math.core.uint\palmtree.math.core.uint\pmc_multiply.c
; File z:\sources\lunor\repos\rougemeilland\palmtree.math.core.uint\palmtree.math.core.uint\pmc_inline_func.h
; File z:\sources\lunor\repos\rougemeilland\palmtree.math.core.uint\palmtree.math.core.uint\pmc_multiply.c
; File z:\sources\lunor\repos\rougemeilland\palmtree.math.core.uint\palmtree.math.core.uint\pmc_inline_func.h
; File z:\sources\lunor\repos\rougemeilland\palmtree.math.core.uint\palmtree.math.core.uint\pmc_multiply.c
; File z:\sources\lunor\repos\rougemeilland\palmtree.math.core.uint\palmtree.math.core.uint\pmc_inline_func.h
; File z:\sources\lunor\repos\rougemeilland\palmtree.math.core.uint\palmtree.math.core.uint\pmc_multiply.c
; File z:\sources\lunor\repos\rougemeilland\palmtree.math.core.uint\palmtree.math.core.uint\pmc_inline_func.h
; File z:\sources\lunor\repos\rougemeilland\palmtree.math.core.uint\palmtree.math.core.uint\pmc_multiply.c
; File z:\sources\lunor\repos\rougemeilland\palmtree.math.core.uint\palmtree.math.core.uint\pmc_inline_func.h
; File z:\sources\lunor\repos\rougemeilland\palmtree.math.core.uint\palmtree.math.core.uint\pmc_multiply.c
; File z:\sources\lunor\repos\rougemeilland\palmtree.math.core.uint\palmtree.math.core.uint\pmc_inline_func.h
; File z:\sources\lunor\repos\rougemeilland\palmtree.math.core.uint\palmtree.math.core.uint\pmc_multiply.c
; File z:\sources\lunor\repos\rougemeilland\palmtree.math.core.uint\palmtree.math.core.uint\pmc_inline_func.h
; File z:\sources\lunor\repos\rougemeilland\palmtree.math.core.uint\palmtree.math.core.uint\pmc_multiply.c
; File z:\sources\lunor\repos\rougemeilland\palmtree.math.core.uint\palmtree.math.core.uint\pmc_uint_internal.h
; File z:\sources\lunor\repos\rougemeilland\palmtree.math.core.uint\palmtree.math.core.uint\pmc_inline_func.h
; File z:\sources\lunor\repos\rougemeilland\palmtree.math.core.uint\palmtree.math.core.uint\pmc_multiply.c
; File z:\sources\lunor\repos\rougemeilland\palmtree.math.core.uint\palmtree.math.core.uint\pmc_uint_internal.h
; File z:\sources\lunor\repos\rougemeilland\palmtree.math.core.uint\palmtree.math.core.uint\pmc_multiply.c
; File z:\sources\lunor\repos\rougemeilland\palmtree.math.core.uint\palmtree.math.core.uint\pmc_inline_func.h
; File z:\sources\lunor\repos\rougemeilland\palmtree.math.core.uint\palmtree.math.core.uint\pmc_multiply.c
; File z:\sources\lunor\repos\rougemeilland\palmtree.math.core.uint\palmtree.math.core.uint\pmc_inline_func.h
; File z:\sources\lunor\repos\rougemeilland\palmtree.math.core.uint\palmtree.math.core.uint\pmc_multiply.c
; File z:\sources\lunor\repos\rougemeilland\palmtree.math.core.uint\palmtree.math.core.uint\pmc_inline_func.h
; File z:\sources\lunor\repos\rougemeilland\palmtree.math.core.uint\palmtree.math.core.uint\pmc_multiply.c
; File z:\sources\lunor\repos\rougemeilland\palmtree.math.core.uint\palmtree.math.core.uint\pmc_inline_func.h
; File z:\sources\lunor\repos\rougemeilland\palmtree.math.core.uint\palmtree.math.core.uint\pmc_multiply.c
; File z:\sources\lunor\repos\rougemeilland\palmtree.math.core.uint\palmtree.math.core.uint\pmc_uint_internal.h
; File z:\sources\lunor\repos\rougemeilland\palmtree.math.core.uint\palmtree.math.core.uint\pmc_inline_func.h
; File z:\sources\lunor\repos\rougemeilland\palmtree.math.core.uint\palmtree.math.core.uint\pmc_multiply.c
; File z:\sources\lunor\repos\rougemeilland\palmtree.math.core.uint\palmtree.math.core.uint\pmc_uint_internal.h
; File z:\sources\lunor\repos\rougemeilland\palmtree.math.core.uint\palmtree.math.core.uint\pmc_multiply.c
; File z:\sources\lunor\repos\rougemeilland\palmtree.math.core.uint\palmtree.math.core.uint\pmc_inline_func.h
; File z:\sources\lunor\repos\rougemeilland\palmtree.math.core.uint\palmtree.math.core.uint\pmc_multiply.c
; File z:\sources\lunor\repos\rougemeilland\palmtree.math.core.uint\palmtree.math.core.uint\pmc_inline_func.h
; File z:\sources\lunor\repos\rougemeilland\palmtree.math.core.uint\palmtree.math.core.uint\pmc_multiply.c
; File z:\sources\lunor\repos\rougemeilland\palmtree.math.core.uint\palmtree.math.core.uint\pmc_uint_internal.h
; File z:\sources\lunor\repos\rougemeilland\palmtree.math.core.uint\palmtree.math.core.uint\pmc_inline_func.h
; File z:\sources\lunor\repos\rougemeilland\palmtree.math.core.uint\palmtree.math.core.uint\pmc_multiply.c
; File z:\sources\lunor\repos\rougemeilland\palmtree.math.core.uint\palmtree.math.core.uint\pmc_uint_internal.h
; File z:\sources\lunor\repos\rougemeilland\palmtree.math.core.uint\palmtree.math.core.uint\pmc_multiply.c
; File z:\sources\lunor\repos\rougemeilland\palmtree.math.core.uint\palmtree.math.core.uint\pmc_inline_func.h
; File z:\sources\lunor\repos\rougemeilland\palmtree.math.core.uint\palmtree.math.core.uint\pmc_multiply.c
; File z:\sources\lunor\repos\rougemeilland\palmtree.math.core.uint\palmtree.math.core.uint\pmc_inline_func.h
; File z:\sources\lunor\repos\rougemeilland\palmtree.math.core.uint\palmtree.math.core.uint\pmc_multiply.c
; File z:\sources\lunor\repos\rougemeilland\palmtree.math.core.uint\palmtree.math.core.uint\pmc_uint_internal.h
; File z:\sources\lunor\repos\rougemeilland\palmtree.math.core.uint\palmtree.math.core.uint\pmc_multiply.c
;	COMDAT _Multiply_WORD_using_MULX_ADCX
_TEXT	SEGMENT
_count$1$ = -4						; size = 4
_up$ = 8						; size = 4
_u_count$ = 12						; size = 4
_v$ = 16						; size = 4
_wp$ = 20						; size = 4
_Multiply_WORD_using_MULX_ADCX PROC			; COMDAT

; 219  : {

	push	ebp
	mov	ebp, esp
	sub	esp, 8

; 220  :     __UNIT_TYPE k = 0;
; 221  :     __UNIT_TYPE count = u_count >> 5;

	mov	eax, DWORD PTR _u_count$[ebp]
	mov	ecx, eax

; 223  :     while (count != 0)

	mov	edx, DWORD PTR _v$[ebp]
	push	ebx
	mov	ebx, DWORD PTR _up$[ebp]
	push	esi
	shr	ecx, 5
	push	edi
	xor	edi, edi
	mov	DWORD PTR _count$1$[ebp], ecx
	test	ecx, ecx
	mov	ecx, DWORD PTR _wp$[ebp]
	je	$LN3@Multiply_W
$LL2@Multiply_W:
; File z:\sources\lunor\repos\rougemeilland\palmtree.math.core.uint\palmtree.math.core.uint\pmc_inline_func.h

; 338  :         return (_FROMDWORDTOWORD((_UINT64_T)u * v, w_hi));

	mov	eax, DWORD PTR [ebx]
	mul	edx

; 243  :         return (_addcarryx_u32(carry, u, v, w));

	add	eax, DWORD PTR [ecx]

; 338  :         return (_FROMDWORDTOWORD((_UINT64_T)u * v, w_hi));

	mov	esi, edx

; 243  :         return (_addcarryx_u32(carry, u, v, w));

	mov	edx, 0
	adcx	esi, edx
	add	eax, edi
; File z:\sources\lunor\repos\rougemeilland\palmtree.math.core.uint\palmtree.math.core.uint\pmc_multiply.c

; 66   :     *wp = t_lo;

	mov	DWORD PTR [ecx], eax
; File z:\sources\lunor\repos\rougemeilland\palmtree.math.core.uint\palmtree.math.core.uint\pmc_inline_func.h

; 243  :         return (_addcarryx_u32(carry, u, v, w));

	adcx	esi, edx

; 338  :         return (_FROMDWORDTOWORD((_UINT64_T)u * v, w_hi));

	mov	eax, DWORD PTR [ebx+4]
	mul	DWORD PTR _v$[ebp]

; 243  :         return (_addcarryx_u32(carry, u, v, w));

	add	eax, DWORD PTR [ecx+4]

; 338  :         return (_FROMDWORDTOWORD((_UINT64_T)u * v, w_hi));

	mov	edi, edx

; 243  :         return (_addcarryx_u32(carry, u, v, w));

	mov	edx, 0
	adcx	edi, edx
	add	eax, esi
; File z:\sources\lunor\repos\rougemeilland\palmtree.math.core.uint\palmtree.math.core.uint\pmc_multiply.c

; 66   :     *wp = t_lo;

	mov	DWORD PTR [ecx+4], eax
; File z:\sources\lunor\repos\rougemeilland\palmtree.math.core.uint\palmtree.math.core.uint\pmc_inline_func.h

; 243  :         return (_addcarryx_u32(carry, u, v, w));

	adcx	edi, edx

; 338  :         return (_FROMDWORDTOWORD((_UINT64_T)u * v, w_hi));

	mov	eax, DWORD PTR [ebx+8]
	mul	DWORD PTR _v$[ebp]

; 243  :         return (_addcarryx_u32(carry, u, v, w));

	add	eax, DWORD PTR [ecx+8]

; 338  :         return (_FROMDWORDTOWORD((_UINT64_T)u * v, w_hi));

	mov	esi, edx

; 243  :         return (_addcarryx_u32(carry, u, v, w));

	mov	edx, 0
	adcx	esi, edx
	add	eax, edi
; File z:\sources\lunor\repos\rougemeilland\palmtree.math.core.uint\palmtree.math.core.uint\pmc_multiply.c

; 66   :     *wp = t_lo;

	mov	DWORD PTR [ecx+8], eax
; File z:\sources\lunor\repos\rougemeilland\palmtree.math.core.uint\palmtree.math.core.uint\pmc_inline_func.h

; 338  :         return (_FROMDWORDTOWORD((_UINT64_T)u * v, w_hi));

	mov	eax, DWORD PTR [ebx+12]

; 243  :         return (_addcarryx_u32(carry, u, v, w));

	adcx	esi, edx

; 338  :         return (_FROMDWORDTOWORD((_UINT64_T)u * v, w_hi));

	mul	DWORD PTR _v$[ebp]

; 243  :         return (_addcarryx_u32(carry, u, v, w));

	add	eax, DWORD PTR [ecx+12]

; 338  :         return (_FROMDWORDTOWORD((_UINT64_T)u * v, w_hi));

	mov	edi, edx

; 243  :         return (_addcarryx_u32(carry, u, v, w));

	mov	edx, 0
	adcx	edi, edx
	add	eax, esi
; File z:\sources\lunor\repos\rougemeilland\palmtree.math.core.uint\palmtree.math.core.uint\pmc_multiply.c

; 66   :     *wp = t_lo;

	mov	DWORD PTR [ecx+12], eax
; File z:\sources\lunor\repos\rougemeilland\palmtree.math.core.uint\palmtree.math.core.uint\pmc_inline_func.h

; 338  :         return (_FROMDWORDTOWORD((_UINT64_T)u * v, w_hi));

	mov	eax, DWORD PTR [ebx+16]

; 243  :         return (_addcarryx_u32(carry, u, v, w));

	adcx	edi, edx

; 338  :         return (_FROMDWORDTOWORD((_UINT64_T)u * v, w_hi));

	mul	DWORD PTR _v$[ebp]

; 243  :         return (_addcarryx_u32(carry, u, v, w));

	add	eax, DWORD PTR [ecx+16]

; 338  :         return (_FROMDWORDTOWORD((_UINT64_T)u * v, w_hi));

	mov	esi, edx

; 243  :         return (_addcarryx_u32(carry, u, v, w));

	mov	edx, 0
	adcx	esi, edx
	add	eax, edi
; File z:\sources\lunor\repos\rougemeilland\palmtree.math.core.uint\palmtree.math.core.uint\pmc_multiply.c

; 66   :     *wp = t_lo;

	mov	DWORD PTR [ecx+16], eax
; File z:\sources\lunor\repos\rougemeilland\palmtree.math.core.uint\palmtree.math.core.uint\pmc_inline_func.h

; 338  :         return (_FROMDWORDTOWORD((_UINT64_T)u * v, w_hi));

	mov	eax, DWORD PTR [ebx+20]

; 243  :         return (_addcarryx_u32(carry, u, v, w));

	adcx	esi, edx

; 338  :         return (_FROMDWORDTOWORD((_UINT64_T)u * v, w_hi));

	mul	DWORD PTR _v$[ebp]

; 243  :         return (_addcarryx_u32(carry, u, v, w));

	add	eax, DWORD PTR [ecx+20]

; 338  :         return (_FROMDWORDTOWORD((_UINT64_T)u * v, w_hi));

	mov	edi, edx

; 243  :         return (_addcarryx_u32(carry, u, v, w));

	mov	edx, 0
	adcx	edi, edx
	add	eax, esi
; File z:\sources\lunor\repos\rougemeilland\palmtree.math.core.uint\palmtree.math.core.uint\pmc_multiply.c

; 66   :     *wp = t_lo;

	mov	DWORD PTR [ecx+20], eax
; File z:\sources\lunor\repos\rougemeilland\palmtree.math.core.uint\palmtree.math.core.uint\pmc_inline_func.h

; 338  :         return (_FROMDWORDTOWORD((_UINT64_T)u * v, w_hi));

	mov	eax, DWORD PTR [ebx+24]

; 243  :         return (_addcarryx_u32(carry, u, v, w));

	adcx	edi, edx

; 338  :         return (_FROMDWORDTOWORD((_UINT64_T)u * v, w_hi));

	mul	DWORD PTR _v$[ebp]

; 243  :         return (_addcarryx_u32(carry, u, v, w));

	add	eax, DWORD PTR [ecx+24]

; 338  :         return (_FROMDWORDTOWORD((_UINT64_T)u * v, w_hi));

	mov	esi, edx

; 243  :         return (_addcarryx_u32(carry, u, v, w));

	mov	edx, 0
	adcx	esi, edx
	add	eax, edi
; File z:\sources\lunor\repos\rougemeilland\palmtree.math.core.uint\palmtree.math.core.uint\pmc_multiply.c

; 66   :     *wp = t_lo;

	mov	DWORD PTR [ecx+24], eax
; File z:\sources\lunor\repos\rougemeilland\palmtree.math.core.uint\palmtree.math.core.uint\pmc_inline_func.h

; 338  :         return (_FROMDWORDTOWORD((_UINT64_T)u * v, w_hi));

	mov	eax, DWORD PTR [ebx+28]

; 243  :         return (_addcarryx_u32(carry, u, v, w));

	adcx	esi, edx

; 338  :         return (_FROMDWORDTOWORD((_UINT64_T)u * v, w_hi));

	mul	DWORD PTR _v$[ebp]

; 243  :         return (_addcarryx_u32(carry, u, v, w));

	add	eax, DWORD PTR [ecx+28]

; 338  :         return (_FROMDWORDTOWORD((_UINT64_T)u * v, w_hi));

	mov	edi, edx

; 243  :         return (_addcarryx_u32(carry, u, v, w));

	mov	edx, 0
	adcx	edi, edx
	add	eax, esi
; File z:\sources\lunor\repos\rougemeilland\palmtree.math.core.uint\palmtree.math.core.uint\pmc_multiply.c

; 66   :     *wp = t_lo;

	mov	DWORD PTR [ecx+28], eax
; File z:\sources\lunor\repos\rougemeilland\palmtree.math.core.uint\palmtree.math.core.uint\pmc_inline_func.h

; 338  :         return (_FROMDWORDTOWORD((_UINT64_T)u * v, w_hi));

	mov	eax, DWORD PTR [ebx+32]

; 243  :         return (_addcarryx_u32(carry, u, v, w));

	adcx	edi, edx

; 338  :         return (_FROMDWORDTOWORD((_UINT64_T)u * v, w_hi));

	mul	DWORD PTR _v$[ebp]

; 243  :         return (_addcarryx_u32(carry, u, v, w));

	add	eax, DWORD PTR [ecx+32]

; 338  :         return (_FROMDWORDTOWORD((_UINT64_T)u * v, w_hi));

	mov	esi, edx

; 243  :         return (_addcarryx_u32(carry, u, v, w));

	mov	edx, 0
	adcx	esi, edx
	add	eax, edi
; File z:\sources\lunor\repos\rougemeilland\palmtree.math.core.uint\palmtree.math.core.uint\pmc_multiply.c

; 66   :     *wp = t_lo;

	mov	DWORD PTR [ecx+32], eax
; File z:\sources\lunor\repos\rougemeilland\palmtree.math.core.uint\palmtree.math.core.uint\pmc_inline_func.h

; 243  :         return (_addcarryx_u32(carry, u, v, w));

	adcx	esi, edx

; 338  :         return (_FROMDWORDTOWORD((_UINT64_T)u * v, w_hi));

	mov	eax, DWORD PTR [ebx+36]
	mul	DWORD PTR _v$[ebp]

; 243  :         return (_addcarryx_u32(carry, u, v, w));

	add	eax, DWORD PTR [ecx+36]

; 338  :         return (_FROMDWORDTOWORD((_UINT64_T)u * v, w_hi));

	mov	edi, edx

; 243  :         return (_addcarryx_u32(carry, u, v, w));

	mov	edx, 0
	adcx	edi, edx
	add	eax, esi
; File z:\sources\lunor\repos\rougemeilland\palmtree.math.core.uint\palmtree.math.core.uint\pmc_multiply.c

; 66   :     *wp = t_lo;

	mov	DWORD PTR [ecx+36], eax
; File z:\sources\lunor\repos\rougemeilland\palmtree.math.core.uint\palmtree.math.core.uint\pmc_inline_func.h

; 243  :         return (_addcarryx_u32(carry, u, v, w));

	adcx	edi, edx

; 338  :         return (_FROMDWORDTOWORD((_UINT64_T)u * v, w_hi));

	mov	eax, DWORD PTR [ebx+40]
	mul	DWORD PTR _v$[ebp]

; 243  :         return (_addcarryx_u32(carry, u, v, w));

	add	eax, DWORD PTR [ecx+40]

; 338  :         return (_FROMDWORDTOWORD((_UINT64_T)u * v, w_hi));

	mov	esi, edx

; 243  :         return (_addcarryx_u32(carry, u, v, w));

	mov	edx, 0
	adcx	esi, edx
	add	eax, edi
; File z:\sources\lunor\repos\rougemeilland\palmtree.math.core.uint\palmtree.math.core.uint\pmc_multiply.c

; 66   :     *wp = t_lo;

	mov	DWORD PTR [ecx+40], eax
; File z:\sources\lunor\repos\rougemeilland\palmtree.math.core.uint\palmtree.math.core.uint\pmc_inline_func.h

; 243  :         return (_addcarryx_u32(carry, u, v, w));

	adcx	esi, edx

; 338  :         return (_FROMDWORDTOWORD((_UINT64_T)u * v, w_hi));

	mov	eax, DWORD PTR [ebx+44]
	mul	DWORD PTR _v$[ebp]

; 243  :         return (_addcarryx_u32(carry, u, v, w));

	add	eax, DWORD PTR [ecx+44]

; 338  :         return (_FROMDWORDTOWORD((_UINT64_T)u * v, w_hi));

	mov	edi, edx

; 243  :         return (_addcarryx_u32(carry, u, v, w));

	mov	edx, 0
	adcx	edi, edx
	add	eax, esi
; File z:\sources\lunor\repos\rougemeilland\palmtree.math.core.uint\palmtree.math.core.uint\pmc_multiply.c

; 66   :     *wp = t_lo;

	mov	DWORD PTR [ecx+44], eax
; File z:\sources\lunor\repos\rougemeilland\palmtree.math.core.uint\palmtree.math.core.uint\pmc_inline_func.h

; 338  :         return (_FROMDWORDTOWORD((_UINT64_T)u * v, w_hi));

	mov	eax, DWORD PTR [ebx+48]

; 243  :         return (_addcarryx_u32(carry, u, v, w));

	adcx	edi, edx

; 338  :         return (_FROMDWORDTOWORD((_UINT64_T)u * v, w_hi));

	mul	DWORD PTR _v$[ebp]

; 243  :         return (_addcarryx_u32(carry, u, v, w));

	add	eax, DWORD PTR [ecx+48]

; 338  :         return (_FROMDWORDTOWORD((_UINT64_T)u * v, w_hi));

	mov	esi, edx

; 243  :         return (_addcarryx_u32(carry, u, v, w));

	mov	edx, 0
	adcx	esi, edx
	add	eax, edi
; File z:\sources\lunor\repos\rougemeilland\palmtree.math.core.uint\palmtree.math.core.uint\pmc_multiply.c

; 66   :     *wp = t_lo;

	mov	DWORD PTR [ecx+48], eax
; File z:\sources\lunor\repos\rougemeilland\palmtree.math.core.uint\palmtree.math.core.uint\pmc_inline_func.h

; 338  :         return (_FROMDWORDTOWORD((_UINT64_T)u * v, w_hi));

	mov	eax, DWORD PTR [ebx+52]

; 243  :         return (_addcarryx_u32(carry, u, v, w));

	adcx	esi, edx

; 338  :         return (_FROMDWORDTOWORD((_UINT64_T)u * v, w_hi));

	mul	DWORD PTR _v$[ebp]

; 243  :         return (_addcarryx_u32(carry, u, v, w));

	add	eax, DWORD PTR [ecx+52]

; 338  :         return (_FROMDWORDTOWORD((_UINT64_T)u * v, w_hi));

	mov	edi, edx

; 243  :         return (_addcarryx_u32(carry, u, v, w));

	mov	edx, 0
	adcx	edi, edx
	add	eax, esi
; File z:\sources\lunor\repos\rougemeilland\palmtree.math.core.uint\palmtree.math.core.uint\pmc_multiply.c

; 66   :     *wp = t_lo;

	mov	DWORD PTR [ecx+52], eax
; File z:\sources\lunor\repos\rougemeilland\palmtree.math.core.uint\palmtree.math.core.uint\pmc_inline_func.h

; 338  :         return (_FROMDWORDTOWORD((_UINT64_T)u * v, w_hi));

	mov	eax, DWORD PTR [ebx+56]

; 243  :         return (_addcarryx_u32(carry, u, v, w));

	adcx	edi, edx

; 338  :         return (_FROMDWORDTOWORD((_UINT64_T)u * v, w_hi));

	mul	DWORD PTR _v$[ebp]

; 243  :         return (_addcarryx_u32(carry, u, v, w));

	add	eax, DWORD PTR [ecx+56]

; 338  :         return (_FROMDWORDTOWORD((_UINT64_T)u * v, w_hi));

	mov	esi, edx

; 243  :         return (_addcarryx_u32(carry, u, v, w));

	mov	edx, 0
	adcx	esi, edx
	add	eax, edi
; File z:\sources\lunor\repos\rougemeilland\palmtree.math.core.uint\palmtree.math.core.uint\pmc_multiply.c

; 66   :     *wp = t_lo;

	mov	DWORD PTR [ecx+56], eax
; File z:\sources\lunor\repos\rougemeilland\palmtree.math.core.uint\palmtree.math.core.uint\pmc_inline_func.h

; 338  :         return (_FROMDWORDTOWORD((_UINT64_T)u * v, w_hi));

	mov	eax, DWORD PTR [ebx+60]

; 243  :         return (_addcarryx_u32(carry, u, v, w));

	adcx	esi, edx

; 338  :         return (_FROMDWORDTOWORD((_UINT64_T)u * v, w_hi));

	mul	DWORD PTR _v$[ebp]

; 243  :         return (_addcarryx_u32(carry, u, v, w));

	add	eax, DWORD PTR [ecx+60]

; 338  :         return (_FROMDWORDTOWORD((_UINT64_T)u * v, w_hi));

	mov	edi, edx

; 243  :         return (_addcarryx_u32(carry, u, v, w));

	mov	edx, 0
	adcx	edi, edx
	add	eax, esi
; File z:\sources\lunor\repos\rougemeilland\palmtree.math.core.uint\palmtree.math.core.uint\pmc_multiply.c

; 66   :     *wp = t_lo;

	mov	DWORD PTR [ecx+60], eax
; File z:\sources\lunor\repos\rougemeilland\palmtree.math.core.uint\palmtree.math.core.uint\pmc_inline_func.h

; 338  :         return (_FROMDWORDTOWORD((_UINT64_T)u * v, w_hi));

	mov	eax, DWORD PTR [ebx+64]

; 243  :         return (_addcarryx_u32(carry, u, v, w));

	adcx	edi, edx

; 338  :         return (_FROMDWORDTOWORD((_UINT64_T)u * v, w_hi));

	mul	DWORD PTR _v$[ebp]

; 243  :         return (_addcarryx_u32(carry, u, v, w));

	add	eax, DWORD PTR [ecx+64]

; 338  :         return (_FROMDWORDTOWORD((_UINT64_T)u * v, w_hi));

	mov	esi, edx

; 243  :         return (_addcarryx_u32(carry, u, v, w));

	mov	edx, 0
	adcx	esi, edx
	add	eax, edi
; File z:\sources\lunor\repos\rougemeilland\palmtree.math.core.uint\palmtree.math.core.uint\pmc_multiply.c

; 66   :     *wp = t_lo;

	mov	DWORD PTR [ecx+64], eax
; File z:\sources\lunor\repos\rougemeilland\palmtree.math.core.uint\palmtree.math.core.uint\pmc_inline_func.h

; 338  :         return (_FROMDWORDTOWORD((_UINT64_T)u * v, w_hi));

	mov	eax, DWORD PTR [ebx+68]

; 243  :         return (_addcarryx_u32(carry, u, v, w));

	adcx	esi, edx

; 338  :         return (_FROMDWORDTOWORD((_UINT64_T)u * v, w_hi));

	mul	DWORD PTR _v$[ebp]

; 243  :         return (_addcarryx_u32(carry, u, v, w));

	add	eax, DWORD PTR [ecx+68]

; 338  :         return (_FROMDWORDTOWORD((_UINT64_T)u * v, w_hi));

	mov	edi, edx

; 243  :         return (_addcarryx_u32(carry, u, v, w));

	mov	edx, 0
	adcx	edi, edx
	add	eax, esi
; File z:\sources\lunor\repos\rougemeilland\palmtree.math.core.uint\palmtree.math.core.uint\pmc_multiply.c

; 66   :     *wp = t_lo;

	mov	DWORD PTR [ecx+68], eax
; File z:\sources\lunor\repos\rougemeilland\palmtree.math.core.uint\palmtree.math.core.uint\pmc_inline_func.h

; 243  :         return (_addcarryx_u32(carry, u, v, w));

	adcx	edi, edx

; 338  :         return (_FROMDWORDTOWORD((_UINT64_T)u * v, w_hi));

	mov	eax, DWORD PTR [ebx+72]
	mul	DWORD PTR _v$[ebp]

; 243  :         return (_addcarryx_u32(carry, u, v, w));

	add	eax, DWORD PTR [ecx+72]

; 338  :         return (_FROMDWORDTOWORD((_UINT64_T)u * v, w_hi));

	mov	esi, edx

; 243  :         return (_addcarryx_u32(carry, u, v, w));

	mov	edx, 0
	adcx	esi, edx
	add	eax, edi
; File z:\sources\lunor\repos\rougemeilland\palmtree.math.core.uint\palmtree.math.core.uint\pmc_multiply.c

; 66   :     *wp = t_lo;

	mov	DWORD PTR [ecx+72], eax
; File z:\sources\lunor\repos\rougemeilland\palmtree.math.core.uint\palmtree.math.core.uint\pmc_inline_func.h

; 243  :         return (_addcarryx_u32(carry, u, v, w));

	adcx	esi, edx

; 338  :         return (_FROMDWORDTOWORD((_UINT64_T)u * v, w_hi));

	mov	eax, DWORD PTR [ebx+76]
	mul	DWORD PTR _v$[ebp]

; 243  :         return (_addcarryx_u32(carry, u, v, w));

	add	eax, DWORD PTR [ecx+76]

; 338  :         return (_FROMDWORDTOWORD((_UINT64_T)u * v, w_hi));

	mov	edi, edx

; 243  :         return (_addcarryx_u32(carry, u, v, w));

	mov	edx, 0
	adcx	edi, edx
	add	eax, esi
; File z:\sources\lunor\repos\rougemeilland\palmtree.math.core.uint\palmtree.math.core.uint\pmc_multiply.c

; 66   :     *wp = t_lo;

	mov	DWORD PTR [ecx+76], eax
; File z:\sources\lunor\repos\rougemeilland\palmtree.math.core.uint\palmtree.math.core.uint\pmc_inline_func.h

; 243  :         return (_addcarryx_u32(carry, u, v, w));

	adcx	edi, edx

; 338  :         return (_FROMDWORDTOWORD((_UINT64_T)u * v, w_hi));

	mov	eax, DWORD PTR [ebx+80]
	mul	DWORD PTR _v$[ebp]

; 243  :         return (_addcarryx_u32(carry, u, v, w));

	add	eax, DWORD PTR [ecx+80]

; 338  :         return (_FROMDWORDTOWORD((_UINT64_T)u * v, w_hi));

	mov	esi, edx

; 243  :         return (_addcarryx_u32(carry, u, v, w));

	mov	edx, 0
	adcx	esi, edx
	add	eax, edi
; File z:\sources\lunor\repos\rougemeilland\palmtree.math.core.uint\palmtree.math.core.uint\pmc_multiply.c

; 66   :     *wp = t_lo;

	mov	DWORD PTR [ecx+80], eax
; File z:\sources\lunor\repos\rougemeilland\palmtree.math.core.uint\palmtree.math.core.uint\pmc_inline_func.h

; 338  :         return (_FROMDWORDTOWORD((_UINT64_T)u * v, w_hi));

	mov	eax, DWORD PTR [ebx+84]

; 243  :         return (_addcarryx_u32(carry, u, v, w));

	adcx	esi, edx

; 338  :         return (_FROMDWORDTOWORD((_UINT64_T)u * v, w_hi));

	mul	DWORD PTR _v$[ebp]

; 243  :         return (_addcarryx_u32(carry, u, v, w));

	add	eax, DWORD PTR [ecx+84]

; 338  :         return (_FROMDWORDTOWORD((_UINT64_T)u * v, w_hi));

	mov	edi, edx

; 243  :         return (_addcarryx_u32(carry, u, v, w));

	mov	edx, 0
	adcx	edi, edx
	add	eax, esi
; File z:\sources\lunor\repos\rougemeilland\palmtree.math.core.uint\palmtree.math.core.uint\pmc_multiply.c

; 66   :     *wp = t_lo;

	mov	DWORD PTR [ecx+84], eax
; File z:\sources\lunor\repos\rougemeilland\palmtree.math.core.uint\palmtree.math.core.uint\pmc_inline_func.h

; 338  :         return (_FROMDWORDTOWORD((_UINT64_T)u * v, w_hi));

	mov	eax, DWORD PTR [ebx+88]

; 243  :         return (_addcarryx_u32(carry, u, v, w));

	adcx	edi, edx

; 338  :         return (_FROMDWORDTOWORD((_UINT64_T)u * v, w_hi));

	mul	DWORD PTR _v$[ebp]

; 243  :         return (_addcarryx_u32(carry, u, v, w));

	add	eax, DWORD PTR [ecx+88]

; 338  :         return (_FROMDWORDTOWORD((_UINT64_T)u * v, w_hi));

	mov	esi, edx

; 243  :         return (_addcarryx_u32(carry, u, v, w));

	mov	edx, 0
	adcx	esi, edx
	add	eax, edi
; File z:\sources\lunor\repos\rougemeilland\palmtree.math.core.uint\palmtree.math.core.uint\pmc_multiply.c

; 66   :     *wp = t_lo;

	mov	DWORD PTR [ecx+88], eax
; File z:\sources\lunor\repos\rougemeilland\palmtree.math.core.uint\palmtree.math.core.uint\pmc_inline_func.h

; 338  :         return (_FROMDWORDTOWORD((_UINT64_T)u * v, w_hi));

	mov	eax, DWORD PTR [ebx+92]

; 243  :         return (_addcarryx_u32(carry, u, v, w));

	adcx	esi, edx

; 338  :         return (_FROMDWORDTOWORD((_UINT64_T)u * v, w_hi));

	mul	DWORD PTR _v$[ebp]

; 243  :         return (_addcarryx_u32(carry, u, v, w));

	add	eax, DWORD PTR [ecx+92]

; 338  :         return (_FROMDWORDTOWORD((_UINT64_T)u * v, w_hi));

	mov	edi, edx

; 243  :         return (_addcarryx_u32(carry, u, v, w));

	mov	edx, 0
	adcx	edi, edx
	add	eax, esi
; File z:\sources\lunor\repos\rougemeilland\palmtree.math.core.uint\palmtree.math.core.uint\pmc_multiply.c

; 66   :     *wp = t_lo;

	mov	DWORD PTR [ecx+92], eax
; File z:\sources\lunor\repos\rougemeilland\palmtree.math.core.uint\palmtree.math.core.uint\pmc_inline_func.h

; 338  :         return (_FROMDWORDTOWORD((_UINT64_T)u * v, w_hi));

	mov	eax, DWORD PTR [ebx+96]

; 243  :         return (_addcarryx_u32(carry, u, v, w));

	adcx	edi, edx

; 338  :         return (_FROMDWORDTOWORD((_UINT64_T)u * v, w_hi));

	mul	DWORD PTR _v$[ebp]

; 243  :         return (_addcarryx_u32(carry, u, v, w));

	add	eax, DWORD PTR [ecx+96]

; 338  :         return (_FROMDWORDTOWORD((_UINT64_T)u * v, w_hi));

	mov	esi, edx

; 243  :         return (_addcarryx_u32(carry, u, v, w));

	mov	edx, 0
	adcx	esi, edx
	add	eax, edi
; File z:\sources\lunor\repos\rougemeilland\palmtree.math.core.uint\palmtree.math.core.uint\pmc_multiply.c

; 66   :     *wp = t_lo;

	mov	DWORD PTR [ecx+96], eax
; File z:\sources\lunor\repos\rougemeilland\palmtree.math.core.uint\palmtree.math.core.uint\pmc_inline_func.h

; 338  :         return (_FROMDWORDTOWORD((_UINT64_T)u * v, w_hi));

	mov	eax, DWORD PTR [ebx+100]

; 243  :         return (_addcarryx_u32(carry, u, v, w));

	adcx	esi, edx

; 338  :         return (_FROMDWORDTOWORD((_UINT64_T)u * v, w_hi));

	mul	DWORD PTR _v$[ebp]

; 243  :         return (_addcarryx_u32(carry, u, v, w));

	add	eax, DWORD PTR [ecx+100]

; 338  :         return (_FROMDWORDTOWORD((_UINT64_T)u * v, w_hi));

	mov	edi, edx

; 243  :         return (_addcarryx_u32(carry, u, v, w));

	mov	edx, 0
	adcx	edi, edx
	add	eax, esi
; File z:\sources\lunor\repos\rougemeilland\palmtree.math.core.uint\palmtree.math.core.uint\pmc_multiply.c

; 66   :     *wp = t_lo;

	mov	DWORD PTR [ecx+100], eax
; File z:\sources\lunor\repos\rougemeilland\palmtree.math.core.uint\palmtree.math.core.uint\pmc_inline_func.h

; 338  :         return (_FROMDWORDTOWORD((_UINT64_T)u * v, w_hi));

	mov	eax, DWORD PTR [ebx+104]

; 243  :         return (_addcarryx_u32(carry, u, v, w));

	adcx	edi, edx

; 338  :         return (_FROMDWORDTOWORD((_UINT64_T)u * v, w_hi));

	mul	DWORD PTR _v$[ebp]

; 243  :         return (_addcarryx_u32(carry, u, v, w));

	add	eax, DWORD PTR [ecx+104]

; 338  :         return (_FROMDWORDTOWORD((_UINT64_T)u * v, w_hi));

	mov	esi, edx

; 243  :         return (_addcarryx_u32(carry, u, v, w));

	mov	edx, 0
	adcx	esi, edx
	add	eax, edi
; File z:\sources\lunor\repos\rougemeilland\palmtree.math.core.uint\palmtree.math.core.uint\pmc_multiply.c

; 66   :     *wp = t_lo;

	mov	DWORD PTR [ecx+104], eax
; File z:\sources\lunor\repos\rougemeilland\palmtree.math.core.uint\palmtree.math.core.uint\pmc_inline_func.h

; 243  :         return (_addcarryx_u32(carry, u, v, w));

	adcx	esi, edx

; 338  :         return (_FROMDWORDTOWORD((_UINT64_T)u * v, w_hi));

	mov	eax, DWORD PTR [ebx+108]
	mul	DWORD PTR _v$[ebp]

; 243  :         return (_addcarryx_u32(carry, u, v, w));

	add	eax, DWORD PTR [ecx+108]

; 338  :         return (_FROMDWORDTOWORD((_UINT64_T)u * v, w_hi));

	mov	edi, edx

; 243  :         return (_addcarryx_u32(carry, u, v, w));

	mov	edx, 0
	adcx	edi, edx
	add	eax, esi
; File z:\sources\lunor\repos\rougemeilland\palmtree.math.core.uint\palmtree.math.core.uint\pmc_multiply.c

; 66   :     *wp = t_lo;

	mov	DWORD PTR [ecx+108], eax
; File z:\sources\lunor\repos\rougemeilland\palmtree.math.core.uint\palmtree.math.core.uint\pmc_inline_func.h

; 338  :         return (_FROMDWORDTOWORD((_UINT64_T)u * v, w_hi));

	mov	eax, DWORD PTR [ebx+112]

; 243  :         return (_addcarryx_u32(carry, u, v, w));

	adcx	edi, edx

; 338  :         return (_FROMDWORDTOWORD((_UINT64_T)u * v, w_hi));

	mul	DWORD PTR _v$[ebp]

; 243  :         return (_addcarryx_u32(carry, u, v, w));

	add	eax, DWORD PTR [ecx+112]

; 338  :         return (_FROMDWORDTOWORD((_UINT64_T)u * v, w_hi));

	mov	esi, edx

; 243  :         return (_addcarryx_u32(carry, u, v, w));

	mov	edx, 0
	adcx	esi, edx
	add	eax, edi
; File z:\sources\lunor\repos\rougemeilland\palmtree.math.core.uint\palmtree.math.core.uint\pmc_multiply.c

; 66   :     *wp = t_lo;

	mov	DWORD PTR [ecx+112], eax
; File z:\sources\lunor\repos\rougemeilland\palmtree.math.core.uint\palmtree.math.core.uint\pmc_inline_func.h

; 338  :         return (_FROMDWORDTOWORD((_UINT64_T)u * v, w_hi));

	mov	eax, DWORD PTR [ebx+116]

; 243  :         return (_addcarryx_u32(carry, u, v, w));

	adcx	esi, edx

; 338  :         return (_FROMDWORDTOWORD((_UINT64_T)u * v, w_hi));

	mul	DWORD PTR _v$[ebp]

; 243  :         return (_addcarryx_u32(carry, u, v, w));

	add	eax, DWORD PTR [ecx+116]

; 338  :         return (_FROMDWORDTOWORD((_UINT64_T)u * v, w_hi));

	mov	edi, edx

; 243  :         return (_addcarryx_u32(carry, u, v, w));

	mov	edx, 0
	adcx	edi, edx
	add	eax, esi
; File z:\sources\lunor\repos\rougemeilland\palmtree.math.core.uint\palmtree.math.core.uint\pmc_multiply.c

; 66   :     *wp = t_lo;

	mov	DWORD PTR [ecx+116], eax
; File z:\sources\lunor\repos\rougemeilland\palmtree.math.core.uint\palmtree.math.core.uint\pmc_inline_func.h

; 338  :         return (_FROMDWORDTOWORD((_UINT64_T)u * v, w_hi));

	mov	eax, DWORD PTR [ebx+120]

; 243  :         return (_addcarryx_u32(carry, u, v, w));

	adcx	edi, edx

; 338  :         return (_FROMDWORDTOWORD((_UINT64_T)u * v, w_hi));

	mul	DWORD PTR _v$[ebp]

; 243  :         return (_addcarryx_u32(carry, u, v, w));

	add	eax, DWORD PTR [ecx+120]

; 338  :         return (_FROMDWORDTOWORD((_UINT64_T)u * v, w_hi));

	mov	esi, edx

; 243  :         return (_addcarryx_u32(carry, u, v, w));

	mov	edx, 0
	adcx	esi, edx
	add	eax, edi
; File z:\sources\lunor\repos\rougemeilland\palmtree.math.core.uint\palmtree.math.core.uint\pmc_multiply.c

; 66   :     *wp = t_lo;

	mov	DWORD PTR [ecx+120], eax
; File z:\sources\lunor\repos\rougemeilland\palmtree.math.core.uint\palmtree.math.core.uint\pmc_inline_func.h

; 338  :         return (_FROMDWORDTOWORD((_UINT64_T)u * v, w_hi));

	mov	eax, DWORD PTR [ebx+124]

; 243  :         return (_addcarryx_u32(carry, u, v, w));

	adcx	esi, edx

; 338  :         return (_FROMDWORDTOWORD((_UINT64_T)u * v, w_hi));

	mul	DWORD PTR _v$[ebp]

; 243  :         return (_addcarryx_u32(carry, u, v, w));

	add	eax, DWORD PTR [ecx+124]

; 338  :         return (_FROMDWORDTOWORD((_UINT64_T)u * v, w_hi));

	mov	edi, edx

; 243  :         return (_addcarryx_u32(carry, u, v, w));

	mov	edx, 0
	adcx	edi, edx
	add	eax, esi
; File z:\sources\lunor\repos\rougemeilland\palmtree.math.core.uint\palmtree.math.core.uint\pmc_uint_internal.h

; 352  :         _InterlockedExchangeAdd(&statistics_info.COUNT_MULTI32, value);

	mov	esi, OFFSET _statistics_info+4
; File z:\sources\lunor\repos\rougemeilland\palmtree.math.core.uint\palmtree.math.core.uint\pmc_multiply.c

; 66   :     *wp = t_lo;

	mov	DWORD PTR [ecx+124], eax
; File z:\sources\lunor\repos\rougemeilland\palmtree.math.core.uint\palmtree.math.core.uint\pmc_uint_internal.h

; 352  :         _InterlockedExchangeAdd(&statistics_info.COUNT_MULTI32, value);

	mov	eax, 32					; 00000020H
; File z:\sources\lunor\repos\rougemeilland\palmtree.math.core.uint\palmtree.math.core.uint\pmc_inline_func.h

; 243  :         return (_addcarryx_u32(carry, u, v, w));

	adcx	edi, edx
; File z:\sources\lunor\repos\rougemeilland\palmtree.math.core.uint\palmtree.math.core.uint\pmc_multiply.c

; 259  :         --count;

	mov	edx, DWORD PTR _count$1$[ebp]
	sub	ebx, -128				; ffffff80H
	dec	edx
	sub	ecx, -128				; ffffff80H
	mov	DWORD PTR _count$1$[ebp], edx
; File z:\sources\lunor\repos\rougemeilland\palmtree.math.core.uint\palmtree.math.core.uint\pmc_uint_internal.h

; 352  :         _InterlockedExchangeAdd(&statistics_info.COUNT_MULTI32, value);

	lock	 xadd	 DWORD PTR [esi], eax
; File z:\sources\lunor\repos\rougemeilland\palmtree.math.core.uint\palmtree.math.core.uint\pmc_multiply.c

; 223  :     while (count != 0)

	test	edx, edx
	mov	edx, DWORD PTR _v$[ebp]
	jne	$LL2@Multiply_W
	mov	eax, DWORD PTR _u_count$[ebp]
$LN3@Multiply_W:

; 260  : #ifdef ENABLED_PERFORMANCE_COUNTER
; 261  :         if (sizeof(k) == sizeof(_UINT32_T))
; 262  :             AddToMULTI32Counter(32);
; 263  :         else
; 264  :             AddToMULTI64Counter(32);
; 265  : #endif
; 266  :     }
; 267  : 
; 268  :     if (u_count & 0x10)

	test	al, 16					; 00000010H
	je	$LN701@Multiply_W
; File z:\sources\lunor\repos\rougemeilland\palmtree.math.core.uint\palmtree.math.core.uint\pmc_inline_func.h

; 338  :         return (_FROMDWORDTOWORD((_UINT64_T)u * v, w_hi));

	mov	eax, DWORD PTR [ebx]
	mul	edx

; 243  :         return (_addcarryx_u32(carry, u, v, w));

	add	eax, DWORD PTR [ecx]

; 338  :         return (_FROMDWORDTOWORD((_UINT64_T)u * v, w_hi));

	mov	esi, edx

; 243  :         return (_addcarryx_u32(carry, u, v, w));

	mov	edx, 0
	adcx	esi, edx
	add	eax, edi
; File z:\sources\lunor\repos\rougemeilland\palmtree.math.core.uint\palmtree.math.core.uint\pmc_multiply.c

; 66   :     *wp = t_lo;

	mov	DWORD PTR [ecx], eax
; File z:\sources\lunor\repos\rougemeilland\palmtree.math.core.uint\palmtree.math.core.uint\pmc_inline_func.h

; 243  :         return (_addcarryx_u32(carry, u, v, w));

	adcx	esi, edx

; 338  :         return (_FROMDWORDTOWORD((_UINT64_T)u * v, w_hi));

	mov	eax, DWORD PTR [ebx+4]
	mul	DWORD PTR _v$[ebp]

; 243  :         return (_addcarryx_u32(carry, u, v, w));

	add	eax, DWORD PTR [ecx+4]

; 338  :         return (_FROMDWORDTOWORD((_UINT64_T)u * v, w_hi));

	mov	edi, edx

; 243  :         return (_addcarryx_u32(carry, u, v, w));

	mov	edx, 0
	adcx	edi, edx
	add	eax, esi
; File z:\sources\lunor\repos\rougemeilland\palmtree.math.core.uint\palmtree.math.core.uint\pmc_multiply.c

; 66   :     *wp = t_lo;

	mov	DWORD PTR [ecx+4], eax
; File z:\sources\lunor\repos\rougemeilland\palmtree.math.core.uint\palmtree.math.core.uint\pmc_inline_func.h

; 243  :         return (_addcarryx_u32(carry, u, v, w));

	adcx	edi, edx

; 338  :         return (_FROMDWORDTOWORD((_UINT64_T)u * v, w_hi));

	mov	eax, DWORD PTR [ebx+8]
	mul	DWORD PTR _v$[ebp]

; 243  :         return (_addcarryx_u32(carry, u, v, w));

	add	eax, DWORD PTR [ecx+8]

; 338  :         return (_FROMDWORDTOWORD((_UINT64_T)u * v, w_hi));

	mov	esi, edx

; 243  :         return (_addcarryx_u32(carry, u, v, w));

	mov	edx, 0
	adcx	esi, edx
	add	eax, edi
; File z:\sources\lunor\repos\rougemeilland\palmtree.math.core.uint\palmtree.math.core.uint\pmc_multiply.c

; 66   :     *wp = t_lo;

	mov	DWORD PTR [ecx+8], eax
; File z:\sources\lunor\repos\rougemeilland\palmtree.math.core.uint\palmtree.math.core.uint\pmc_inline_func.h

; 338  :         return (_FROMDWORDTOWORD((_UINT64_T)u * v, w_hi));

	mov	eax, DWORD PTR [ebx+12]

; 243  :         return (_addcarryx_u32(carry, u, v, w));

	adcx	esi, edx

; 338  :         return (_FROMDWORDTOWORD((_UINT64_T)u * v, w_hi));

	mul	DWORD PTR _v$[ebp]

; 243  :         return (_addcarryx_u32(carry, u, v, w));

	add	eax, DWORD PTR [ecx+12]

; 338  :         return (_FROMDWORDTOWORD((_UINT64_T)u * v, w_hi));

	mov	edi, edx

; 243  :         return (_addcarryx_u32(carry, u, v, w));

	mov	edx, 0
	adcx	edi, edx
	add	eax, esi
; File z:\sources\lunor\repos\rougemeilland\palmtree.math.core.uint\palmtree.math.core.uint\pmc_multiply.c

; 66   :     *wp = t_lo;

	mov	DWORD PTR [ecx+12], eax
; File z:\sources\lunor\repos\rougemeilland\palmtree.math.core.uint\palmtree.math.core.uint\pmc_inline_func.h

; 338  :         return (_FROMDWORDTOWORD((_UINT64_T)u * v, w_hi));

	mov	eax, DWORD PTR [ebx+16]

; 243  :         return (_addcarryx_u32(carry, u, v, w));

	adcx	edi, edx

; 338  :         return (_FROMDWORDTOWORD((_UINT64_T)u * v, w_hi));

	mul	DWORD PTR _v$[ebp]

; 243  :         return (_addcarryx_u32(carry, u, v, w));

	add	eax, DWORD PTR [ecx+16]

; 338  :         return (_FROMDWORDTOWORD((_UINT64_T)u * v, w_hi));

	mov	esi, edx

; 243  :         return (_addcarryx_u32(carry, u, v, w));

	mov	edx, 0
	adcx	esi, edx
	add	eax, edi
; File z:\sources\lunor\repos\rougemeilland\palmtree.math.core.uint\palmtree.math.core.uint\pmc_multiply.c

; 66   :     *wp = t_lo;

	mov	DWORD PTR [ecx+16], eax
; File z:\sources\lunor\repos\rougemeilland\palmtree.math.core.uint\palmtree.math.core.uint\pmc_inline_func.h

; 338  :         return (_FROMDWORDTOWORD((_UINT64_T)u * v, w_hi));

	mov	eax, DWORD PTR [ebx+20]

; 243  :         return (_addcarryx_u32(carry, u, v, w));

	adcx	esi, edx

; 338  :         return (_FROMDWORDTOWORD((_UINT64_T)u * v, w_hi));

	mul	DWORD PTR _v$[ebp]

; 243  :         return (_addcarryx_u32(carry, u, v, w));

	add	eax, DWORD PTR [ecx+20]

; 338  :         return (_FROMDWORDTOWORD((_UINT64_T)u * v, w_hi));

	mov	edi, edx

; 243  :         return (_addcarryx_u32(carry, u, v, w));

	mov	edx, 0
	adcx	edi, edx
	add	eax, esi
; File z:\sources\lunor\repos\rougemeilland\palmtree.math.core.uint\palmtree.math.core.uint\pmc_multiply.c

; 66   :     *wp = t_lo;

	mov	DWORD PTR [ecx+20], eax
; File z:\sources\lunor\repos\rougemeilland\palmtree.math.core.uint\palmtree.math.core.uint\pmc_inline_func.h

; 338  :         return (_FROMDWORDTOWORD((_UINT64_T)u * v, w_hi));

	mov	eax, DWORD PTR [ebx+24]

; 243  :         return (_addcarryx_u32(carry, u, v, w));

	adcx	edi, edx

; 338  :         return (_FROMDWORDTOWORD((_UINT64_T)u * v, w_hi));

	mul	DWORD PTR _v$[ebp]

; 243  :         return (_addcarryx_u32(carry, u, v, w));

	add	eax, DWORD PTR [ecx+24]

; 338  :         return (_FROMDWORDTOWORD((_UINT64_T)u * v, w_hi));

	mov	esi, edx

; 243  :         return (_addcarryx_u32(carry, u, v, w));

	mov	edx, 0
	adcx	esi, edx
	add	eax, edi
; File z:\sources\lunor\repos\rougemeilland\palmtree.math.core.uint\palmtree.math.core.uint\pmc_multiply.c

; 66   :     *wp = t_lo;

	mov	DWORD PTR [ecx+24], eax
; File z:\sources\lunor\repos\rougemeilland\palmtree.math.core.uint\palmtree.math.core.uint\pmc_inline_func.h

; 338  :         return (_FROMDWORDTOWORD((_UINT64_T)u * v, w_hi));

	mov	eax, DWORD PTR [ebx+28]

; 243  :         return (_addcarryx_u32(carry, u, v, w));

	adcx	esi, edx

; 338  :         return (_FROMDWORDTOWORD((_UINT64_T)u * v, w_hi));

	mul	DWORD PTR _v$[ebp]

; 243  :         return (_addcarryx_u32(carry, u, v, w));

	add	eax, DWORD PTR [ecx+28]

; 338  :         return (_FROMDWORDTOWORD((_UINT64_T)u * v, w_hi));

	mov	edi, edx

; 243  :         return (_addcarryx_u32(carry, u, v, w));

	mov	edx, 0
	adcx	edi, edx
	add	eax, esi
; File z:\sources\lunor\repos\rougemeilland\palmtree.math.core.uint\palmtree.math.core.uint\pmc_multiply.c

; 66   :     *wp = t_lo;

	mov	DWORD PTR [ecx+28], eax
; File z:\sources\lunor\repos\rougemeilland\palmtree.math.core.uint\palmtree.math.core.uint\pmc_inline_func.h

; 338  :         return (_FROMDWORDTOWORD((_UINT64_T)u * v, w_hi));

	mov	eax, DWORD PTR [ebx+32]

; 243  :         return (_addcarryx_u32(carry, u, v, w));

	adcx	edi, edx

; 338  :         return (_FROMDWORDTOWORD((_UINT64_T)u * v, w_hi));

	mul	DWORD PTR _v$[ebp]

; 243  :         return (_addcarryx_u32(carry, u, v, w));

	add	eax, DWORD PTR [ecx+32]

; 338  :         return (_FROMDWORDTOWORD((_UINT64_T)u * v, w_hi));

	mov	esi, edx

; 243  :         return (_addcarryx_u32(carry, u, v, w));

	mov	edx, 0
	adcx	esi, edx
	add	eax, edi
; File z:\sources\lunor\repos\rougemeilland\palmtree.math.core.uint\palmtree.math.core.uint\pmc_multiply.c

; 66   :     *wp = t_lo;

	mov	DWORD PTR [ecx+32], eax
; File z:\sources\lunor\repos\rougemeilland\palmtree.math.core.uint\palmtree.math.core.uint\pmc_inline_func.h

; 243  :         return (_addcarryx_u32(carry, u, v, w));

	adcx	esi, edx

; 338  :         return (_FROMDWORDTOWORD((_UINT64_T)u * v, w_hi));

	mov	eax, DWORD PTR [ebx+36]
	mul	DWORD PTR _v$[ebp]

; 243  :         return (_addcarryx_u32(carry, u, v, w));

	add	eax, DWORD PTR [ecx+36]

; 338  :         return (_FROMDWORDTOWORD((_UINT64_T)u * v, w_hi));

	mov	edi, edx

; 243  :         return (_addcarryx_u32(carry, u, v, w));

	mov	edx, 0
	adcx	edi, edx
	add	eax, esi
; File z:\sources\lunor\repos\rougemeilland\palmtree.math.core.uint\palmtree.math.core.uint\pmc_multiply.c

; 66   :     *wp = t_lo;

	mov	DWORD PTR [ecx+36], eax
; File z:\sources\lunor\repos\rougemeilland\palmtree.math.core.uint\palmtree.math.core.uint\pmc_inline_func.h

; 243  :         return (_addcarryx_u32(carry, u, v, w));

	adcx	edi, edx

; 338  :         return (_FROMDWORDTOWORD((_UINT64_T)u * v, w_hi));

	mov	eax, DWORD PTR [ebx+40]
	mul	DWORD PTR _v$[ebp]

; 243  :         return (_addcarryx_u32(carry, u, v, w));

	add	eax, DWORD PTR [ecx+40]

; 338  :         return (_FROMDWORDTOWORD((_UINT64_T)u * v, w_hi));

	mov	esi, edx

; 243  :         return (_addcarryx_u32(carry, u, v, w));

	mov	edx, 0
	adcx	esi, edx
	add	eax, edi
; File z:\sources\lunor\repos\rougemeilland\palmtree.math.core.uint\palmtree.math.core.uint\pmc_multiply.c

; 66   :     *wp = t_lo;

	mov	DWORD PTR [ecx+40], eax
; File z:\sources\lunor\repos\rougemeilland\palmtree.math.core.uint\palmtree.math.core.uint\pmc_inline_func.h

; 338  :         return (_FROMDWORDTOWORD((_UINT64_T)u * v, w_hi));

	mov	eax, DWORD PTR [ebx+44]

; 243  :         return (_addcarryx_u32(carry, u, v, w));

	adcx	esi, edx

; 338  :         return (_FROMDWORDTOWORD((_UINT64_T)u * v, w_hi));

	mul	DWORD PTR _v$[ebp]

; 243  :         return (_addcarryx_u32(carry, u, v, w));

	add	eax, DWORD PTR [ecx+44]

; 338  :         return (_FROMDWORDTOWORD((_UINT64_T)u * v, w_hi));

	mov	edi, edx

; 243  :         return (_addcarryx_u32(carry, u, v, w));

	mov	edx, 0
	adcx	edi, edx
	add	eax, esi
; File z:\sources\lunor\repos\rougemeilland\palmtree.math.core.uint\palmtree.math.core.uint\pmc_multiply.c

; 66   :     *wp = t_lo;

	mov	DWORD PTR [ecx+44], eax
; File z:\sources\lunor\repos\rougemeilland\palmtree.math.core.uint\palmtree.math.core.uint\pmc_inline_func.h

; 338  :         return (_FROMDWORDTOWORD((_UINT64_T)u * v, w_hi));

	mov	eax, DWORD PTR [ebx+48]

; 243  :         return (_addcarryx_u32(carry, u, v, w));

	adcx	edi, edx

; 338  :         return (_FROMDWORDTOWORD((_UINT64_T)u * v, w_hi));

	mul	DWORD PTR _v$[ebp]

; 243  :         return (_addcarryx_u32(carry, u, v, w));

	add	eax, DWORD PTR [ecx+48]

; 338  :         return (_FROMDWORDTOWORD((_UINT64_T)u * v, w_hi));

	mov	esi, edx

; 243  :         return (_addcarryx_u32(carry, u, v, w));

	mov	edx, 0
	adcx	esi, edx
	add	eax, edi
; File z:\sources\lunor\repos\rougemeilland\palmtree.math.core.uint\palmtree.math.core.uint\pmc_multiply.c

; 66   :     *wp = t_lo;

	mov	DWORD PTR [ecx+48], eax
; File z:\sources\lunor\repos\rougemeilland\palmtree.math.core.uint\palmtree.math.core.uint\pmc_inline_func.h

; 338  :         return (_FROMDWORDTOWORD((_UINT64_T)u * v, w_hi));

	mov	eax, DWORD PTR [ebx+52]

; 243  :         return (_addcarryx_u32(carry, u, v, w));

	adcx	esi, edx

; 338  :         return (_FROMDWORDTOWORD((_UINT64_T)u * v, w_hi));

	mul	DWORD PTR _v$[ebp]

; 243  :         return (_addcarryx_u32(carry, u, v, w));

	add	eax, DWORD PTR [ecx+52]

; 338  :         return (_FROMDWORDTOWORD((_UINT64_T)u * v, w_hi));

	mov	edi, edx

; 243  :         return (_addcarryx_u32(carry, u, v, w));

	mov	edx, 0
	adcx	edi, edx
	add	eax, esi
; File z:\sources\lunor\repos\rougemeilland\palmtree.math.core.uint\palmtree.math.core.uint\pmc_multiply.c

; 66   :     *wp = t_lo;

	mov	DWORD PTR [ecx+52], eax
; File z:\sources\lunor\repos\rougemeilland\palmtree.math.core.uint\palmtree.math.core.uint\pmc_inline_func.h

; 338  :         return (_FROMDWORDTOWORD((_UINT64_T)u * v, w_hi));

	mov	eax, DWORD PTR [ebx+56]

; 243  :         return (_addcarryx_u32(carry, u, v, w));

	adcx	edi, edx

; 338  :         return (_FROMDWORDTOWORD((_UINT64_T)u * v, w_hi));

	mul	DWORD PTR _v$[ebp]

; 243  :         return (_addcarryx_u32(carry, u, v, w));

	add	eax, DWORD PTR [ecx+56]

; 338  :         return (_FROMDWORDTOWORD((_UINT64_T)u * v, w_hi));

	mov	esi, edx

; 243  :         return (_addcarryx_u32(carry, u, v, w));

	mov	edx, 0
	adcx	esi, edx
	add	eax, edi
; File z:\sources\lunor\repos\rougemeilland\palmtree.math.core.uint\palmtree.math.core.uint\pmc_multiply.c

; 66   :     *wp = t_lo;

	mov	DWORD PTR [ecx+56], eax
; File z:\sources\lunor\repos\rougemeilland\palmtree.math.core.uint\palmtree.math.core.uint\pmc_inline_func.h

; 338  :         return (_FROMDWORDTOWORD((_UINT64_T)u * v, w_hi));

	mov	eax, DWORD PTR [ebx+60]

; 243  :         return (_addcarryx_u32(carry, u, v, w));

	adcx	esi, edx

; 338  :         return (_FROMDWORDTOWORD((_UINT64_T)u * v, w_hi));

	mul	DWORD PTR _v$[ebp]

; 243  :         return (_addcarryx_u32(carry, u, v, w));

	add	eax, DWORD PTR [ecx+60]

; 338  :         return (_FROMDWORDTOWORD((_UINT64_T)u * v, w_hi));

	mov	edi, edx

; 243  :         return (_addcarryx_u32(carry, u, v, w));

	mov	edx, 0
	adcx	edi, edx
	add	eax, esi
; File z:\sources\lunor\repos\rougemeilland\palmtree.math.core.uint\palmtree.math.core.uint\pmc_multiply.c

; 66   :     *wp = t_lo;

	mov	DWORD PTR [ecx+60], eax
; File z:\sources\lunor\repos\rougemeilland\palmtree.math.core.uint\palmtree.math.core.uint\pmc_uint_internal.h

; 352  :         _InterlockedExchangeAdd(&statistics_info.COUNT_MULTI32, value);

	mov	eax, 16					; 00000010H
; File z:\sources\lunor\repos\rougemeilland\palmtree.math.core.uint\palmtree.math.core.uint\pmc_inline_func.h

; 243  :         return (_addcarryx_u32(carry, u, v, w));

	adcx	edi, edx
; File z:\sources\lunor\repos\rougemeilland\palmtree.math.core.uint\palmtree.math.core.uint\pmc_multiply.c

; 286  :         up += 16;

	add	ebx, 64					; 00000040H

; 287  :         wp += 16;

	add	ecx, 64					; 00000040H
; File z:\sources\lunor\repos\rougemeilland\palmtree.math.core.uint\palmtree.math.core.uint\pmc_uint_internal.h

; 352  :         _InterlockedExchangeAdd(&statistics_info.COUNT_MULTI32, value);

	mov	edx, OFFSET _statistics_info+4
	lock	 xadd	 DWORD PTR [edx], eax
	mov	eax, DWORD PTR _u_count$[ebp]
$LN701@Multiply_W:
; File z:\sources\lunor\repos\rougemeilland\palmtree.math.core.uint\palmtree.math.core.uint\pmc_multiply.c

; 296  :     if (u_count & 0x8)

	test	al, 8
	je	$LN817@Multiply_W
; File z:\sources\lunor\repos\rougemeilland\palmtree.math.core.uint\palmtree.math.core.uint\pmc_inline_func.h

; 338  :         return (_FROMDWORDTOWORD((_UINT64_T)u * v, w_hi));

	mov	eax, DWORD PTR [ebx]
	mul	DWORD PTR _v$[ebp]

; 243  :         return (_addcarryx_u32(carry, u, v, w));

	add	eax, DWORD PTR [ecx]

; 338  :         return (_FROMDWORDTOWORD((_UINT64_T)u * v, w_hi));

	mov	esi, edx

; 243  :         return (_addcarryx_u32(carry, u, v, w));

	mov	edx, 0
	adcx	esi, edx
	add	eax, edi
; File z:\sources\lunor\repos\rougemeilland\palmtree.math.core.uint\palmtree.math.core.uint\pmc_multiply.c

; 66   :     *wp = t_lo;

	mov	DWORD PTR [ecx], eax
; File z:\sources\lunor\repos\rougemeilland\palmtree.math.core.uint\palmtree.math.core.uint\pmc_inline_func.h

; 243  :         return (_addcarryx_u32(carry, u, v, w));

	adcx	esi, edx

; 338  :         return (_FROMDWORDTOWORD((_UINT64_T)u * v, w_hi));

	mov	eax, DWORD PTR [ebx+4]
	mul	DWORD PTR _v$[ebp]

; 243  :         return (_addcarryx_u32(carry, u, v, w));

	add	eax, DWORD PTR [ecx+4]

; 338  :         return (_FROMDWORDTOWORD((_UINT64_T)u * v, w_hi));

	mov	edi, edx

; 243  :         return (_addcarryx_u32(carry, u, v, w));

	mov	edx, 0
	adcx	edi, edx
	add	eax, esi
; File z:\sources\lunor\repos\rougemeilland\palmtree.math.core.uint\palmtree.math.core.uint\pmc_multiply.c

; 66   :     *wp = t_lo;

	mov	DWORD PTR [ecx+4], eax
; File z:\sources\lunor\repos\rougemeilland\palmtree.math.core.uint\palmtree.math.core.uint\pmc_inline_func.h

; 243  :         return (_addcarryx_u32(carry, u, v, w));

	adcx	edi, edx

; 338  :         return (_FROMDWORDTOWORD((_UINT64_T)u * v, w_hi));

	mov	eax, DWORD PTR [ebx+8]
	mul	DWORD PTR _v$[ebp]

; 243  :         return (_addcarryx_u32(carry, u, v, w));

	add	eax, DWORD PTR [ecx+8]

; 338  :         return (_FROMDWORDTOWORD((_UINT64_T)u * v, w_hi));

	mov	esi, edx

; 243  :         return (_addcarryx_u32(carry, u, v, w));

	mov	edx, 0
	adcx	esi, edx
	add	eax, edi
; File z:\sources\lunor\repos\rougemeilland\palmtree.math.core.uint\palmtree.math.core.uint\pmc_multiply.c

; 66   :     *wp = t_lo;

	mov	DWORD PTR [ecx+8], eax
; File z:\sources\lunor\repos\rougemeilland\palmtree.math.core.uint\palmtree.math.core.uint\pmc_inline_func.h

; 338  :         return (_FROMDWORDTOWORD((_UINT64_T)u * v, w_hi));

	mov	eax, DWORD PTR [ebx+12]

; 243  :         return (_addcarryx_u32(carry, u, v, w));

	adcx	esi, edx

; 338  :         return (_FROMDWORDTOWORD((_UINT64_T)u * v, w_hi));

	mul	DWORD PTR _v$[ebp]

; 243  :         return (_addcarryx_u32(carry, u, v, w));

	add	eax, DWORD PTR [ecx+12]

; 338  :         return (_FROMDWORDTOWORD((_UINT64_T)u * v, w_hi));

	mov	edi, edx

; 243  :         return (_addcarryx_u32(carry, u, v, w));

	mov	edx, 0
	adcx	edi, edx
	add	eax, esi
; File z:\sources\lunor\repos\rougemeilland\palmtree.math.core.uint\palmtree.math.core.uint\pmc_multiply.c

; 66   :     *wp = t_lo;

	mov	DWORD PTR [ecx+12], eax
; File z:\sources\lunor\repos\rougemeilland\palmtree.math.core.uint\palmtree.math.core.uint\pmc_inline_func.h

; 338  :         return (_FROMDWORDTOWORD((_UINT64_T)u * v, w_hi));

	mov	eax, DWORD PTR [ebx+16]

; 243  :         return (_addcarryx_u32(carry, u, v, w));

	adcx	edi, edx

; 338  :         return (_FROMDWORDTOWORD((_UINT64_T)u * v, w_hi));

	mul	DWORD PTR _v$[ebp]

; 243  :         return (_addcarryx_u32(carry, u, v, w));

	add	eax, DWORD PTR [ecx+16]

; 338  :         return (_FROMDWORDTOWORD((_UINT64_T)u * v, w_hi));

	mov	esi, edx

; 243  :         return (_addcarryx_u32(carry, u, v, w));

	mov	edx, 0
	adcx	esi, edx
	add	eax, edi
; File z:\sources\lunor\repos\rougemeilland\palmtree.math.core.uint\palmtree.math.core.uint\pmc_multiply.c

; 66   :     *wp = t_lo;

	mov	DWORD PTR [ecx+16], eax
; File z:\sources\lunor\repos\rougemeilland\palmtree.math.core.uint\palmtree.math.core.uint\pmc_inline_func.h

; 338  :         return (_FROMDWORDTOWORD((_UINT64_T)u * v, w_hi));

	mov	eax, DWORD PTR [ebx+20]

; 243  :         return (_addcarryx_u32(carry, u, v, w));

	adcx	esi, edx

; 338  :         return (_FROMDWORDTOWORD((_UINT64_T)u * v, w_hi));

	mul	DWORD PTR _v$[ebp]

; 243  :         return (_addcarryx_u32(carry, u, v, w));

	add	eax, DWORD PTR [ecx+20]

; 338  :         return (_FROMDWORDTOWORD((_UINT64_T)u * v, w_hi));

	mov	edi, edx

; 243  :         return (_addcarryx_u32(carry, u, v, w));

	mov	edx, 0
	adcx	edi, edx
	add	eax, esi
; File z:\sources\lunor\repos\rougemeilland\palmtree.math.core.uint\palmtree.math.core.uint\pmc_multiply.c

; 66   :     *wp = t_lo;

	mov	DWORD PTR [ecx+20], eax
; File z:\sources\lunor\repos\rougemeilland\palmtree.math.core.uint\palmtree.math.core.uint\pmc_inline_func.h

; 338  :         return (_FROMDWORDTOWORD((_UINT64_T)u * v, w_hi));

	mov	eax, DWORD PTR [ebx+24]

; 243  :         return (_addcarryx_u32(carry, u, v, w));

	adcx	edi, edx

; 338  :         return (_FROMDWORDTOWORD((_UINT64_T)u * v, w_hi));

	mul	DWORD PTR _v$[ebp]

; 243  :         return (_addcarryx_u32(carry, u, v, w));

	add	eax, DWORD PTR [ecx+24]

; 338  :         return (_FROMDWORDTOWORD((_UINT64_T)u * v, w_hi));

	mov	esi, edx

; 243  :         return (_addcarryx_u32(carry, u, v, w));

	mov	edx, 0
	adcx	esi, edx
	add	eax, edi
; File z:\sources\lunor\repos\rougemeilland\palmtree.math.core.uint\palmtree.math.core.uint\pmc_multiply.c

; 66   :     *wp = t_lo;

	mov	DWORD PTR [ecx+24], eax
; File z:\sources\lunor\repos\rougemeilland\palmtree.math.core.uint\palmtree.math.core.uint\pmc_inline_func.h

; 338  :         return (_FROMDWORDTOWORD((_UINT64_T)u * v, w_hi));

	mov	eax, DWORD PTR [ebx+28]

; 243  :         return (_addcarryx_u32(carry, u, v, w));

	adcx	esi, edx

; 338  :         return (_FROMDWORDTOWORD((_UINT64_T)u * v, w_hi));

	mul	DWORD PTR _v$[ebp]

; 243  :         return (_addcarryx_u32(carry, u, v, w));

	add	eax, DWORD PTR [ecx+28]

; 338  :         return (_FROMDWORDTOWORD((_UINT64_T)u * v, w_hi));

	mov	edi, edx

; 243  :         return (_addcarryx_u32(carry, u, v, w));

	mov	edx, 0
	adcx	edi, edx
	add	eax, esi
; File z:\sources\lunor\repos\rougemeilland\palmtree.math.core.uint\palmtree.math.core.uint\pmc_multiply.c

; 66   :     *wp = t_lo;

	mov	DWORD PTR [ecx+28], eax
; File z:\sources\lunor\repos\rougemeilland\palmtree.math.core.uint\palmtree.math.core.uint\pmc_uint_internal.h

; 352  :         _InterlockedExchangeAdd(&statistics_info.COUNT_MULTI32, value);

	mov	eax, 8
; File z:\sources\lunor\repos\rougemeilland\palmtree.math.core.uint\palmtree.math.core.uint\pmc_inline_func.h

; 243  :         return (_addcarryx_u32(carry, u, v, w));

	adcx	edi, edx
; File z:\sources\lunor\repos\rougemeilland\palmtree.math.core.uint\palmtree.math.core.uint\pmc_multiply.c

; 306  :         up += 8;

	add	ebx, 32					; 00000020H

; 307  :         wp += 8;

	add	ecx, 32					; 00000020H
; File z:\sources\lunor\repos\rougemeilland\palmtree.math.core.uint\palmtree.math.core.uint\pmc_uint_internal.h

; 352  :         _InterlockedExchangeAdd(&statistics_info.COUNT_MULTI32, value);

	mov	edx, OFFSET _statistics_info+4
	lock	 xadd	 DWORD PTR [edx], eax
	mov	eax, DWORD PTR _u_count$[ebp]
$LN817@Multiply_W:
; File z:\sources\lunor\repos\rougemeilland\palmtree.math.core.uint\palmtree.math.core.uint\pmc_multiply.c

; 316  :     if (u_count & 0x4)

	test	al, 4
	je	$LN877@Multiply_W
; File z:\sources\lunor\repos\rougemeilland\palmtree.math.core.uint\palmtree.math.core.uint\pmc_inline_func.h

; 338  :         return (_FROMDWORDTOWORD((_UINT64_T)u * v, w_hi));

	mov	eax, DWORD PTR [ebx]
	mul	DWORD PTR _v$[ebp]

; 243  :         return (_addcarryx_u32(carry, u, v, w));

	add	eax, DWORD PTR [ecx]

; 338  :         return (_FROMDWORDTOWORD((_UINT64_T)u * v, w_hi));

	mov	esi, edx

; 243  :         return (_addcarryx_u32(carry, u, v, w));

	mov	edx, 0
	adcx	esi, edx
	add	eax, edi
; File z:\sources\lunor\repos\rougemeilland\palmtree.math.core.uint\palmtree.math.core.uint\pmc_multiply.c

; 66   :     *wp = t_lo;

	mov	DWORD PTR [ecx], eax
; File z:\sources\lunor\repos\rougemeilland\palmtree.math.core.uint\palmtree.math.core.uint\pmc_inline_func.h

; 338  :         return (_FROMDWORDTOWORD((_UINT64_T)u * v, w_hi));

	mov	eax, DWORD PTR [ebx+4]

; 243  :         return (_addcarryx_u32(carry, u, v, w));

	adcx	esi, edx

; 338  :         return (_FROMDWORDTOWORD((_UINT64_T)u * v, w_hi));

	mul	DWORD PTR _v$[ebp]

; 243  :         return (_addcarryx_u32(carry, u, v, w));

	add	eax, DWORD PTR [ecx+4]

; 338  :         return (_FROMDWORDTOWORD((_UINT64_T)u * v, w_hi));

	mov	edi, edx

; 243  :         return (_addcarryx_u32(carry, u, v, w));

	mov	edx, 0
	adcx	edi, edx
	add	eax, esi
; File z:\sources\lunor\repos\rougemeilland\palmtree.math.core.uint\palmtree.math.core.uint\pmc_multiply.c

; 66   :     *wp = t_lo;

	mov	DWORD PTR [ecx+4], eax
; File z:\sources\lunor\repos\rougemeilland\palmtree.math.core.uint\palmtree.math.core.uint\pmc_inline_func.h

; 338  :         return (_FROMDWORDTOWORD((_UINT64_T)u * v, w_hi));

	mov	eax, DWORD PTR [ebx+8]

; 243  :         return (_addcarryx_u32(carry, u, v, w));

	adcx	edi, edx

; 338  :         return (_FROMDWORDTOWORD((_UINT64_T)u * v, w_hi));

	mul	DWORD PTR _v$[ebp]

; 243  :         return (_addcarryx_u32(carry, u, v, w));

	add	eax, DWORD PTR [ecx+8]

; 338  :         return (_FROMDWORDTOWORD((_UINT64_T)u * v, w_hi));

	mov	esi, edx

; 243  :         return (_addcarryx_u32(carry, u, v, w));

	mov	edx, 0
	adcx	esi, edx
	add	eax, edi
; File z:\sources\lunor\repos\rougemeilland\palmtree.math.core.uint\palmtree.math.core.uint\pmc_multiply.c

; 66   :     *wp = t_lo;

	mov	DWORD PTR [ecx+8], eax
; File z:\sources\lunor\repos\rougemeilland\palmtree.math.core.uint\palmtree.math.core.uint\pmc_inline_func.h

; 338  :         return (_FROMDWORDTOWORD((_UINT64_T)u * v, w_hi));

	mov	eax, DWORD PTR [ebx+12]

; 243  :         return (_addcarryx_u32(carry, u, v, w));

	adcx	esi, edx

; 338  :         return (_FROMDWORDTOWORD((_UINT64_T)u * v, w_hi));

	mul	DWORD PTR _v$[ebp]

; 243  :         return (_addcarryx_u32(carry, u, v, w));

	add	eax, DWORD PTR [ecx+12]

; 338  :         return (_FROMDWORDTOWORD((_UINT64_T)u * v, w_hi));

	mov	edi, edx

; 243  :         return (_addcarryx_u32(carry, u, v, w));

	mov	edx, 0
	adcx	edi, edx
	add	eax, esi
; File z:\sources\lunor\repos\rougemeilland\palmtree.math.core.uint\palmtree.math.core.uint\pmc_multiply.c

; 66   :     *wp = t_lo;

	mov	DWORD PTR [ecx+12], eax
; File z:\sources\lunor\repos\rougemeilland\palmtree.math.core.uint\palmtree.math.core.uint\pmc_uint_internal.h

; 352  :         _InterlockedExchangeAdd(&statistics_info.COUNT_MULTI32, value);

	mov	eax, 4
; File z:\sources\lunor\repos\rougemeilland\palmtree.math.core.uint\palmtree.math.core.uint\pmc_inline_func.h

; 243  :         return (_addcarryx_u32(carry, u, v, w));

	adcx	edi, edx
; File z:\sources\lunor\repos\rougemeilland\palmtree.math.core.uint\palmtree.math.core.uint\pmc_multiply.c

; 322  :         up += 4;

	add	ebx, 16					; 00000010H

; 323  :         wp += 4;

	add	ecx, 16					; 00000010H
; File z:\sources\lunor\repos\rougemeilland\palmtree.math.core.uint\palmtree.math.core.uint\pmc_uint_internal.h

; 352  :         _InterlockedExchangeAdd(&statistics_info.COUNT_MULTI32, value);

	mov	edx, OFFSET _statistics_info+4
	lock	 xadd	 DWORD PTR [edx], eax
	mov	eax, DWORD PTR _u_count$[ebp]
$LN877@Multiply_W:
; File z:\sources\lunor\repos\rougemeilland\palmtree.math.core.uint\palmtree.math.core.uint\pmc_multiply.c

; 332  :     if (u_count & 0x2)

	test	al, 2
	je	SHORT $LN909@Multiply_W
; File z:\sources\lunor\repos\rougemeilland\palmtree.math.core.uint\palmtree.math.core.uint\pmc_inline_func.h

; 338  :         return (_FROMDWORDTOWORD((_UINT64_T)u * v, w_hi));

	mov	eax, DWORD PTR [ebx]
	mul	DWORD PTR _v$[ebp]

; 243  :         return (_addcarryx_u32(carry, u, v, w));

	add	eax, DWORD PTR [ecx]

; 338  :         return (_FROMDWORDTOWORD((_UINT64_T)u * v, w_hi));

	mov	esi, edx

; 243  :         return (_addcarryx_u32(carry, u, v, w));

	mov	edx, 0
	adcx	esi, edx
	add	eax, edi
; File z:\sources\lunor\repos\rougemeilland\palmtree.math.core.uint\palmtree.math.core.uint\pmc_multiply.c

; 66   :     *wp = t_lo;

	mov	DWORD PTR [ecx], eax
; File z:\sources\lunor\repos\rougemeilland\palmtree.math.core.uint\palmtree.math.core.uint\pmc_inline_func.h

; 338  :         return (_FROMDWORDTOWORD((_UINT64_T)u * v, w_hi));

	mov	eax, DWORD PTR [ebx+4]

; 243  :         return (_addcarryx_u32(carry, u, v, w));

	adcx	esi, edx

; 338  :         return (_FROMDWORDTOWORD((_UINT64_T)u * v, w_hi));

	mul	DWORD PTR _v$[ebp]

; 243  :         return (_addcarryx_u32(carry, u, v, w));

	add	eax, DWORD PTR [ecx+4]

; 338  :         return (_FROMDWORDTOWORD((_UINT64_T)u * v, w_hi));

	mov	edi, edx

; 243  :         return (_addcarryx_u32(carry, u, v, w));

	mov	edx, 0
	adcx	edi, edx
	add	eax, esi
; File z:\sources\lunor\repos\rougemeilland\palmtree.math.core.uint\palmtree.math.core.uint\pmc_multiply.c

; 66   :     *wp = t_lo;

	mov	DWORD PTR [ecx+4], eax
; File z:\sources\lunor\repos\rougemeilland\palmtree.math.core.uint\palmtree.math.core.uint\pmc_uint_internal.h

; 352  :         _InterlockedExchangeAdd(&statistics_info.COUNT_MULTI32, value);

	mov	eax, OFFSET _statistics_info+4
; File z:\sources\lunor\repos\rougemeilland\palmtree.math.core.uint\palmtree.math.core.uint\pmc_inline_func.h

; 243  :         return (_addcarryx_u32(carry, u, v, w));

	adcx	edi, edx
; File z:\sources\lunor\repos\rougemeilland\palmtree.math.core.uint\palmtree.math.core.uint\pmc_multiply.c

; 336  :         up += 2;

	add	ebx, 8

; 337  :         wp += 2;

	add	ecx, 8
; File z:\sources\lunor\repos\rougemeilland\palmtree.math.core.uint\palmtree.math.core.uint\pmc_uint_internal.h

; 352  :         _InterlockedExchangeAdd(&statistics_info.COUNT_MULTI32, value);

	mov	edx, 2
	lock	 xadd	 DWORD PTR [eax], edx
	mov	eax, DWORD PTR _u_count$[ebp]
$LN909@Multiply_W:
; File z:\sources\lunor\repos\rougemeilland\palmtree.math.core.uint\palmtree.math.core.uint\pmc_multiply.c

; 346  :     if (u_count & 0x1)

	test	al, 1
	je	SHORT $LN927@Multiply_W
; File z:\sources\lunor\repos\rougemeilland\palmtree.math.core.uint\palmtree.math.core.uint\pmc_inline_func.h

; 338  :         return (_FROMDWORDTOWORD((_UINT64_T)u * v, w_hi));

	mov	eax, DWORD PTR [ebx]

; 243  :         return (_addcarryx_u32(carry, u, v, w));

	mov	esi, 0

; 338  :         return (_FROMDWORDTOWORD((_UINT64_T)u * v, w_hi));

	mul	DWORD PTR _v$[ebp]

; 243  :         return (_addcarryx_u32(carry, u, v, w));

	add	eax, DWORD PTR [ecx]
	adcx	edx, esi
	add	eax, edi
	mov	edi, edx
; File z:\sources\lunor\repos\rougemeilland\palmtree.math.core.uint\palmtree.math.core.uint\pmc_multiply.c

; 66   :     *wp = t_lo;

	mov	DWORD PTR [ecx], eax
; File z:\sources\lunor\repos\rougemeilland\palmtree.math.core.uint\palmtree.math.core.uint\pmc_inline_func.h

; 243  :         return (_addcarryx_u32(carry, u, v, w));

	adcx	edi, esi
; File z:\sources\lunor\repos\rougemeilland\palmtree.math.core.uint\palmtree.math.core.uint\pmc_multiply.c

; 350  :         wp += 1;

	add	ecx, 4
; File z:\sources\lunor\repos\rougemeilland\palmtree.math.core.uint\palmtree.math.core.uint\pmc_uint_internal.h

; 329  :         _InterlockedIncrement(&statistics_info.COUNT_MULTI32);

	lock	 inc	 (null) PTR _statistics_info+4
$LN927@Multiply_W:
; File z:\sources\lunor\repos\rougemeilland\palmtree.math.core.uint\palmtree.math.core.uint\pmc_multiply.c

; 359  :     if (k != 0)

	xor	eax, eax
	test	edi, edi
	je	SHORT $LN21@Multiply_W

; 360  :         *wp = k;

	mov	DWORD PTR [ecx], edi
$LN21@Multiply_W:
	pop	edi

; 361  : 
; 362  :     return (PMC_STATUS_OK);
; 363  : }

	pop	esi
	pop	ebx
	mov	esp, ebp
	pop	ebp
	ret	0
_Multiply_WORD_using_MULX_ADCX ENDP
_TEXT	ENDS
; Function compile flags: /Ogtp
; File z:\sources\lunor\repos\rougemeilland\palmtree.math.core.uint\palmtree.math.core.uint\pmc_multiply.c
; File z:\sources\lunor\repos\rougemeilland\palmtree.math.core.uint\palmtree.math.core.uint\pmc_inline_func.h
; File z:\sources\lunor\repos\rougemeilland\palmtree.math.core.uint\palmtree.math.core.uint\pmc_multiply.c
; File z:\sources\lunor\repos\rougemeilland\palmtree.math.core.uint\palmtree.math.core.uint\pmc_inline_func.h
; File z:\sources\lunor\repos\rougemeilland\palmtree.math.core.uint\palmtree.math.core.uint\pmc_multiply.c
; File z:\sources\lunor\repos\rougemeilland\palmtree.math.core.uint\palmtree.math.core.uint\pmc_inline_func.h
; File z:\sources\lunor\repos\rougemeilland\palmtree.math.core.uint\palmtree.math.core.uint\pmc_multiply.c
; File z:\sources\lunor\repos\rougemeilland\palmtree.math.core.uint\palmtree.math.core.uint\pmc_inline_func.h
; File z:\sources\lunor\repos\rougemeilland\palmtree.math.core.uint\palmtree.math.core.uint\pmc_multiply.c
; File z:\sources\lunor\repos\rougemeilland\palmtree.math.core.uint\palmtree.math.core.uint\pmc_inline_func.h
; File z:\sources\lunor\repos\rougemeilland\palmtree.math.core.uint\palmtree.math.core.uint\pmc_multiply.c
; File z:\sources\lunor\repos\rougemeilland\palmtree.math.core.uint\palmtree.math.core.uint\pmc_inline_func.h
; File z:\sources\lunor\repos\rougemeilland\palmtree.math.core.uint\palmtree.math.core.uint\pmc_multiply.c
; File z:\sources\lunor\repos\rougemeilland\palmtree.math.core.uint\palmtree.math.core.uint\pmc_inline_func.h
; File z:\sources\lunor\repos\rougemeilland\palmtree.math.core.uint\palmtree.math.core.uint\pmc_multiply.c
; File z:\sources\lunor\repos\rougemeilland\palmtree.math.core.uint\palmtree.math.core.uint\pmc_inline_func.h
; File z:\sources\lunor\repos\rougemeilland\palmtree.math.core.uint\palmtree.math.core.uint\pmc_multiply.c
; File z:\sources\lunor\repos\rougemeilland\palmtree.math.core.uint\palmtree.math.core.uint\pmc_inline_func.h
; File z:\sources\lunor\repos\rougemeilland\palmtree.math.core.uint\palmtree.math.core.uint\pmc_multiply.c
; File z:\sources\lunor\repos\rougemeilland\palmtree.math.core.uint\palmtree.math.core.uint\pmc_inline_func.h
; File z:\sources\lunor\repos\rougemeilland\palmtree.math.core.uint\palmtree.math.core.uint\pmc_multiply.c
; File z:\sources\lunor\repos\rougemeilland\palmtree.math.core.uint\palmtree.math.core.uint\pmc_inline_func.h
; File z:\sources\lunor\repos\rougemeilland\palmtree.math.core.uint\palmtree.math.core.uint\pmc_multiply.c
; File z:\sources\lunor\repos\rougemeilland\palmtree.math.core.uint\palmtree.math.core.uint\pmc_inline_func.h
; File z:\sources\lunor\repos\rougemeilland\palmtree.math.core.uint\palmtree.math.core.uint\pmc_multiply.c
; File z:\sources\lunor\repos\rougemeilland\palmtree.math.core.uint\palmtree.math.core.uint\pmc_inline_func.h
; File z:\sources\lunor\repos\rougemeilland\palmtree.math.core.uint\palmtree.math.core.uint\pmc_multiply.c
; File z:\sources\lunor\repos\rougemeilland\palmtree.math.core.uint\palmtree.math.core.uint\pmc_inline_func.h
; File z:\sources\lunor\repos\rougemeilland\palmtree.math.core.uint\palmtree.math.core.uint\pmc_multiply.c
; File z:\sources\lunor\repos\rougemeilland\palmtree.math.core.uint\palmtree.math.core.uint\pmc_inline_func.h
; File z:\sources\lunor\repos\rougemeilland\palmtree.math.core.uint\palmtree.math.core.uint\pmc_multiply.c
; File z:\sources\lunor\repos\rougemeilland\palmtree.math.core.uint\palmtree.math.core.uint\pmc_inline_func.h
; File z:\sources\lunor\repos\rougemeilland\palmtree.math.core.uint\palmtree.math.core.uint\pmc_multiply.c
; File z:\sources\lunor\repos\rougemeilland\palmtree.math.core.uint\palmtree.math.core.uint\pmc_inline_func.h
; File z:\sources\lunor\repos\rougemeilland\palmtree.math.core.uint\palmtree.math.core.uint\pmc_multiply.c
; File z:\sources\lunor\repos\rougemeilland\palmtree.math.core.uint\palmtree.math.core.uint\pmc_inline_func.h
; File z:\sources\lunor\repos\rougemeilland\palmtree.math.core.uint\palmtree.math.core.uint\pmc_multiply.c
; File z:\sources\lunor\repos\rougemeilland\palmtree.math.core.uint\palmtree.math.core.uint\pmc_inline_func.h
; File z:\sources\lunor\repos\rougemeilland\palmtree.math.core.uint\palmtree.math.core.uint\pmc_multiply.c
; File z:\sources\lunor\repos\rougemeilland\palmtree.math.core.uint\palmtree.math.core.uint\pmc_inline_func.h
; File z:\sources\lunor\repos\rougemeilland\palmtree.math.core.uint\palmtree.math.core.uint\pmc_multiply.c
; File z:\sources\lunor\repos\rougemeilland\palmtree.math.core.uint\palmtree.math.core.uint\pmc_inline_func.h
; File z:\sources\lunor\repos\rougemeilland\palmtree.math.core.uint\palmtree.math.core.uint\pmc_multiply.c
; File z:\sources\lunor\repos\rougemeilland\palmtree.math.core.uint\palmtree.math.core.uint\pmc_inline_func.h
; File z:\sources\lunor\repos\rougemeilland\palmtree.math.core.uint\palmtree.math.core.uint\pmc_multiply.c
; File z:\sources\lunor\repos\rougemeilland\palmtree.math.core.uint\palmtree.math.core.uint\pmc_inline_func.h
; File z:\sources\lunor\repos\rougemeilland\palmtree.math.core.uint\palmtree.math.core.uint\pmc_multiply.c
; File z:\sources\lunor\repos\rougemeilland\palmtree.math.core.uint\palmtree.math.core.uint\pmc_inline_func.h
; File z:\sources\lunor\repos\rougemeilland\palmtree.math.core.uint\palmtree.math.core.uint\pmc_multiply.c
; File z:\sources\lunor\repos\rougemeilland\palmtree.math.core.uint\palmtree.math.core.uint\pmc_inline_func.h
; File z:\sources\lunor\repos\rougemeilland\palmtree.math.core.uint\palmtree.math.core.uint\pmc_multiply.c
; File z:\sources\lunor\repos\rougemeilland\palmtree.math.core.uint\palmtree.math.core.uint\pmc_inline_func.h
; File z:\sources\lunor\repos\rougemeilland\palmtree.math.core.uint\palmtree.math.core.uint\pmc_multiply.c
; File z:\sources\lunor\repos\rougemeilland\palmtree.math.core.uint\palmtree.math.core.uint\pmc_inline_func.h
; File z:\sources\lunor\repos\rougemeilland\palmtree.math.core.uint\palmtree.math.core.uint\pmc_multiply.c
; File z:\sources\lunor\repos\rougemeilland\palmtree.math.core.uint\palmtree.math.core.uint\pmc_inline_func.h
; File z:\sources\lunor\repos\rougemeilland\palmtree.math.core.uint\palmtree.math.core.uint\pmc_multiply.c
; File z:\sources\lunor\repos\rougemeilland\palmtree.math.core.uint\palmtree.math.core.uint\pmc_inline_func.h
; File z:\sources\lunor\repos\rougemeilland\palmtree.math.core.uint\palmtree.math.core.uint\pmc_multiply.c
; File z:\sources\lunor\repos\rougemeilland\palmtree.math.core.uint\palmtree.math.core.uint\pmc_inline_func.h
; File z:\sources\lunor\repos\rougemeilland\palmtree.math.core.uint\palmtree.math.core.uint\pmc_multiply.c
; File z:\sources\lunor\repos\rougemeilland\palmtree.math.core.uint\palmtree.math.core.uint\pmc_inline_func.h
; File z:\sources\lunor\repos\rougemeilland\palmtree.math.core.uint\palmtree.math.core.uint\pmc_multiply.c
; File z:\sources\lunor\repos\rougemeilland\palmtree.math.core.uint\palmtree.math.core.uint\pmc_inline_func.h
; File z:\sources\lunor\repos\rougemeilland\palmtree.math.core.uint\palmtree.math.core.uint\pmc_multiply.c
; File z:\sources\lunor\repos\rougemeilland\palmtree.math.core.uint\palmtree.math.core.uint\pmc_inline_func.h
; File z:\sources\lunor\repos\rougemeilland\palmtree.math.core.uint\palmtree.math.core.uint\pmc_multiply.c
; File z:\sources\lunor\repos\rougemeilland\palmtree.math.core.uint\palmtree.math.core.uint\pmc_uint_internal.h
; File z:\sources\lunor\repos\rougemeilland\palmtree.math.core.uint\palmtree.math.core.uint\pmc_inline_func.h
; File z:\sources\lunor\repos\rougemeilland\palmtree.math.core.uint\palmtree.math.core.uint\pmc_uint_internal.h
; File z:\sources\lunor\repos\rougemeilland\palmtree.math.core.uint\palmtree.math.core.uint\pmc_multiply.c
; File z:\sources\lunor\repos\rougemeilland\palmtree.math.core.uint\palmtree.math.core.uint\pmc_uint_internal.h
; File z:\sources\lunor\repos\rougemeilland\palmtree.math.core.uint\palmtree.math.core.uint\pmc_multiply.c
; File z:\sources\lunor\repos\rougemeilland\palmtree.math.core.uint\palmtree.math.core.uint\pmc_inline_func.h
; File z:\sources\lunor\repos\rougemeilland\palmtree.math.core.uint\palmtree.math.core.uint\pmc_multiply.c
; File z:\sources\lunor\repos\rougemeilland\palmtree.math.core.uint\palmtree.math.core.uint\pmc_inline_func.h
; File z:\sources\lunor\repos\rougemeilland\palmtree.math.core.uint\palmtree.math.core.uint\pmc_multiply.c
; File z:\sources\lunor\repos\rougemeilland\palmtree.math.core.uint\palmtree.math.core.uint\pmc_inline_func.h
; File z:\sources\lunor\repos\rougemeilland\palmtree.math.core.uint\palmtree.math.core.uint\pmc_multiply.c
; File z:\sources\lunor\repos\rougemeilland\palmtree.math.core.uint\palmtree.math.core.uint\pmc_inline_func.h
; File z:\sources\lunor\repos\rougemeilland\palmtree.math.core.uint\palmtree.math.core.uint\pmc_multiply.c
; File z:\sources\lunor\repos\rougemeilland\palmtree.math.core.uint\palmtree.math.core.uint\pmc_inline_func.h
; File z:\sources\lunor\repos\rougemeilland\palmtree.math.core.uint\palmtree.math.core.uint\pmc_multiply.c
; File z:\sources\lunor\repos\rougemeilland\palmtree.math.core.uint\palmtree.math.core.uint\pmc_inline_func.h
; File z:\sources\lunor\repos\rougemeilland\palmtree.math.core.uint\palmtree.math.core.uint\pmc_multiply.c
; File z:\sources\lunor\repos\rougemeilland\palmtree.math.core.uint\palmtree.math.core.uint\pmc_inline_func.h
; File z:\sources\lunor\repos\rougemeilland\palmtree.math.core.uint\palmtree.math.core.uint\pmc_multiply.c
; File z:\sources\lunor\repos\rougemeilland\palmtree.math.core.uint\palmtree.math.core.uint\pmc_inline_func.h
; File z:\sources\lunor\repos\rougemeilland\palmtree.math.core.uint\palmtree.math.core.uint\pmc_multiply.c
; File z:\sources\lunor\repos\rougemeilland\palmtree.math.core.uint\palmtree.math.core.uint\pmc_inline_func.h
; File z:\sources\lunor\repos\rougemeilland\palmtree.math.core.uint\palmtree.math.core.uint\pmc_multiply.c
; File z:\sources\lunor\repos\rougemeilland\palmtree.math.core.uint\palmtree.math.core.uint\pmc_inline_func.h
; File z:\sources\lunor\repos\rougemeilland\palmtree.math.core.uint\palmtree.math.core.uint\pmc_multiply.c
; File z:\sources\lunor\repos\rougemeilland\palmtree.math.core.uint\palmtree.math.core.uint\pmc_inline_func.h
; File z:\sources\lunor\repos\rougemeilland\palmtree.math.core.uint\palmtree.math.core.uint\pmc_multiply.c
; File z:\sources\lunor\repos\rougemeilland\palmtree.math.core.uint\palmtree.math.core.uint\pmc_inline_func.h
; File z:\sources\lunor\repos\rougemeilland\palmtree.math.core.uint\palmtree.math.core.uint\pmc_multiply.c
; File z:\sources\lunor\repos\rougemeilland\palmtree.math.core.uint\palmtree.math.core.uint\pmc_inline_func.h
; File z:\sources\lunor\repos\rougemeilland\palmtree.math.core.uint\palmtree.math.core.uint\pmc_multiply.c
; File z:\sources\lunor\repos\rougemeilland\palmtree.math.core.uint\palmtree.math.core.uint\pmc_inline_func.h
; File z:\sources\lunor\repos\rougemeilland\palmtree.math.core.uint\palmtree.math.core.uint\pmc_multiply.c
; File z:\sources\lunor\repos\rougemeilland\palmtree.math.core.uint\palmtree.math.core.uint\pmc_inline_func.h
; File z:\sources\lunor\repos\rougemeilland\palmtree.math.core.uint\palmtree.math.core.uint\pmc_multiply.c
; File z:\sources\lunor\repos\rougemeilland\palmtree.math.core.uint\palmtree.math.core.uint\pmc_inline_func.h
; File z:\sources\lunor\repos\rougemeilland\palmtree.math.core.uint\palmtree.math.core.uint\pmc_uint_internal.h
; File z:\sources\lunor\repos\rougemeilland\palmtree.math.core.uint\palmtree.math.core.uint\pmc_inline_func.h
; File z:\sources\lunor\repos\rougemeilland\palmtree.math.core.uint\palmtree.math.core.uint\pmc_multiply.c
; File z:\sources\lunor\repos\rougemeilland\palmtree.math.core.uint\palmtree.math.core.uint\pmc_uint_internal.h
; File z:\sources\lunor\repos\rougemeilland\palmtree.math.core.uint\palmtree.math.core.uint\pmc_inline_func.h
; File z:\sources\lunor\repos\rougemeilland\palmtree.math.core.uint\palmtree.math.core.uint\pmc_multiply.c
; File z:\sources\lunor\repos\rougemeilland\palmtree.math.core.uint\palmtree.math.core.uint\pmc_uint_internal.h
; File z:\sources\lunor\repos\rougemeilland\palmtree.math.core.uint\palmtree.math.core.uint\pmc_multiply.c
; File z:\sources\lunor\repos\rougemeilland\palmtree.math.core.uint\palmtree.math.core.uint\pmc_inline_func.h
; File z:\sources\lunor\repos\rougemeilland\palmtree.math.core.uint\palmtree.math.core.uint\pmc_multiply.c
; File z:\sources\lunor\repos\rougemeilland\palmtree.math.core.uint\palmtree.math.core.uint\pmc_inline_func.h
; File z:\sources\lunor\repos\rougemeilland\palmtree.math.core.uint\palmtree.math.core.uint\pmc_multiply.c
; File z:\sources\lunor\repos\rougemeilland\palmtree.math.core.uint\palmtree.math.core.uint\pmc_inline_func.h
; File z:\sources\lunor\repos\rougemeilland\palmtree.math.core.uint\palmtree.math.core.uint\pmc_multiply.c
; File z:\sources\lunor\repos\rougemeilland\palmtree.math.core.uint\palmtree.math.core.uint\pmc_inline_func.h
; File z:\sources\lunor\repos\rougemeilland\palmtree.math.core.uint\palmtree.math.core.uint\pmc_multiply.c
; File z:\sources\lunor\repos\rougemeilland\palmtree.math.core.uint\palmtree.math.core.uint\pmc_inline_func.h
; File z:\sources\lunor\repos\rougemeilland\palmtree.math.core.uint\palmtree.math.core.uint\pmc_multiply.c
; File z:\sources\lunor\repos\rougemeilland\palmtree.math.core.uint\palmtree.math.core.uint\pmc_inline_func.h
; File z:\sources\lunor\repos\rougemeilland\palmtree.math.core.uint\palmtree.math.core.uint\pmc_multiply.c
; File z:\sources\lunor\repos\rougemeilland\palmtree.math.core.uint\palmtree.math.core.uint\pmc_inline_func.h
; File z:\sources\lunor\repos\rougemeilland\palmtree.math.core.uint\palmtree.math.core.uint\pmc_multiply.c
; File z:\sources\lunor\repos\rougemeilland\palmtree.math.core.uint\palmtree.math.core.uint\pmc_inline_func.h
; File z:\sources\lunor\repos\rougemeilland\palmtree.math.core.uint\palmtree.math.core.uint\pmc_uint_internal.h
; File z:\sources\lunor\repos\rougemeilland\palmtree.math.core.uint\palmtree.math.core.uint\pmc_inline_func.h
; File z:\sources\lunor\repos\rougemeilland\palmtree.math.core.uint\palmtree.math.core.uint\pmc_multiply.c
; File z:\sources\lunor\repos\rougemeilland\palmtree.math.core.uint\palmtree.math.core.uint\pmc_uint_internal.h
; File z:\sources\lunor\repos\rougemeilland\palmtree.math.core.uint\palmtree.math.core.uint\pmc_inline_func.h
; File z:\sources\lunor\repos\rougemeilland\palmtree.math.core.uint\palmtree.math.core.uint\pmc_multiply.c
; File z:\sources\lunor\repos\rougemeilland\palmtree.math.core.uint\palmtree.math.core.uint\pmc_uint_internal.h
; File z:\sources\lunor\repos\rougemeilland\palmtree.math.core.uint\palmtree.math.core.uint\pmc_multiply.c
; File z:\sources\lunor\repos\rougemeilland\palmtree.math.core.uint\palmtree.math.core.uint\pmc_inline_func.h
; File z:\sources\lunor\repos\rougemeilland\palmtree.math.core.uint\palmtree.math.core.uint\pmc_multiply.c
; File z:\sources\lunor\repos\rougemeilland\palmtree.math.core.uint\palmtree.math.core.uint\pmc_inline_func.h
; File z:\sources\lunor\repos\rougemeilland\palmtree.math.core.uint\palmtree.math.core.uint\pmc_multiply.c
; File z:\sources\lunor\repos\rougemeilland\palmtree.math.core.uint\palmtree.math.core.uint\pmc_inline_func.h
; File z:\sources\lunor\repos\rougemeilland\palmtree.math.core.uint\palmtree.math.core.uint\pmc_multiply.c
; File z:\sources\lunor\repos\rougemeilland\palmtree.math.core.uint\palmtree.math.core.uint\pmc_inline_func.h
; File z:\sources\lunor\repos\rougemeilland\palmtree.math.core.uint\palmtree.math.core.uint\pmc_uint_internal.h
; File z:\sources\lunor\repos\rougemeilland\palmtree.math.core.uint\palmtree.math.core.uint\pmc_inline_func.h
; File z:\sources\lunor\repos\rougemeilland\palmtree.math.core.uint\palmtree.math.core.uint\pmc_multiply.c
; File z:\sources\lunor\repos\rougemeilland\palmtree.math.core.uint\palmtree.math.core.uint\pmc_uint_internal.h
; File z:\sources\lunor\repos\rougemeilland\palmtree.math.core.uint\palmtree.math.core.uint\pmc_inline_func.h
; File z:\sources\lunor\repos\rougemeilland\palmtree.math.core.uint\palmtree.math.core.uint\pmc_multiply.c
; File z:\sources\lunor\repos\rougemeilland\palmtree.math.core.uint\palmtree.math.core.uint\pmc_uint_internal.h
; File z:\sources\lunor\repos\rougemeilland\palmtree.math.core.uint\palmtree.math.core.uint\pmc_multiply.c
; File z:\sources\lunor\repos\rougemeilland\palmtree.math.core.uint\palmtree.math.core.uint\pmc_inline_func.h
; File z:\sources\lunor\repos\rougemeilland\palmtree.math.core.uint\palmtree.math.core.uint\pmc_multiply.c
; File z:\sources\lunor\repos\rougemeilland\palmtree.math.core.uint\palmtree.math.core.uint\pmc_inline_func.h
; File z:\sources\lunor\repos\rougemeilland\palmtree.math.core.uint\palmtree.math.core.uint\pmc_uint_internal.h
; File z:\sources\lunor\repos\rougemeilland\palmtree.math.core.uint\palmtree.math.core.uint\pmc_inline_func.h
; File z:\sources\lunor\repos\rougemeilland\palmtree.math.core.uint\palmtree.math.core.uint\pmc_multiply.c
; File z:\sources\lunor\repos\rougemeilland\palmtree.math.core.uint\palmtree.math.core.uint\pmc_uint_internal.h
; File z:\sources\lunor\repos\rougemeilland\palmtree.math.core.uint\palmtree.math.core.uint\pmc_inline_func.h
; File z:\sources\lunor\repos\rougemeilland\palmtree.math.core.uint\palmtree.math.core.uint\pmc_multiply.c
; File z:\sources\lunor\repos\rougemeilland\palmtree.math.core.uint\palmtree.math.core.uint\pmc_uint_internal.h
; File z:\sources\lunor\repos\rougemeilland\palmtree.math.core.uint\palmtree.math.core.uint\pmc_multiply.c
; File z:\sources\lunor\repos\rougemeilland\palmtree.math.core.uint\palmtree.math.core.uint\pmc_inline_func.h
; File z:\sources\lunor\repos\rougemeilland\palmtree.math.core.uint\palmtree.math.core.uint\pmc_multiply.c
; File z:\sources\lunor\repos\rougemeilland\palmtree.math.core.uint\palmtree.math.core.uint\pmc_inline_func.h
; File z:\sources\lunor\repos\rougemeilland\palmtree.math.core.uint\palmtree.math.core.uint\pmc_multiply.c
; File z:\sources\lunor\repos\rougemeilland\palmtree.math.core.uint\palmtree.math.core.uint\pmc_uint_internal.h
; File z:\sources\lunor\repos\rougemeilland\palmtree.math.core.uint\palmtree.math.core.uint\pmc_multiply.c
;	COMDAT _Multiply_WORD_using_MUL_ADC
_TEXT	SEGMENT
_count$1$ = -4						; size = 4
_up$ = 8						; size = 4
_u_count$ = 12						; size = 4
_v$ = 16						; size = 4
_wp$ = 20						; size = 4
_Multiply_WORD_using_MUL_ADC PROC			; COMDAT

; 72   : {

	push	ebp
	mov	ebp, esp
	sub	esp, 8

; 73   :     __UNIT_TYPE k = 0;
; 74   :     __UNIT_TYPE count = u_count >> 5;

	mov	eax, DWORD PTR _u_count$[ebp]
	mov	ecx, eax

; 76   :     while (count != 0)

	mov	edx, DWORD PTR _v$[ebp]
	push	ebx
	mov	ebx, DWORD PTR _up$[ebp]
	push	esi
	shr	ecx, 5
	push	edi
	xor	edi, edi
	mov	DWORD PTR _count$1$[ebp], ecx
	test	ecx, ecx
	mov	ecx, DWORD PTR _wp$[ebp]
	je	$LN3@Multiply_W
$LL2@Multiply_W:
; File z:\sources\lunor\repos\rougemeilland\palmtree.math.core.uint\palmtree.math.core.uint\pmc_inline_func.h

; 300  :         return (_FROMDWORDTOWORD((_UINT64_T)u * v, w_hi));

	mov	eax, DWORD PTR [ebx]
	mul	edx

; 215  :         return (_addcarry_u32(carry, u, v, w));

	add	eax, DWORD PTR [ecx]

; 300  :         return (_FROMDWORDTOWORD((_UINT64_T)u * v, w_hi));

	mov	esi, edx

; 215  :         return (_addcarry_u32(carry, u, v, w));

	adc	esi, 0
	add	eax, edi
; File z:\sources\lunor\repos\rougemeilland\palmtree.math.core.uint\palmtree.math.core.uint\pmc_multiply.c

; 54   :     *wp = t_lo;

	mov	DWORD PTR [ecx], eax
; File z:\sources\lunor\repos\rougemeilland\palmtree.math.core.uint\palmtree.math.core.uint\pmc_inline_func.h

; 215  :         return (_addcarry_u32(carry, u, v, w));

	adc	esi, 0

; 300  :         return (_FROMDWORDTOWORD((_UINT64_T)u * v, w_hi));

	mov	eax, DWORD PTR [ebx+4]
	mul	DWORD PTR _v$[ebp]

; 215  :         return (_addcarry_u32(carry, u, v, w));

	add	eax, DWORD PTR [ecx+4]

; 300  :         return (_FROMDWORDTOWORD((_UINT64_T)u * v, w_hi));

	mov	edi, edx

; 215  :         return (_addcarry_u32(carry, u, v, w));

	adc	edi, 0
	add	eax, esi
; File z:\sources\lunor\repos\rougemeilland\palmtree.math.core.uint\palmtree.math.core.uint\pmc_multiply.c

; 54   :     *wp = t_lo;

	mov	DWORD PTR [ecx+4], eax
; File z:\sources\lunor\repos\rougemeilland\palmtree.math.core.uint\palmtree.math.core.uint\pmc_inline_func.h

; 215  :         return (_addcarry_u32(carry, u, v, w));

	adc	edi, 0

; 300  :         return (_FROMDWORDTOWORD((_UINT64_T)u * v, w_hi));

	mov	eax, DWORD PTR [ebx+8]
	mul	DWORD PTR _v$[ebp]

; 215  :         return (_addcarry_u32(carry, u, v, w));

	add	eax, DWORD PTR [ecx+8]

; 300  :         return (_FROMDWORDTOWORD((_UINT64_T)u * v, w_hi));

	mov	esi, edx

; 215  :         return (_addcarry_u32(carry, u, v, w));

	adc	esi, 0
	add	eax, edi
; File z:\sources\lunor\repos\rougemeilland\palmtree.math.core.uint\palmtree.math.core.uint\pmc_multiply.c

; 54   :     *wp = t_lo;

	mov	DWORD PTR [ecx+8], eax
; File z:\sources\lunor\repos\rougemeilland\palmtree.math.core.uint\palmtree.math.core.uint\pmc_inline_func.h

; 300  :         return (_FROMDWORDTOWORD((_UINT64_T)u * v, w_hi));

	mov	eax, DWORD PTR [ebx+12]

; 215  :         return (_addcarry_u32(carry, u, v, w));

	adc	esi, 0

; 300  :         return (_FROMDWORDTOWORD((_UINT64_T)u * v, w_hi));

	mul	DWORD PTR _v$[ebp]

; 215  :         return (_addcarry_u32(carry, u, v, w));

	add	eax, DWORD PTR [ecx+12]

; 300  :         return (_FROMDWORDTOWORD((_UINT64_T)u * v, w_hi));

	mov	edi, edx

; 215  :         return (_addcarry_u32(carry, u, v, w));

	adc	edi, 0
	add	eax, esi
; File z:\sources\lunor\repos\rougemeilland\palmtree.math.core.uint\palmtree.math.core.uint\pmc_multiply.c

; 54   :     *wp = t_lo;

	mov	DWORD PTR [ecx+12], eax
; File z:\sources\lunor\repos\rougemeilland\palmtree.math.core.uint\palmtree.math.core.uint\pmc_inline_func.h

; 300  :         return (_FROMDWORDTOWORD((_UINT64_T)u * v, w_hi));

	mov	eax, DWORD PTR [ebx+16]

; 215  :         return (_addcarry_u32(carry, u, v, w));

	adc	edi, 0

; 300  :         return (_FROMDWORDTOWORD((_UINT64_T)u * v, w_hi));

	mul	DWORD PTR _v$[ebp]

; 215  :         return (_addcarry_u32(carry, u, v, w));

	add	eax, DWORD PTR [ecx+16]

; 300  :         return (_FROMDWORDTOWORD((_UINT64_T)u * v, w_hi));

	mov	esi, edx

; 215  :         return (_addcarry_u32(carry, u, v, w));

	adc	esi, 0
	add	eax, edi
; File z:\sources\lunor\repos\rougemeilland\palmtree.math.core.uint\palmtree.math.core.uint\pmc_multiply.c

; 54   :     *wp = t_lo;

	mov	DWORD PTR [ecx+16], eax
; File z:\sources\lunor\repos\rougemeilland\palmtree.math.core.uint\palmtree.math.core.uint\pmc_inline_func.h

; 300  :         return (_FROMDWORDTOWORD((_UINT64_T)u * v, w_hi));

	mov	eax, DWORD PTR [ebx+20]

; 215  :         return (_addcarry_u32(carry, u, v, w));

	adc	esi, 0

; 300  :         return (_FROMDWORDTOWORD((_UINT64_T)u * v, w_hi));

	mul	DWORD PTR _v$[ebp]

; 215  :         return (_addcarry_u32(carry, u, v, w));

	add	eax, DWORD PTR [ecx+20]

; 300  :         return (_FROMDWORDTOWORD((_UINT64_T)u * v, w_hi));

	mov	edi, edx

; 215  :         return (_addcarry_u32(carry, u, v, w));

	adc	edi, 0
	add	eax, esi
; File z:\sources\lunor\repos\rougemeilland\palmtree.math.core.uint\palmtree.math.core.uint\pmc_multiply.c

; 54   :     *wp = t_lo;

	mov	DWORD PTR [ecx+20], eax
; File z:\sources\lunor\repos\rougemeilland\palmtree.math.core.uint\palmtree.math.core.uint\pmc_inline_func.h

; 300  :         return (_FROMDWORDTOWORD((_UINT64_T)u * v, w_hi));

	mov	eax, DWORD PTR [ebx+24]

; 215  :         return (_addcarry_u32(carry, u, v, w));

	adc	edi, 0

; 300  :         return (_FROMDWORDTOWORD((_UINT64_T)u * v, w_hi));

	mul	DWORD PTR _v$[ebp]

; 215  :         return (_addcarry_u32(carry, u, v, w));

	add	eax, DWORD PTR [ecx+24]

; 300  :         return (_FROMDWORDTOWORD((_UINT64_T)u * v, w_hi));

	mov	esi, edx

; 215  :         return (_addcarry_u32(carry, u, v, w));

	adc	esi, 0
	add	eax, edi
; File z:\sources\lunor\repos\rougemeilland\palmtree.math.core.uint\palmtree.math.core.uint\pmc_multiply.c

; 54   :     *wp = t_lo;

	mov	DWORD PTR [ecx+24], eax
; File z:\sources\lunor\repos\rougemeilland\palmtree.math.core.uint\palmtree.math.core.uint\pmc_inline_func.h

; 300  :         return (_FROMDWORDTOWORD((_UINT64_T)u * v, w_hi));

	mov	eax, DWORD PTR [ebx+28]

; 215  :         return (_addcarry_u32(carry, u, v, w));

	adc	esi, 0

; 300  :         return (_FROMDWORDTOWORD((_UINT64_T)u * v, w_hi));

	mul	DWORD PTR _v$[ebp]

; 215  :         return (_addcarry_u32(carry, u, v, w));

	add	eax, DWORD PTR [ecx+28]

; 300  :         return (_FROMDWORDTOWORD((_UINT64_T)u * v, w_hi));

	mov	edi, edx

; 215  :         return (_addcarry_u32(carry, u, v, w));

	adc	edi, 0
	add	eax, esi
; File z:\sources\lunor\repos\rougemeilland\palmtree.math.core.uint\palmtree.math.core.uint\pmc_multiply.c

; 54   :     *wp = t_lo;

	mov	DWORD PTR [ecx+28], eax
; File z:\sources\lunor\repos\rougemeilland\palmtree.math.core.uint\palmtree.math.core.uint\pmc_inline_func.h

; 300  :         return (_FROMDWORDTOWORD((_UINT64_T)u * v, w_hi));

	mov	eax, DWORD PTR [ebx+32]

; 215  :         return (_addcarry_u32(carry, u, v, w));

	adc	edi, 0

; 300  :         return (_FROMDWORDTOWORD((_UINT64_T)u * v, w_hi));

	mul	DWORD PTR _v$[ebp]

; 215  :         return (_addcarry_u32(carry, u, v, w));

	add	eax, DWORD PTR [ecx+32]

; 300  :         return (_FROMDWORDTOWORD((_UINT64_T)u * v, w_hi));

	mov	esi, edx

; 215  :         return (_addcarry_u32(carry, u, v, w));

	adc	esi, 0
	add	eax, edi
; File z:\sources\lunor\repos\rougemeilland\palmtree.math.core.uint\palmtree.math.core.uint\pmc_multiply.c

; 54   :     *wp = t_lo;

	mov	DWORD PTR [ecx+32], eax
; File z:\sources\lunor\repos\rougemeilland\palmtree.math.core.uint\palmtree.math.core.uint\pmc_inline_func.h

; 300  :         return (_FROMDWORDTOWORD((_UINT64_T)u * v, w_hi));

	mov	eax, DWORD PTR [ebx+36]

; 215  :         return (_addcarry_u32(carry, u, v, w));

	adc	esi, 0

; 300  :         return (_FROMDWORDTOWORD((_UINT64_T)u * v, w_hi));

	mul	DWORD PTR _v$[ebp]

; 215  :         return (_addcarry_u32(carry, u, v, w));

	add	eax, DWORD PTR [ecx+36]

; 300  :         return (_FROMDWORDTOWORD((_UINT64_T)u * v, w_hi));

	mov	edi, edx

; 215  :         return (_addcarry_u32(carry, u, v, w));

	adc	edi, 0
	add	eax, esi
; File z:\sources\lunor\repos\rougemeilland\palmtree.math.core.uint\palmtree.math.core.uint\pmc_multiply.c

; 54   :     *wp = t_lo;

	mov	DWORD PTR [ecx+36], eax
; File z:\sources\lunor\repos\rougemeilland\palmtree.math.core.uint\palmtree.math.core.uint\pmc_inline_func.h

; 300  :         return (_FROMDWORDTOWORD((_UINT64_T)u * v, w_hi));

	mov	eax, DWORD PTR [ebx+40]

; 215  :         return (_addcarry_u32(carry, u, v, w));

	adc	edi, 0

; 300  :         return (_FROMDWORDTOWORD((_UINT64_T)u * v, w_hi));

	mul	DWORD PTR _v$[ebp]

; 215  :         return (_addcarry_u32(carry, u, v, w));

	add	eax, DWORD PTR [ecx+40]

; 300  :         return (_FROMDWORDTOWORD((_UINT64_T)u * v, w_hi));

	mov	esi, edx

; 215  :         return (_addcarry_u32(carry, u, v, w));

	adc	esi, 0
	add	eax, edi
; File z:\sources\lunor\repos\rougemeilland\palmtree.math.core.uint\palmtree.math.core.uint\pmc_multiply.c

; 54   :     *wp = t_lo;

	mov	DWORD PTR [ecx+40], eax
; File z:\sources\lunor\repos\rougemeilland\palmtree.math.core.uint\palmtree.math.core.uint\pmc_inline_func.h

; 215  :         return (_addcarry_u32(carry, u, v, w));

	adc	esi, 0

; 300  :         return (_FROMDWORDTOWORD((_UINT64_T)u * v, w_hi));

	mov	eax, DWORD PTR [ebx+44]
	mul	DWORD PTR _v$[ebp]

; 215  :         return (_addcarry_u32(carry, u, v, w));

	add	eax, DWORD PTR [ecx+44]

; 300  :         return (_FROMDWORDTOWORD((_UINT64_T)u * v, w_hi));

	mov	edi, edx

; 215  :         return (_addcarry_u32(carry, u, v, w));

	adc	edi, 0
	add	eax, esi
; File z:\sources\lunor\repos\rougemeilland\palmtree.math.core.uint\palmtree.math.core.uint\pmc_multiply.c

; 54   :     *wp = t_lo;

	mov	DWORD PTR [ecx+44], eax
; File z:\sources\lunor\repos\rougemeilland\palmtree.math.core.uint\palmtree.math.core.uint\pmc_inline_func.h

; 215  :         return (_addcarry_u32(carry, u, v, w));

	adc	edi, 0

; 300  :         return (_FROMDWORDTOWORD((_UINT64_T)u * v, w_hi));

	mov	eax, DWORD PTR [ebx+48]
	mul	DWORD PTR _v$[ebp]

; 215  :         return (_addcarry_u32(carry, u, v, w));

	add	eax, DWORD PTR [ecx+48]

; 300  :         return (_FROMDWORDTOWORD((_UINT64_T)u * v, w_hi));

	mov	esi, edx

; 215  :         return (_addcarry_u32(carry, u, v, w));

	adc	esi, 0
	add	eax, edi
; File z:\sources\lunor\repos\rougemeilland\palmtree.math.core.uint\palmtree.math.core.uint\pmc_multiply.c

; 54   :     *wp = t_lo;

	mov	DWORD PTR [ecx+48], eax
; File z:\sources\lunor\repos\rougemeilland\palmtree.math.core.uint\palmtree.math.core.uint\pmc_inline_func.h

; 300  :         return (_FROMDWORDTOWORD((_UINT64_T)u * v, w_hi));

	mov	eax, DWORD PTR [ebx+52]

; 215  :         return (_addcarry_u32(carry, u, v, w));

	adc	esi, 0

; 300  :         return (_FROMDWORDTOWORD((_UINT64_T)u * v, w_hi));

	mul	DWORD PTR _v$[ebp]

; 215  :         return (_addcarry_u32(carry, u, v, w));

	add	eax, DWORD PTR [ecx+52]

; 300  :         return (_FROMDWORDTOWORD((_UINT64_T)u * v, w_hi));

	mov	edi, edx

; 215  :         return (_addcarry_u32(carry, u, v, w));

	adc	edi, 0
	add	eax, esi
; File z:\sources\lunor\repos\rougemeilland\palmtree.math.core.uint\palmtree.math.core.uint\pmc_multiply.c

; 54   :     *wp = t_lo;

	mov	DWORD PTR [ecx+52], eax
; File z:\sources\lunor\repos\rougemeilland\palmtree.math.core.uint\palmtree.math.core.uint\pmc_inline_func.h

; 300  :         return (_FROMDWORDTOWORD((_UINT64_T)u * v, w_hi));

	mov	eax, DWORD PTR [ebx+56]

; 215  :         return (_addcarry_u32(carry, u, v, w));

	adc	edi, 0

; 300  :         return (_FROMDWORDTOWORD((_UINT64_T)u * v, w_hi));

	mul	DWORD PTR _v$[ebp]

; 215  :         return (_addcarry_u32(carry, u, v, w));

	add	eax, DWORD PTR [ecx+56]

; 300  :         return (_FROMDWORDTOWORD((_UINT64_T)u * v, w_hi));

	mov	esi, edx

; 215  :         return (_addcarry_u32(carry, u, v, w));

	adc	esi, 0
	add	eax, edi
; File z:\sources\lunor\repos\rougemeilland\palmtree.math.core.uint\palmtree.math.core.uint\pmc_multiply.c

; 54   :     *wp = t_lo;

	mov	DWORD PTR [ecx+56], eax
; File z:\sources\lunor\repos\rougemeilland\palmtree.math.core.uint\palmtree.math.core.uint\pmc_inline_func.h

; 300  :         return (_FROMDWORDTOWORD((_UINT64_T)u * v, w_hi));

	mov	eax, DWORD PTR [ebx+60]

; 215  :         return (_addcarry_u32(carry, u, v, w));

	adc	esi, 0

; 300  :         return (_FROMDWORDTOWORD((_UINT64_T)u * v, w_hi));

	mul	DWORD PTR _v$[ebp]

; 215  :         return (_addcarry_u32(carry, u, v, w));

	add	eax, DWORD PTR [ecx+60]

; 300  :         return (_FROMDWORDTOWORD((_UINT64_T)u * v, w_hi));

	mov	edi, edx

; 215  :         return (_addcarry_u32(carry, u, v, w));

	adc	edi, 0
	add	eax, esi
; File z:\sources\lunor\repos\rougemeilland\palmtree.math.core.uint\palmtree.math.core.uint\pmc_multiply.c

; 54   :     *wp = t_lo;

	mov	DWORD PTR [ecx+60], eax
; File z:\sources\lunor\repos\rougemeilland\palmtree.math.core.uint\palmtree.math.core.uint\pmc_inline_func.h

; 300  :         return (_FROMDWORDTOWORD((_UINT64_T)u * v, w_hi));

	mov	eax, DWORD PTR [ebx+64]

; 215  :         return (_addcarry_u32(carry, u, v, w));

	adc	edi, 0

; 300  :         return (_FROMDWORDTOWORD((_UINT64_T)u * v, w_hi));

	mul	DWORD PTR _v$[ebp]

; 215  :         return (_addcarry_u32(carry, u, v, w));

	add	eax, DWORD PTR [ecx+64]

; 300  :         return (_FROMDWORDTOWORD((_UINT64_T)u * v, w_hi));

	mov	esi, edx

; 215  :         return (_addcarry_u32(carry, u, v, w));

	adc	esi, 0
	add	eax, edi
; File z:\sources\lunor\repos\rougemeilland\palmtree.math.core.uint\palmtree.math.core.uint\pmc_multiply.c

; 54   :     *wp = t_lo;

	mov	DWORD PTR [ecx+64], eax
; File z:\sources\lunor\repos\rougemeilland\palmtree.math.core.uint\palmtree.math.core.uint\pmc_inline_func.h

; 300  :         return (_FROMDWORDTOWORD((_UINT64_T)u * v, w_hi));

	mov	eax, DWORD PTR [ebx+68]

; 215  :         return (_addcarry_u32(carry, u, v, w));

	adc	esi, 0

; 300  :         return (_FROMDWORDTOWORD((_UINT64_T)u * v, w_hi));

	mul	DWORD PTR _v$[ebp]

; 215  :         return (_addcarry_u32(carry, u, v, w));

	add	eax, DWORD PTR [ecx+68]

; 300  :         return (_FROMDWORDTOWORD((_UINT64_T)u * v, w_hi));

	mov	edi, edx

; 215  :         return (_addcarry_u32(carry, u, v, w));

	adc	edi, 0
	add	eax, esi
; File z:\sources\lunor\repos\rougemeilland\palmtree.math.core.uint\palmtree.math.core.uint\pmc_multiply.c

; 54   :     *wp = t_lo;

	mov	DWORD PTR [ecx+68], eax
; File z:\sources\lunor\repos\rougemeilland\palmtree.math.core.uint\palmtree.math.core.uint\pmc_inline_func.h

; 300  :         return (_FROMDWORDTOWORD((_UINT64_T)u * v, w_hi));

	mov	eax, DWORD PTR [ebx+72]

; 215  :         return (_addcarry_u32(carry, u, v, w));

	adc	edi, 0

; 300  :         return (_FROMDWORDTOWORD((_UINT64_T)u * v, w_hi));

	mul	DWORD PTR _v$[ebp]

; 215  :         return (_addcarry_u32(carry, u, v, w));

	add	eax, DWORD PTR [ecx+72]

; 300  :         return (_FROMDWORDTOWORD((_UINT64_T)u * v, w_hi));

	mov	esi, edx

; 215  :         return (_addcarry_u32(carry, u, v, w));

	adc	esi, 0
	add	eax, edi
; File z:\sources\lunor\repos\rougemeilland\palmtree.math.core.uint\palmtree.math.core.uint\pmc_multiply.c

; 54   :     *wp = t_lo;

	mov	DWORD PTR [ecx+72], eax
; File z:\sources\lunor\repos\rougemeilland\palmtree.math.core.uint\palmtree.math.core.uint\pmc_inline_func.h

; 300  :         return (_FROMDWORDTOWORD((_UINT64_T)u * v, w_hi));

	mov	eax, DWORD PTR [ebx+76]

; 215  :         return (_addcarry_u32(carry, u, v, w));

	adc	esi, 0

; 300  :         return (_FROMDWORDTOWORD((_UINT64_T)u * v, w_hi));

	mul	DWORD PTR _v$[ebp]

; 215  :         return (_addcarry_u32(carry, u, v, w));

	add	eax, DWORD PTR [ecx+76]

; 300  :         return (_FROMDWORDTOWORD((_UINT64_T)u * v, w_hi));

	mov	edi, edx

; 215  :         return (_addcarry_u32(carry, u, v, w));

	adc	edi, 0
	add	eax, esi
; File z:\sources\lunor\repos\rougemeilland\palmtree.math.core.uint\palmtree.math.core.uint\pmc_multiply.c

; 54   :     *wp = t_lo;

	mov	DWORD PTR [ecx+76], eax
; File z:\sources\lunor\repos\rougemeilland\palmtree.math.core.uint\palmtree.math.core.uint\pmc_inline_func.h

; 300  :         return (_FROMDWORDTOWORD((_UINT64_T)u * v, w_hi));

	mov	eax, DWORD PTR [ebx+80]

; 215  :         return (_addcarry_u32(carry, u, v, w));

	adc	edi, 0

; 300  :         return (_FROMDWORDTOWORD((_UINT64_T)u * v, w_hi));

	mul	DWORD PTR _v$[ebp]

; 215  :         return (_addcarry_u32(carry, u, v, w));

	add	eax, DWORD PTR [ecx+80]

; 300  :         return (_FROMDWORDTOWORD((_UINT64_T)u * v, w_hi));

	mov	esi, edx

; 215  :         return (_addcarry_u32(carry, u, v, w));

	adc	esi, 0
	add	eax, edi
; File z:\sources\lunor\repos\rougemeilland\palmtree.math.core.uint\palmtree.math.core.uint\pmc_multiply.c

; 54   :     *wp = t_lo;

	mov	DWORD PTR [ecx+80], eax
; File z:\sources\lunor\repos\rougemeilland\palmtree.math.core.uint\palmtree.math.core.uint\pmc_inline_func.h

; 215  :         return (_addcarry_u32(carry, u, v, w));

	adc	esi, 0

; 300  :         return (_FROMDWORDTOWORD((_UINT64_T)u * v, w_hi));

	mov	eax, DWORD PTR [ebx+84]
	mul	DWORD PTR _v$[ebp]

; 215  :         return (_addcarry_u32(carry, u, v, w));

	add	eax, DWORD PTR [ecx+84]

; 300  :         return (_FROMDWORDTOWORD((_UINT64_T)u * v, w_hi));

	mov	edi, edx

; 215  :         return (_addcarry_u32(carry, u, v, w));

	adc	edi, 0
	add	eax, esi
; File z:\sources\lunor\repos\rougemeilland\palmtree.math.core.uint\palmtree.math.core.uint\pmc_multiply.c

; 54   :     *wp = t_lo;

	mov	DWORD PTR [ecx+84], eax
; File z:\sources\lunor\repos\rougemeilland\palmtree.math.core.uint\palmtree.math.core.uint\pmc_inline_func.h

; 215  :         return (_addcarry_u32(carry, u, v, w));

	adc	edi, 0

; 300  :         return (_FROMDWORDTOWORD((_UINT64_T)u * v, w_hi));

	mov	eax, DWORD PTR [ebx+88]
	mul	DWORD PTR _v$[ebp]

; 215  :         return (_addcarry_u32(carry, u, v, w));

	add	eax, DWORD PTR [ecx+88]

; 300  :         return (_FROMDWORDTOWORD((_UINT64_T)u * v, w_hi));

	mov	esi, edx

; 215  :         return (_addcarry_u32(carry, u, v, w));

	adc	esi, 0
	add	eax, edi
; File z:\sources\lunor\repos\rougemeilland\palmtree.math.core.uint\palmtree.math.core.uint\pmc_multiply.c

; 54   :     *wp = t_lo;

	mov	DWORD PTR [ecx+88], eax
; File z:\sources\lunor\repos\rougemeilland\palmtree.math.core.uint\palmtree.math.core.uint\pmc_inline_func.h

; 300  :         return (_FROMDWORDTOWORD((_UINT64_T)u * v, w_hi));

	mov	eax, DWORD PTR [ebx+92]

; 215  :         return (_addcarry_u32(carry, u, v, w));

	adc	esi, 0

; 300  :         return (_FROMDWORDTOWORD((_UINT64_T)u * v, w_hi));

	mul	DWORD PTR _v$[ebp]

; 215  :         return (_addcarry_u32(carry, u, v, w));

	add	eax, DWORD PTR [ecx+92]

; 300  :         return (_FROMDWORDTOWORD((_UINT64_T)u * v, w_hi));

	mov	edi, edx

; 215  :         return (_addcarry_u32(carry, u, v, w));

	adc	edi, 0
	add	eax, esi
; File z:\sources\lunor\repos\rougemeilland\palmtree.math.core.uint\palmtree.math.core.uint\pmc_multiply.c

; 54   :     *wp = t_lo;

	mov	DWORD PTR [ecx+92], eax
; File z:\sources\lunor\repos\rougemeilland\palmtree.math.core.uint\palmtree.math.core.uint\pmc_inline_func.h

; 300  :         return (_FROMDWORDTOWORD((_UINT64_T)u * v, w_hi));

	mov	eax, DWORD PTR [ebx+96]

; 215  :         return (_addcarry_u32(carry, u, v, w));

	adc	edi, 0

; 300  :         return (_FROMDWORDTOWORD((_UINT64_T)u * v, w_hi));

	mul	DWORD PTR _v$[ebp]

; 215  :         return (_addcarry_u32(carry, u, v, w));

	add	eax, DWORD PTR [ecx+96]

; 300  :         return (_FROMDWORDTOWORD((_UINT64_T)u * v, w_hi));

	mov	esi, edx

; 215  :         return (_addcarry_u32(carry, u, v, w));

	adc	esi, 0
	add	eax, edi
; File z:\sources\lunor\repos\rougemeilland\palmtree.math.core.uint\palmtree.math.core.uint\pmc_multiply.c

; 54   :     *wp = t_lo;

	mov	DWORD PTR [ecx+96], eax
; File z:\sources\lunor\repos\rougemeilland\palmtree.math.core.uint\palmtree.math.core.uint\pmc_inline_func.h

; 300  :         return (_FROMDWORDTOWORD((_UINT64_T)u * v, w_hi));

	mov	eax, DWORD PTR [ebx+100]

; 215  :         return (_addcarry_u32(carry, u, v, w));

	adc	esi, 0

; 300  :         return (_FROMDWORDTOWORD((_UINT64_T)u * v, w_hi));

	mul	DWORD PTR _v$[ebp]

; 215  :         return (_addcarry_u32(carry, u, v, w));

	add	eax, DWORD PTR [ecx+100]

; 300  :         return (_FROMDWORDTOWORD((_UINT64_T)u * v, w_hi));

	mov	edi, edx

; 215  :         return (_addcarry_u32(carry, u, v, w));

	adc	edi, 0
	add	eax, esi
; File z:\sources\lunor\repos\rougemeilland\palmtree.math.core.uint\palmtree.math.core.uint\pmc_multiply.c

; 54   :     *wp = t_lo;

	mov	DWORD PTR [ecx+100], eax
; File z:\sources\lunor\repos\rougemeilland\palmtree.math.core.uint\palmtree.math.core.uint\pmc_inline_func.h

; 300  :         return (_FROMDWORDTOWORD((_UINT64_T)u * v, w_hi));

	mov	eax, DWORD PTR [ebx+104]

; 215  :         return (_addcarry_u32(carry, u, v, w));

	adc	edi, 0

; 300  :         return (_FROMDWORDTOWORD((_UINT64_T)u * v, w_hi));

	mul	DWORD PTR _v$[ebp]

; 215  :         return (_addcarry_u32(carry, u, v, w));

	add	eax, DWORD PTR [ecx+104]

; 300  :         return (_FROMDWORDTOWORD((_UINT64_T)u * v, w_hi));

	mov	esi, edx

; 215  :         return (_addcarry_u32(carry, u, v, w));

	adc	esi, 0
	add	eax, edi
; File z:\sources\lunor\repos\rougemeilland\palmtree.math.core.uint\palmtree.math.core.uint\pmc_multiply.c

; 54   :     *wp = t_lo;

	mov	DWORD PTR [ecx+104], eax
; File z:\sources\lunor\repos\rougemeilland\palmtree.math.core.uint\palmtree.math.core.uint\pmc_inline_func.h

; 300  :         return (_FROMDWORDTOWORD((_UINT64_T)u * v, w_hi));

	mov	eax, DWORD PTR [ebx+108]

; 215  :         return (_addcarry_u32(carry, u, v, w));

	adc	esi, 0

; 300  :         return (_FROMDWORDTOWORD((_UINT64_T)u * v, w_hi));

	mul	DWORD PTR _v$[ebp]

; 215  :         return (_addcarry_u32(carry, u, v, w));

	add	eax, DWORD PTR [ecx+108]

; 300  :         return (_FROMDWORDTOWORD((_UINT64_T)u * v, w_hi));

	mov	edi, edx

; 215  :         return (_addcarry_u32(carry, u, v, w));

	adc	edi, 0
	add	eax, esi
; File z:\sources\lunor\repos\rougemeilland\palmtree.math.core.uint\palmtree.math.core.uint\pmc_multiply.c

; 54   :     *wp = t_lo;

	mov	DWORD PTR [ecx+108], eax
; File z:\sources\lunor\repos\rougemeilland\palmtree.math.core.uint\palmtree.math.core.uint\pmc_inline_func.h

; 300  :         return (_FROMDWORDTOWORD((_UINT64_T)u * v, w_hi));

	mov	eax, DWORD PTR [ebx+112]

; 215  :         return (_addcarry_u32(carry, u, v, w));

	adc	edi, 0

; 300  :         return (_FROMDWORDTOWORD((_UINT64_T)u * v, w_hi));

	mul	DWORD PTR _v$[ebp]

; 215  :         return (_addcarry_u32(carry, u, v, w));

	add	eax, DWORD PTR [ecx+112]

; 300  :         return (_FROMDWORDTOWORD((_UINT64_T)u * v, w_hi));

	mov	esi, edx

; 215  :         return (_addcarry_u32(carry, u, v, w));

	adc	esi, 0
	add	eax, edi
; File z:\sources\lunor\repos\rougemeilland\palmtree.math.core.uint\palmtree.math.core.uint\pmc_multiply.c

; 54   :     *wp = t_lo;

	mov	DWORD PTR [ecx+112], eax
; File z:\sources\lunor\repos\rougemeilland\palmtree.math.core.uint\palmtree.math.core.uint\pmc_inline_func.h

; 300  :         return (_FROMDWORDTOWORD((_UINT64_T)u * v, w_hi));

	mov	eax, DWORD PTR [ebx+116]

; 215  :         return (_addcarry_u32(carry, u, v, w));

	adc	esi, 0

; 300  :         return (_FROMDWORDTOWORD((_UINT64_T)u * v, w_hi));

	mul	DWORD PTR _v$[ebp]

; 215  :         return (_addcarry_u32(carry, u, v, w));

	add	eax, DWORD PTR [ecx+116]

; 300  :         return (_FROMDWORDTOWORD((_UINT64_T)u * v, w_hi));

	mov	edi, edx

; 215  :         return (_addcarry_u32(carry, u, v, w));

	adc	edi, 0
	add	eax, esi
; File z:\sources\lunor\repos\rougemeilland\palmtree.math.core.uint\palmtree.math.core.uint\pmc_multiply.c

; 54   :     *wp = t_lo;

	mov	DWORD PTR [ecx+116], eax
; File z:\sources\lunor\repos\rougemeilland\palmtree.math.core.uint\palmtree.math.core.uint\pmc_inline_func.h

; 300  :         return (_FROMDWORDTOWORD((_UINT64_T)u * v, w_hi));

	mov	eax, DWORD PTR [ebx+120]

; 215  :         return (_addcarry_u32(carry, u, v, w));

	adc	edi, 0

; 300  :         return (_FROMDWORDTOWORD((_UINT64_T)u * v, w_hi));

	mul	DWORD PTR _v$[ebp]
	mov	esi, edx

; 215  :         return (_addcarry_u32(carry, u, v, w));

	add	eax, DWORD PTR [ecx+120]
	adc	esi, 0
	add	eax, edi
; File z:\sources\lunor\repos\rougemeilland\palmtree.math.core.uint\palmtree.math.core.uint\pmc_multiply.c

; 54   :     *wp = t_lo;

	mov	DWORD PTR [ecx+120], eax
; File z:\sources\lunor\repos\rougemeilland\palmtree.math.core.uint\palmtree.math.core.uint\pmc_inline_func.h

; 300  :         return (_FROMDWORDTOWORD((_UINT64_T)u * v, w_hi));

	mov	eax, DWORD PTR [ebx+124]

; 215  :         return (_addcarry_u32(carry, u, v, w));

	adc	esi, 0

; 300  :         return (_FROMDWORDTOWORD((_UINT64_T)u * v, w_hi));

	mul	DWORD PTR _v$[ebp]

; 215  :         return (_addcarry_u32(carry, u, v, w));

	add	eax, DWORD PTR [ecx+124]

; 300  :         return (_FROMDWORDTOWORD((_UINT64_T)u * v, w_hi));

	mov	edi, edx
; File z:\sources\lunor\repos\rougemeilland\palmtree.math.core.uint\palmtree.math.core.uint\pmc_multiply.c

; 112  :         --count;

	mov	edx, DWORD PTR _count$1$[ebp]
; File z:\sources\lunor\repos\rougemeilland\palmtree.math.core.uint\palmtree.math.core.uint\pmc_inline_func.h

; 215  :         return (_addcarry_u32(carry, u, v, w));

	adc	edi, 0
	add	eax, esi
; File z:\sources\lunor\repos\rougemeilland\palmtree.math.core.uint\palmtree.math.core.uint\pmc_multiply.c

; 54   :     *wp = t_lo;

	mov	DWORD PTR [ecx+124], eax
; File z:\sources\lunor\repos\rougemeilland\palmtree.math.core.uint\palmtree.math.core.uint\pmc_uint_internal.h

; 352  :         _InterlockedExchangeAdd(&statistics_info.COUNT_MULTI32, value);

	mov	esi, OFFSET _statistics_info+4
; File z:\sources\lunor\repos\rougemeilland\palmtree.math.core.uint\palmtree.math.core.uint\pmc_inline_func.h

; 215  :         return (_addcarry_u32(carry, u, v, w));

	adc	edi, 0
; File z:\sources\lunor\repos\rougemeilland\palmtree.math.core.uint\palmtree.math.core.uint\pmc_uint_internal.h

; 352  :         _InterlockedExchangeAdd(&statistics_info.COUNT_MULTI32, value);

	mov	eax, 32					; 00000020H
; File z:\sources\lunor\repos\rougemeilland\palmtree.math.core.uint\palmtree.math.core.uint\pmc_multiply.c

; 112  :         --count;

	dec	edx
	sub	ebx, -128				; ffffff80H
	sub	ecx, -128				; ffffff80H
	mov	DWORD PTR _count$1$[ebp], edx
; File z:\sources\lunor\repos\rougemeilland\palmtree.math.core.uint\palmtree.math.core.uint\pmc_uint_internal.h

; 352  :         _InterlockedExchangeAdd(&statistics_info.COUNT_MULTI32, value);

	lock	 xadd	 DWORD PTR [esi], eax
; File z:\sources\lunor\repos\rougemeilland\palmtree.math.core.uint\palmtree.math.core.uint\pmc_multiply.c

; 76   :     while (count != 0)

	test	edx, edx
	mov	edx, DWORD PTR _v$[ebp]
	jne	$LL2@Multiply_W
	mov	eax, DWORD PTR _u_count$[ebp]
$LN3@Multiply_W:

; 113  : #ifdef ENABLED_PERFORMANCE_COUNTER
; 114  :         if (sizeof(k) == sizeof(_UINT32_T))
; 115  :             AddToMULTI32Counter(32);
; 116  :         else
; 117  :             AddToMULTI64Counter(32);
; 118  : #endif
; 119  :     }
; 120  : 
; 121  :     if (u_count & 0x10)

	test	al, 16					; 00000010H
	je	$LN701@Multiply_W
; File z:\sources\lunor\repos\rougemeilland\palmtree.math.core.uint\palmtree.math.core.uint\pmc_inline_func.h

; 300  :         return (_FROMDWORDTOWORD((_UINT64_T)u * v, w_hi));

	mov	eax, DWORD PTR [ebx]
	mul	edx

; 215  :         return (_addcarry_u32(carry, u, v, w));

	add	eax, DWORD PTR [ecx]

; 300  :         return (_FROMDWORDTOWORD((_UINT64_T)u * v, w_hi));

	mov	esi, edx

; 215  :         return (_addcarry_u32(carry, u, v, w));

	adc	esi, 0
	add	eax, edi
; File z:\sources\lunor\repos\rougemeilland\palmtree.math.core.uint\palmtree.math.core.uint\pmc_multiply.c

; 54   :     *wp = t_lo;

	mov	DWORD PTR [ecx], eax
; File z:\sources\lunor\repos\rougemeilland\palmtree.math.core.uint\palmtree.math.core.uint\pmc_inline_func.h

; 215  :         return (_addcarry_u32(carry, u, v, w));

	adc	esi, 0

; 300  :         return (_FROMDWORDTOWORD((_UINT64_T)u * v, w_hi));

	mov	eax, DWORD PTR [ebx+4]
	mul	DWORD PTR _v$[ebp]

; 215  :         return (_addcarry_u32(carry, u, v, w));

	add	eax, DWORD PTR [ecx+4]

; 300  :         return (_FROMDWORDTOWORD((_UINT64_T)u * v, w_hi));

	mov	edi, edx

; 215  :         return (_addcarry_u32(carry, u, v, w));

	adc	edi, 0
	add	eax, esi
; File z:\sources\lunor\repos\rougemeilland\palmtree.math.core.uint\palmtree.math.core.uint\pmc_multiply.c

; 54   :     *wp = t_lo;

	mov	DWORD PTR [ecx+4], eax
; File z:\sources\lunor\repos\rougemeilland\palmtree.math.core.uint\palmtree.math.core.uint\pmc_inline_func.h

; 215  :         return (_addcarry_u32(carry, u, v, w));

	adc	edi, 0

; 300  :         return (_FROMDWORDTOWORD((_UINT64_T)u * v, w_hi));

	mov	eax, DWORD PTR [ebx+8]
	mul	DWORD PTR _v$[ebp]

; 215  :         return (_addcarry_u32(carry, u, v, w));

	add	eax, DWORD PTR [ecx+8]

; 300  :         return (_FROMDWORDTOWORD((_UINT64_T)u * v, w_hi));

	mov	esi, edx

; 215  :         return (_addcarry_u32(carry, u, v, w));

	adc	esi, 0
	add	eax, edi
; File z:\sources\lunor\repos\rougemeilland\palmtree.math.core.uint\palmtree.math.core.uint\pmc_multiply.c

; 54   :     *wp = t_lo;

	mov	DWORD PTR [ecx+8], eax
; File z:\sources\lunor\repos\rougemeilland\palmtree.math.core.uint\palmtree.math.core.uint\pmc_inline_func.h

; 300  :         return (_FROMDWORDTOWORD((_UINT64_T)u * v, w_hi));

	mov	eax, DWORD PTR [ebx+12]

; 215  :         return (_addcarry_u32(carry, u, v, w));

	adc	esi, 0

; 300  :         return (_FROMDWORDTOWORD((_UINT64_T)u * v, w_hi));

	mul	DWORD PTR _v$[ebp]

; 215  :         return (_addcarry_u32(carry, u, v, w));

	add	eax, DWORD PTR [ecx+12]

; 300  :         return (_FROMDWORDTOWORD((_UINT64_T)u * v, w_hi));

	mov	edi, edx

; 215  :         return (_addcarry_u32(carry, u, v, w));

	adc	edi, 0
	add	eax, esi
; File z:\sources\lunor\repos\rougemeilland\palmtree.math.core.uint\palmtree.math.core.uint\pmc_multiply.c

; 54   :     *wp = t_lo;

	mov	DWORD PTR [ecx+12], eax
; File z:\sources\lunor\repos\rougemeilland\palmtree.math.core.uint\palmtree.math.core.uint\pmc_inline_func.h

; 300  :         return (_FROMDWORDTOWORD((_UINT64_T)u * v, w_hi));

	mov	eax, DWORD PTR [ebx+16]

; 215  :         return (_addcarry_u32(carry, u, v, w));

	adc	edi, 0

; 300  :         return (_FROMDWORDTOWORD((_UINT64_T)u * v, w_hi));

	mul	DWORD PTR _v$[ebp]

; 215  :         return (_addcarry_u32(carry, u, v, w));

	add	eax, DWORD PTR [ecx+16]

; 300  :         return (_FROMDWORDTOWORD((_UINT64_T)u * v, w_hi));

	mov	esi, edx

; 215  :         return (_addcarry_u32(carry, u, v, w));

	adc	esi, 0
	add	eax, edi
; File z:\sources\lunor\repos\rougemeilland\palmtree.math.core.uint\palmtree.math.core.uint\pmc_multiply.c

; 54   :     *wp = t_lo;

	mov	DWORD PTR [ecx+16], eax
; File z:\sources\lunor\repos\rougemeilland\palmtree.math.core.uint\palmtree.math.core.uint\pmc_inline_func.h

; 300  :         return (_FROMDWORDTOWORD((_UINT64_T)u * v, w_hi));

	mov	eax, DWORD PTR [ebx+20]

; 215  :         return (_addcarry_u32(carry, u, v, w));

	adc	esi, 0

; 300  :         return (_FROMDWORDTOWORD((_UINT64_T)u * v, w_hi));

	mul	DWORD PTR _v$[ebp]

; 215  :         return (_addcarry_u32(carry, u, v, w));

	add	eax, DWORD PTR [ecx+20]

; 300  :         return (_FROMDWORDTOWORD((_UINT64_T)u * v, w_hi));

	mov	edi, edx

; 215  :         return (_addcarry_u32(carry, u, v, w));

	adc	edi, 0
	add	eax, esi
; File z:\sources\lunor\repos\rougemeilland\palmtree.math.core.uint\palmtree.math.core.uint\pmc_multiply.c

; 54   :     *wp = t_lo;

	mov	DWORD PTR [ecx+20], eax
; File z:\sources\lunor\repos\rougemeilland\palmtree.math.core.uint\palmtree.math.core.uint\pmc_inline_func.h

; 300  :         return (_FROMDWORDTOWORD((_UINT64_T)u * v, w_hi));

	mov	eax, DWORD PTR [ebx+24]

; 215  :         return (_addcarry_u32(carry, u, v, w));

	adc	edi, 0

; 300  :         return (_FROMDWORDTOWORD((_UINT64_T)u * v, w_hi));

	mul	DWORD PTR _v$[ebp]

; 215  :         return (_addcarry_u32(carry, u, v, w));

	add	eax, DWORD PTR [ecx+24]

; 300  :         return (_FROMDWORDTOWORD((_UINT64_T)u * v, w_hi));

	mov	esi, edx

; 215  :         return (_addcarry_u32(carry, u, v, w));

	adc	esi, 0
	add	eax, edi
; File z:\sources\lunor\repos\rougemeilland\palmtree.math.core.uint\palmtree.math.core.uint\pmc_multiply.c

; 54   :     *wp = t_lo;

	mov	DWORD PTR [ecx+24], eax
; File z:\sources\lunor\repos\rougemeilland\palmtree.math.core.uint\palmtree.math.core.uint\pmc_inline_func.h

; 300  :         return (_FROMDWORDTOWORD((_UINT64_T)u * v, w_hi));

	mov	eax, DWORD PTR [ebx+28]

; 215  :         return (_addcarry_u32(carry, u, v, w));

	adc	esi, 0

; 300  :         return (_FROMDWORDTOWORD((_UINT64_T)u * v, w_hi));

	mul	DWORD PTR _v$[ebp]

; 215  :         return (_addcarry_u32(carry, u, v, w));

	add	eax, DWORD PTR [ecx+28]

; 300  :         return (_FROMDWORDTOWORD((_UINT64_T)u * v, w_hi));

	mov	edi, edx

; 215  :         return (_addcarry_u32(carry, u, v, w));

	adc	edi, 0
	add	eax, esi
; File z:\sources\lunor\repos\rougemeilland\palmtree.math.core.uint\palmtree.math.core.uint\pmc_multiply.c

; 54   :     *wp = t_lo;

	mov	DWORD PTR [ecx+28], eax
; File z:\sources\lunor\repos\rougemeilland\palmtree.math.core.uint\palmtree.math.core.uint\pmc_inline_func.h

; 300  :         return (_FROMDWORDTOWORD((_UINT64_T)u * v, w_hi));

	mov	eax, DWORD PTR [ebx+32]

; 215  :         return (_addcarry_u32(carry, u, v, w));

	adc	edi, 0

; 300  :         return (_FROMDWORDTOWORD((_UINT64_T)u * v, w_hi));

	mul	DWORD PTR _v$[ebp]

; 215  :         return (_addcarry_u32(carry, u, v, w));

	add	eax, DWORD PTR [ecx+32]

; 300  :         return (_FROMDWORDTOWORD((_UINT64_T)u * v, w_hi));

	mov	esi, edx

; 215  :         return (_addcarry_u32(carry, u, v, w));

	adc	esi, 0
	add	eax, edi
; File z:\sources\lunor\repos\rougemeilland\palmtree.math.core.uint\palmtree.math.core.uint\pmc_multiply.c

; 54   :     *wp = t_lo;

	mov	DWORD PTR [ecx+32], eax
; File z:\sources\lunor\repos\rougemeilland\palmtree.math.core.uint\palmtree.math.core.uint\pmc_inline_func.h

; 300  :         return (_FROMDWORDTOWORD((_UINT64_T)u * v, w_hi));

	mov	eax, DWORD PTR [ebx+36]

; 215  :         return (_addcarry_u32(carry, u, v, w));

	adc	esi, 0

; 300  :         return (_FROMDWORDTOWORD((_UINT64_T)u * v, w_hi));

	mul	DWORD PTR _v$[ebp]

; 215  :         return (_addcarry_u32(carry, u, v, w));

	add	eax, DWORD PTR [ecx+36]

; 300  :         return (_FROMDWORDTOWORD((_UINT64_T)u * v, w_hi));

	mov	edi, edx

; 215  :         return (_addcarry_u32(carry, u, v, w));

	adc	edi, 0
	add	eax, esi
; File z:\sources\lunor\repos\rougemeilland\palmtree.math.core.uint\palmtree.math.core.uint\pmc_multiply.c

; 54   :     *wp = t_lo;

	mov	DWORD PTR [ecx+36], eax
; File z:\sources\lunor\repos\rougemeilland\palmtree.math.core.uint\palmtree.math.core.uint\pmc_inline_func.h

; 300  :         return (_FROMDWORDTOWORD((_UINT64_T)u * v, w_hi));

	mov	eax, DWORD PTR [ebx+40]

; 215  :         return (_addcarry_u32(carry, u, v, w));

	adc	edi, 0

; 300  :         return (_FROMDWORDTOWORD((_UINT64_T)u * v, w_hi));

	mul	DWORD PTR _v$[ebp]

; 215  :         return (_addcarry_u32(carry, u, v, w));

	add	eax, DWORD PTR [ecx+40]

; 300  :         return (_FROMDWORDTOWORD((_UINT64_T)u * v, w_hi));

	mov	esi, edx

; 215  :         return (_addcarry_u32(carry, u, v, w));

	adc	esi, 0
	add	eax, edi
; File z:\sources\lunor\repos\rougemeilland\palmtree.math.core.uint\palmtree.math.core.uint\pmc_multiply.c

; 54   :     *wp = t_lo;

	mov	DWORD PTR [ecx+40], eax
; File z:\sources\lunor\repos\rougemeilland\palmtree.math.core.uint\palmtree.math.core.uint\pmc_inline_func.h

; 300  :         return (_FROMDWORDTOWORD((_UINT64_T)u * v, w_hi));

	mov	eax, DWORD PTR [ebx+44]

; 215  :         return (_addcarry_u32(carry, u, v, w));

	adc	esi, 0

; 300  :         return (_FROMDWORDTOWORD((_UINT64_T)u * v, w_hi));

	mul	DWORD PTR _v$[ebp]

; 215  :         return (_addcarry_u32(carry, u, v, w));

	add	eax, DWORD PTR [ecx+44]

; 300  :         return (_FROMDWORDTOWORD((_UINT64_T)u * v, w_hi));

	mov	edi, edx

; 215  :         return (_addcarry_u32(carry, u, v, w));

	adc	edi, 0
	add	eax, esi
; File z:\sources\lunor\repos\rougemeilland\palmtree.math.core.uint\palmtree.math.core.uint\pmc_multiply.c

; 54   :     *wp = t_lo;

	mov	DWORD PTR [ecx+44], eax
; File z:\sources\lunor\repos\rougemeilland\palmtree.math.core.uint\palmtree.math.core.uint\pmc_inline_func.h

; 300  :         return (_FROMDWORDTOWORD((_UINT64_T)u * v, w_hi));

	mov	eax, DWORD PTR [ebx+48]

; 215  :         return (_addcarry_u32(carry, u, v, w));

	adc	edi, 0

; 300  :         return (_FROMDWORDTOWORD((_UINT64_T)u * v, w_hi));

	mul	DWORD PTR _v$[ebp]

; 215  :         return (_addcarry_u32(carry, u, v, w));

	add	eax, DWORD PTR [ecx+48]

; 300  :         return (_FROMDWORDTOWORD((_UINT64_T)u * v, w_hi));

	mov	esi, edx

; 215  :         return (_addcarry_u32(carry, u, v, w));

	adc	esi, 0
	add	eax, edi
; File z:\sources\lunor\repos\rougemeilland\palmtree.math.core.uint\palmtree.math.core.uint\pmc_multiply.c

; 54   :     *wp = t_lo;

	mov	DWORD PTR [ecx+48], eax
; File z:\sources\lunor\repos\rougemeilland\palmtree.math.core.uint\palmtree.math.core.uint\pmc_inline_func.h

; 300  :         return (_FROMDWORDTOWORD((_UINT64_T)u * v, w_hi));

	mov	eax, DWORD PTR [ebx+52]

; 215  :         return (_addcarry_u32(carry, u, v, w));

	adc	esi, 0

; 300  :         return (_FROMDWORDTOWORD((_UINT64_T)u * v, w_hi));

	mul	DWORD PTR _v$[ebp]

; 215  :         return (_addcarry_u32(carry, u, v, w));

	add	eax, DWORD PTR [ecx+52]

; 300  :         return (_FROMDWORDTOWORD((_UINT64_T)u * v, w_hi));

	mov	edi, edx

; 215  :         return (_addcarry_u32(carry, u, v, w));

	adc	edi, 0
	add	eax, esi
; File z:\sources\lunor\repos\rougemeilland\palmtree.math.core.uint\palmtree.math.core.uint\pmc_multiply.c

; 54   :     *wp = t_lo;

	mov	DWORD PTR [ecx+52], eax
; File z:\sources\lunor\repos\rougemeilland\palmtree.math.core.uint\palmtree.math.core.uint\pmc_inline_func.h

; 300  :         return (_FROMDWORDTOWORD((_UINT64_T)u * v, w_hi));

	mov	eax, DWORD PTR [ebx+56]

; 215  :         return (_addcarry_u32(carry, u, v, w));

	adc	edi, 0

; 300  :         return (_FROMDWORDTOWORD((_UINT64_T)u * v, w_hi));

	mul	DWORD PTR _v$[ebp]

; 215  :         return (_addcarry_u32(carry, u, v, w));

	add	eax, DWORD PTR [ecx+56]

; 300  :         return (_FROMDWORDTOWORD((_UINT64_T)u * v, w_hi));

	mov	esi, edx

; 215  :         return (_addcarry_u32(carry, u, v, w));

	adc	esi, 0
	add	eax, edi
; File z:\sources\lunor\repos\rougemeilland\palmtree.math.core.uint\palmtree.math.core.uint\pmc_multiply.c

; 54   :     *wp = t_lo;

	mov	DWORD PTR [ecx+56], eax
; File z:\sources\lunor\repos\rougemeilland\palmtree.math.core.uint\palmtree.math.core.uint\pmc_inline_func.h

; 300  :         return (_FROMDWORDTOWORD((_UINT64_T)u * v, w_hi));

	mov	eax, DWORD PTR [ebx+60]

; 215  :         return (_addcarry_u32(carry, u, v, w));

	adc	esi, 0

; 300  :         return (_FROMDWORDTOWORD((_UINT64_T)u * v, w_hi));

	mul	DWORD PTR _v$[ebp]

; 215  :         return (_addcarry_u32(carry, u, v, w));

	add	eax, DWORD PTR [ecx+60]

; 300  :         return (_FROMDWORDTOWORD((_UINT64_T)u * v, w_hi));

	mov	edi, edx
; File z:\sources\lunor\repos\rougemeilland\palmtree.math.core.uint\palmtree.math.core.uint\pmc_uint_internal.h

; 352  :         _InterlockedExchangeAdd(&statistics_info.COUNT_MULTI32, value);

	mov	edx, OFFSET _statistics_info+4
; File z:\sources\lunor\repos\rougemeilland\palmtree.math.core.uint\palmtree.math.core.uint\pmc_inline_func.h

; 215  :         return (_addcarry_u32(carry, u, v, w));

	adc	edi, 0
	add	eax, esi
; File z:\sources\lunor\repos\rougemeilland\palmtree.math.core.uint\palmtree.math.core.uint\pmc_multiply.c

; 54   :     *wp = t_lo;

	mov	DWORD PTR [ecx+60], eax
; File z:\sources\lunor\repos\rougemeilland\palmtree.math.core.uint\palmtree.math.core.uint\pmc_uint_internal.h

; 352  :         _InterlockedExchangeAdd(&statistics_info.COUNT_MULTI32, value);

	mov	eax, 16					; 00000010H
; File z:\sources\lunor\repos\rougemeilland\palmtree.math.core.uint\palmtree.math.core.uint\pmc_inline_func.h

; 215  :         return (_addcarry_u32(carry, u, v, w));

	adc	edi, 0
; File z:\sources\lunor\repos\rougemeilland\palmtree.math.core.uint\palmtree.math.core.uint\pmc_multiply.c

; 139  :         up += 16;

	add	ebx, 64					; 00000040H

; 140  :         wp += 16;

	add	ecx, 64					; 00000040H
; File z:\sources\lunor\repos\rougemeilland\palmtree.math.core.uint\palmtree.math.core.uint\pmc_uint_internal.h

; 352  :         _InterlockedExchangeAdd(&statistics_info.COUNT_MULTI32, value);

	lock	 xadd	 DWORD PTR [edx], eax
	mov	eax, DWORD PTR _u_count$[ebp]
$LN701@Multiply_W:
; File z:\sources\lunor\repos\rougemeilland\palmtree.math.core.uint\palmtree.math.core.uint\pmc_multiply.c

; 149  :     if (u_count & 0x8)

	test	al, 8
	je	$LN817@Multiply_W
; File z:\sources\lunor\repos\rougemeilland\palmtree.math.core.uint\palmtree.math.core.uint\pmc_inline_func.h

; 300  :         return (_FROMDWORDTOWORD((_UINT64_T)u * v, w_hi));

	mov	eax, DWORD PTR [ebx]
	mul	DWORD PTR _v$[ebp]

; 215  :         return (_addcarry_u32(carry, u, v, w));

	add	eax, DWORD PTR [ecx]

; 300  :         return (_FROMDWORDTOWORD((_UINT64_T)u * v, w_hi));

	mov	esi, edx

; 215  :         return (_addcarry_u32(carry, u, v, w));

	adc	esi, 0
	add	eax, edi
; File z:\sources\lunor\repos\rougemeilland\palmtree.math.core.uint\palmtree.math.core.uint\pmc_multiply.c

; 54   :     *wp = t_lo;

	mov	DWORD PTR [ecx], eax
; File z:\sources\lunor\repos\rougemeilland\palmtree.math.core.uint\palmtree.math.core.uint\pmc_inline_func.h

; 300  :         return (_FROMDWORDTOWORD((_UINT64_T)u * v, w_hi));

	mov	eax, DWORD PTR [ebx+4]

; 215  :         return (_addcarry_u32(carry, u, v, w));

	adc	esi, 0

; 300  :         return (_FROMDWORDTOWORD((_UINT64_T)u * v, w_hi));

	mul	DWORD PTR _v$[ebp]

; 215  :         return (_addcarry_u32(carry, u, v, w));

	add	eax, DWORD PTR [ecx+4]

; 300  :         return (_FROMDWORDTOWORD((_UINT64_T)u * v, w_hi));

	mov	edi, edx

; 215  :         return (_addcarry_u32(carry, u, v, w));

	adc	edi, 0
	add	eax, esi
; File z:\sources\lunor\repos\rougemeilland\palmtree.math.core.uint\palmtree.math.core.uint\pmc_multiply.c

; 54   :     *wp = t_lo;

	mov	DWORD PTR [ecx+4], eax
; File z:\sources\lunor\repos\rougemeilland\palmtree.math.core.uint\palmtree.math.core.uint\pmc_inline_func.h

; 300  :         return (_FROMDWORDTOWORD((_UINT64_T)u * v, w_hi));

	mov	eax, DWORD PTR [ebx+8]

; 215  :         return (_addcarry_u32(carry, u, v, w));

	adc	edi, 0

; 300  :         return (_FROMDWORDTOWORD((_UINT64_T)u * v, w_hi));

	mul	DWORD PTR _v$[ebp]

; 215  :         return (_addcarry_u32(carry, u, v, w));

	add	eax, DWORD PTR [ecx+8]

; 300  :         return (_FROMDWORDTOWORD((_UINT64_T)u * v, w_hi));

	mov	esi, edx

; 215  :         return (_addcarry_u32(carry, u, v, w));

	adc	esi, 0
	add	eax, edi
; File z:\sources\lunor\repos\rougemeilland\palmtree.math.core.uint\palmtree.math.core.uint\pmc_multiply.c

; 54   :     *wp = t_lo;

	mov	DWORD PTR [ecx+8], eax
; File z:\sources\lunor\repos\rougemeilland\palmtree.math.core.uint\palmtree.math.core.uint\pmc_inline_func.h

; 300  :         return (_FROMDWORDTOWORD((_UINT64_T)u * v, w_hi));

	mov	eax, DWORD PTR [ebx+12]

; 215  :         return (_addcarry_u32(carry, u, v, w));

	adc	esi, 0

; 300  :         return (_FROMDWORDTOWORD((_UINT64_T)u * v, w_hi));

	mul	DWORD PTR _v$[ebp]

; 215  :         return (_addcarry_u32(carry, u, v, w));

	add	eax, DWORD PTR [ecx+12]

; 300  :         return (_FROMDWORDTOWORD((_UINT64_T)u * v, w_hi));

	mov	edi, edx

; 215  :         return (_addcarry_u32(carry, u, v, w));

	adc	edi, 0
	add	eax, esi
; File z:\sources\lunor\repos\rougemeilland\palmtree.math.core.uint\palmtree.math.core.uint\pmc_multiply.c

; 54   :     *wp = t_lo;

	mov	DWORD PTR [ecx+12], eax
; File z:\sources\lunor\repos\rougemeilland\palmtree.math.core.uint\palmtree.math.core.uint\pmc_inline_func.h

; 300  :         return (_FROMDWORDTOWORD((_UINT64_T)u * v, w_hi));

	mov	eax, DWORD PTR [ebx+16]

; 215  :         return (_addcarry_u32(carry, u, v, w));

	adc	edi, 0

; 300  :         return (_FROMDWORDTOWORD((_UINT64_T)u * v, w_hi));

	mul	DWORD PTR _v$[ebp]

; 215  :         return (_addcarry_u32(carry, u, v, w));

	add	eax, DWORD PTR [ecx+16]

; 300  :         return (_FROMDWORDTOWORD((_UINT64_T)u * v, w_hi));

	mov	esi, edx

; 215  :         return (_addcarry_u32(carry, u, v, w));

	adc	esi, 0
	add	eax, edi
; File z:\sources\lunor\repos\rougemeilland\palmtree.math.core.uint\palmtree.math.core.uint\pmc_multiply.c

; 54   :     *wp = t_lo;

	mov	DWORD PTR [ecx+16], eax
; File z:\sources\lunor\repos\rougemeilland\palmtree.math.core.uint\palmtree.math.core.uint\pmc_inline_func.h

; 300  :         return (_FROMDWORDTOWORD((_UINT64_T)u * v, w_hi));

	mov	eax, DWORD PTR [ebx+20]

; 215  :         return (_addcarry_u32(carry, u, v, w));

	adc	esi, 0

; 300  :         return (_FROMDWORDTOWORD((_UINT64_T)u * v, w_hi));

	mul	DWORD PTR _v$[ebp]

; 215  :         return (_addcarry_u32(carry, u, v, w));

	add	eax, DWORD PTR [ecx+20]

; 300  :         return (_FROMDWORDTOWORD((_UINT64_T)u * v, w_hi));

	mov	edi, edx

; 215  :         return (_addcarry_u32(carry, u, v, w));

	adc	edi, 0
	add	eax, esi
; File z:\sources\lunor\repos\rougemeilland\palmtree.math.core.uint\palmtree.math.core.uint\pmc_multiply.c

; 54   :     *wp = t_lo;

	mov	DWORD PTR [ecx+20], eax
; File z:\sources\lunor\repos\rougemeilland\palmtree.math.core.uint\palmtree.math.core.uint\pmc_inline_func.h

; 300  :         return (_FROMDWORDTOWORD((_UINT64_T)u * v, w_hi));

	mov	eax, DWORD PTR [ebx+24]

; 215  :         return (_addcarry_u32(carry, u, v, w));

	adc	edi, 0

; 300  :         return (_FROMDWORDTOWORD((_UINT64_T)u * v, w_hi));

	mul	DWORD PTR _v$[ebp]

; 215  :         return (_addcarry_u32(carry, u, v, w));

	add	eax, DWORD PTR [ecx+24]

; 300  :         return (_FROMDWORDTOWORD((_UINT64_T)u * v, w_hi));

	mov	esi, edx

; 215  :         return (_addcarry_u32(carry, u, v, w));

	adc	esi, 0
	add	eax, edi
; File z:\sources\lunor\repos\rougemeilland\palmtree.math.core.uint\palmtree.math.core.uint\pmc_multiply.c

; 54   :     *wp = t_lo;

	mov	DWORD PTR [ecx+24], eax
; File z:\sources\lunor\repos\rougemeilland\palmtree.math.core.uint\palmtree.math.core.uint\pmc_inline_func.h

; 300  :         return (_FROMDWORDTOWORD((_UINT64_T)u * v, w_hi));

	mov	eax, DWORD PTR [ebx+28]

; 215  :         return (_addcarry_u32(carry, u, v, w));

	adc	esi, 0

; 300  :         return (_FROMDWORDTOWORD((_UINT64_T)u * v, w_hi));

	mul	DWORD PTR _v$[ebp]

; 215  :         return (_addcarry_u32(carry, u, v, w));

	add	eax, DWORD PTR [ecx+28]

; 300  :         return (_FROMDWORDTOWORD((_UINT64_T)u * v, w_hi));

	mov	edi, edx
; File z:\sources\lunor\repos\rougemeilland\palmtree.math.core.uint\palmtree.math.core.uint\pmc_uint_internal.h

; 352  :         _InterlockedExchangeAdd(&statistics_info.COUNT_MULTI32, value);

	mov	edx, OFFSET _statistics_info+4
; File z:\sources\lunor\repos\rougemeilland\palmtree.math.core.uint\palmtree.math.core.uint\pmc_inline_func.h

; 215  :         return (_addcarry_u32(carry, u, v, w));

	adc	edi, 0
	add	eax, esi
; File z:\sources\lunor\repos\rougemeilland\palmtree.math.core.uint\palmtree.math.core.uint\pmc_multiply.c

; 54   :     *wp = t_lo;

	mov	DWORD PTR [ecx+28], eax
; File z:\sources\lunor\repos\rougemeilland\palmtree.math.core.uint\palmtree.math.core.uint\pmc_uint_internal.h

; 352  :         _InterlockedExchangeAdd(&statistics_info.COUNT_MULTI32, value);

	mov	eax, 8
; File z:\sources\lunor\repos\rougemeilland\palmtree.math.core.uint\palmtree.math.core.uint\pmc_inline_func.h

; 215  :         return (_addcarry_u32(carry, u, v, w));

	adc	edi, 0
; File z:\sources\lunor\repos\rougemeilland\palmtree.math.core.uint\palmtree.math.core.uint\pmc_multiply.c

; 159  :         up += 8;

	add	ebx, 32					; 00000020H

; 160  :         wp += 8;

	add	ecx, 32					; 00000020H
; File z:\sources\lunor\repos\rougemeilland\palmtree.math.core.uint\palmtree.math.core.uint\pmc_uint_internal.h

; 352  :         _InterlockedExchangeAdd(&statistics_info.COUNT_MULTI32, value);

	lock	 xadd	 DWORD PTR [edx], eax
	mov	eax, DWORD PTR _u_count$[ebp]
$LN817@Multiply_W:
; File z:\sources\lunor\repos\rougemeilland\palmtree.math.core.uint\palmtree.math.core.uint\pmc_multiply.c

; 169  :     if (u_count & 0x4)

	test	al, 4
	je	SHORT $LN877@Multiply_W
; File z:\sources\lunor\repos\rougemeilland\palmtree.math.core.uint\palmtree.math.core.uint\pmc_inline_func.h

; 300  :         return (_FROMDWORDTOWORD((_UINT64_T)u * v, w_hi));

	mov	eax, DWORD PTR [ebx]
	mul	DWORD PTR _v$[ebp]

; 215  :         return (_addcarry_u32(carry, u, v, w));

	add	eax, DWORD PTR [ecx]

; 300  :         return (_FROMDWORDTOWORD((_UINT64_T)u * v, w_hi));

	mov	esi, edx

; 215  :         return (_addcarry_u32(carry, u, v, w));

	adc	esi, 0
	add	eax, edi
; File z:\sources\lunor\repos\rougemeilland\palmtree.math.core.uint\palmtree.math.core.uint\pmc_multiply.c

; 54   :     *wp = t_lo;

	mov	DWORD PTR [ecx], eax
; File z:\sources\lunor\repos\rougemeilland\palmtree.math.core.uint\palmtree.math.core.uint\pmc_inline_func.h

; 300  :         return (_FROMDWORDTOWORD((_UINT64_T)u * v, w_hi));

	mov	eax, DWORD PTR [ebx+4]

; 215  :         return (_addcarry_u32(carry, u, v, w));

	adc	esi, 0

; 300  :         return (_FROMDWORDTOWORD((_UINT64_T)u * v, w_hi));

	mul	DWORD PTR _v$[ebp]

; 215  :         return (_addcarry_u32(carry, u, v, w));

	add	eax, DWORD PTR [ecx+4]

; 300  :         return (_FROMDWORDTOWORD((_UINT64_T)u * v, w_hi));

	mov	edi, edx

; 215  :         return (_addcarry_u32(carry, u, v, w));

	adc	edi, 0
	add	eax, esi
; File z:\sources\lunor\repos\rougemeilland\palmtree.math.core.uint\palmtree.math.core.uint\pmc_multiply.c

; 54   :     *wp = t_lo;

	mov	DWORD PTR [ecx+4], eax
; File z:\sources\lunor\repos\rougemeilland\palmtree.math.core.uint\palmtree.math.core.uint\pmc_inline_func.h

; 300  :         return (_FROMDWORDTOWORD((_UINT64_T)u * v, w_hi));

	mov	eax, DWORD PTR [ebx+8]

; 215  :         return (_addcarry_u32(carry, u, v, w));

	adc	edi, 0

; 300  :         return (_FROMDWORDTOWORD((_UINT64_T)u * v, w_hi));

	mul	DWORD PTR _v$[ebp]

; 215  :         return (_addcarry_u32(carry, u, v, w));

	add	eax, DWORD PTR [ecx+8]

; 300  :         return (_FROMDWORDTOWORD((_UINT64_T)u * v, w_hi));

	mov	esi, edx

; 215  :         return (_addcarry_u32(carry, u, v, w));

	adc	esi, 0
	add	eax, edi
; File z:\sources\lunor\repos\rougemeilland\palmtree.math.core.uint\palmtree.math.core.uint\pmc_multiply.c

; 54   :     *wp = t_lo;

	mov	DWORD PTR [ecx+8], eax
; File z:\sources\lunor\repos\rougemeilland\palmtree.math.core.uint\palmtree.math.core.uint\pmc_inline_func.h

; 300  :         return (_FROMDWORDTOWORD((_UINT64_T)u * v, w_hi));

	mov	eax, DWORD PTR [ebx+12]

; 215  :         return (_addcarry_u32(carry, u, v, w));

	adc	esi, 0

; 300  :         return (_FROMDWORDTOWORD((_UINT64_T)u * v, w_hi));

	mul	DWORD PTR _v$[ebp]

; 215  :         return (_addcarry_u32(carry, u, v, w));

	add	eax, DWORD PTR [ecx+12]

; 300  :         return (_FROMDWORDTOWORD((_UINT64_T)u * v, w_hi));

	mov	edi, edx
; File z:\sources\lunor\repos\rougemeilland\palmtree.math.core.uint\palmtree.math.core.uint\pmc_uint_internal.h

; 352  :         _InterlockedExchangeAdd(&statistics_info.COUNT_MULTI32, value);

	mov	edx, OFFSET _statistics_info+4
; File z:\sources\lunor\repos\rougemeilland\palmtree.math.core.uint\palmtree.math.core.uint\pmc_inline_func.h

; 215  :         return (_addcarry_u32(carry, u, v, w));

	adc	edi, 0
	add	eax, esi
; File z:\sources\lunor\repos\rougemeilland\palmtree.math.core.uint\palmtree.math.core.uint\pmc_multiply.c

; 54   :     *wp = t_lo;

	mov	DWORD PTR [ecx+12], eax
; File z:\sources\lunor\repos\rougemeilland\palmtree.math.core.uint\palmtree.math.core.uint\pmc_uint_internal.h

; 352  :         _InterlockedExchangeAdd(&statistics_info.COUNT_MULTI32, value);

	mov	eax, 4
; File z:\sources\lunor\repos\rougemeilland\palmtree.math.core.uint\palmtree.math.core.uint\pmc_inline_func.h

; 215  :         return (_addcarry_u32(carry, u, v, w));

	adc	edi, 0
; File z:\sources\lunor\repos\rougemeilland\palmtree.math.core.uint\palmtree.math.core.uint\pmc_multiply.c

; 175  :         up += 4;

	add	ebx, 16					; 00000010H

; 176  :         wp += 4;

	add	ecx, 16					; 00000010H
; File z:\sources\lunor\repos\rougemeilland\palmtree.math.core.uint\palmtree.math.core.uint\pmc_uint_internal.h

; 352  :         _InterlockedExchangeAdd(&statistics_info.COUNT_MULTI32, value);

	lock	 xadd	 DWORD PTR [edx], eax
	mov	eax, DWORD PTR _u_count$[ebp]
$LN877@Multiply_W:
; File z:\sources\lunor\repos\rougemeilland\palmtree.math.core.uint\palmtree.math.core.uint\pmc_multiply.c

; 185  :     if (u_count & 0x2)

	test	al, 2
	je	SHORT $LN909@Multiply_W
; File z:\sources\lunor\repos\rougemeilland\palmtree.math.core.uint\palmtree.math.core.uint\pmc_inline_func.h

; 300  :         return (_FROMDWORDTOWORD((_UINT64_T)u * v, w_hi));

	mov	eax, DWORD PTR [ebx]
	mul	DWORD PTR _v$[ebp]

; 215  :         return (_addcarry_u32(carry, u, v, w));

	add	eax, DWORD PTR [ecx]

; 300  :         return (_FROMDWORDTOWORD((_UINT64_T)u * v, w_hi));

	mov	esi, edx

; 215  :         return (_addcarry_u32(carry, u, v, w));

	adc	esi, 0
	add	eax, edi
; File z:\sources\lunor\repos\rougemeilland\palmtree.math.core.uint\palmtree.math.core.uint\pmc_multiply.c

; 54   :     *wp = t_lo;

	mov	DWORD PTR [ecx], eax
; File z:\sources\lunor\repos\rougemeilland\palmtree.math.core.uint\palmtree.math.core.uint\pmc_inline_func.h

; 300  :         return (_FROMDWORDTOWORD((_UINT64_T)u * v, w_hi));

	mov	eax, DWORD PTR [ebx+4]

; 215  :         return (_addcarry_u32(carry, u, v, w));

	adc	esi, 0

; 300  :         return (_FROMDWORDTOWORD((_UINT64_T)u * v, w_hi));

	mul	DWORD PTR _v$[ebp]

; 215  :         return (_addcarry_u32(carry, u, v, w));

	add	eax, DWORD PTR [ecx+4]

; 300  :         return (_FROMDWORDTOWORD((_UINT64_T)u * v, w_hi));

	mov	edi, edx
; File z:\sources\lunor\repos\rougemeilland\palmtree.math.core.uint\palmtree.math.core.uint\pmc_uint_internal.h

; 352  :         _InterlockedExchangeAdd(&statistics_info.COUNT_MULTI32, value);

	mov	edx, 2
; File z:\sources\lunor\repos\rougemeilland\palmtree.math.core.uint\palmtree.math.core.uint\pmc_inline_func.h

; 215  :         return (_addcarry_u32(carry, u, v, w));

	adc	edi, 0
	add	eax, esi
; File z:\sources\lunor\repos\rougemeilland\palmtree.math.core.uint\palmtree.math.core.uint\pmc_multiply.c

; 54   :     *wp = t_lo;

	mov	DWORD PTR [ecx+4], eax
; File z:\sources\lunor\repos\rougemeilland\palmtree.math.core.uint\palmtree.math.core.uint\pmc_uint_internal.h

; 352  :         _InterlockedExchangeAdd(&statistics_info.COUNT_MULTI32, value);

	mov	eax, OFFSET _statistics_info+4
; File z:\sources\lunor\repos\rougemeilland\palmtree.math.core.uint\palmtree.math.core.uint\pmc_inline_func.h

; 215  :         return (_addcarry_u32(carry, u, v, w));

	adc	edi, 0
; File z:\sources\lunor\repos\rougemeilland\palmtree.math.core.uint\palmtree.math.core.uint\pmc_multiply.c

; 189  :         up += 2;

	add	ebx, 8

; 190  :         wp += 2;

	add	ecx, 8
; File z:\sources\lunor\repos\rougemeilland\palmtree.math.core.uint\palmtree.math.core.uint\pmc_uint_internal.h

; 352  :         _InterlockedExchangeAdd(&statistics_info.COUNT_MULTI32, value);

	lock	 xadd	 DWORD PTR [eax], edx
	mov	eax, DWORD PTR _u_count$[ebp]
$LN909@Multiply_W:
; File z:\sources\lunor\repos\rougemeilland\palmtree.math.core.uint\palmtree.math.core.uint\pmc_multiply.c

; 199  :     if (u_count & 0x1)

	test	al, 1
	je	SHORT $LN927@Multiply_W
; File z:\sources\lunor\repos\rougemeilland\palmtree.math.core.uint\palmtree.math.core.uint\pmc_inline_func.h

; 300  :         return (_FROMDWORDTOWORD((_UINT64_T)u * v, w_hi));

	mov	eax, DWORD PTR [ebx]
	mul	DWORD PTR _v$[ebp]

; 215  :         return (_addcarry_u32(carry, u, v, w));

	add	eax, DWORD PTR [ecx]
	adc	edx, 0
	add	eax, edi
	mov	edi, edx
; File z:\sources\lunor\repos\rougemeilland\palmtree.math.core.uint\palmtree.math.core.uint\pmc_multiply.c

; 54   :     *wp = t_lo;

	mov	DWORD PTR [ecx], eax
; File z:\sources\lunor\repos\rougemeilland\palmtree.math.core.uint\palmtree.math.core.uint\pmc_inline_func.h

; 215  :         return (_addcarry_u32(carry, u, v, w));

	adc	edi, 0
; File z:\sources\lunor\repos\rougemeilland\palmtree.math.core.uint\palmtree.math.core.uint\pmc_multiply.c

; 203  :         wp += 1;

	add	ecx, 4
; File z:\sources\lunor\repos\rougemeilland\palmtree.math.core.uint\palmtree.math.core.uint\pmc_uint_internal.h

; 329  :         _InterlockedIncrement(&statistics_info.COUNT_MULTI32);

	lock	 inc	 (null) PTR _statistics_info+4
$LN927@Multiply_W:
; File z:\sources\lunor\repos\rougemeilland\palmtree.math.core.uint\palmtree.math.core.uint\pmc_multiply.c

; 212  :     if (k != 0)

	xor	eax, eax
	test	edi, edi
	je	SHORT $LN21@Multiply_W

; 213  :         *wp = k;

	mov	DWORD PTR [ecx], edi
$LN21@Multiply_W:
	pop	edi

; 214  : 
; 215  :     return (PMC_STATUS_OK);
; 216  : }

	pop	esi
	pop	ebx
	mov	esp, ebp
	pop	ebp
	ret	0
_Multiply_WORD_using_MUL_ADC ENDP
_TEXT	ENDS
; Function compile flags: /Ogtp
; File z:\sources\lunor\repos\rougemeilland\palmtree.math.core.uint\palmtree.math.core.uint\pmc_multiply.c
; File z:\sources\lunor\repos\rougemeilland\palmtree.math.core.uint\palmtree.math.core.uint\pmc_inline_func.h
; File z:\sources\lunor\repos\rougemeilland\palmtree.math.core.uint\palmtree.math.core.uint\pmc_multiply.c
; File z:\sources\lunor\repos\rougemeilland\palmtree.math.core.uint\palmtree.math.core.uint\pmc_inline_func.h
; File z:\sources\lunor\repos\rougemeilland\palmtree.math.core.uint\palmtree.math.core.uint\pmc_multiply.c
; File z:\sources\lunor\repos\rougemeilland\palmtree.math.core.uint\palmtree.math.core.uint\pmc_inline_func.h
; File z:\sources\lunor\repos\rougemeilland\palmtree.math.core.uint\palmtree.math.core.uint\pmc_multiply.c
;	COMDAT __MULTIPLYX_DIGIT_UNIT
_TEXT	SEGMENT
_k$ = 8							; size = 4
_up$ = 12						; size = 4
_v$ = 16						; size = 4
_wp$ = 20						; size = 4
__MULTIPLYX_DIGIT_UNIT PROC				; COMDAT

; 60   : {

	push	ebp
	mov	ebp, esp
; File z:\sources\lunor\repos\rougemeilland\palmtree.math.core.uint\palmtree.math.core.uint\pmc_inline_func.h

; 338  :         return (_FROMDWORDTOWORD((_UINT64_T)u * v, w_hi));

	mov	eax, DWORD PTR _up$[ebp]
; File z:\sources\lunor\repos\rougemeilland\palmtree.math.core.uint\palmtree.math.core.uint\pmc_multiply.c

; 64   :     _ADDX_UNIT(_ADDX_UNIT(0, t_lo, *wp, &t_lo), t_hi, 0, &t_hi);

	mov	ecx, DWORD PTR _wp$[ebp]
	push	esi
; File z:\sources\lunor\repos\rougemeilland\palmtree.math.core.uint\palmtree.math.core.uint\pmc_inline_func.h

; 243  :         return (_addcarryx_u32(carry, u, v, w));

	mov	esi, 0

; 338  :         return (_FROMDWORDTOWORD((_UINT64_T)u * v, w_hi));

	mov	eax, DWORD PTR [eax]
	mul	DWORD PTR _v$[ebp]

; 243  :         return (_addcarryx_u32(carry, u, v, w));

	add	eax, DWORD PTR [ecx]
	adcx	edx, esi
	add	eax, DWORD PTR _k$[ebp]
; File z:\sources\lunor\repos\rougemeilland\palmtree.math.core.uint\palmtree.math.core.uint\pmc_multiply.c

; 66   :     *wp = t_lo;

	mov	DWORD PTR [ecx], eax
; File z:\sources\lunor\repos\rougemeilland\palmtree.math.core.uint\palmtree.math.core.uint\pmc_inline_func.h

; 243  :         return (_addcarryx_u32(carry, u, v, w));

	adcx	edx, esi
; File z:\sources\lunor\repos\rougemeilland\palmtree.math.core.uint\palmtree.math.core.uint\pmc_multiply.c

; 68   :     return (k);

	mov	eax, edx
	pop	esi

; 69   : }

	pop	ebp
	ret	0
__MULTIPLYX_DIGIT_UNIT ENDP
_TEXT	ENDS
; Function compile flags: /Ogtp
; File z:\sources\lunor\repos\rougemeilland\palmtree.math.core.uint\palmtree.math.core.uint\pmc_multiply.c
; File z:\sources\lunor\repos\rougemeilland\palmtree.math.core.uint\palmtree.math.core.uint\pmc_inline_func.h
; File z:\sources\lunor\repos\rougemeilland\palmtree.math.core.uint\palmtree.math.core.uint\pmc_multiply.c
; File z:\sources\lunor\repos\rougemeilland\palmtree.math.core.uint\palmtree.math.core.uint\pmc_inline_func.h
; File z:\sources\lunor\repos\rougemeilland\palmtree.math.core.uint\palmtree.math.core.uint\pmc_multiply.c
; File z:\sources\lunor\repos\rougemeilland\palmtree.math.core.uint\palmtree.math.core.uint\pmc_inline_func.h
; File z:\sources\lunor\repos\rougemeilland\palmtree.math.core.uint\palmtree.math.core.uint\pmc_multiply.c
;	COMDAT __MULTIPLY_DIGIT_UNIT
_TEXT	SEGMENT
_k$ = 8							; size = 4
_up$ = 12						; size = 4
_v$ = 16						; size = 4
_wp$ = 20						; size = 4
__MULTIPLY_DIGIT_UNIT PROC				; COMDAT

; 48   : {

	push	ebp
	mov	ebp, esp
; File z:\sources\lunor\repos\rougemeilland\palmtree.math.core.uint\palmtree.math.core.uint\pmc_inline_func.h

; 300  :         return (_FROMDWORDTOWORD((_UINT64_T)u * v, w_hi));

	mov	eax, DWORD PTR _up$[ebp]
; File z:\sources\lunor\repos\rougemeilland\palmtree.math.core.uint\palmtree.math.core.uint\pmc_multiply.c

; 52   :     _ADD_UNIT(_ADD_UNIT(0, t_lo, *wp, &t_lo), t_hi, 0, &t_hi);

	mov	ecx, DWORD PTR _wp$[ebp]
; File z:\sources\lunor\repos\rougemeilland\palmtree.math.core.uint\palmtree.math.core.uint\pmc_inline_func.h

; 300  :         return (_FROMDWORDTOWORD((_UINT64_T)u * v, w_hi));

	mov	eax, DWORD PTR [eax]
	mul	DWORD PTR _v$[ebp]

; 215  :         return (_addcarry_u32(carry, u, v, w));

	add	eax, DWORD PTR [ecx]
	adc	edx, 0
	add	eax, DWORD PTR _k$[ebp]
; File z:\sources\lunor\repos\rougemeilland\palmtree.math.core.uint\palmtree.math.core.uint\pmc_multiply.c

; 54   :     *wp = t_lo;

	mov	DWORD PTR [ecx], eax
; File z:\sources\lunor\repos\rougemeilland\palmtree.math.core.uint\palmtree.math.core.uint\pmc_inline_func.h

; 215  :         return (_addcarry_u32(carry, u, v, w));

	adc	edx, 0
; File z:\sources\lunor\repos\rougemeilland\palmtree.math.core.uint\palmtree.math.core.uint\pmc_multiply.c

; 56   :     return (k);

	mov	eax, edx

; 57   : }

	pop	ebp
	ret	0
__MULTIPLY_DIGIT_UNIT ENDP
_TEXT	ENDS
; Function compile flags: /Ogtp
; File z:\sources\lunor\repos\rougemeilland\palmtree.math.core.uint\palmtree.math.core.uint\pmc_inline_func.h
;	COMDAT __LZCNT_ALT_UNIT
_TEXT	SEGMENT
_x$ = 8							; size = 4
__LZCNT_ALT_UNIT PROC					; COMDAT

; 629  :     {

	push	ebp
	mov	ebp, esp

; 630  :         if (x == 0)

	mov	eax, DWORD PTR _x$[ebp]
	test	eax, eax
	jne	SHORT $LN2@LZCNT_ALT_

; 631  :             return (sizeof(x) * 8);

	mov	eax, 32					; 00000020H

; 655  :     }

	pop	ebp
	ret	0
$LN2@LZCNT_ALT_:

; 632  : #ifdef _M_IX86
; 633  :         _UINT32_T pos;
; 634  : #ifdef _MSC_VER
; 635  :         _BitScanReverse(&pos, x);

	bsr	ecx, eax

; 636  : #elif defined(__GNUC__)
; 637  :         __asm__("bsrl %1, %0" : "=r"(pos) : "rm"(x));
; 638  : #else
; 639  : #error unknown compiler
; 640  : #endif
; 641  : #elif defined(_M_X64)
; 642  : #ifdef _MSC_VER
; 643  :         _UINT32_T pos;
; 644  :         _BitScanReverse64(&pos, x);
; 645  : #elif defined(__GNUC__)
; 646  :         _UINT64_T pos;
; 647  :         __asm__("bsrq %1, %0" : "=r"(pos) : "rm"(x));
; 648  : #else
; 649  : #error unknown compiler
; 650  : #endif
; 651  : #else
; 652  : #error unknown platform
; 653  : #endif
; 654  :         return (sizeof(x) * 8 - 1 - pos);

	mov	eax, 31					; 0000001fH
	sub	eax, ecx

; 655  :     }

	pop	ebp
	ret	0
__LZCNT_ALT_UNIT ENDP
_TEXT	ENDS
; Function compile flags: /Ogtp
; File z:\sources\lunor\repos\rougemeilland\palmtree.math.core.uint\palmtree.math.core.uint\pmc_inline_func.h
;	COMDAT __LZCNT_ALT_32
_TEXT	SEGMENT
_x$ = 8							; size = 4
__LZCNT_ALT_32 PROC					; COMDAT

; 596  :     {

	push	ebp
	mov	ebp, esp

; 597  :         if (x == 0)

	mov	eax, DWORD PTR _x$[ebp]
	test	eax, eax
	jne	SHORT $LN2@LZCNT_ALT_

; 598  :             return (sizeof(x) * 8);

	mov	eax, 32					; 00000020H

; 608  :     }

	pop	ebp
	ret	0
$LN2@LZCNT_ALT_:

; 599  :         _UINT32_T pos;
; 600  : #ifdef _MSC_VER
; 601  :         _BitScanReverse(&pos, x);

	bsr	ecx, eax

; 602  : #elif defined(__GNUC__)
; 603  :         __asm__("bsrl %1, %0" : "=r"(pos) : "rm"(x));
; 604  : #else
; 605  : #error unknown compiler
; 606  : #endif
; 607  :         return (sizeof(x) * 8 - 1 - pos);

	mov	eax, 31					; 0000001fH
	sub	eax, ecx

; 608  :     }

	pop	ebp
	ret	0
__LZCNT_ALT_32 ENDP
_TEXT	ENDS
; Function compile flags: /Ogtp
; File z:\sources\lunor\repos\rougemeilland\palmtree.math.core.uint\palmtree.math.core.uint\pmc_inline_func.h
;	COMDAT __MULTIPLYX_UNIT
_TEXT	SEGMENT
_u$ = 8							; size = 4
_v$ = 12						; size = 4
_w_hi$ = 16						; size = 4
__MULTIPLYX_UNIT PROC					; COMDAT

; 335  :     {

	push	ebp
	mov	ebp, esp

; 336  : #ifdef _MSC_VER
; 337  : #ifdef _M_IX86
; 338  :         return (_FROMDWORDTOWORD((_UINT64_T)u * v, w_hi));

	mov	eax, DWORD PTR _u$[ebp]
	mul	DWORD PTR _v$[ebp]

; 183  :         *result_high = (_UINT32_T)(value >> 32);

	mov	ecx, DWORD PTR _w_hi$[ebp]
	mov	DWORD PTR [ecx], edx

; 339  : #elif defined(_M_X64)
; 340  :         return (_mulx_u64(u, v, w_hi));
; 341  : #else
; 342  : #error unknown platform
; 343  : #endif
; 344  : #elif defined(__GNUC__)
; 345  : #ifdef _M_IX86
; 346  :         _UINT32_T w_lo;
; 347  :         __asm__("mulxl %3, %0, %1" : "=r"(w_lo), "=r"(*w_hi), "+d"(u) : "rm"(v));
; 348  :         return (w_lo);
; 349  : #elif defined(_M_X64)
; 350  :         _UINT64_T w_lo;
; 351  :         __asm__("mulxq %3, %0, %1" : "=r"(w_lo), "=r"(*w_hi), "+d"(u) : "rm"(v));
; 352  :         return (w_lo);
; 353  : #else
; 354  : #error unknown platform
; 355  : #endif
; 356  : #else
; 357  : #error unknown compiler
; 358  : #endif
; 359  :     }

	pop	ebp
	ret	0
__MULTIPLYX_UNIT ENDP
_TEXT	ENDS
; Function compile flags: /Ogtp
; File z:\sources\lunor\repos\rougemeilland\palmtree.math.core.uint\palmtree.math.core.uint\pmc_inline_func.h
;	COMDAT __MULTIPLY_UNIT
_TEXT	SEGMENT
_u$ = 8							; size = 4
_v$ = 12						; size = 4
_w_hi$ = 16						; size = 4
__MULTIPLY_UNIT PROC					; COMDAT

; 297  :     {

	push	ebp
	mov	ebp, esp

; 298  : #ifdef _M_IX86
; 299  : #ifdef _MSC_VER
; 300  :         return (_FROMDWORDTOWORD((_UINT64_T)u * v, w_hi));

	mov	eax, DWORD PTR _u$[ebp]
	mul	DWORD PTR _v$[ebp]

; 183  :         *result_high = (_UINT32_T)(value >> 32);

	mov	ecx, DWORD PTR _w_hi$[ebp]
	mov	DWORD PTR [ecx], edx

; 301  : #elif defined(__GNUC__)
; 302  :         _UINT32_T w_lo;
; 303  :         __asm__("mull %3": "=a"(w_lo), "=d"(*w_hi) : "0"(u), "rm"(v));
; 304  :         return (w_lo);
; 305  : #else
; 306  : #error unknown compiler
; 307  : #endif
; 308  : #elif defined(_M_X64)
; 309  :         return (_umul128(u, v, w_hi));
; 310  : #else
; 311  : #error unknown platform
; 312  : #endif
; 313  :     }

	pop	ebp
	ret	0
__MULTIPLY_UNIT ENDP
_TEXT	ENDS
; Function compile flags: /Ogtp
; File z:\sources\lunor\repos\rougemeilland\palmtree.math.core.uint\palmtree.math.core.uint\pmc_inline_func.h
;	COMDAT __ADDX_UNIT
_TEXT	SEGMENT
_carry$ = 8						; size = 1
_u$ = 12						; size = 4
_v$ = 16						; size = 4
_w$ = 20						; size = 4
__ADDX_UNIT PROC					; COMDAT

; 241  :     {

	push	ebp
	mov	ebp, esp

; 242  : #ifdef _M_IX86
; 243  :         return (_addcarryx_u32(carry, u, v, w));

	mov	al, BYTE PTR _carry$[ebp]
	mov	edx, DWORD PTR _w$[ebp]
	add	al, 255					; 000000ffH
	mov	ecx, DWORD PTR _u$[ebp]
	adcx	ecx, DWORD PTR _v$[ebp]
	setb	al
	mov	DWORD PTR [edx], ecx

; 244  : #elif defined(_M_X64)
; 245  :         return (_addcarryx_u64(carry, u, v, w));
; 246  : #else
; 247  : #error unknown platform
; 248  : #endif
; 249  :     }

	pop	ebp
	ret	0
__ADDX_UNIT ENDP
_TEXT	ENDS
; Function compile flags: /Ogtp
; File z:\sources\lunor\repos\rougemeilland\palmtree.math.core.uint\palmtree.math.core.uint\pmc_inline_func.h
;	COMDAT __ADD_UNIT
_TEXT	SEGMENT
_carry$ = 8						; size = 1
_u$ = 12						; size = 4
_v$ = 16						; size = 4
_w$ = 20						; size = 4
__ADD_UNIT PROC						; COMDAT

; 213  :     {

	push	ebp
	mov	ebp, esp

; 214  : #ifdef _M_IX86
; 215  :         return (_addcarry_u32(carry, u, v, w));

	mov	al, BYTE PTR _carry$[ebp]
	mov	edx, DWORD PTR _w$[ebp]
	add	al, 255					; 000000ffH
	mov	ecx, DWORD PTR _u$[ebp]
	adc	ecx, DWORD PTR _v$[ebp]
	setb	al
	mov	DWORD PTR [edx], ecx

; 216  : #elif defined(_M_X64)
; 217  :         return (_addcarry_u64(carry, u, v, w));
; 218  : #else
; 219  : #error unknown platform
; 220  : #endif
; 221  :     }

	pop	ebp
	ret	0
__ADD_UNIT ENDP
_TEXT	ENDS
; Function compile flags: /Ogtp
; File z:\sources\lunor\repos\rougemeilland\palmtree.math.core.uint\palmtree.math.core.uint\pmc_inline_func.h
;	COMDAT __FROMDWORDTOWORD
_TEXT	SEGMENT
_value$ = 8						; size = 8
_result_high$ = 16					; size = 4
__FROMDWORDTOWORD PROC					; COMDAT

; 182  :     {

	push	ebp
	mov	ebp, esp

; 183  :         *result_high = (_UINT32_T)(value >> 32);

	mov	eax, DWORD PTR _result_high$[ebp]
	mov	ecx, DWORD PTR _value$[ebp+4]
	mov	DWORD PTR [eax], ecx

; 184  :         return ((_UINT32_T)value);

	mov	eax, DWORD PTR _value$[ebp]

; 185  :     }

	pop	ebp
	ret	0
__FROMDWORDTOWORD ENDP
_TEXT	ENDS
; Function compile flags: /Ogtp
; File z:\sources\lunor\repos\rougemeilland\palmtree.math.core.uint\palmtree.math.core.uint\pmc_uint_internal.h
;	COMDAT _AddToMULTI64Counter
_TEXT	SEGMENT
_value$ = 8						; size = 4
_AddToMULTI64Counter PROC				; COMDAT

; 357  :     {

	push	ebp
	mov	ebp, esp

; 358  :         _InterlockedExchangeAdd(&statistics_info.COUNT_MULTI64, value);

	mov	eax, DWORD PTR _value$[ebp]
	mov	ecx, OFFSET _statistics_info
	lock	 xadd	 DWORD PTR [ecx], eax

; 359  :     }

	pop	ebp
	ret	0
_AddToMULTI64Counter ENDP
_TEXT	ENDS
; Function compile flags: /Ogtp
; File z:\sources\lunor\repos\rougemeilland\palmtree.math.core.uint\palmtree.math.core.uint\pmc_uint_internal.h
;	COMDAT _AddToMULTI32Counter
_TEXT	SEGMENT
_value$ = 8						; size = 4
_AddToMULTI32Counter PROC				; COMDAT

; 351  :     {

	push	ebp
	mov	ebp, esp

; 352  :         _InterlockedExchangeAdd(&statistics_info.COUNT_MULTI32, value);

	mov	eax, DWORD PTR _value$[ebp]
	mov	ecx, OFFSET _statistics_info+4
	lock	 xadd	 DWORD PTR [ecx], eax

; 353  :     }

	pop	ebp
	ret	0
_AddToMULTI32Counter ENDP
_TEXT	ENDS
; Function compile flags: /Ogtp
; File z:\sources\lunor\repos\rougemeilland\palmtree.math.core.uint\palmtree.math.core.uint\pmc_uint_internal.h
;	COMDAT _IncrementMULTI64Counter
_TEXT	SEGMENT
_IncrementMULTI64Counter PROC				; COMDAT

; 335  :         _InterlockedIncrement(&statistics_info.COUNT_MULTI64);

	lock	 inc	 (null) PTR _statistics_info

; 336  :     }

	ret	0
_IncrementMULTI64Counter ENDP
_TEXT	ENDS
; Function compile flags: /Ogtp
; File z:\sources\lunor\repos\rougemeilland\palmtree.math.core.uint\palmtree.math.core.uint\pmc_uint_internal.h
;	COMDAT _IncrementMULTI32Counter
_TEXT	SEGMENT
_IncrementMULTI32Counter PROC				; COMDAT

; 329  :         _InterlockedIncrement(&statistics_info.COUNT_MULTI32);

	lock	 inc	 (null) PTR _statistics_info+4

; 330  :     }

	ret	0
_IncrementMULTI32Counter ENDP
_TEXT	ENDS
; Function compile flags: /Ogtp
; File z:\sources\lunor\repos\rougemeilland\palmtree.math.core.uint\palmtree.math.core.uint\pmc_multiply.c
;	COMDAT _PMC_Multiply_X_X@12
_TEXT	SEGMENT
_nw$ = 8						; size = 4
_u$ = 8							; size = 4
_w_light_check_code$1 = 12				; size = 4
_v$ = 12						; size = 4
_w$ = 16						; size = 4
_PMC_Multiply_X_X@12 PROC				; COMDAT

; 705  : {

	push	ebp
	mov	ebp, esp
	push	ebx
	push	esi

; 706  :     if (u == NULL)

	mov	esi, DWORD PTR _u$[ebp]
	push	edi
	test	esi, esi
	je	$LN22@PMC_Multip

; 707  :         return (PMC_STATUS_ARGUMENT_ERROR);
; 708  :     if (v == NULL)

	mov	ebx, DWORD PTR _v$[ebp]
	test	ebx, ebx
	je	$LN22@PMC_Multip

; 709  :         return (PMC_STATUS_ARGUMENT_ERROR);
; 710  :     if (w == NULL)

	mov	edi, DWORD PTR _w$[ebp]
	test	edi, edi
	je	$LN22@PMC_Multip

; 712  :     NUMBER_HEADER* nu = (NUMBER_HEADER*)u;
; 713  :     NUMBER_HEADER* nv = (NUMBER_HEADER*)v;
; 714  :     PMC_STATUS_CODE result;
; 715  :     if ((result = CheckNumber(nu)) != PMC_STATUS_OK)

	push	esi
	call	_CheckNumber
	add	esp, 4
	test	eax, eax
	jne	$LN1@PMC_Multip

; 716  :         return (result);
; 717  :     if ((result = CheckNumber(nv)) != PMC_STATUS_OK)

	push	ebx
	call	_CheckNumber
	add	esp, 4
	test	eax, eax
	jne	$LN1@PMC_Multip

; 718  :         return (result);
; 719  :     NUMBER_HEADER* nw;
; 720  :     if (nu->IS_ZERO)

	mov	ecx, DWORD PTR [esi+24]
	test	cl, 2
	je	SHORT $LN7@PMC_Multip
$LN26@PMC_Multip:

; 781  :         }
; 782  :         *w = nw;
; 783  :     }
; 784  : #ifdef _DEBUG
; 785  :     if ((result = CheckNumber(*w)) != PMC_STATUS_OK)
; 786  :         return (result);
; 787  : #endif
; 788  :     return (PMC_STATUS_OK);

	mov	DWORD PTR [edi], OFFSET _number_zero
	xor	eax, eax
	pop	edi

; 789  : }

	pop	esi
	pop	ebx
	pop	ebp
	ret	12					; 0000000cH
$LN7@PMC_Multip:

; 721  :     {
; 722  :         // x が 0 である場合
; 723  : 
; 724  :         // y の値にかかわらず 0 を返す。
; 725  :         *w = &number_zero;
; 726  :     }
; 727  :     else if (nu->IS_ONE)

	mov	edx, DWORD PTR [ebx+24]
	mov	eax, edx
	and	eax, 2
	test	cl, 4
	je	SHORT $LN9@PMC_Multip

; 728  :     {
; 729  :         // x が 1 である場合
; 730  :         if (nv->IS_ZERO)

	test	eax, eax
	jne	SHORT $LN26@PMC_Multip

; 731  :         {
; 732  :             // y が 0 である場合
; 733  : 
; 734  :             //  0  を返す。
; 735  :             *w = &number_zero;
; 736  :         }
; 737  :         else
; 738  :         {
; 739  :             // y が 0 ではない場合
; 740  : 
; 741  :             // 乗算結果は y に等しいため、y の値を持つ NUMBER_HEADER 構造体を獲得し、呼び出し元へ返す。
; 742  :             if ((result = DuplicateNumber(nv, &nw)) != PMC_STATUS_OK)

	lea	eax, DWORD PTR _nw$[ebp]
	push	eax
	push	ebx
$LN25@PMC_Multip:

; 781  :         }
; 782  :         *w = nw;
; 783  :     }
; 784  : #ifdef _DEBUG
; 785  :     if ((result = CheckNumber(*w)) != PMC_STATUS_OK)
; 786  :         return (result);
; 787  : #endif
; 788  :     return (PMC_STATUS_OK);

	call	_DuplicateNumber
	add	esp, 8
	test	eax, eax
	jne	$LN1@PMC_Multip
	mov	eax, DWORD PTR _nw$[ebp]
	mov	DWORD PTR [edi], eax
	xor	eax, eax
	pop	edi

; 789  : }

	pop	esi
	pop	ebx
	pop	ebp
	ret	12					; 0000000cH
$LN9@PMC_Multip:

; 743  :                 return (result);
; 744  :             *w = nw;
; 745  :         }
; 746  :     }
; 747  :     else
; 748  :     {
; 749  :         // x が 0 と 1 のどちらでもない場合
; 750  : 
; 751  :         if (nv->IS_ZERO)

	test	eax, eax
	je	SHORT $LN14@PMC_Multip

; 752  :         {
; 753  :             // y が 0 である場合
; 754  : 
; 755  :             //  0  を返す。
; 756  :             nw = &number_zero;

	mov	eax, OFFSET _number_zero

; 781  :         }
; 782  :         *w = nw;
; 783  :     }
; 784  : #ifdef _DEBUG
; 785  :     if ((result = CheckNumber(*w)) != PMC_STATUS_OK)
; 786  :         return (result);
; 787  : #endif
; 788  :     return (PMC_STATUS_OK);

	mov	DWORD PTR [edi], eax
	xor	eax, eax
	pop	edi

; 789  : }

	pop	esi
	pop	ebx
	pop	ebp
	ret	12					; 0000000cH
$LN14@PMC_Multip:

; 757  :         }
; 758  :         else if (nv->IS_ONE)

	test	dl, 4
	je	SHORT $LN16@PMC_Multip

; 759  :         {
; 760  :             // y が 1 である場合
; 761  : 
; 762  :             // 乗算結果は x に等しいため、x の値を持つ NUMBER_HEADER 構造体を獲得し、呼び出し元へ返す。
; 763  :             if ((result = DuplicateNumber(nu, &nw)) != PMC_STATUS_OK)

	lea	eax, DWORD PTR _nw$[ebp]
	push	eax
	push	esi
	jmp	SHORT $LN25@PMC_Multip
$LN16@PMC_Multip:

; 764  :                 return (result);
; 765  :         }
; 766  :         else
; 767  :         {
; 768  :             // x と y がともに 0 、1 のどちらでもない場合
; 769  : 
; 770  :             // x と y の積を計算する
; 771  :             __UNIT_TYPE u_bit_count = nu->UNIT_BIT_COUNT;
; 772  :             __UNIT_TYPE v_bit_count = nv->UNIT_BIT_COUNT;
; 773  :             __UNIT_TYPE w_bit_count = u_bit_count + v_bit_count;

	mov	eax, DWORD PTR [esi+12]

; 774  :             __UNIT_TYPE w_light_check_code;
; 775  :             if ((result = AllocateNumber(&nw, w_bit_count, &w_light_check_code)) != PMC_STATUS_OK)

	lea	ecx, DWORD PTR _w_light_check_code$1[ebp]
	add	eax, DWORD PTR [ebx+12]
	push	ecx
	push	eax
	lea	eax, DWORD PTR _nw$[ebp]
	push	eax
	call	_AllocateNumber
	add	esp, 12					; 0000000cH
	test	eax, eax
	jne	SHORT $LN1@PMC_Multip

; 776  :                 return (result);
; 777  :             (*fp_Multiply_X_X)(nu->BLOCK, nu->UNIT_WORD_COUNT, nv->BLOCK, nv->UNIT_WORD_COUNT, nw->BLOCK);

	mov	eax, DWORD PTR _nw$[ebp]
	push	DWORD PTR [eax+32]
	push	DWORD PTR [ebx+8]
	push	DWORD PTR [ebx+32]
	push	DWORD PTR [esi+8]
	push	DWORD PTR [esi+32]
	call	DWORD PTR _fp_Multiply_X_X

; 778  :             if ((result = CheckBlockLight(nw->BLOCK, w_light_check_code)) != PMC_STATUS_OK)

	mov	eax, DWORD PTR _nw$[ebp]
	push	DWORD PTR _w_light_check_code$1[ebp]
	push	DWORD PTR [eax+32]
	call	_CheckBlockLight
	add	esp, 28					; 0000001cH
	test	eax, eax
	jne	SHORT $LN1@PMC_Multip

; 779  :                 return (result);
; 780  :             CommitNumber(nw);

	push	DWORD PTR _nw$[ebp]
	call	_CommitNumber

; 781  :         }
; 782  :         *w = nw;
; 783  :     }
; 784  : #ifdef _DEBUG
; 785  :     if ((result = CheckNumber(*w)) != PMC_STATUS_OK)
; 786  :         return (result);
; 787  : #endif
; 788  :     return (PMC_STATUS_OK);

	mov	eax, DWORD PTR _nw$[ebp]
	add	esp, 4
	mov	DWORD PTR [edi], eax
	xor	eax, eax
	pop	edi

; 789  : }

	pop	esi
	pop	ebx
	pop	ebp
	ret	12					; 0000000cH
$LN22@PMC_Multip:

; 711  :         return (PMC_STATUS_ARGUMENT_ERROR);

	or	eax, -1
$LN1@PMC_Multip:
	pop	edi

; 789  : }

	pop	esi
	pop	ebx
	pop	ebp
	ret	12					; 0000000cH
_PMC_Multiply_X_X@12 ENDP
_TEXT	ENDS
; Function compile flags: /Ogtp
; File z:\sources\lunor\repos\rougemeilland\palmtree.math.core.uint\palmtree.math.core.uint\pmc_multiply.c
;	COMDAT _PMC_Multiply_X_L@16
_TEXT	SEGMENT
_u$ = 8							; size = 4
_v$ = 12						; size = 8
_w$ = 20						; size = 4
_PMC_Multiply_X_L@16 PROC				; COMDAT

; 682  : {

	push	ebp
	mov	ebp, esp
	push	esi

; 683  :     if (__UNIT_TYPE_BIT_COUNT * 2 < sizeof(v) * 8)
; 684  :     {
; 685  :         // _UINT64_T が 2 ワードで表現しきれない処理系には対応しない
; 686  :         return (PMC_STATUS_INTERNAL_ERROR);
; 687  :     }
; 688  :     if (u == NULL)

	mov	esi, DWORD PTR _u$[ebp]
	test	esi, esi
	je	SHORT $LN8@PMC_Multip

; 689  :         return (PMC_STATUS_ARGUMENT_ERROR);
; 690  :     if (w == NULL)

	cmp	DWORD PTR _w$[ebp], 0
	je	SHORT $LN8@PMC_Multip

; 692  :     PMC_STATUS_CODE result;
; 693  :     if ((result = CheckNumber((NUMBER_HEADER*)u)) != PMC_STATUS_OK)

	push	esi
	call	_CheckNumber
	add	esp, 4
	test	eax, eax
	jne	SHORT $LN6@PMC_Multip

; 694  :         return (result);
; 695  :     if ((result = PMC_Multiply_X_L_Imp((NUMBER_HEADER*)u, v, (NUMBER_HEADER**)w)) != PMC_STATUS_OK)

	push	DWORD PTR _w$[ebp]
	push	DWORD PTR _v$[ebp+4]
	push	DWORD PTR _v$[ebp]
	push	esi
	call	_PMC_Multiply_X_L_Imp
	add	esp, 16					; 00000010H
	pop	esi

; 696  :         return (result);
; 697  : #ifdef _DEBUG
; 698  :     if ((result = CheckNumber(*w)) != PMC_STATUS_OK)
; 699  :         return (result);
; 700  : #endif
; 701  :     return (PMC_STATUS_OK);
; 702  : }

	pop	ebp
	ret	16					; 00000010H
$LN8@PMC_Multip:

; 691  :         return (PMC_STATUS_ARGUMENT_ERROR);

	or	eax, -1
$LN6@PMC_Multip:
	pop	esi

; 696  :         return (result);
; 697  : #ifdef _DEBUG
; 698  :     if ((result = CheckNumber(*w)) != PMC_STATUS_OK)
; 699  :         return (result);
; 700  : #endif
; 701  :     return (PMC_STATUS_OK);
; 702  : }

	pop	ebp
	ret	16					; 00000010H
_PMC_Multiply_X_L@16 ENDP
_TEXT	ENDS
; Function compile flags: /Ogtp
; File z:\sources\lunor\repos\rougemeilland\palmtree.math.core.uint\palmtree.math.core.uint\pmc_multiply.c
;	COMDAT _PMC_Multiply_X_I@12
_TEXT	SEGMENT
_u$ = 8							; size = 4
_v$ = 12						; size = 4
_w$ = 16						; size = 4
_PMC_Multiply_X_I@12 PROC				; COMDAT

; 530  : {

	push	ebp
	mov	ebp, esp
	push	esi

; 531  :     if (__UNIT_TYPE_BIT_COUNT < sizeof(v) * 8)
; 532  :     {
; 533  :         // _UINT32_T が 1 ワードで表現しきれない処理系には対応しない
; 534  :         return (PMC_STATUS_INTERNAL_ERROR);
; 535  :     }
; 536  :     if (u == NULL)

	mov	esi, DWORD PTR _u$[ebp]
	test	esi, esi
	je	SHORT $LN8@PMC_Multip

; 537  :         return (PMC_STATUS_ARGUMENT_ERROR);
; 538  :     if (w == NULL)

	cmp	DWORD PTR _w$[ebp], 0
	je	SHORT $LN8@PMC_Multip

; 540  :     PMC_STATUS_CODE result;
; 541  :     if ((result = CheckNumber((NUMBER_HEADER*)u)) != PMC_STATUS_OK)

	push	esi
	call	_CheckNumber
	add	esp, 4
	test	eax, eax
	jne	SHORT $LN6@PMC_Multip

; 542  :         return (result);
; 543  :     if ((result = PMC_Multiply_X_I_Imp((NUMBER_HEADER*)u, v, (NUMBER_HEADER**)w)) != PMC_STATUS_OK)

	push	DWORD PTR _w$[ebp]
	push	DWORD PTR _v$[ebp]
	push	esi
	call	_PMC_Multiply_X_I_Imp
	add	esp, 12					; 0000000cH
	pop	esi

; 544  :         return (result);
; 545  : #ifdef _DEBUG
; 546  :     if ((result = CheckNumber(*w)) != PMC_STATUS_OK)
; 547  :         return (result);
; 548  : #endif
; 549  :     return (PMC_STATUS_OK);
; 550  : }

	pop	ebp
	ret	12					; 0000000cH
$LN8@PMC_Multip:

; 539  :         return (PMC_STATUS_ARGUMENT_ERROR);

	or	eax, -1
$LN6@PMC_Multip:
	pop	esi

; 544  :         return (result);
; 545  : #ifdef _DEBUG
; 546  :     if ((result = CheckNumber(*w)) != PMC_STATUS_OK)
; 547  :         return (result);
; 548  : #endif
; 549  :     return (PMC_STATUS_OK);
; 550  : }

	pop	ebp
	ret	12					; 0000000cH
_PMC_Multiply_X_I@12 ENDP
_TEXT	ENDS
; Function compile flags: /Ogtp
; File z:\sources\lunor\repos\rougemeilland\palmtree.math.core.uint\palmtree.math.core.uint\pmc_multiply.c
;	COMDAT _PMC_Multiply_L_X@16
_TEXT	SEGMENT
_u$ = 8							; size = 8
_v$ = 16						; size = 4
_w$ = 20						; size = 4
_PMC_Multiply_L_X@16 PROC				; COMDAT

; 659  : {

	push	ebp
	mov	ebp, esp
	push	esi

; 660  :     if (__UNIT_TYPE_BIT_COUNT * 2 < sizeof(u) * 8)
; 661  :     {
; 662  :         // _UINT64_T が 2 ワードで表現しきれない処理系には対応しない
; 663  :         return (PMC_STATUS_INTERNAL_ERROR);
; 664  :     }
; 665  :     if (v == NULL)

	mov	esi, DWORD PTR _v$[ebp]
	test	esi, esi
	je	SHORT $LN8@PMC_Multip

; 666  :         return (PMC_STATUS_ARGUMENT_ERROR);
; 667  :     if (w == NULL)

	cmp	DWORD PTR _w$[ebp], 0
	je	SHORT $LN8@PMC_Multip

; 669  :     PMC_STATUS_CODE result;
; 670  :     if ((result = CheckNumber((NUMBER_HEADER*)v)) != PMC_STATUS_OK)

	push	esi
	call	_CheckNumber
	add	esp, 4
	test	eax, eax
	jne	SHORT $LN6@PMC_Multip

; 671  :         return (result);
; 672  :     if ((result = PMC_Multiply_X_L_Imp((NUMBER_HEADER*)v, u, (NUMBER_HEADER**)w)) != PMC_STATUS_OK)

	push	DWORD PTR _w$[ebp]
	push	DWORD PTR _u$[ebp+4]
	push	DWORD PTR _u$[ebp]
	push	esi
	call	_PMC_Multiply_X_L_Imp
	add	esp, 16					; 00000010H
	pop	esi

; 673  :         return (result);
; 674  : #ifdef _DEBUG
; 675  :     if ((result = CheckNumber(*w)) != PMC_STATUS_OK)
; 676  :         return (result);
; 677  : #endif
; 678  :     return (PMC_STATUS_OK);
; 679  : }

	pop	ebp
	ret	16					; 00000010H
$LN8@PMC_Multip:

; 668  :         return (PMC_STATUS_ARGUMENT_ERROR);

	or	eax, -1
$LN6@PMC_Multip:
	pop	esi

; 673  :         return (result);
; 674  : #ifdef _DEBUG
; 675  :     if ((result = CheckNumber(*w)) != PMC_STATUS_OK)
; 676  :         return (result);
; 677  : #endif
; 678  :     return (PMC_STATUS_OK);
; 679  : }

	pop	ebp
	ret	16					; 00000010H
_PMC_Multiply_L_X@16 ENDP
_TEXT	ENDS
; Function compile flags: /Ogtp
; File z:\sources\lunor\repos\rougemeilland\palmtree.math.core.uint\palmtree.math.core.uint\pmc_multiply.c
;	COMDAT _PMC_Multiply_I_X@12
_TEXT	SEGMENT
_u$ = 8							; size = 4
_v$ = 12						; size = 4
_w$ = 16						; size = 4
_PMC_Multiply_I_X@12 PROC				; COMDAT

; 507  : {

	push	ebp
	mov	ebp, esp
	push	esi

; 508  :     if (__UNIT_TYPE_BIT_COUNT < sizeof(u) * 8)
; 509  :     {
; 510  :         // _UINT32_T が 1 ワードで表現しきれない処理系には対応しない
; 511  :         return (PMC_STATUS_INTERNAL_ERROR);
; 512  :     }
; 513  :     if (v == NULL)

	mov	esi, DWORD PTR _v$[ebp]
	test	esi, esi
	je	SHORT $LN8@PMC_Multip

; 514  :         return (PMC_STATUS_ARGUMENT_ERROR);
; 515  :     if (w == NULL)

	cmp	DWORD PTR _w$[ebp], 0
	je	SHORT $LN8@PMC_Multip

; 517  :     PMC_STATUS_CODE result;
; 518  :     if ((result = CheckNumber((NUMBER_HEADER*)v)) != PMC_STATUS_OK)

	push	esi
	call	_CheckNumber
	add	esp, 4
	test	eax, eax
	jne	SHORT $LN6@PMC_Multip

; 519  :         return (result);
; 520  :     if ((result = PMC_Multiply_X_I_Imp((NUMBER_HEADER*)v, u, (NUMBER_HEADER**)w)) != PMC_STATUS_OK)

	push	DWORD PTR _w$[ebp]
	push	DWORD PTR _u$[ebp]
	push	esi
	call	_PMC_Multiply_X_I_Imp
	add	esp, 12					; 0000000cH
	pop	esi

; 521  :         return (result);
; 522  : #ifdef _DEBUG
; 523  :     if ((result = CheckNumber(*w)) != PMC_STATUS_OK)
; 524  :         return (result);
; 525  : #endif
; 526  :     return (PMC_STATUS_OK);
; 527  : }

	pop	ebp
	ret	12					; 0000000cH
$LN8@PMC_Multip:

; 516  :         return (PMC_STATUS_ARGUMENT_ERROR);

	or	eax, -1
$LN6@PMC_Multip:
	pop	esi

; 521  :         return (result);
; 522  : #ifdef _DEBUG
; 523  :     if ((result = CheckNumber(*w)) != PMC_STATUS_OK)
; 524  :         return (result);
; 525  : #endif
; 526  :     return (PMC_STATUS_OK);
; 527  : }

	pop	ebp
	ret	12					; 0000000cH
_PMC_Multiply_I_X@12 ENDP
_TEXT	ENDS
; Function compile flags: /Ogtp
; File z:\sources\lunor\repos\rougemeilland\palmtree.math.core.uint\palmtree.math.core.uint\pmc_multiply.c
;	COMDAT _Initialize_Multiply
_TEXT	SEGMENT
_feature$ = 8						; size = 4
_Initialize_Multiply PROC				; COMDAT

; 792  : {

	push	ebp
	mov	ebp, esp
	mov	eax, DWORD PTR _feature$[ebp]

; 793  :     if (feature->PROCESSOR_FEATURE_ADX && feature->PROCESSOR_FEATURE_BMI2)
; 794  :     {
; 795  :         fp_Multiply_X_1W = Multiply_X_1W_using_MULX_ADCX;
; 796  :         fp_Multiply_X_2W = Multiply_X_2W_using_MULX_ADCX;
; 797  :         fp_Multiply_X_X = Multiply_X_X_using_MULX_ADCX;
; 798  :     }
; 799  :     else
; 800  :     {
; 801  :         fp_Multiply_X_1W = Multiply_X_1W_using_MUL_ADC;
; 802  :         fp_Multiply_X_2W = Multiply_X_2W_using_MUL_ADC;
; 803  :         fp_Multiply_X_X = Multiply_X_X_using_MUL_ADC;
; 804  :     }
; 805  :     return (PMC_STATUS_OK);

	mov	edx, OFFSET _Multiply_X_1W_using_MUL_ADC
	mov	ecx, DWORD PTR [eax]
	mov	eax, OFFSET _Multiply_X_1W_using_MULX_ADCX
	and	ecx, 10					; 0000000aH
	cmp	ecx, 10					; 0000000aH
	cmovne	eax, edx
	mov	edx, OFFSET _Multiply_X_2W_using_MUL_ADC
	mov	DWORD PTR _fp_Multiply_X_1W, eax
	mov	eax, OFFSET _Multiply_X_2W_using_MULX_ADCX
	cmovne	eax, edx
	mov	edx, OFFSET _Multiply_X_X_using_MUL_ADC
	mov	DWORD PTR _fp_Multiply_X_2W, eax
	mov	eax, OFFSET _Multiply_X_X_using_MULX_ADCX
	cmovne	eax, edx
	mov	DWORD PTR _fp_Multiply_X_X, eax
	xor	eax, eax

; 806  : }

	pop	ebp
	ret	0
_Initialize_Multiply ENDP
_TEXT	ENDS
; Function compile flags: /Ogtp
; File z:\sources\lunor\repos\rougemeilland\palmtree.math.core.uint\palmtree.math.core.uint\pmc_multiply.c
;	COMDAT _Multiply_X_X_Imp
_TEXT	SEGMENT
_u$ = 8							; size = 4
_u_count$ = 12						; size = 4
_v$ = 16						; size = 4
_v_count$ = 20						; size = 4
_w$ = 24						; size = 4
_Multiply_X_X_Imp PROC					; COMDAT

; 44   :     (*fp_Multiply_X_X)(u, u_count,  v,  v_count,  w);

	jmp	DWORD PTR _fp_Multiply_X_X
_Multiply_X_X_Imp ENDP
_TEXT	ENDS
END
