; Listing generated by Microsoft (R) Optimizing Compiler Version 19.16.27027.1 

	TITLE	Z:\Sources\Lunor\Repos\rougemeilland\Palmtree.Math.Core.Uint\Palmtree.Math.Core.Uint\pmc_to.cpp
	.686P
	.XMM
	include listing.inc
	.model	flat

INCLUDELIB MSVCRT
INCLUDELIB OLDNAMES

PUBLIC	??1exception@std@@UAE@XZ			; std::exception::~exception
PUBLIC	?what@exception@std@@UBEPBDXZ			; std::exception::what
PUBLIC	??_Gexception@std@@UAEPAXI@Z			; std::exception::`scalar deleting destructor'
PUBLIC	??0Exception@Internal@Core@Math@Palmtree@@QAE@ABV01234@@Z ; Palmtree::Math::Core::Internal::Exception::Exception
PUBLIC	??1Exception@Internal@Core@Math@Palmtree@@UAE@XZ ; Palmtree::Math::Core::Internal::Exception::~Exception
PUBLIC	??_GException@Internal@Core@Math@Palmtree@@UAEPAXI@Z ; Palmtree::Math::Core::Internal::Exception::`scalar deleting destructor'
PUBLIC	??0OverflowException@Internal@Core@Math@Palmtree@@QAE@PB_W@Z ; Palmtree::Math::Core::Internal::OverflowException::OverflowException
PUBLIC	??0OverflowException@Internal@Core@Math@Palmtree@@QAE@ABV01234@@Z ; Palmtree::Math::Core::Internal::OverflowException::OverflowException
PUBLIC	??1OverflowException@Internal@Core@Math@Palmtree@@UAE@XZ ; Palmtree::Math::Core::Internal::OverflowException::~OverflowException
PUBLIC	??_GOverflowException@Internal@Core@Math@Palmtree@@UAEPAXI@Z ; Palmtree::Math::Core::Internal::OverflowException::`scalar deleting destructor'
PUBLIC	??1InternalErrorException@Internal@Core@Math@Palmtree@@UAE@XZ ; Palmtree::Math::Core::Internal::InternalErrorException::~InternalErrorException
PUBLIC	??_GInternalErrorException@Internal@Core@Math@Palmtree@@UAEPAXI@Z ; Palmtree::Math::Core::Internal::InternalErrorException::`scalar deleting destructor'
PUBLIC	?Initialize_To@Internal@Core@Math@Palmtree@@YAHPAU_tag_PROCESSOR_FEATURES@1234@@Z ; Palmtree::Math::Core::Internal::Initialize_To
PUBLIC	?PMC_To_X_I@Internal@Core@Math@Palmtree@@YGIPAU__tag_PMC_HANDLE_UINT@1234@@Z ; Palmtree::Math::Core::Internal::PMC_To_X_I
PUBLIC	?PMC_To_X_L@Internal@Core@Math@Palmtree@@YG_KPAU__tag_PMC_HANDLE_UINT@1234@@Z ; Palmtree::Math::Core::Internal::PMC_To_X_L
PUBLIC	??_7exception@std@@6B@				; std::exception::`vftable'
PUBLIC	??_C@_0BC@EOODALEL@Unknown?5exception@		; `string'
PUBLIC	??_7Exception@Internal@Core@Math@Palmtree@@6B@	; Palmtree::Math::Core::Internal::Exception::`vftable'
PUBLIC	??_7OverflowException@Internal@Core@Math@Palmtree@@6B@ ; Palmtree::Math::Core::Internal::OverflowException::`vftable'
PUBLIC	??_7InternalErrorException@Internal@Core@Math@Palmtree@@6B@ ; Palmtree::Math::Core::Internal::InternalErrorException::`vftable'
PUBLIC	??_R0?AVInternalErrorException@Internal@Core@Math@Palmtree@@@8 ; Palmtree::Math::Core::Internal::InternalErrorException `RTTI Type Descriptor'
PUBLIC	??_R0?AVException@Internal@Core@Math@Palmtree@@@8 ; Palmtree::Math::Core::Internal::Exception `RTTI Type Descriptor'
PUBLIC	__CT??_R0?AVException@Internal@Core@Math@Palmtree@@@8??0Exception@Internal@Core@Math@Palmtree@@QAE@ABV01234@@Z24
PUBLIC	__TI2?AVOverflowException@Internal@Core@Math@Palmtree@@
PUBLIC	__CTA2?AVOverflowException@Internal@Core@Math@Palmtree@@
PUBLIC	??_R0?AVOverflowException@Internal@Core@Math@Palmtree@@@8 ; Palmtree::Math::Core::Internal::OverflowException `RTTI Type Descriptor'
PUBLIC	__CT??_R0?AVOverflowException@Internal@Core@Math@Palmtree@@@8??0OverflowException@Internal@Core@Math@Palmtree@@QAE@ABV01234@@Z24
PUBLIC	??_C@_1CK@FCDNPBLF@?$AA3?$AA2?$AAb?$AAi?$AAt?$AAt?$AAp?$AAx?$AAn?$PP?$IL?$AA?7?$PP?$NL?$AAk?$AA1?$AAW@ ; `string'
PUBLIC	??_C@_1CK@EPAIANDA@?$AA6?$AA4?$AAb?$AAi?$AAt?$AAt?$AAp?$AAx?$AAn?$PP?$IL?$AA?7?$PP?$NL?$AAk?$AA1?$AAW@ ; `string'
PUBLIC	??_R4exception@std@@6B@				; std::exception::`RTTI Complete Object Locator'
PUBLIC	??_R0?AVexception@std@@@8			; std::exception `RTTI Type Descriptor'
PUBLIC	??_R3exception@std@@8				; std::exception::`RTTI Class Hierarchy Descriptor'
PUBLIC	??_R2exception@std@@8				; std::exception::`RTTI Base Class Array'
PUBLIC	??_R1A@?0A@EA@exception@std@@8			; std::exception::`RTTI Base Class Descriptor at (0,-1,0,64)'
PUBLIC	??_R4Exception@Internal@Core@Math@Palmtree@@6B@	; Palmtree::Math::Core::Internal::Exception::`RTTI Complete Object Locator'
PUBLIC	??_R3Exception@Internal@Core@Math@Palmtree@@8	; Palmtree::Math::Core::Internal::Exception::`RTTI Class Hierarchy Descriptor'
PUBLIC	??_R2Exception@Internal@Core@Math@Palmtree@@8	; Palmtree::Math::Core::Internal::Exception::`RTTI Base Class Array'
PUBLIC	??_R1A@?0A@EA@Exception@Internal@Core@Math@Palmtree@@8 ; Palmtree::Math::Core::Internal::Exception::`RTTI Base Class Descriptor at (0,-1,0,64)'
PUBLIC	??_R1A@?0A@EN@exception@std@@8			; std::exception::`RTTI Base Class Descriptor at (0,-1,0,77)'
PUBLIC	??_R4OverflowException@Internal@Core@Math@Palmtree@@6B@ ; Palmtree::Math::Core::Internal::OverflowException::`RTTI Complete Object Locator'
PUBLIC	??_R3OverflowException@Internal@Core@Math@Palmtree@@8 ; Palmtree::Math::Core::Internal::OverflowException::`RTTI Class Hierarchy Descriptor'
PUBLIC	??_R2OverflowException@Internal@Core@Math@Palmtree@@8 ; Palmtree::Math::Core::Internal::OverflowException::`RTTI Base Class Array'
PUBLIC	??_R1A@?0A@EA@OverflowException@Internal@Core@Math@Palmtree@@8 ; Palmtree::Math::Core::Internal::OverflowException::`RTTI Base Class Descriptor at (0,-1,0,64)'
PUBLIC	??_R4InternalErrorException@Internal@Core@Math@Palmtree@@6B@ ; Palmtree::Math::Core::Internal::InternalErrorException::`RTTI Complete Object Locator'
PUBLIC	??_R3InternalErrorException@Internal@Core@Math@Palmtree@@8 ; Palmtree::Math::Core::Internal::InternalErrorException::`RTTI Class Hierarchy Descriptor'
PUBLIC	??_R2InternalErrorException@Internal@Core@Math@Palmtree@@8 ; Palmtree::Math::Core::Internal::InternalErrorException::`RTTI Base Class Array'
PUBLIC	??_R1A@?0A@EA@InternalErrorException@Internal@Core@Math@Palmtree@@8 ; Palmtree::Math::Core::Internal::InternalErrorException::`RTTI Base Class Descriptor at (0,-1,0,64)'
EXTRN	??3@YAXPAXI@Z:PROC				; operator delete
EXTRN	___std_exception_destroy:PROC
EXTRN	??_Eexception@std@@UAEPAXI@Z:PROC		; std::exception::`vector deleting destructor'
EXTRN	??_EException@Internal@Core@Math@Palmtree@@UAEPAXI@Z:PROC ; Palmtree::Math::Core::Internal::Exception::`vector deleting destructor'
EXTRN	??_EOverflowException@Internal@Core@Math@Palmtree@@UAEPAXI@Z:PROC ; Palmtree::Math::Core::Internal::OverflowException::`vector deleting destructor'
EXTRN	??_EInternalErrorException@Internal@Core@Math@Palmtree@@UAEPAXI@Z:PROC ; Palmtree::Math::Core::Internal::InternalErrorException::`vector deleting destructor'
EXTRN	?CheckNumber@Internal@Core@Math@Palmtree@@YAXPAU__tag_NUMBER_HEADER@1234@@Z:PROC ; Palmtree::Math::Core::Internal::CheckNumber
EXTRN	@__security_check_cookie@4:PROC
EXTRN	__CxxThrowException@8:PROC
EXTRN	___CxxFrameHandler3:PROC
EXTRN	??_7type_info@@6B@:QWORD			; type_info::`vftable'
EXTRN	___security_cookie:DWORD
;	COMDAT ??_R1A@?0A@EA@InternalErrorException@Internal@Core@Math@Palmtree@@8
rdata$r	SEGMENT
??_R1A@?0A@EA@InternalErrorException@Internal@Core@Math@Palmtree@@8 DD FLAT:??_R0?AVInternalErrorException@Internal@Core@Math@Palmtree@@@8 ; Palmtree::Math::Core::Internal::InternalErrorException::`RTTI Base Class Descriptor at (0,-1,0,64)'
	DD	02H
	DD	00H
	DD	0ffffffffH
	DD	00H
	DD	040H
	DD	FLAT:??_R3InternalErrorException@Internal@Core@Math@Palmtree@@8
rdata$r	ENDS
;	COMDAT ??_R2InternalErrorException@Internal@Core@Math@Palmtree@@8
rdata$r	SEGMENT
??_R2InternalErrorException@Internal@Core@Math@Palmtree@@8 DD FLAT:??_R1A@?0A@EA@InternalErrorException@Internal@Core@Math@Palmtree@@8 ; Palmtree::Math::Core::Internal::InternalErrorException::`RTTI Base Class Array'
	DD	FLAT:??_R1A@?0A@EA@Exception@Internal@Core@Math@Palmtree@@8
	DD	FLAT:??_R1A@?0A@EN@exception@std@@8
rdata$r	ENDS
;	COMDAT ??_R3InternalErrorException@Internal@Core@Math@Palmtree@@8
rdata$r	SEGMENT
??_R3InternalErrorException@Internal@Core@Math@Palmtree@@8 DD 00H ; Palmtree::Math::Core::Internal::InternalErrorException::`RTTI Class Hierarchy Descriptor'
	DD	00H
	DD	03H
	DD	FLAT:??_R2InternalErrorException@Internal@Core@Math@Palmtree@@8
rdata$r	ENDS
;	COMDAT ??_R4InternalErrorException@Internal@Core@Math@Palmtree@@6B@
rdata$r	SEGMENT
??_R4InternalErrorException@Internal@Core@Math@Palmtree@@6B@ DD 00H ; Palmtree::Math::Core::Internal::InternalErrorException::`RTTI Complete Object Locator'
	DD	00H
	DD	00H
	DD	FLAT:??_R0?AVInternalErrorException@Internal@Core@Math@Palmtree@@@8
	DD	FLAT:??_R3InternalErrorException@Internal@Core@Math@Palmtree@@8
rdata$r	ENDS
;	COMDAT ??_R1A@?0A@EA@OverflowException@Internal@Core@Math@Palmtree@@8
rdata$r	SEGMENT
??_R1A@?0A@EA@OverflowException@Internal@Core@Math@Palmtree@@8 DD FLAT:??_R0?AVOverflowException@Internal@Core@Math@Palmtree@@@8 ; Palmtree::Math::Core::Internal::OverflowException::`RTTI Base Class Descriptor at (0,-1,0,64)'
	DD	02H
	DD	00H
	DD	0ffffffffH
	DD	00H
	DD	040H
	DD	FLAT:??_R3OverflowException@Internal@Core@Math@Palmtree@@8
rdata$r	ENDS
;	COMDAT ??_R2OverflowException@Internal@Core@Math@Palmtree@@8
rdata$r	SEGMENT
??_R2OverflowException@Internal@Core@Math@Palmtree@@8 DD FLAT:??_R1A@?0A@EA@OverflowException@Internal@Core@Math@Palmtree@@8 ; Palmtree::Math::Core::Internal::OverflowException::`RTTI Base Class Array'
	DD	FLAT:??_R1A@?0A@EA@Exception@Internal@Core@Math@Palmtree@@8
	DD	FLAT:??_R1A@?0A@EN@exception@std@@8
rdata$r	ENDS
;	COMDAT ??_R3OverflowException@Internal@Core@Math@Palmtree@@8
rdata$r	SEGMENT
??_R3OverflowException@Internal@Core@Math@Palmtree@@8 DD 00H ; Palmtree::Math::Core::Internal::OverflowException::`RTTI Class Hierarchy Descriptor'
	DD	00H
	DD	03H
	DD	FLAT:??_R2OverflowException@Internal@Core@Math@Palmtree@@8
rdata$r	ENDS
;	COMDAT ??_R4OverflowException@Internal@Core@Math@Palmtree@@6B@
rdata$r	SEGMENT
??_R4OverflowException@Internal@Core@Math@Palmtree@@6B@ DD 00H ; Palmtree::Math::Core::Internal::OverflowException::`RTTI Complete Object Locator'
	DD	00H
	DD	00H
	DD	FLAT:??_R0?AVOverflowException@Internal@Core@Math@Palmtree@@@8
	DD	FLAT:??_R3OverflowException@Internal@Core@Math@Palmtree@@8
rdata$r	ENDS
;	COMDAT ??_R1A@?0A@EN@exception@std@@8
rdata$r	SEGMENT
??_R1A@?0A@EN@exception@std@@8 DD FLAT:??_R0?AVexception@std@@@8 ; std::exception::`RTTI Base Class Descriptor at (0,-1,0,77)'
	DD	00H
	DD	00H
	DD	0ffffffffH
	DD	00H
	DD	04dH
	DD	FLAT:??_R3exception@std@@8
rdata$r	ENDS
;	COMDAT ??_R1A@?0A@EA@Exception@Internal@Core@Math@Palmtree@@8
rdata$r	SEGMENT
??_R1A@?0A@EA@Exception@Internal@Core@Math@Palmtree@@8 DD FLAT:??_R0?AVException@Internal@Core@Math@Palmtree@@@8 ; Palmtree::Math::Core::Internal::Exception::`RTTI Base Class Descriptor at (0,-1,0,64)'
	DD	01H
	DD	00H
	DD	0ffffffffH
	DD	00H
	DD	040H
	DD	FLAT:??_R3Exception@Internal@Core@Math@Palmtree@@8
rdata$r	ENDS
;	COMDAT ??_R2Exception@Internal@Core@Math@Palmtree@@8
rdata$r	SEGMENT
??_R2Exception@Internal@Core@Math@Palmtree@@8 DD FLAT:??_R1A@?0A@EA@Exception@Internal@Core@Math@Palmtree@@8 ; Palmtree::Math::Core::Internal::Exception::`RTTI Base Class Array'
	DD	FLAT:??_R1A@?0A@EN@exception@std@@8
rdata$r	ENDS
;	COMDAT ??_R3Exception@Internal@Core@Math@Palmtree@@8
rdata$r	SEGMENT
??_R3Exception@Internal@Core@Math@Palmtree@@8 DD 00H	; Palmtree::Math::Core::Internal::Exception::`RTTI Class Hierarchy Descriptor'
	DD	00H
	DD	02H
	DD	FLAT:??_R2Exception@Internal@Core@Math@Palmtree@@8
rdata$r	ENDS
;	COMDAT ??_R4Exception@Internal@Core@Math@Palmtree@@6B@
rdata$r	SEGMENT
??_R4Exception@Internal@Core@Math@Palmtree@@6B@ DD 00H	; Palmtree::Math::Core::Internal::Exception::`RTTI Complete Object Locator'
	DD	00H
	DD	00H
	DD	FLAT:??_R0?AVException@Internal@Core@Math@Palmtree@@@8
	DD	FLAT:??_R3Exception@Internal@Core@Math@Palmtree@@8
rdata$r	ENDS
;	COMDAT ??_R1A@?0A@EA@exception@std@@8
rdata$r	SEGMENT
??_R1A@?0A@EA@exception@std@@8 DD FLAT:??_R0?AVexception@std@@@8 ; std::exception::`RTTI Base Class Descriptor at (0,-1,0,64)'
	DD	00H
	DD	00H
	DD	0ffffffffH
	DD	00H
	DD	040H
	DD	FLAT:??_R3exception@std@@8
rdata$r	ENDS
;	COMDAT ??_R2exception@std@@8
rdata$r	SEGMENT
??_R2exception@std@@8 DD FLAT:??_R1A@?0A@EA@exception@std@@8 ; std::exception::`RTTI Base Class Array'
rdata$r	ENDS
;	COMDAT ??_R3exception@std@@8
rdata$r	SEGMENT
??_R3exception@std@@8 DD 00H				; std::exception::`RTTI Class Hierarchy Descriptor'
	DD	00H
	DD	01H
	DD	FLAT:??_R2exception@std@@8
rdata$r	ENDS
;	COMDAT ??_R0?AVexception@std@@@8
data$r	SEGMENT
??_R0?AVexception@std@@@8 DD FLAT:??_7type_info@@6B@	; std::exception `RTTI Type Descriptor'
	DD	00H
	DB	'.?AVexception@std@@', 00H
data$r	ENDS
;	COMDAT ??_R4exception@std@@6B@
rdata$r	SEGMENT
??_R4exception@std@@6B@ DD 00H				; std::exception::`RTTI Complete Object Locator'
	DD	00H
	DD	00H
	DD	FLAT:??_R0?AVexception@std@@@8
	DD	FLAT:??_R3exception@std@@8
rdata$r	ENDS
;	COMDAT ??_C@_1CK@EPAIANDA@?$AA6?$AA4?$AAb?$AAi?$AAt?$AAt?$AAp?$AAx?$AAn?$PP?$IL?$AA?7?$PP?$NL?$AAk?$AA1?$AAW@
CONST	SEGMENT
??_C@_1CK@EPAIANDA@?$AA6?$AA4?$AAb?$AAi?$AAt?$AAt?$AAp?$AAx?$AAn?$PP?$IL?$AA?7?$PP?$NL?$AAk?$AA1?$AAW@ DB '6'
	DB	00H, '4', 00H, 'b', 00H, 'i', 00H, 't', 00H, 'tepex0n0', 08bH, 'W'
	DB	09H, 'Y', 0dbH, 'ck01YWeW0~0W0_0', 02H, '0', 00H, 00H ; `string'
CONST	ENDS
;	COMDAT ??_C@_1CK@FCDNPBLF@?$AA3?$AA2?$AAb?$AAi?$AAt?$AAt?$AAp?$AAx?$AAn?$PP?$IL?$AA?7?$PP?$NL?$AAk?$AA1?$AAW@
CONST	SEGMENT
??_C@_1CK@FCDNPBLF@?$AA3?$AA2?$AAb?$AAi?$AAt?$AAt?$AAp?$AAx?$AAn?$PP?$IL?$AA?7?$PP?$NL?$AAk?$AA1?$AAW@ DB '3'
	DB	00H, '2', 00H, 'b', 00H, 'i', 00H, 't', 00H, 'tepex0n0', 08bH, 'W'
	DB	09H, 'Y', 0dbH, 'ck01YWeW0~0W0_0', 02H, '0', 00H, 00H ; `string'
CONST	ENDS
;	COMDAT __CT??_R0?AVOverflowException@Internal@Core@Math@Palmtree@@@8??0OverflowException@Internal@Core@Math@Palmtree@@QAE@ABV01234@@Z24
xdata$x	SEGMENT
__CT??_R0?AVOverflowException@Internal@Core@Math@Palmtree@@@8??0OverflowException@Internal@Core@Math@Palmtree@@QAE@ABV01234@@Z24 DD 00H
	DD	FLAT:??_R0?AVOverflowException@Internal@Core@Math@Palmtree@@@8
	DD	00H
	DD	0ffffffffH
	ORG $+4
	DD	018H
	DD	FLAT:??0OverflowException@Internal@Core@Math@Palmtree@@QAE@ABV01234@@Z
xdata$x	ENDS
;	COMDAT ??_R0?AVOverflowException@Internal@Core@Math@Palmtree@@@8
data$r	SEGMENT
??_R0?AVOverflowException@Internal@Core@Math@Palmtree@@@8 DD FLAT:??_7type_info@@6B@ ; Palmtree::Math::Core::Internal::OverflowException `RTTI Type Descriptor'
	DD	00H
	DB	'.?AVOverflowException@Internal@Core@Math@Palmtree@@', 00H
data$r	ENDS
;	COMDAT __CTA2?AVOverflowException@Internal@Core@Math@Palmtree@@
xdata$x	SEGMENT
__CTA2?AVOverflowException@Internal@Core@Math@Palmtree@@ DD 02H
	DD	FLAT:__CT??_R0?AVOverflowException@Internal@Core@Math@Palmtree@@@8??0OverflowException@Internal@Core@Math@Palmtree@@QAE@ABV01234@@Z24
	DD	FLAT:__CT??_R0?AVException@Internal@Core@Math@Palmtree@@@8??0Exception@Internal@Core@Math@Palmtree@@QAE@ABV01234@@Z24
xdata$x	ENDS
;	COMDAT __TI2?AVOverflowException@Internal@Core@Math@Palmtree@@
xdata$x	SEGMENT
__TI2?AVOverflowException@Internal@Core@Math@Palmtree@@ DD 00H
	DD	FLAT:??1OverflowException@Internal@Core@Math@Palmtree@@UAE@XZ
	DD	00H
	DD	FLAT:__CTA2?AVOverflowException@Internal@Core@Math@Palmtree@@
xdata$x	ENDS
;	COMDAT __CT??_R0?AVException@Internal@Core@Math@Palmtree@@@8??0Exception@Internal@Core@Math@Palmtree@@QAE@ABV01234@@Z24
xdata$x	SEGMENT
__CT??_R0?AVException@Internal@Core@Math@Palmtree@@@8??0Exception@Internal@Core@Math@Palmtree@@QAE@ABV01234@@Z24 DD 00H
	DD	FLAT:??_R0?AVException@Internal@Core@Math@Palmtree@@@8
	DD	00H
	DD	0ffffffffH
	ORG $+4
	DD	018H
	DD	FLAT:??0Exception@Internal@Core@Math@Palmtree@@QAE@ABV01234@@Z
xdata$x	ENDS
;	COMDAT ??_R0?AVException@Internal@Core@Math@Palmtree@@@8
data$r	SEGMENT
??_R0?AVException@Internal@Core@Math@Palmtree@@@8 DD FLAT:??_7type_info@@6B@ ; Palmtree::Math::Core::Internal::Exception `RTTI Type Descriptor'
	DD	00H
	DB	'.?AVException@Internal@Core@Math@Palmtree@@', 00H
data$r	ENDS
;	COMDAT ??_R0?AVInternalErrorException@Internal@Core@Math@Palmtree@@@8
data$r	SEGMENT
??_R0?AVInternalErrorException@Internal@Core@Math@Palmtree@@@8 DD FLAT:??_7type_info@@6B@ ; Palmtree::Math::Core::Internal::InternalErrorException `RTTI Type Descriptor'
	DD	00H
	DB	'.?AVInternalErrorException@Internal@Core@Math@Palmtree@@'
	DB	00H
data$r	ENDS
;	COMDAT ??_7InternalErrorException@Internal@Core@Math@Palmtree@@6B@
CONST	SEGMENT
??_7InternalErrorException@Internal@Core@Math@Palmtree@@6B@ DD FLAT:??_R4InternalErrorException@Internal@Core@Math@Palmtree@@6B@ ; Palmtree::Math::Core::Internal::InternalErrorException::`vftable'
	DD	FLAT:??_EInternalErrorException@Internal@Core@Math@Palmtree@@UAEPAXI@Z
	DD	FLAT:?what@exception@std@@UBEPBDXZ
CONST	ENDS
;	COMDAT ??_7OverflowException@Internal@Core@Math@Palmtree@@6B@
CONST	SEGMENT
??_7OverflowException@Internal@Core@Math@Palmtree@@6B@ DD FLAT:??_R4OverflowException@Internal@Core@Math@Palmtree@@6B@ ; Palmtree::Math::Core::Internal::OverflowException::`vftable'
	DD	FLAT:??_EOverflowException@Internal@Core@Math@Palmtree@@UAEPAXI@Z
	DD	FLAT:?what@exception@std@@UBEPBDXZ
CONST	ENDS
;	COMDAT ??_7Exception@Internal@Core@Math@Palmtree@@6B@
CONST	SEGMENT
??_7Exception@Internal@Core@Math@Palmtree@@6B@ DD FLAT:??_R4Exception@Internal@Core@Math@Palmtree@@6B@ ; Palmtree::Math::Core::Internal::Exception::`vftable'
	DD	FLAT:??_EException@Internal@Core@Math@Palmtree@@UAEPAXI@Z
	DD	FLAT:?what@exception@std@@UBEPBDXZ
CONST	ENDS
;	COMDAT ??_C@_0BC@EOODALEL@Unknown?5exception@
CONST	SEGMENT
??_C@_0BC@EOODALEL@Unknown?5exception@ DB 'Unknown exception', 00H ; `string'
CONST	ENDS
;	COMDAT ??_7exception@std@@6B@
CONST	SEGMENT
??_7exception@std@@6B@ DD FLAT:??_R4exception@std@@6B@	; std::exception::`vftable'
	DD	FLAT:??_Eexception@std@@UAEPAXI@Z
	DD	FLAT:?what@exception@std@@UBEPBDXZ
CONST	ENDS
;	COMDAT xdata$x
xdata$x	SEGMENT
__unwindtable$??_GInternalErrorException@Internal@Core@Math@Palmtree@@UAEPAXI@Z DD 0ffffffffH
	DD	FLAT:__unwindfunclet$??_GInternalErrorException@Internal@Core@Math@Palmtree@@UAEPAXI@Z$0
	DD	0ffffffffH
	DD	FLAT:__unwindfunclet$??_GInternalErrorException@Internal@Core@Math@Palmtree@@UAEPAXI@Z$1
__ehfuncinfo$??_GInternalErrorException@Internal@Core@Math@Palmtree@@UAEPAXI@Z DD 019930522H
	DD	02H
	DD	FLAT:__unwindtable$??_GInternalErrorException@Internal@Core@Math@Palmtree@@UAEPAXI@Z
	DD	2 DUP(00H)
	DD	2 DUP(00H)
	DD	00H
	DD	04H
xdata$x	ENDS
;	COMDAT xdata$x
xdata$x	SEGMENT
__unwindtable$??1InternalErrorException@Internal@Core@Math@Palmtree@@UAE@XZ DD 0ffffffffH
	DD	FLAT:__unwindfunclet$??1InternalErrorException@Internal@Core@Math@Palmtree@@UAE@XZ$0
	DD	0ffffffffH
	DD	FLAT:__unwindfunclet$??1InternalErrorException@Internal@Core@Math@Palmtree@@UAE@XZ$1
__ehfuncinfo$??1InternalErrorException@Internal@Core@Math@Palmtree@@UAE@XZ DD 019930522H
	DD	02H
	DD	FLAT:__unwindtable$??1InternalErrorException@Internal@Core@Math@Palmtree@@UAE@XZ
	DD	2 DUP(00H)
	DD	2 DUP(00H)
	DD	00H
	DD	04H
xdata$x	ENDS
;	COMDAT xdata$x
xdata$x	SEGMENT
__unwindtable$??0InternalErrorException@Internal@Core@Math@Palmtree@@QAE@PB_W0@Z DD 0ffffffffH
	DD	FLAT:__unwindfunclet$??0InternalErrorException@Internal@Core@Math@Palmtree@@QAE@PB_W0@Z$1
	DD	0ffffffffH
	DD	FLAT:__unwindfunclet$??0InternalErrorException@Internal@Core@Math@Palmtree@@QAE@PB_W0@Z$0
__ehfuncinfo$??0InternalErrorException@Internal@Core@Math@Palmtree@@QAE@PB_W0@Z DD 019930522H
	DD	02H
	DD	FLAT:__unwindtable$??0InternalErrorException@Internal@Core@Math@Palmtree@@QAE@PB_W0@Z
	DD	2 DUP(00H)
	DD	2 DUP(00H)
	DD	00H
	DD	04H
xdata$x	ENDS
;	COMDAT xdata$x
xdata$x	SEGMENT
__unwindtable$??_GOverflowException@Internal@Core@Math@Palmtree@@UAEPAXI@Z DD 0ffffffffH
	DD	FLAT:__unwindfunclet$??_GOverflowException@Internal@Core@Math@Palmtree@@UAEPAXI@Z$0
	DD	0ffffffffH
	DD	FLAT:__unwindfunclet$??_GOverflowException@Internal@Core@Math@Palmtree@@UAEPAXI@Z$1
__ehfuncinfo$??_GOverflowException@Internal@Core@Math@Palmtree@@UAEPAXI@Z DD 019930522H
	DD	02H
	DD	FLAT:__unwindtable$??_GOverflowException@Internal@Core@Math@Palmtree@@UAEPAXI@Z
	DD	2 DUP(00H)
	DD	2 DUP(00H)
	DD	00H
	DD	04H
xdata$x	ENDS
;	COMDAT xdata$x
xdata$x	SEGMENT
__unwindtable$??1OverflowException@Internal@Core@Math@Palmtree@@UAE@XZ DD 0ffffffffH
	DD	FLAT:__unwindfunclet$??1OverflowException@Internal@Core@Math@Palmtree@@UAE@XZ$0
	DD	0ffffffffH
	DD	FLAT:__unwindfunclet$??1OverflowException@Internal@Core@Math@Palmtree@@UAE@XZ$1
__ehfuncinfo$??1OverflowException@Internal@Core@Math@Palmtree@@UAE@XZ DD 019930522H
	DD	02H
	DD	FLAT:__unwindtable$??1OverflowException@Internal@Core@Math@Palmtree@@UAE@XZ
	DD	2 DUP(00H)
	DD	2 DUP(00H)
	DD	00H
	DD	04H
xdata$x	ENDS
;	COMDAT xdata$x
xdata$x	SEGMENT
__unwindtable$??0OverflowException@Internal@Core@Math@Palmtree@@QAE@ABV01234@@Z DD 0ffffffffH
	DD	FLAT:__unwindfunclet$??0OverflowException@Internal@Core@Math@Palmtree@@QAE@ABV01234@@Z$1
	DD	0ffffffffH
	DD	FLAT:__unwindfunclet$??0OverflowException@Internal@Core@Math@Palmtree@@QAE@ABV01234@@Z$0
__ehfuncinfo$??0OverflowException@Internal@Core@Math@Palmtree@@QAE@ABV01234@@Z DD 019930522H
	DD	02H
	DD	FLAT:__unwindtable$??0OverflowException@Internal@Core@Math@Palmtree@@QAE@ABV01234@@Z
	DD	2 DUP(00H)
	DD	2 DUP(00H)
	DD	00H
	DD	04H
xdata$x	ENDS
;	COMDAT xdata$x
xdata$x	SEGMENT
__unwindtable$??0OverflowException@Internal@Core@Math@Palmtree@@QAE@PB_W@Z DD 0ffffffffH
	DD	FLAT:__unwindfunclet$??0OverflowException@Internal@Core@Math@Palmtree@@QAE@PB_W@Z$1
	DD	0ffffffffH
	DD	FLAT:__unwindfunclet$??0OverflowException@Internal@Core@Math@Palmtree@@QAE@PB_W@Z$0
__ehfuncinfo$??0OverflowException@Internal@Core@Math@Palmtree@@QAE@PB_W@Z DD 019930522H
	DD	02H
	DD	FLAT:__unwindtable$??0OverflowException@Internal@Core@Math@Palmtree@@QAE@PB_W@Z
	DD	2 DUP(00H)
	DD	2 DUP(00H)
	DD	00H
	DD	04H
xdata$x	ENDS
;	COMDAT xdata$x
xdata$x	SEGMENT
__unwindtable$??_GException@Internal@Core@Math@Palmtree@@UAEPAXI@Z DD 0ffffffffH
	DD	FLAT:__unwindfunclet$??_GException@Internal@Core@Math@Palmtree@@UAEPAXI@Z$0
__ehfuncinfo$??_GException@Internal@Core@Math@Palmtree@@UAEPAXI@Z DD 019930522H
	DD	01H
	DD	FLAT:__unwindtable$??_GException@Internal@Core@Math@Palmtree@@UAEPAXI@Z
	DD	2 DUP(00H)
	DD	2 DUP(00H)
	DD	00H
	DD	04H
xdata$x	ENDS
;	COMDAT xdata$x
xdata$x	SEGMENT
__unwindtable$??1Exception@Internal@Core@Math@Palmtree@@UAE@XZ DD 0ffffffffH
	DD	FLAT:__unwindfunclet$??1Exception@Internal@Core@Math@Palmtree@@UAE@XZ$0
__ehfuncinfo$??1Exception@Internal@Core@Math@Palmtree@@UAE@XZ DD 019930522H
	DD	01H
	DD	FLAT:__unwindtable$??1Exception@Internal@Core@Math@Palmtree@@UAE@XZ
	DD	2 DUP(00H)
	DD	2 DUP(00H)
	DD	00H
	DD	04H
xdata$x	ENDS
;	COMDAT xdata$x
xdata$x	SEGMENT
__unwindtable$??0Exception@Internal@Core@Math@Palmtree@@QAE@ABV01234@@Z DD 0ffffffffH
	DD	FLAT:__unwindfunclet$??0Exception@Internal@Core@Math@Palmtree@@QAE@ABV01234@@Z$0
__ehfuncinfo$??0Exception@Internal@Core@Math@Palmtree@@QAE@ABV01234@@Z DD 019930522H
	DD	01H
	DD	FLAT:__unwindtable$??0Exception@Internal@Core@Math@Palmtree@@QAE@ABV01234@@Z
	DD	2 DUP(00H)
	DD	2 DUP(00H)
	DD	00H
	DD	04H
xdata$x	ENDS
;	COMDAT xdata$x
xdata$x	SEGMENT
__unwindtable$??0Exception@Internal@Core@Math@Palmtree@@IAE@HPB_W0@Z DD 0ffffffffH
	DD	FLAT:__unwindfunclet$??0Exception@Internal@Core@Math@Palmtree@@IAE@HPB_W0@Z$0
__ehfuncinfo$??0Exception@Internal@Core@Math@Palmtree@@IAE@HPB_W0@Z DD 019930522H
	DD	01H
	DD	FLAT:__unwindtable$??0Exception@Internal@Core@Math@Palmtree@@IAE@HPB_W0@Z
	DD	2 DUP(00H)
	DD	2 DUP(00H)
	DD	00H
	DD	04H
xdata$x	ENDS
;	COMDAT xdata$x
xdata$x	SEGMENT
__unwindtable$??0Exception@Internal@Core@Math@Palmtree@@IAE@HPB_W@Z DD 0ffffffffH
	DD	FLAT:__unwindfunclet$??0Exception@Internal@Core@Math@Palmtree@@IAE@HPB_W@Z$0
__ehfuncinfo$??0Exception@Internal@Core@Math@Palmtree@@IAE@HPB_W@Z DD 019930522H
	DD	01H
	DD	FLAT:__unwindtable$??0Exception@Internal@Core@Math@Palmtree@@IAE@HPB_W@Z
	DD	2 DUP(00H)
	DD	2 DUP(00H)
	DD	00H
	DD	04H
xdata$x	ENDS
;	COMDAT xdata$x
xdata$x	SEGMENT
__ehfuncinfo$??_Gexception@std@@UAEPAXI@Z DD 019930522H
	DD	00H
	DD	00H
	DD	2 DUP(00H)
	DD	2 DUP(00H)
	DD	00H
	DD	04H
xdata$x	ENDS
;	COMDAT xdata$x
xdata$x	SEGMENT
__ehfuncinfo$??1exception@std@@UAE@XZ DD 019930522H
	DD	00H
	DD	00H
	DD	2 DUP(00H)
	DD	2 DUP(00H)
	DD	00H
	DD	04H
xdata$x	ENDS
; Function compile flags: /Ogtp
; File z:\sources\lunor\repos\rougemeilland\palmtree.math.core.uint\palmtree.math.core.uint\pmc_inline_func.h
;	COMDAT __FROMWORDTODWORD
_TEXT	SEGMENT
_value_high$ = 8					; size = 4
_value_low$ = 12					; size = 4
__FROMWORDTODWORD PROC					; COMDAT

; 140  :         {

  00000	55		 push	 ebp
  00001	8b ec		 mov	 ebp, esp

; 141  :             return (((_UINT64_T)value_high << 32) | value_low);

  00003	8b 55 08	 mov	 edx, DWORD PTR _value_high$[ebp]
  00006	33 c0		 xor	 eax, eax
  00008	0b 45 0c	 or	 eax, DWORD PTR _value_low$[ebp]

; 142  :         }

  0000b	5d		 pop	 ebp
  0000c	c3		 ret	 0
__FROMWORDTODWORD ENDP
_TEXT	ENDS
; Function compile flags: /Ogtp
; File z:\sources\lunor\repos\rougemeilland\palmtree.math.core.uint\palmtree.math.core.uint\pmc_to.cpp
; File z:\sources\lunor\repos\rougemeilland\palmtree.math.core.uint\palmtree.math.core.uint\pmc_inline_func.h
; File z:\sources\lunor\repos\rougemeilland\palmtree.math.core.uint\palmtree.math.core.uint\pmc_to.cpp
;	COMDAT ?PMC_To_X_L@Internal@Core@Math@Palmtree@@YG_KPAU__tag_PMC_HANDLE_UINT@1234@@Z
_TEXT	SEGMENT
$T1 = -24						; size = 24
_p$ = 8							; size = 4
?PMC_To_X_L@Internal@Core@Math@Palmtree@@YG_KPAU__tag_PMC_HANDLE_UINT@1234@@Z PROC ; Palmtree::Math::Core::Internal::PMC_To_X_L, COMDAT

; 51   :     {

  00000	55		 push	 ebp
  00001	8b ec		 mov	 ebp, esp
  00003	83 ec 18	 sub	 esp, 24			; 00000018H
  00006	56		 push	 esi
  00007	8b 75 08	 mov	 esi, DWORD PTR _p$[ebp]

; 52   :         if (sizeof(__UNIT_TYPE) * 2 < sizeof(_UINT64_T))
; 53   :         {
; 54   :             // 32bit未満のCPUは未対応
; 55   :             throw InternalErrorException(L"予期していないコードに到達しました。", L"pmc_to.cpp;PMC_To_X_L;1");
; 56   :         }
; 57   :         NUMBER_HEADER* np = (NUMBER_HEADER*)p;
; 58   :         CheckNumber(np);

  0000a	56		 push	 esi
  0000b	e8 00 00 00 00	 call	 ?CheckNumber@Internal@Core@Math@Palmtree@@YAXPAU__tag_NUMBER_HEADER@1234@@Z ; Palmtree::Math::Core::Internal::CheckNumber

; 59   :         if (np->UNIT_BIT_COUNT > sizeof(_UINT64_T) * 8)

  00010	8b 46 14	 mov	 eax, DWORD PTR [esi+20]
  00013	83 c4 04	 add	 esp, 4
  00016	83 f8 40	 cmp	 eax, 64			; 00000040H
  00019	77 32		 ja	 SHORT $LN15@PMC_To_X_L

; 61   :         if (np->IS_ZERO)

  0001b	f6 46 04 01	 test	 BYTE PTR [esi+4], 1
  0001f	74 0b		 je	 SHORT $LN4@PMC_To_X_L

; 62   :             return (0);

  00021	33 c0		 xor	 eax, eax
  00023	33 d2		 xor	 edx, edx
  00025	5e		 pop	 esi

; 78   :     }

  00026	8b e5		 mov	 esp, ebp
  00028	5d		 pop	 ebp
  00029	c2 04 00	 ret	 4
$LN4@PMC_To_X_L:

; 63   :         else
; 64   :         {
; 65   :             if (np->UNIT_BIT_COUNT <= __UNIT_TYPE_BIT_COUNT)

  0002c	8b 4e 24	 mov	 ecx, DWORD PTR [esi+36]
  0002f	83 f8 20	 cmp	 eax, 32			; 00000020H
  00032	77 0b		 ja	 SHORT $LN6@PMC_To_X_L

; 66   :             {
; 67   :                 // 値が 1 ワードで表現できる場合
; 68   :                 return (np->BLOCK[0]);

  00034	8b 01		 mov	 eax, DWORD PTR [ecx]
  00036	33 d2		 xor	 edx, edx
  00038	5e		 pop	 esi

; 78   :     }

  00039	8b e5		 mov	 esp, ebp
  0003b	5d		 pop	 ebp
  0003c	c2 04 00	 ret	 4
$LN6@PMC_To_X_L:
; File z:\sources\lunor\repos\rougemeilland\palmtree.math.core.uint\palmtree.math.core.uint\pmc_inline_func.h

; 141  :             return (((_UINT64_T)value_high << 32) | value_low);

  0003f	8b 51 04	 mov	 edx, DWORD PTR [ecx+4]
  00042	33 c0		 xor	 eax, eax
  00044	0b 01		 or	 eax, DWORD PTR [ecx]
  00046	5e		 pop	 esi
; File z:\sources\lunor\repos\rougemeilland\palmtree.math.core.uint\palmtree.math.core.uint\pmc_to.cpp

; 78   :     }

  00047	8b e5		 mov	 esp, ebp
  00049	5d		 pop	 ebp
  0004a	c2 04 00	 ret	 4
$LN15@PMC_To_X_L:

; 60   :             throw OverflowException(L"64bit整数への型変換に失敗しました。");

  0004d	68 00 00 00 00	 push	 OFFSET ??_C@_1CK@EPAIANDA@?$AA6?$AA4?$AAb?$AAi?$AAt?$AAt?$AAp?$AAx?$AAn?$PP?$IL?$AA?7?$PP?$NL?$AAk?$AA1?$AAW@
  00052	8d 4d e8	 lea	 ecx, DWORD PTR $T1[ebp]
  00055	e8 00 00 00 00	 call	 ??0OverflowException@Internal@Core@Math@Palmtree@@QAE@PB_W@Z ; Palmtree::Math::Core::Internal::OverflowException::OverflowException
  0005a	68 00 00 00 00	 push	 OFFSET __TI2?AVOverflowException@Internal@Core@Math@Palmtree@@
  0005f	8d 45 e8	 lea	 eax, DWORD PTR $T1[ebp]
  00062	50		 push	 eax
  00063	e8 00 00 00 00	 call	 __CxxThrowException@8
$LN13@PMC_To_X_L:
  00068	cc		 int	 3
?PMC_To_X_L@Internal@Core@Math@Palmtree@@YG_KPAU__tag_PMC_HANDLE_UINT@1234@@Z ENDP ; Palmtree::Math::Core::Internal::PMC_To_X_L
_TEXT	ENDS
; Function compile flags: /Ogtp
; File z:\sources\lunor\repos\rougemeilland\palmtree.math.core.uint\palmtree.math.core.uint\pmc_to.cpp
;	COMDAT ?PMC_To_X_I@Internal@Core@Math@Palmtree@@YGIPAU__tag_PMC_HANDLE_UINT@1234@@Z
_TEXT	SEGMENT
$T1 = -24						; size = 24
_p$ = 8							; size = 4
?PMC_To_X_I@Internal@Core@Math@Palmtree@@YGIPAU__tag_PMC_HANDLE_UINT@1234@@Z PROC ; Palmtree::Math::Core::Internal::PMC_To_X_I, COMDAT

; 37   :     {

  00000	55		 push	 ebp
  00001	8b ec		 mov	 ebp, esp
  00003	83 ec 18	 sub	 esp, 24			; 00000018H
  00006	56		 push	 esi

; 38   :         if (sizeof(__UNIT_TYPE) < sizeof(_UINT32_T))
; 39   :         {
; 40   :             // 32bit未満のCPUは未対応
; 41   :             throw InternalErrorException(L"予期していないコードに到達しました。", L"pmc_to.cpp;PMC_To_X_I;1");
; 42   :         }
; 43   :         NUMBER_HEADER* np = (NUMBER_HEADER*)p;
; 44   :         CheckNumber(np);

  00007	8b 75 08	 mov	 esi, DWORD PTR _p$[ebp]
  0000a	56		 push	 esi
  0000b	e8 00 00 00 00	 call	 ?CheckNumber@Internal@Core@Math@Palmtree@@YAXPAU__tag_NUMBER_HEADER@1234@@Z ; Palmtree::Math::Core::Internal::CheckNumber
  00010	83 c4 04	 add	 esp, 4

; 45   :         if (np->UNIT_BIT_COUNT > sizeof(_UINT32_T) * 8)

  00013	83 7e 14 20	 cmp	 DWORD PTR [esi+20], 32	; 00000020H
  00017	77 1b		 ja	 SHORT $LN9@PMC_To_X_I

; 47   :         return (np->IS_ZERO ? 0 : (_UINT32_T)np->BLOCK[0]);

  00019	f6 46 04 01	 test	 BYTE PTR [esi+4], 1
  0001d	74 09		 je	 SHORT $LN5@PMC_To_X_I
  0001f	33 c0		 xor	 eax, eax
  00021	5e		 pop	 esi

; 48   :     }

  00022	8b e5		 mov	 esp, ebp
  00024	5d		 pop	 ebp
  00025	c2 04 00	 ret	 4
$LN5@PMC_To_X_I:

; 47   :         return (np->IS_ZERO ? 0 : (_UINT32_T)np->BLOCK[0]);

  00028	8b 46 24	 mov	 eax, DWORD PTR [esi+36]
  0002b	5e		 pop	 esi
  0002c	8b 00		 mov	 eax, DWORD PTR [eax]

; 48   :     }

  0002e	8b e5		 mov	 esp, ebp
  00030	5d		 pop	 ebp
  00031	c2 04 00	 ret	 4
$LN9@PMC_To_X_I:

; 46   :             throw OverflowException(L"32bit整数への型変換に失敗しました。");

  00034	68 00 00 00 00	 push	 OFFSET ??_C@_1CK@FCDNPBLF@?$AA3?$AA2?$AAb?$AAi?$AAt?$AAt?$AAp?$AAx?$AAn?$PP?$IL?$AA?7?$PP?$NL?$AAk?$AA1?$AAW@
  00039	8d 4d e8	 lea	 ecx, DWORD PTR $T1[ebp]
  0003c	e8 00 00 00 00	 call	 ??0OverflowException@Internal@Core@Math@Palmtree@@QAE@PB_W@Z ; Palmtree::Math::Core::Internal::OverflowException::OverflowException
  00041	68 00 00 00 00	 push	 OFFSET __TI2?AVOverflowException@Internal@Core@Math@Palmtree@@
  00046	8d 45 e8	 lea	 eax, DWORD PTR $T1[ebp]
  00049	50		 push	 eax
  0004a	e8 00 00 00 00	 call	 __CxxThrowException@8
$LN7@PMC_To_X_I:
  0004f	cc		 int	 3
?PMC_To_X_I@Internal@Core@Math@Palmtree@@YGIPAU__tag_PMC_HANDLE_UINT@1234@@Z ENDP ; Palmtree::Math::Core::Internal::PMC_To_X_I
_TEXT	ENDS
; Function compile flags: /Ogtp
; File z:\sources\lunor\repos\rougemeilland\palmtree.math.core.uint\palmtree.math.core.uint\pmc_to.cpp
;	COMDAT ?Initialize_To@Internal@Core@Math@Palmtree@@YAHPAU_tag_PROCESSOR_FEATURES@1234@@Z
_TEXT	SEGMENT
_feature$ = 8						; size = 4
?Initialize_To@Internal@Core@Math@Palmtree@@YAHPAU_tag_PROCESSOR_FEATURES@1234@@Z PROC ; Palmtree::Math::Core::Internal::Initialize_To, COMDAT

; 82   :         return (PMC_STATUS_OK);

  00000	33 c0		 xor	 eax, eax

; 83   :     }

  00002	c3		 ret	 0
?Initialize_To@Internal@Core@Math@Palmtree@@YAHPAU_tag_PROCESSOR_FEATURES@1234@@Z ENDP ; Palmtree::Math::Core::Internal::Initialize_To
_TEXT	ENDS
; Function compile flags: /Ogtp
; File z:\sources\lunor\repos\rougemeilland\palmtree.math.core.uint\palmtree.math.core.uint\pmc_exception.h
; File c:\program files (x86)\microsoft visual studio\2017\community\vc\tools\msvc\14.16.27023\include\vcruntime_exception.h
;	COMDAT ??_GInternalErrorException@Internal@Core@Math@Palmtree@@UAEPAXI@Z
_TEXT	SEGMENT
_this$ = -16						; size = 4
__$EHRec$ = -12						; size = 12
___flags$ = 8						; size = 4
??_GInternalErrorException@Internal@Core@Math@Palmtree@@UAEPAXI@Z PROC ; Palmtree::Math::Core::Internal::InternalErrorException::`scalar deleting destructor', COMDAT
; _this$ = ecx
  00000	55		 push	 ebp
  00001	8b ec		 mov	 ebp, esp
  00003	6a ff		 push	 -1
  00005	68 00 00 00 00	 push	 __ehhandler$??_GInternalErrorException@Internal@Core@Math@Palmtree@@UAEPAXI@Z
  0000a	64 a1 00 00 00
	00		 mov	 eax, DWORD PTR fs:0
  00010	50		 push	 eax
  00011	51		 push	 ecx
  00012	56		 push	 esi
  00013	a1 00 00 00 00	 mov	 eax, DWORD PTR ___security_cookie
  00018	33 c5		 xor	 eax, ebp
  0001a	50		 push	 eax
  0001b	8d 45 f4	 lea	 eax, DWORD PTR __$EHRec$[ebp]
  0001e	64 a3 00 00 00
	00		 mov	 DWORD PTR fs:0, eax
  00024	8b f1		 mov	 esi, ecx
  00026	89 75 f0	 mov	 DWORD PTR _this$[ebp], esi
; File z:\sources\lunor\repos\rougemeilland\palmtree.math.core.uint\palmtree.math.core.uint\pmc_exception.h

; 295  :         {

  00029	c7 06 00 00 00
	00		 mov	 DWORD PTR [esi], OFFSET ??_7InternalErrorException@Internal@Core@Math@Palmtree@@6B@

; 296  :         }

  0002f	c7 45 fc ff ff
	ff ff		 mov	 DWORD PTR __$EHRec$[ebp+8], -1

; 70   :         {

  00036	c7 06 00 00 00
	00		 mov	 DWORD PTR [esi], OFFSET ??_7Exception@Internal@Core@Math@Palmtree@@6B@

; 71   :         }

  0003c	c7 45 fc ff ff
	ff ff		 mov	 DWORD PTR __$EHRec$[ebp+8], -1
; File c:\program files (x86)\microsoft visual studio\2017\community\vc\tools\msvc\14.16.27023\include\vcruntime_exception.h

; 86   :         __std_exception_destroy(&_Data);

  00043	8d 46 04	 lea	 eax, DWORD PTR [esi+4]
  00046	50		 push	 eax
  00047	c7 06 00 00 00
	00		 mov	 DWORD PTR [esi], OFFSET ??_7exception@std@@6B@
  0004d	e8 00 00 00 00	 call	 ___std_exception_destroy
  00052	83 c4 04	 add	 esp, 4
  00055	f6 45 08 01	 test	 BYTE PTR ___flags$[ebp], 1
  00059	74 0b		 je	 SHORT $LN12@scalar
  0005b	6a 18		 push	 24			; 00000018H
  0005d	56		 push	 esi
  0005e	e8 00 00 00 00	 call	 ??3@YAXPAXI@Z		; operator delete
  00063	83 c4 08	 add	 esp, 8
$LN12@scalar:
  00066	8b c6		 mov	 eax, esi
  00068	8b 4d f4	 mov	 ecx, DWORD PTR __$EHRec$[ebp]
  0006b	64 89 0d 00 00
	00 00		 mov	 DWORD PTR fs:0, ecx
  00072	59		 pop	 ecx
  00073	5e		 pop	 esi
  00074	8b e5		 mov	 esp, ebp
  00076	5d		 pop	 ebp
  00077	c2 04 00	 ret	 4
_TEXT	ENDS
;	COMDAT text$x
text$x	SEGMENT
__unwindfunclet$??_GInternalErrorException@Internal@Core@Math@Palmtree@@UAEPAXI@Z$0:
  00000	8b 4d f0	 mov	 ecx, DWORD PTR _this$[ebp]
  00003	e9 00 00 00 00	 jmp	 ??1Exception@Internal@Core@Math@Palmtree@@UAE@XZ ; Palmtree::Math::Core::Internal::Exception::~Exception
__unwindfunclet$??_GInternalErrorException@Internal@Core@Math@Palmtree@@UAEPAXI@Z$1:
  00008	8b 4d f0	 mov	 ecx, DWORD PTR _this$[ebp]
  0000b	e9 00 00 00 00	 jmp	 ??1exception@std@@UAE@XZ ; std::exception::~exception
__ehhandler$??_GInternalErrorException@Internal@Core@Math@Palmtree@@UAEPAXI@Z:
  00010	8b 54 24 08	 mov	 edx, DWORD PTR [esp+8]
  00014	8d 42 0c	 lea	 eax, DWORD PTR [edx+12]
  00017	8b 4a f4	 mov	 ecx, DWORD PTR [edx-12]
  0001a	33 c8		 xor	 ecx, eax
  0001c	e8 00 00 00 00	 call	 @__security_check_cookie@4
  00021	b8 00 00 00 00	 mov	 eax, OFFSET __ehfuncinfo$??_GInternalErrorException@Internal@Core@Math@Palmtree@@UAEPAXI@Z
  00026	e9 00 00 00 00	 jmp	 ___CxxFrameHandler3
text$x	ENDS
??_GInternalErrorException@Internal@Core@Math@Palmtree@@UAEPAXI@Z ENDP ; Palmtree::Math::Core::Internal::InternalErrorException::`scalar deleting destructor'
; Function compile flags: /Ogtp
; File z:\sources\lunor\repos\rougemeilland\palmtree.math.core.uint\palmtree.math.core.uint\pmc_exception.h
; File c:\program files (x86)\microsoft visual studio\2017\community\vc\tools\msvc\14.16.27023\include\vcruntime_exception.h
; File z:\sources\lunor\repos\rougemeilland\palmtree.math.core.uint\palmtree.math.core.uint\pmc_exception.h
;	COMDAT ??1InternalErrorException@Internal@Core@Math@Palmtree@@UAE@XZ
_TEXT	SEGMENT
_this$ = -16						; size = 4
__$EHRec$ = -12						; size = 12
??1InternalErrorException@Internal@Core@Math@Palmtree@@UAE@XZ PROC ; Palmtree::Math::Core::Internal::InternalErrorException::~InternalErrorException, COMDAT
; _this$ = ecx

; 295  :         {

  00000	55		 push	 ebp
  00001	8b ec		 mov	 ebp, esp
  00003	6a ff		 push	 -1
  00005	68 00 00 00 00	 push	 __ehhandler$??1InternalErrorException@Internal@Core@Math@Palmtree@@UAE@XZ
  0000a	64 a1 00 00 00
	00		 mov	 eax, DWORD PTR fs:0
  00010	50		 push	 eax
  00011	51		 push	 ecx
  00012	a1 00 00 00 00	 mov	 eax, DWORD PTR ___security_cookie
  00017	33 c5		 xor	 eax, ebp
  00019	50		 push	 eax
  0001a	8d 45 f4	 lea	 eax, DWORD PTR __$EHRec$[ebp]
  0001d	64 a3 00 00 00
	00		 mov	 DWORD PTR fs:0, eax
  00023	89 4d f0	 mov	 DWORD PTR _this$[ebp], ecx
  00026	c7 01 00 00 00
	00		 mov	 DWORD PTR [ecx], OFFSET ??_7InternalErrorException@Internal@Core@Math@Palmtree@@6B@

; 296  :         }

  0002c	c7 45 fc ff ff
	ff ff		 mov	 DWORD PTR __$EHRec$[ebp+8], -1

; 70   :         {

  00033	c7 01 00 00 00
	00		 mov	 DWORD PTR [ecx], OFFSET ??_7Exception@Internal@Core@Math@Palmtree@@6B@

; 71   :         }

  00039	c7 45 fc ff ff
	ff ff		 mov	 DWORD PTR __$EHRec$[ebp+8], -1
; File c:\program files (x86)\microsoft visual studio\2017\community\vc\tools\msvc\14.16.27023\include\vcruntime_exception.h

; 86   :         __std_exception_destroy(&_Data);

  00040	8d 41 04	 lea	 eax, DWORD PTR [ecx+4]
  00043	50		 push	 eax
  00044	c7 01 00 00 00
	00		 mov	 DWORD PTR [ecx], OFFSET ??_7exception@std@@6B@
  0004a	e8 00 00 00 00	 call	 ___std_exception_destroy
  0004f	83 c4 04	 add	 esp, 4
; File z:\sources\lunor\repos\rougemeilland\palmtree.math.core.uint\palmtree.math.core.uint\pmc_exception.h

; 296  :         }

  00052	8b 4d f4	 mov	 ecx, DWORD PTR __$EHRec$[ebp]
  00055	64 89 0d 00 00
	00 00		 mov	 DWORD PTR fs:0, ecx
  0005c	59		 pop	 ecx
  0005d	8b e5		 mov	 esp, ebp
  0005f	5d		 pop	 ebp
  00060	c3		 ret	 0
_TEXT	ENDS
;	COMDAT text$x
text$x	SEGMENT
__unwindfunclet$??1InternalErrorException@Internal@Core@Math@Palmtree@@UAE@XZ$0:
  00000	8b 4d f0	 mov	 ecx, DWORD PTR _this$[ebp]
  00003	e9 00 00 00 00	 jmp	 ??1Exception@Internal@Core@Math@Palmtree@@UAE@XZ ; Palmtree::Math::Core::Internal::Exception::~Exception
__unwindfunclet$??1InternalErrorException@Internal@Core@Math@Palmtree@@UAE@XZ$1:
  00008	8b 4d f0	 mov	 ecx, DWORD PTR _this$[ebp]
  0000b	e9 00 00 00 00	 jmp	 ??1exception@std@@UAE@XZ ; std::exception::~exception
__ehhandler$??1InternalErrorException@Internal@Core@Math@Palmtree@@UAE@XZ:
  00010	8b 54 24 08	 mov	 edx, DWORD PTR [esp+8]
  00014	8d 42 0c	 lea	 eax, DWORD PTR [edx+12]
  00017	8b 4a f8	 mov	 ecx, DWORD PTR [edx-8]
  0001a	33 c8		 xor	 ecx, eax
  0001c	e8 00 00 00 00	 call	 @__security_check_cookie@4
  00021	b8 00 00 00 00	 mov	 eax, OFFSET __ehfuncinfo$??1InternalErrorException@Internal@Core@Math@Palmtree@@UAE@XZ
  00026	e9 00 00 00 00	 jmp	 ___CxxFrameHandler3
text$x	ENDS
??1InternalErrorException@Internal@Core@Math@Palmtree@@UAE@XZ ENDP ; Palmtree::Math::Core::Internal::InternalErrorException::~InternalErrorException
; Function compile flags: /Ogtp
; File z:\sources\lunor\repos\rougemeilland\palmtree.math.core.uint\palmtree.math.core.uint\pmc_exception.h
; File c:\program files (x86)\microsoft visual studio\2017\community\vc\tools\msvc\14.16.27023\include\vcruntime_exception.h
; File z:\sources\lunor\repos\rougemeilland\palmtree.math.core.uint\palmtree.math.core.uint\pmc_exception.h
;	COMDAT ??0InternalErrorException@Internal@Core@Math@Palmtree@@QAE@PB_W0@Z
_TEXT	SEGMENT
_this$ = -16						; size = 4
__$EHRec$ = -12						; size = 12
_message$ = 8						; size = 4
_data$ = 12						; size = 4
??0InternalErrorException@Internal@Core@Math@Palmtree@@QAE@PB_W0@Z PROC ; Palmtree::Math::Core::Internal::InternalErrorException::InternalErrorException, COMDAT
; _this$ = ecx

; 286  :         {

  00000	55		 push	 ebp
  00001	8b ec		 mov	 ebp, esp
  00003	6a ff		 push	 -1
  00005	68 00 00 00 00	 push	 __ehhandler$??0InternalErrorException@Internal@Core@Math@Palmtree@@QAE@PB_W0@Z
  0000a	64 a1 00 00 00
	00		 mov	 eax, DWORD PTR fs:0
  00010	50		 push	 eax
  00011	51		 push	 ecx
  00012	a1 00 00 00 00	 mov	 eax, DWORD PTR ___security_cookie
  00017	33 c5		 xor	 eax, ebp
  00019	50		 push	 eax
  0001a	8d 45 f4	 lea	 eax, DWORD PTR __$EHRec$[ebp]
  0001d	64 a3 00 00 00
	00		 mov	 DWORD PTR fs:0, eax
  00023	89 4d f0	 mov	 DWORD PTR _this$[ebp], ecx
  00026	0f 57 c0	 xorps	 xmm0, xmm0
; File c:\program files (x86)\microsoft visual studio\2017\community\vc\tools\msvc\14.16.27023\include\vcruntime_exception.h

; 50   :     {

  00029	c7 01 00 00 00
	00		 mov	 DWORD PTR [ecx], OFFSET ??_7exception@std@@6B@
  0002f	66 0f d6 41 04	 movq	 QWORD PTR [ecx+4], xmm0
; File z:\sources\lunor\repos\rougemeilland\palmtree.math.core.uint\palmtree.math.core.uint\pmc_exception.h

; 54   :         Exception(PMC_STATUS_CODE code, const wchar_t* message, const wchar_t* data) noexcept(true)

  00034	c7 45 fc 00 00
	00 00		 mov	 DWORD PTR __$EHRec$[ebp+8], 0

; 55   :         {
; 56   :             _code = code;
; 57   :             _message = message;

  0003b	8b 45 08	 mov	 eax, DWORD PTR _message$[ebp]
  0003e	89 41 10	 mov	 DWORD PTR [ecx+16], eax

; 58   :             _data = data;

  00041	8b 45 0c	 mov	 eax, DWORD PTR _data$[ebp]
  00044	c7 01 00 00 00
	00		 mov	 DWORD PTR [ecx], OFFSET ??_7Exception@Internal@Core@Math@Palmtree@@6B@
  0004a	c7 41 0c 00 ff
	ff ff		 mov	 DWORD PTR [ecx+12], -256 ; ffffff00H
  00051	89 41 14	 mov	 DWORD PTR [ecx+20], eax

; 59   :         }
; 60   : 
; 61   :     public:
; 62   :         Exception(const Exception& p) noexcept(true)
; 63   :         {
; 64   :             _code = p._code;
; 65   :             _message = p._message;
; 66   :             _data = p._data;
; 67   :         }
; 68   : 
; 69   :         virtual ~Exception() noexcept(true)
; 70   :         {
; 71   :         }
; 72   : 
; 73   :         PMC_STATUS_CODE GetStatusCode() const noexcept(true)
; 74   :         {
; 75   :             return (_code);
; 76   :         }
; 77   : 
; 78   :         wchar_t const* What() const noexcept(true)
; 79   :         {
; 80   :             return (_message);
; 81   :         }
; 82   : 
; 83   :         wchar_t const* Data() const noexcept(true)
; 84   :         {
; 85   :             return (_data);
; 86   :         }
; 87   : 
; 88   :     };
; 89   : 
; 90   :     class ArgumentException
; 91   :         : public Exception
; 92   :     {
; 93   :     public:
; 94   :         ArgumentException(const wchar_t* message) noexcept(true)
; 95   :             : Exception(PMC_STATUS_ARGUMENT_ERROR, message)
; 96   :         {
; 97   :         }
; 98   : 
; 99   :         ArgumentException(const ArgumentException& p) noexcept(true)
; 100  :             : Exception(p)
; 101  :         {
; 102  :         }
; 103  : 
; 104  :         virtual ~ArgumentException() noexcept(true)
; 105  :         {
; 106  :         }
; 107  :     };
; 108  : 
; 109  :     class ArgumentNullException
; 110  :         : public Exception
; 111  :     {
; 112  :     public:
; 113  :         ArgumentNullException(const wchar_t* message, const wchar_t* param_name) noexcept(true)
; 114  :             : Exception(PMC_STATUS_ARGUMENT_NULL_ERROR, message, param_name)
; 115  :         {
; 116  :         }
; 117  : 
; 118  :         ArgumentNullException(const ArgumentNullException& p) noexcept(true)
; 119  :             : Exception(p)
; 120  :         {
; 121  :         }
; 122  : 
; 123  :         virtual ~ArgumentNullException() noexcept(true)
; 124  :         {
; 125  :         }
; 126  :     };
; 127  : 
; 128  :     class ArgumentOutOfRangeException
; 129  :         : public Exception
; 130  :     {
; 131  :     public:
; 132  :         ArgumentOutOfRangeException(const wchar_t* message) noexcept(true)
; 133  :             : Exception(PMC_STATUS_ARGUMENT_OUT_OF_RANGE_ERROR, message)
; 134  :         {
; 135  :         }
; 136  : 
; 137  :         ArgumentOutOfRangeException(const ArgumentOutOfRangeException& p) noexcept(true)
; 138  :             : Exception(p)
; 139  :         {
; 140  :         }
; 141  : 
; 142  :         virtual ~ArgumentOutOfRangeException() noexcept(true)
; 143  :         {
; 144  :         }
; 145  :     };
; 146  : 
; 147  :     class OverflowException
; 148  :         : public Exception
; 149  :     {
; 150  :     public:
; 151  :         OverflowException(const wchar_t* message) noexcept(true)
; 152  :             : Exception(PMC_STATUS_OVERFLOW, message)
; 153  :         {
; 154  :         }
; 155  : 
; 156  :         OverflowException(const OverflowException& p) noexcept(true)
; 157  :             : Exception(p)
; 158  :         {
; 159  :         }
; 160  : 
; 161  :         virtual ~OverflowException() noexcept(true)
; 162  :         {
; 163  :         }
; 164  :     };
; 165  : 
; 166  :     class DivisionByZeroException
; 167  :         : public Exception
; 168  :     {
; 169  :     public:
; 170  :         DivisionByZeroException(const wchar_t* message) noexcept(true)
; 171  :             : Exception(PMC_STATUS_DIVISION_BY_ZERO, message)
; 172  :         {
; 173  :         }
; 174  : 
; 175  :         DivisionByZeroException(const DivisionByZeroException& p) noexcept(true)
; 176  :             : Exception(p)
; 177  :         {
; 178  :         }
; 179  : 
; 180  :         virtual ~DivisionByZeroException() noexcept(true)
; 181  :         {
; 182  :         }
; 183  :     };
; 184  : 
; 185  :     class ArithmeticException
; 186  :         : public Exception
; 187  :     {
; 188  :     public:
; 189  :         ArithmeticException(const wchar_t* message) noexcept(true)
; 190  :             : Exception(PMC_STATUS_ARITHMETIC_ERROR, message)
; 191  :         {
; 192  :         }
; 193  : 
; 194  :         ArithmeticException(const OverflowException& p) noexcept(true)
; 195  :             : Exception(p)
; 196  :         {
; 197  :         }
; 198  : 
; 199  :         virtual ~ArithmeticException() noexcept(true)
; 200  :         {
; 201  :         }
; 202  :     };
; 203  : 
; 204  :     class FormatException
; 205  :         : public Exception
; 206  :     {
; 207  :     public:
; 208  :         FormatException(const wchar_t* message) noexcept(true)
; 209  :             : Exception(PMC_STATUS_FORMAT_ERROR, message)
; 210  :         {
; 211  :         }
; 212  : 
; 213  :         FormatException(const FormatException& p) noexcept(true)
; 214  :             : Exception(p)
; 215  :         {
; 216  :         }
; 217  : 
; 218  :         virtual ~FormatException() noexcept(true)
; 219  :         {
; 220  :         }
; 221  :     };
; 222  : 
; 223  :     class InsufficientBufferException
; 224  :         : public Exception
; 225  :     {
; 226  :     public:
; 227  :         InsufficientBufferException(const wchar_t* message)
; 228  :             : Exception(PMC_STATUS_INSUFFICIENT_BUFFER, message)
; 229  :         {
; 230  :         }
; 231  : 
; 232  :         InsufficientBufferException(const InsufficientBufferException& p) noexcept(true)
; 233  :             : Exception(p)
; 234  :         {
; 235  :         }
; 236  : 
; 237  :         virtual ~InsufficientBufferException() noexcept(true)
; 238  :         {
; 239  :         }
; 240  :     };
; 241  : 
; 242  :     class NotEnoughMemoryException
; 243  :         : public Exception
; 244  :     {
; 245  :     public:
; 246  :         NotEnoughMemoryException(const wchar_t* message) noexcept(true)
; 247  :             : Exception(PMC_STATUS_NOT_ENOUGH_MEMORY, message)
; 248  :         {
; 249  :         }
; 250  : 
; 251  :         NotEnoughMemoryException(const NotEnoughMemoryException& p) noexcept(true)
; 252  :             : Exception(p)
; 253  :         {
; 254  :         }
; 255  : 
; 256  :         virtual ~NotEnoughMemoryException() noexcept(true)
; 257  :         {
; 258  :         }
; 259  :     };
; 260  : 
; 261  :     class NotSupportedException
; 262  :         : public Exception
; 263  :     {
; 264  :     public:
; 265  :         NotSupportedException(const wchar_t* message) noexcept(true)
; 266  :             : Exception(PMC_STATUS_NOT_SUPPORTED, message)
; 267  :         {
; 268  :         }
; 269  : 
; 270  :         NotSupportedException(const NotSupportedException& p) noexcept(true)
; 271  :             : Exception(p)
; 272  :         {
; 273  :         }
; 274  : 
; 275  :         virtual ~NotSupportedException() noexcept(true)
; 276  :         {
; 277  :         }
; 278  :     };
; 279  : 
; 280  :     class InternalErrorException
; 281  :         : public Exception
; 282  :     {
; 283  :     public:
; 284  :         InternalErrorException(const wchar_t* message, const wchar_t* data) noexcept(true)
; 285  :             : Exception(PMC_STATUS_INTERNAL_ERROR, message, data)

  00054	c7 45 fc 01 00
	00 00		 mov	 DWORD PTR __$EHRec$[ebp+8], 1

; 286  :         {

  0005b	c7 01 00 00 00
	00		 mov	 DWORD PTR [ecx], OFFSET ??_7InternalErrorException@Internal@Core@Math@Palmtree@@6B@

; 287  :         }

  00061	c7 45 fc ff ff
	ff ff		 mov	 DWORD PTR __$EHRec$[ebp+8], -1
  00068	8b c1		 mov	 eax, ecx
  0006a	8b 4d f4	 mov	 ecx, DWORD PTR __$EHRec$[ebp]
  0006d	64 89 0d 00 00
	00 00		 mov	 DWORD PTR fs:0, ecx
  00074	59		 pop	 ecx
  00075	8b e5		 mov	 esp, ebp
  00077	5d		 pop	 ebp
  00078	c2 08 00	 ret	 8
_TEXT	ENDS
;	COMDAT text$x
text$x	SEGMENT
__unwindfunclet$??0InternalErrorException@Internal@Core@Math@Palmtree@@QAE@PB_W0@Z$1:
  00000	8b 4d f0	 mov	 ecx, DWORD PTR _this$[ebp]
  00003	e9 00 00 00 00	 jmp	 ??1exception@std@@UAE@XZ ; std::exception::~exception
__unwindfunclet$??0InternalErrorException@Internal@Core@Math@Palmtree@@QAE@PB_W0@Z$0:
  00008	8b 4d f0	 mov	 ecx, DWORD PTR _this$[ebp]
  0000b	e9 00 00 00 00	 jmp	 ??1Exception@Internal@Core@Math@Palmtree@@UAE@XZ ; Palmtree::Math::Core::Internal::Exception::~Exception
__ehhandler$??0InternalErrorException@Internal@Core@Math@Palmtree@@QAE@PB_W0@Z:
  00010	8b 54 24 08	 mov	 edx, DWORD PTR [esp+8]
  00014	8d 42 0c	 lea	 eax, DWORD PTR [edx+12]
  00017	8b 4a f8	 mov	 ecx, DWORD PTR [edx-8]
  0001a	33 c8		 xor	 ecx, eax
  0001c	e8 00 00 00 00	 call	 @__security_check_cookie@4
  00021	b8 00 00 00 00	 mov	 eax, OFFSET __ehfuncinfo$??0InternalErrorException@Internal@Core@Math@Palmtree@@QAE@PB_W0@Z
  00026	e9 00 00 00 00	 jmp	 ___CxxFrameHandler3
text$x	ENDS
??0InternalErrorException@Internal@Core@Math@Palmtree@@QAE@PB_W0@Z ENDP ; Palmtree::Math::Core::Internal::InternalErrorException::InternalErrorException
; Function compile flags: /Ogtp
; File z:\sources\lunor\repos\rougemeilland\palmtree.math.core.uint\palmtree.math.core.uint\pmc_exception.h
; File c:\program files (x86)\microsoft visual studio\2017\community\vc\tools\msvc\14.16.27023\include\vcruntime_exception.h
;	COMDAT ??_GOverflowException@Internal@Core@Math@Palmtree@@UAEPAXI@Z
_TEXT	SEGMENT
_this$ = -16						; size = 4
__$EHRec$ = -12						; size = 12
___flags$ = 8						; size = 4
??_GOverflowException@Internal@Core@Math@Palmtree@@UAEPAXI@Z PROC ; Palmtree::Math::Core::Internal::OverflowException::`scalar deleting destructor', COMDAT
; _this$ = ecx
  00000	55		 push	 ebp
  00001	8b ec		 mov	 ebp, esp
  00003	6a ff		 push	 -1
  00005	68 00 00 00 00	 push	 __ehhandler$??_GOverflowException@Internal@Core@Math@Palmtree@@UAEPAXI@Z
  0000a	64 a1 00 00 00
	00		 mov	 eax, DWORD PTR fs:0
  00010	50		 push	 eax
  00011	51		 push	 ecx
  00012	56		 push	 esi
  00013	a1 00 00 00 00	 mov	 eax, DWORD PTR ___security_cookie
  00018	33 c5		 xor	 eax, ebp
  0001a	50		 push	 eax
  0001b	8d 45 f4	 lea	 eax, DWORD PTR __$EHRec$[ebp]
  0001e	64 a3 00 00 00
	00		 mov	 DWORD PTR fs:0, eax
  00024	8b f1		 mov	 esi, ecx
  00026	89 75 f0	 mov	 DWORD PTR _this$[ebp], esi
; File z:\sources\lunor\repos\rougemeilland\palmtree.math.core.uint\palmtree.math.core.uint\pmc_exception.h

; 162  :         {

  00029	c7 06 00 00 00
	00		 mov	 DWORD PTR [esi], OFFSET ??_7OverflowException@Internal@Core@Math@Palmtree@@6B@

; 163  :         }

  0002f	c7 45 fc ff ff
	ff ff		 mov	 DWORD PTR __$EHRec$[ebp+8], -1

; 70   :         {

  00036	c7 06 00 00 00
	00		 mov	 DWORD PTR [esi], OFFSET ??_7Exception@Internal@Core@Math@Palmtree@@6B@

; 71   :         }

  0003c	c7 45 fc ff ff
	ff ff		 mov	 DWORD PTR __$EHRec$[ebp+8], -1
; File c:\program files (x86)\microsoft visual studio\2017\community\vc\tools\msvc\14.16.27023\include\vcruntime_exception.h

; 86   :         __std_exception_destroy(&_Data);

  00043	8d 46 04	 lea	 eax, DWORD PTR [esi+4]
  00046	50		 push	 eax
  00047	c7 06 00 00 00
	00		 mov	 DWORD PTR [esi], OFFSET ??_7exception@std@@6B@
  0004d	e8 00 00 00 00	 call	 ___std_exception_destroy
  00052	83 c4 04	 add	 esp, 4
  00055	f6 45 08 01	 test	 BYTE PTR ___flags$[ebp], 1
  00059	74 0b		 je	 SHORT $LN12@scalar
  0005b	6a 18		 push	 24			; 00000018H
  0005d	56		 push	 esi
  0005e	e8 00 00 00 00	 call	 ??3@YAXPAXI@Z		; operator delete
  00063	83 c4 08	 add	 esp, 8
$LN12@scalar:
  00066	8b c6		 mov	 eax, esi
  00068	8b 4d f4	 mov	 ecx, DWORD PTR __$EHRec$[ebp]
  0006b	64 89 0d 00 00
	00 00		 mov	 DWORD PTR fs:0, ecx
  00072	59		 pop	 ecx
  00073	5e		 pop	 esi
  00074	8b e5		 mov	 esp, ebp
  00076	5d		 pop	 ebp
  00077	c2 04 00	 ret	 4
_TEXT	ENDS
;	COMDAT text$x
text$x	SEGMENT
__unwindfunclet$??_GOverflowException@Internal@Core@Math@Palmtree@@UAEPAXI@Z$0:
  00000	8b 4d f0	 mov	 ecx, DWORD PTR _this$[ebp]
  00003	e9 00 00 00 00	 jmp	 ??1Exception@Internal@Core@Math@Palmtree@@UAE@XZ ; Palmtree::Math::Core::Internal::Exception::~Exception
__unwindfunclet$??_GOverflowException@Internal@Core@Math@Palmtree@@UAEPAXI@Z$1:
  00008	8b 4d f0	 mov	 ecx, DWORD PTR _this$[ebp]
  0000b	e9 00 00 00 00	 jmp	 ??1exception@std@@UAE@XZ ; std::exception::~exception
__ehhandler$??_GOverflowException@Internal@Core@Math@Palmtree@@UAEPAXI@Z:
  00010	8b 54 24 08	 mov	 edx, DWORD PTR [esp+8]
  00014	8d 42 0c	 lea	 eax, DWORD PTR [edx+12]
  00017	8b 4a f4	 mov	 ecx, DWORD PTR [edx-12]
  0001a	33 c8		 xor	 ecx, eax
  0001c	e8 00 00 00 00	 call	 @__security_check_cookie@4
  00021	b8 00 00 00 00	 mov	 eax, OFFSET __ehfuncinfo$??_GOverflowException@Internal@Core@Math@Palmtree@@UAEPAXI@Z
  00026	e9 00 00 00 00	 jmp	 ___CxxFrameHandler3
text$x	ENDS
??_GOverflowException@Internal@Core@Math@Palmtree@@UAEPAXI@Z ENDP ; Palmtree::Math::Core::Internal::OverflowException::`scalar deleting destructor'
; Function compile flags: /Ogtp
; File z:\sources\lunor\repos\rougemeilland\palmtree.math.core.uint\palmtree.math.core.uint\pmc_exception.h
; File c:\program files (x86)\microsoft visual studio\2017\community\vc\tools\msvc\14.16.27023\include\vcruntime_exception.h
; File z:\sources\lunor\repos\rougemeilland\palmtree.math.core.uint\palmtree.math.core.uint\pmc_exception.h
;	COMDAT ??1OverflowException@Internal@Core@Math@Palmtree@@UAE@XZ
_TEXT	SEGMENT
_this$ = -16						; size = 4
__$EHRec$ = -12						; size = 12
??1OverflowException@Internal@Core@Math@Palmtree@@UAE@XZ PROC ; Palmtree::Math::Core::Internal::OverflowException::~OverflowException, COMDAT
; _this$ = ecx

; 162  :         {

  00000	55		 push	 ebp
  00001	8b ec		 mov	 ebp, esp
  00003	6a ff		 push	 -1
  00005	68 00 00 00 00	 push	 __ehhandler$??1OverflowException@Internal@Core@Math@Palmtree@@UAE@XZ
  0000a	64 a1 00 00 00
	00		 mov	 eax, DWORD PTR fs:0
  00010	50		 push	 eax
  00011	51		 push	 ecx
  00012	a1 00 00 00 00	 mov	 eax, DWORD PTR ___security_cookie
  00017	33 c5		 xor	 eax, ebp
  00019	50		 push	 eax
  0001a	8d 45 f4	 lea	 eax, DWORD PTR __$EHRec$[ebp]
  0001d	64 a3 00 00 00
	00		 mov	 DWORD PTR fs:0, eax
  00023	89 4d f0	 mov	 DWORD PTR _this$[ebp], ecx
  00026	c7 01 00 00 00
	00		 mov	 DWORD PTR [ecx], OFFSET ??_7OverflowException@Internal@Core@Math@Palmtree@@6B@

; 163  :         }

  0002c	c7 45 fc ff ff
	ff ff		 mov	 DWORD PTR __$EHRec$[ebp+8], -1

; 70   :         {

  00033	c7 01 00 00 00
	00		 mov	 DWORD PTR [ecx], OFFSET ??_7Exception@Internal@Core@Math@Palmtree@@6B@

; 71   :         }

  00039	c7 45 fc ff ff
	ff ff		 mov	 DWORD PTR __$EHRec$[ebp+8], -1
; File c:\program files (x86)\microsoft visual studio\2017\community\vc\tools\msvc\14.16.27023\include\vcruntime_exception.h

; 86   :         __std_exception_destroy(&_Data);

  00040	8d 41 04	 lea	 eax, DWORD PTR [ecx+4]
  00043	50		 push	 eax
  00044	c7 01 00 00 00
	00		 mov	 DWORD PTR [ecx], OFFSET ??_7exception@std@@6B@
  0004a	e8 00 00 00 00	 call	 ___std_exception_destroy
  0004f	83 c4 04	 add	 esp, 4
; File z:\sources\lunor\repos\rougemeilland\palmtree.math.core.uint\palmtree.math.core.uint\pmc_exception.h

; 163  :         }

  00052	8b 4d f4	 mov	 ecx, DWORD PTR __$EHRec$[ebp]
  00055	64 89 0d 00 00
	00 00		 mov	 DWORD PTR fs:0, ecx
  0005c	59		 pop	 ecx
  0005d	8b e5		 mov	 esp, ebp
  0005f	5d		 pop	 ebp
  00060	c3		 ret	 0
_TEXT	ENDS
;	COMDAT text$x
text$x	SEGMENT
__unwindfunclet$??1OverflowException@Internal@Core@Math@Palmtree@@UAE@XZ$0:
  00000	8b 4d f0	 mov	 ecx, DWORD PTR _this$[ebp]
  00003	e9 00 00 00 00	 jmp	 ??1Exception@Internal@Core@Math@Palmtree@@UAE@XZ ; Palmtree::Math::Core::Internal::Exception::~Exception
__unwindfunclet$??1OverflowException@Internal@Core@Math@Palmtree@@UAE@XZ$1:
  00008	8b 4d f0	 mov	 ecx, DWORD PTR _this$[ebp]
  0000b	e9 00 00 00 00	 jmp	 ??1exception@std@@UAE@XZ ; std::exception::~exception
__ehhandler$??1OverflowException@Internal@Core@Math@Palmtree@@UAE@XZ:
  00010	8b 54 24 08	 mov	 edx, DWORD PTR [esp+8]
  00014	8d 42 0c	 lea	 eax, DWORD PTR [edx+12]
  00017	8b 4a f8	 mov	 ecx, DWORD PTR [edx-8]
  0001a	33 c8		 xor	 ecx, eax
  0001c	e8 00 00 00 00	 call	 @__security_check_cookie@4
  00021	b8 00 00 00 00	 mov	 eax, OFFSET __ehfuncinfo$??1OverflowException@Internal@Core@Math@Palmtree@@UAE@XZ
  00026	e9 00 00 00 00	 jmp	 ___CxxFrameHandler3
text$x	ENDS
??1OverflowException@Internal@Core@Math@Palmtree@@UAE@XZ ENDP ; Palmtree::Math::Core::Internal::OverflowException::~OverflowException
; Function compile flags: /Ogtp
; File z:\sources\lunor\repos\rougemeilland\palmtree.math.core.uint\palmtree.math.core.uint\pmc_exception.h
; File c:\program files (x86)\microsoft visual studio\2017\community\vc\tools\msvc\14.16.27023\include\vcruntime_exception.h
; File z:\sources\lunor\repos\rougemeilland\palmtree.math.core.uint\palmtree.math.core.uint\pmc_exception.h
;	COMDAT ??0OverflowException@Internal@Core@Math@Palmtree@@QAE@ABV01234@@Z
_TEXT	SEGMENT
_this$ = -16						; size = 4
__$EHRec$ = -12						; size = 12
_p$ = 8							; size = 4
??0OverflowException@Internal@Core@Math@Palmtree@@QAE@ABV01234@@Z PROC ; Palmtree::Math::Core::Internal::OverflowException::OverflowException, COMDAT
; _this$ = ecx

; 158  :         {

  00000	55		 push	 ebp
  00001	8b ec		 mov	 ebp, esp
  00003	6a ff		 push	 -1
  00005	68 00 00 00 00	 push	 __ehhandler$??0OverflowException@Internal@Core@Math@Palmtree@@QAE@ABV01234@@Z
  0000a	64 a1 00 00 00
	00		 mov	 eax, DWORD PTR fs:0
  00010	50		 push	 eax
  00011	51		 push	 ecx
  00012	a1 00 00 00 00	 mov	 eax, DWORD PTR ___security_cookie
  00017	33 c5		 xor	 eax, ebp
  00019	50		 push	 eax
  0001a	8d 45 f4	 lea	 eax, DWORD PTR __$EHRec$[ebp]
  0001d	64 a3 00 00 00
	00		 mov	 DWORD PTR fs:0, eax
  00023	8b d1		 mov	 edx, ecx
  00025	89 55 f0	 mov	 DWORD PTR _this$[ebp], edx
  00028	0f 57 c0	 xorps	 xmm0, xmm0
; File c:\program files (x86)\microsoft visual studio\2017\community\vc\tools\msvc\14.16.27023\include\vcruntime_exception.h

; 50   :     {

  0002b	c7 02 00 00 00
	00		 mov	 DWORD PTR [edx], OFFSET ??_7exception@std@@6B@
  00031	66 0f d6 42 04	 movq	 QWORD PTR [edx+4], xmm0
; File z:\sources\lunor\repos\rougemeilland\palmtree.math.core.uint\palmtree.math.core.uint\pmc_exception.h

; 62   :         Exception(const Exception& p) noexcept(true)

  00036	c7 45 fc 00 00
	00 00		 mov	 DWORD PTR __$EHRec$[ebp+8], 0

; 63   :         {
; 64   :             _code = p._code;

  0003d	8b 4d 08	 mov	 ecx, DWORD PTR _p$[ebp]
  00040	c7 02 00 00 00
	00		 mov	 DWORD PTR [edx], OFFSET ??_7Exception@Internal@Core@Math@Palmtree@@6B@
  00046	8b 41 0c	 mov	 eax, DWORD PTR [ecx+12]
  00049	89 42 0c	 mov	 DWORD PTR [edx+12], eax

; 65   :             _message = p._message;

  0004c	8b 41 10	 mov	 eax, DWORD PTR [ecx+16]
  0004f	89 42 10	 mov	 DWORD PTR [edx+16], eax

; 66   :             _data = p._data;

  00052	8b 41 14	 mov	 eax, DWORD PTR [ecx+20]
  00055	89 42 14	 mov	 DWORD PTR [edx+20], eax

; 67   :         }
; 68   : 
; 69   :         virtual ~Exception() noexcept(true)
; 70   :         {
; 71   :         }
; 72   : 
; 73   :         PMC_STATUS_CODE GetStatusCode() const noexcept(true)
; 74   :         {
; 75   :             return (_code);
; 76   :         }
; 77   : 
; 78   :         wchar_t const* What() const noexcept(true)
; 79   :         {
; 80   :             return (_message);
; 81   :         }
; 82   : 
; 83   :         wchar_t const* Data() const noexcept(true)
; 84   :         {
; 85   :             return (_data);
; 86   :         }
; 87   : 
; 88   :     };
; 89   : 
; 90   :     class ArgumentException
; 91   :         : public Exception
; 92   :     {
; 93   :     public:
; 94   :         ArgumentException(const wchar_t* message) noexcept(true)
; 95   :             : Exception(PMC_STATUS_ARGUMENT_ERROR, message)
; 96   :         {
; 97   :         }
; 98   : 
; 99   :         ArgumentException(const ArgumentException& p) noexcept(true)
; 100  :             : Exception(p)
; 101  :         {
; 102  :         }
; 103  : 
; 104  :         virtual ~ArgumentException() noexcept(true)
; 105  :         {
; 106  :         }
; 107  :     };
; 108  : 
; 109  :     class ArgumentNullException
; 110  :         : public Exception
; 111  :     {
; 112  :     public:
; 113  :         ArgumentNullException(const wchar_t* message, const wchar_t* param_name) noexcept(true)
; 114  :             : Exception(PMC_STATUS_ARGUMENT_NULL_ERROR, message, param_name)
; 115  :         {
; 116  :         }
; 117  : 
; 118  :         ArgumentNullException(const ArgumentNullException& p) noexcept(true)
; 119  :             : Exception(p)
; 120  :         {
; 121  :         }
; 122  : 
; 123  :         virtual ~ArgumentNullException() noexcept(true)
; 124  :         {
; 125  :         }
; 126  :     };
; 127  : 
; 128  :     class ArgumentOutOfRangeException
; 129  :         : public Exception
; 130  :     {
; 131  :     public:
; 132  :         ArgumentOutOfRangeException(const wchar_t* message) noexcept(true)
; 133  :             : Exception(PMC_STATUS_ARGUMENT_OUT_OF_RANGE_ERROR, message)
; 134  :         {
; 135  :         }
; 136  : 
; 137  :         ArgumentOutOfRangeException(const ArgumentOutOfRangeException& p) noexcept(true)
; 138  :             : Exception(p)
; 139  :         {
; 140  :         }
; 141  : 
; 142  :         virtual ~ArgumentOutOfRangeException() noexcept(true)
; 143  :         {
; 144  :         }
; 145  :     };
; 146  : 
; 147  :     class OverflowException
; 148  :         : public Exception
; 149  :     {
; 150  :     public:
; 151  :         OverflowException(const wchar_t* message) noexcept(true)
; 152  :             : Exception(PMC_STATUS_OVERFLOW, message)
; 153  :         {
; 154  :         }
; 155  : 
; 156  :         OverflowException(const OverflowException& p) noexcept(true)
; 157  :             : Exception(p)

  00058	c7 45 fc 01 00
	00 00		 mov	 DWORD PTR __$EHRec$[ebp+8], 1

; 158  :         {

  0005f	c7 02 00 00 00
	00		 mov	 DWORD PTR [edx], OFFSET ??_7OverflowException@Internal@Core@Math@Palmtree@@6B@

; 159  :         }

  00065	c7 45 fc ff ff
	ff ff		 mov	 DWORD PTR __$EHRec$[ebp+8], -1
  0006c	8b c2		 mov	 eax, edx
  0006e	8b 4d f4	 mov	 ecx, DWORD PTR __$EHRec$[ebp]
  00071	64 89 0d 00 00
	00 00		 mov	 DWORD PTR fs:0, ecx
  00078	59		 pop	 ecx
  00079	8b e5		 mov	 esp, ebp
  0007b	5d		 pop	 ebp
  0007c	c2 04 00	 ret	 4
_TEXT	ENDS
;	COMDAT text$x
text$x	SEGMENT
__unwindfunclet$??0OverflowException@Internal@Core@Math@Palmtree@@QAE@ABV01234@@Z$1:
  00000	8b 4d f0	 mov	 ecx, DWORD PTR _this$[ebp]
  00003	e9 00 00 00 00	 jmp	 ??1exception@std@@UAE@XZ ; std::exception::~exception
__unwindfunclet$??0OverflowException@Internal@Core@Math@Palmtree@@QAE@ABV01234@@Z$0:
  00008	8b 4d f0	 mov	 ecx, DWORD PTR _this$[ebp]
  0000b	e9 00 00 00 00	 jmp	 ??1Exception@Internal@Core@Math@Palmtree@@UAE@XZ ; Palmtree::Math::Core::Internal::Exception::~Exception
__ehhandler$??0OverflowException@Internal@Core@Math@Palmtree@@QAE@ABV01234@@Z:
  00010	8b 54 24 08	 mov	 edx, DWORD PTR [esp+8]
  00014	8d 42 0c	 lea	 eax, DWORD PTR [edx+12]
  00017	8b 4a f8	 mov	 ecx, DWORD PTR [edx-8]
  0001a	33 c8		 xor	 ecx, eax
  0001c	e8 00 00 00 00	 call	 @__security_check_cookie@4
  00021	b8 00 00 00 00	 mov	 eax, OFFSET __ehfuncinfo$??0OverflowException@Internal@Core@Math@Palmtree@@QAE@ABV01234@@Z
  00026	e9 00 00 00 00	 jmp	 ___CxxFrameHandler3
text$x	ENDS
??0OverflowException@Internal@Core@Math@Palmtree@@QAE@ABV01234@@Z ENDP ; Palmtree::Math::Core::Internal::OverflowException::OverflowException
; Function compile flags: /Ogtp
; File z:\sources\lunor\repos\rougemeilland\palmtree.math.core.uint\palmtree.math.core.uint\pmc_exception.h
; File c:\program files (x86)\microsoft visual studio\2017\community\vc\tools\msvc\14.16.27023\include\vcruntime_exception.h
; File z:\sources\lunor\repos\rougemeilland\palmtree.math.core.uint\palmtree.math.core.uint\pmc_exception.h
;	COMDAT ??0OverflowException@Internal@Core@Math@Palmtree@@QAE@PB_W@Z
_TEXT	SEGMENT
_this$ = -16						; size = 4
__$EHRec$ = -12						; size = 12
_message$ = 8						; size = 4
??0OverflowException@Internal@Core@Math@Palmtree@@QAE@PB_W@Z PROC ; Palmtree::Math::Core::Internal::OverflowException::OverflowException, COMDAT
; _this$ = ecx

; 153  :         {

  00000	55		 push	 ebp
  00001	8b ec		 mov	 ebp, esp
  00003	6a ff		 push	 -1
  00005	68 00 00 00 00	 push	 __ehhandler$??0OverflowException@Internal@Core@Math@Palmtree@@QAE@PB_W@Z
  0000a	64 a1 00 00 00
	00		 mov	 eax, DWORD PTR fs:0
  00010	50		 push	 eax
  00011	51		 push	 ecx
  00012	a1 00 00 00 00	 mov	 eax, DWORD PTR ___security_cookie
  00017	33 c5		 xor	 eax, ebp
  00019	50		 push	 eax
  0001a	8d 45 f4	 lea	 eax, DWORD PTR __$EHRec$[ebp]
  0001d	64 a3 00 00 00
	00		 mov	 DWORD PTR fs:0, eax
  00023	89 4d f0	 mov	 DWORD PTR _this$[ebp], ecx
  00026	0f 57 c0	 xorps	 xmm0, xmm0
; File c:\program files (x86)\microsoft visual studio\2017\community\vc\tools\msvc\14.16.27023\include\vcruntime_exception.h

; 50   :     {

  00029	c7 01 00 00 00
	00		 mov	 DWORD PTR [ecx], OFFSET ??_7exception@std@@6B@
  0002f	66 0f d6 41 04	 movq	 QWORD PTR [ecx+4], xmm0
; File z:\sources\lunor\repos\rougemeilland\palmtree.math.core.uint\palmtree.math.core.uint\pmc_exception.h

; 47   :         Exception(PMC_STATUS_CODE code, const wchar_t* message) noexcept(true)

  00034	c7 45 fc 00 00
	00 00		 mov	 DWORD PTR __$EHRec$[ebp+8], 0

; 48   :         {
; 49   :             _code = code;
; 50   :             _message = message;

  0003b	8b 45 08	 mov	 eax, DWORD PTR _message$[ebp]
  0003e	c7 01 00 00 00
	00		 mov	 DWORD PTR [ecx], OFFSET ??_7Exception@Internal@Core@Math@Palmtree@@6B@
  00044	c7 41 0c fc ff
	ff ff		 mov	 DWORD PTR [ecx+12], -4	; fffffffcH
  0004b	89 41 10	 mov	 DWORD PTR [ecx+16], eax

; 51   :             _data = nullptr;

  0004e	c7 41 14 00 00
	00 00		 mov	 DWORD PTR [ecx+20], 0

; 52   :         }
; 53   : 
; 54   :         Exception(PMC_STATUS_CODE code, const wchar_t* message, const wchar_t* data) noexcept(true)
; 55   :         {
; 56   :             _code = code;
; 57   :             _message = message;
; 58   :             _data = data;
; 59   :         }
; 60   : 
; 61   :     public:
; 62   :         Exception(const Exception& p) noexcept(true)
; 63   :         {
; 64   :             _code = p._code;
; 65   :             _message = p._message;
; 66   :             _data = p._data;
; 67   :         }
; 68   : 
; 69   :         virtual ~Exception() noexcept(true)
; 70   :         {
; 71   :         }
; 72   : 
; 73   :         PMC_STATUS_CODE GetStatusCode() const noexcept(true)
; 74   :         {
; 75   :             return (_code);
; 76   :         }
; 77   : 
; 78   :         wchar_t const* What() const noexcept(true)
; 79   :         {
; 80   :             return (_message);
; 81   :         }
; 82   : 
; 83   :         wchar_t const* Data() const noexcept(true)
; 84   :         {
; 85   :             return (_data);
; 86   :         }
; 87   : 
; 88   :     };
; 89   : 
; 90   :     class ArgumentException
; 91   :         : public Exception
; 92   :     {
; 93   :     public:
; 94   :         ArgumentException(const wchar_t* message) noexcept(true)
; 95   :             : Exception(PMC_STATUS_ARGUMENT_ERROR, message)
; 96   :         {
; 97   :         }
; 98   : 
; 99   :         ArgumentException(const ArgumentException& p) noexcept(true)
; 100  :             : Exception(p)
; 101  :         {
; 102  :         }
; 103  : 
; 104  :         virtual ~ArgumentException() noexcept(true)
; 105  :         {
; 106  :         }
; 107  :     };
; 108  : 
; 109  :     class ArgumentNullException
; 110  :         : public Exception
; 111  :     {
; 112  :     public:
; 113  :         ArgumentNullException(const wchar_t* message, const wchar_t* param_name) noexcept(true)
; 114  :             : Exception(PMC_STATUS_ARGUMENT_NULL_ERROR, message, param_name)
; 115  :         {
; 116  :         }
; 117  : 
; 118  :         ArgumentNullException(const ArgumentNullException& p) noexcept(true)
; 119  :             : Exception(p)
; 120  :         {
; 121  :         }
; 122  : 
; 123  :         virtual ~ArgumentNullException() noexcept(true)
; 124  :         {
; 125  :         }
; 126  :     };
; 127  : 
; 128  :     class ArgumentOutOfRangeException
; 129  :         : public Exception
; 130  :     {
; 131  :     public:
; 132  :         ArgumentOutOfRangeException(const wchar_t* message) noexcept(true)
; 133  :             : Exception(PMC_STATUS_ARGUMENT_OUT_OF_RANGE_ERROR, message)
; 134  :         {
; 135  :         }
; 136  : 
; 137  :         ArgumentOutOfRangeException(const ArgumentOutOfRangeException& p) noexcept(true)
; 138  :             : Exception(p)
; 139  :         {
; 140  :         }
; 141  : 
; 142  :         virtual ~ArgumentOutOfRangeException() noexcept(true)
; 143  :         {
; 144  :         }
; 145  :     };
; 146  : 
; 147  :     class OverflowException
; 148  :         : public Exception
; 149  :     {
; 150  :     public:
; 151  :         OverflowException(const wchar_t* message) noexcept(true)
; 152  :             : Exception(PMC_STATUS_OVERFLOW, message)

  00055	c7 45 fc 01 00
	00 00		 mov	 DWORD PTR __$EHRec$[ebp+8], 1

; 153  :         {

  0005c	c7 01 00 00 00
	00		 mov	 DWORD PTR [ecx], OFFSET ??_7OverflowException@Internal@Core@Math@Palmtree@@6B@

; 154  :         }

  00062	c7 45 fc ff ff
	ff ff		 mov	 DWORD PTR __$EHRec$[ebp+8], -1
  00069	8b c1		 mov	 eax, ecx
  0006b	8b 4d f4	 mov	 ecx, DWORD PTR __$EHRec$[ebp]
  0006e	64 89 0d 00 00
	00 00		 mov	 DWORD PTR fs:0, ecx
  00075	59		 pop	 ecx
  00076	8b e5		 mov	 esp, ebp
  00078	5d		 pop	 ebp
  00079	c2 04 00	 ret	 4
_TEXT	ENDS
;	COMDAT text$x
text$x	SEGMENT
__unwindfunclet$??0OverflowException@Internal@Core@Math@Palmtree@@QAE@PB_W@Z$1:
  00000	8b 4d f0	 mov	 ecx, DWORD PTR _this$[ebp]
  00003	e9 00 00 00 00	 jmp	 ??1exception@std@@UAE@XZ ; std::exception::~exception
__unwindfunclet$??0OverflowException@Internal@Core@Math@Palmtree@@QAE@PB_W@Z$0:
  00008	8b 4d f0	 mov	 ecx, DWORD PTR _this$[ebp]
  0000b	e9 00 00 00 00	 jmp	 ??1Exception@Internal@Core@Math@Palmtree@@UAE@XZ ; Palmtree::Math::Core::Internal::Exception::~Exception
__ehhandler$??0OverflowException@Internal@Core@Math@Palmtree@@QAE@PB_W@Z:
  00010	8b 54 24 08	 mov	 edx, DWORD PTR [esp+8]
  00014	8d 42 0c	 lea	 eax, DWORD PTR [edx+12]
  00017	8b 4a f8	 mov	 ecx, DWORD PTR [edx-8]
  0001a	33 c8		 xor	 ecx, eax
  0001c	e8 00 00 00 00	 call	 @__security_check_cookie@4
  00021	b8 00 00 00 00	 mov	 eax, OFFSET __ehfuncinfo$??0OverflowException@Internal@Core@Math@Palmtree@@QAE@PB_W@Z
  00026	e9 00 00 00 00	 jmp	 ___CxxFrameHandler3
text$x	ENDS
??0OverflowException@Internal@Core@Math@Palmtree@@QAE@PB_W@Z ENDP ; Palmtree::Math::Core::Internal::OverflowException::OverflowException
; Function compile flags: /Ogtp
; File z:\sources\lunor\repos\rougemeilland\palmtree.math.core.uint\palmtree.math.core.uint\pmc_exception.h
; File c:\program files (x86)\microsoft visual studio\2017\community\vc\tools\msvc\14.16.27023\include\vcruntime_exception.h
;	COMDAT ??_GException@Internal@Core@Math@Palmtree@@UAEPAXI@Z
_TEXT	SEGMENT
_this$ = -16						; size = 4
__$EHRec$ = -12						; size = 12
___flags$ = 8						; size = 4
??_GException@Internal@Core@Math@Palmtree@@UAEPAXI@Z PROC ; Palmtree::Math::Core::Internal::Exception::`scalar deleting destructor', COMDAT
; _this$ = ecx
  00000	55		 push	 ebp
  00001	8b ec		 mov	 ebp, esp
  00003	6a ff		 push	 -1
  00005	68 00 00 00 00	 push	 __ehhandler$??_GException@Internal@Core@Math@Palmtree@@UAEPAXI@Z
  0000a	64 a1 00 00 00
	00		 mov	 eax, DWORD PTR fs:0
  00010	50		 push	 eax
  00011	51		 push	 ecx
  00012	56		 push	 esi
  00013	a1 00 00 00 00	 mov	 eax, DWORD PTR ___security_cookie
  00018	33 c5		 xor	 eax, ebp
  0001a	50		 push	 eax
  0001b	8d 45 f4	 lea	 eax, DWORD PTR __$EHRec$[ebp]
  0001e	64 a3 00 00 00
	00		 mov	 DWORD PTR fs:0, eax
  00024	8b f1		 mov	 esi, ecx
  00026	89 75 f0	 mov	 DWORD PTR _this$[ebp], esi
; File z:\sources\lunor\repos\rougemeilland\palmtree.math.core.uint\palmtree.math.core.uint\pmc_exception.h

; 70   :         {

  00029	c7 06 00 00 00
	00		 mov	 DWORD PTR [esi], OFFSET ??_7Exception@Internal@Core@Math@Palmtree@@6B@

; 71   :         }

  0002f	c7 45 fc ff ff
	ff ff		 mov	 DWORD PTR __$EHRec$[ebp+8], -1
; File c:\program files (x86)\microsoft visual studio\2017\community\vc\tools\msvc\14.16.27023\include\vcruntime_exception.h

; 86   :         __std_exception_destroy(&_Data);

  00036	8d 46 04	 lea	 eax, DWORD PTR [esi+4]
  00039	50		 push	 eax
  0003a	c7 06 00 00 00
	00		 mov	 DWORD PTR [esi], OFFSET ??_7exception@std@@6B@
  00040	e8 00 00 00 00	 call	 ___std_exception_destroy
  00045	83 c4 04	 add	 esp, 4
  00048	f6 45 08 01	 test	 BYTE PTR ___flags$[ebp], 1
  0004c	74 0b		 je	 SHORT $LN9@scalar
  0004e	6a 18		 push	 24			; 00000018H
  00050	56		 push	 esi
  00051	e8 00 00 00 00	 call	 ??3@YAXPAXI@Z		; operator delete
  00056	83 c4 08	 add	 esp, 8
$LN9@scalar:
  00059	8b c6		 mov	 eax, esi
  0005b	8b 4d f4	 mov	 ecx, DWORD PTR __$EHRec$[ebp]
  0005e	64 89 0d 00 00
	00 00		 mov	 DWORD PTR fs:0, ecx
  00065	59		 pop	 ecx
  00066	5e		 pop	 esi
  00067	8b e5		 mov	 esp, ebp
  00069	5d		 pop	 ebp
  0006a	c2 04 00	 ret	 4
_TEXT	ENDS
;	COMDAT text$x
text$x	SEGMENT
__unwindfunclet$??_GException@Internal@Core@Math@Palmtree@@UAEPAXI@Z$0:
  00000	8b 4d f0	 mov	 ecx, DWORD PTR _this$[ebp]
  00003	e9 00 00 00 00	 jmp	 ??1exception@std@@UAE@XZ ; std::exception::~exception
__ehhandler$??_GException@Internal@Core@Math@Palmtree@@UAEPAXI@Z:
  00008	8b 54 24 08	 mov	 edx, DWORD PTR [esp+8]
  0000c	8d 42 0c	 lea	 eax, DWORD PTR [edx+12]
  0000f	8b 4a f4	 mov	 ecx, DWORD PTR [edx-12]
  00012	33 c8		 xor	 ecx, eax
  00014	e8 00 00 00 00	 call	 @__security_check_cookie@4
  00019	b8 00 00 00 00	 mov	 eax, OFFSET __ehfuncinfo$??_GException@Internal@Core@Math@Palmtree@@UAEPAXI@Z
  0001e	e9 00 00 00 00	 jmp	 ___CxxFrameHandler3
text$x	ENDS
??_GException@Internal@Core@Math@Palmtree@@UAEPAXI@Z ENDP ; Palmtree::Math::Core::Internal::Exception::`scalar deleting destructor'
; Function compile flags: /Ogtp
; File z:\sources\lunor\repos\rougemeilland\palmtree.math.core.uint\palmtree.math.core.uint\pmc_exception.h
; File c:\program files (x86)\microsoft visual studio\2017\community\vc\tools\msvc\14.16.27023\include\vcruntime_exception.h
; File z:\sources\lunor\repos\rougemeilland\palmtree.math.core.uint\palmtree.math.core.uint\pmc_exception.h
;	COMDAT ??1Exception@Internal@Core@Math@Palmtree@@UAE@XZ
_TEXT	SEGMENT
_this$ = -16						; size = 4
__$EHRec$ = -12						; size = 12
??1Exception@Internal@Core@Math@Palmtree@@UAE@XZ PROC	; Palmtree::Math::Core::Internal::Exception::~Exception, COMDAT
; _this$ = ecx

; 70   :         {

  00000	55		 push	 ebp
  00001	8b ec		 mov	 ebp, esp
  00003	6a ff		 push	 -1
  00005	68 00 00 00 00	 push	 __ehhandler$??1Exception@Internal@Core@Math@Palmtree@@UAE@XZ
  0000a	64 a1 00 00 00
	00		 mov	 eax, DWORD PTR fs:0
  00010	50		 push	 eax
  00011	51		 push	 ecx
  00012	a1 00 00 00 00	 mov	 eax, DWORD PTR ___security_cookie
  00017	33 c5		 xor	 eax, ebp
  00019	50		 push	 eax
  0001a	8d 45 f4	 lea	 eax, DWORD PTR __$EHRec$[ebp]
  0001d	64 a3 00 00 00
	00		 mov	 DWORD PTR fs:0, eax
  00023	89 4d f0	 mov	 DWORD PTR _this$[ebp], ecx
  00026	c7 01 00 00 00
	00		 mov	 DWORD PTR [ecx], OFFSET ??_7Exception@Internal@Core@Math@Palmtree@@6B@

; 71   :         }

  0002c	c7 45 fc ff ff
	ff ff		 mov	 DWORD PTR __$EHRec$[ebp+8], -1
; File c:\program files (x86)\microsoft visual studio\2017\community\vc\tools\msvc\14.16.27023\include\vcruntime_exception.h

; 86   :         __std_exception_destroy(&_Data);

  00033	8d 41 04	 lea	 eax, DWORD PTR [ecx+4]
  00036	50		 push	 eax
  00037	c7 01 00 00 00
	00		 mov	 DWORD PTR [ecx], OFFSET ??_7exception@std@@6B@
  0003d	e8 00 00 00 00	 call	 ___std_exception_destroy
  00042	83 c4 04	 add	 esp, 4
; File z:\sources\lunor\repos\rougemeilland\palmtree.math.core.uint\palmtree.math.core.uint\pmc_exception.h

; 71   :         }

  00045	8b 4d f4	 mov	 ecx, DWORD PTR __$EHRec$[ebp]
  00048	64 89 0d 00 00
	00 00		 mov	 DWORD PTR fs:0, ecx
  0004f	59		 pop	 ecx
  00050	8b e5		 mov	 esp, ebp
  00052	5d		 pop	 ebp
  00053	c3		 ret	 0
_TEXT	ENDS
;	COMDAT text$x
text$x	SEGMENT
__unwindfunclet$??1Exception@Internal@Core@Math@Palmtree@@UAE@XZ$0:
  00000	8b 4d f0	 mov	 ecx, DWORD PTR _this$[ebp]
  00003	e9 00 00 00 00	 jmp	 ??1exception@std@@UAE@XZ ; std::exception::~exception
__ehhandler$??1Exception@Internal@Core@Math@Palmtree@@UAE@XZ:
  00008	8b 54 24 08	 mov	 edx, DWORD PTR [esp+8]
  0000c	8d 42 0c	 lea	 eax, DWORD PTR [edx+12]
  0000f	8b 4a f8	 mov	 ecx, DWORD PTR [edx-8]
  00012	33 c8		 xor	 ecx, eax
  00014	e8 00 00 00 00	 call	 @__security_check_cookie@4
  00019	b8 00 00 00 00	 mov	 eax, OFFSET __ehfuncinfo$??1Exception@Internal@Core@Math@Palmtree@@UAE@XZ
  0001e	e9 00 00 00 00	 jmp	 ___CxxFrameHandler3
text$x	ENDS
??1Exception@Internal@Core@Math@Palmtree@@UAE@XZ ENDP	; Palmtree::Math::Core::Internal::Exception::~Exception
; Function compile flags: /Ogtp
; File z:\sources\lunor\repos\rougemeilland\palmtree.math.core.uint\palmtree.math.core.uint\pmc_exception.h
; File c:\program files (x86)\microsoft visual studio\2017\community\vc\tools\msvc\14.16.27023\include\vcruntime_exception.h
; File z:\sources\lunor\repos\rougemeilland\palmtree.math.core.uint\palmtree.math.core.uint\pmc_exception.h
;	COMDAT ??0Exception@Internal@Core@Math@Palmtree@@QAE@ABV01234@@Z
_TEXT	SEGMENT
_this$ = -16						; size = 4
__$EHRec$ = -12						; size = 12
_p$ = 8							; size = 4
??0Exception@Internal@Core@Math@Palmtree@@QAE@ABV01234@@Z PROC ; Palmtree::Math::Core::Internal::Exception::Exception, COMDAT
; _this$ = ecx

; 62   :         Exception(const Exception& p) noexcept(true)

  00000	55		 push	 ebp
  00001	8b ec		 mov	 ebp, esp
  00003	6a ff		 push	 -1
  00005	68 00 00 00 00	 push	 __ehhandler$??0Exception@Internal@Core@Math@Palmtree@@QAE@ABV01234@@Z
  0000a	64 a1 00 00 00
	00		 mov	 eax, DWORD PTR fs:0
  00010	50		 push	 eax
  00011	51		 push	 ecx
  00012	a1 00 00 00 00	 mov	 eax, DWORD PTR ___security_cookie
  00017	33 c5		 xor	 eax, ebp
  00019	50		 push	 eax
  0001a	8d 45 f4	 lea	 eax, DWORD PTR __$EHRec$[ebp]
  0001d	64 a3 00 00 00
	00		 mov	 DWORD PTR fs:0, eax
  00023	8b d1		 mov	 edx, ecx
  00025	89 55 f0	 mov	 DWORD PTR _this$[ebp], edx
  00028	0f 57 c0	 xorps	 xmm0, xmm0
; File c:\program files (x86)\microsoft visual studio\2017\community\vc\tools\msvc\14.16.27023\include\vcruntime_exception.h

; 50   :     {

  0002b	c7 02 00 00 00
	00		 mov	 DWORD PTR [edx], OFFSET ??_7exception@std@@6B@
  00031	66 0f d6 42 04	 movq	 QWORD PTR [edx+4], xmm0
; File z:\sources\lunor\repos\rougemeilland\palmtree.math.core.uint\palmtree.math.core.uint\pmc_exception.h

; 62   :         Exception(const Exception& p) noexcept(true)

  00036	c7 45 fc 00 00
	00 00		 mov	 DWORD PTR __$EHRec$[ebp+8], 0

; 63   :         {
; 64   :             _code = p._code;

  0003d	8b 4d 08	 mov	 ecx, DWORD PTR _p$[ebp]
  00040	c7 02 00 00 00
	00		 mov	 DWORD PTR [edx], OFFSET ??_7Exception@Internal@Core@Math@Palmtree@@6B@
  00046	8b 41 0c	 mov	 eax, DWORD PTR [ecx+12]
  00049	89 42 0c	 mov	 DWORD PTR [edx+12], eax

; 65   :             _message = p._message;

  0004c	8b 41 10	 mov	 eax, DWORD PTR [ecx+16]
  0004f	89 42 10	 mov	 DWORD PTR [edx+16], eax

; 66   :             _data = p._data;

  00052	8b 41 14	 mov	 eax, DWORD PTR [ecx+20]
  00055	89 42 14	 mov	 DWORD PTR [edx+20], eax

; 67   :         }

  00058	c7 45 fc ff ff
	ff ff		 mov	 DWORD PTR __$EHRec$[ebp+8], -1
  0005f	8b c2		 mov	 eax, edx
  00061	8b 4d f4	 mov	 ecx, DWORD PTR __$EHRec$[ebp]
  00064	64 89 0d 00 00
	00 00		 mov	 DWORD PTR fs:0, ecx
  0006b	59		 pop	 ecx
  0006c	8b e5		 mov	 esp, ebp
  0006e	5d		 pop	 ebp
  0006f	c2 04 00	 ret	 4
_TEXT	ENDS
;	COMDAT text$x
text$x	SEGMENT
__unwindfunclet$??0Exception@Internal@Core@Math@Palmtree@@QAE@ABV01234@@Z$0:
  00000	8b 4d f0	 mov	 ecx, DWORD PTR _this$[ebp]
  00003	e9 00 00 00 00	 jmp	 ??1exception@std@@UAE@XZ ; std::exception::~exception
__ehhandler$??0Exception@Internal@Core@Math@Palmtree@@QAE@ABV01234@@Z:
  00008	8b 54 24 08	 mov	 edx, DWORD PTR [esp+8]
  0000c	8d 42 0c	 lea	 eax, DWORD PTR [edx+12]
  0000f	8b 4a f8	 mov	 ecx, DWORD PTR [edx-8]
  00012	33 c8		 xor	 ecx, eax
  00014	e8 00 00 00 00	 call	 @__security_check_cookie@4
  00019	b8 00 00 00 00	 mov	 eax, OFFSET __ehfuncinfo$??0Exception@Internal@Core@Math@Palmtree@@QAE@ABV01234@@Z
  0001e	e9 00 00 00 00	 jmp	 ___CxxFrameHandler3
text$x	ENDS
??0Exception@Internal@Core@Math@Palmtree@@QAE@ABV01234@@Z ENDP ; Palmtree::Math::Core::Internal::Exception::Exception
; Function compile flags: /Ogtp
; File z:\sources\lunor\repos\rougemeilland\palmtree.math.core.uint\palmtree.math.core.uint\pmc_exception.h
; File c:\program files (x86)\microsoft visual studio\2017\community\vc\tools\msvc\14.16.27023\include\vcruntime_exception.h
; File z:\sources\lunor\repos\rougemeilland\palmtree.math.core.uint\palmtree.math.core.uint\pmc_exception.h
;	COMDAT ??0Exception@Internal@Core@Math@Palmtree@@IAE@HPB_W0@Z
_TEXT	SEGMENT
_this$ = -16						; size = 4
__$EHRec$ = -12						; size = 12
_code$ = 8						; size = 4
_message$ = 12						; size = 4
_data$ = 16						; size = 4
??0Exception@Internal@Core@Math@Palmtree@@IAE@HPB_W0@Z PROC ; Palmtree::Math::Core::Internal::Exception::Exception, COMDAT
; _this$ = ecx

; 54   :         Exception(PMC_STATUS_CODE code, const wchar_t* message, const wchar_t* data) noexcept(true)

  00000	55		 push	 ebp
  00001	8b ec		 mov	 ebp, esp
  00003	6a ff		 push	 -1
  00005	68 00 00 00 00	 push	 __ehhandler$??0Exception@Internal@Core@Math@Palmtree@@IAE@HPB_W0@Z
  0000a	64 a1 00 00 00
	00		 mov	 eax, DWORD PTR fs:0
  00010	50		 push	 eax
  00011	51		 push	 ecx
  00012	a1 00 00 00 00	 mov	 eax, DWORD PTR ___security_cookie
  00017	33 c5		 xor	 eax, ebp
  00019	50		 push	 eax
  0001a	8d 45 f4	 lea	 eax, DWORD PTR __$EHRec$[ebp]
  0001d	64 a3 00 00 00
	00		 mov	 DWORD PTR fs:0, eax
  00023	89 4d f0	 mov	 DWORD PTR _this$[ebp], ecx
  00026	0f 57 c0	 xorps	 xmm0, xmm0
; File c:\program files (x86)\microsoft visual studio\2017\community\vc\tools\msvc\14.16.27023\include\vcruntime_exception.h

; 50   :     {

  00029	c7 01 00 00 00
	00		 mov	 DWORD PTR [ecx], OFFSET ??_7exception@std@@6B@
  0002f	66 0f d6 41 04	 movq	 QWORD PTR [ecx+4], xmm0
; File z:\sources\lunor\repos\rougemeilland\palmtree.math.core.uint\palmtree.math.core.uint\pmc_exception.h

; 54   :         Exception(PMC_STATUS_CODE code, const wchar_t* message, const wchar_t* data) noexcept(true)

  00034	c7 45 fc 00 00
	00 00		 mov	 DWORD PTR __$EHRec$[ebp+8], 0

; 55   :         {
; 56   :             _code = code;

  0003b	8b 45 08	 mov	 eax, DWORD PTR _code$[ebp]
  0003e	89 41 0c	 mov	 DWORD PTR [ecx+12], eax

; 57   :             _message = message;

  00041	8b 45 0c	 mov	 eax, DWORD PTR _message$[ebp]
  00044	89 41 10	 mov	 DWORD PTR [ecx+16], eax

; 58   :             _data = data;

  00047	8b 45 10	 mov	 eax, DWORD PTR _data$[ebp]
  0004a	c7 01 00 00 00
	00		 mov	 DWORD PTR [ecx], OFFSET ??_7Exception@Internal@Core@Math@Palmtree@@6B@
  00050	89 41 14	 mov	 DWORD PTR [ecx+20], eax

; 59   :         }

  00053	c7 45 fc ff ff
	ff ff		 mov	 DWORD PTR __$EHRec$[ebp+8], -1
  0005a	8b c1		 mov	 eax, ecx
  0005c	8b 4d f4	 mov	 ecx, DWORD PTR __$EHRec$[ebp]
  0005f	64 89 0d 00 00
	00 00		 mov	 DWORD PTR fs:0, ecx
  00066	59		 pop	 ecx
  00067	8b e5		 mov	 esp, ebp
  00069	5d		 pop	 ebp
  0006a	c2 0c 00	 ret	 12			; 0000000cH
_TEXT	ENDS
;	COMDAT text$x
text$x	SEGMENT
__unwindfunclet$??0Exception@Internal@Core@Math@Palmtree@@IAE@HPB_W0@Z$0:
  00000	8b 4d f0	 mov	 ecx, DWORD PTR _this$[ebp]
  00003	e9 00 00 00 00	 jmp	 ??1exception@std@@UAE@XZ ; std::exception::~exception
__ehhandler$??0Exception@Internal@Core@Math@Palmtree@@IAE@HPB_W0@Z:
  00008	8b 54 24 08	 mov	 edx, DWORD PTR [esp+8]
  0000c	8d 42 0c	 lea	 eax, DWORD PTR [edx+12]
  0000f	8b 4a f8	 mov	 ecx, DWORD PTR [edx-8]
  00012	33 c8		 xor	 ecx, eax
  00014	e8 00 00 00 00	 call	 @__security_check_cookie@4
  00019	b8 00 00 00 00	 mov	 eax, OFFSET __ehfuncinfo$??0Exception@Internal@Core@Math@Palmtree@@IAE@HPB_W0@Z
  0001e	e9 00 00 00 00	 jmp	 ___CxxFrameHandler3
text$x	ENDS
??0Exception@Internal@Core@Math@Palmtree@@IAE@HPB_W0@Z ENDP ; Palmtree::Math::Core::Internal::Exception::Exception
; Function compile flags: /Ogtp
; File z:\sources\lunor\repos\rougemeilland\palmtree.math.core.uint\palmtree.math.core.uint\pmc_exception.h
; File c:\program files (x86)\microsoft visual studio\2017\community\vc\tools\msvc\14.16.27023\include\vcruntime_exception.h
; File z:\sources\lunor\repos\rougemeilland\palmtree.math.core.uint\palmtree.math.core.uint\pmc_exception.h
;	COMDAT ??0Exception@Internal@Core@Math@Palmtree@@IAE@HPB_W@Z
_TEXT	SEGMENT
_this$ = -16						; size = 4
__$EHRec$ = -12						; size = 12
_code$ = 8						; size = 4
_message$ = 12						; size = 4
??0Exception@Internal@Core@Math@Palmtree@@IAE@HPB_W@Z PROC ; Palmtree::Math::Core::Internal::Exception::Exception, COMDAT
; _this$ = ecx

; 47   :         Exception(PMC_STATUS_CODE code, const wchar_t* message) noexcept(true)

  00000	55		 push	 ebp
  00001	8b ec		 mov	 ebp, esp
  00003	6a ff		 push	 -1
  00005	68 00 00 00 00	 push	 __ehhandler$??0Exception@Internal@Core@Math@Palmtree@@IAE@HPB_W@Z
  0000a	64 a1 00 00 00
	00		 mov	 eax, DWORD PTR fs:0
  00010	50		 push	 eax
  00011	51		 push	 ecx
  00012	a1 00 00 00 00	 mov	 eax, DWORD PTR ___security_cookie
  00017	33 c5		 xor	 eax, ebp
  00019	50		 push	 eax
  0001a	8d 45 f4	 lea	 eax, DWORD PTR __$EHRec$[ebp]
  0001d	64 a3 00 00 00
	00		 mov	 DWORD PTR fs:0, eax
  00023	89 4d f0	 mov	 DWORD PTR _this$[ebp], ecx
  00026	0f 57 c0	 xorps	 xmm0, xmm0
; File c:\program files (x86)\microsoft visual studio\2017\community\vc\tools\msvc\14.16.27023\include\vcruntime_exception.h

; 50   :     {

  00029	c7 01 00 00 00
	00		 mov	 DWORD PTR [ecx], OFFSET ??_7exception@std@@6B@
  0002f	66 0f d6 41 04	 movq	 QWORD PTR [ecx+4], xmm0
; File z:\sources\lunor\repos\rougemeilland\palmtree.math.core.uint\palmtree.math.core.uint\pmc_exception.h

; 47   :         Exception(PMC_STATUS_CODE code, const wchar_t* message) noexcept(true)

  00034	c7 45 fc 00 00
	00 00		 mov	 DWORD PTR __$EHRec$[ebp+8], 0

; 48   :         {
; 49   :             _code = code;

  0003b	8b 45 08	 mov	 eax, DWORD PTR _code$[ebp]
  0003e	89 41 0c	 mov	 DWORD PTR [ecx+12], eax

; 50   :             _message = message;

  00041	8b 45 0c	 mov	 eax, DWORD PTR _message$[ebp]
  00044	c7 01 00 00 00
	00		 mov	 DWORD PTR [ecx], OFFSET ??_7Exception@Internal@Core@Math@Palmtree@@6B@
  0004a	89 41 10	 mov	 DWORD PTR [ecx+16], eax

; 51   :             _data = nullptr;

  0004d	c7 41 14 00 00
	00 00		 mov	 DWORD PTR [ecx+20], 0

; 52   :         }

  00054	c7 45 fc ff ff
	ff ff		 mov	 DWORD PTR __$EHRec$[ebp+8], -1
  0005b	8b c1		 mov	 eax, ecx
  0005d	8b 4d f4	 mov	 ecx, DWORD PTR __$EHRec$[ebp]
  00060	64 89 0d 00 00
	00 00		 mov	 DWORD PTR fs:0, ecx
  00067	59		 pop	 ecx
  00068	8b e5		 mov	 esp, ebp
  0006a	5d		 pop	 ebp
  0006b	c2 08 00	 ret	 8
_TEXT	ENDS
;	COMDAT text$x
text$x	SEGMENT
__unwindfunclet$??0Exception@Internal@Core@Math@Palmtree@@IAE@HPB_W@Z$0:
  00000	8b 4d f0	 mov	 ecx, DWORD PTR _this$[ebp]
  00003	e9 00 00 00 00	 jmp	 ??1exception@std@@UAE@XZ ; std::exception::~exception
__ehhandler$??0Exception@Internal@Core@Math@Palmtree@@IAE@HPB_W@Z:
  00008	8b 54 24 08	 mov	 edx, DWORD PTR [esp+8]
  0000c	8d 42 0c	 lea	 eax, DWORD PTR [edx+12]
  0000f	8b 4a f8	 mov	 ecx, DWORD PTR [edx-8]
  00012	33 c8		 xor	 ecx, eax
  00014	e8 00 00 00 00	 call	 @__security_check_cookie@4
  00019	b8 00 00 00 00	 mov	 eax, OFFSET __ehfuncinfo$??0Exception@Internal@Core@Math@Palmtree@@IAE@HPB_W@Z
  0001e	e9 00 00 00 00	 jmp	 ___CxxFrameHandler3
text$x	ENDS
??0Exception@Internal@Core@Math@Palmtree@@IAE@HPB_W@Z ENDP ; Palmtree::Math::Core::Internal::Exception::Exception
; Function compile flags: /Ogtp
; File c:\program files (x86)\microsoft visual studio\2017\community\vc\tools\msvc\14.16.27023\include\vcruntime_exception.h
;	COMDAT ??_Gexception@std@@UAEPAXI@Z
_TEXT	SEGMENT
__$EHRec$ = -12						; size = 12
___flags$ = 8						; size = 4
??_Gexception@std@@UAEPAXI@Z PROC			; std::exception::`scalar deleting destructor', COMDAT
; _this$ = ecx
  00000	55		 push	 ebp
  00001	8b ec		 mov	 ebp, esp
  00003	6a ff		 push	 -1
  00005	68 00 00 00 00	 push	 __ehhandler$??_Gexception@std@@UAEPAXI@Z
  0000a	64 a1 00 00 00
	00		 mov	 eax, DWORD PTR fs:0
  00010	50		 push	 eax
  00011	56		 push	 esi
  00012	a1 00 00 00 00	 mov	 eax, DWORD PTR ___security_cookie
  00017	33 c5		 xor	 eax, ebp
  00019	50		 push	 eax
  0001a	8d 45 f4	 lea	 eax, DWORD PTR __$EHRec$[ebp]
  0001d	64 a3 00 00 00
	00		 mov	 DWORD PTR fs:0, eax
  00023	8b f1		 mov	 esi, ecx

; 86   :         __std_exception_destroy(&_Data);

  00025	8d 46 04	 lea	 eax, DWORD PTR [esi+4]
  00028	c7 06 00 00 00
	00		 mov	 DWORD PTR [esi], OFFSET ??_7exception@std@@6B@
  0002e	50		 push	 eax
  0002f	e8 00 00 00 00	 call	 ___std_exception_destroy
  00034	83 c4 04	 add	 esp, 4
  00037	f6 45 08 01	 test	 BYTE PTR ___flags$[ebp], 1
  0003b	74 0b		 je	 SHORT $LN6@scalar
  0003d	6a 0c		 push	 12			; 0000000cH
  0003f	56		 push	 esi
  00040	e8 00 00 00 00	 call	 ??3@YAXPAXI@Z		; operator delete
  00045	83 c4 08	 add	 esp, 8
$LN6@scalar:
  00048	8b c6		 mov	 eax, esi
  0004a	8b 4d f4	 mov	 ecx, DWORD PTR __$EHRec$[ebp]
  0004d	64 89 0d 00 00
	00 00		 mov	 DWORD PTR fs:0, ecx
  00054	59		 pop	 ecx
  00055	5e		 pop	 esi
  00056	8b e5		 mov	 esp, ebp
  00058	5d		 pop	 ebp
  00059	c2 04 00	 ret	 4
_TEXT	ENDS
;	COMDAT text$x
text$x	SEGMENT
__ehhandler$??_Gexception@std@@UAEPAXI@Z:
  00000	8b 54 24 08	 mov	 edx, DWORD PTR [esp+8]
  00004	8d 42 0c	 lea	 eax, DWORD PTR [edx+12]
  00007	8b 4a f8	 mov	 ecx, DWORD PTR [edx-8]
  0000a	33 c8		 xor	 ecx, eax
  0000c	e8 00 00 00 00	 call	 @__security_check_cookie@4
  00011	b8 00 00 00 00	 mov	 eax, OFFSET __ehfuncinfo$??_Gexception@std@@UAEPAXI@Z
  00016	e9 00 00 00 00	 jmp	 ___CxxFrameHandler3
text$x	ENDS
??_Gexception@std@@UAEPAXI@Z ENDP			; std::exception::`scalar deleting destructor'
; Function compile flags: /Ogtp
; File c:\program files (x86)\microsoft visual studio\2017\community\vc\tools\msvc\14.16.27023\include\vcruntime_exception.h
;	COMDAT ?what@exception@std@@UBEPBDXZ
_TEXT	SEGMENT
?what@exception@std@@UBEPBDXZ PROC			; std::exception::what, COMDAT
; _this$ = ecx

; 91   :         return _Data._What ? _Data._What : "Unknown exception";

  00000	8b 49 04	 mov	 ecx, DWORD PTR [ecx+4]
  00003	b8 00 00 00 00	 mov	 eax, OFFSET ??_C@_0BC@EOODALEL@Unknown?5exception@
  00008	85 c9		 test	 ecx, ecx
  0000a	0f 45 c1	 cmovne	 eax, ecx

; 92   :     }

  0000d	c3		 ret	 0
?what@exception@std@@UBEPBDXZ ENDP			; std::exception::what
_TEXT	ENDS
; Function compile flags: /Ogtp
; File c:\program files (x86)\microsoft visual studio\2017\community\vc\tools\msvc\14.16.27023\include\vcruntime_exception.h
;	COMDAT ??1exception@std@@UAE@XZ
_TEXT	SEGMENT
__$EHRec$ = -12						; size = 12
??1exception@std@@UAE@XZ PROC				; std::exception::~exception, COMDAT
; _this$ = ecx

; 85   :     {

  00000	55		 push	 ebp
  00001	8b ec		 mov	 ebp, esp
  00003	6a ff		 push	 -1
  00005	68 00 00 00 00	 push	 __ehhandler$??1exception@std@@UAE@XZ
  0000a	64 a1 00 00 00
	00		 mov	 eax, DWORD PTR fs:0
  00010	50		 push	 eax
  00011	a1 00 00 00 00	 mov	 eax, DWORD PTR ___security_cookie
  00016	33 c5		 xor	 eax, ebp
  00018	50		 push	 eax
  00019	8d 45 f4	 lea	 eax, DWORD PTR __$EHRec$[ebp]
  0001c	64 a3 00 00 00
	00		 mov	 DWORD PTR fs:0, eax

; 86   :         __std_exception_destroy(&_Data);

  00022	8d 41 04	 lea	 eax, DWORD PTR [ecx+4]
  00025	c7 01 00 00 00
	00		 mov	 DWORD PTR [ecx], OFFSET ??_7exception@std@@6B@
  0002b	50		 push	 eax
  0002c	e8 00 00 00 00	 call	 ___std_exception_destroy
  00031	83 c4 04	 add	 esp, 4

; 87   :     }

  00034	8b 4d f4	 mov	 ecx, DWORD PTR __$EHRec$[ebp]
  00037	64 89 0d 00 00
	00 00		 mov	 DWORD PTR fs:0, ecx
  0003e	59		 pop	 ecx
  0003f	8b e5		 mov	 esp, ebp
  00041	5d		 pop	 ebp
  00042	c3		 ret	 0
_TEXT	ENDS
;	COMDAT text$x
text$x	SEGMENT
__ehhandler$??1exception@std@@UAE@XZ:
  00000	8b 54 24 08	 mov	 edx, DWORD PTR [esp+8]
  00004	8d 42 0c	 lea	 eax, DWORD PTR [edx+12]
  00007	8b 4a fc	 mov	 ecx, DWORD PTR [edx-4]
  0000a	33 c8		 xor	 ecx, eax
  0000c	e8 00 00 00 00	 call	 @__security_check_cookie@4
  00011	b8 00 00 00 00	 mov	 eax, OFFSET __ehfuncinfo$??1exception@std@@UAE@XZ
  00016	e9 00 00 00 00	 jmp	 ___CxxFrameHandler3
text$x	ENDS
??1exception@std@@UAE@XZ ENDP				; std::exception::~exception
; Function compile flags: /Ogtp
; File c:\program files (x86)\microsoft visual studio\2017\community\vc\tools\msvc\14.16.27023\include\vcruntime_exception.h
;	COMDAT ??0exception@std@@QAE@XZ
_TEXT	SEGMENT
??0exception@std@@QAE@XZ PROC				; std::exception::exception, COMDAT
; _this$ = ecx

; 50   :     {

  00000	0f 57 c0	 xorps	 xmm0, xmm0
  00003	c7 01 00 00 00
	00		 mov	 DWORD PTR [ecx], OFFSET ??_7exception@std@@6B@
  00009	66 0f d6 41 04	 movq	 QWORD PTR [ecx+4], xmm0

; 51   :     }

  0000e	8b c1		 mov	 eax, ecx
  00010	c3		 ret	 0
??0exception@std@@QAE@XZ ENDP				; std::exception::exception
_TEXT	ENDS
END
