; Listing generated by Microsoft (R) Optimizing Compiler Version 19.16.27026.1 

	TITLE	Z:\Sources\Lunor\Repos\rougemeilland\Palmtree.Math.Core.Uint\Palmtree.Math.Core.Uint\pmc_bytes.c
	.686P
	.XMM
	include listing.inc
	.model	flat

INCLUDELIB MSVCRT
INCLUDELIB OLDNAMES

PUBLIC	_PMC_FromByteArray@12
PUBLIC	_PMC_ToByteArray@16
EXTRN	_AllocateNumber:PROC
EXTRN	_CommitNumber:PROC
EXTRN	_CheckNumber:PROC
EXTRN	_number_zero:BYTE
; Function compile flags: /Ogtp
; File z:\sources\lunor\repos\rougemeilland\palmtree.math.core.uint\palmtree.math.core.uint\pmc_bytes.c
; File z:\sources\lunor\repos\rougemeilland\palmtree.math.core.uint\palmtree.math.core.uint\pmc_inline_func.h
; File z:\sources\lunor\repos\rougemeilland\palmtree.math.core.uint\palmtree.math.core.uint\pmc_bytes.c
;	COMDAT _CountActualBitsFromBuffer
_TEXT	SEGMENT
_p$ = 8							; size = 4
_count$ = 12						; size = 4
_CountActualBitsFromBuffer PROC				; COMDAT

; 32   : {

	push	ebp
	mov	ebp, esp

; 33   :     p += count;

	mov	eax, DWORD PTR _p$[ebp]
	mov	edx, DWORD PTR _count$[ebp]
	add	eax, edx

; 34   :     while (count > 0)

	test	edx, edx
	je	SHORT $LN3@CountActua
	npad	1
$LL2@CountActua:

; 35   :     {
; 36   :         --p;
; 37   :         if (*p != 0)

	mov	cl, BYTE PTR [eax-1]
	lea	eax, DWORD PTR [eax-1]
	test	cl, cl
	jne	SHORT $LN10@CountActua

; 39   :         --count;

	sub	edx, 1
	jne	SHORT $LL2@CountActua
$LN3@CountActua:

; 40   :     }
; 41   :     return (0);

	xor	eax, eax

; 42   : }

	pop	ebp
	ret	0
$LN10@CountActua:
; File z:\sources\lunor\repos\rougemeilland\palmtree.math.core.uint\palmtree.math.core.uint\pmc_inline_func.h

; 579  :         _BitScanReverse(&pos, x);

	movzx	eax, cl
	bsr	ecx, eax

; 580  : #elif defined(__GNUC__)
; 581  :         __asm__("bsrl %1, %0" : "=r"(pos) : "rm"((_UINT32_T)x));
; 582  : #else
; 583  : #error unknown compiler
; 584  : #endif
; 585  :         return ((unsigned char)(sizeof(x) * 8 - 1 - pos));

	mov	al, 7
	sub	al, cl
	movzx	ecx, al
; File z:\sources\lunor\repos\rougemeilland\palmtree.math.core.uint\palmtree.math.core.uint\pmc_bytes.c

; 38   :             return (count * 8 - _LZCNT_ALT_8(*p));

	lea	eax, DWORD PTR [edx*8]
	sub	eax, ecx

; 42   : }

	pop	ebp
	ret	0
_CountActualBitsFromBuffer ENDP
_TEXT	ENDS
; Function compile flags: /Ogtp
; File z:\sources\lunor\repos\rougemeilland\palmtree.math.core.uint\palmtree.math.core.uint\pmc_inline_func.h
;	COMDAT __LZCNT_ALT_8
_TEXT	SEGMENT
_x$ = 8							; size = 1
__LZCNT_ALT_8 PROC					; COMDAT

; 574  :     {

	push	ebp
	mov	ebp, esp

; 575  :         if (x == 0)

	mov	al, BYTE PTR _x$[ebp]
	test	al, al
	jne	SHORT $LN2@LZCNT_ALT_

; 576  :             return (sizeof(x) * 8);

	mov	eax, 8

; 586  :     }

	pop	ebp
	ret	0
$LN2@LZCNT_ALT_:

; 577  :         _UINT32_T pos;
; 578  : #ifdef _MSC_VER
; 579  :         _BitScanReverse(&pos, x);

	movzx	eax, al
	bsr	ecx, eax

; 580  : #elif defined(__GNUC__)
; 581  :         __asm__("bsrl %1, %0" : "=r"(pos) : "rm"((_UINT32_T)x));
; 582  : #else
; 583  : #error unknown compiler
; 584  : #endif
; 585  :         return ((unsigned char)(sizeof(x) * 8 - 1 - pos));

	mov	al, 7
	sub	al, cl
	movzx	eax, al

; 586  :     }

	pop	ebp
	ret	0
__LZCNT_ALT_8 ENDP
_TEXT	ENDS
; Function compile flags: /Ogtp
; File z:\sources\lunor\repos\rougemeilland\palmtree.math.core.uint\palmtree.math.core.uint\pmc_inline_func.h
;	COMDAT __DIVIDE_CEILING_SIZE
_TEXT	SEGMENT
_u$ = 8							; size = 4
_v$ = 12						; size = 4
__DIVIDE_CEILING_SIZE PROC				; COMDAT

; 191  :     {

	push	ebp
	mov	ebp, esp

; 192  :         return ((u + v - 1) / v);

	mov	eax, DWORD PTR _u$[ebp]
	xor	edx, edx
	dec	eax
	add	eax, DWORD PTR _v$[ebp]
	div	DWORD PTR _v$[ebp]

; 193  :     }

	pop	ebp
	ret	0
__DIVIDE_CEILING_SIZE ENDP
_TEXT	ENDS
; Function compile flags: /Ogtp
; File z:\sources\lunor\repos\rougemeilland\palmtree.math.core.uint\palmtree.math.core.uint\pmc_inline_func.h
;	COMDAT __COPY_MEMORY_BYTE
_TEXT	SEGMENT
_d$ = 8							; size = 4
_s$ = 12						; size = 4
_count$ = 16						; size = 4
__COPY_MEMORY_BYTE PROC					; COMDAT

; 42   :     {

	push	ebp
	mov	ebp, esp

; 43   :         __movsb(d, s, count);

	mov	ecx, DWORD PTR _count$[ebp]
	push	esi
	mov	esi, DWORD PTR _s$[ebp]
	push	edi
	mov	edi, DWORD PTR _d$[ebp]
	rep movsb
	pop	edi
	pop	esi

; 44   :     }

	pop	ebp
	ret	0
__COPY_MEMORY_BYTE ENDP
_TEXT	ENDS
; Function compile flags: /Ogtp
; File z:\sources\lunor\repos\rougemeilland\palmtree.math.core.uint\palmtree.math.core.uint\pmc_bytes.c
; File z:\sources\lunor\repos\rougemeilland\palmtree.math.core.uint\palmtree.math.core.uint\pmc_inline_func.h
; File z:\sources\lunor\repos\rougemeilland\palmtree.math.core.uint\palmtree.math.core.uint\pmc_bytes.c
; File z:\sources\lunor\repos\rougemeilland\palmtree.math.core.uint\palmtree.math.core.uint\pmc_inline_func.h
; File z:\sources\lunor\repos\rougemeilland\palmtree.math.core.uint\palmtree.math.core.uint\pmc_bytes.c
;	COMDAT _PMC_ToByteArray@16
_TEXT	SEGMENT
_p$ = 8							; size = 4
_buffer$ = 12						; size = 4
_buffer_size$ = 16					; size = 4
_count$ = 20						; size = 4
_PMC_ToByteArray@16 PROC				; COMDAT

; 72   : {

	push	ebp
	mov	ebp, esp
	push	esi

; 73   :     if (p == NULL)

	mov	esi, DWORD PTR _p$[ebp]
	test	esi, esi
	jne	SHORT $LN2@PMC_ToByte

; 74   :         return (PMC_STATUS_ARGUMENT_ERROR);

	or	eax, -1
	pop	esi

; 91   : }

	pop	ebp
	ret	16					; 00000010H
$LN2@PMC_ToByte:

; 75   :     NUMBER_HEADER* np = (NUMBER_HEADER*)p;
; 76   :     PMC_STATUS_CODE result;
; 77   :     if ((result = CheckNumber(np)) != PMC_STATUS_OK)

	push	esi
	call	_CheckNumber
	add	esp, 4
	test	eax, eax
	jne	SHORT $LN1@PMC_ToByte

; 78   :         return (result);
; 79   :     size_t expected_buffer_size = np->IS_ZERO ? 1 : _DIVIDE_CEILING_SIZE(np->UNIT_BIT_COUNT, 8);

	mov	ecx, DWORD PTR [esi+24]
	and	ecx, 2
	je	SHORT $LN9@PMC_ToByte
	lea	edx, DWORD PTR [eax+1]
	jmp	SHORT $LN10@PMC_ToByte
$LN9@PMC_ToByte:
; File z:\sources\lunor\repos\rougemeilland\palmtree.math.core.uint\palmtree.math.core.uint\pmc_inline_func.h

; 192  :         return ((u + v - 1) / v);

	mov	edx, DWORD PTR [esi+12]
	add	edx, 7
	shr	edx, 3
$LN10@PMC_ToByte:
	push	edi
; File z:\sources\lunor\repos\rougemeilland\palmtree.math.core.uint\palmtree.math.core.uint\pmc_bytes.c

; 80   :     if (buffer != NULL)

	mov	edi, DWORD PTR _buffer$[ebp]
	test	edi, edi
	je	SHORT $LN13@PMC_ToByte

; 81   :     {
; 82   :         if (np->UNIT_BIT_COUNT > sizeof(*buffer) * 8 * buffer_size)

	mov	eax, DWORD PTR _buffer_size$[ebp]
	shl	eax, 3
	cmp	DWORD PTR [esi+12], eax
	jbe	SHORT $LN5@PMC_ToByte

; 83   :             return (PMC_STATUS_INSUFFICIENT_BUFFER);

	pop	edi
	mov	eax, -4					; fffffffcH
	pop	esi

; 91   : }

	pop	ebp
	ret	16					; 00000010H
$LN5@PMC_ToByte:

; 84   :         if (np->IS_ZERO)

	test	ecx, ecx
	je	SHORT $LN6@PMC_ToByte

; 89   :     *count = expected_buffer_size;

	mov	eax, DWORD PTR _count$[ebp]
	mov	BYTE PTR [edi], 0
	pop	edi
	pop	esi
	mov	DWORD PTR [eax], edx

; 90   :     return (PMC_STATUS_OK);

	xor	eax, eax

; 91   : }

	pop	ebp
	ret	16					; 00000010H
$LN6@PMC_ToByte:
; File z:\sources\lunor\repos\rougemeilland\palmtree.math.core.uint\palmtree.math.core.uint\pmc_inline_func.h

; 43   :         __movsb(d, s, count);

	mov	esi, DWORD PTR [esi+32]
	mov	ecx, edx
	rep movsb
$LN13@PMC_ToByte:
; File z:\sources\lunor\repos\rougemeilland\palmtree.math.core.uint\palmtree.math.core.uint\pmc_bytes.c

; 89   :     *count = expected_buffer_size;

	mov	eax, DWORD PTR _count$[ebp]
	pop	edi
	mov	DWORD PTR [eax], edx

; 90   :     return (PMC_STATUS_OK);

	xor	eax, eax
$LN1@PMC_ToByte:
	pop	esi

; 91   : }

	pop	ebp
	ret	16					; 00000010H
_PMC_ToByteArray@16 ENDP
_TEXT	ENDS
; Function compile flags: /Ogtp
; File z:\sources\lunor\repos\rougemeilland\palmtree.math.core.uint\palmtree.math.core.uint\pmc_bytes.c
; File z:\sources\lunor\repos\rougemeilland\palmtree.math.core.uint\palmtree.math.core.uint\pmc_inline_func.h
; File z:\sources\lunor\repos\rougemeilland\palmtree.math.core.uint\palmtree.math.core.uint\pmc_bytes.c
; File z:\sources\lunor\repos\rougemeilland\palmtree.math.core.uint\palmtree.math.core.uint\pmc_inline_func.h
; File z:\sources\lunor\repos\rougemeilland\palmtree.math.core.uint\palmtree.math.core.uint\pmc_bytes.c
; File z:\sources\lunor\repos\rougemeilland\palmtree.math.core.uint\palmtree.math.core.uint\pmc_inline_func.h
; File z:\sources\lunor\repos\rougemeilland\palmtree.math.core.uint\palmtree.math.core.uint\pmc_bytes.c
;	COMDAT _PMC_FromByteArray@12
_TEXT	SEGMENT
_p$1 = 8						; size = 4
_buffer$ = 8						; size = 4
_count$ = 12						; size = 4
_o$ = 16						; size = 4
_PMC_FromByteArray@12 PROC				; COMDAT

; 46   : {

	push	ebp
	mov	ebp, esp
	push	ebx
	push	esi

; 47   :     PMC_STATUS_CODE result;
; 48   :     if (buffer == NULL)

	mov	esi, DWORD PTR _buffer$[ebp]
	test	esi, esi
	je	$LN26@PMC_FromBy

; 49   :         return (PMC_STATUS_ARGUMENT_ERROR);
; 50   :     if (o == NULL)

	mov	ebx, DWORD PTR _o$[ebp]
	test	ebx, ebx
	je	SHORT $LN26@PMC_FromBy

; 52   :     __UNIT_TYPE bit_count = CountActualBitsFromBuffer(buffer, count);

	mov	edx, DWORD PTR _count$[ebp]
	push	edi

; 33   :     p += count;

	lea	eax, DWORD PTR [esi+edx]

; 34   :     while (count > 0)

	test	edx, edx
	je	SHORT $LN25@PMC_FromBy
$LL9@PMC_FromBy:

; 35   :     {
; 36   :         --p;
; 37   :         if (*p != 0)

	mov	cl, BYTE PTR [eax-1]
	lea	eax, DWORD PTR [eax-1]
	test	cl, cl
	jne	SHORT $LN21@PMC_FromBy

; 39   :         --count;

	sub	edx, 1
	jne	SHORT $LL9@PMC_FromBy
$LN25@PMC_FromBy:

; 54   :         *o = &number_zero;

	mov	DWORD PTR [ebx], OFFSET _number_zero

; 63   :     }
; 64   : #ifdef _DEBUG
; 65   :     if ((result = CheckNumber(*o)) != PMC_STATUS_OK)
; 66   :         return (result);
; 67   : #endif
; 68   :     return (PMC_STATUS_OK);

	xor	eax, eax
$LN27@PMC_FromBy:

; 69   : }

	pop	edi
	pop	esi
	pop	ebx
	pop	ebp
	ret	12					; 0000000cH
$LN21@PMC_FromBy:
; File z:\sources\lunor\repos\rougemeilland\palmtree.math.core.uint\palmtree.math.core.uint\pmc_inline_func.h

; 579  :         _BitScanReverse(&pos, x);

	movzx	eax, cl
; File z:\sources\lunor\repos\rougemeilland\palmtree.math.core.uint\palmtree.math.core.uint\pmc_bytes.c

; 38   :             return (count * 8 - _LZCNT_ALT_8(*p));

	lea	edi, DWORD PTR [edx*8]
; File z:\sources\lunor\repos\rougemeilland\palmtree.math.core.uint\palmtree.math.core.uint\pmc_inline_func.h

; 579  :         _BitScanReverse(&pos, x);

	bsr	ecx, eax

; 580  : #elif defined(__GNUC__)
; 581  :         __asm__("bsrl %1, %0" : "=r"(pos) : "rm"((_UINT32_T)x));
; 582  : #else
; 583  : #error unknown compiler
; 584  : #endif
; 585  :         return ((unsigned char)(sizeof(x) * 8 - 1 - pos));

	mov	al, 7
	sub	al, cl
	movzx	eax, al
; File z:\sources\lunor\repos\rougemeilland\palmtree.math.core.uint\palmtree.math.core.uint\pmc_bytes.c

; 38   :             return (count * 8 - _LZCNT_ALT_8(*p));

	sub	edi, eax

; 53   :     if (bit_count == 0)

	je	SHORT $LN25@PMC_FromBy

; 55   :     else
; 56   :     {
; 57   :         NUMBER_HEADER* p;
; 58   :         if ((result = AllocateNumber(&p, bit_count, NULL)) != PMC_STATUS_OK)

	push	0
	lea	eax, DWORD PTR _p$1[ebp]
	push	edi
	push	eax
	call	_AllocateNumber
	add	esp, 12					; 0000000cH
	test	eax, eax
	jne	SHORT $LN27@PMC_FromBy
; File z:\sources\lunor\repos\rougemeilland\palmtree.math.core.uint\palmtree.math.core.uint\pmc_inline_func.h

; 192  :         return ((u + v - 1) / v);

	lea	ecx, DWORD PTR [edi+7]

; 43   :         __movsb(d, s, count);

	mov	edi, DWORD PTR _p$1[ebp]

; 192  :         return ((u + v - 1) / v);

	shr	ecx, 3

; 43   :         __movsb(d, s, count);

	mov	edi, DWORD PTR [edi+32]
	rep movsb
; File z:\sources\lunor\repos\rougemeilland\palmtree.math.core.uint\palmtree.math.core.uint\pmc_bytes.c

; 61   :         CommitNumber(p);

	push	DWORD PTR _p$1[ebp]
	call	_CommitNumber

; 62   :         *o = p;

	mov	eax, DWORD PTR _p$1[ebp]
	add	esp, 4
	mov	DWORD PTR [ebx], eax

; 63   :     }
; 64   : #ifdef _DEBUG
; 65   :     if ((result = CheckNumber(*o)) != PMC_STATUS_OK)
; 66   :         return (result);
; 67   : #endif
; 68   :     return (PMC_STATUS_OK);

	xor	eax, eax
	pop	edi
	pop	esi

; 69   : }

	pop	ebx
	pop	ebp
	ret	12					; 0000000cH
$LN26@PMC_FromBy:
	pop	esi

; 51   :         return (PMC_STATUS_ARGUMENT_ERROR);

	or	eax, -1

; 69   : }

	pop	ebx
	pop	ebp
	ret	12					; 0000000cH
_PMC_FromByteArray@12 ENDP
_TEXT	ENDS
END
