; Listing generated by Microsoft (R) Optimizing Compiler Version 19.16.27026.1 

	TITLE	Z:\Sources\Lunor\Repos\rougemeilland\Palmtree.Math.Core.Uint\Palmtree.Math.Core.Uint\pmc_compare.c
	.686P
	.XMM
	include listing.inc
	.model	flat

INCLUDELIB MSVCRT
INCLUDELIB OLDNAMES

PUBLIC	_Compare_Imp
PUBLIC	_Initialize_Compare
PUBLIC	_PMC_Compare_I_X@12
PUBLIC	_PMC_Compare_L_X@16
PUBLIC	_PMC_Compare_X_I@12
PUBLIC	_PMC_Compare_X_L@16
PUBLIC	_PMC_Compare_X_X@12
EXTRN	_CheckNumber:PROC
; Function compile flags: /Ogtp
; File z:\sources\lunor\repos\rougemeilland\palmtree.math.core.uint\palmtree.math.core.uint\pmc_compare.c
; File z:\sources\lunor\repos\rougemeilland\palmtree.math.core.uint\palmtree.math.core.uint\pmc_inline_func.h
; File z:\sources\lunor\repos\rougemeilland\palmtree.math.core.uint\palmtree.math.core.uint\pmc_compare.c
; File z:\sources\lunor\repos\rougemeilland\palmtree.math.core.uint\palmtree.math.core.uint\pmc_inline_func.h
; File z:\sources\lunor\repos\rougemeilland\palmtree.math.core.uint\palmtree.math.core.uint\pmc_compare.c
;	COMDAT _PMC_Compare_X_L_Imp
_TEXT	SEGMENT
_v_bit_count$1$ = 8					; size = 4
_u$ = 8							; size = 4
_v$ = 12						; size = 8
_w$ = 20						; size = 4
_PMC_Compare_X_L_Imp PROC				; COMDAT

; 144  : {

	push	ebp
	mov	ebp, esp
	mov	edx, DWORD PTR _w$[ebp]
	push	ebx

; 145  :     if (u->IS_ZERO)

	mov	ebx, DWORD PTR _u$[ebp]
	test	BYTE PTR [ebx], 1
	je	SHORT $LN2@PMC_Compar

; 146  :     {
; 147  :         // u が 0 である場合
; 148  :         if (v == 0)

	mov	eax, DWORD PTR _v$[ebp]
	or	eax, DWORD PTR _v$[ebp+4]
	jne	SHORT $LN4@PMC_Compar

; 220  :                         *w = -1;
; 221  :                     else if (u->BLOCK[0] > v_lo)
; 222  :                         *w = 1;
; 223  :                     else if (u->BLOCK[0] < v_lo)
; 224  :                         *w = -1;
; 225  :                     else
; 226  :                         *w = 0;
; 227  :                 }
; 228  :             }
; 229  :         }
; 230  :         else
; 231  :         {
; 232  :             // _UINT64_T が 1 ワードで表現できる場合
; 233  : 
; 234  :             __UNIT_TYPE u_bit_count = u->UNIT_BIT_COUNT;
; 235  :             __UNIT_TYPE v_bit_count = sizeof(v) * 8 - _LZCNT_ALT_UNIT((__UNIT_TYPE)v);
; 236  :             if (u_bit_count > v_bit_count)
; 237  :             {
; 238  :                 // 明らかに u > v である場合
; 239  :                 *w = 1;
; 240  :             }
; 241  :             else if (u_bit_count < v_bit_count)
; 242  :             {
; 243  :                 // 明らかに u < v である場合
; 244  :                 *w = -1;
; 245  :             }
; 246  :             else
; 247  :             {
; 248  :                 // u > 0 && v > 0 かつ u のビット長と v のビット長が等しく、かつ v が 1 ワードで表現できる場合
; 249  :                 // ⇒ u と v はともに 1 ワードで表現できる
; 250  :                 if (u->BLOCK[0] > v)
; 251  :                     *w = 1;
; 252  :                 else if (u->BLOCK[0] < v)
; 253  :                     *w = -1;
; 254  :                 else
; 255  :                     *w = 0;
; 256  :             }
; 257  :         }
; 258  :     }
; 259  : }

	mov	DWORD PTR [edx], eax
	pop	ebx
	pop	ebp
	ret	0
$LN4@PMC_Compar:

; 149  :         {
; 150  :             // v が 0 である場合
; 151  :             *w = 0;
; 152  :         }
; 153  :         else
; 154  :         {
; 155  :             // v が 0 でない場合
; 156  :             *w = -1;

	or	eax, -1

; 220  :                         *w = -1;
; 221  :                     else if (u->BLOCK[0] > v_lo)
; 222  :                         *w = 1;
; 223  :                     else if (u->BLOCK[0] < v_lo)
; 224  :                         *w = -1;
; 225  :                     else
; 226  :                         *w = 0;
; 227  :                 }
; 228  :             }
; 229  :         }
; 230  :         else
; 231  :         {
; 232  :             // _UINT64_T が 1 ワードで表現できる場合
; 233  : 
; 234  :             __UNIT_TYPE u_bit_count = u->UNIT_BIT_COUNT;
; 235  :             __UNIT_TYPE v_bit_count = sizeof(v) * 8 - _LZCNT_ALT_UNIT((__UNIT_TYPE)v);
; 236  :             if (u_bit_count > v_bit_count)
; 237  :             {
; 238  :                 // 明らかに u > v である場合
; 239  :                 *w = 1;
; 240  :             }
; 241  :             else if (u_bit_count < v_bit_count)
; 242  :             {
; 243  :                 // 明らかに u < v である場合
; 244  :                 *w = -1;
; 245  :             }
; 246  :             else
; 247  :             {
; 248  :                 // u > 0 && v > 0 かつ u のビット長と v のビット長が等しく、かつ v が 1 ワードで表現できる場合
; 249  :                 // ⇒ u と v はともに 1 ワードで表現できる
; 250  :                 if (u->BLOCK[0] > v)
; 251  :                     *w = 1;
; 252  :                 else if (u->BLOCK[0] < v)
; 253  :                     *w = -1;
; 254  :                 else
; 255  :                     *w = 0;
; 256  :             }
; 257  :         }
; 258  :     }
; 259  : }

	mov	DWORD PTR [edx], eax
	pop	ebx
	pop	ebp
	ret	0
$LN2@PMC_Compar:
	push	esi

; 157  :         }
; 158  :     }
; 159  :     else if (v == 0)

	mov	esi, DWORD PTR _v$[ebp]
	mov	eax, esi
	push	edi
	mov	edi, DWORD PTR _v$[ebp+4]
	or	eax, edi
	je	SHORT $LN53@PMC_Compar

; 160  :     {
; 161  :         // v が 0 である場合
; 162  :         *w = 1;
; 163  :     }
; 164  :     else
; 165  :     {
; 166  :         // u と v がともに 0 ではない場合
; 167  :         if (__UNIT_TYPE_BIT_COUNT < sizeof(v) * 8)
; 168  :         {
; 169  :             // _UINT64_T が 1 ワードで表現しきれない場合
; 170  :             __UNIT_TYPE u_bit_count = u->UNIT_BIT_COUNT;
; 171  :             _UINT32_T v_hi;
; 172  :             _UINT32_T v_lo = _FROMDWORDTOWORD(v, &v_hi);
; 173  :             if (v_hi == 0)

	test	edi, edi
	jne	SHORT $LN10@PMC_Compar
; File z:\sources\lunor\repos\rougemeilland\palmtree.math.core.uint\palmtree.math.core.uint\pmc_inline_func.h

; 591  :         if (x == 0)

	test	esi, esi
	jne	SHORT $LN44@PMC_Compar

; 592  :             return (sizeof(x) * 8);

	lea	ecx, DWORD PTR [esi+32]
	jmp	SHORT $LN43@PMC_Compar
$LN44@PMC_Compar:

; 595  :         _BitScanReverse(&pos, x);

	bsr	eax, esi

; 596  : #elif defined(__GNUC__)
; 597  :         __asm__("bsrl %1, %0" : "=r"(pos) : "rm"(x));
; 598  : #else
; 599  : #error unknown compiler
; 600  : #endif
; 601  :         return (sizeof(x) * 8 - 1 - pos);

	mov	ecx, 31					; 0000001fH
	sub	ecx, eax
$LN43@PMC_Compar:
; File z:\sources\lunor\repos\rougemeilland\palmtree.math.core.uint\palmtree.math.core.uint\pmc_compare.c

; 176  :                 __UNIT_TYPE v_bit_count = sizeof(v_lo) * 8 - _LZCNT_ALT_32(v_lo);

	mov	eax, 32					; 00000020H
	sub	eax, ecx

; 177  :                 if (u_bit_count > v_bit_count)

	cmp	DWORD PTR [ebx+16], eax
	ja	SHORT $LN53@PMC_Compar

; 178  :                 {
; 179  :                     // 明らかに u > v である場合
; 180  :                     *w = 1;
; 181  :                 }
; 182  :                 else if (u_bit_count < v_bit_count)

	jb	SHORT $LN52@PMC_Compar

; 183  :                 {
; 184  :                     // 明らかに u < v である場合
; 185  :                     *w = -1;
; 186  :                 }
; 187  :                 else
; 188  :                 {
; 189  :                     // u > 0 && v > 0 かつ u のビット長と v のビット長が等しく、かつ v が 1 ワードで表現できる場合
; 190  :                     // ⇒ u と v はともに 1 ワードで表現できる
; 191  :                     if (u->BLOCK[0] > v_lo)

	mov	eax, DWORD PTR [ebx+36]

; 192  :                         *w = 1;

	jmp	SHORT $LN61@PMC_Compar
$LN10@PMC_Compar:
; File z:\sources\lunor\repos\rougemeilland\palmtree.math.core.uint\palmtree.math.core.uint\pmc_inline_func.h

; 595  :         _BitScanReverse(&pos, x);

	bsr	eax, edi

; 596  : #elif defined(__GNUC__)
; 597  :         __asm__("bsrl %1, %0" : "=r"(pos) : "rm"(x));
; 598  : #else
; 599  : #error unknown compiler
; 600  : #endif
; 601  :         return (sizeof(x) * 8 - 1 - pos);

	mov	ecx, 31					; 0000001fH
	sub	ecx, eax
; File z:\sources\lunor\repos\rougemeilland\palmtree.math.core.uint\palmtree.math.core.uint\pmc_compare.c

; 202  :                 __UNIT_TYPE v_bit_count = sizeof(v) * 8 - _LZCNT_ALT_32(v_hi);

	mov	eax, 64					; 00000040H
	sub	eax, ecx
	mov	DWORD PTR _v_bit_count$1$[ebp], eax

; 203  :                 if (u_bit_count > v_bit_count)

	mov	eax, DWORD PTR [ebx+16]
	cmp	eax, DWORD PTR _v_bit_count$1$[ebp]
	ja	SHORT $LN53@PMC_Compar

; 204  :                 {
; 205  :                     // 明らかに u > v である場合
; 206  :                     *w = 1;
; 207  :                 }
; 208  :                 else if (u_bit_count < v_bit_count)

	jb	SHORT $LN52@PMC_Compar

; 209  :                 {
; 210  :                     // 明らかに u < v である場合
; 211  :                     *w = -1;
; 212  :                 }
; 213  :                 else
; 214  :                 {
; 215  :                     // u > 0 && v > 0 かつ u のビット長と v のビット長が等しく、かつ v が 2 ワードで表現できる場合
; 216  :                     // ⇒ u と v はともに 2 ワードで表現できる
; 217  :                     if (u->BLOCK[1] > v_hi)

	mov	eax, DWORD PTR [ebx+36]
	cmp	DWORD PTR [eax+4], edi
	ja	SHORT $LN53@PMC_Compar

; 218  :                         *w = 1;
; 219  :                     else if (u->BLOCK[1] < v_hi)

	jb	SHORT $LN52@PMC_Compar
$LN61@PMC_Compar:

; 220  :                         *w = -1;
; 221  :                     else if (u->BLOCK[0] > v_lo)
; 222  :                         *w = 1;
; 223  :                     else if (u->BLOCK[0] < v_lo)
; 224  :                         *w = -1;
; 225  :                     else
; 226  :                         *w = 0;
; 227  :                 }
; 228  :             }
; 229  :         }
; 230  :         else
; 231  :         {
; 232  :             // _UINT64_T が 1 ワードで表現できる場合
; 233  : 
; 234  :             __UNIT_TYPE u_bit_count = u->UNIT_BIT_COUNT;
; 235  :             __UNIT_TYPE v_bit_count = sizeof(v) * 8 - _LZCNT_ALT_UNIT((__UNIT_TYPE)v);
; 236  :             if (u_bit_count > v_bit_count)
; 237  :             {
; 238  :                 // 明らかに u > v である場合
; 239  :                 *w = 1;
; 240  :             }
; 241  :             else if (u_bit_count < v_bit_count)
; 242  :             {
; 243  :                 // 明らかに u < v である場合
; 244  :                 *w = -1;
; 245  :             }
; 246  :             else
; 247  :             {
; 248  :                 // u > 0 && v > 0 かつ u のビット長と v のビット長が等しく、かつ v が 1 ワードで表現できる場合
; 249  :                 // ⇒ u と v はともに 1 ワードで表現できる
; 250  :                 if (u->BLOCK[0] > v)
; 251  :                     *w = 1;
; 252  :                 else if (u->BLOCK[0] < v)
; 253  :                     *w = -1;
; 254  :                 else
; 255  :                     *w = 0;
; 256  :             }
; 257  :         }
; 258  :     }
; 259  : }

	mov	eax, DWORD PTR [eax]
	cmp	eax, esi
	ja	SHORT $LN53@PMC_Compar
	jb	SHORT $LN52@PMC_Compar
	pop	edi
	pop	esi
	mov	DWORD PTR [edx], 0
	pop	ebx
	pop	ebp
	ret	0
$LN52@PMC_Compar:
	pop	edi
	pop	esi
	mov	DWORD PTR [edx], -1
	pop	ebx
	pop	ebp
	ret	0
$LN53@PMC_Compar:
	pop	edi
	pop	esi
	mov	DWORD PTR [edx], 1
	pop	ebx
	pop	ebp
	ret	0
_PMC_Compare_X_L_Imp ENDP
_TEXT	ENDS
; Function compile flags: /Ogtp
; File z:\sources\lunor\repos\rougemeilland\palmtree.math.core.uint\palmtree.math.core.uint\pmc_compare.c
; File z:\sources\lunor\repos\rougemeilland\palmtree.math.core.uint\palmtree.math.core.uint\pmc_inline_func.h
; File z:\sources\lunor\repos\rougemeilland\palmtree.math.core.uint\palmtree.math.core.uint\pmc_compare.c
;	COMDAT _PMC_Compare_X_I_Imp
_TEXT	SEGMENT
_u$ = 8							; size = 4
_v$ = 12						; size = 4
_w$ = 16						; size = 4
_PMC_Compare_X_I_Imp PROC				; COMDAT

; 54   : {

	push	ebp
	mov	ebp, esp
	mov	edx, DWORD PTR _w$[ebp]
	push	edi

; 55   :     if (u->IS_ZERO)

	mov	edi, DWORD PTR _u$[ebp]
	test	BYTE PTR [edi], 1
	je	SHORT $LN2@PMC_Compar

; 56   :     {
; 57   :         // u が 0 である場合
; 58   :         if (v == 0)
; 59   :         {
; 60   :             // v が 0 である場合
; 61   :             *w = 0;
; 62   :         }
; 63   :         else
; 64   :         {
; 65   :             // v が 0 でない場合
; 66   :             *w = -1;
; 67   :         }
; 68   :     }

	mov	eax, DWORD PTR _v$[ebp]
	neg	eax
	pop	edi
	sbb	eax, eax

; 96   :                 *w = -1;
; 97   :             else
; 98   :                 *w = 0;
; 99   :         }
; 100  :     }
; 101  : }

	mov	DWORD PTR [edx], eax
	pop	ebp
	ret	0
$LN2@PMC_Compar:
	push	esi

; 69   :     else if (v == 0)

	mov	esi, DWORD PTR _v$[ebp]
	test	esi, esi
	je	SHORT $LN21@PMC_Compar
; File z:\sources\lunor\repos\rougemeilland\palmtree.math.core.uint\palmtree.math.core.uint\pmc_inline_func.h

; 595  :         _BitScanReverse(&pos, x);

	bsr	eax, esi

; 596  : #elif defined(__GNUC__)
; 597  :         __asm__("bsrl %1, %0" : "=r"(pos) : "rm"(x));
; 598  : #else
; 599  : #error unknown compiler
; 600  : #endif
; 601  :         return (sizeof(x) * 8 - 1 - pos);

	mov	ecx, 31					; 0000001fH
	sub	ecx, eax
; File z:\sources\lunor\repos\rougemeilland\palmtree.math.core.uint\palmtree.math.core.uint\pmc_compare.c

; 78   :         __UNIT_TYPE v_bit_count = sizeof(v) * 8 - _LZCNT_ALT_32(v);

	mov	eax, 32					; 00000020H
	sub	eax, ecx

; 79   :         if (u_bit_count > v_bit_count)

	cmp	DWORD PTR [edi+16], eax
	ja	SHORT $LN21@PMC_Compar

; 80   :         {
; 81   :             // 明らかに u > v である場合
; 82   :             *w = 1;
; 83   :         }
; 84   :         else if (u_bit_count < v_bit_count)

	jae	SHORT $LN10@PMC_Compar

; 96   :                 *w = -1;
; 97   :             else
; 98   :                 *w = 0;
; 99   :         }
; 100  :     }
; 101  : }

	pop	esi
	mov	DWORD PTR [edx], -1
	pop	edi
	pop	ebp
	ret	0
$LN10@PMC_Compar:

; 85   :         {
; 86   :             // 明らかに u < v である場合
; 87   :             *w = -1;
; 88   :         }
; 89   :         else
; 90   :         {
; 91   :             // u > 0 && v > 0 かつ u のビット長と v のビット長が等しい場合
; 92   :             // ⇒ u と v はともに 1 ワードで表現できる
; 93   :             if (u->BLOCK[0] > v)

	mov	eax, DWORD PTR [edi+36]
	mov	eax, DWORD PTR [eax]
	cmp	eax, esi
	jbe	SHORT $LN12@PMC_Compar
$LN21@PMC_Compar:
	pop	esi

; 96   :                 *w = -1;
; 97   :             else
; 98   :                 *w = 0;
; 99   :         }
; 100  :     }
; 101  : }

	mov	DWORD PTR [edx], 1
	pop	edi
	pop	ebp
	ret	0
$LN12@PMC_Compar:

; 94   :                 *w = 1;
; 95   :             else if (u->BLOCK[0] < v)

	sbb	eax, eax
	pop	esi

; 96   :                 *w = -1;
; 97   :             else
; 98   :                 *w = 0;
; 99   :         }
; 100  :     }
; 101  : }

	mov	DWORD PTR [edx], eax
	pop	edi
	pop	ebp
	ret	0
_PMC_Compare_X_I_Imp ENDP
_TEXT	ENDS
; Function compile flags: /Ogtp
; File z:\sources\lunor\repos\rougemeilland\palmtree.math.core.uint\palmtree.math.core.uint\pmc_inline_func.h
;	COMDAT __LZCNT_ALT_UNIT
_TEXT	SEGMENT
_x$ = 8							; size = 4
__LZCNT_ALT_UNIT PROC					; COMDAT

; 623  :     {

	push	ebp
	mov	ebp, esp

; 624  :         if (x == 0)

	mov	eax, DWORD PTR _x$[ebp]
	test	eax, eax
	jne	SHORT $LN2@LZCNT_ALT_

; 625  :             return (sizeof(x) * 8);

	mov	eax, 32					; 00000020H

; 649  :     }

	pop	ebp
	ret	0
$LN2@LZCNT_ALT_:

; 626  : #ifdef _M_IX86
; 627  :         _UINT32_T pos;
; 628  : #ifdef _MSC_VER
; 629  :         _BitScanReverse(&pos, x);

	bsr	ecx, eax

; 630  : #elif defined(__GNUC__)
; 631  :         __asm__("bsrl %1, %0" : "=r"(pos) : "rm"(x));
; 632  : #else
; 633  : #error unknown compiler
; 634  : #endif
; 635  : #elif defined(_M_X64)
; 636  : #ifdef _MSC_VER
; 637  :         _UINT32_T pos;
; 638  :         _BitScanReverse64(&pos, x);
; 639  : #elif defined(__GNUC__)
; 640  :         _UINT64_T pos;
; 641  :         __asm__("bsrq %1, %0" : "=r"(pos) : "rm"(x));
; 642  : #else
; 643  : #error unknown compiler
; 644  : #endif
; 645  : #else
; 646  : #error unknown platform
; 647  : #endif
; 648  :         return (sizeof(x) * 8 - 1 - pos);

	mov	eax, 31					; 0000001fH
	sub	eax, ecx

; 649  :     }

	pop	ebp
	ret	0
__LZCNT_ALT_UNIT ENDP
_TEXT	ENDS
; Function compile flags: /Ogtp
; File z:\sources\lunor\repos\rougemeilland\palmtree.math.core.uint\palmtree.math.core.uint\pmc_inline_func.h
;	COMDAT __LZCNT_ALT_32
_TEXT	SEGMENT
_x$ = 8							; size = 4
__LZCNT_ALT_32 PROC					; COMDAT

; 590  :     {

	push	ebp
	mov	ebp, esp

; 591  :         if (x == 0)

	mov	eax, DWORD PTR _x$[ebp]
	test	eax, eax
	jne	SHORT $LN2@LZCNT_ALT_

; 592  :             return (sizeof(x) * 8);

	mov	eax, 32					; 00000020H

; 602  :     }

	pop	ebp
	ret	0
$LN2@LZCNT_ALT_:

; 593  :         _UINT32_T pos;
; 594  : #ifdef _MSC_VER
; 595  :         _BitScanReverse(&pos, x);

	bsr	ecx, eax

; 596  : #elif defined(__GNUC__)
; 597  :         __asm__("bsrl %1, %0" : "=r"(pos) : "rm"(x));
; 598  : #else
; 599  : #error unknown compiler
; 600  : #endif
; 601  :         return (sizeof(x) * 8 - 1 - pos);

	mov	eax, 31					; 0000001fH
	sub	eax, ecx

; 602  :     }

	pop	ebp
	ret	0
__LZCNT_ALT_32 ENDP
_TEXT	ENDS
; Function compile flags: /Ogtp
; File z:\sources\lunor\repos\rougemeilland\palmtree.math.core.uint\palmtree.math.core.uint\pmc_inline_func.h
;	COMDAT __FROMDWORDTOWORD
_TEXT	SEGMENT
_value$ = 8						; size = 8
_result_high$ = 16					; size = 4
__FROMDWORDTOWORD PROC					; COMDAT

; 176  :     {

	push	ebp
	mov	ebp, esp

; 177  :         *result_high = (_UINT32_T)(value >> 32);

	mov	eax, DWORD PTR _result_high$[ebp]
	mov	ecx, DWORD PTR _value$[ebp+4]
	mov	DWORD PTR [eax], ecx

; 178  :         return ((_UINT32_T)value);

	mov	eax, DWORD PTR _value$[ebp]

; 179  :     }

	pop	ebp
	ret	0
__FROMDWORDTOWORD ENDP
_TEXT	ENDS
; Function compile flags: /Ogtp
; File z:\sources\lunor\repos\rougemeilland\palmtree.math.core.uint\palmtree.math.core.uint\pmc_compare.c
;	COMDAT _PMC_Compare_X_X@12
_TEXT	SEGMENT
_u$ = 8							; size = 4
_v$ = 12						; size = 4
_w$ = 16						; size = 4
_PMC_Compare_X_X@12 PROC				; COMDAT

; 302  : {

	push	ebp
	mov	ebp, esp
	push	ebx
	push	esi

; 303  :     if (u == NULL)

	mov	esi, DWORD PTR _u$[ebp]
	push	edi
	test	esi, esi
	je	$LN29@PMC_Compar

; 304  :         return (PMC_STATUS_ARGUMENT_ERROR);
; 305  :     if (v == NULL)

	mov	edi, DWORD PTR _v$[ebp]
	test	edi, edi
	je	$LN29@PMC_Compar

; 306  :         return (PMC_STATUS_ARGUMENT_ERROR);
; 307  :     if (w == NULL)

	mov	ebx, DWORD PTR _w$[ebp]
	test	ebx, ebx
	je	$LN29@PMC_Compar

; 309  :     NUMBER_HEADER* nu = (NUMBER_HEADER*)u;
; 310  :     NUMBER_HEADER* nv = (NUMBER_HEADER*)v;
; 311  :     PMC_STATUS_CODE result;
; 312  :     if ((result = CheckNumber(nu)) != PMC_STATUS_OK)

	push	esi
	call	_CheckNumber
	add	esp, 4
	test	eax, eax
	jne	$LN1@PMC_Compar

; 313  :         return (result);
; 314  :     if ((result = CheckNumber(nv)) != PMC_STATUS_OK)

	push	edi
	call	_CheckNumber
	add	esp, 4
	test	eax, eax
	jne	SHORT $LN1@PMC_Compar

; 315  :         return (result);
; 316  :     if (nu->IS_ZERO)

	mov	eax, DWORD PTR [edi]
	and	eax, 1
	test	BYTE PTR [esi], 1
	je	SHORT $LN7@PMC_Compar

; 317  :     {
; 318  :         *w = nv->IS_ZERO ? 0 : -1;

	pop	edi
	dec	eax

; 342  :         }
; 343  :     }
; 344  :     return (PMC_STATUS_OK);

	mov	DWORD PTR [ebx], eax
	xor	eax, eax

; 345  : }

	pop	esi
	pop	ebx
	pop	ebp
	ret	12					; 0000000cH
$LN7@PMC_Compar:

; 319  :     }
; 320  :     else if (nv->IS_ZERO)

	test	eax, eax
	jne	SHORT $LN25@PMC_Compar

; 321  :     {
; 322  :         *w = 1;
; 323  :     }
; 324  :     else
; 325  :     {
; 326  :         __UNIT_TYPE u_bit_count = nu->UNIT_BIT_COUNT;

	mov	eax, DWORD PTR [esi+16]

; 327  :         __UNIT_TYPE v_bit_count = nv->UNIT_BIT_COUNT;
; 328  :         if (u_bit_count > v_bit_count)

	cmp	eax, DWORD PTR [edi+16]
	ja	SHORT $LN25@PMC_Compar

; 329  :         {
; 330  :             // 明らかに u > v である場合
; 331  :             *w = 1;
; 332  :         }
; 333  :         else if (u_bit_count < v_bit_count)

	jb	SHORT $LN26@PMC_Compar

; 334  :         {
; 335  :             // 明らかに u < v である場合
; 336  :             *w = -1;
; 337  :         }
; 338  :         else
; 339  :         {
; 340  :             // u > 0 && v > 0 かつ u のビット長と v のビット長が等しい場合
; 341  :             *w = Compare_Imp(nu->BLOCK, nv->BLOCK, nu->UNIT_WORD_COUNT);

	mov	ecx, DWORD PTR [esi+12]

; 33   :     u += count;

	mov	edx, DWORD PTR [esi+36]

; 34   :     v += count;

	mov	esi, DWORD PTR [edi+36]
	lea	eax, DWORD PTR [ecx*4]
	add	edx, eax
	add	esi, eax

; 35   :     while (count > 0)

	test	ecx, ecx
	je	SHORT $LN18@PMC_Compar
$LL17@PMC_Compar:

; 36   :     {
; 37   :         --u;
; 38   :         --v;
; 39   :         --count;
; 40   : 
; 41   :         if (*u > *v)

	mov	eax, DWORD PTR [edx-4]
	lea	edx, DWORD PTR [edx-4]
	lea	esi, DWORD PTR [esi-4]
	dec	ecx
	cmp	eax, DWORD PTR [esi]
	ja	SHORT $LN25@PMC_Compar

; 42   :             return (1);
; 43   :         else if (*u < *v)

	jb	SHORT $LN26@PMC_Compar

; 35   :     while (count > 0)

	test	ecx, ecx
	jne	SHORT $LL17@PMC_Compar
$LN18@PMC_Compar:
	pop	edi

; 44   :             return (-1);
; 45   :         else
; 46   :         {
; 47   :         }
; 48   :     }
; 49   :     return (0);

	xor	eax, eax

; 345  : }

	pop	esi
	mov	DWORD PTR [ebx], eax
	pop	ebx
	pop	ebp
	ret	12					; 0000000cH
$LN26@PMC_Compar:
	pop	edi

; 342  :         }
; 343  :     }
; 344  :     return (PMC_STATUS_OK);

	or	eax, -1
	mov	DWORD PTR [ebx], eax
	xor	eax, eax

; 345  : }

	pop	esi
	pop	ebx
	pop	ebp
	ret	12					; 0000000cH
$LN25@PMC_Compar:
	pop	edi

; 342  :         }
; 343  :     }
; 344  :     return (PMC_STATUS_OK);

	mov	eax, 1
	mov	DWORD PTR [ebx], eax
	xor	eax, eax

; 345  : }

	pop	esi
	pop	ebx
	pop	ebp
	ret	12					; 0000000cH
$LN29@PMC_Compar:

; 308  :         return (PMC_STATUS_ARGUMENT_ERROR);

	or	eax, -1
$LN1@PMC_Compar:
	pop	edi

; 345  : }

	pop	esi
	pop	ebx
	pop	ebp
	ret	12					; 0000000cH
_PMC_Compare_X_X@12 ENDP
_TEXT	ENDS
; Function compile flags: /Ogtp
; File z:\sources\lunor\repos\rougemeilland\palmtree.math.core.uint\palmtree.math.core.uint\pmc_compare.c
;	COMDAT _PMC_Compare_X_L@16
_TEXT	SEGMENT
_w_temp$ = 8						; size = 4
_u$ = 8							; size = 4
_v$ = 12						; size = 8
_w$ = 20						; size = 4
_PMC_Compare_X_L@16 PROC				; COMDAT

; 282  : {

	push	ebp
	mov	ebp, esp
	push	esi

; 283  :     if (__UNIT_TYPE_BIT_COUNT * 2 < sizeof(v) * 8)
; 284  :     {
; 285  :         // _UINT64_T が 2 ワードで表現しきれない処理系には対応しない
; 286  :         return (PMC_STATUS_INTERNAL_ERROR);
; 287  :     }
; 288  :     if (u == NULL)

	mov	esi, DWORD PTR _u$[ebp]
	push	edi
	test	esi, esi
	je	SHORT $LN7@PMC_Compar

; 289  :         return (PMC_STATUS_ARGUMENT_ERROR);
; 290  :     if (w == NULL)

	mov	edi, DWORD PTR _w$[ebp]
	test	edi, edi
	je	SHORT $LN7@PMC_Compar

; 292  :     PMC_STATUS_CODE result;
; 293  :     if ((result = CheckNumber((NUMBER_HEADER*)u)) != PMC_STATUS_OK)

	push	esi
	call	_CheckNumber
	add	esp, 4
	test	eax, eax
	jne	SHORT $LN1@PMC_Compar

; 294  :         return (result);
; 295  :     _INT32_T w_temp;
; 296  :     PMC_Compare_X_L_Imp((NUMBER_HEADER*)u, v, &w_temp);

	lea	eax, DWORD PTR _w_temp$[ebp]
	push	eax
	push	DWORD PTR _v$[ebp+4]
	push	DWORD PTR _v$[ebp]
	push	esi
	call	_PMC_Compare_X_L_Imp

; 297  :     *w = w_temp;

	mov	eax, DWORD PTR _w_temp$[ebp]
	add	esp, 16					; 00000010H
	mov	DWORD PTR [edi], eax

; 298  :     return (PMC_STATUS_OK);

	xor	eax, eax
	pop	edi

; 299  : }

	pop	esi
	pop	ebp
	ret	16					; 00000010H
$LN7@PMC_Compar:

; 291  :         return (PMC_STATUS_ARGUMENT_ERROR);

	or	eax, -1
$LN1@PMC_Compar:
	pop	edi

; 299  : }

	pop	esi
	pop	ebp
	ret	16					; 00000010H
_PMC_Compare_X_L@16 ENDP
_TEXT	ENDS
; Function compile flags: /Ogtp
; File z:\sources\lunor\repos\rougemeilland\palmtree.math.core.uint\palmtree.math.core.uint\pmc_compare.c
;	COMDAT _PMC_Compare_X_I@12
_TEXT	SEGMENT
_w_temp$ = 8						; size = 4
_u$ = 8							; size = 4
_v$ = 12						; size = 4
_w$ = 16						; size = 4
_PMC_Compare_X_I@12 PROC				; COMDAT

; 124  : {

	push	ebp
	mov	ebp, esp
	push	esi

; 125  :     if (__UNIT_TYPE_BIT_COUNT < sizeof(v) * 8)
; 126  :     {
; 127  :         // _UINT32_T が 1 ワードで表現しきれない処理系には対応しない
; 128  :         return (PMC_STATUS_INTERNAL_ERROR);
; 129  :     }
; 130  :     if (u == NULL)

	mov	esi, DWORD PTR _u$[ebp]
	push	edi
	test	esi, esi
	je	SHORT $LN7@PMC_Compar

; 131  :         return (PMC_STATUS_ARGUMENT_ERROR);
; 132  :     if (w == NULL)

	mov	edi, DWORD PTR _w$[ebp]
	test	edi, edi
	je	SHORT $LN7@PMC_Compar

; 134  :     PMC_STATUS_CODE result;
; 135  :     if ((result = CheckNumber((NUMBER_HEADER*)u)) != PMC_STATUS_OK)

	push	esi
	call	_CheckNumber
	add	esp, 4
	test	eax, eax
	jne	SHORT $LN1@PMC_Compar

; 136  :         return (result);
; 137  :     _INT32_T w_temp;
; 138  :     PMC_Compare_X_I_Imp((NUMBER_HEADER*)u, v, &w_temp);

	lea	eax, DWORD PTR _w_temp$[ebp]
	push	eax
	push	DWORD PTR _v$[ebp]
	push	esi
	call	_PMC_Compare_X_I_Imp

; 139  :     *w = w_temp;

	mov	eax, DWORD PTR _w_temp$[ebp]
	add	esp, 12					; 0000000cH
	mov	DWORD PTR [edi], eax

; 140  :     return (PMC_STATUS_OK);

	xor	eax, eax
	pop	edi

; 141  : }

	pop	esi
	pop	ebp
	ret	12					; 0000000cH
$LN7@PMC_Compar:

; 133  :         return (PMC_STATUS_ARGUMENT_ERROR);

	or	eax, -1
$LN1@PMC_Compar:
	pop	edi

; 141  : }

	pop	esi
	pop	ebp
	ret	12					; 0000000cH
_PMC_Compare_X_I@12 ENDP
_TEXT	ENDS
; Function compile flags: /Ogtp
; File z:\sources\lunor\repos\rougemeilland\palmtree.math.core.uint\palmtree.math.core.uint\pmc_compare.c
;	COMDAT _PMC_Compare_L_X@16
_TEXT	SEGMENT
_u$ = 8							; size = 8
_w_temp$ = 16						; size = 4
_v$ = 16						; size = 4
_w$ = 20						; size = 4
_PMC_Compare_L_X@16 PROC				; COMDAT

; 262  : {

	push	ebp
	mov	ebp, esp
	push	esi

; 263  :     if (__UNIT_TYPE_BIT_COUNT * 2 < sizeof(u) * 8)
; 264  :     {
; 265  :         // _UINT64_T が 2 ワードで表現しきれない処理系には対応しない
; 266  :         return (PMC_STATUS_INTERNAL_ERROR);
; 267  :     }
; 268  :     if (v == NULL)

	mov	esi, DWORD PTR _v$[ebp]
	push	edi
	test	esi, esi
	je	SHORT $LN7@PMC_Compar

; 269  :         return (PMC_STATUS_ARGUMENT_ERROR);
; 270  :     if (w == NULL)

	mov	edi, DWORD PTR _w$[ebp]
	test	edi, edi
	je	SHORT $LN7@PMC_Compar

; 272  :     PMC_STATUS_CODE result;
; 273  :     if ((result = CheckNumber((NUMBER_HEADER*)v)) != PMC_STATUS_OK)

	push	esi
	call	_CheckNumber
	add	esp, 4
	test	eax, eax
	jne	SHORT $LN1@PMC_Compar

; 274  :         return (result);
; 275  :     _INT32_T w_temp;
; 276  :     PMC_Compare_X_L_Imp((NUMBER_HEADER*)v, u, &w_temp);

	lea	eax, DWORD PTR _w_temp$[ebp]
	push	eax
	push	DWORD PTR _u$[ebp+4]
	push	DWORD PTR _u$[ebp]
	push	esi
	call	_PMC_Compare_X_L_Imp

; 277  :     *w = -w_temp;

	mov	eax, DWORD PTR _w_temp$[ebp]
	add	esp, 16					; 00000010H
	neg	eax
	mov	DWORD PTR [edi], eax

; 278  :     return (PMC_STATUS_OK);

	xor	eax, eax
	pop	edi

; 279  : }

	pop	esi
	pop	ebp
	ret	16					; 00000010H
$LN7@PMC_Compar:

; 271  :         return (PMC_STATUS_ARGUMENT_ERROR);

	or	eax, -1
$LN1@PMC_Compar:
	pop	edi

; 279  : }

	pop	esi
	pop	ebp
	ret	16					; 00000010H
_PMC_Compare_L_X@16 ENDP
_TEXT	ENDS
; Function compile flags: /Ogtp
; File z:\sources\lunor\repos\rougemeilland\palmtree.math.core.uint\palmtree.math.core.uint\pmc_compare.c
;	COMDAT _PMC_Compare_I_X@12
_TEXT	SEGMENT
_u$ = 8							; size = 4
_w_temp$ = 12						; size = 4
_v$ = 12						; size = 4
_w$ = 16						; size = 4
_PMC_Compare_I_X@12 PROC				; COMDAT

; 104  : {

	push	ebp
	mov	ebp, esp
	push	esi

; 105  :     if (__UNIT_TYPE_BIT_COUNT < sizeof(u) * 8)
; 106  :     {
; 107  :         // _UINT32_T が 1 ワードで表現しきれない処理系には対応しない
; 108  :         return (PMC_STATUS_INTERNAL_ERROR);
; 109  :     }
; 110  :     if (v == NULL)

	mov	esi, DWORD PTR _v$[ebp]
	push	edi
	test	esi, esi
	je	SHORT $LN7@PMC_Compar

; 111  :         return (PMC_STATUS_ARGUMENT_ERROR);
; 112  :     if (w == NULL)

	mov	edi, DWORD PTR _w$[ebp]
	test	edi, edi
	je	SHORT $LN7@PMC_Compar

; 114  :     PMC_STATUS_CODE result;
; 115  :     if ((result = CheckNumber((NUMBER_HEADER*)v)) != PMC_STATUS_OK)

	push	esi
	call	_CheckNumber
	add	esp, 4
	test	eax, eax
	jne	SHORT $LN1@PMC_Compar

; 116  :         return (result);
; 117  :     _INT32_T w_temp;
; 118  :     PMC_Compare_X_I_Imp((NUMBER_HEADER*)v, u, &w_temp);

	lea	eax, DWORD PTR _w_temp$[ebp]
	push	eax
	push	DWORD PTR _u$[ebp]
	push	esi
	call	_PMC_Compare_X_I_Imp

; 119  :     *w = -w_temp;

	mov	eax, DWORD PTR _w_temp$[ebp]
	add	esp, 12					; 0000000cH
	neg	eax
	mov	DWORD PTR [edi], eax

; 120  :     return (PMC_STATUS_OK);

	xor	eax, eax
	pop	edi

; 121  : }

	pop	esi
	pop	ebp
	ret	12					; 0000000cH
$LN7@PMC_Compar:

; 113  :         return (PMC_STATUS_ARGUMENT_ERROR);

	or	eax, -1
$LN1@PMC_Compar:
	pop	edi

; 121  : }

	pop	esi
	pop	ebp
	ret	12					; 0000000cH
_PMC_Compare_I_X@12 ENDP
_TEXT	ENDS
; Function compile flags: /Ogtp
; File z:\sources\lunor\repos\rougemeilland\palmtree.math.core.uint\palmtree.math.core.uint\pmc_compare.c
;	COMDAT _Initialize_Compare
_TEXT	SEGMENT
_feature$ = 8						; size = 4
_Initialize_Compare PROC				; COMDAT

; 349  :     return (PMC_STATUS_OK);

	xor	eax, eax

; 350  : }

	ret	0
_Initialize_Compare ENDP
_TEXT	ENDS
; Function compile flags: /Ogtp
; File z:\sources\lunor\repos\rougemeilland\palmtree.math.core.uint\palmtree.math.core.uint\pmc_compare.c
;	COMDAT _Compare_Imp
_TEXT	SEGMENT
_u$ = 8							; size = 4
_v$ = 12						; size = 4
_count$ = 16						; size = 4
_Compare_Imp PROC					; COMDAT

; 32   : {

	push	ebp
	mov	ebp, esp

; 33   :     u += count;

	mov	ecx, DWORD PTR _count$[ebp]
	mov	edx, DWORD PTR _u$[ebp]
	push	esi

; 34   :     v += count;

	mov	esi, DWORD PTR _v$[ebp]
	lea	eax, DWORD PTR [ecx*4]
	add	edx, eax
	add	esi, eax
	push	edi

; 35   :     while (count > 0)

	test	ecx, ecx
	je	SHORT $LN3@Compare_Im
	npad	3
$LL2@Compare_Im:

; 36   :     {
; 37   :         --u;
; 38   :         --v;
; 39   :         --count;
; 40   : 
; 41   :         if (*u > *v)

	mov	eax, DWORD PTR [edx-4]
	lea	edx, DWORD PTR [edx-4]
	lea	esi, DWORD PTR [esi-4]
	dec	ecx
	cmp	eax, DWORD PTR [esi]
	ja	SHORT $LN10@Compare_Im

; 43   :         else if (*u < *v)

	jb	SHORT $LN11@Compare_Im

; 35   :     while (count > 0)

	test	ecx, ecx
	jne	SHORT $LL2@Compare_Im
$LN3@Compare_Im:
	pop	edi

; 45   :         else
; 46   :         {
; 47   :         }
; 48   :     }
; 49   :     return (0);

	xor	eax, eax

; 50   : }

	pop	esi
	pop	ebp
	ret	0
$LN11@Compare_Im:
	pop	edi

; 44   :             return (-1);

	or	eax, -1

; 50   : }

	pop	esi
	pop	ebp
	ret	0
$LN10@Compare_Im:
	pop	edi

; 42   :             return (1);

	mov	eax, 1

; 50   : }

	pop	esi
	pop	ebp
	ret	0
_Compare_Imp ENDP
_TEXT	ENDS
END
