; Listing generated by Microsoft (R) Optimizing Compiler Version 19.16.27027.1 

	TITLE	Z:\Sources\Lunor\Repos\rougemeilland\Palmtree.Math.Core.Uint\Palmtree.Math.Core.Uint\pmc_statistics.cpp
	.686P
	.XMM
	include listing.inc
	.model	flat

INCLUDELIB MSVCRT
INCLUDELIB OLDNAMES

PUBLIC	?statistics_info@Internal@Core@Math@Palmtree@@3U__tag_PMC_STATISTICS_INFO@1234@A ; Palmtree::Math::Core::Internal::statistics_info
_BSS	SEGMENT
?statistics_info@Internal@Core@Math@Palmtree@@3U__tag_PMC_STATISTICS_INFO@1234@A DB 010H DUP (?) ; Palmtree::Math::Core::Internal::statistics_info
_BSS	ENDS
PUBLIC	?PMC_GetStatisticsInfo@Internal@Core@Math@Palmtree@@YGXPAU__tag_PMC_STATISTICS_INFO@1234@@Z ; Palmtree::Math::Core::Internal::PMC_GetStatisticsInfo
; Function compile flags: /Ogtp
; File z:\sources\lunor\repos\rougemeilland\palmtree.math.core.uint\palmtree.math.core.uint\pmc_statistics.cpp
;	COMDAT ?PMC_GetStatisticsInfo@Internal@Core@Math@Palmtree@@YGXPAU__tag_PMC_STATISTICS_INFO@1234@@Z
_TEXT	SEGMENT
_buffer$ = 8						; size = 4
?PMC_GetStatisticsInfo@Internal@Core@Math@Palmtree@@YGXPAU__tag_PMC_STATISTICS_INFO@1234@@Z PROC ; Palmtree::Math::Core::Internal::PMC_GetStatisticsInfo, COMDAT

; 37   :     {

  00000	55		 push	 ebp
  00001	8b ec		 mov	 ebp, esp

; 38   :         buffer->COUNT_DIV32 = statistics_info.COUNT_DIV32;

  00003	8b 4d 08	 mov	 ecx, DWORD PTR _buffer$[ebp]
  00006	a1 0c 00 00 00	 mov	 eax, DWORD PTR ?statistics_info@Internal@Core@Math@Palmtree@@3U__tag_PMC_STATISTICS_INFO@1234@A+12
  0000b	89 41 0c	 mov	 DWORD PTR [ecx+12], eax

; 39   :         buffer->COUNT_DIV64 = statistics_info.COUNT_DIV64;

  0000e	a1 08 00 00 00	 mov	 eax, DWORD PTR ?statistics_info@Internal@Core@Math@Palmtree@@3U__tag_PMC_STATISTICS_INFO@1234@A+8
  00013	89 41 08	 mov	 DWORD PTR [ecx+8], eax

; 40   :         buffer->COUNT_MULTI32 = statistics_info.COUNT_MULTI32;

  00016	a1 04 00 00 00	 mov	 eax, DWORD PTR ?statistics_info@Internal@Core@Math@Palmtree@@3U__tag_PMC_STATISTICS_INFO@1234@A+4
  0001b	89 41 04	 mov	 DWORD PTR [ecx+4], eax

; 41   :         buffer->COUNT_MULTI64 = statistics_info.COUNT_MULTI64;

  0001e	a1 00 00 00 00	 mov	 eax, DWORD PTR ?statistics_info@Internal@Core@Math@Palmtree@@3U__tag_PMC_STATISTICS_INFO@1234@A
  00023	89 01		 mov	 DWORD PTR [ecx], eax

; 42   :     }

  00025	5d		 pop	 ebp
  00026	c2 04 00	 ret	 4
?PMC_GetStatisticsInfo@Internal@Core@Math@Palmtree@@YGXPAU__tag_PMC_STATISTICS_INFO@1234@@Z ENDP ; Palmtree::Math::Core::Internal::PMC_GetStatisticsInfo
_TEXT	ENDS
END
