Archive member included to satisfy reference by file (symbol)

C:/GNU/MINGW64/x86_64-8.1.0-win32-seh-rt_v6-rev0/mingw64/bin/../lib/gcc/x86_64-w64-mingw32/8.1.0/../../../../x86_64-w64-mingw32/lib/../lib\libkernel32.a(dqifs01555.o)
                              ../build/x64_Release/pmc_parse.o (__imp_lstrlenW)
C:/GNU/MINGW64/x86_64-8.1.0-win32-seh-rt_v6-rev0/mingw64/bin/../lib/gcc/x86_64-w64-mingw32/8.1.0/../../../../x86_64-w64-mingw32/lib/../lib\libkernel32.a(dqifs01549.o)
                              ../build/x64_Release/pmc_initialize.o (__imp_lstrcpyW)
C:/GNU/MINGW64/x86_64-8.1.0-win32-seh-rt_v6-rev0/mingw64/bin/../lib/gcc/x86_64-w64-mingw32/8.1.0/../../../../x86_64-w64-mingw32/lib/../lib\libkernel32.a(dqifs01543.o)
                              ../build/x64_Release/pmc_initialize.o (__imp_lstrcmpW)
C:/GNU/MINGW64/x86_64-8.1.0-win32-seh-rt_v6-rev0/mingw64/bin/../lib/gcc/x86_64-w64-mingw32/8.1.0/../../../../x86_64-w64-mingw32/lib/../lib\libkernel32.a(dqifs01360.o)
                              C:/GNU/MINGW64/x86_64-8.1.0-win32-seh-rt_v6-rev0/mingw64/bin/../lib/gcc/x86_64-w64-mingw32/8.1.0/../../../../x86_64-w64-mingw32/lib/../lib/dllcrt2.o (__imp_Sleep)
C:/GNU/MINGW64/x86_64-8.1.0-win32-seh-rt_v6-rev0/mingw64/bin/../lib/gcc/x86_64-w64-mingw32/8.1.0/../../../../x86_64-w64-mingw32/lib/../lib\libkernel32.a(dqifs00951.o)
                              ../build/x64_Release/pmc_memory.o (__imp_LeaveCriticalSection)
C:/GNU/MINGW64/x86_64-8.1.0-win32-seh-rt_v6-rev0/mingw64/bin/../lib/gcc/x86_64-w64-mingw32/8.1.0/../../../../x86_64-w64-mingw32/lib/../lib\libkernel32.a(dqifs00863.o)
                              ../build/x64_Release/pmc_memory.o (__imp_InitializeCriticalSection)
C:/GNU/MINGW64/x86_64-8.1.0-win32-seh-rt_v6-rev0/mingw64/bin/../lib/gcc/x86_64-w64-mingw32/8.1.0/../../../../x86_64-w64-mingw32/lib/../lib\libkernel32.a(dqifs00852.o)
                              ../build/x64_Release/pmc_memory.o (__imp_HeapWalk)
C:/GNU/MINGW64/x86_64-8.1.0-win32-seh-rt_v6-rev0/mingw64/bin/../lib/gcc/x86_64-w64-mingw32/8.1.0/../../../../x86_64-w64-mingw32/lib/../lib\libkernel32.a(dqifs00849.o)
                              ../build/x64_Release/pmc_memory.o (__imp_HeapUnlock)
C:/GNU/MINGW64/x86_64-8.1.0-win32-seh-rt_v6-rev0/mingw64/bin/../lib/gcc/x86_64-w64-mingw32/8.1.0/../../../../x86_64-w64-mingw32/lib/../lib\libkernel32.a(dqifs00842.o)
                              ../build/x64_Release/pmc_memory.o (__imp_HeapLock)
C:/GNU/MINGW64/x86_64-8.1.0-win32-seh-rt_v6-rev0/mingw64/bin/../lib/gcc/x86_64-w64-mingw32/8.1.0/../../../../x86_64-w64-mingw32/lib/../lib\libkernel32.a(dqifs00841.o)
                              ../build/x64_Release/pmc_memory.o (__imp_HeapFree)
C:/GNU/MINGW64/x86_64-8.1.0-win32-seh-rt_v6-rev0/mingw64/bin/../lib/gcc/x86_64-w64-mingw32/8.1.0/../../../../x86_64-w64-mingw32/lib/../lib\libkernel32.a(dqifs00839.o)
                              ../build/x64_Release/pmc_memory.o (__imp_HeapDestroy)
C:/GNU/MINGW64/x86_64-8.1.0-win32-seh-rt_v6-rev0/mingw64/bin/../lib/gcc/x86_64-w64-mingw32/8.1.0/../../../../x86_64-w64-mingw32/lib/../lib\libkernel32.a(dqifs00837.o)
                              ../build/x64_Release/pmc_memory.o (__imp_HeapCreate)
C:/GNU/MINGW64/x86_64-8.1.0-win32-seh-rt_v6-rev0/mingw64/bin/../lib/gcc/x86_64-w64-mingw32/8.1.0/../../../../x86_64-w64-mingw32/lib/../lib\libkernel32.a(dqifs00835.o)
                              ../build/x64_Release/pmc_memory.o (__imp_HeapAlloc)
C:/GNU/MINGW64/x86_64-8.1.0-win32-seh-rt_v6-rev0/mingw64/bin/../lib/gcc/x86_64-w64-mingw32/8.1.0/../../../../x86_64-w64-mingw32/lib/../lib\libkernel32.a(dqifs00609.o)
                              ../build/x64_Release/pmc_memory.o (__imp_GetLastError)
C:/GNU/MINGW64/x86_64-8.1.0-win32-seh-rt_v6-rev0/mingw64/bin/../lib/gcc/x86_64-w64-mingw32/8.1.0/../../../../x86_64-w64-mingw32/lib/../lib\libkernel32.a(dqifs00304.o)
                              ../build/x64_Release/pmc_memory.o (__imp_EnterCriticalSection)
C:/GNU/MINGW64/x86_64-8.1.0-win32-seh-rt_v6-rev0/mingw64/bin/../lib/gcc/x86_64-w64-mingw32/8.1.0/../../../../x86_64-w64-mingw32/lib/../lib\libkernel32.a(dqifh.o)
                              C:/GNU/MINGW64/x86_64-8.1.0-win32-seh-rt_v6-rev0/mingw64/bin/../lib/gcc/x86_64-w64-mingw32/8.1.0/../../../../x86_64-w64-mingw32/lib/../lib\libkernel32.a(dqifs01555.o) (_head_lib64_libkernel32_a)
C:/GNU/MINGW64/x86_64-8.1.0-win32-seh-rt_v6-rev0/mingw64/bin/../lib/gcc/x86_64-w64-mingw32/8.1.0/../../../../x86_64-w64-mingw32/lib/../lib\libkernel32.a(dqift.o)
                              C:/GNU/MINGW64/x86_64-8.1.0-win32-seh-rt_v6-rev0/mingw64/bin/../lib/gcc/x86_64-w64-mingw32/8.1.0/../../../../x86_64-w64-mingw32/lib/../lib\libkernel32.a(dqifh.o) (__lib64_libkernel32_a_iname)
C:/GNU/MINGW64/x86_64-8.1.0-win32-seh-rt_v6-rev0/mingw64/bin/../lib/gcc/x86_64-w64-mingw32/8.1.0/../../../../x86_64-w64-mingw32/lib/../lib\libuser32.a(dyqes00958.o)
                              ../build/x64_Release/pmc_tostring.o (__imp_wsprintfW)
C:/GNU/MINGW64/x86_64-8.1.0-win32-seh-rt_v6-rev0/mingw64/bin/../lib/gcc/x86_64-w64-mingw32/8.1.0/../../../../x86_64-w64-mingw32/lib/../lib\libuser32.a(dyqeh.o)
                              C:/GNU/MINGW64/x86_64-8.1.0-win32-seh-rt_v6-rev0/mingw64/bin/../lib/gcc/x86_64-w64-mingw32/8.1.0/../../../../x86_64-w64-mingw32/lib/../lib\libuser32.a(dyqes00958.o) (_head_lib64_libuser32_a)
C:/GNU/MINGW64/x86_64-8.1.0-win32-seh-rt_v6-rev0/mingw64/bin/../lib/gcc/x86_64-w64-mingw32/8.1.0/../../../../x86_64-w64-mingw32/lib/../lib\libuser32.a(dyqet.o)
                              C:/GNU/MINGW64/x86_64-8.1.0-win32-seh-rt_v6-rev0/mingw64/bin/../lib/gcc/x86_64-w64-mingw32/8.1.0/../../../../x86_64-w64-mingw32/lib/../lib\libuser32.a(dyqeh.o) (__lib64_libuser32_a_iname)
C:/GNU/MINGW64/x86_64-8.1.0-win32-seh-rt_v6-rev0/mingw64/bin/../lib/gcc/x86_64-w64-mingw32/8.1.0\libstdc++.a(class_type_info.o)
                              ../build/x64_Release/pmc_add.o (vtable for __cxxabiv1::__class_type_info)
C:/GNU/MINGW64/x86_64-8.1.0-win32-seh-rt_v6-rev0/mingw64/bin/../lib/gcc/x86_64-w64-mingw32/8.1.0\libstdc++.a(del_ops.o)
                              ../build/x64_Release/pmc_add.o (operator delete(void*, unsigned long long))
C:/GNU/MINGW64/x86_64-8.1.0-win32-seh-rt_v6-rev0/mingw64/bin/../lib/gcc/x86_64-w64-mingw32/8.1.0\libstdc++.a(eh_alloc.o)
                              ../build/x64_Release/pmc_add.o (__cxa_allocate_exception)
C:/GNU/MINGW64/x86_64-8.1.0-win32-seh-rt_v6-rev0/mingw64/bin/../lib/gcc/x86_64-w64-mingw32/8.1.0\libstdc++.a(eh_catch.o)
                              ../build/x64_Release/pmc_interface_csharp.o (__cxa_begin_catch)
C:/GNU/MINGW64/x86_64-8.1.0-win32-seh-rt_v6-rev0/mingw64/bin/../lib/gcc/x86_64-w64-mingw32/8.1.0\libstdc++.a(eh_exception.o)
                              ../build/x64_Release/pmc_add.o (std::exception::~exception())
C:/GNU/MINGW64/x86_64-8.1.0-win32-seh-rt_v6-rev0/mingw64/bin/../lib/gcc/x86_64-w64-mingw32/8.1.0\libstdc++.a(eh_globals.o)
                              C:/GNU/MINGW64/x86_64-8.1.0-win32-seh-rt_v6-rev0/mingw64/bin/../lib/gcc/x86_64-w64-mingw32/8.1.0\libstdc++.a(eh_catch.o) (__cxa_get_globals)
C:/GNU/MINGW64/x86_64-8.1.0-win32-seh-rt_v6-rev0/mingw64/bin/../lib/gcc/x86_64-w64-mingw32/8.1.0\libstdc++.a(eh_personality.o)
                              C:/GNU/MINGW64/x86_64-8.1.0-win32-seh-rt_v6-rev0/mingw64/bin/../lib/gcc/x86_64-w64-mingw32/8.1.0\libstdc++.a(eh_alloc.o) (__cxa_call_unexpected)
C:/GNU/MINGW64/x86_64-8.1.0-win32-seh-rt_v6-rev0/mingw64/bin/../lib/gcc/x86_64-w64-mingw32/8.1.0\libstdc++.a(eh_terminate.o)
                              C:/GNU/MINGW64/x86_64-8.1.0-win32-seh-rt_v6-rev0/mingw64/bin/../lib/gcc/x86_64-w64-mingw32/8.1.0\libstdc++.a(eh_personality.o) (__cxxabiv1::__terminate(void (*)()))
C:/GNU/MINGW64/x86_64-8.1.0-win32-seh-rt_v6-rev0/mingw64/bin/../lib/gcc/x86_64-w64-mingw32/8.1.0\libstdc++.a(eh_term_handler.o)
                              C:/GNU/MINGW64/x86_64-8.1.0-win32-seh-rt_v6-rev0/mingw64/bin/../lib/gcc/x86_64-w64-mingw32/8.1.0\libstdc++.a(eh_terminate.o) (__cxxabiv1::__terminate_handler)
C:/GNU/MINGW64/x86_64-8.1.0-win32-seh-rt_v6-rev0/mingw64/bin/../lib/gcc/x86_64-w64-mingw32/8.1.0\libstdc++.a(eh_throw.o)
                              ../build/x64_Release/pmc_add.o (__cxa_throw)
C:/GNU/MINGW64/x86_64-8.1.0-win32-seh-rt_v6-rev0/mingw64/bin/../lib/gcc/x86_64-w64-mingw32/8.1.0\libstdc++.a(eh_unex_handler.o)
                              C:/GNU/MINGW64/x86_64-8.1.0-win32-seh-rt_v6-rev0/mingw64/bin/../lib/gcc/x86_64-w64-mingw32/8.1.0\libstdc++.a(eh_terminate.o) (__cxxabiv1::__unexpected_handler)
C:/GNU/MINGW64/x86_64-8.1.0-win32-seh-rt_v6-rev0/mingw64/bin/../lib/gcc/x86_64-w64-mingw32/8.1.0\libstdc++.a(new_op.o)
                              ../build/x64_Release/pmc_memory.o (operator new(unsigned long long))
C:/GNU/MINGW64/x86_64-8.1.0-win32-seh-rt_v6-rev0/mingw64/bin/../lib/gcc/x86_64-w64-mingw32/8.1.0\libstdc++.a(pure.o)
                              ../build/x64_Release/pmc_memory.o (__cxa_pure_virtual)
C:/GNU/MINGW64/x86_64-8.1.0-win32-seh-rt_v6-rev0/mingw64/bin/../lib/gcc/x86_64-w64-mingw32/8.1.0\libstdc++.a(si_class_type_info.o)
                              ../build/x64_Release/pmc_add.o (vtable for __cxxabiv1::__si_class_type_info)
C:/GNU/MINGW64/x86_64-8.1.0-win32-seh-rt_v6-rev0/mingw64/bin/../lib/gcc/x86_64-w64-mingw32/8.1.0\libstdc++.a(tinfo.o)
                              C:/GNU/MINGW64/x86_64-8.1.0-win32-seh-rt_v6-rev0/mingw64/bin/../lib/gcc/x86_64-w64-mingw32/8.1.0\libstdc++.a(class_type_info.o) (std::type_info::~type_info())
C:/GNU/MINGW64/x86_64-8.1.0-win32-seh-rt_v6-rev0/mingw64/bin/../lib/gcc/x86_64-w64-mingw32/8.1.0\libstdc++.a(vmi_class_type_info.o)
                              ../build/x64_Release/pmc_add.o (vtable for __cxxabiv1::__vmi_class_type_info)
C:/GNU/MINGW64/x86_64-8.1.0-win32-seh-rt_v6-rev0/mingw64/bin/../lib/gcc/x86_64-w64-mingw32/8.1.0\libstdc++.a(vterminate.o)
                              C:/GNU/MINGW64/x86_64-8.1.0-win32-seh-rt_v6-rev0/mingw64/bin/../lib/gcc/x86_64-w64-mingw32/8.1.0\libstdc++.a(eh_term_handler.o) (__gnu_cxx::__verbose_terminate_handler())
C:/GNU/MINGW64/x86_64-8.1.0-win32-seh-rt_v6-rev0/mingw64/bin/../lib/gcc/x86_64-w64-mingw32/8.1.0\libstdc++.a(bad_alloc.o)
                              C:/GNU/MINGW64/x86_64-8.1.0-win32-seh-rt_v6-rev0/mingw64/bin/../lib/gcc/x86_64-w64-mingw32/8.1.0\libstdc++.a(new_op.o) (std::bad_alloc::~bad_alloc())
C:/GNU/MINGW64/x86_64-8.1.0-win32-seh-rt_v6-rev0/mingw64/bin/../lib/gcc/x86_64-w64-mingw32/8.1.0\libstdc++.a(cp-demangle.o)
                              C:/GNU/MINGW64/x86_64-8.1.0-win32-seh-rt_v6-rev0/mingw64/bin/../lib/gcc/x86_64-w64-mingw32/8.1.0\libstdc++.a(vterminate.o) (__cxa_demangle)
C:/GNU/MINGW64/x86_64-8.1.0-win32-seh-rt_v6-rev0/mingw64/bin/../lib/gcc/x86_64-w64-mingw32/8.1.0\libstdc++.a(del_op.o)
                              C:/GNU/MINGW64/x86_64-8.1.0-win32-seh-rt_v6-rev0/mingw64/bin/../lib/gcc/x86_64-w64-mingw32/8.1.0\libstdc++.a(del_ops.o) (operator delete(void*))
C:/GNU/MINGW64/x86_64-8.1.0-win32-seh-rt_v6-rev0/mingw64/bin/../lib/gcc/x86_64-w64-mingw32/8.1.0\libstdc++.a(eh_call.o)
                              C:/GNU/MINGW64/x86_64-8.1.0-win32-seh-rt_v6-rev0/mingw64/bin/../lib/gcc/x86_64-w64-mingw32/8.1.0\libstdc++.a(eh_personality.o) (__cxa_call_terminate)
C:/GNU/MINGW64/x86_64-8.1.0-win32-seh-rt_v6-rev0/mingw64/bin/../lib/gcc/x86_64-w64-mingw32/8.1.0\libstdc++.a(eh_type.o)
                              C:/GNU/MINGW64/x86_64-8.1.0-win32-seh-rt_v6-rev0/mingw64/bin/../lib/gcc/x86_64-w64-mingw32/8.1.0\libstdc++.a(vterminate.o) (__cxa_current_exception_type)
C:/GNU/MINGW64/x86_64-8.1.0-win32-seh-rt_v6-rev0/mingw64/bin/../lib/gcc/x86_64-w64-mingw32/8.1.0\libstdc++.a(new_handler.o)
                              C:/GNU/MINGW64/x86_64-8.1.0-win32-seh-rt_v6-rev0/mingw64/bin/../lib/gcc/x86_64-w64-mingw32/8.1.0\libstdc++.a(new_op.o) (std::get_new_handler())
C:/GNU/MINGW64/x86_64-8.1.0-win32-seh-rt_v6-rev0/mingw64/bin/../lib/gcc/x86_64-w64-mingw32/8.1.0/../../../../x86_64-w64-mingw32/lib/../lib\libmingw32.a(lib64_libmingw32_a-gccmain.o)
                              C:/GNU/MINGW64/x86_64-8.1.0-win32-seh-rt_v6-rev0/mingw64/bin/../lib/gcc/x86_64-w64-mingw32/8.1.0/../../../../x86_64-w64-mingw32/lib/../lib/dllcrt2.o (__main)
C:/GNU/MINGW64/x86_64-8.1.0-win32-seh-rt_v6-rev0/mingw64/bin/../lib/gcc/x86_64-w64-mingw32/8.1.0/../../../../x86_64-w64-mingw32/lib/../lib\libmingw32.a(lib64_libmingw32_a-natstart.o)
                              C:/GNU/MINGW64/x86_64-8.1.0-win32-seh-rt_v6-rev0/mingw64/bin/../lib/gcc/x86_64-w64-mingw32/8.1.0/../../../../x86_64-w64-mingw32/lib/../lib/dllcrt2.o (__native_startup_lock)
C:/GNU/MINGW64/x86_64-8.1.0-win32-seh-rt_v6-rev0/mingw64/bin/../lib/gcc/x86_64-w64-mingw32/8.1.0/../../../../x86_64-w64-mingw32/lib/../lib\libmingw32.a(lib64_libmingw32_a-gs_support.o)
                              C:/GNU/MINGW64/x86_64-8.1.0-win32-seh-rt_v6-rev0/mingw64/bin/../lib/gcc/x86_64-w64-mingw32/8.1.0/../../../../x86_64-w64-mingw32/lib/../lib/dllcrt2.o (__security_init_cookie)
C:/GNU/MINGW64/x86_64-8.1.0-win32-seh-rt_v6-rev0/mingw64/bin/../lib/gcc/x86_64-w64-mingw32/8.1.0/../../../../x86_64-w64-mingw32/lib/../lib\libmingw32.a(lib64_libmingw32_a-tlssup.o)
                              C:/GNU/MINGW64/x86_64-8.1.0-win32-seh-rt_v6-rev0/mingw64/bin/../lib/gcc/x86_64-w64-mingw32/8.1.0/../../../../x86_64-w64-mingw32/lib/../lib/dllcrt2.o (__dyn_tls_init_callback)
C:/GNU/MINGW64/x86_64-8.1.0-win32-seh-rt_v6-rev0/mingw64/bin/../lib/gcc/x86_64-w64-mingw32/8.1.0/../../../../x86_64-w64-mingw32/lib/../lib\libmingw32.a(lib64_libmingw32_a-cinitexe.o)
                              C:/GNU/MINGW64/x86_64-8.1.0-win32-seh-rt_v6-rev0/mingw64/bin/../lib/gcc/x86_64-w64-mingw32/8.1.0/../../../../x86_64-w64-mingw32/lib/../lib/dllcrt2.o (__xc_z)
C:/GNU/MINGW64/x86_64-8.1.0-win32-seh-rt_v6-rev0/mingw64/bin/../lib/gcc/x86_64-w64-mingw32/8.1.0/../../../../x86_64-w64-mingw32/lib/../lib\libmingw32.a(lib64_libmingw32_a-mingw_helpers.o)
                              C:/GNU/MINGW64/x86_64-8.1.0-win32-seh-rt_v6-rev0/mingw64/bin/../lib/gcc/x86_64-w64-mingw32/8.1.0/../../../../x86_64-w64-mingw32/lib/../lib/dllcrt2.o (mingw_app_type)
C:/GNU/MINGW64/x86_64-8.1.0-win32-seh-rt_v6-rev0/mingw64/bin/../lib/gcc/x86_64-w64-mingw32/8.1.0/../../../../x86_64-w64-mingw32/lib/../lib\libmingw32.a(lib64_libmingw32_a-pseudo-reloc.o)
                              C:/GNU/MINGW64/x86_64-8.1.0-win32-seh-rt_v6-rev0/mingw64/bin/../lib/gcc/x86_64-w64-mingw32/8.1.0/../../../../x86_64-w64-mingw32/lib/../lib/dllcrt2.o (_pei386_runtime_relocator)
C:/GNU/MINGW64/x86_64-8.1.0-win32-seh-rt_v6-rev0/mingw64/bin/../lib/gcc/x86_64-w64-mingw32/8.1.0/../../../../x86_64-w64-mingw32/lib/../lib\libmingw32.a(lib64_libmingw32_a-crt_handler.o)
                              C:/GNU/MINGW64/x86_64-8.1.0-win32-seh-rt_v6-rev0/mingw64/bin/../lib/gcc/x86_64-w64-mingw32/8.1.0/../../../../x86_64-w64-mingw32/lib/../lib/dllcrt2.o (__mingw_init_ehandler)
C:/GNU/MINGW64/x86_64-8.1.0-win32-seh-rt_v6-rev0/mingw64/bin/../lib/gcc/x86_64-w64-mingw32/8.1.0/../../../../x86_64-w64-mingw32/lib/../lib\libmingw32.a(lib64_libmingw32_a-tlsthrd.o)
                              C:/GNU/MINGW64/x86_64-8.1.0-win32-seh-rt_v6-rev0/mingw64/bin/../lib/gcc/x86_64-w64-mingw32/8.1.0/../../../../x86_64-w64-mingw32/lib/../lib\libmingw32.a(lib64_libmingw32_a-tlssup.o) (__mingw_TLScallback)
C:/GNU/MINGW64/x86_64-8.1.0-win32-seh-rt_v6-rev0/mingw64/bin/../lib/gcc/x86_64-w64-mingw32/8.1.0/../../../../x86_64-w64-mingw32/lib/../lib\libmingw32.a(lib64_libmingw32_a-tlsmcrt.o)
                              C:/GNU/MINGW64/x86_64-8.1.0-win32-seh-rt_v6-rev0/mingw64/bin/../lib/gcc/x86_64-w64-mingw32/8.1.0\libstdc++.a(eh_alloc.o) (_CRT_MT)
C:/GNU/MINGW64/x86_64-8.1.0-win32-seh-rt_v6-rev0/mingw64/bin/../lib/gcc/x86_64-w64-mingw32/8.1.0/../../../../x86_64-w64-mingw32/lib/../lib\libmingw32.a(lib64_libmingw32_a-pseudo-reloc-list.o)
                              C:/GNU/MINGW64/x86_64-8.1.0-win32-seh-rt_v6-rev0/mingw64/bin/../lib/gcc/x86_64-w64-mingw32/8.1.0/../../../../x86_64-w64-mingw32/lib/../lib\libmingw32.a(lib64_libmingw32_a-pseudo-reloc.o) (__RUNTIME_PSEUDO_RELOC_LIST__)
C:/GNU/MINGW64/x86_64-8.1.0-win32-seh-rt_v6-rev0/mingw64/bin/../lib/gcc/x86_64-w64-mingw32/8.1.0/../../../../x86_64-w64-mingw32/lib/../lib\libmingw32.a(lib64_libmingw32_a-pesect.o)
                              C:/GNU/MINGW64/x86_64-8.1.0-win32-seh-rt_v6-rev0/mingw64/bin/../lib/gcc/x86_64-w64-mingw32/8.1.0/../../../../x86_64-w64-mingw32/lib/../lib\libmingw32.a(lib64_libmingw32_a-crt_handler.o) (_FindPESectionByName)
C:/GNU/MINGW64/x86_64-8.1.0-win32-seh-rt_v6-rev0/mingw64/bin/../lib/gcc/x86_64-w64-mingw32/8.1.0/../../../../x86_64-w64-mingw32/lib/../lib\libmingw32.a(lib64_libmingw32_a-CRT_fp10.o)
                              C:/GNU/MINGW64/x86_64-8.1.0-win32-seh-rt_v6-rev0/mingw64/bin/../lib/gcc/x86_64-w64-mingw32/8.1.0/../../../../x86_64-w64-mingw32/lib/../lib\libmingw32.a(lib64_libmingw32_a-crt_handler.o) (_fpreset)
C:/GNU/MINGW64/x86_64-8.1.0-win32-seh-rt_v6-rev0/mingw64/bin/../lib/gcc/x86_64-w64-mingw32/8.1.0\libgcc.a(_chkstk_ms.o)
                              C:/GNU/MINGW64/x86_64-8.1.0-win32-seh-rt_v6-rev0/mingw64/bin/../lib/gcc/x86_64-w64-mingw32/8.1.0\libstdc++.a(cp-demangle.o) (___chkstk_ms)
C:/GNU/MINGW64/x86_64-8.1.0-win32-seh-rt_v6-rev0/mingw64/bin/../lib/gcc/x86_64-w64-mingw32/8.1.0\libgcc.a(_ctors.o)
                              C:/GNU/MINGW64/x86_64-8.1.0-win32-seh-rt_v6-rev0/mingw64/bin/../lib/gcc/x86_64-w64-mingw32/8.1.0/../../../../x86_64-w64-mingw32/lib/../lib\libmingw32.a(lib64_libmingw32_a-gccmain.o) (__DTOR_LIST__)
C:/GNU/MINGW64/x86_64-8.1.0-win32-seh-rt_v6-rev0/mingw64/bin/../lib/gcc/x86_64-w64-mingw32/8.1.0\libgcc.a(gthr-win32.o)
                              C:/GNU/MINGW64/x86_64-8.1.0-win32-seh-rt_v6-rev0/mingw64/bin/../lib/gcc/x86_64-w64-mingw32/8.1.0\libstdc++.a(eh_alloc.o) (__gthr_win32_mutex_init_function)
C:/GNU/MINGW64/x86_64-8.1.0-win32-seh-rt_v6-rev0/mingw64/bin/../lib/gcc/x86_64-w64-mingw32/8.1.0\libgcc_eh.a(unwind-seh.o)
                              C:/GNU/MINGW64/x86_64-8.1.0-win32-seh-rt_v6-rev0/mingw64/bin/../lib/gcc/x86_64-w64-mingw32/8.1.0\libstdc++.a(eh_personality.o) (_Unwind_SetGR)
C:/GNU/MINGW64/x86_64-8.1.0-win32-seh-rt_v6-rev0/mingw64/bin/../lib/gcc/x86_64-w64-mingw32/8.1.0\libgcc_eh.a(emutls.o)
                              C:/GNU/MINGW64/x86_64-8.1.0-win32-seh-rt_v6-rev0/mingw64/bin/../lib/gcc/x86_64-w64-mingw32/8.1.0\libstdc++.a(eh_globals.o) (__emutls_get_address)
C:/GNU/MINGW64/x86_64-8.1.0-win32-seh-rt_v6-rev0/mingw64/bin/../lib/gcc/x86_64-w64-mingw32/8.1.0/../../../../x86_64-w64-mingw32/lib/../lib\libmingwex.a(lib64_libmingwex_a-dllentry.o)
                              C:/GNU/MINGW64/x86_64-8.1.0-win32-seh-rt_v6-rev0/mingw64/bin/../lib/gcc/x86_64-w64-mingw32/8.1.0/../../../../x86_64-w64-mingw32/lib/../lib/dllcrt2.o (DllEntryPoint)
C:/GNU/MINGW64/x86_64-8.1.0-win32-seh-rt_v6-rev0/mingw64/bin/../lib/gcc/x86_64-w64-mingw32/8.1.0/../../../../x86_64-w64-mingw32/lib/../lib\libmsvcrt.a(duags01243.o)
                              C:/GNU/MINGW64/x86_64-8.1.0-win32-seh-rt_v6-rev0/mingw64/bin/../lib/gcc/x86_64-w64-mingw32/8.1.0/../../../../x86_64-w64-mingw32/lib/../lib\libmingw32.a(lib64_libmingw32_a-pseudo-reloc.o) (vfprintf)
C:/GNU/MINGW64/x86_64-8.1.0-win32-seh-rt_v6-rev0/mingw64/bin/../lib/gcc/x86_64-w64-mingw32/8.1.0/../../../../x86_64-w64-mingw32/lib/../lib\libmsvcrt.a(duags01211.o)
                              C:/GNU/MINGW64/x86_64-8.1.0-win32-seh-rt_v6-rev0/mingw64/bin/../lib/gcc/x86_64-w64-mingw32/8.1.0/../../../../x86_64-w64-mingw32/lib/../lib\libmingw32.a(lib64_libmingw32_a-pesect.o) (strncmp)
C:/GNU/MINGW64/x86_64-8.1.0-win32-seh-rt_v6-rev0/mingw64/bin/../lib/gcc/x86_64-w64-mingw32/8.1.0/../../../../x86_64-w64-mingw32/lib/../lib\libmsvcrt.a(duags01208.o)
                              C:/GNU/MINGW64/x86_64-8.1.0-win32-seh-rt_v6-rev0/mingw64/bin/../lib/gcc/x86_64-w64-mingw32/8.1.0\libstdc++.a(cp-demangle.o) (strlen)
C:/GNU/MINGW64/x86_64-8.1.0-win32-seh-rt_v6-rev0/mingw64/bin/../lib/gcc/x86_64-w64-mingw32/8.1.0/../../../../x86_64-w64-mingw32/lib/../lib\libmsvcrt.a(duags01201.o)
                              C:/GNU/MINGW64/x86_64-8.1.0-win32-seh-rt_v6-rev0/mingw64/bin/../lib/gcc/x86_64-w64-mingw32/8.1.0\libstdc++.a(tinfo.o) (strcmp)
C:/GNU/MINGW64/x86_64-8.1.0-win32-seh-rt_v6-rev0/mingw64/bin/../lib/gcc/x86_64-w64-mingw32/8.1.0/../../../../x86_64-w64-mingw32/lib/../lib\libmsvcrt.a(duags01192.o)
                              C:/GNU/MINGW64/x86_64-8.1.0-win32-seh-rt_v6-rev0/mingw64/bin/../lib/gcc/x86_64-w64-mingw32/8.1.0\libstdc++.a(cp-demangle.o) (sprintf)
C:/GNU/MINGW64/x86_64-8.1.0-win32-seh-rt_v6-rev0/mingw64/bin/../lib/gcc/x86_64-w64-mingw32/8.1.0/../../../../x86_64-w64-mingw32/lib/../lib\libmsvcrt.a(duags01187.o)
                              C:/GNU/MINGW64/x86_64-8.1.0-win32-seh-rt_v6-rev0/mingw64/bin/../lib/gcc/x86_64-w64-mingw32/8.1.0/../../../../x86_64-w64-mingw32/lib/../lib\libmingw32.a(lib64_libmingw32_a-crt_handler.o) (signal)
C:/GNU/MINGW64/x86_64-8.1.0-win32-seh-rt_v6-rev0/mingw64/bin/../lib/gcc/x86_64-w64-mingw32/8.1.0/../../../../x86_64-w64-mingw32/lib/../lib\libmsvcrt.a(duags01177.o)
                              C:/GNU/MINGW64/x86_64-8.1.0-win32-seh-rt_v6-rev0/mingw64/bin/../lib/gcc/x86_64-w64-mingw32/8.1.0\libstdc++.a(cp-demangle.o) (realloc)
C:/GNU/MINGW64/x86_64-8.1.0-win32-seh-rt_v6-rev0/mingw64/bin/../lib/gcc/x86_64-w64-mingw32/8.1.0/../../../../x86_64-w64-mingw32/lib/../lib\libmsvcrt.a(duags01159.o)
                              C:/GNU/MINGW64/x86_64-8.1.0-win32-seh-rt_v6-rev0/mingw64/bin/../lib/gcc/x86_64-w64-mingw32/8.1.0\libgcc_eh.a(emutls.o) (memset)
C:/GNU/MINGW64/x86_64-8.1.0-win32-seh-rt_v6-rev0/mingw64/bin/../lib/gcc/x86_64-w64-mingw32/8.1.0/../../../../x86_64-w64-mingw32/lib/../lib\libmsvcrt.a(duags01157.o)
                              C:/GNU/MINGW64/x86_64-8.1.0-win32-seh-rt_v6-rev0/mingw64/bin/../lib/gcc/x86_64-w64-mingw32/8.1.0\libstdc++.a(cp-demangle.o) (memcpy)
C:/GNU/MINGW64/x86_64-8.1.0-win32-seh-rt_v6-rev0/mingw64/bin/../lib/gcc/x86_64-w64-mingw32/8.1.0/../../../../x86_64-w64-mingw32/lib/../lib\libmsvcrt.a(duags01149.o)
                              C:/GNU/MINGW64/x86_64-8.1.0-win32-seh-rt_v6-rev0/mingw64/bin/../lib/gcc/x86_64-w64-mingw32/8.1.0\libstdc++.a(eh_alloc.o) (malloc)
C:/GNU/MINGW64/x86_64-8.1.0-win32-seh-rt_v6-rev0/mingw64/bin/../lib/gcc/x86_64-w64-mingw32/8.1.0/../../../../x86_64-w64-mingw32/lib/../lib\libmsvcrt.a(duags01101.o)
                              C:/GNU/MINGW64/x86_64-8.1.0-win32-seh-rt_v6-rev0/mingw64/bin/../lib/gcc/x86_64-w64-mingw32/8.1.0\libstdc++.a(vterminate.o) (fwrite)
C:/GNU/MINGW64/x86_64-8.1.0-win32-seh-rt_v6-rev0/mingw64/bin/../lib/gcc/x86_64-w64-mingw32/8.1.0/../../../../x86_64-w64-mingw32/lib/../lib\libmsvcrt.a(duags01089.o)
                              C:/GNU/MINGW64/x86_64-8.1.0-win32-seh-rt_v6-rev0/mingw64/bin/../lib/gcc/x86_64-w64-mingw32/8.1.0\libstdc++.a(eh_alloc.o) (free)
C:/GNU/MINGW64/x86_64-8.1.0-win32-seh-rt_v6-rev0/mingw64/bin/../lib/gcc/x86_64-w64-mingw32/8.1.0/../../../../x86_64-w64-mingw32/lib/../lib\libmsvcrt.a(duags01085.o)
                              C:/GNU/MINGW64/x86_64-8.1.0-win32-seh-rt_v6-rev0/mingw64/bin/../lib/gcc/x86_64-w64-mingw32/8.1.0\libstdc++.a(vterminate.o) (fputs)
C:/GNU/MINGW64/x86_64-8.1.0-win32-seh-rt_v6-rev0/mingw64/bin/../lib/gcc/x86_64-w64-mingw32/8.1.0/../../../../x86_64-w64-mingw32/lib/../lib\libmsvcrt.a(duags01084.o)
                              C:/GNU/MINGW64/x86_64-8.1.0-win32-seh-rt_v6-rev0/mingw64/bin/../lib/gcc/x86_64-w64-mingw32/8.1.0\libstdc++.a(vterminate.o) (fputc)
C:/GNU/MINGW64/x86_64-8.1.0-win32-seh-rt_v6-rev0/mingw64/bin/../lib/gcc/x86_64-w64-mingw32/8.1.0/../../../../x86_64-w64-mingw32/lib/../lib\libmsvcrt.a(duags01050.o)
                              C:/GNU/MINGW64/x86_64-8.1.0-win32-seh-rt_v6-rev0/mingw64/bin/../lib/gcc/x86_64-w64-mingw32/8.1.0/../../../../x86_64-w64-mingw32/lib/../lib\libmingw32.a(lib64_libmingw32_a-tlsthrd.o) (calloc)
C:/GNU/MINGW64/x86_64-8.1.0-win32-seh-rt_v6-rev0/mingw64/bin/../lib/gcc/x86_64-w64-mingw32/8.1.0/../../../../x86_64-w64-mingw32/lib/../lib\libmsvcrt.a(duags01032.o)
                              C:/GNU/MINGW64/x86_64-8.1.0-win32-seh-rt_v6-rev0/mingw64/bin/../lib/gcc/x86_64-w64-mingw32/8.1.0\libstdc++.a(eh_personality.o) (abort)
C:/GNU/MINGW64/x86_64-8.1.0-win32-seh-rt_v6-rev0/mingw64/bin/../lib/gcc/x86_64-w64-mingw32/8.1.0/../../../../x86_64-w64-mingw32/lib/../lib\libmsvcrt.a(duags00986.o)
                              C:/GNU/MINGW64/x86_64-8.1.0-win32-seh-rt_v6-rev0/mingw64/bin/../lib/gcc/x86_64-w64-mingw32/8.1.0\libstdc++.a(pure.o) (write)
C:/GNU/MINGW64/x86_64-8.1.0-win32-seh-rt_v6-rev0/mingw64/bin/../lib/gcc/x86_64-w64-mingw32/8.1.0/../../../../x86_64-w64-mingw32/lib/../lib\libmsvcrt.a(duags00332.o)
                              C:/GNU/MINGW64/x86_64-8.1.0-win32-seh-rt_v6-rev0/mingw64/bin/../lib/gcc/x86_64-w64-mingw32/8.1.0/../../../../x86_64-w64-mingw32/lib/../lib/dllcrt2.o (_initterm)
C:/GNU/MINGW64/x86_64-8.1.0-win32-seh-rt_v6-rev0/mingw64/bin/../lib/gcc/x86_64-w64-mingw32/8.1.0/../../../../x86_64-w64-mingw32/lib/../lib\libmsvcrt.a(duags00122.o)
                              C:/GNU/MINGW64/x86_64-8.1.0-win32-seh-rt_v6-rev0/mingw64/bin/../lib/gcc/x86_64-w64-mingw32/8.1.0/../../../../x86_64-w64-mingw32/lib/../lib/dllcrt2.o (_amsg_exit)
C:/GNU/MINGW64/x86_64-8.1.0-win32-seh-rt_v6-rev0/mingw64/bin/../lib/gcc/x86_64-w64-mingw32/8.1.0/../../../../x86_64-w64-mingw32/lib/../lib\libmsvcrt.a(lib64_libmsvcrt_os_a-onexit_table.o)
                              C:/GNU/MINGW64/x86_64-8.1.0-win32-seh-rt_v6-rev0/mingw64/bin/../lib/gcc/x86_64-w64-mingw32/8.1.0/../../../../x86_64-w64-mingw32/lib/../lib/dllcrt2.o (_initialize_onexit_table)
C:/GNU/MINGW64/x86_64-8.1.0-win32-seh-rt_v6-rev0/mingw64/bin/../lib/gcc/x86_64-w64-mingw32/8.1.0/../../../../x86_64-w64-mingw32/lib/../lib\libmsvcrt.a(lib64_libmsvcrt_os_a-acrt_iob_func.o)
                              C:/GNU/MINGW64/x86_64-8.1.0-win32-seh-rt_v6-rev0/mingw64/bin/../lib/gcc/x86_64-w64-mingw32/8.1.0/../../../../x86_64-w64-mingw32/lib/../lib\libmingw32.a(lib64_libmingw32_a-pseudo-reloc.o) (__acrt_iob_func)
C:/GNU/MINGW64/x86_64-8.1.0-win32-seh-rt_v6-rev0/mingw64/bin/../lib/gcc/x86_64-w64-mingw32/8.1.0/../../../../x86_64-w64-mingw32/lib/../lib\libmsvcrt.a(duagh.o)
                              C:/GNU/MINGW64/x86_64-8.1.0-win32-seh-rt_v6-rev0/mingw64/bin/../lib/gcc/x86_64-w64-mingw32/8.1.0/../../../../x86_64-w64-mingw32/lib/../lib\libmsvcrt.a(duags01243.o) (_head_lib64_libmsvcrt_os_a)
C:/GNU/MINGW64/x86_64-8.1.0-win32-seh-rt_v6-rev0/mingw64/bin/../lib/gcc/x86_64-w64-mingw32/8.1.0/../../../../x86_64-w64-mingw32/lib/../lib\libmsvcrt.a(duags00821.o)
                              C:/GNU/MINGW64/x86_64-8.1.0-win32-seh-rt_v6-rev0/mingw64/bin/../lib/gcc/x86_64-w64-mingw32/8.1.0/../../../../x86_64-w64-mingw32/lib/../lib\libmsvcrt.a(lib64_libmsvcrt_os_a-onexit_table.o) (_unlock)
C:/GNU/MINGW64/x86_64-8.1.0-win32-seh-rt_v6-rev0/mingw64/bin/../lib/gcc/x86_64-w64-mingw32/8.1.0/../../../../x86_64-w64-mingw32/lib/../lib\libmsvcrt.a(duags00441.o)
                              C:/GNU/MINGW64/x86_64-8.1.0-win32-seh-rt_v6-rev0/mingw64/bin/../lib/gcc/x86_64-w64-mingw32/8.1.0/../../../../x86_64-w64-mingw32/lib/../lib\libmsvcrt.a(lib64_libmsvcrt_os_a-onexit_table.o) (_lock)
C:/GNU/MINGW64/x86_64-8.1.0-win32-seh-rt_v6-rev0/mingw64/bin/../lib/gcc/x86_64-w64-mingw32/8.1.0/../../../../x86_64-w64-mingw32/lib/../lib\libmsvcrt.a(duags00083.o)
                              C:/GNU/MINGW64/x86_64-8.1.0-win32-seh-rt_v6-rev0/mingw64/bin/../lib/gcc/x86_64-w64-mingw32/8.1.0/../../../../x86_64-w64-mingw32/lib/../lib\libmsvcrt.a(lib64_libmsvcrt_os_a-acrt_iob_func.o) (__iob_func)
C:/GNU/MINGW64/x86_64-8.1.0-win32-seh-rt_v6-rev0/mingw64/bin/../lib/gcc/x86_64-w64-mingw32/8.1.0/../../../../x86_64-w64-mingw32/lib/../lib\libmsvcrt.a(duagt.o)
                              C:/GNU/MINGW64/x86_64-8.1.0-win32-seh-rt_v6-rev0/mingw64/bin/../lib/gcc/x86_64-w64-mingw32/8.1.0/../../../../x86_64-w64-mingw32/lib/../lib\libmsvcrt.a(duagh.o) (__lib64_libmsvcrt_os_a_iname)
C:/GNU/MINGW64/x86_64-8.1.0-win32-seh-rt_v6-rev0/mingw64/bin/../lib/gcc/x86_64-w64-mingw32/8.1.0/../../../../x86_64-w64-mingw32/lib/../lib\libkernel32.a(dqifs01453.o)
                              C:/GNU/MINGW64/x86_64-8.1.0-win32-seh-rt_v6-rev0/mingw64/bin/../lib/gcc/x86_64-w64-mingw32/8.1.0\libgcc.a(gthr-win32.o) (__imp_WaitForSingleObject)
C:/GNU/MINGW64/x86_64-8.1.0-win32-seh-rt_v6-rev0/mingw64/bin/../lib/gcc/x86_64-w64-mingw32/8.1.0/../../../../x86_64-w64-mingw32/lib/../lib\libkernel32.a(dqifs01445.o)
                              C:/GNU/MINGW64/x86_64-8.1.0-win32-seh-rt_v6-rev0/mingw64/bin/../lib/gcc/x86_64-w64-mingw32/8.1.0/../../../../x86_64-w64-mingw32/lib/../lib\libmingw32.a(lib64_libmingw32_a-pseudo-reloc.o) (__imp_VirtualQuery)
C:/GNU/MINGW64/x86_64-8.1.0-win32-seh-rt_v6-rev0/mingw64/bin/../lib/gcc/x86_64-w64-mingw32/8.1.0/../../../../x86_64-w64-mingw32/lib/../lib\libkernel32.a(dqifs01443.o)
                              C:/GNU/MINGW64/x86_64-8.1.0-win32-seh-rt_v6-rev0/mingw64/bin/../lib/gcc/x86_64-w64-mingw32/8.1.0/../../../../x86_64-w64-mingw32/lib/../lib\libmingw32.a(lib64_libmingw32_a-pseudo-reloc.o) (__imp_VirtualProtect)
C:/GNU/MINGW64/x86_64-8.1.0-win32-seh-rt_v6-rev0/mingw64/bin/../lib/gcc/x86_64-w64-mingw32/8.1.0/../../../../x86_64-w64-mingw32/lib/../lib\libkernel32.a(dqifs01409.o)
                              C:/GNU/MINGW64/x86_64-8.1.0-win32-seh-rt_v6-rev0/mingw64/bin/../lib/gcc/x86_64-w64-mingw32/8.1.0/../../../../x86_64-w64-mingw32/lib/../lib\libmingw32.a(lib64_libmingw32_a-gs_support.o) (__imp_UnhandledExceptionFilter)
C:/GNU/MINGW64/x86_64-8.1.0-win32-seh-rt_v6-rev0/mingw64/bin/../lib/gcc/x86_64-w64-mingw32/8.1.0/../../../../x86_64-w64-mingw32/lib/../lib\libkernel32.a(dqifs01396.o)
                              C:/GNU/MINGW64/x86_64-8.1.0-win32-seh-rt_v6-rev0/mingw64/bin/../lib/gcc/x86_64-w64-mingw32/8.1.0\libgcc.a(gthr-win32.o) (__imp_TlsSetValue)
C:/GNU/MINGW64/x86_64-8.1.0-win32-seh-rt_v6-rev0/mingw64/bin/../lib/gcc/x86_64-w64-mingw32/8.1.0/../../../../x86_64-w64-mingw32/lib/../lib\libkernel32.a(dqifs01395.o)
                              C:/GNU/MINGW64/x86_64-8.1.0-win32-seh-rt_v6-rev0/mingw64/bin/../lib/gcc/x86_64-w64-mingw32/8.1.0/../../../../x86_64-w64-mingw32/lib/../lib\libmingw32.a(lib64_libmingw32_a-tlsthrd.o) (__imp_TlsGetValue)
C:/GNU/MINGW64/x86_64-8.1.0-win32-seh-rt_v6-rev0/mingw64/bin/../lib/gcc/x86_64-w64-mingw32/8.1.0/../../../../x86_64-w64-mingw32/lib/../lib\libkernel32.a(dqifs01394.o)
                              C:/GNU/MINGW64/x86_64-8.1.0-win32-seh-rt_v6-rev0/mingw64/bin/../lib/gcc/x86_64-w64-mingw32/8.1.0\libgcc.a(gthr-win32.o) (__imp_TlsFree)
C:/GNU/MINGW64/x86_64-8.1.0-win32-seh-rt_v6-rev0/mingw64/bin/../lib/gcc/x86_64-w64-mingw32/8.1.0/../../../../x86_64-w64-mingw32/lib/../lib\libkernel32.a(dqifs01393.o)
                              C:/GNU/MINGW64/x86_64-8.1.0-win32-seh-rt_v6-rev0/mingw64/bin/../lib/gcc/x86_64-w64-mingw32/8.1.0\libgcc.a(gthr-win32.o) (__imp_TlsAlloc)
C:/GNU/MINGW64/x86_64-8.1.0-win32-seh-rt_v6-rev0/mingw64/bin/../lib/gcc/x86_64-w64-mingw32/8.1.0/../../../../x86_64-w64-mingw32/lib/../lib\libkernel32.a(dqifs01375.o)
                              C:/GNU/MINGW64/x86_64-8.1.0-win32-seh-rt_v6-rev0/mingw64/bin/../lib/gcc/x86_64-w64-mingw32/8.1.0/../../../../x86_64-w64-mingw32/lib/../lib\libmingw32.a(lib64_libmingw32_a-gs_support.o) (__imp_TerminateProcess)
C:/GNU/MINGW64/x86_64-8.1.0-win32-seh-rt_v6-rev0/mingw64/bin/../lib/gcc/x86_64-w64-mingw32/8.1.0/../../../../x86_64-w64-mingw32/lib/../lib\libkernel32.a(dqifs01346.o)
                              C:/GNU/MINGW64/x86_64-8.1.0-win32-seh-rt_v6-rev0/mingw64/bin/../lib/gcc/x86_64-w64-mingw32/8.1.0/../../../../x86_64-w64-mingw32/lib/../lib\libmingw32.a(lib64_libmingw32_a-gs_support.o) (__imp_SetUnhandledExceptionFilter)
C:/GNU/MINGW64/x86_64-8.1.0-win32-seh-rt_v6-rev0/mingw64/bin/../lib/gcc/x86_64-w64-mingw32/8.1.0/../../../../x86_64-w64-mingw32/lib/../lib\libkernel32.a(dqifs01290.o)
                              C:/GNU/MINGW64/x86_64-8.1.0-win32-seh-rt_v6-rev0/mingw64/bin/../lib/gcc/x86_64-w64-mingw32/8.1.0\libgcc.a(gthr-win32.o) (__imp_SetLastError)
C:/GNU/MINGW64/x86_64-8.1.0-win32-seh-rt_v6-rev0/mingw64/bin/../lib/gcc/x86_64-w64-mingw32/8.1.0/../../../../x86_64-w64-mingw32/lib/../lib\libkernel32.a(dqifs01194.o)
                              C:/GNU/MINGW64/x86_64-8.1.0-win32-seh-rt_v6-rev0/mingw64/bin/../lib/gcc/x86_64-w64-mingw32/8.1.0/../../../../x86_64-w64-mingw32/lib/../lib\libmingw32.a(lib64_libmingw32_a-gs_support.o) (__imp_RtlVirtualUnwind)
C:/GNU/MINGW64/x86_64-8.1.0-win32-seh-rt_v6-rev0/mingw64/bin/../lib/gcc/x86_64-w64-mingw32/8.1.0/../../../../x86_64-w64-mingw32/lib/../lib\libkernel32.a(dqifs01193.o)
                              C:/GNU/MINGW64/x86_64-8.1.0-win32-seh-rt_v6-rev0/mingw64/bin/../lib/gcc/x86_64-w64-mingw32/8.1.0\libgcc_eh.a(unwind-seh.o) (__imp_RtlUnwindEx)
C:/GNU/MINGW64/x86_64-8.1.0-win32-seh-rt_v6-rev0/mingw64/bin/../lib/gcc/x86_64-w64-mingw32/8.1.0/../../../../x86_64-w64-mingw32/lib/../lib\libkernel32.a(dqifs01187.o)
                              C:/GNU/MINGW64/x86_64-8.1.0-win32-seh-rt_v6-rev0/mingw64/bin/../lib/gcc/x86_64-w64-mingw32/8.1.0/../../../../x86_64-w64-mingw32/lib/../lib\libmingw32.a(lib64_libmingw32_a-gs_support.o) (__imp_RtlLookupFunctionEntry)
C:/GNU/MINGW64/x86_64-8.1.0-win32-seh-rt_v6-rev0/mingw64/bin/../lib/gcc/x86_64-w64-mingw32/8.1.0/../../../../x86_64-w64-mingw32/lib/../lib\libkernel32.a(dqifs01180.o)
                              C:/GNU/MINGW64/x86_64-8.1.0-win32-seh-rt_v6-rev0/mingw64/bin/../lib/gcc/x86_64-w64-mingw32/8.1.0/../../../../x86_64-w64-mingw32/lib/../lib\libmingw32.a(lib64_libmingw32_a-gs_support.o) (__imp_RtlCaptureContext)
C:/GNU/MINGW64/x86_64-8.1.0-win32-seh-rt_v6-rev0/mingw64/bin/../lib/gcc/x86_64-w64-mingw32/8.1.0/../../../../x86_64-w64-mingw32/lib/../lib\libkernel32.a(dqifs01179.o)
                              C:/GNU/MINGW64/x86_64-8.1.0-win32-seh-rt_v6-rev0/mingw64/bin/../lib/gcc/x86_64-w64-mingw32/8.1.0/../../../../x86_64-w64-mingw32/lib/../lib\libmingw32.a(lib64_libmingw32_a-crt_handler.o) (__imp_RtlAddFunctionTable)
C:/GNU/MINGW64/x86_64-8.1.0-win32-seh-rt_v6-rev0/mingw64/bin/../lib/gcc/x86_64-w64-mingw32/8.1.0/../../../../x86_64-w64-mingw32/lib/../lib\libkernel32.a(dqifs01154.o)
                              C:/GNU/MINGW64/x86_64-8.1.0-win32-seh-rt_v6-rev0/mingw64/bin/../lib/gcc/x86_64-w64-mingw32/8.1.0\libgcc.a(gthr-win32.o) (__imp_ReleaseSemaphore)
C:/GNU/MINGW64/x86_64-8.1.0-win32-seh-rt_v6-rev0/mingw64/bin/../lib/gcc/x86_64-w64-mingw32/8.1.0/../../../../x86_64-w64-mingw32/lib/../lib\libkernel32.a(dqifs01112.o)
                              C:/GNU/MINGW64/x86_64-8.1.0-win32-seh-rt_v6-rev0/mingw64/bin/../lib/gcc/x86_64-w64-mingw32/8.1.0\libgcc_eh.a(unwind-seh.o) (__imp_RaiseException)
C:/GNU/MINGW64/x86_64-8.1.0-win32-seh-rt_v6-rev0/mingw64/bin/../lib/gcc/x86_64-w64-mingw32/8.1.0/../../../../x86_64-w64-mingw32/lib/../lib\libkernel32.a(dqifs01093.o)
                              C:/GNU/MINGW64/x86_64-8.1.0-win32-seh-rt_v6-rev0/mingw64/bin/../lib/gcc/x86_64-w64-mingw32/8.1.0/../../../../x86_64-w64-mingw32/lib/../lib\libmingw32.a(lib64_libmingw32_a-gs_support.o) (__imp_QueryPerformanceCounter)
C:/GNU/MINGW64/x86_64-8.1.0-win32-seh-rt_v6-rev0/mingw64/bin/../lib/gcc/x86_64-w64-mingw32/8.1.0/../../../../x86_64-w64-mingw32/lib/../lib\libkernel32.a(dqifs00774.o)
                              C:/GNU/MINGW64/x86_64-8.1.0-win32-seh-rt_v6-rev0/mingw64/bin/../lib/gcc/x86_64-w64-mingw32/8.1.0/../../../../x86_64-w64-mingw32/lib/../lib\libmingw32.a(lib64_libmingw32_a-gs_support.o) (__imp_GetTickCount)
C:/GNU/MINGW64/x86_64-8.1.0-win32-seh-rt_v6-rev0/mingw64/bin/../lib/gcc/x86_64-w64-mingw32/8.1.0/../../../../x86_64-w64-mingw32/lib/../lib\libkernel32.a(dqifs00746.o)
                              C:/GNU/MINGW64/x86_64-8.1.0-win32-seh-rt_v6-rev0/mingw64/bin/../lib/gcc/x86_64-w64-mingw32/8.1.0/../../../../x86_64-w64-mingw32/lib/../lib\libmingw32.a(lib64_libmingw32_a-gs_support.o) (__imp_GetSystemTimeAsFileTime)
C:/GNU/MINGW64/x86_64-8.1.0-win32-seh-rt_v6-rev0/mingw64/bin/../lib/gcc/x86_64-w64-mingw32/8.1.0/../../../../x86_64-w64-mingw32/lib/../lib\libkernel32.a(dqifs00540.o)
                              C:/GNU/MINGW64/x86_64-8.1.0-win32-seh-rt_v6-rev0/mingw64/bin/../lib/gcc/x86_64-w64-mingw32/8.1.0/../../../../x86_64-w64-mingw32/lib/../lib\libmingw32.a(lib64_libmingw32_a-gs_support.o) (__imp_GetCurrentThreadId)
C:/GNU/MINGW64/x86_64-8.1.0-win32-seh-rt_v6-rev0/mingw64/bin/../lib/gcc/x86_64-w64-mingw32/8.1.0/../../../../x86_64-w64-mingw32/lib/../lib\libkernel32.a(dqifs00536.o)
                              C:/GNU/MINGW64/x86_64-8.1.0-win32-seh-rt_v6-rev0/mingw64/bin/../lib/gcc/x86_64-w64-mingw32/8.1.0/../../../../x86_64-w64-mingw32/lib/../lib\libmingw32.a(lib64_libmingw32_a-gs_support.o) (__imp_GetCurrentProcessId)
C:/GNU/MINGW64/x86_64-8.1.0-win32-seh-rt_v6-rev0/mingw64/bin/../lib/gcc/x86_64-w64-mingw32/8.1.0/../../../../x86_64-w64-mingw32/lib/../lib\libkernel32.a(dqifs00535.o)
                              C:/GNU/MINGW64/x86_64-8.1.0-win32-seh-rt_v6-rev0/mingw64/bin/../lib/gcc/x86_64-w64-mingw32/8.1.0/../../../../x86_64-w64-mingw32/lib/../lib\libmingw32.a(lib64_libmingw32_a-gs_support.o) (__imp_GetCurrentProcess)
C:/GNU/MINGW64/x86_64-8.1.0-win32-seh-rt_v6-rev0/mingw64/bin/../lib/gcc/x86_64-w64-mingw32/8.1.0/../../../../x86_64-w64-mingw32/lib/../lib\libkernel32.a(dqifs00268.o)
                              C:/GNU/MINGW64/x86_64-8.1.0-win32-seh-rt_v6-rev0/mingw64/bin/../lib/gcc/x86_64-w64-mingw32/8.1.0/../../../../x86_64-w64-mingw32/lib/../lib\libmingw32.a(lib64_libmingw32_a-tlsthrd.o) (__imp_DeleteCriticalSection)
C:/GNU/MINGW64/x86_64-8.1.0-win32-seh-rt_v6-rev0/mingw64/bin/../lib/gcc/x86_64-w64-mingw32/8.1.0/../../../../x86_64-w64-mingw32/lib/../lib\libkernel32.a(dqifs00231.o)
                              C:/GNU/MINGW64/x86_64-8.1.0-win32-seh-rt_v6-rev0/mingw64/bin/../lib/gcc/x86_64-w64-mingw32/8.1.0\libgcc.a(gthr-win32.o) (__imp_CreateSemaphoreW)
C:/GNU/MINGW64/x86_64-8.1.0-win32-seh-rt_v6-rev0/mingw64/bin/../lib/gcc/x86_64-w64-mingw32/8.1.0/../../../../x86_64-w64-mingw32/lib/../lib\libkernel32.a(dqifs00130.o)
                              C:/GNU/MINGW64/x86_64-8.1.0-win32-seh-rt_v6-rev0/mingw64/bin/../lib/gcc/x86_64-w64-mingw32/8.1.0\libgcc.a(gthr-win32.o) (__imp_CloseHandle)
C:/GNU/MINGW64/x86_64-8.1.0-win32-seh-rt_v6-rev0/mingw64/bin/../lib/gcc/x86_64-w64-mingw32/8.1.0/../../../../x86_64-w64-mingw32/lib/../lib\libmingw32.a(lib64_libmingw32_a-tlsmthread.o)
                              C:/GNU/MINGW64/x86_64-8.1.0-win32-seh-rt_v6-rev0/mingw64/bin/../lib/gcc/x86_64-w64-mingw32/8.1.0\libgcc.a(gthr-win32.o) (__mingwthr_key_dtor)

Allocating common symbols
Common symbol       size              file

__native_startup_state
                    0x4               C:/GNU/MINGW64/x86_64-8.1.0-win32-seh-rt_v6-rev0/mingw64/bin/../lib/gcc/x86_64-w64-mingw32/8.1.0/../../../../x86_64-w64-mingw32/lib/../lib\libmingw32.a(lib64_libmingw32_a-natstart.o)
__native_startup_lock
                    0x8               C:/GNU/MINGW64/x86_64-8.1.0-win32-seh-rt_v6-rev0/mingw64/bin/../lib/gcc/x86_64-w64-mingw32/8.1.0/../../../../x86_64-w64-mingw32/lib/../lib\libmingw32.a(lib64_libmingw32_a-natstart.o)

Discarded input sections

 .text$_ZN8Palmtree4Math4Core8Internal9ExceptionD1Ev
                0x0000000000000000       0x10 ../build/x64_Release/pmc_bitwiseand.o
 .text$_ZN8Palmtree4Math4Core8Internal9ExceptionD0Ev
                0x0000000000000000       0x30 ../build/x64_Release/pmc_bitwiseand.o
 .text$_ZN8Palmtree4Math4Core8Internal21ArgumentNullExceptionD1Ev
                0x0000000000000000       0x10 ../build/x64_Release/pmc_bitwiseand.o
 .text$_ZN8Palmtree4Math4Core8Internal21ArgumentNullExceptionD0Ev
                0x0000000000000000       0x30 ../build/x64_Release/pmc_bitwiseand.o
 .rdata$_ZTSSt9exception
                0x0000000000000000       0x10 ../build/x64_Release/pmc_bitwiseand.o
 .rdata$_ZTISt9exception
                0x0000000000000000       0x10 ../build/x64_Release/pmc_bitwiseand.o
 .rdata$_ZTSN8Palmtree4Math4Core8Internal9ExceptionE
                0x0000000000000000       0x40 ../build/x64_Release/pmc_bitwiseand.o
 .rdata$_ZTIN8Palmtree4Math4Core8Internal9ExceptionE
                0x0000000000000000       0x30 ../build/x64_Release/pmc_bitwiseand.o
 .rdata$_ZTSN8Palmtree4Math4Core8Internal21ArgumentNullExceptionE
                0x0000000000000000       0x40 ../build/x64_Release/pmc_bitwiseand.o
 .rdata$_ZTIN8Palmtree4Math4Core8Internal21ArgumentNullExceptionE
                0x0000000000000000       0x20 ../build/x64_Release/pmc_bitwiseand.o
 .rdata$_ZTVN8Palmtree4Math4Core8Internal9ExceptionE
                0x0000000000000000       0x30 ../build/x64_Release/pmc_bitwiseand.o
 .rdata$_ZTVN8Palmtree4Math4Core8Internal21ArgumentNullExceptionE
                0x0000000000000000       0x30 ../build/x64_Release/pmc_bitwiseand.o
 .rdata$.refptr._ZN8Palmtree4Math4Core8Internal11number_zeroE
                0x0000000000000000       0x10 ../build/x64_Release/pmc_bitwiseand.o
 .text$_ZN8Palmtree4Math4Core8Internal9ExceptionD1Ev
                0x0000000000000000       0x10 ../build/x64_Release/pmc_bitwiseor.o
 .text$_ZN8Palmtree4Math4Core8Internal9ExceptionD0Ev
                0x0000000000000000       0x30 ../build/x64_Release/pmc_bitwiseor.o
 .text$_ZN8Palmtree4Math4Core8Internal21ArgumentNullExceptionD1Ev
                0x0000000000000000       0x10 ../build/x64_Release/pmc_bitwiseor.o
 .text$_ZN8Palmtree4Math4Core8Internal21ArgumentNullExceptionD0Ev
                0x0000000000000000       0x30 ../build/x64_Release/pmc_bitwiseor.o
 .rdata$_ZTSSt9exception
                0x0000000000000000       0x10 ../build/x64_Release/pmc_bitwiseor.o
 .rdata$_ZTISt9exception
                0x0000000000000000       0x10 ../build/x64_Release/pmc_bitwiseor.o
 .rdata$_ZTSN8Palmtree4Math4Core8Internal9ExceptionE
                0x0000000000000000       0x40 ../build/x64_Release/pmc_bitwiseor.o
 .rdata$_ZTIN8Palmtree4Math4Core8Internal9ExceptionE
                0x0000000000000000       0x30 ../build/x64_Release/pmc_bitwiseor.o
 .rdata$_ZTSN8Palmtree4Math4Core8Internal21ArgumentNullExceptionE
                0x0000000000000000       0x40 ../build/x64_Release/pmc_bitwiseor.o
 .rdata$_ZTIN8Palmtree4Math4Core8Internal21ArgumentNullExceptionE
                0x0000000000000000       0x20 ../build/x64_Release/pmc_bitwiseor.o
 .rdata$_ZTVN8Palmtree4Math4Core8Internal9ExceptionE
                0x0000000000000000       0x30 ../build/x64_Release/pmc_bitwiseor.o
 .rdata$_ZTVN8Palmtree4Math4Core8Internal21ArgumentNullExceptionE
                0x0000000000000000       0x30 ../build/x64_Release/pmc_bitwiseor.o
 .rdata$.refptr._ZN8Palmtree4Math4Core8Internal11number_zeroE
                0x0000000000000000       0x10 ../build/x64_Release/pmc_bitwiseor.o
 .text$_ZN8Palmtree4Math4Core8Internal9ExceptionD1Ev
                0x0000000000000000       0x10 ../build/x64_Release/pmc_bytes.o
 .text$_ZN8Palmtree4Math4Core8Internal9ExceptionD0Ev
                0x0000000000000000       0x30 ../build/x64_Release/pmc_bytes.o
 .text$_ZN8Palmtree4Math4Core8Internal21ArgumentNullExceptionD1Ev
                0x0000000000000000       0x10 ../build/x64_Release/pmc_bytes.o
 .text$_ZN8Palmtree4Math4Core8Internal21ArgumentNullExceptionD0Ev
                0x0000000000000000       0x30 ../build/x64_Release/pmc_bytes.o
 .text$_ZN8Palmtree4Math4Core8Internal22InternalErrorExceptionD1Ev
                0x0000000000000000       0x10 ../build/x64_Release/pmc_bytes.o
 .text$_ZN8Palmtree4Math4Core8Internal22InternalErrorExceptionD0Ev
                0x0000000000000000       0x30 ../build/x64_Release/pmc_bytes.o
 .rdata$_ZTSSt9exception
                0x0000000000000000       0x10 ../build/x64_Release/pmc_bytes.o
 .rdata$_ZTISt9exception
                0x0000000000000000       0x10 ../build/x64_Release/pmc_bytes.o
 .rdata$_ZTSN8Palmtree4Math4Core8Internal9ExceptionE
                0x0000000000000000       0x40 ../build/x64_Release/pmc_bytes.o
 .rdata$_ZTIN8Palmtree4Math4Core8Internal9ExceptionE
                0x0000000000000000       0x30 ../build/x64_Release/pmc_bytes.o
 .rdata$_ZTSN8Palmtree4Math4Core8Internal21ArgumentNullExceptionE
                0x0000000000000000       0x40 ../build/x64_Release/pmc_bytes.o
 .rdata$_ZTIN8Palmtree4Math4Core8Internal21ArgumentNullExceptionE
                0x0000000000000000       0x20 ../build/x64_Release/pmc_bytes.o
 .rdata$_ZTSN8Palmtree4Math4Core8Internal22InternalErrorExceptionE
                0x0000000000000000       0x40 ../build/x64_Release/pmc_bytes.o
 .rdata$_ZTIN8Palmtree4Math4Core8Internal22InternalErrorExceptionE
                0x0000000000000000       0x20 ../build/x64_Release/pmc_bytes.o
 .rdata$_ZTVN8Palmtree4Math4Core8Internal9ExceptionE
                0x0000000000000000       0x30 ../build/x64_Release/pmc_bytes.o
 .rdata$_ZTVN8Palmtree4Math4Core8Internal21ArgumentNullExceptionE
                0x0000000000000000       0x30 ../build/x64_Release/pmc_bytes.o
 .rdata$_ZTVN8Palmtree4Math4Core8Internal22InternalErrorExceptionE
                0x0000000000000000       0x30 ../build/x64_Release/pmc_bytes.o
 .rdata$.refptr._ZN8Palmtree4Math4Core8Internal11number_zeroE
                0x0000000000000000       0x10 ../build/x64_Release/pmc_bytes.o
 .text$_ZN8Palmtree4Math4Core8Internal9ExceptionD1Ev
                0x0000000000000000       0x10 ../build/x64_Release/pmc_compare.o
 .text$_ZN8Palmtree4Math4Core8Internal9ExceptionD0Ev
                0x0000000000000000       0x30 ../build/x64_Release/pmc_compare.o
 .text$_ZN8Palmtree4Math4Core8Internal21ArgumentNullExceptionD1Ev
                0x0000000000000000       0x10 ../build/x64_Release/pmc_compare.o
 .text$_ZN8Palmtree4Math4Core8Internal21ArgumentNullExceptionD0Ev
                0x0000000000000000       0x30 ../build/x64_Release/pmc_compare.o
 .rdata$_ZTSSt9exception
                0x0000000000000000       0x10 ../build/x64_Release/pmc_compare.o
 .rdata$_ZTISt9exception
                0x0000000000000000       0x10 ../build/x64_Release/pmc_compare.o
 .rdata$_ZTSN8Palmtree4Math4Core8Internal9ExceptionE
                0x0000000000000000       0x40 ../build/x64_Release/pmc_compare.o
 .rdata$_ZTIN8Palmtree4Math4Core8Internal9ExceptionE
                0x0000000000000000       0x30 ../build/x64_Release/pmc_compare.o
 .rdata$_ZTSN8Palmtree4Math4Core8Internal21ArgumentNullExceptionE
                0x0000000000000000       0x40 ../build/x64_Release/pmc_compare.o
 .rdata$_ZTIN8Palmtree4Math4Core8Internal21ArgumentNullExceptionE
                0x0000000000000000       0x20 ../build/x64_Release/pmc_compare.o
 .rdata$_ZTVN8Palmtree4Math4Core8Internal9ExceptionE
                0x0000000000000000       0x30 ../build/x64_Release/pmc_compare.o
 .rdata$_ZTVN8Palmtree4Math4Core8Internal21ArgumentNullExceptionE
                0x0000000000000000       0x30 ../build/x64_Release/pmc_compare.o
 .text$_ZN8Palmtree4Math4Core8Internal9ExceptionD1Ev
                0x0000000000000000       0x10 ../build/x64_Release/pmc_divrem.o
 .text$_ZN8Palmtree4Math4Core8Internal9ExceptionD0Ev
                0x0000000000000000       0x30 ../build/x64_Release/pmc_divrem.o
 .text$_ZN8Palmtree4Math4Core8Internal21ArgumentNullExceptionD1Ev
                0x0000000000000000       0x10 ../build/x64_Release/pmc_divrem.o
 .text$_ZN8Palmtree4Math4Core8Internal21ArgumentNullExceptionD0Ev
                0x0000000000000000       0x30 ../build/x64_Release/pmc_divrem.o
 .rdata$_ZTSSt9exception
                0x0000000000000000       0x10 ../build/x64_Release/pmc_divrem.o
 .rdata$_ZTISt9exception
                0x0000000000000000       0x10 ../build/x64_Release/pmc_divrem.o
 .rdata$_ZTSN8Palmtree4Math4Core8Internal9ExceptionE
                0x0000000000000000       0x40 ../build/x64_Release/pmc_divrem.o
 .rdata$_ZTIN8Palmtree4Math4Core8Internal9ExceptionE
                0x0000000000000000       0x30 ../build/x64_Release/pmc_divrem.o
 .rdata$_ZTSN8Palmtree4Math4Core8Internal21ArgumentNullExceptionE
                0x0000000000000000       0x40 ../build/x64_Release/pmc_divrem.o
 .rdata$_ZTIN8Palmtree4Math4Core8Internal21ArgumentNullExceptionE
                0x0000000000000000       0x20 ../build/x64_Release/pmc_divrem.o
 .rdata$_ZTVN8Palmtree4Math4Core8Internal9ExceptionE
                0x0000000000000000       0x30 ../build/x64_Release/pmc_divrem.o
 .rdata$_ZTVN8Palmtree4Math4Core8Internal21ArgumentNullExceptionE
                0x0000000000000000       0x30 ../build/x64_Release/pmc_divrem.o
 .rdata$.refptr._ZN8Palmtree4Math4Core8Internal11number_zeroE
                0x0000000000000000       0x10 ../build/x64_Release/pmc_divrem.o
 .text$_ZN8Palmtree4Math4Core8Internal9ExceptionD1Ev
                0x0000000000000000       0x10 ../build/x64_Release/pmc_equals.o
 .text$_ZN8Palmtree4Math4Core8Internal9ExceptionD0Ev
                0x0000000000000000       0x30 ../build/x64_Release/pmc_equals.o
 .text$_ZN8Palmtree4Math4Core8Internal21ArgumentNullExceptionD1Ev
                0x0000000000000000       0x10 ../build/x64_Release/pmc_equals.o
 .text$_ZN8Palmtree4Math4Core8Internal21ArgumentNullExceptionD0Ev
                0x0000000000000000       0x30 ../build/x64_Release/pmc_equals.o
 .rdata$_ZTSSt9exception
                0x0000000000000000       0x10 ../build/x64_Release/pmc_equals.o
 .rdata$_ZTISt9exception
                0x0000000000000000       0x10 ../build/x64_Release/pmc_equals.o
 .rdata$_ZTSN8Palmtree4Math4Core8Internal9ExceptionE
                0x0000000000000000       0x40 ../build/x64_Release/pmc_equals.o
 .rdata$_ZTIN8Palmtree4Math4Core8Internal9ExceptionE
                0x0000000000000000       0x30 ../build/x64_Release/pmc_equals.o
 .rdata$_ZTSN8Palmtree4Math4Core8Internal21ArgumentNullExceptionE
                0x0000000000000000       0x40 ../build/x64_Release/pmc_equals.o
 .rdata$_ZTIN8Palmtree4Math4Core8Internal21ArgumentNullExceptionE
                0x0000000000000000       0x20 ../build/x64_Release/pmc_equals.o
 .rdata$_ZTVN8Palmtree4Math4Core8Internal9ExceptionE
                0x0000000000000000       0x30 ../build/x64_Release/pmc_equals.o
 .rdata$_ZTVN8Palmtree4Math4Core8Internal21ArgumentNullExceptionE
                0x0000000000000000       0x30 ../build/x64_Release/pmc_equals.o
 .text$_ZN8Palmtree4Math4Core8Internal9ExceptionD1Ev
                0x0000000000000000       0x10 ../build/x64_Release/pmc_exclusiveor.o
 .text$_ZN8Palmtree4Math4Core8Internal9ExceptionD0Ev
                0x0000000000000000       0x30 ../build/x64_Release/pmc_exclusiveor.o
 .text$_ZN8Palmtree4Math4Core8Internal21ArgumentNullExceptionD1Ev
                0x0000000000000000       0x10 ../build/x64_Release/pmc_exclusiveor.o
 .text$_ZN8Palmtree4Math4Core8Internal21ArgumentNullExceptionD0Ev
                0x0000000000000000       0x30 ../build/x64_Release/pmc_exclusiveor.o
 .rdata$_ZTSSt9exception
                0x0000000000000000       0x10 ../build/x64_Release/pmc_exclusiveor.o
 .rdata$_ZTISt9exception
                0x0000000000000000       0x10 ../build/x64_Release/pmc_exclusiveor.o
 .rdata$_ZTSN8Palmtree4Math4Core8Internal9ExceptionE
                0x0000000000000000       0x40 ../build/x64_Release/pmc_exclusiveor.o
 .rdata$_ZTIN8Palmtree4Math4Core8Internal9ExceptionE
                0x0000000000000000       0x30 ../build/x64_Release/pmc_exclusiveor.o
 .rdata$_ZTSN8Palmtree4Math4Core8Internal21ArgumentNullExceptionE
                0x0000000000000000       0x40 ../build/x64_Release/pmc_exclusiveor.o
 .rdata$_ZTIN8Palmtree4Math4Core8Internal21ArgumentNullExceptionE
                0x0000000000000000       0x20 ../build/x64_Release/pmc_exclusiveor.o
 .rdata$_ZTVN8Palmtree4Math4Core8Internal9ExceptionE
                0x0000000000000000       0x30 ../build/x64_Release/pmc_exclusiveor.o
 .rdata$_ZTVN8Palmtree4Math4Core8Internal21ArgumentNullExceptionE
                0x0000000000000000       0x30 ../build/x64_Release/pmc_exclusiveor.o
 .rdata$.refptr._ZN8Palmtree4Math4Core8Internal11number_zeroE
                0x0000000000000000       0x10 ../build/x64_Release/pmc_exclusiveor.o
 .rdata$.refptr._ZN8Palmtree4Math4Core8Internal11number_zeroE
                0x0000000000000000       0x10 ../build/x64_Release/pmc_from.o
 .text$_ZN8Palmtree4Math4Core8Internal9ExceptionD1Ev
                0x0000000000000000       0x10 ../build/x64_Release/pmc_greatestcommondivisor.o
 .text$_ZN8Palmtree4Math4Core8Internal9ExceptionD0Ev
                0x0000000000000000       0x30 ../build/x64_Release/pmc_greatestcommondivisor.o
 .text$_ZN8Palmtree4Math4Core8Internal21ArgumentNullExceptionD1Ev
                0x0000000000000000       0x10 ../build/x64_Release/pmc_greatestcommondivisor.o
 .text$_ZN8Palmtree4Math4Core8Internal21ArgumentNullExceptionD0Ev
                0x0000000000000000       0x30 ../build/x64_Release/pmc_greatestcommondivisor.o
 .text$_ZN8Palmtree4Math4Core8Internal22InternalErrorExceptionD1Ev
                0x0000000000000000       0x10 ../build/x64_Release/pmc_greatestcommondivisor.o
 .text$_ZN8Palmtree4Math4Core8Internal22InternalErrorExceptionD0Ev
                0x0000000000000000       0x30 ../build/x64_Release/pmc_greatestcommondivisor.o
 .rdata$_ZTSSt9exception
                0x0000000000000000       0x10 ../build/x64_Release/pmc_greatestcommondivisor.o
 .rdata$_ZTISt9exception
                0x0000000000000000       0x10 ../build/x64_Release/pmc_greatestcommondivisor.o
 .rdata$_ZTSN8Palmtree4Math4Core8Internal9ExceptionE
                0x0000000000000000       0x40 ../build/x64_Release/pmc_greatestcommondivisor.o
 .rdata$_ZTIN8Palmtree4Math4Core8Internal9ExceptionE
                0x0000000000000000       0x30 ../build/x64_Release/pmc_greatestcommondivisor.o
 .rdata$_ZTSN8Palmtree4Math4Core8Internal21ArgumentNullExceptionE
                0x0000000000000000       0x40 ../build/x64_Release/pmc_greatestcommondivisor.o
 .rdata$_ZTIN8Palmtree4Math4Core8Internal21ArgumentNullExceptionE
                0x0000000000000000       0x20 ../build/x64_Release/pmc_greatestcommondivisor.o
 .rdata$_ZTSN8Palmtree4Math4Core8Internal22InternalErrorExceptionE
                0x0000000000000000       0x40 ../build/x64_Release/pmc_greatestcommondivisor.o
 .rdata$_ZTIN8Palmtree4Math4Core8Internal22InternalErrorExceptionE
                0x0000000000000000       0x20 ../build/x64_Release/pmc_greatestcommondivisor.o
 .rdata$_ZTVN8Palmtree4Math4Core8Internal9ExceptionE
                0x0000000000000000       0x30 ../build/x64_Release/pmc_greatestcommondivisor.o
 .rdata$_ZTVN8Palmtree4Math4Core8Internal21ArgumentNullExceptionE
                0x0000000000000000       0x30 ../build/x64_Release/pmc_greatestcommondivisor.o
 .rdata$_ZTVN8Palmtree4Math4Core8Internal22InternalErrorExceptionE
                0x0000000000000000       0x30 ../build/x64_Release/pmc_greatestcommondivisor.o
 .rdata$_ZTSSt9exception
                0x0000000000000000       0x10 ../build/x64_Release/pmc_interface_csharp.o
 .rdata$_ZTISt9exception
                0x0000000000000000       0x10 ../build/x64_Release/pmc_interface_csharp.o
 .rdata$_ZTSN8Palmtree4Math4Core8Internal9ExceptionE
                0x0000000000000000       0x40 ../build/x64_Release/pmc_interface_csharp.o
 .rdata$_ZTIN8Palmtree4Math4Core8Internal9ExceptionE
                0x0000000000000000       0x30 ../build/x64_Release/pmc_interface_csharp.o
 .text$_ZN8Palmtree4Math4Core8Internal9ExceptionD1Ev
                0x0000000000000000       0x10 ../build/x64_Release/pmc_memory.o
 .text$_ZN8Palmtree4Math4Core8Internal9ExceptionD0Ev
                0x0000000000000000       0x30 ../build/x64_Release/pmc_memory.o
 .text$_ZN8Palmtree4Math4Core8Internal21ArgumentNullExceptionD1Ev
                0x0000000000000000       0x10 ../build/x64_Release/pmc_memory.o
 .text$_ZN8Palmtree4Math4Core8Internal21ArgumentNullExceptionD0Ev
                0x0000000000000000       0x30 ../build/x64_Release/pmc_memory.o
 .text$_ZN8Palmtree4Math4Core8Internal22InternalErrorExceptionD1Ev
                0x0000000000000000       0x10 ../build/x64_Release/pmc_memory.o
 .text$_ZN8Palmtree4Math4Core8Internal22InternalErrorExceptionD0Ev
                0x0000000000000000       0x30 ../build/x64_Release/pmc_memory.o
 .rdata$_ZTSSt9exception
                0x0000000000000000       0x10 ../build/x64_Release/pmc_memory.o
 .rdata$_ZTISt9exception
                0x0000000000000000       0x10 ../build/x64_Release/pmc_memory.o
 .rdata$_ZTSN8Palmtree4Math4Core8Internal9ExceptionE
                0x0000000000000000       0x40 ../build/x64_Release/pmc_memory.o
 .rdata$_ZTIN8Palmtree4Math4Core8Internal9ExceptionE
                0x0000000000000000       0x30 ../build/x64_Release/pmc_memory.o
 .rdata$_ZTSN8Palmtree4Math4Core8Internal21ArgumentNullExceptionE
                0x0000000000000000       0x40 ../build/x64_Release/pmc_memory.o
 .rdata$_ZTIN8Palmtree4Math4Core8Internal21ArgumentNullExceptionE
                0x0000000000000000       0x20 ../build/x64_Release/pmc_memory.o
 .rdata$_ZTSN8Palmtree4Math4Core8Internal22InternalErrorExceptionE
                0x0000000000000000       0x40 ../build/x64_Release/pmc_memory.o
 .rdata$_ZTIN8Palmtree4Math4Core8Internal22InternalErrorExceptionE
                0x0000000000000000       0x20 ../build/x64_Release/pmc_memory.o
 .rdata$_ZTVN8Palmtree4Math4Core8Internal9ExceptionE
                0x0000000000000000       0x30 ../build/x64_Release/pmc_memory.o
 .rdata$_ZTVN8Palmtree4Math4Core8Internal21ArgumentNullExceptionE
                0x0000000000000000       0x30 ../build/x64_Release/pmc_memory.o
 .rdata$_ZTVN8Palmtree4Math4Core8Internal22InternalErrorExceptionE
                0x0000000000000000       0x30 ../build/x64_Release/pmc_memory.o
 .text$_ZN8Palmtree4Math4Core8Internal9ExceptionD1Ev
                0x0000000000000000       0x10 ../build/x64_Release/pmc_modpow.o
 .text$_ZN8Palmtree4Math4Core8Internal9ExceptionD0Ev
                0x0000000000000000       0x30 ../build/x64_Release/pmc_modpow.o
 .text$_ZN8Palmtree4Math4Core8Internal21ArgumentNullExceptionD1Ev
                0x0000000000000000       0x10 ../build/x64_Release/pmc_modpow.o
 .text$_ZN8Palmtree4Math4Core8Internal21ArgumentNullExceptionD0Ev
                0x0000000000000000       0x30 ../build/x64_Release/pmc_modpow.o
 .text$_ZN8Palmtree4Math4Core8Internal19ArithmeticExceptionD1Ev
                0x0000000000000000       0x10 ../build/x64_Release/pmc_modpow.o
 .text$_ZN8Palmtree4Math4Core8Internal19ArithmeticExceptionD0Ev
                0x0000000000000000       0x30 ../build/x64_Release/pmc_modpow.o
 .text$_ZN8Palmtree4Math4Core8Internal23DivisionByZeroExceptionD1Ev
                0x0000000000000000       0x10 ../build/x64_Release/pmc_modpow.o
 .text$_ZN8Palmtree4Math4Core8Internal23DivisionByZeroExceptionD0Ev
                0x0000000000000000       0x30 ../build/x64_Release/pmc_modpow.o
 .rdata$_ZTSSt9exception
                0x0000000000000000       0x10 ../build/x64_Release/pmc_modpow.o
 .rdata$_ZTISt9exception
                0x0000000000000000       0x10 ../build/x64_Release/pmc_modpow.o
 .rdata$_ZTSN8Palmtree4Math4Core8Internal9ExceptionE
                0x0000000000000000       0x40 ../build/x64_Release/pmc_modpow.o
 .rdata$_ZTIN8Palmtree4Math4Core8Internal9ExceptionE
                0x0000000000000000       0x30 ../build/x64_Release/pmc_modpow.o
 .rdata$_ZTSN8Palmtree4Math4Core8Internal21ArgumentNullExceptionE
                0x0000000000000000       0x40 ../build/x64_Release/pmc_modpow.o
 .rdata$_ZTIN8Palmtree4Math4Core8Internal21ArgumentNullExceptionE
                0x0000000000000000       0x20 ../build/x64_Release/pmc_modpow.o
 .rdata$_ZTSN8Palmtree4Math4Core8Internal23DivisionByZeroExceptionE
                0x0000000000000000       0x40 ../build/x64_Release/pmc_modpow.o
 .rdata$_ZTIN8Palmtree4Math4Core8Internal23DivisionByZeroExceptionE
                0x0000000000000000       0x20 ../build/x64_Release/pmc_modpow.o
 .rdata$_ZTSN8Palmtree4Math4Core8Internal19ArithmeticExceptionE
                0x0000000000000000       0x40 ../build/x64_Release/pmc_modpow.o
 .rdata$_ZTIN8Palmtree4Math4Core8Internal19ArithmeticExceptionE
                0x0000000000000000       0x20 ../build/x64_Release/pmc_modpow.o
 .rdata$_ZTVN8Palmtree4Math4Core8Internal9ExceptionE
                0x0000000000000000       0x30 ../build/x64_Release/pmc_modpow.o
 .rdata$_ZTVN8Palmtree4Math4Core8Internal21ArgumentNullExceptionE
                0x0000000000000000       0x30 ../build/x64_Release/pmc_modpow.o
 .rdata$_ZTVN8Palmtree4Math4Core8Internal23DivisionByZeroExceptionE
                0x0000000000000000       0x30 ../build/x64_Release/pmc_modpow.o
 .rdata$_ZTVN8Palmtree4Math4Core8Internal19ArithmeticExceptionE
                0x0000000000000000       0x30 ../build/x64_Release/pmc_modpow.o
 .rdata$.refptr._ZN8Palmtree4Math4Core8Internal11number_zeroE
                0x0000000000000000       0x10 ../build/x64_Release/pmc_modpow.o
 .text$_ZN8Palmtree4Math4Core8Internal9ExceptionD1Ev
                0x0000000000000000       0x10 ../build/x64_Release/pmc_multiply.o
 .text$_ZN8Palmtree4Math4Core8Internal9ExceptionD0Ev
                0x0000000000000000       0x30 ../build/x64_Release/pmc_multiply.o
 .text$_ZN8Palmtree4Math4Core8Internal21ArgumentNullExceptionD1Ev
                0x0000000000000000       0x10 ../build/x64_Release/pmc_multiply.o
 .text$_ZN8Palmtree4Math4Core8Internal21ArgumentNullExceptionD0Ev
                0x0000000000000000       0x30 ../build/x64_Release/pmc_multiply.o
 .rdata$_ZTSSt9exception
                0x0000000000000000       0x10 ../build/x64_Release/pmc_multiply.o
 .rdata$_ZTISt9exception
                0x0000000000000000       0x10 ../build/x64_Release/pmc_multiply.o
 .rdata$_ZTSN8Palmtree4Math4Core8Internal9ExceptionE
                0x0000000000000000       0x40 ../build/x64_Release/pmc_multiply.o
 .rdata$_ZTIN8Palmtree4Math4Core8Internal9ExceptionE
                0x0000000000000000       0x30 ../build/x64_Release/pmc_multiply.o
 .rdata$_ZTSN8Palmtree4Math4Core8Internal21ArgumentNullExceptionE
                0x0000000000000000       0x40 ../build/x64_Release/pmc_multiply.o
 .rdata$_ZTIN8Palmtree4Math4Core8Internal21ArgumentNullExceptionE
                0x0000000000000000       0x20 ../build/x64_Release/pmc_multiply.o
 .rdata$_ZTVN8Palmtree4Math4Core8Internal9ExceptionE
                0x0000000000000000       0x30 ../build/x64_Release/pmc_multiply.o
 .rdata$_ZTVN8Palmtree4Math4Core8Internal21ArgumentNullExceptionE
                0x0000000000000000       0x30 ../build/x64_Release/pmc_multiply.o
 .rdata$.refptr._ZN8Palmtree4Math4Core8Internal11number_zeroE
                0x0000000000000000       0x10 ../build/x64_Release/pmc_multiply.o
 .rdata$.refptr._ZN8Palmtree4Math4Core8Internal15statistics_infoE
                0x0000000000000000       0x10 ../build/x64_Release/pmc_multiply.o
 .text$_ZN8Palmtree4Math4Core8Internal9ExceptionD1Ev
                0x0000000000000000       0x10 ../build/x64_Release/pmc_parse.o
 .text$_ZN8Palmtree4Math4Core8Internal9ExceptionD0Ev
                0x0000000000000000       0x30 ../build/x64_Release/pmc_parse.o
 .text$_ZN8Palmtree4Math4Core8Internal21ArgumentNullExceptionD1Ev
                0x0000000000000000       0x10 ../build/x64_Release/pmc_parse.o
 .text$_ZN8Palmtree4Math4Core8Internal21ArgumentNullExceptionD0Ev
                0x0000000000000000       0x30 ../build/x64_Release/pmc_parse.o
 .text$_ZN8Palmtree4Math4Core8Internal17ArgumentExceptionD1Ev
                0x0000000000000000       0x10 ../build/x64_Release/pmc_parse.o
 .text$_ZN8Palmtree4Math4Core8Internal17ArgumentExceptionD0Ev
                0x0000000000000000       0x30 ../build/x64_Release/pmc_parse.o
 .text$_ZN8Palmtree4Math4Core8Internal22InternalErrorExceptionD1Ev
                0x0000000000000000       0x10 ../build/x64_Release/pmc_parse.o
 .text$_ZN8Palmtree4Math4Core8Internal22InternalErrorExceptionD0Ev
                0x0000000000000000       0x30 ../build/x64_Release/pmc_parse.o
 .text$_ZN8Palmtree4Math4Core8Internal27InsufficientBufferExceptionD1Ev
                0x0000000000000000       0x10 ../build/x64_Release/pmc_parse.o
 .text$_ZN8Palmtree4Math4Core8Internal27InsufficientBufferExceptionD0Ev
                0x0000000000000000       0x30 ../build/x64_Release/pmc_parse.o
 .rdata$_ZTSSt9exception
                0x0000000000000000       0x10 ../build/x64_Release/pmc_parse.o
 .rdata$_ZTISt9exception
                0x0000000000000000       0x10 ../build/x64_Release/pmc_parse.o
 .rdata$_ZTSN8Palmtree4Math4Core8Internal9ExceptionE
                0x0000000000000000       0x40 ../build/x64_Release/pmc_parse.o
 .rdata$_ZTIN8Palmtree4Math4Core8Internal9ExceptionE
                0x0000000000000000       0x30 ../build/x64_Release/pmc_parse.o
 .rdata$_ZTSN8Palmtree4Math4Core8Internal17ArgumentExceptionE
                0x0000000000000000       0x40 ../build/x64_Release/pmc_parse.o
 .rdata$_ZTIN8Palmtree4Math4Core8Internal17ArgumentExceptionE
                0x0000000000000000       0x20 ../build/x64_Release/pmc_parse.o
 .rdata$_ZTSN8Palmtree4Math4Core8Internal21ArgumentNullExceptionE
                0x0000000000000000       0x40 ../build/x64_Release/pmc_parse.o
 .rdata$_ZTIN8Palmtree4Math4Core8Internal21ArgumentNullExceptionE
                0x0000000000000000       0x20 ../build/x64_Release/pmc_parse.o
 .rdata$_ZTSN8Palmtree4Math4Core8Internal27InsufficientBufferExceptionE
                0x0000000000000000       0x40 ../build/x64_Release/pmc_parse.o
 .rdata$_ZTIN8Palmtree4Math4Core8Internal27InsufficientBufferExceptionE
                0x0000000000000000       0x20 ../build/x64_Release/pmc_parse.o
 .rdata$_ZTSN8Palmtree4Math4Core8Internal22InternalErrorExceptionE
                0x0000000000000000       0x40 ../build/x64_Release/pmc_parse.o
 .rdata$_ZTIN8Palmtree4Math4Core8Internal22InternalErrorExceptionE
                0x0000000000000000       0x20 ../build/x64_Release/pmc_parse.o
 .rdata$_ZTVN8Palmtree4Math4Core8Internal9ExceptionE
                0x0000000000000000       0x30 ../build/x64_Release/pmc_parse.o
 .rdata$_ZTVN8Palmtree4Math4Core8Internal17ArgumentExceptionE
                0x0000000000000000       0x30 ../build/x64_Release/pmc_parse.o
 .rdata$_ZTVN8Palmtree4Math4Core8Internal21ArgumentNullExceptionE
                0x0000000000000000       0x30 ../build/x64_Release/pmc_parse.o
 .rdata$_ZTVN8Palmtree4Math4Core8Internal27InsufficientBufferExceptionE
                0x0000000000000000       0x30 ../build/x64_Release/pmc_parse.o
 .rdata$_ZTVN8Palmtree4Math4Core8Internal22InternalErrorExceptionE
                0x0000000000000000       0x30 ../build/x64_Release/pmc_parse.o
 .rdata$.refptr._ZN8Palmtree4Math4Core8Internal11number_zeroE
                0x0000000000000000       0x10 ../build/x64_Release/pmc_parse.o
 .rdata$.refptr._ZN8Palmtree4Math4Core8Internal15statistics_infoE
                0x0000000000000000       0x10 ../build/x64_Release/pmc_parse.o
 .text$_ZN8Palmtree4Math4Core8Internal9ExceptionD1Ev
                0x0000000000000000       0x10 ../build/x64_Release/pmc_pow.o
 .text$_ZN8Palmtree4Math4Core8Internal9ExceptionD0Ev
                0x0000000000000000       0x30 ../build/x64_Release/pmc_pow.o
 .text$_ZN8Palmtree4Math4Core8Internal19ArithmeticExceptionD1Ev
                0x0000000000000000       0x10 ../build/x64_Release/pmc_pow.o
 .text$_ZN8Palmtree4Math4Core8Internal19ArithmeticExceptionD0Ev
                0x0000000000000000       0x30 ../build/x64_Release/pmc_pow.o
 .text$_ZN8Palmtree4Math4Core8Internal21ArgumentNullExceptionD1Ev
                0x0000000000000000       0x10 ../build/x64_Release/pmc_pow.o
 .text$_ZN8Palmtree4Math4Core8Internal21ArgumentNullExceptionD0Ev
                0x0000000000000000       0x30 ../build/x64_Release/pmc_pow.o
 .rdata$_ZTSSt9exception
                0x0000000000000000       0x10 ../build/x64_Release/pmc_pow.o
 .rdata$_ZTISt9exception
                0x0000000000000000       0x10 ../build/x64_Release/pmc_pow.o
 .rdata$_ZTSN8Palmtree4Math4Core8Internal9ExceptionE
                0x0000000000000000       0x40 ../build/x64_Release/pmc_pow.o
 .rdata$_ZTIN8Palmtree4Math4Core8Internal9ExceptionE
                0x0000000000000000       0x30 ../build/x64_Release/pmc_pow.o
 .rdata$_ZTSN8Palmtree4Math4Core8Internal21ArgumentNullExceptionE
                0x0000000000000000       0x40 ../build/x64_Release/pmc_pow.o
 .rdata$_ZTIN8Palmtree4Math4Core8Internal21ArgumentNullExceptionE
                0x0000000000000000       0x20 ../build/x64_Release/pmc_pow.o
 .rdata$_ZTSN8Palmtree4Math4Core8Internal19ArithmeticExceptionE
                0x0000000000000000       0x40 ../build/x64_Release/pmc_pow.o
 .rdata$_ZTIN8Palmtree4Math4Core8Internal19ArithmeticExceptionE
                0x0000000000000000       0x20 ../build/x64_Release/pmc_pow.o
 .rdata$_ZTVN8Palmtree4Math4Core8Internal9ExceptionE
                0x0000000000000000       0x30 ../build/x64_Release/pmc_pow.o
 .rdata$_ZTVN8Palmtree4Math4Core8Internal21ArgumentNullExceptionE
                0x0000000000000000       0x30 ../build/x64_Release/pmc_pow.o
 .rdata$_ZTVN8Palmtree4Math4Core8Internal19ArithmeticExceptionE
                0x0000000000000000       0x30 ../build/x64_Release/pmc_pow.o
 .rdata$.refptr._ZN8Palmtree4Math4Core8Internal10number_oneE
                0x0000000000000000       0x10 ../build/x64_Release/pmc_pow.o
 .rdata$.refptr._ZN8Palmtree4Math4Core8Internal11number_zeroE
                0x0000000000000000       0x10 ../build/x64_Release/pmc_pow.o
 .text$_ZN8Palmtree4Math4Core8Internal9ExceptionD1Ev
                0x0000000000000000       0x10 ../build/x64_Release/pmc_shift.o
 .text$_ZN8Palmtree4Math4Core8Internal9ExceptionD0Ev
                0x0000000000000000       0x30 ../build/x64_Release/pmc_shift.o
 .text$_ZN8Palmtree4Math4Core8Internal21ArgumentNullExceptionD1Ev
                0x0000000000000000       0x10 ../build/x64_Release/pmc_shift.o
 .text$_ZN8Palmtree4Math4Core8Internal21ArgumentNullExceptionD0Ev
                0x0000000000000000       0x30 ../build/x64_Release/pmc_shift.o
 .rdata$_ZTSSt9exception
                0x0000000000000000       0x10 ../build/x64_Release/pmc_shift.o
 .rdata$_ZTISt9exception
                0x0000000000000000       0x10 ../build/x64_Release/pmc_shift.o
 .rdata$_ZTSN8Palmtree4Math4Core8Internal9ExceptionE
                0x0000000000000000       0x40 ../build/x64_Release/pmc_shift.o
 .rdata$_ZTIN8Palmtree4Math4Core8Internal9ExceptionE
                0x0000000000000000       0x30 ../build/x64_Release/pmc_shift.o
 .rdata$_ZTSN8Palmtree4Math4Core8Internal21ArgumentNullExceptionE
                0x0000000000000000       0x40 ../build/x64_Release/pmc_shift.o
 .rdata$_ZTIN8Palmtree4Math4Core8Internal21ArgumentNullExceptionE
                0x0000000000000000       0x20 ../build/x64_Release/pmc_shift.o
 .rdata$_ZTVN8Palmtree4Math4Core8Internal9ExceptionE
                0x0000000000000000       0x30 ../build/x64_Release/pmc_shift.o
 .rdata$_ZTVN8Palmtree4Math4Core8Internal21ArgumentNullExceptionE
                0x0000000000000000       0x30 ../build/x64_Release/pmc_shift.o
 .rdata$.refptr._ZN8Palmtree4Math4Core8Internal11number_zeroE
                0x0000000000000000       0x10 ../build/x64_Release/pmc_shift.o
 .text$_ZN8Palmtree4Math4Core8Internal9ExceptionD1Ev
                0x0000000000000000       0x10 ../build/x64_Release/pmc_subtruct.o
 .text$_ZN8Palmtree4Math4Core8Internal9ExceptionD0Ev
                0x0000000000000000       0x30 ../build/x64_Release/pmc_subtruct.o
 .text$_ZN8Palmtree4Math4Core8Internal17OverflowExceptionD1Ev
                0x0000000000000000       0x10 ../build/x64_Release/pmc_subtruct.o
 .text$_ZN8Palmtree4Math4Core8Internal17OverflowExceptionD0Ev
                0x0000000000000000       0x30 ../build/x64_Release/pmc_subtruct.o
 .text$_ZN8Palmtree4Math4Core8Internal21ArgumentNullExceptionD1Ev
                0x0000000000000000       0x10 ../build/x64_Release/pmc_subtruct.o
 .text$_ZN8Palmtree4Math4Core8Internal21ArgumentNullExceptionD0Ev
                0x0000000000000000       0x30 ../build/x64_Release/pmc_subtruct.o
 .rdata$_ZTSSt9exception
                0x0000000000000000       0x10 ../build/x64_Release/pmc_subtruct.o
 .rdata$_ZTISt9exception
                0x0000000000000000       0x10 ../build/x64_Release/pmc_subtruct.o
 .rdata$_ZTSN8Palmtree4Math4Core8Internal9ExceptionE
                0x0000000000000000       0x40 ../build/x64_Release/pmc_subtruct.o
 .rdata$_ZTIN8Palmtree4Math4Core8Internal9ExceptionE
                0x0000000000000000       0x30 ../build/x64_Release/pmc_subtruct.o
 .rdata$_ZTSN8Palmtree4Math4Core8Internal21ArgumentNullExceptionE
                0x0000000000000000       0x40 ../build/x64_Release/pmc_subtruct.o
 .rdata$_ZTIN8Palmtree4Math4Core8Internal21ArgumentNullExceptionE
                0x0000000000000000       0x20 ../build/x64_Release/pmc_subtruct.o
 .rdata$_ZTSN8Palmtree4Math4Core8Internal17OverflowExceptionE
                0x0000000000000000       0x40 ../build/x64_Release/pmc_subtruct.o
 .rdata$_ZTIN8Palmtree4Math4Core8Internal17OverflowExceptionE
                0x0000000000000000       0x20 ../build/x64_Release/pmc_subtruct.o
 .rdata$_ZTVN8Palmtree4Math4Core8Internal9ExceptionE
                0x0000000000000000       0x30 ../build/x64_Release/pmc_subtruct.o
 .rdata$_ZTVN8Palmtree4Math4Core8Internal21ArgumentNullExceptionE
                0x0000000000000000       0x30 ../build/x64_Release/pmc_subtruct.o
 .rdata$_ZTVN8Palmtree4Math4Core8Internal17OverflowExceptionE
                0x0000000000000000       0x30 ../build/x64_Release/pmc_subtruct.o
 .rdata$.refptr._ZN8Palmtree4Math4Core8Internal11number_zeroE
                0x0000000000000000       0x10 ../build/x64_Release/pmc_subtruct.o
 .text$_ZN8Palmtree4Math4Core8Internal9ExceptionD1Ev
                0x0000000000000000       0x10 ../build/x64_Release/pmc_to.o
 .text$_ZN8Palmtree4Math4Core8Internal9ExceptionD0Ev
                0x0000000000000000       0x30 ../build/x64_Release/pmc_to.o
 .text$_ZN8Palmtree4Math4Core8Internal17OverflowExceptionD1Ev
                0x0000000000000000       0x10 ../build/x64_Release/pmc_to.o
 .text$_ZN8Palmtree4Math4Core8Internal17OverflowExceptionD0Ev
                0x0000000000000000       0x30 ../build/x64_Release/pmc_to.o
 .rdata$_ZTSSt9exception
                0x0000000000000000       0x10 ../build/x64_Release/pmc_to.o
 .rdata$_ZTISt9exception
                0x0000000000000000       0x10 ../build/x64_Release/pmc_to.o
 .rdata$_ZTSN8Palmtree4Math4Core8Internal9ExceptionE
                0x0000000000000000       0x40 ../build/x64_Release/pmc_to.o
 .rdata$_ZTIN8Palmtree4Math4Core8Internal9ExceptionE
                0x0000000000000000       0x30 ../build/x64_Release/pmc_to.o
 .rdata$_ZTSN8Palmtree4Math4Core8Internal17OverflowExceptionE
                0x0000000000000000       0x40 ../build/x64_Release/pmc_to.o
 .rdata$_ZTIN8Palmtree4Math4Core8Internal17OverflowExceptionE
                0x0000000000000000       0x20 ../build/x64_Release/pmc_to.o
 .rdata$_ZTVN8Palmtree4Math4Core8Internal9ExceptionE
                0x0000000000000000       0x30 ../build/x64_Release/pmc_to.o
 .rdata$_ZTVN8Palmtree4Math4Core8Internal17OverflowExceptionE
                0x0000000000000000       0x30 ../build/x64_Release/pmc_to.o
 .text$_ZN8Palmtree4Math4Core8Internal12StringReader8PeekCharEv
                0x0000000000000000       0x10 ../build/x64_Release/pmc_tostring.o
 .text$_ZN8Palmtree4Math4Core8Internal12StringReader10StartsWithEPKw
                0x0000000000000000       0x50 ../build/x64_Release/pmc_tostring.o
 .text$_ZN8Palmtree4Math4Core8Internal12StringWriter5WriteEPKw
                0x0000000000000000       0x30 ../build/x64_Release/pmc_tostring.o
 .text$_ZN8Palmtree4Math4Core8Internal12StringWriter9GetStringEv
                0x0000000000000000       0x10 ../build/x64_Release/pmc_tostring.o
 .text$_ZN8Palmtree4Math4Core8Internal9ExceptionD1Ev
                0x0000000000000000       0x10 ../build/x64_Release/pmc_tostring.o
 .text$_ZN8Palmtree4Math4Core8Internal9ExceptionD0Ev
                0x0000000000000000       0x30 ../build/x64_Release/pmc_tostring.o
 .text$_ZN8Palmtree4Math4Core8Internal21ArgumentNullExceptionD1Ev
                0x0000000000000000       0x10 ../build/x64_Release/pmc_tostring.o
 .text$_ZN8Palmtree4Math4Core8Internal21ArgumentNullExceptionD0Ev
                0x0000000000000000       0x30 ../build/x64_Release/pmc_tostring.o
 .text$_ZN8Palmtree4Math4Core8Internal15FormatExceptionD1Ev
                0x0000000000000000       0x10 ../build/x64_Release/pmc_tostring.o
 .text$_ZN8Palmtree4Math4Core8Internal15FormatExceptionD0Ev
                0x0000000000000000       0x30 ../build/x64_Release/pmc_tostring.o
 .text$_ZN8Palmtree4Math4Core8Internal27InsufficientBufferExceptionD1Ev
                0x0000000000000000       0x10 ../build/x64_Release/pmc_tostring.o
 .text$_ZN8Palmtree4Math4Core8Internal27InsufficientBufferExceptionD0Ev
                0x0000000000000000       0x30 ../build/x64_Release/pmc_tostring.o
 .text$_ZN8Palmtree4Math4Core8Internal22InternalErrorExceptionD1Ev
                0x0000000000000000       0x10 ../build/x64_Release/pmc_tostring.o
 .text$_ZN8Palmtree4Math4Core8Internal22InternalErrorExceptionD0Ev
                0x0000000000000000       0x30 ../build/x64_Release/pmc_tostring.o
 .text$_ZN8Palmtree4Math4Core8Internal12StringWriter5WriteEw
                0x0000000000000000       0x40 ../build/x64_Release/pmc_tostring.o
 .text$_ZN8Palmtree4Math4Core8Internal12StringReader8ProgressEv
                0x0000000000000000       0x30 ../build/x64_Release/pmc_tostring.o
 .text$_ZN8Palmtree4Math4Core8Internal12StringReader10SkipStringEPKw
                0x0000000000000000       0xa0 ../build/x64_Release/pmc_tostring.o
 .rdata$_ZTSSt9exception
                0x0000000000000000       0x10 ../build/x64_Release/pmc_tostring.o
 .rdata$_ZTISt9exception
                0x0000000000000000       0x10 ../build/x64_Release/pmc_tostring.o
 .rdata$_ZTSN8Palmtree4Math4Core8Internal9ExceptionE
                0x0000000000000000       0x40 ../build/x64_Release/pmc_tostring.o
 .rdata$_ZTIN8Palmtree4Math4Core8Internal9ExceptionE
                0x0000000000000000       0x30 ../build/x64_Release/pmc_tostring.o
 .rdata$_ZTSN8Palmtree4Math4Core8Internal21ArgumentNullExceptionE
                0x0000000000000000       0x40 ../build/x64_Release/pmc_tostring.o
 .rdata$_ZTIN8Palmtree4Math4Core8Internal21ArgumentNullExceptionE
                0x0000000000000000       0x20 ../build/x64_Release/pmc_tostring.o
 .rdata$_ZTSN8Palmtree4Math4Core8Internal15FormatExceptionE
                0x0000000000000000       0x40 ../build/x64_Release/pmc_tostring.o
 .rdata$_ZTIN8Palmtree4Math4Core8Internal15FormatExceptionE
                0x0000000000000000       0x20 ../build/x64_Release/pmc_tostring.o
 .rdata$_ZTSN8Palmtree4Math4Core8Internal27InsufficientBufferExceptionE
                0x0000000000000000       0x40 ../build/x64_Release/pmc_tostring.o
 .rdata$_ZTIN8Palmtree4Math4Core8Internal27InsufficientBufferExceptionE
                0x0000000000000000       0x20 ../build/x64_Release/pmc_tostring.o
 .rdata$_ZTSN8Palmtree4Math4Core8Internal22InternalErrorExceptionE
                0x0000000000000000       0x40 ../build/x64_Release/pmc_tostring.o
 .rdata$_ZTIN8Palmtree4Math4Core8Internal22InternalErrorExceptionE
                0x0000000000000000       0x20 ../build/x64_Release/pmc_tostring.o
 .rdata$_ZTSN8Palmtree4Math4Core8Internal12StringWriterE
                0x0000000000000000       0x40 ../build/x64_Release/pmc_tostring.o
 .rdata$_ZTIN8Palmtree4Math4Core8Internal12StringWriterE
                0x0000000000000000       0x10 ../build/x64_Release/pmc_tostring.o
 .rdata$_ZTVN8Palmtree4Math4Core8Internal9ExceptionE
                0x0000000000000000       0x30 ../build/x64_Release/pmc_tostring.o
 .rdata$_ZTVN8Palmtree4Math4Core8Internal21ArgumentNullExceptionE
                0x0000000000000000       0x30 ../build/x64_Release/pmc_tostring.o
 .rdata$_ZTVN8Palmtree4Math4Core8Internal15FormatExceptionE
                0x0000000000000000       0x30 ../build/x64_Release/pmc_tostring.o
 .rdata$_ZTVN8Palmtree4Math4Core8Internal27InsufficientBufferExceptionE
                0x0000000000000000       0x30 ../build/x64_Release/pmc_tostring.o
 .rdata$_ZTVN8Palmtree4Math4Core8Internal22InternalErrorExceptionE
                0x0000000000000000       0x30 ../build/x64_Release/pmc_tostring.o
 .rdata$_ZTVN8Palmtree4Math4Core8Internal12StringWriterE
                0x0000000000000000       0x30 ../build/x64_Release/pmc_tostring.o
 .rdata$.refptr._ZN8Palmtree4Math4Core8Internal15statistics_infoE
                0x0000000000000000       0x10 ../build/x64_Release/pmc_tostring.o
 .rdata$_ZTSSt9exception
                0x0000000000000000       0x10 C:/GNU/MINGW64/x86_64-8.1.0-win32-seh-rt_v6-rev0/mingw64/bin/../lib/gcc/x86_64-w64-mingw32/8.1.0\libstdc++.a(eh_alloc.o)
 .rdata$_ZTISt9exception
                0x0000000000000000       0x10 C:/GNU/MINGW64/x86_64-8.1.0-win32-seh-rt_v6-rev0/mingw64/bin/../lib/gcc/x86_64-w64-mingw32/8.1.0\libstdc++.a(eh_alloc.o)
 .rdata$_ZTSSt9exception
                0x0000000000000000       0x10 C:/GNU/MINGW64/x86_64-8.1.0-win32-seh-rt_v6-rev0/mingw64/bin/../lib/gcc/x86_64-w64-mingw32/8.1.0\libstdc++.a(eh_exception.o)
 .rdata$_ZTISt9exception
                0x0000000000000000       0x10 C:/GNU/MINGW64/x86_64-8.1.0-win32-seh-rt_v6-rev0/mingw64/bin/../lib/gcc/x86_64-w64-mingw32/8.1.0\libstdc++.a(eh_exception.o)
 .rdata$_ZTSN10__cxxabiv115__forced_unwindE
                0x0000000000000000       0x20 C:/GNU/MINGW64/x86_64-8.1.0-win32-seh-rt_v6-rev0/mingw64/bin/../lib/gcc/x86_64-w64-mingw32/8.1.0\libstdc++.a(eh_personality.o)
 .rdata$_ZTIN10__cxxabiv115__forced_unwindE
                0x0000000000000000       0x10 C:/GNU/MINGW64/x86_64-8.1.0-win32-seh-rt_v6-rev0/mingw64/bin/../lib/gcc/x86_64-w64-mingw32/8.1.0\libstdc++.a(eh_personality.o)
 .rdata$_ZTSSt9exception
                0x0000000000000000       0x10 C:/GNU/MINGW64/x86_64-8.1.0-win32-seh-rt_v6-rev0/mingw64/bin/../lib/gcc/x86_64-w64-mingw32/8.1.0\libstdc++.a(eh_personality.o)
 .rdata$_ZTISt9exception
                0x0000000000000000       0x10 C:/GNU/MINGW64/x86_64-8.1.0-win32-seh-rt_v6-rev0/mingw64/bin/../lib/gcc/x86_64-w64-mingw32/8.1.0\libstdc++.a(eh_personality.o)
 .rdata$_ZTSN10__cxxabiv119__foreign_exceptionE
                0x0000000000000000       0x40 C:/GNU/MINGW64/x86_64-8.1.0-win32-seh-rt_v6-rev0/mingw64/bin/../lib/gcc/x86_64-w64-mingw32/8.1.0\libstdc++.a(eh_personality.o)
 .rdata$_ZTIN10__cxxabiv119__foreign_exceptionE
                0x0000000000000000       0x10 C:/GNU/MINGW64/x86_64-8.1.0-win32-seh-rt_v6-rev0/mingw64/bin/../lib/gcc/x86_64-w64-mingw32/8.1.0\libstdc++.a(eh_personality.o)
 .rdata$_ZTSSt13bad_exception
                0x0000000000000000       0x20 C:/GNU/MINGW64/x86_64-8.1.0-win32-seh-rt_v6-rev0/mingw64/bin/../lib/gcc/x86_64-w64-mingw32/8.1.0\libstdc++.a(eh_personality.o)
 .rdata$_ZTISt13bad_exception
                0x0000000000000000       0x20 C:/GNU/MINGW64/x86_64-8.1.0-win32-seh-rt_v6-rev0/mingw64/bin/../lib/gcc/x86_64-w64-mingw32/8.1.0\libstdc++.a(eh_personality.o)
 .rdata$_ZTSSt9exception
                0x0000000000000000       0x10 C:/GNU/MINGW64/x86_64-8.1.0-win32-seh-rt_v6-rev0/mingw64/bin/../lib/gcc/x86_64-w64-mingw32/8.1.0\libstdc++.a(new_op.o)
 .rdata$_ZTISt9exception
                0x0000000000000000       0x10 C:/GNU/MINGW64/x86_64-8.1.0-win32-seh-rt_v6-rev0/mingw64/bin/../lib/gcc/x86_64-w64-mingw32/8.1.0\libstdc++.a(new_op.o)
 .rdata$_ZTSSt9type_info
                0x0000000000000000       0x10 C:/GNU/MINGW64/x86_64-8.1.0-win32-seh-rt_v6-rev0/mingw64/bin/../lib/gcc/x86_64-w64-mingw32/8.1.0\libstdc++.a(si_class_type_info.o)
 .rdata$_ZTISt9type_info
                0x0000000000000000       0x10 C:/GNU/MINGW64/x86_64-8.1.0-win32-seh-rt_v6-rev0/mingw64/bin/../lib/gcc/x86_64-w64-mingw32/8.1.0\libstdc++.a(si_class_type_info.o)
 .rdata$_ZTSN10__cxxabiv117__class_type_infoE
                0x0000000000000000       0x40 C:/GNU/MINGW64/x86_64-8.1.0-win32-seh-rt_v6-rev0/mingw64/bin/../lib/gcc/x86_64-w64-mingw32/8.1.0\libstdc++.a(si_class_type_info.o)
 .rdata$_ZTIN10__cxxabiv117__class_type_infoE
                0x0000000000000000       0x20 C:/GNU/MINGW64/x86_64-8.1.0-win32-seh-rt_v6-rev0/mingw64/bin/../lib/gcc/x86_64-w64-mingw32/8.1.0\libstdc++.a(si_class_type_info.o)
 .rdata$_ZTSSt9type_info
                0x0000000000000000       0x10 C:/GNU/MINGW64/x86_64-8.1.0-win32-seh-rt_v6-rev0/mingw64/bin/../lib/gcc/x86_64-w64-mingw32/8.1.0\libstdc++.a(tinfo.o)
 .rdata$_ZTISt9type_info
                0x0000000000000000       0x10 C:/GNU/MINGW64/x86_64-8.1.0-win32-seh-rt_v6-rev0/mingw64/bin/../lib/gcc/x86_64-w64-mingw32/8.1.0\libstdc++.a(tinfo.o)
 .rdata$_ZTSSt9type_info
                0x0000000000000000       0x10 C:/GNU/MINGW64/x86_64-8.1.0-win32-seh-rt_v6-rev0/mingw64/bin/../lib/gcc/x86_64-w64-mingw32/8.1.0\libstdc++.a(vmi_class_type_info.o)
 .rdata$_ZTISt9type_info
                0x0000000000000000       0x10 C:/GNU/MINGW64/x86_64-8.1.0-win32-seh-rt_v6-rev0/mingw64/bin/../lib/gcc/x86_64-w64-mingw32/8.1.0\libstdc++.a(vmi_class_type_info.o)
 .rdata$_ZTSN10__cxxabiv117__class_type_infoE
                0x0000000000000000       0x40 C:/GNU/MINGW64/x86_64-8.1.0-win32-seh-rt_v6-rev0/mingw64/bin/../lib/gcc/x86_64-w64-mingw32/8.1.0\libstdc++.a(vmi_class_type_info.o)
 .rdata$_ZTIN10__cxxabiv117__class_type_infoE
                0x0000000000000000       0x20 C:/GNU/MINGW64/x86_64-8.1.0-win32-seh-rt_v6-rev0/mingw64/bin/../lib/gcc/x86_64-w64-mingw32/8.1.0\libstdc++.a(vmi_class_type_info.o)
 .rdata$_ZTSSt9exception
                0x0000000000000000       0x10 C:/GNU/MINGW64/x86_64-8.1.0-win32-seh-rt_v6-rev0/mingw64/bin/../lib/gcc/x86_64-w64-mingw32/8.1.0\libstdc++.a(vterminate.o)
 .rdata$_ZTISt9exception
                0x0000000000000000       0x10 C:/GNU/MINGW64/x86_64-8.1.0-win32-seh-rt_v6-rev0/mingw64/bin/../lib/gcc/x86_64-w64-mingw32/8.1.0\libstdc++.a(vterminate.o)
 .rdata$_ZTSSt9exception
                0x0000000000000000       0x10 C:/GNU/MINGW64/x86_64-8.1.0-win32-seh-rt_v6-rev0/mingw64/bin/../lib/gcc/x86_64-w64-mingw32/8.1.0\libstdc++.a(bad_alloc.o)
 .rdata$_ZTISt9exception
                0x0000000000000000       0x10 C:/GNU/MINGW64/x86_64-8.1.0-win32-seh-rt_v6-rev0/mingw64/bin/../lib/gcc/x86_64-w64-mingw32/8.1.0\libstdc++.a(bad_alloc.o)
 .rdata$_ZTSSt9bad_alloc
                0x0000000000000000       0x10 C:/GNU/MINGW64/x86_64-8.1.0-win32-seh-rt_v6-rev0/mingw64/bin/../lib/gcc/x86_64-w64-mingw32/8.1.0\libstdc++.a(bad_alloc.o)
 .rdata$_ZTISt9bad_alloc
                0x0000000000000000       0x20 C:/GNU/MINGW64/x86_64-8.1.0-win32-seh-rt_v6-rev0/mingw64/bin/../lib/gcc/x86_64-w64-mingw32/8.1.0\libstdc++.a(bad_alloc.o)
 .drectve       0x0000000000000000       0x4c C:/GNU/MINGW64/x86_64-8.1.0-win32-seh-rt_v6-rev0/mingw64/bin/../lib/gcc/x86_64-w64-mingw32/8.1.0/../../../../x86_64-w64-mingw32/lib/../lib\libmingw32.a(lib64_libmingw32_a-natstart.o)
 .rdata$.refptr._CRT_MT
                0x0000000000000000       0x10 C:/GNU/MINGW64/x86_64-8.1.0-win32-seh-rt_v6-rev0/mingw64/bin/../lib/gcc/x86_64-w64-mingw32/8.1.0/../../../../x86_64-w64-mingw32/lib/../lib\libmingw32.a(lib64_libmingw32_a-tlssup.o)
 .rdata$.refptr.__image_base__
                0x0000000000000000       0x10 C:/GNU/MINGW64/x86_64-8.1.0-win32-seh-rt_v6-rev0/mingw64/bin/../lib/gcc/x86_64-w64-mingw32/8.1.0/../../../../x86_64-w64-mingw32/lib/../lib\libmingw32.a(lib64_libmingw32_a-pesect.o)
 .drectve       0x0000000000000000       0x3c C:/GNU/MINGW64/x86_64-8.1.0-win32-seh-rt_v6-rev0/mingw64/bin/../lib/gcc/x86_64-w64-mingw32/8.1.0\libgcc.a(_ctors.o)
 .rdata$.refptr._CRT_MT
                0x0000000000000000       0x10 C:/GNU/MINGW64/x86_64-8.1.0-win32-seh-rt_v6-rev0/mingw64/bin/../lib/gcc/x86_64-w64-mingw32/8.1.0\libgcc_eh.a(emutls.o)

Memory Configuration

Name             Origin             Length             Attributes
*default*        0x0000000000000000 0xffffffffffffffff

Linker script and memory map

                0x0000000066100000                __image_base__ = 0x66100000
                0x0000000000000000                __dll__ = 0x0
                0x0000000066100000                __ImageBase = 0x66100000
                0x0000000000001000                __section_alignment__ = 0x1000
                0x0000000000000200                __file_alignment__ = 0x200
                0x0000000000000004                __major_os_version__ = 0x4
                0x0000000000000000                __minor_os_version__ = 0x0
                0x0000000000000000                __major_image_version__ = 0x0
                0x0000000000000000                __minor_image_version__ = 0x0
                0x0000000000000005                __major_subsystem_version__ = 0x5
                0x0000000000000002                __minor_subsystem_version__ = 0x2
                0x0000000000000002                __subsystem__ = 0x2
                0x0000000000200000                __size_of_stack_reserve__ = 0x200000
                0x0000000000001000                __size_of_stack_commit__ = 0x1000
                0x0000000000100000                __size_of_heap_reserve__ = 0x100000
                0x0000000000001000                __size_of_heap_commit__ = 0x1000
                0x0000000000000000                __loader_flags__ = 0x0
                0x0000000000000000                __dll_characteristics__ = 0x0
LOAD C:/GNU/MINGW64/x86_64-8.1.0-win32-seh-rt_v6-rev0/mingw64/bin/../lib/gcc/x86_64-w64-mingw32/8.1.0/../../../../x86_64-w64-mingw32/lib/../lib/dllcrt2.o
LOAD C:/GNU/MINGW64/x86_64-8.1.0-win32-seh-rt_v6-rev0/mingw64/bin/../lib/gcc/x86_64-w64-mingw32/8.1.0/crtbegin.o
LOAD ../build/x64_Release/cpuid.o
LOAD ../build/x64_Release/dllmain.o
LOAD ../build/x64_Release/pmc_add.o
LOAD ../build/x64_Release/pmc_bitwiseand.o
LOAD ../build/x64_Release/pmc_bitwiseor.o
LOAD ../build/x64_Release/pmc_bytes.o
LOAD ../build/x64_Release/pmc_compare.o
LOAD ../build/x64_Release/pmc_divrem.o
LOAD ../build/x64_Release/pmc_equals.o
LOAD ../build/x64_Release/pmc_exclusiveor.o
LOAD ../build/x64_Release/pmc_from.o
LOAD ../build/x64_Release/pmc_greatestcommondivisor.o
LOAD ../build/x64_Release/pmc_initialize.o
LOAD ../build/x64_Release/pmc_interface_csharp.o
LOAD ../build/x64_Release/pmc_memory.o
LOAD ../build/x64_Release/pmc_modpow.o
LOAD ../build/x64_Release/pmc_multiply.o
LOAD ../build/x64_Release/pmc_parse.o
LOAD ../build/x64_Release/pmc_pow.o
LOAD ../build/x64_Release/pmc_shift.o
LOAD ../build/x64_Release/pmc_statistics.o
LOAD ../build/x64_Release/pmc_subtruct.o
LOAD ../build/x64_Release/pmc_to.o
LOAD ../build/x64_Release/pmc_tostring.o
LOAD ../build/x64_Release/version.o
LOAD ../Palmtree.Math.Core.Uint.def
LOAD C:/GNU/MINGW64/x86_64-8.1.0-win32-seh-rt_v6-rev0/mingw64/bin/../lib/gcc/x86_64-w64-mingw32/8.1.0/../../../../x86_64-w64-mingw32/lib/../lib\libkernel32.a
LOAD C:/GNU/MINGW64/x86_64-8.1.0-win32-seh-rt_v6-rev0/mingw64/bin/../lib/gcc/x86_64-w64-mingw32/8.1.0/../../../../x86_64-w64-mingw32/lib/../lib\libuser32.a
LOAD C:/GNU/MINGW64/x86_64-8.1.0-win32-seh-rt_v6-rev0/mingw64/bin/../lib/gcc/x86_64-w64-mingw32/8.1.0\libstdc++.a
LOAD C:/GNU/MINGW64/x86_64-8.1.0-win32-seh-rt_v6-rev0/mingw64/bin/../lib/gcc/x86_64-w64-mingw32/8.1.0/../../../../x86_64-w64-mingw32/lib/../lib\libmingw32.a
LOAD C:/GNU/MINGW64/x86_64-8.1.0-win32-seh-rt_v6-rev0/mingw64/bin/../lib/gcc/x86_64-w64-mingw32/8.1.0\libgcc.a
LOAD C:/GNU/MINGW64/x86_64-8.1.0-win32-seh-rt_v6-rev0/mingw64/bin/../lib/gcc/x86_64-w64-mingw32/8.1.0\libgcc_eh.a
LOAD C:/GNU/MINGW64/x86_64-8.1.0-win32-seh-rt_v6-rev0/mingw64/bin/../lib/gcc/x86_64-w64-mingw32/8.1.0/../../../../x86_64-w64-mingw32/lib/../lib\libmoldname.a
LOAD C:/GNU/MINGW64/x86_64-8.1.0-win32-seh-rt_v6-rev0/mingw64/bin/../lib/gcc/x86_64-w64-mingw32/8.1.0/../../../../x86_64-w64-mingw32/lib/../lib\libmingwex.a
LOAD C:/GNU/MINGW64/x86_64-8.1.0-win32-seh-rt_v6-rev0/mingw64/bin/../lib/gcc/x86_64-w64-mingw32/8.1.0/../../../../x86_64-w64-mingw32/lib/../lib\libmsvcrt.a
LOAD C:/GNU/MINGW64/x86_64-8.1.0-win32-seh-rt_v6-rev0/mingw64/bin/../lib/gcc/x86_64-w64-mingw32/8.1.0/../../../../x86_64-w64-mingw32/lib/../lib\libgdi32.a
LOAD C:/GNU/MINGW64/x86_64-8.1.0-win32-seh-rt_v6-rev0/mingw64/bin/../lib/gcc/x86_64-w64-mingw32/8.1.0/../../../../x86_64-w64-mingw32/lib/../lib\libcomdlg32.a
LOAD C:/GNU/MINGW64/x86_64-8.1.0-win32-seh-rt_v6-rev0/mingw64/bin/../lib/gcc/x86_64-w64-mingw32/8.1.0/../../../../x86_64-w64-mingw32/lib/../lib\libadvapi32.a
LOAD C:/GNU/MINGW64/x86_64-8.1.0-win32-seh-rt_v6-rev0/mingw64/bin/../lib/gcc/x86_64-w64-mingw32/8.1.0/../../../../x86_64-w64-mingw32/lib/../lib\libshell32.a
LOAD C:/GNU/MINGW64/x86_64-8.1.0-win32-seh-rt_v6-rev0/mingw64/bin/../lib/gcc/x86_64-w64-mingw32/8.1.0/../../../../x86_64-w64-mingw32/lib/../lib\libuser32.a
LOAD C:/GNU/MINGW64/x86_64-8.1.0-win32-seh-rt_v6-rev0/mingw64/bin/../lib/gcc/x86_64-w64-mingw32/8.1.0/../../../../x86_64-w64-mingw32/lib/../lib\libkernel32.a
LOAD C:/GNU/MINGW64/x86_64-8.1.0-win32-seh-rt_v6-rev0/mingw64/bin/../lib/gcc/x86_64-w64-mingw32/8.1.0/../../../../x86_64-w64-mingw32/lib/../lib\libiconv.a
LOAD C:/GNU/MINGW64/x86_64-8.1.0-win32-seh-rt_v6-rev0/mingw64/bin/../lib/gcc/x86_64-w64-mingw32/8.1.0/../../../../x86_64-w64-mingw32/lib/../lib\libmingw32.a
LOAD C:/GNU/MINGW64/x86_64-8.1.0-win32-seh-rt_v6-rev0/mingw64/bin/../lib/gcc/x86_64-w64-mingw32/8.1.0\libgcc.a
LOAD C:/GNU/MINGW64/x86_64-8.1.0-win32-seh-rt_v6-rev0/mingw64/bin/../lib/gcc/x86_64-w64-mingw32/8.1.0\libgcc_eh.a
LOAD C:/GNU/MINGW64/x86_64-8.1.0-win32-seh-rt_v6-rev0/mingw64/bin/../lib/gcc/x86_64-w64-mingw32/8.1.0/../../../../x86_64-w64-mingw32/lib/../lib\libmoldname.a
LOAD C:/GNU/MINGW64/x86_64-8.1.0-win32-seh-rt_v6-rev0/mingw64/bin/../lib/gcc/x86_64-w64-mingw32/8.1.0/../../../../x86_64-w64-mingw32/lib/../lib\libmingwex.a
LOAD C:/GNU/MINGW64/x86_64-8.1.0-win32-seh-rt_v6-rev0/mingw64/bin/../lib/gcc/x86_64-w64-mingw32/8.1.0/../../../../x86_64-w64-mingw32/lib/../lib\libmsvcrt.a
LOAD C:/GNU/MINGW64/x86_64-8.1.0-win32-seh-rt_v6-rev0/mingw64/bin/../lib/gcc/x86_64-w64-mingw32/8.1.0/crtend.o
                0x00000000000004a8                . = SIZEOF_HEADERS
                0x0000000000001000                . = ALIGN (__section_alignment__)

.text           0x0000000066101000    0x2c600
 *(.init)
 *(.text)
 .text          0x0000000066101000      0x390 C:/GNU/MINGW64/x86_64-8.1.0-win32-seh-rt_v6-rev0/mingw64/bin/../lib/gcc/x86_64-w64-mingw32/8.1.0/../../../../x86_64-w64-mingw32/lib/../lib/dllcrt2.o
                0x0000000066101010                _CRT_INIT
                0x0000000066101330                DllMainCRTStartup
                0x0000000066101380                atexit
 .text          0x0000000066101390       0x20 C:/GNU/MINGW64/x86_64-8.1.0-win32-seh-rt_v6-rev0/mingw64/bin/../lib/gcc/x86_64-w64-mingw32/8.1.0/crtbegin.o
                0x0000000066101390                __gcc_register_frame
                0x00000000661013a0                __gcc_deregister_frame
 .text          0x00000000661013b0       0xb0 ../build/x64_Release/cpuid.o
                0x00000000661013b0                Palmtree::Math::Core::Internal::GetCPUInfo(Palmtree::Math::Core::Internal::_tag_PROCESSOR_FEATURES*)
 .text          0x0000000066101460       0x50 ../build/x64_Release/dllmain.o
                0x0000000066101460                DllMain
 .text          0x00000000661014b0     0x1330 ../build/x64_Release/pmc_add.o
                0x0000000066102040                Palmtree::Math::Core::Internal::Initialize_Add(Palmtree::Math::Core::Internal::_tag_PROCESSOR_FEATURES*)
                0x0000000066102190                Palmtree::Math::Core::Internal::PMC_Add_I_X(unsigned int, Palmtree::Math::Core::Internal::__tag_PMC_HANDLE_UINT*)
                0x0000000066102250                Palmtree::Math::Core::Internal::PMC_Add_X_I(Palmtree::Math::Core::Internal::__tag_PMC_HANDLE_UINT*, unsigned int)
                0x0000000066102440                Palmtree::Math::Core::Internal::PMC_Add_L_X(unsigned long long, Palmtree::Math::Core::Internal::__tag_PMC_HANDLE_UINT*)
                0x0000000066102500                Palmtree::Math::Core::Internal::PMC_Add_X_L(Palmtree::Math::Core::Internal::__tag_PMC_HANDLE_UINT*, unsigned long long)
                0x00000000661025c0                Palmtree::Math::Core::Internal::PMC_Add_X_X_Imp(Palmtree::Math::Core::Internal::__tag_NUMBER_HEADER*, Palmtree::Math::Core::Internal::__tag_NUMBER_HEADER*)
                0x00000000661026d0                Palmtree::Math::Core::Internal::PMC_Add_X_X(Palmtree::Math::Core::Internal::__tag_PMC_HANDLE_UINT*, Palmtree::Math::Core::Internal::__tag_PMC_HANDLE_UINT*)
 .text          0x00000000661027e0      0x800 ../build/x64_Release/pmc_bitwiseand.o
                0x00000000661027e0                Palmtree::Math::Core::Internal::PMC_BitwiseAnd_I_X(unsigned int, Palmtree::Math::Core::Internal::__tag_PMC_HANDLE_UINT*)
                0x0000000066102870                Palmtree::Math::Core::Internal::PMC_BitwiseAnd_X_I(Palmtree::Math::Core::Internal::__tag_PMC_HANDLE_UINT*, unsigned int)
                0x0000000066102900                Palmtree::Math::Core::Internal::PMC_BitwiseAnd_L_X(unsigned long long, Palmtree::Math::Core::Internal::__tag_PMC_HANDLE_UINT*)
                0x0000000066102990                Palmtree::Math::Core::Internal::PMC_BitwiseAnd_X_L(Palmtree::Math::Core::Internal::__tag_PMC_HANDLE_UINT*, unsigned long long)
                0x0000000066102a20                Palmtree::Math::Core::Internal::Initialize_BitwiseAnd(Palmtree::Math::Core::Internal::_tag_PROCESSOR_FEATURES*)
                0x0000000066102a30                Palmtree::Math::Core::Internal::PMC_BitwiseAnd_X_X(Palmtree::Math::Core::Internal::__tag_PMC_HANDLE_UINT*, Palmtree::Math::Core::Internal::__tag_PMC_HANDLE_UINT*)
 .text          0x0000000066102fe0      0xb30 ../build/x64_Release/pmc_bitwiseor.o
                0x0000000066102fe0                Palmtree::Math::Core::Internal::Initialize_BitwiseOr(Palmtree::Math::Core::Internal::_tag_PROCESSOR_FEATURES*)
                0x0000000066103110                Palmtree::Math::Core::Internal::PMC_BitwiseOr_I_X(unsigned int, Palmtree::Math::Core::Internal::__tag_PMC_HANDLE_UINT*)
                0x00000000661031d0                Palmtree::Math::Core::Internal::PMC_BitwiseOr_X_I(Palmtree::Math::Core::Internal::__tag_PMC_HANDLE_UINT*, unsigned int)
                0x00000000661033b0                Palmtree::Math::Core::Internal::PMC_BitwiseOr_L_X(unsigned long long, Palmtree::Math::Core::Internal::__tag_PMC_HANDLE_UINT*)
                0x0000000066103470                Palmtree::Math::Core::Internal::PMC_BitwiseOr_X_L(Palmtree::Math::Core::Internal::__tag_PMC_HANDLE_UINT*, unsigned long long)
                0x0000000066103530                Palmtree::Math::Core::Internal::PMC_BitwiseOr_X_X(Palmtree::Math::Core::Internal::__tag_PMC_HANDLE_UINT*, Palmtree::Math::Core::Internal::__tag_PMC_HANDLE_UINT*)
 .text          0x0000000066103b10      0x890 ../build/x64_Release/pmc_bytes.o
                0x0000000066103b10                Palmtree::Math::Core::Internal::PMC_ToByteArrayForSINT(char, Palmtree::Math::Core::Internal::__tag_PMC_HANDLE_UINT*, unsigned char*, unsigned long long)
                0x0000000066103d00                Palmtree::Math::Core::Internal::PMC_ToByteArray(Palmtree::Math::Core::Internal::__tag_PMC_HANDLE_UINT*, unsigned char*, unsigned long long)
                0x0000000066103e10                Palmtree::Math::Core::Internal::PMC_FromByteArrayForSINT(unsigned char*, unsigned long long, char*)
                0x0000000066104100                Palmtree::Math::Core::Internal::PMC_FromByteArray(unsigned char const*, unsigned long long)
 .text          0x00000000661043a0      0x470 ../build/x64_Release/pmc_compare.o
                0x0000000066104460                Palmtree::Math::Core::Internal::Compare_Imp(unsigned long long*, unsigned long long*, unsigned long long)
                0x00000000661044d0                Palmtree::Math::Core::Internal::PMC_Compare_I_X(unsigned int, Palmtree::Math::Core::Internal::__tag_PMC_HANDLE_UINT*)
                0x0000000066104550                Palmtree::Math::Core::Internal::PMC_Compare_X_I(Palmtree::Math::Core::Internal::__tag_PMC_HANDLE_UINT*, unsigned int)
                0x00000000661045c0                Palmtree::Math::Core::Internal::PMC_Compare_L_X(unsigned long long, Palmtree::Math::Core::Internal::__tag_PMC_HANDLE_UINT*)
                0x0000000066104640                Palmtree::Math::Core::Internal::PMC_Compare_X_L(Palmtree::Math::Core::Internal::__tag_PMC_HANDLE_UINT*, unsigned long long)
                0x00000000661046b0                Palmtree::Math::Core::Internal::PMC_Compare_X_X(Palmtree::Math::Core::Internal::__tag_PMC_HANDLE_UINT*, Palmtree::Math::Core::Internal::__tag_PMC_HANDLE_UINT*)
                0x0000000066104800                Palmtree::Math::Core::Internal::Initialize_Compare(Palmtree::Math::Core::Internal::_tag_PROCESSOR_FEATURES*)
 .text          0x0000000066104810     0x4890 ../build/x64_Release/pmc_divrem.o
                0x0000000066107b10                Palmtree::Math::Core::Internal::Rem_X_1W(unsigned long long*, unsigned long long, unsigned long long)
                0x0000000066107e00                Palmtree::Math::Core::Internal::DivRem_X_1W(unsigned long long*, unsigned long long, unsigned long long, unsigned long long*, unsigned long long*)
                0x0000000066108250                Palmtree::Math::Core::Internal::DivRem_X_X(unsigned long long*, unsigned long long, unsigned long long*, unsigned long long, unsigned long long*, unsigned long long*, unsigned long long*)
                0x0000000066108340                Palmtree::Math::Core::Internal::PMC_DivRem_I_X(unsigned int, Palmtree::Math::Core::Internal::__tag_PMC_HANDLE_UINT*, unsigned int*)
                0x0000000066108480                Palmtree::Math::Core::Internal::PMC_DivRem_L_X(unsigned long long, Palmtree::Math::Core::Internal::__tag_PMC_HANDLE_UINT*, unsigned long long*)
                0x00000000661085d0                Palmtree::Math::Core::Internal::Initialize_DivRem(Palmtree::Math::Core::Internal::_tag_PROCESSOR_FEATURES*)
                0x00000000661087c0                Palmtree::Math::Core::Internal::PMC_DivRem_X_I(Palmtree::Math::Core::Internal::__tag_PMC_HANDLE_UINT*, unsigned int, Palmtree::Math::Core::Internal::__tag_PMC_HANDLE_UINT**)
                0x0000000066108a70                Palmtree::Math::Core::Internal::PMC_DivRem_X_L(Palmtree::Math::Core::Internal::__tag_PMC_HANDLE_UINT*, unsigned long long, Palmtree::Math::Core::Internal::__tag_PMC_HANDLE_UINT**)
                0x0000000066108f00                Palmtree::Math::Core::Internal::PMC_DivRem_X_X(Palmtree::Math::Core::Internal::__tag_PMC_HANDLE_UINT*, Palmtree::Math::Core::Internal::__tag_PMC_HANDLE_UINT*, Palmtree::Math::Core::Internal::__tag_PMC_HANDLE_UINT**)
 .text          0x00000000661090a0      0x400 ../build/x64_Release/pmc_equals.o
                0x00000000661090a0                Palmtree::Math::Core::Internal::PMC_Equals_I_X(unsigned int, Palmtree::Math::Core::Internal::__tag_PMC_HANDLE_UINT*)
                0x0000000066109160                Palmtree::Math::Core::Internal::PMC_Equals_X_I(Palmtree::Math::Core::Internal::__tag_PMC_HANDLE_UINT*, unsigned int)
                0x0000000066109210                Palmtree::Math::Core::Internal::PMC_Equals_L_X(unsigned long long, Palmtree::Math::Core::Internal::__tag_PMC_HANDLE_UINT*)
                0x00000000661092d0                Palmtree::Math::Core::Internal::PMC_Equals_X_L(Palmtree::Math::Core::Internal::__tag_PMC_HANDLE_UINT*, unsigned long long)
                0x0000000066109390                Palmtree::Math::Core::Internal::PMC_Equals_X_X(Palmtree::Math::Core::Internal::__tag_PMC_HANDLE_UINT*, Palmtree::Math::Core::Internal::__tag_PMC_HANDLE_UINT*)
                0x0000000066109490                Palmtree::Math::Core::Internal::Initialize_Equals(Palmtree::Math::Core::Internal::_tag_PROCESSOR_FEATURES*)
 .text          0x00000000661094a0      0xb70 ../build/x64_Release/pmc_exclusiveor.o
                0x00000000661094a0                Palmtree::Math::Core::Internal::Initialize_ExclusiveOr(Palmtree::Math::Core::Internal::_tag_PROCESSOR_FEATURES*)
                0x00000000661095e0                Palmtree::Math::Core::Internal::PMC_ExclusiveOr_I_X(unsigned int, Palmtree::Math::Core::Internal::__tag_PMC_HANDLE_UINT*)
                0x00000000661096a0                Palmtree::Math::Core::Internal::PMC_ExclusiveOr_X_I(Palmtree::Math::Core::Internal::__tag_PMC_HANDLE_UINT*, unsigned int)
                0x0000000066109890                Palmtree::Math::Core::Internal::PMC_ExclusiveOr_L_X(unsigned long long, Palmtree::Math::Core::Internal::__tag_PMC_HANDLE_UINT*)
                0x0000000066109950                Palmtree::Math::Core::Internal::PMC_ExclusiveOr_X_L(Palmtree::Math::Core::Internal::__tag_PMC_HANDLE_UINT*, unsigned long long)
                0x0000000066109a10                Palmtree::Math::Core::Internal::PMC_ExclusiveOr_X_X(Palmtree::Math::Core::Internal::__tag_PMC_HANDLE_UINT*, Palmtree::Math::Core::Internal::__tag_PMC_HANDLE_UINT*)
 .text          0x000000006610a010      0x1f0 ../build/x64_Release/pmc_from.o
                0x000000006610a010                Palmtree::Math::Core::Internal::Initialize_From(Palmtree::Math::Core::Internal::_tag_PROCESSOR_FEATURES*)
                0x000000006610a020                Palmtree::Math::Core::Internal::From_I_Imp(unsigned int)
                0x000000006610a0a0                Palmtree::Math::Core::Internal::From_L_Imp(unsigned long long)
                0x000000006610a120                Palmtree::Math::Core::Internal::PMC_From_I(unsigned int)
                0x000000006610a190                Palmtree::Math::Core::Internal::PMC_From_L(unsigned long long)
 .text          0x000000006610a200      0xd50 ../build/x64_Release/pmc_greatestcommondivisor.o
                0x000000006610a480                Palmtree::Math::Core::Internal::Initialize_GreatestCommonDivisor(Palmtree::Math::Core::Internal::_tag_PROCESSOR_FEATURES*)
                0x000000006610a6d0                Palmtree::Math::Core::Internal::PMC_GreatestCommonDivisor_I_X(unsigned int, Palmtree::Math::Core::Internal::__tag_PMC_HANDLE_UINT*)
                0x000000006610a790                Palmtree::Math::Core::Internal::PMC_GreatestCommonDivisor_X_I(Palmtree::Math::Core::Internal::__tag_PMC_HANDLE_UINT*, unsigned int)
                0x000000006610aa90                Palmtree::Math::Core::Internal::PMC_GreatestCommonDivisor_L_X(unsigned long long, Palmtree::Math::Core::Internal::__tag_PMC_HANDLE_UINT*)
                0x000000006610ab50                Palmtree::Math::Core::Internal::PMC_GreatestCommonDivisor_X_L(Palmtree::Math::Core::Internal::__tag_PMC_HANDLE_UINT*, unsigned long long)
                0x000000006610ac10                Palmtree::Math::Core::Internal::PMC_GreatestCommonDivisor_X_X(Palmtree::Math::Core::Internal::__tag_PMC_HANDLE_UINT*, Palmtree::Math::Core::Internal::__tag_PMC_HANDLE_UINT*)
 .text          0x000000006610af50      0x6d0 ../build/x64_Release/pmc_initialize.o
                0x000000006610af50                Palmtree::Math::Core::Internal::PMC_GetConfigurationSettings(wchar_t const*, wchar_t*, int, int*)
                0x000000006610b040                PMC_UINT_Initialize
 .text          0x000000006610b620     0x1810 ../build/x64_Release/pmc_interface_csharp.o
                0x000000006610b620                PMCCS_UINT_Initialize
                0x000000006610b640                PMCCS_GetConfigurationSettings
                0x000000006610b650                PMCCS_IS_EVEN
                0x000000006610b670                PMCCS_IS_ONE
                0x000000006610b690                PMCCS_IS_POWER_OF_TWO
                0x000000006610b6b0                PMCCS_IS_ZERO
                0x000000006610b6d0                PMCCS_GET_HASH_CODE
                0x000000006610b6f0                PMCCS_GetStatisticsInfo
                0x000000006610b700                PMCCS_From_I
                0x000000006610b750                PMCCS_From_L
                0x000000006610b7a0                PMCCS_Dispose
                0x000000006610b7f0                PMCCS_GetConstantValue_I
                0x000000006610b840                PMCCS_FromByteArray
                0x000000006610b890                PMCCS_ToByteArray
                0x000000006610b900                PMCCS_Clone_X
                0x000000006610b950                PMCCS_GetAllocatedMemorySize
                0x000000006610b9a0                PMCCS_To_X_I
                0x000000006610b9f0                PMCCS_To_X_L
                0x000000006610ba40                PMCCS_ToString
                0x000000006610bab0                PMCCS_Parse
                0x000000006610bb20                PMCCS_TryParse
                0x000000006610bb70                PMCCS_Add_I_X
                0x000000006610bbc0                PMCCS_Add_L_X
                0x000000006610bc10                PMCCS_Add_X_I
                0x000000006610bc60                PMCCS_Add_X_L
                0x000000006610bcb0                PMCCS_Add_X_X
                0x000000006610bd00                PMCCS_Subtruct_I_X
                0x000000006610bd50                PMCCS_Subtruct_L_X
                0x000000006610bda0                PMCCS_Subtruct_X_I
                0x000000006610bdf0                PMCCS_Subtruct_X_L
                0x000000006610be40                PMCCS_Subtruct_X_X
                0x000000006610be90                PMCCS_Multiply_I_X
                0x000000006610bee0                PMCCS_Multiply_L_X
                0x000000006610bf30                PMCCS_Multiply_X_I
                0x000000006610bf80                PMCCS_Multiply_X_L
                0x000000006610bfd0                PMCCS_Multiply_X_X
                0x000000006610c020                PMCCS_DivRem_I_X
                0x000000006610c070                PMCCS_DivRem_L_X
                0x000000006610c0c0                PMCCS_DivRem_X_I
                0x000000006610c110                PMCCS_DivRem_X_L
                0x000000006610c160                PMCCS_DivRem_X_X
                0x000000006610c1b0                PMCCS_Remainder_I_X
                0x000000006610c200                PMCCS_Remainder_L_X
                0x000000006610c250                PMCCS_Remainder_X_I
                0x000000006610c2a0                PMCCS_Remainder_X_L
                0x000000006610c2f0                PMCCS_Remainder_X_X
                0x000000006610c340                PMCCS_RightShift_X_I
                0x000000006610c390                PMCCS_LeftShift_X_I
                0x000000006610c3e0                PMCCS_BitwiseAnd_I_X
                0x000000006610c430                PMCCS_BitwiseAnd_L_X
                0x000000006610c480                PMCCS_BitwiseAnd_X_I
                0x000000006610c4d0                PMCCS_BitwiseAnd_X_L
                0x000000006610c520                PMCCS_BitwiseAnd_X_X
                0x000000006610c570                PMCCS_BitwiseOr_I_X
                0x000000006610c5c0                PMCCS_BitwiseOr_L_X
                0x000000006610c610                PMCCS_BitwiseOr_X_I
                0x000000006610c660                PMCCS_BitwiseOr_X_L
                0x000000006610c6b0                PMCCS_BitwiseOr_X_X
                0x000000006610c700                PMCCS_ExclusiveOr_I_X
                0x000000006610c750                PMCCS_ExclusiveOr_L_X
                0x000000006610c7a0                PMCCS_ExclusiveOr_X_I
                0x000000006610c7f0                PMCCS_ExclusiveOr_X_L
                0x000000006610c840                PMCCS_ExclusiveOr_X_X
                0x000000006610c890                PMCCS_Compare_I_X
                0x000000006610c8e0                PMCCS_Compare_L_X
                0x000000006610c930                PMCCS_Compare_X_I
                0x000000006610c980                PMCCS_Compare_X_L
                0x000000006610c9d0                PMCCS_Compare_X_X
                0x000000006610ca20                PMCCS_Equals_I_X
                0x000000006610ca70                PMCCS_Equals_L_X
                0x000000006610cac0                PMCCS_Equals_X_I
                0x000000006610cb10                PMCCS_Equals_X_L
                0x000000006610cb60                PMCCS_Equals_X_X
                0x000000006610cbb0                PMCCS_GreatestCommonDivisor_I_X
                0x000000006610cc00                PMCCS_GreatestCommonDivisor_L_X
                0x000000006610cc50                PMCCS_GreatestCommonDivisor_X_I
                0x000000006610cca0                PMCCS_GreatestCommonDivisor_X_L
                0x000000006610ccf0                PMCCS_GreatestCommonDivisor_X_X
                0x000000006610cd40                PMCCS_Pow_X_I
                0x000000006610cd90                PMCCS_Pow_X_L
                0x000000006610cde0                PMCCS_ModPow_X_X_X
 .text          0x000000006610ce30     0x2190 ../build/x64_Release/pmc_memory.o
                0x000000006610d0d0                Palmtree::Math::Core::Internal::ResourceHolderUINT::__GenericChainBufferTag::~__GenericChainBufferTag()
                0x000000006610d0d0                Palmtree::Math::Core::Internal::ResourceHolderUINT::__GenericChainBufferTag::~__GenericChainBufferTag()
                0x000000006610d0f0                Palmtree::Math::Core::Internal::ResourceHolderUINT::__GenericChainBufferTag::EqualsBufferAddress(void*)
                0x000000006610d100                Palmtree::Math::Core::Internal::ResourceHolderUINT::____UNIT_TYPE_Array_ChainBufferTag::~____UNIT_TYPE_Array_ChainBufferTag()
                0x000000006610d100                Palmtree::Math::Core::Internal::ResourceHolderUINT::____UNIT_TYPE_Array_ChainBufferTag::~____UNIT_TYPE_Array_ChainBufferTag()
                0x000000006610d120                Palmtree::Math::Core::Internal::ResourceHolderUINT::____UNIT_TYPE_Array_ChainBufferTag::EqualsBufferAddress(void*)
                0x000000006610d130                Palmtree::Math::Core::Internal::ResourceHolderUINT::____UNIT_TYPE_Array_ChainBufferTag::Clear()
                0x000000006610d140                Palmtree::Math::Core::Internal::ResourceHolderUINT::__StringChainBufferTag::~__StringChainBufferTag()
                0x000000006610d140                Palmtree::Math::Core::Internal::ResourceHolderUINT::__StringChainBufferTag::~__StringChainBufferTag()
                0x000000006610d160                Palmtree::Math::Core::Internal::ResourceHolderUINT::__StringChainBufferTag::EqualsBufferAddress(void*)
                0x000000006610d170                Palmtree::Math::Core::Internal::ResourceHolderUINT::__StringChainBufferTag::Clear()
                0x000000006610d180                Palmtree::Math::Core::Internal::ResourceHolderUINT::__DynamicNumberChainBufferTag::~__DynamicNumberChainBufferTag()
                0x000000006610d180                Palmtree::Math::Core::Internal::ResourceHolderUINT::__DynamicNumberChainBufferTag::~__DynamicNumberChainBufferTag()
                0x000000006610d1a0                Palmtree::Math::Core::Internal::ResourceHolderUINT::__DynamicNumberChainBufferTag::EqualsBufferAddress(void*)
                0x000000006610d1b0                Palmtree::Math::Core::Internal::ResourceHolderUINT::__NumberHandleHookingChainBufferTag::~__NumberHandleHookingChainBufferTag()
                0x000000006610d1b0                Palmtree::Math::Core::Internal::ResourceHolderUINT::__NumberHandleHookingChainBufferTag::~__NumberHandleHookingChainBufferTag()
                0x000000006610d1d0                Palmtree::Math::Core::Internal::ResourceHolderUINT::__NumberHandleHookingChainBufferTag::EqualsBufferAddress(void*)
                0x000000006610d1e0                Palmtree::Math::Core::Internal::ResourceHolderUINT::__StaticNumberChainBufferTag::Check()
                0x000000006610d1e0                Palmtree::Math::Core::Internal::ResourceHolderUINT::__NumberHandleHookingChainBufferTag::Check()
                0x000000006610d1f0                Palmtree::Math::Core::Internal::ResourceHolderUINT::__StaticNumberChainBufferTag::~__StaticNumberChainBufferTag()
                0x000000006610d1f0                Palmtree::Math::Core::Internal::ResourceHolderUINT::__StaticNumberChainBufferTag::~__StaticNumberChainBufferTag()
                0x000000006610d210                Palmtree::Math::Core::Internal::ResourceHolderUINT::__StaticNumberChainBufferTag::EqualsBufferAddress(void*)
                0x000000006610d220                Palmtree::Math::Core::Internal::ResourceHolderUINT::__GenericChainBufferTag::~__GenericChainBufferTag()
                0x000000006610d250                Palmtree::Math::Core::Internal::ResourceHolderUINT::____UNIT_TYPE_Array_ChainBufferTag::~____UNIT_TYPE_Array_ChainBufferTag()
                0x000000006610d280                Palmtree::Math::Core::Internal::ResourceHolderUINT::__StringChainBufferTag::~__StringChainBufferTag()
                0x000000006610d2b0                Palmtree::Math::Core::Internal::ResourceHolderUINT::__DynamicNumberChainBufferTag::~__DynamicNumberChainBufferTag()
                0x000000006610d2e0                Palmtree::Math::Core::Internal::ResourceHolderUINT::__NumberHandleHookingChainBufferTag::~__NumberHandleHookingChainBufferTag()
                0x000000006610d310                Palmtree::Math::Core::Internal::ResourceHolderUINT::__StaticNumberChainBufferTag::~__StaticNumberChainBufferTag()
                0x000000006610d340                Palmtree::Math::Core::Internal::ResourceHolderUINT::__GenericChainBufferTag::Destruct()
                0x000000006610d390                Palmtree::Math::Core::Internal::ResourceHolderUINT::__StaticNumberChainBufferTag::Destruct()
                0x000000006610d3d0                Palmtree::Math::Core::Internal::ResourceHolderUINT::____UNIT_TYPE_Array_ChainBufferTag::Destruct()
                0x000000006610d3f0                Palmtree::Math::Core::Internal::ResourceHolderUINT::__StringChainBufferTag::Destruct()
                0x000000006610d480                Palmtree::Math::Core::Internal::ResourceHolderUINT::__DynamicNumberChainBufferTag::Destruct()
                0x000000006610d4a0                Palmtree::Math::Core::Internal::ResourceHolderUINT::__NumberHandleHookingChainBufferTag::Destruct()
                0x000000006610d6e0                Palmtree::Math::Core::Internal::ResourceHolderUINT::____UNIT_TYPE_Array_ChainBufferTag::Check()
                0x000000006610d700                Palmtree::Math::Core::Internal::ResourceHolderUINT::__StringChainBufferTag::Check()
                0x000000006610d720                Palmtree::Math::Core::Internal::ResourceHolderUINT::~ResourceHolderUINT()
                0x000000006610d720                Palmtree::Math::Core::Internal::ResourceHolderUINT::~ResourceHolderUINT()
                0x000000006610d7c0                Palmtree::Math::Core::Internal::ResourceHolderUINT::~ResourceHolderUINT()
                0x000000006610d870                Palmtree::Math::Core::Internal::CommitNumber(Palmtree::Math::Core::Internal::__tag_NUMBER_HEADER*)
                0x000000006610da20                Palmtree::Math::Core::Internal::CheckNumber(Palmtree::Math::Core::Internal::__tag_NUMBER_HEADER*)
                0x000000006610dab0                Palmtree::Math::Core::Internal::ResourceHolderUINT::__DynamicNumberChainBufferTag::Check()
                0x000000006610dac0                Palmtree::Math::Core::Internal::PMC_GetConstantValue_I(int)
                0x000000006610db40                Palmtree::Math::Core::Internal::PMC_Dispose(Palmtree::Math::Core::Internal::__tag_PMC_HANDLE_UINT*)
                0x000000006610db70                Palmtree::Math::Core::Internal::Lock::Lock()
                0x000000006610db70                Palmtree::Math::Core::Internal::Lock::Lock()
                0x000000006610db80                Palmtree::Math::Core::Internal::Lock::~Lock()
                0x000000006610db80                Palmtree::Math::Core::Internal::Lock::~Lock()
                0x000000006610db90                Palmtree::Math::Core::Internal::ResourceHolderUINT::__GenericChainBufferTag::__GenericChainBufferTag(void*)
                0x000000006610db90                Palmtree::Math::Core::Internal::ResourceHolderUINT::__GenericChainBufferTag::__GenericChainBufferTag(void*)
                0x000000006610dbb0                Palmtree::Math::Core::Internal::ResourceHolderUINT::____UNIT_TYPE_Array_ChainBufferTag::____UNIT_TYPE_Array_ChainBufferTag(unsigned long long*, unsigned long long, unsigned long long)
                0x000000006610dbb0                Palmtree::Math::Core::Internal::ResourceHolderUINT::____UNIT_TYPE_Array_ChainBufferTag::____UNIT_TYPE_Array_ChainBufferTag(unsigned long long*, unsigned long long, unsigned long long)
                0x000000006610dbd0                Palmtree::Math::Core::Internal::ResourceHolderUINT::__StringChainBufferTag::__StringChainBufferTag(unsigned long long*, unsigned long long, unsigned long long)
                0x000000006610dbd0                Palmtree::Math::Core::Internal::ResourceHolderUINT::__StringChainBufferTag::__StringChainBufferTag(unsigned long long*, unsigned long long, unsigned long long)
                0x000000006610dbf0                Palmtree::Math::Core::Internal::ResourceHolderUINT::__DynamicNumberChainBufferTag::__DynamicNumberChainBufferTag(Palmtree::Math::Core::Internal::__tag_NUMBER_HEADER*)
                0x000000006610dbf0                Palmtree::Math::Core::Internal::ResourceHolderUINT::__DynamicNumberChainBufferTag::__DynamicNumberChainBufferTag(Palmtree::Math::Core::Internal::__tag_NUMBER_HEADER*)
                0x000000006610dc10                Palmtree::Math::Core::Internal::ResourceHolderUINT::__NumberHandleHookingChainBufferTag::__NumberHandleHookingChainBufferTag(Palmtree::Math::Core::Internal::__tag_NUMBER_HEADER*)
                0x000000006610dc10                Palmtree::Math::Core::Internal::ResourceHolderUINT::__NumberHandleHookingChainBufferTag::__NumberHandleHookingChainBufferTag(Palmtree::Math::Core::Internal::__tag_NUMBER_HEADER*)
                0x000000006610dc30                Palmtree::Math::Core::Internal::ResourceHolderUINT::__StaticNumberChainBufferTag::__StaticNumberChainBufferTag(Palmtree::Math::Core::Internal::__tag_NUMBER_HEADER*)
                0x000000006610dc30                Palmtree::Math::Core::Internal::ResourceHolderUINT::__StaticNumberChainBufferTag::__StaticNumberChainBufferTag(Palmtree::Math::Core::Internal::__tag_NUMBER_HEADER*)
                0x000000006610dc50                Palmtree::Math::Core::Internal::ResourceHolderUINT::ResourceHolderUINT()
                0x000000006610dc50                Palmtree::Math::Core::Internal::ResourceHolderUINT::ResourceHolderUINT()
                0x000000006610dc80                Palmtree::Math::Core::Internal::ResourceHolderUINT::AllocateBytes(unsigned long long)
                0x000000006610dd60                Palmtree::Math::Core::Internal::ResourceHolderUINT::DeallocateBytes(void*)
                0x000000006610de10                Palmtree::Math::Core::Internal::ResourceHolderUINT::UnlinkBytes(void*)
                0x000000006610e010                Palmtree::Math::Core::Internal::DuplicateNumber(Palmtree::Math::Core::Internal::__tag_NUMBER_HEADER*)
                0x000000006610e080                Palmtree::Math::Core::Internal::ResourceHolderUINT::AllocateBlock(unsigned long long)
                0x000000006610e130                Palmtree::Math::Core::Internal::ResourceHolderUINT::ClearBlock(unsigned long long*)
                0x000000006610e200                Palmtree::Math::Core::Internal::ResourceHolderUINT::DeallocateBlock(unsigned long long*)
                0x000000006610e2b0                Palmtree::Math::Core::Internal::ResourceHolderUINT::CheckBlock(unsigned long long*)
                0x000000006610e2c0                Palmtree::Math::Core::Internal::ResourceHolderUINT::UnlinkBlock(unsigned long long*)
                0x000000006610e3a0                Palmtree::Math::Core::Internal::ResourceHolderUINT::AllocateString(unsigned long long)
                0x000000006610e450                Palmtree::Math::Core::Internal::ResourceHolderUINT::ClearString(wchar_t*)
                0x000000006610e520                Palmtree::Math::Core::Internal::ResourceHolderUINT::DeallocateString(wchar_t*)
                0x000000006610e5d0                Palmtree::Math::Core::Internal::ResourceHolderUINT::CheckString(wchar_t*)
                0x000000006610e5e0                Palmtree::Math::Core::Internal::ResourceHolderUINT::UnlinkString(wchar_t*)
                0x000000006610e6c0                Palmtree::Math::Core::Internal::ResourceHolderUINT::AllocateNumber(unsigned long long)
                0x000000006610e750                Palmtree::Math::Core::Internal::ResourceHolderUINT::HookNumber(Palmtree::Math::Core::Internal::__tag_NUMBER_HEADER*)
                0x000000006610e7d0                Palmtree::Math::Core::Internal::ResourceHolderUINT::DeallocateNumber(Palmtree::Math::Core::Internal::__tag_NUMBER_HEADER*)
                0x000000006610e880                Palmtree::Math::Core::Internal::ResourceHolderUINT::CheckNumber(Palmtree::Math::Core::Internal::__tag_NUMBER_HEADER*)
                0x000000006610e890                Palmtree::Math::Core::Internal::ResourceHolderUINT::UnlinkNumber(Palmtree::Math::Core::Internal::__tag_NUMBER_HEADER*)
                0x000000006610e970                Palmtree::Math::Core::Internal::PMC_Clone_X(Palmtree::Math::Core::Internal::__tag_PMC_HANDLE_UINT*)
                0x000000006610eb20                Palmtree::Math::Core::Internal::ResourceHolderUINT::AttatchStaticNumber(Palmtree::Math::Core::Internal::__tag_NUMBER_HEADER*, unsigned long long)
                0x000000006610ebb0                Palmtree::Math::Core::Internal::ResourceHolderUINT::DetatchStaticNumber(Palmtree::Math::Core::Internal::__tag_NUMBER_HEADER*)
                0x000000006610ebc0                Palmtree::Math::Core::Internal::ResourceHolderUINT::UnlinkStatickNumber(Palmtree::Math::Core::Internal::__tag_NUMBER_HEADER*)
                0x000000006610eca0                Palmtree::Math::Core::Internal::PMC_GetAllocatedMemorySize()
                0x000000006610ede0                Palmtree::Math::Core::Internal::Initialize_Memory(Palmtree::Math::Core::Internal::_tag_PROCESSOR_FEATURES*)
                0x000000006610ef60                Palmtree::Math::Core::Internal::AllocateHeapArea()
                0x000000006610ef90                Palmtree::Math::Core::Internal::DeallocateHeapArea()
 .text          0x000000006610efc0      0x850 ../build/x64_Release/pmc_modpow.o
                0x000000006610efc0                Palmtree::Math::Core::Internal::exception_filter(unsigned long)
                0x000000006610efd0                Palmtree::Math::Core::Internal::Initialize_ModPow(Palmtree::Math::Core::Internal::_tag_PROCESSOR_FEATURES*)
                0x000000006610efe0                Palmtree::Math::Core::Internal::PMC_ModPow_X_X_X(Palmtree::Math::Core::Internal::__tag_PMC_HANDLE_UINT*, Palmtree::Math::Core::Internal::__tag_PMC_HANDLE_UINT*, Palmtree::Math::Core::Internal::__tag_PMC_HANDLE_UINT*)
 .text          0x000000006610f810     0x1ee0 ../build/x64_Release/pmc_multiply.o
                0x0000000066110fa0                Palmtree::Math::Core::Internal::Multiply_X_X_Imp(unsigned long long*, unsigned long long, unsigned long long*, unsigned long long, unsigned long long*)
                0x0000000066110fb0                Palmtree::Math::Core::Internal::Initialize_Multiply(Palmtree::Math::Core::Internal::_tag_PROCESSOR_FEATURES*)
                0x0000000066111000                Palmtree::Math::Core::Internal::PMC_Multiply_X_I_Imp(Palmtree::Math::Core::Internal::__tag_NUMBER_HEADER*, unsigned int)
                0x0000000066111110                Palmtree::Math::Core::Internal::PMC_Multiply_I_X(unsigned int, Palmtree::Math::Core::Internal::__tag_PMC_HANDLE_UINT*)
                0x00000000661111d0                Palmtree::Math::Core::Internal::PMC_Multiply_X_I(Palmtree::Math::Core::Internal::__tag_PMC_HANDLE_UINT*, unsigned int)
                0x00000000661113b0                Palmtree::Math::Core::Internal::PMC_Multiply_L_X(unsigned long long, Palmtree::Math::Core::Internal::__tag_PMC_HANDLE_UINT*)
                0x0000000066111470                Palmtree::Math::Core::Internal::PMC_Multiply_X_L(Palmtree::Math::Core::Internal::__tag_PMC_HANDLE_UINT*, unsigned long long)
                0x0000000066111530                Palmtree::Math::Core::Internal::PMC_Multiply_X_X(Palmtree::Math::Core::Internal::__tag_PMC_HANDLE_UINT*, Palmtree::Math::Core::Internal::__tag_PMC_HANDLE_UINT*)
 .text          0x00000000661116f0     0x2d70 ../build/x64_Release/pmc_parse.o
                0x0000000066112fa0                Palmtree::Math::Core::Internal::Initialize_Parse(Palmtree::Math::Core::Internal::_tag_PROCESSOR_FEATURES*)
                0x00000000661141f0                Palmtree::Math::Core::Internal::PMC_TryParseForSINT(wchar_t const*, int, Palmtree::Math::Core::Internal::__tag_PMC_NUMBER_FORMAT_INFO const*, char*, Palmtree::Math::Core::Internal::__tag_PMC_HANDLE_UINT**, unsigned int*)
                0x0000000066114300                Palmtree::Math::Core::Internal::PMC_TryParse(wchar_t const*, int, Palmtree::Math::Core::Internal::__tag_PMC_NUMBER_FORMAT_INFO const*, Palmtree::Math::Core::Internal::__tag_PMC_HANDLE_UINT**, unsigned int*)
 .text          0x0000000066114460      0x730 ../build/x64_Release/pmc_pow.o
                0x0000000066114460                Palmtree::Math::Core::Internal::Initialize_Pow(Palmtree::Math::Core::Internal::_tag_PROCESSOR_FEATURES*)
                0x0000000066114470                Palmtree::Math::Core::Internal::PMC_Pow_X_I_Imp(Palmtree::Math::Core::Internal::__tag_NUMBER_HEADER*, unsigned int)
                0x0000000066114740                Palmtree::Math::Core::Internal::PMC_Pow_X_L_Imp(Palmtree::Math::Core::Internal::__tag_NUMBER_HEADER*, unsigned long long)
                0x0000000066114a10                Palmtree::Math::Core::Internal::PMC_Pow_X_I(Palmtree::Math::Core::Internal::__tag_PMC_HANDLE_UINT*, unsigned int)
                0x0000000066114ad0                Palmtree::Math::Core::Internal::PMC_Pow_X_L(Palmtree::Math::Core::Internal::__tag_PMC_HANDLE_UINT*, unsigned long long)
 .text          0x0000000066114b90     0x13e0 ../build/x64_Release/pmc_shift.o
                0x0000000066114b90                Palmtree::Math::Core::Internal::RightShift_Imp(unsigned long long*, unsigned long long, unsigned long long, unsigned long long*, int)
                0x00000000661153c0                Palmtree::Math::Core::Internal::LeftShift_Imp(unsigned long long*, unsigned long long, unsigned long long, unsigned long long*, int)
                0x0000000066115bc0                Palmtree::Math::Core::Internal::Initialize_Shift(Palmtree::Math::Core::Internal::_tag_PROCESSOR_FEATURES*)
                0x0000000066115db0                Palmtree::Math::Core::Internal::PMC_RightShift_X_I(Palmtree::Math::Core::Internal::__tag_PMC_HANDLE_UINT*, int)
                0x0000000066115e90                Palmtree::Math::Core::Internal::PMC_LeftShift_X_I(Palmtree::Math::Core::Internal::__tag_PMC_HANDLE_UINT*, int)
 .text          0x0000000066115f70       0x30 ../build/x64_Release/pmc_statistics.o
                0x0000000066115f70                Palmtree::Math::Core::Internal::PMC_GetStatisticsInfo(Palmtree::Math::Core::Internal::__tag_PMC_STATISTICS_INFO*)
 .text          0x0000000066115fa0      0xe20 ../build/x64_Release/pmc_subtruct.o
                0x0000000066116050                Palmtree::Math::Core::Internal::Subtruct_Imp(unsigned long long*, unsigned long long, unsigned long long*, unsigned long long, unsigned long long*, unsigned long long)
                0x0000000066116510                Palmtree::Math::Core::Internal::PMC_Subtruct_I_X(unsigned int, Palmtree::Math::Core::Internal::__tag_PMC_HANDLE_UINT*)
                0x0000000066116610                Palmtree::Math::Core::Internal::PMC_Subtruct_L_X(unsigned long long, Palmtree::Math::Core::Internal::__tag_PMC_HANDLE_UINT*)
                0x0000000066116710                Palmtree::Math::Core::Internal::Initialize_Subtruct(Palmtree::Math::Core::Internal::_tag_PROCESSOR_FEATURES*)
                0x0000000066116720                Palmtree::Math::Core::Internal::PMC_Subtruct_X_I(Palmtree::Math::Core::Internal::__tag_PMC_HANDLE_UINT*, unsigned int)
                0x0000000066116940                Palmtree::Math::Core::Internal::PMC_Subtruct_X_L(Palmtree::Math::Core::Internal::__tag_PMC_HANDLE_UINT*, unsigned long long)
                0x0000000066116b60                Palmtree::Math::Core::Internal::PMC_Subtruct_X_X(Palmtree::Math::Core::Internal::__tag_PMC_HANDLE_UINT*, Palmtree::Math::Core::Internal::__tag_PMC_HANDLE_UINT*)
 .text          0x0000000066116dc0      0x100 ../build/x64_Release/pmc_to.o
                0x0000000066116dc0                Palmtree::Math::Core::Internal::PMC_To_X_I(Palmtree::Math::Core::Internal::__tag_PMC_HANDLE_UINT*)
                0x0000000066116e30                Palmtree::Math::Core::Internal::PMC_To_X_L(Palmtree::Math::Core::Internal::__tag_PMC_HANDLE_UINT*)
                0x0000000066116eb0                Palmtree::Math::Core::Internal::Initialize_To(Palmtree::Math::Core::Internal::_tag_PROCESSOR_FEATURES*)
 .text          0x0000000066116ec0     0x2f30 ../build/x64_Release/pmc_tostring.o
                0x00000000661177c0                Palmtree::Math::Core::Internal::InitializeNumberFormatoInfo(Palmtree::Math::Core::Internal::__tag_PMC_NUMBER_FORMAT_INFO*)
                0x00000000661178f0                Palmtree::Math::Core::Internal::PMC_InitializeNumberFormatInfo(Palmtree::Math::Core::Internal::__tag_PMC_NUMBER_FORMAT_INFO*)
                0x0000000066117900                Palmtree::Math::Core::Internal::Initialize_ToString(Palmtree::Math::Core::Internal::_tag_PROCESSOR_FEATURES*)
                0x0000000066118620                Palmtree::Math::Core::Internal::PMC_ToString(Palmtree::Math::Core::Internal::__tag_PMC_HANDLE_UINT*, wchar_t const*, Palmtree::Math::Core::Internal::__tag_PMC_NUMBER_FORMAT_INFO const*, wchar_t*, unsigned long long)
 .text          0x0000000066119df0        0x8 C:/GNU/MINGW64/x86_64-8.1.0-win32-seh-rt_v6-rev0/mingw64/bin/../lib/gcc/x86_64-w64-mingw32/8.1.0/../../../../x86_64-w64-mingw32/lib/../lib\libkernel32.a(dqifs01555.o)
                0x0000000066119df0                lstrlenW
 .text          0x0000000066119df8        0x8 C:/GNU/MINGW64/x86_64-8.1.0-win32-seh-rt_v6-rev0/mingw64/bin/../lib/gcc/x86_64-w64-mingw32/8.1.0/../../../../x86_64-w64-mingw32/lib/../lib\libkernel32.a(dqifs01549.o)
                0x0000000066119df8                lstrcpyW
 .text          0x0000000066119e00        0x8 C:/GNU/MINGW64/x86_64-8.1.0-win32-seh-rt_v6-rev0/mingw64/bin/../lib/gcc/x86_64-w64-mingw32/8.1.0/../../../../x86_64-w64-mingw32/lib/../lib\libkernel32.a(dqifs01543.o)
                0x0000000066119e00                lstrcmpW
 .text          0x0000000066119e08        0x8 C:/GNU/MINGW64/x86_64-8.1.0-win32-seh-rt_v6-rev0/mingw64/bin/../lib/gcc/x86_64-w64-mingw32/8.1.0/../../../../x86_64-w64-mingw32/lib/../lib\libkernel32.a(dqifs01360.o)
                0x0000000066119e08                Sleep
 .text          0x0000000066119e10        0x8 C:/GNU/MINGW64/x86_64-8.1.0-win32-seh-rt_v6-rev0/mingw64/bin/../lib/gcc/x86_64-w64-mingw32/8.1.0/../../../../x86_64-w64-mingw32/lib/../lib\libkernel32.a(dqifs00951.o)
                0x0000000066119e10                LeaveCriticalSection
 .text          0x0000000066119e18        0x8 C:/GNU/MINGW64/x86_64-8.1.0-win32-seh-rt_v6-rev0/mingw64/bin/../lib/gcc/x86_64-w64-mingw32/8.1.0/../../../../x86_64-w64-mingw32/lib/../lib\libkernel32.a(dqifs00863.o)
                0x0000000066119e18                InitializeCriticalSection
 .text          0x0000000066119e20        0x8 C:/GNU/MINGW64/x86_64-8.1.0-win32-seh-rt_v6-rev0/mingw64/bin/../lib/gcc/x86_64-w64-mingw32/8.1.0/../../../../x86_64-w64-mingw32/lib/../lib\libkernel32.a(dqifs00852.o)
                0x0000000066119e20                HeapWalk
 .text          0x0000000066119e28        0x8 C:/GNU/MINGW64/x86_64-8.1.0-win32-seh-rt_v6-rev0/mingw64/bin/../lib/gcc/x86_64-w64-mingw32/8.1.0/../../../../x86_64-w64-mingw32/lib/../lib\libkernel32.a(dqifs00849.o)
                0x0000000066119e28                HeapUnlock
 .text          0x0000000066119e30        0x8 C:/GNU/MINGW64/x86_64-8.1.0-win32-seh-rt_v6-rev0/mingw64/bin/../lib/gcc/x86_64-w64-mingw32/8.1.0/../../../../x86_64-w64-mingw32/lib/../lib\libkernel32.a(dqifs00842.o)
                0x0000000066119e30                HeapLock
 .text          0x0000000066119e38        0x8 C:/GNU/MINGW64/x86_64-8.1.0-win32-seh-rt_v6-rev0/mingw64/bin/../lib/gcc/x86_64-w64-mingw32/8.1.0/../../../../x86_64-w64-mingw32/lib/../lib\libkernel32.a(dqifs00841.o)
                0x0000000066119e38                HeapFree
 .text          0x0000000066119e40        0x8 C:/GNU/MINGW64/x86_64-8.1.0-win32-seh-rt_v6-rev0/mingw64/bin/../lib/gcc/x86_64-w64-mingw32/8.1.0/../../../../x86_64-w64-mingw32/lib/../lib\libkernel32.a(dqifs00839.o)
                0x0000000066119e40                HeapDestroy
 .text          0x0000000066119e48        0x8 C:/GNU/MINGW64/x86_64-8.1.0-win32-seh-rt_v6-rev0/mingw64/bin/../lib/gcc/x86_64-w64-mingw32/8.1.0/../../../../x86_64-w64-mingw32/lib/../lib\libkernel32.a(dqifs00837.o)
                0x0000000066119e48                HeapCreate
 .text          0x0000000066119e50        0x8 C:/GNU/MINGW64/x86_64-8.1.0-win32-seh-rt_v6-rev0/mingw64/bin/../lib/gcc/x86_64-w64-mingw32/8.1.0/../../../../x86_64-w64-mingw32/lib/../lib\libkernel32.a(dqifs00835.o)
                0x0000000066119e50                HeapAlloc
 .text          0x0000000066119e58        0x8 C:/GNU/MINGW64/x86_64-8.1.0-win32-seh-rt_v6-rev0/mingw64/bin/../lib/gcc/x86_64-w64-mingw32/8.1.0/../../../../x86_64-w64-mingw32/lib/../lib\libkernel32.a(dqifs00609.o)
                0x0000000066119e58                GetLastError
 .text          0x0000000066119e60        0x8 C:/GNU/MINGW64/x86_64-8.1.0-win32-seh-rt_v6-rev0/mingw64/bin/../lib/gcc/x86_64-w64-mingw32/8.1.0/../../../../x86_64-w64-mingw32/lib/../lib\libkernel32.a(dqifs00304.o)
                0x0000000066119e60                EnterCriticalSection
 *fill*         0x0000000066119e68        0x8 
 .text          0x0000000066119e70        0x0 C:/GNU/MINGW64/x86_64-8.1.0-win32-seh-rt_v6-rev0/mingw64/bin/../lib/gcc/x86_64-w64-mingw32/8.1.0/../../../../x86_64-w64-mingw32/lib/../lib\libkernel32.a(dqifh.o)
 .text          0x0000000066119e70        0x0 C:/GNU/MINGW64/x86_64-8.1.0-win32-seh-rt_v6-rev0/mingw64/bin/../lib/gcc/x86_64-w64-mingw32/8.1.0/../../../../x86_64-w64-mingw32/lib/../lib\libkernel32.a(dqift.o)
 .text          0x0000000066119e70        0x8 C:/GNU/MINGW64/x86_64-8.1.0-win32-seh-rt_v6-rev0/mingw64/bin/../lib/gcc/x86_64-w64-mingw32/8.1.0/../../../../x86_64-w64-mingw32/lib/../lib\libuser32.a(dyqes00958.o)
                0x0000000066119e70                wsprintfW
 *fill*         0x0000000066119e78        0x8 
 .text          0x0000000066119e80        0x0 C:/GNU/MINGW64/x86_64-8.1.0-win32-seh-rt_v6-rev0/mingw64/bin/../lib/gcc/x86_64-w64-mingw32/8.1.0/../../../../x86_64-w64-mingw32/lib/../lib\libuser32.a(dyqeh.o)
 .text          0x0000000066119e80        0x0 C:/GNU/MINGW64/x86_64-8.1.0-win32-seh-rt_v6-rev0/mingw64/bin/../lib/gcc/x86_64-w64-mingw32/8.1.0/../../../../x86_64-w64-mingw32/lib/../lib\libuser32.a(dyqet.o)
 .text          0x0000000066119e80        0x0 C:/GNU/MINGW64/x86_64-8.1.0-win32-seh-rt_v6-rev0/mingw64/bin/../lib/gcc/x86_64-w64-mingw32/8.1.0\libstdc++.a(class_type_info.o)
 .text          0x0000000066119e80        0x0 C:/GNU/MINGW64/x86_64-8.1.0-win32-seh-rt_v6-rev0/mingw64/bin/../lib/gcc/x86_64-w64-mingw32/8.1.0\libstdc++.a(del_ops.o)
 .text          0x0000000066119e80        0x0 C:/GNU/MINGW64/x86_64-8.1.0-win32-seh-rt_v6-rev0/mingw64/bin/../lib/gcc/x86_64-w64-mingw32/8.1.0\libstdc++.a(eh_alloc.o)
 .text          0x0000000066119e80        0x0 C:/GNU/MINGW64/x86_64-8.1.0-win32-seh-rt_v6-rev0/mingw64/bin/../lib/gcc/x86_64-w64-mingw32/8.1.0\libstdc++.a(eh_catch.o)
 .text          0x0000000066119e80        0x0 C:/GNU/MINGW64/x86_64-8.1.0-win32-seh-rt_v6-rev0/mingw64/bin/../lib/gcc/x86_64-w64-mingw32/8.1.0\libstdc++.a(eh_exception.o)
 .text          0x0000000066119e80        0x0 C:/GNU/MINGW64/x86_64-8.1.0-win32-seh-rt_v6-rev0/mingw64/bin/../lib/gcc/x86_64-w64-mingw32/8.1.0\libstdc++.a(eh_globals.o)
 .text          0x0000000066119e80        0x0 C:/GNU/MINGW64/x86_64-8.1.0-win32-seh-rt_v6-rev0/mingw64/bin/../lib/gcc/x86_64-w64-mingw32/8.1.0\libstdc++.a(eh_personality.o)
 .text          0x0000000066119e80        0x0 C:/GNU/MINGW64/x86_64-8.1.0-win32-seh-rt_v6-rev0/mingw64/bin/../lib/gcc/x86_64-w64-mingw32/8.1.0\libstdc++.a(eh_terminate.o)
 .text          0x0000000066119e80        0x0 C:/GNU/MINGW64/x86_64-8.1.0-win32-seh-rt_v6-rev0/mingw64/bin/../lib/gcc/x86_64-w64-mingw32/8.1.0\libstdc++.a(eh_term_handler.o)
 .text          0x0000000066119e80        0x0 C:/GNU/MINGW64/x86_64-8.1.0-win32-seh-rt_v6-rev0/mingw64/bin/../lib/gcc/x86_64-w64-mingw32/8.1.0\libstdc++.a(eh_throw.o)
 .text          0x0000000066119e80        0x0 C:/GNU/MINGW64/x86_64-8.1.0-win32-seh-rt_v6-rev0/mingw64/bin/../lib/gcc/x86_64-w64-mingw32/8.1.0\libstdc++.a(eh_unex_handler.o)
 .text          0x0000000066119e80        0x0 C:/GNU/MINGW64/x86_64-8.1.0-win32-seh-rt_v6-rev0/mingw64/bin/../lib/gcc/x86_64-w64-mingw32/8.1.0\libstdc++.a(new_op.o)
 .text          0x0000000066119e80        0x0 C:/GNU/MINGW64/x86_64-8.1.0-win32-seh-rt_v6-rev0/mingw64/bin/../lib/gcc/x86_64-w64-mingw32/8.1.0\libstdc++.a(pure.o)
 .text          0x0000000066119e80        0x0 C:/GNU/MINGW64/x86_64-8.1.0-win32-seh-rt_v6-rev0/mingw64/bin/../lib/gcc/x86_64-w64-mingw32/8.1.0\libstdc++.a(si_class_type_info.o)
 .text          0x0000000066119e80        0x0 C:/GNU/MINGW64/x86_64-8.1.0-win32-seh-rt_v6-rev0/mingw64/bin/../lib/gcc/x86_64-w64-mingw32/8.1.0\libstdc++.a(tinfo.o)
 .text          0x0000000066119e80        0x0 C:/GNU/MINGW64/x86_64-8.1.0-win32-seh-rt_v6-rev0/mingw64/bin/../lib/gcc/x86_64-w64-mingw32/8.1.0\libstdc++.a(vmi_class_type_info.o)
 .text          0x0000000066119e80        0x0 C:/GNU/MINGW64/x86_64-8.1.0-win32-seh-rt_v6-rev0/mingw64/bin/../lib/gcc/x86_64-w64-mingw32/8.1.0\libstdc++.a(vterminate.o)
 .text          0x0000000066119e80        0x0 C:/GNU/MINGW64/x86_64-8.1.0-win32-seh-rt_v6-rev0/mingw64/bin/../lib/gcc/x86_64-w64-mingw32/8.1.0\libstdc++.a(bad_alloc.o)
 .text          0x0000000066119e80     0x96f0 C:/GNU/MINGW64/x86_64-8.1.0-win32-seh-rt_v6-rev0/mingw64/bin/../lib/gcc/x86_64-w64-mingw32/8.1.0\libstdc++.a(cp-demangle.o)
                0x00000000661233e0                __cxa_demangle
                0x0000000066123540                __gcclibcxx_demangle_callback
 .text          0x0000000066123570        0x0 C:/GNU/MINGW64/x86_64-8.1.0-win32-seh-rt_v6-rev0/mingw64/bin/../lib/gcc/x86_64-w64-mingw32/8.1.0\libstdc++.a(del_op.o)
 .text          0x0000000066123570        0x0 C:/GNU/MINGW64/x86_64-8.1.0-win32-seh-rt_v6-rev0/mingw64/bin/../lib/gcc/x86_64-w64-mingw32/8.1.0\libstdc++.a(eh_call.o)
 .text          0x0000000066123570        0x0 C:/GNU/MINGW64/x86_64-8.1.0-win32-seh-rt_v6-rev0/mingw64/bin/../lib/gcc/x86_64-w64-mingw32/8.1.0\libstdc++.a(eh_type.o)
 .text          0x0000000066123570        0x0 C:/GNU/MINGW64/x86_64-8.1.0-win32-seh-rt_v6-rev0/mingw64/bin/../lib/gcc/x86_64-w64-mingw32/8.1.0\libstdc++.a(new_handler.o)
 .text          0x0000000066123570       0xd0 C:/GNU/MINGW64/x86_64-8.1.0-win32-seh-rt_v6-rev0/mingw64/bin/../lib/gcc/x86_64-w64-mingw32/8.1.0/../../../../x86_64-w64-mingw32/lib/../lib\libmingw32.a(lib64_libmingw32_a-gccmain.o)
                0x0000000066123570                __do_global_dtors
                0x00000000661235b0                __do_global_ctors
                0x0000000066123620                __main
 .text          0x0000000066123640        0x0 C:/GNU/MINGW64/x86_64-8.1.0-win32-seh-rt_v6-rev0/mingw64/bin/../lib/gcc/x86_64-w64-mingw32/8.1.0/../../../../x86_64-w64-mingw32/lib/../lib\libmingw32.a(lib64_libmingw32_a-natstart.o)
 .text          0x0000000066123640      0x1e0 C:/GNU/MINGW64/x86_64-8.1.0-win32-seh-rt_v6-rev0/mingw64/bin/../lib/gcc/x86_64-w64-mingw32/8.1.0/../../../../x86_64-w64-mingw32/lib/../lib\libmingw32.a(lib64_libmingw32_a-gs_support.o)
                0x0000000066123640                __security_init_cookie
                0x0000000066123720                __report_gsfailure
 .text          0x0000000066123820       0xc0 C:/GNU/MINGW64/x86_64-8.1.0-win32-seh-rt_v6-rev0/mingw64/bin/../lib/gcc/x86_64-w64-mingw32/8.1.0/../../../../x86_64-w64-mingw32/lib/../lib\libmingw32.a(lib64_libmingw32_a-tlssup.o)
                0x0000000066123850                __dyn_tls_init
                0x00000000661238d0                __tlregdtor
 .text          0x00000000661238e0        0x0 C:/GNU/MINGW64/x86_64-8.1.0-win32-seh-rt_v6-rev0/mingw64/bin/../lib/gcc/x86_64-w64-mingw32/8.1.0/../../../../x86_64-w64-mingw32/lib/../lib\libmingw32.a(lib64_libmingw32_a-cinitexe.o)
 .text          0x00000000661238e0       0x20 C:/GNU/MINGW64/x86_64-8.1.0-win32-seh-rt_v6-rev0/mingw64/bin/../lib/gcc/x86_64-w64-mingw32/8.1.0/../../../../x86_64-w64-mingw32/lib/../lib\libmingw32.a(lib64_libmingw32_a-mingw_helpers.o)
                0x00000000661238e0                _decode_pointer
                0x00000000661238f0                _encode_pointer
 .text          0x0000000066123900      0x490 C:/GNU/MINGW64/x86_64-8.1.0-win32-seh-rt_v6-rev0/mingw64/bin/../lib/gcc/x86_64-w64-mingw32/8.1.0/../../../../x86_64-w64-mingw32/lib/../lib\libmingw32.a(lib64_libmingw32_a-pseudo-reloc.o)
                0x0000000066123ad0                _pei386_runtime_relocator
 .text          0x0000000066123d90      0x480 C:/GNU/MINGW64/x86_64-8.1.0-win32-seh-rt_v6-rev0/mingw64/bin/../lib/gcc/x86_64-w64-mingw32/8.1.0/../../../../x86_64-w64-mingw32/lib/../lib\libmingw32.a(lib64_libmingw32_a-crt_handler.o)
                0x0000000066123d90                __mingw_SEH_error_handler
                0x0000000066123f30                __mingw_init_ehandler
                0x0000000066124020                _gnu_exception_handler
 .text          0x0000000066124210      0x270 C:/GNU/MINGW64/x86_64-8.1.0-win32-seh-rt_v6-rev0/mingw64/bin/../lib/gcc/x86_64-w64-mingw32/8.1.0/../../../../x86_64-w64-mingw32/lib/../lib\libmingw32.a(lib64_libmingw32_a-tlsthrd.o)
                0x0000000066124280                ___w64_mingwthr_add_key_dtor
                0x0000000066124300                ___w64_mingwthr_remove_key_dtor
                0x00000000661243a0                __mingw_TLScallback
 .text          0x0000000066124480        0x0 C:/GNU/MINGW64/x86_64-8.1.0-win32-seh-rt_v6-rev0/mingw64/bin/../lib/gcc/x86_64-w64-mingw32/8.1.0/../../../../x86_64-w64-mingw32/lib/../lib\libmingw32.a(lib64_libmingw32_a-tlsmcrt.o)
 .text          0x0000000066124480        0x0 C:/GNU/MINGW64/x86_64-8.1.0-win32-seh-rt_v6-rev0/mingw64/bin/../lib/gcc/x86_64-w64-mingw32/8.1.0/../../../../x86_64-w64-mingw32/lib/../lib\libmingw32.a(lib64_libmingw32_a-pseudo-reloc-list.o)
 .text          0x0000000066124480      0x3e0 C:/GNU/MINGW64/x86_64-8.1.0-win32-seh-rt_v6-rev0/mingw64/bin/../lib/gcc/x86_64-w64-mingw32/8.1.0/../../../../x86_64-w64-mingw32/lib/../lib\libmingw32.a(lib64_libmingw32_a-pesect.o)
                0x00000000661244a0                _ValidateImageBase
                0x00000000661244c0                _FindPESection
                0x0000000066124510                _FindPESectionByName
                0x00000000661245a0                __mingw_GetSectionForAddress
                0x0000000066124620                __mingw_GetSectionCount
                0x0000000066124660                _FindPESectionExec
                0x00000000661246d0                _GetPEImageBase
                0x0000000066124710                _IsNonwritableInCurrentImage
                0x00000000661247b0                __mingw_enum_import_library_names
 .text          0x0000000066124860       0x10 C:/GNU/MINGW64/x86_64-8.1.0-win32-seh-rt_v6-rev0/mingw64/bin/../lib/gcc/x86_64-w64-mingw32/8.1.0/../../../../x86_64-w64-mingw32/lib/../lib\libmingw32.a(lib64_libmingw32_a-CRT_fp10.o)
                0x0000000066124860                fpreset
                0x0000000066124860                _fpreset
 .text          0x0000000066124870       0x40 C:/GNU/MINGW64/x86_64-8.1.0-win32-seh-rt_v6-rev0/mingw64/bin/../lib/gcc/x86_64-w64-mingw32/8.1.0\libgcc.a(_chkstk_ms.o)
                0x0000000066124870                ___chkstk_ms
 .text          0x00000000661248b0        0x0 C:/GNU/MINGW64/x86_64-8.1.0-win32-seh-rt_v6-rev0/mingw64/bin/../lib/gcc/x86_64-w64-mingw32/8.1.0\libgcc.a(_ctors.o)
 .text          0x00000000661248b0      0x3b0 C:/GNU/MINGW64/x86_64-8.1.0-win32-seh-rt_v6-rev0/mingw64/bin/../lib/gcc/x86_64-w64-mingw32/8.1.0\libgcc.a(gthr-win32.o)
                0x00000000661248b0                __gthr_win32_once
                0x0000000066124930                __gthr_win32_key_create
                0x0000000066124970                __gthr_win32_key_delete
                0x0000000066124990                __gthr_win32_getspecific
                0x00000000661249c0                __gthr_win32_setspecific
                0x00000000661249e0                __gthr_win32_mutex_init_function
                0x0000000066124a10                __gthr_win32_mutex_destroy
                0x0000000066124a20                __gthr_win32_mutex_lock
                0x0000000066124a70                __gthr_win32_mutex_trylock
                0x0000000066124a90                __gthr_win32_mutex_unlock
                0x0000000066124ad0                __gthr_win32_recursive_mutex_init_function
                0x0000000066124b10                __gthr_win32_recursive_mutex_lock
                0x0000000066124b90                __gthr_win32_recursive_mutex_trylock
                0x0000000066124be0                __gthr_win32_recursive_mutex_unlock
                0x0000000066124c40                __gthr_win32_recursive_mutex_destroy
 .text          0x0000000066124c60      0x630 C:/GNU/MINGW64/x86_64-8.1.0-win32-seh-rt_v6-rev0/mingw64/bin/../lib/gcc/x86_64-w64-mingw32/8.1.0\libgcc_eh.a(unwind-seh.o)
                0x0000000066124cc0                _Unwind_GetGR
                0x0000000066124ce0                _Unwind_SetGR
                0x0000000066124d00                _Unwind_GetCFA
                0x0000000066124d10                _Unwind_GetIP
                0x0000000066124d20                _Unwind_GetIPInfo
                0x0000000066124d30                _Unwind_SetIP
                0x0000000066124d40                _Unwind_GetLanguageSpecificData
                0x0000000066124d50                _Unwind_GetRegionStart
                0x0000000066124d60                _Unwind_FindEnclosingFunction
                0x0000000066124d90                _Unwind_GetDataRelBase
                0x0000000066124da0                _Unwind_GetTextRelBase
                0x0000000066124db0                _GCC_specific_handler
                0x0000000066124fc0                _Unwind_RaiseException
                0x0000000066125010                _Unwind_Resume
                0x00000000661250c0                _Unwind_Resume_or_Rethrow
                0x00000000661250e0                _Unwind_ForcedUnwind
                0x0000000066125110                _Unwind_DeleteException
                0x0000000066125130                _Unwind_Backtrace
 .text          0x0000000066125290      0x3b0 C:/GNU/MINGW64/x86_64-8.1.0-win32-seh-rt_v6-rev0/mingw64/bin/../lib/gcc/x86_64-w64-mingw32/8.1.0\libgcc_eh.a(emutls.o)
                0x00000000661253d0                __emutls_get_address
                0x0000000066125610                __emutls_register_common
 .text          0x0000000066125640       0x10 C:/GNU/MINGW64/x86_64-8.1.0-win32-seh-rt_v6-rev0/mingw64/bin/../lib/gcc/x86_64-w64-mingw32/8.1.0/../../../../x86_64-w64-mingw32/lib/../lib\libmingwex.a(lib64_libmingwex_a-dllentry.o)
                0x0000000066125640                DllEntryPoint
 .text          0x0000000066125650        0x8 C:/GNU/MINGW64/x86_64-8.1.0-win32-seh-rt_v6-rev0/mingw64/bin/../lib/gcc/x86_64-w64-mingw32/8.1.0/../../../../x86_64-w64-mingw32/lib/../lib\libmsvcrt.a(duags01243.o)
                0x0000000066125650                vfprintf
 .text          0x0000000066125658        0x8 C:/GNU/MINGW64/x86_64-8.1.0-win32-seh-rt_v6-rev0/mingw64/bin/../lib/gcc/x86_64-w64-mingw32/8.1.0/../../../../x86_64-w64-mingw32/lib/../lib\libmsvcrt.a(duags01211.o)
                0x0000000066125658                strncmp
 .text          0x0000000066125660        0x8 C:/GNU/MINGW64/x86_64-8.1.0-win32-seh-rt_v6-rev0/mingw64/bin/../lib/gcc/x86_64-w64-mingw32/8.1.0/../../../../x86_64-w64-mingw32/lib/../lib\libmsvcrt.a(duags01208.o)
                0x0000000066125660                strlen
 .text          0x0000000066125668        0x8 C:/GNU/MINGW64/x86_64-8.1.0-win32-seh-rt_v6-rev0/mingw64/bin/../lib/gcc/x86_64-w64-mingw32/8.1.0/../../../../x86_64-w64-mingw32/lib/../lib\libmsvcrt.a(duags01201.o)
                0x0000000066125668                strcmp
 .text          0x0000000066125670        0x8 C:/GNU/MINGW64/x86_64-8.1.0-win32-seh-rt_v6-rev0/mingw64/bin/../lib/gcc/x86_64-w64-mingw32/8.1.0/../../../../x86_64-w64-mingw32/lib/../lib\libmsvcrt.a(duags01192.o)
                0x0000000066125670                sprintf
 .text          0x0000000066125678        0x8 C:/GNU/MINGW64/x86_64-8.1.0-win32-seh-rt_v6-rev0/mingw64/bin/../lib/gcc/x86_64-w64-mingw32/8.1.0/../../../../x86_64-w64-mingw32/lib/../lib\libmsvcrt.a(duags01187.o)
                0x0000000066125678                signal
 .text          0x0000000066125680        0x8 C:/GNU/MINGW64/x86_64-8.1.0-win32-seh-rt_v6-rev0/mingw64/bin/../lib/gcc/x86_64-w64-mingw32/8.1.0/../../../../x86_64-w64-mingw32/lib/../lib\libmsvcrt.a(duags01177.o)
                0x0000000066125680                realloc
 .text          0x0000000066125688        0x8 C:/GNU/MINGW64/x86_64-8.1.0-win32-seh-rt_v6-rev0/mingw64/bin/../lib/gcc/x86_64-w64-mingw32/8.1.0/../../../../x86_64-w64-mingw32/lib/../lib\libmsvcrt.a(duags01159.o)
                0x0000000066125688                memset
 .text          0x0000000066125690        0x8 C:/GNU/MINGW64/x86_64-8.1.0-win32-seh-rt_v6-rev0/mingw64/bin/../lib/gcc/x86_64-w64-mingw32/8.1.0/../../../../x86_64-w64-mingw32/lib/../lib\libmsvcrt.a(duags01157.o)
                0x0000000066125690                memcpy
 .text          0x0000000066125698        0x8 C:/GNU/MINGW64/x86_64-8.1.0-win32-seh-rt_v6-rev0/mingw64/bin/../lib/gcc/x86_64-w64-mingw32/8.1.0/../../../../x86_64-w64-mingw32/lib/../lib\libmsvcrt.a(duags01149.o)
                0x0000000066125698                malloc
 .text          0x00000000661256a0        0x8 C:/GNU/MINGW64/x86_64-8.1.0-win32-seh-rt_v6-rev0/mingw64/bin/../lib/gcc/x86_64-w64-mingw32/8.1.0/../../../../x86_64-w64-mingw32/lib/../lib\libmsvcrt.a(duags01101.o)
                0x00000000661256a0                fwrite
 .text          0x00000000661256a8        0x8 C:/GNU/MINGW64/x86_64-8.1.0-win32-seh-rt_v6-rev0/mingw64/bin/../lib/gcc/x86_64-w64-mingw32/8.1.0/../../../../x86_64-w64-mingw32/lib/../lib\libmsvcrt.a(duags01089.o)
                0x00000000661256a8                free
 .text          0x00000000661256b0        0x8 C:/GNU/MINGW64/x86_64-8.1.0-win32-seh-rt_v6-rev0/mingw64/bin/../lib/gcc/x86_64-w64-mingw32/8.1.0/../../../../x86_64-w64-mingw32/lib/../lib\libmsvcrt.a(duags01085.o)
                0x00000000661256b0                fputs
 .text          0x00000000661256b8        0x8 C:/GNU/MINGW64/x86_64-8.1.0-win32-seh-rt_v6-rev0/mingw64/bin/../lib/gcc/x86_64-w64-mingw32/8.1.0/../../../../x86_64-w64-mingw32/lib/../lib\libmsvcrt.a(duags01084.o)
                0x00000000661256b8                fputc
 .text          0x00000000661256c0        0x8 C:/GNU/MINGW64/x86_64-8.1.0-win32-seh-rt_v6-rev0/mingw64/bin/../lib/gcc/x86_64-w64-mingw32/8.1.0/../../../../x86_64-w64-mingw32/lib/../lib\libmsvcrt.a(duags01050.o)
                0x00000000661256c0                calloc
 .text          0x00000000661256c8        0x8 C:/GNU/MINGW64/x86_64-8.1.0-win32-seh-rt_v6-rev0/mingw64/bin/../lib/gcc/x86_64-w64-mingw32/8.1.0/../../../../x86_64-w64-mingw32/lib/../lib\libmsvcrt.a(duags01032.o)
                0x00000000661256c8                abort
 .text          0x00000000661256d0        0x8 C:/GNU/MINGW64/x86_64-8.1.0-win32-seh-rt_v6-rev0/mingw64/bin/../lib/gcc/x86_64-w64-mingw32/8.1.0/../../../../x86_64-w64-mingw32/lib/../lib\libmsvcrt.a(duags00986.o)
                0x00000000661256d0                write
 .text          0x00000000661256d8        0x8 C:/GNU/MINGW64/x86_64-8.1.0-win32-seh-rt_v6-rev0/mingw64/bin/../lib/gcc/x86_64-w64-mingw32/8.1.0/../../../../x86_64-w64-mingw32/lib/../lib\libmsvcrt.a(duags00332.o)
                0x00000000661256d8                _initterm
 .text          0x00000000661256e0        0x8 C:/GNU/MINGW64/x86_64-8.1.0-win32-seh-rt_v6-rev0/mingw64/bin/../lib/gcc/x86_64-w64-mingw32/8.1.0/../../../../x86_64-w64-mingw32/lib/../lib\libmsvcrt.a(duags00122.o)
                0x00000000661256e0                _amsg_exit
 *fill*         0x00000000661256e8        0x8 
 .text          0x00000000661256f0      0x170 C:/GNU/MINGW64/x86_64-8.1.0-win32-seh-rt_v6-rev0/mingw64/bin/../lib/gcc/x86_64-w64-mingw32/8.1.0/../../../../x86_64-w64-mingw32/lib/../lib\libmsvcrt.a(lib64_libmsvcrt_os_a-onexit_table.o)
                0x00000000661256f0                _initialize_onexit_table
                0x0000000066125720                _register_onexit_function
                0x00000000661257f0                _execute_onexit_table
 .text          0x0000000066125860       0x20 C:/GNU/MINGW64/x86_64-8.1.0-win32-seh-rt_v6-rev0/mingw64/bin/../lib/gcc/x86_64-w64-mingw32/8.1.0/../../../../x86_64-w64-mingw32/lib/../lib\libmsvcrt.a(lib64_libmsvcrt_os_a-acrt_iob_func.o)
                0x0000000066125860                __acrt_iob_func
 .text          0x0000000066125880        0x0 C:/GNU/MINGW64/x86_64-8.1.0-win32-seh-rt_v6-rev0/mingw64/bin/../lib/gcc/x86_64-w64-mingw32/8.1.0/../../../../x86_64-w64-mingw32/lib/../lib\libmsvcrt.a(duagh.o)
 .text          0x0000000066125880        0x8 C:/GNU/MINGW64/x86_64-8.1.0-win32-seh-rt_v6-rev0/mingw64/bin/../lib/gcc/x86_64-w64-mingw32/8.1.0/../../../../x86_64-w64-mingw32/lib/../lib\libmsvcrt.a(duags00821.o)
                0x0000000066125880                _unlock
 .text          0x0000000066125888        0x8 C:/GNU/MINGW64/x86_64-8.1.0-win32-seh-rt_v6-rev0/mingw64/bin/../lib/gcc/x86_64-w64-mingw32/8.1.0/../../../../x86_64-w64-mingw32/lib/../lib\libmsvcrt.a(duags00441.o)
                0x0000000066125888                _lock
 .text          0x0000000066125890        0x8 C:/GNU/MINGW64/x86_64-8.1.0-win32-seh-rt_v6-rev0/mingw64/bin/../lib/gcc/x86_64-w64-mingw32/8.1.0/../../../../x86_64-w64-mingw32/lib/../lib\libmsvcrt.a(duags00083.o)
                0x0000000066125890                __iob_func
 *fill*         0x0000000066125898        0x8 
 .text          0x00000000661258a0        0x0 C:/GNU/MINGW64/x86_64-8.1.0-win32-seh-rt_v6-rev0/mingw64/bin/../lib/gcc/x86_64-w64-mingw32/8.1.0/../../../../x86_64-w64-mingw32/lib/../lib\libmsvcrt.a(duagt.o)
 .text          0x00000000661258a0        0x8 C:/GNU/MINGW64/x86_64-8.1.0-win32-seh-rt_v6-rev0/mingw64/bin/../lib/gcc/x86_64-w64-mingw32/8.1.0/../../../../x86_64-w64-mingw32/lib/../lib\libkernel32.a(dqifs01453.o)
                0x00000000661258a0                WaitForSingleObject
 .text          0x00000000661258a8        0x8 C:/GNU/MINGW64/x86_64-8.1.0-win32-seh-rt_v6-rev0/mingw64/bin/../lib/gcc/x86_64-w64-mingw32/8.1.0/../../../../x86_64-w64-mingw32/lib/../lib\libkernel32.a(dqifs01445.o)
                0x00000000661258a8                VirtualQuery
 .text          0x00000000661258b0        0x8 C:/GNU/MINGW64/x86_64-8.1.0-win32-seh-rt_v6-rev0/mingw64/bin/../lib/gcc/x86_64-w64-mingw32/8.1.0/../../../../x86_64-w64-mingw32/lib/../lib\libkernel32.a(dqifs01443.o)
                0x00000000661258b0                VirtualProtect
 .text          0x00000000661258b8        0x8 C:/GNU/MINGW64/x86_64-8.1.0-win32-seh-rt_v6-rev0/mingw64/bin/../lib/gcc/x86_64-w64-mingw32/8.1.0/../../../../x86_64-w64-mingw32/lib/../lib\libkernel32.a(dqifs01409.o)
                0x00000000661258b8                UnhandledExceptionFilter
 .text          0x00000000661258c0        0x8 C:/GNU/MINGW64/x86_64-8.1.0-win32-seh-rt_v6-rev0/mingw64/bin/../lib/gcc/x86_64-w64-mingw32/8.1.0/../../../../x86_64-w64-mingw32/lib/../lib\libkernel32.a(dqifs01396.o)
                0x00000000661258c0                TlsSetValue
 .text          0x00000000661258c8        0x8 C:/GNU/MINGW64/x86_64-8.1.0-win32-seh-rt_v6-rev0/mingw64/bin/../lib/gcc/x86_64-w64-mingw32/8.1.0/../../../../x86_64-w64-mingw32/lib/../lib\libkernel32.a(dqifs01395.o)
                0x00000000661258c8                TlsGetValue
 .text          0x00000000661258d0        0x8 C:/GNU/MINGW64/x86_64-8.1.0-win32-seh-rt_v6-rev0/mingw64/bin/../lib/gcc/x86_64-w64-mingw32/8.1.0/../../../../x86_64-w64-mingw32/lib/../lib\libkernel32.a(dqifs01394.o)
                0x00000000661258d0                TlsFree
 .text          0x00000000661258d8        0x8 C:/GNU/MINGW64/x86_64-8.1.0-win32-seh-rt_v6-rev0/mingw64/bin/../lib/gcc/x86_64-w64-mingw32/8.1.0/../../../../x86_64-w64-mingw32/lib/../lib\libkernel32.a(dqifs01393.o)
                0x00000000661258d8                TlsAlloc
 .text          0x00000000661258e0        0x8 C:/GNU/MINGW64/x86_64-8.1.0-win32-seh-rt_v6-rev0/mingw64/bin/../lib/gcc/x86_64-w64-mingw32/8.1.0/../../../../x86_64-w64-mingw32/lib/../lib\libkernel32.a(dqifs01375.o)
                0x00000000661258e0                TerminateProcess
 .text          0x00000000661258e8        0x8 C:/GNU/MINGW64/x86_64-8.1.0-win32-seh-rt_v6-rev0/mingw64/bin/../lib/gcc/x86_64-w64-mingw32/8.1.0/../../../../x86_64-w64-mingw32/lib/../lib\libkernel32.a(dqifs01346.o)
                0x00000000661258e8                SetUnhandledExceptionFilter
 .text          0x00000000661258f0        0x8 C:/GNU/MINGW64/x86_64-8.1.0-win32-seh-rt_v6-rev0/mingw64/bin/../lib/gcc/x86_64-w64-mingw32/8.1.0/../../../../x86_64-w64-mingw32/lib/../lib\libkernel32.a(dqifs01290.o)
                0x00000000661258f0                SetLastError
 .text          0x00000000661258f8        0x8 C:/GNU/MINGW64/x86_64-8.1.0-win32-seh-rt_v6-rev0/mingw64/bin/../lib/gcc/x86_64-w64-mingw32/8.1.0/../../../../x86_64-w64-mingw32/lib/../lib\libkernel32.a(dqifs01194.o)
                0x00000000661258f8                RtlVirtualUnwind
 .text          0x0000000066125900        0x8 C:/GNU/MINGW64/x86_64-8.1.0-win32-seh-rt_v6-rev0/mingw64/bin/../lib/gcc/x86_64-w64-mingw32/8.1.0/../../../../x86_64-w64-mingw32/lib/../lib\libkernel32.a(dqifs01193.o)
                0x0000000066125900                RtlUnwindEx
 .text          0x0000000066125908        0x8 C:/GNU/MINGW64/x86_64-8.1.0-win32-seh-rt_v6-rev0/mingw64/bin/../lib/gcc/x86_64-w64-mingw32/8.1.0/../../../../x86_64-w64-mingw32/lib/../lib\libkernel32.a(dqifs01187.o)
                0x0000000066125908                RtlLookupFunctionEntry
 .text          0x0000000066125910        0x8 C:/GNU/MINGW64/x86_64-8.1.0-win32-seh-rt_v6-rev0/mingw64/bin/../lib/gcc/x86_64-w64-mingw32/8.1.0/../../../../x86_64-w64-mingw32/lib/../lib\libkernel32.a(dqifs01180.o)
                0x0000000066125910                RtlCaptureContext
 .text          0x0000000066125918        0x8 C:/GNU/MINGW64/x86_64-8.1.0-win32-seh-rt_v6-rev0/mingw64/bin/../lib/gcc/x86_64-w64-mingw32/8.1.0/../../../../x86_64-w64-mingw32/lib/../lib\libkernel32.a(dqifs01179.o)
                0x0000000066125918                RtlAddFunctionTable
 .text          0x0000000066125920        0x8 C:/GNU/MINGW64/x86_64-8.1.0-win32-seh-rt_v6-rev0/mingw64/bin/../lib/gcc/x86_64-w64-mingw32/8.1.0/../../../../x86_64-w64-mingw32/lib/../lib\libkernel32.a(dqifs01154.o)
                0x0000000066125920                ReleaseSemaphore
 .text          0x0000000066125928        0x8 C:/GNU/MINGW64/x86_64-8.1.0-win32-seh-rt_v6-rev0/mingw64/bin/../lib/gcc/x86_64-w64-mingw32/8.1.0/../../../../x86_64-w64-mingw32/lib/../lib\libkernel32.a(dqifs01112.o)
                0x0000000066125928                RaiseException
 .text          0x0000000066125930        0x8 C:/GNU/MINGW64/x86_64-8.1.0-win32-seh-rt_v6-rev0/mingw64/bin/../lib/gcc/x86_64-w64-mingw32/8.1.0/../../../../x86_64-w64-mingw32/lib/../lib\libkernel32.a(dqifs01093.o)
                0x0000000066125930                QueryPerformanceCounter
 .text          0x0000000066125938        0x8 C:/GNU/MINGW64/x86_64-8.1.0-win32-seh-rt_v6-rev0/mingw64/bin/../lib/gcc/x86_64-w64-mingw32/8.1.0/../../../../x86_64-w64-mingw32/lib/../lib\libkernel32.a(dqifs00774.o)
                0x0000000066125938                GetTickCount
 .text          0x0000000066125940        0x8 C:/GNU/MINGW64/x86_64-8.1.0-win32-seh-rt_v6-rev0/mingw64/bin/../lib/gcc/x86_64-w64-mingw32/8.1.0/../../../../x86_64-w64-mingw32/lib/../lib\libkernel32.a(dqifs00746.o)
                0x0000000066125940                GetSystemTimeAsFileTime
 .text          0x0000000066125948        0x8 C:/GNU/MINGW64/x86_64-8.1.0-win32-seh-rt_v6-rev0/mingw64/bin/../lib/gcc/x86_64-w64-mingw32/8.1.0/../../../../x86_64-w64-mingw32/lib/../lib\libkernel32.a(dqifs00540.o)
                0x0000000066125948                GetCurrentThreadId
 .text          0x0000000066125950        0x8 C:/GNU/MINGW64/x86_64-8.1.0-win32-seh-rt_v6-rev0/mingw64/bin/../lib/gcc/x86_64-w64-mingw32/8.1.0/../../../../x86_64-w64-mingw32/lib/../lib\libkernel32.a(dqifs00536.o)
                0x0000000066125950                GetCurrentProcessId
 .text          0x0000000066125958        0x8 C:/GNU/MINGW64/x86_64-8.1.0-win32-seh-rt_v6-rev0/mingw64/bin/../lib/gcc/x86_64-w64-mingw32/8.1.0/../../../../x86_64-w64-mingw32/lib/../lib\libkernel32.a(dqifs00535.o)
                0x0000000066125958                GetCurrentProcess
 .text          0x0000000066125960        0x8 C:/GNU/MINGW64/x86_64-8.1.0-win32-seh-rt_v6-rev0/mingw64/bin/../lib/gcc/x86_64-w64-mingw32/8.1.0/../../../../x86_64-w64-mingw32/lib/../lib\libkernel32.a(dqifs00268.o)
                0x0000000066125960                DeleteCriticalSection
 .text          0x0000000066125968        0x8 C:/GNU/MINGW64/x86_64-8.1.0-win32-seh-rt_v6-rev0/mingw64/bin/../lib/gcc/x86_64-w64-mingw32/8.1.0/../../../../x86_64-w64-mingw32/lib/../lib\libkernel32.a(dqifs00231.o)
                0x0000000066125968                CreateSemaphoreW
 .text          0x0000000066125970        0x8 C:/GNU/MINGW64/x86_64-8.1.0-win32-seh-rt_v6-rev0/mingw64/bin/../lib/gcc/x86_64-w64-mingw32/8.1.0/../../../../x86_64-w64-mingw32/lib/../lib\libkernel32.a(dqifs00130.o)
                0x0000000066125970                CloseHandle
 *fill*         0x0000000066125978        0x8 
 .text          0x0000000066125980       0x30 C:/GNU/MINGW64/x86_64-8.1.0-win32-seh-rt_v6-rev0/mingw64/bin/../lib/gcc/x86_64-w64-mingw32/8.1.0/../../../../x86_64-w64-mingw32/lib/../lib\libmingw32.a(lib64_libmingw32_a-tlsmthread.o)
                0x0000000066125980                __mingwthr_remove_key_dtor
                0x0000000066125990                __mingwthr_key_dtor
 .text          0x00000000661259b0        0x0 C:/GNU/MINGW64/x86_64-8.1.0-win32-seh-rt_v6-rev0/mingw64/bin/../lib/gcc/x86_64-w64-mingw32/8.1.0/crtend.o
 *(SORT_BY_NAME(.text$*))
 .text$_ZGTtNKSt13bad_exceptionD1Ev
                0x00000000661259b0       0x10 C:/GNU/MINGW64/x86_64-8.1.0-win32-seh-rt_v6-rev0/mingw64/bin/../lib/gcc/x86_64-w64-mingw32/8.1.0\libstdc++.a(eh_exception.o)
                0x00000000661259b0                transaction clone for std::bad_exception::~bad_exception() const
 .text$_ZGTtNKSt9exceptionD1Ev
                0x00000000661259c0       0x10 C:/GNU/MINGW64/x86_64-8.1.0-win32-seh-rt_v6-rev0/mingw64/bin/../lib/gcc/x86_64-w64-mingw32/8.1.0\libstdc++.a(eh_exception.o)
                0x00000000661259c0                transaction clone for std::exception::~exception() const
 .text$_ZL15get_ttype_entryP16lsda_header_infoy
                0x00000000661259d0       0x90 C:/GNU/MINGW64/x86_64-8.1.0-win32-seh-rt_v6-rev0/mingw64/bin/../lib/gcc/x86_64-w64-mingw32/8.1.0\libstdc++.a(eh_personality.o)
 .text$_ZL16get_adjusted_ptrPKSt9type_infoS1_PPv
                0x0000000066125a60       0x60 C:/GNU/MINGW64/x86_64-8.1.0-win32-seh-rt_v6-rev0/mingw64/bin/../lib/gcc/x86_64-w64-mingw32/8.1.0\libstdc++.a(eh_personality.o)
 .text$_ZL17parse_lsda_headerP15_Unwind_ContextPKhP16lsda_header_info
                0x0000000066125ac0       0xf0 C:/GNU/MINGW64/x86_64-8.1.0-win32-seh-rt_v6-rev0/mingw64/bin/../lib/gcc/x86_64-w64-mingw32/8.1.0\libstdc++.a(eh_personality.o)
 .text$_ZL20check_exception_specP16lsda_header_infoPKSt9type_infoPvx
                0x0000000066125bb0       0x80 C:/GNU/MINGW64/x86_64-8.1.0-win32-seh-rt_v6-rev0/mingw64/bin/../lib/gcc/x86_64-w64-mingw32/8.1.0\libstdc++.a(eh_personality.o)
 .text$_ZL21base_of_encoded_valuehP15_Unwind_Context
                0x0000000066125c30       0x70 C:/GNU/MINGW64/x86_64-8.1.0-win32-seh-rt_v6-rev0/mingw64/bin/../lib/gcc/x86_64-w64-mingw32/8.1.0\libstdc++.a(eh_personality.o)
 .text$_ZL23__gxx_exception_cleanup19_Unwind_Reason_CodeP17_Unwind_Exception
                0x0000000066125ca0       0x40 C:/GNU/MINGW64/x86_64-8.1.0-win32-seh-rt_v6-rev0/mingw64/bin/../lib/gcc/x86_64-w64-mingw32/8.1.0\libstdc++.a(eh_throw.o)
 .text$_ZL28read_encoded_value_with_basehyPKhPy
                0x0000000066125ce0      0x160 C:/GNU/MINGW64/x86_64-8.1.0-win32-seh-rt_v6-rev0/mingw64/bin/../lib/gcc/x86_64-w64-mingw32/8.1.0\libstdc++.a(eh_personality.o)
 .text$_ZN10__cxxabiv111__terminateEPFvvE
                0x0000000066125e40       0x40 C:/GNU/MINGW64/x86_64-8.1.0-win32-seh-rt_v6-rev0/mingw64/bin/../lib/gcc/x86_64-w64-mingw32/8.1.0\libstdc++.a(eh_terminate.o)
                0x0000000066125e40                __cxxabiv1::__terminate(void (*)())
 .text$_ZN10__cxxabiv112__unexpectedEPFvvE
                0x0000000066125e80       0x10 C:/GNU/MINGW64/x86_64-8.1.0-win32-seh-rt_v6-rev0/mingw64/bin/../lib/gcc/x86_64-w64-mingw32/8.1.0\libstdc++.a(eh_terminate.o)
                0x0000000066125e80                __cxxabiv1::__unexpected(void (*)())
 .text$_ZN10__cxxabiv115__forced_unwindD0Ev
                0x0000000066125e90       0x10 C:/GNU/MINGW64/x86_64-8.1.0-win32-seh-rt_v6-rev0/mingw64/bin/../lib/gcc/x86_64-w64-mingw32/8.1.0\libstdc++.a(eh_exception.o)
                0x0000000066125e90                __cxxabiv1::__forced_unwind::~__forced_unwind()
 .text$_ZN10__cxxabiv115__forced_unwindD2Ev
                0x0000000066125ea0       0x10 C:/GNU/MINGW64/x86_64-8.1.0-win32-seh-rt_v6-rev0/mingw64/bin/../lib/gcc/x86_64-w64-mingw32/8.1.0\libstdc++.a(eh_exception.o)
                0x0000000066125ea0                __cxxabiv1::__forced_unwind::~__forced_unwind()
                0x0000000066125ea0                __cxxabiv1::__forced_unwind::~__forced_unwind()
 .text$_ZN10__cxxabiv117__class_type_infoD0Ev
                0x0000000066125eb0       0x30 C:/GNU/MINGW64/x86_64-8.1.0-win32-seh-rt_v6-rev0/mingw64/bin/../lib/gcc/x86_64-w64-mingw32/8.1.0\libstdc++.a(class_type_info.o)
                0x0000000066125eb0                __cxxabiv1::__class_type_info::~__class_type_info()
 .text$_ZN10__cxxabiv117__class_type_infoD2Ev
                0x0000000066125ee0       0x10 C:/GNU/MINGW64/x86_64-8.1.0-win32-seh-rt_v6-rev0/mingw64/bin/../lib/gcc/x86_64-w64-mingw32/8.1.0\libstdc++.a(class_type_info.o)
                0x0000000066125ee0                __cxxabiv1::__class_type_info::~__class_type_info()
                0x0000000066125ee0                __cxxabiv1::__class_type_info::~__class_type_info()
 .text$_ZN10__cxxabiv119__foreign_exceptionD0Ev
                0x0000000066125ef0       0x10 C:/GNU/MINGW64/x86_64-8.1.0-win32-seh-rt_v6-rev0/mingw64/bin/../lib/gcc/x86_64-w64-mingw32/8.1.0\libstdc++.a(eh_exception.o)
                0x0000000066125ef0                __cxxabiv1::__foreign_exception::~__foreign_exception()
 .text$_ZN10__cxxabiv119__foreign_exceptionD2Ev
                0x0000000066125f00       0x10 C:/GNU/MINGW64/x86_64-8.1.0-win32-seh-rt_v6-rev0/mingw64/bin/../lib/gcc/x86_64-w64-mingw32/8.1.0\libstdc++.a(eh_exception.o)
                0x0000000066125f00                __cxxabiv1::__foreign_exception::~__foreign_exception()
                0x0000000066125f00                __cxxabiv1::__foreign_exception::~__foreign_exception()
 .text$_ZN10__cxxabiv120__si_class_type_infoD0Ev
                0x0000000066125f10       0x30 C:/GNU/MINGW64/x86_64-8.1.0-win32-seh-rt_v6-rev0/mingw64/bin/../lib/gcc/x86_64-w64-mingw32/8.1.0\libstdc++.a(si_class_type_info.o)
                0x0000000066125f10                __cxxabiv1::__si_class_type_info::~__si_class_type_info()
 .text$_ZN10__cxxabiv120__si_class_type_infoD2Ev
                0x0000000066125f40       0x10 C:/GNU/MINGW64/x86_64-8.1.0-win32-seh-rt_v6-rev0/mingw64/bin/../lib/gcc/x86_64-w64-mingw32/8.1.0\libstdc++.a(si_class_type_info.o)
                0x0000000066125f40                __cxxabiv1::__si_class_type_info::~__si_class_type_info()
                0x0000000066125f40                __cxxabiv1::__si_class_type_info::~__si_class_type_info()
 .text$_ZN10__cxxabiv121__vmi_class_type_infoD0Ev
                0x0000000066125f50       0x30 C:/GNU/MINGW64/x86_64-8.1.0-win32-seh-rt_v6-rev0/mingw64/bin/../lib/gcc/x86_64-w64-mingw32/8.1.0\libstdc++.a(vmi_class_type_info.o)
                0x0000000066125f50                __cxxabiv1::__vmi_class_type_info::~__vmi_class_type_info()
 .text$_ZN10__cxxabiv121__vmi_class_type_infoD2Ev
                0x0000000066125f80       0x10 C:/GNU/MINGW64/x86_64-8.1.0-win32-seh-rt_v6-rev0/mingw64/bin/../lib/gcc/x86_64-w64-mingw32/8.1.0\libstdc++.a(vmi_class_type_info.o)
                0x0000000066125f80                __cxxabiv1::__vmi_class_type_info::~__vmi_class_type_info()
                0x0000000066125f80                __cxxabiv1::__vmi_class_type_info::~__vmi_class_type_info()
 .text$_ZN10__cxxabiv1L21__gxx_personality_impEiiyP17_Unwind_ExceptionP15_Unwind_Context
                0x0000000066125f90      0x5b0 C:/GNU/MINGW64/x86_64-8.1.0-win32-seh-rt_v6-rev0/mingw64/bin/../lib/gcc/x86_64-w64-mingw32/8.1.0\libstdc++.a(eh_personality.o)
 .text$_ZN12_GLOBAL__N_14pool4freeEPv.constprop.2
                0x0000000066126540      0x170 C:/GNU/MINGW64/x86_64-8.1.0-win32-seh-rt_v6-rev0/mingw64/bin/../lib/gcc/x86_64-w64-mingw32/8.1.0\libstdc++.a(eh_alloc.o)
 .text$_ZN12_GLOBAL__N_14pool8allocateEy.constprop.3
                0x00000000661266b0      0x150 C:/GNU/MINGW64/x86_64-8.1.0-win32-seh-rt_v6-rev0/mingw64/bin/../lib/gcc/x86_64-w64-mingw32/8.1.0\libstdc++.a(eh_alloc.o)
 .text$_ZN8Palmtree4Math4Core8Internal11ParserState26ParseAsDecimalNumberStringEv
                0x0000000066126800     0x2560 ../build/x64_Release/pmc_parse.o
                0x0000000066126800                Palmtree::Math::Core::Internal::ParserState::ParseAsDecimalNumberString()
 .text$_ZN8Palmtree4Math4Core8Internal11ParserState32ParseAsIntegerPartNumberSequenceEv
                0x0000000066128d60      0x290 ../build/x64_Release/pmc_parse.o
                0x0000000066128d60                Palmtree::Math::Core::Internal::ParserState::ParseAsIntegerPartNumberSequence()
 .text$_ZN8Palmtree4Math4Core8Internal11ParserState33ParseAsFractionPartNumberSequenceEv
                0x0000000066128ff0      0x180 ../build/x64_Release/pmc_parse.o
                0x0000000066128ff0                Palmtree::Math::Core::Internal::ParserState::ParseAsFractionPartNumberSequence()
 .text$_ZN8Palmtree4Math4Core8Internal12StringReader10SkipStringEPKw
                0x0000000066129170       0x60 ../build/x64_Release/pmc_parse.o
                0x0000000066129170                Palmtree::Math::Core::Internal::StringReader::SkipString(wchar_t const*)
 .text$_ZN8Palmtree4Math4Core8Internal12StringReader10StartsWithEPKw
                0x00000000661291d0       0x50 ../build/x64_Release/pmc_parse.o
                0x00000000661291d0                Palmtree::Math::Core::Internal::StringReader::StartsWith(wchar_t const*)
 .text$_ZN8Palmtree4Math4Core8Internal12StringReader8PeekCharEv
                0x0000000066129220       0x10 ../build/x64_Release/pmc_parse.o
                0x0000000066129220                Palmtree::Math::Core::Internal::StringReader::PeekChar()
 .text$_ZN8Palmtree4Math4Core8Internal12StringReader8ProgressEv
                0x0000000066129230       0x30 ../build/x64_Release/pmc_parse.o
                0x0000000066129230                Palmtree::Math::Core::Internal::StringReader::Progress()
 .text$_ZN8Palmtree4Math4Core8Internal12StringWriter5WriteEPKw
                0x0000000066129260       0x30 ../build/x64_Release/pmc_parse.o
                0x0000000066129260                Palmtree::Math::Core::Internal::StringWriter::Write(wchar_t const*)
 .text$_ZN8Palmtree4Math4Core8Internal12StringWriter5WriteEw
                0x0000000066129290       0x40 ../build/x64_Release/pmc_parse.o
                0x0000000066129290                Palmtree::Math::Core::Internal::StringWriter::Write(wchar_t)
 .text$_ZN8Palmtree4Math4Core8Internal12StringWriter9GetStringEv
                0x00000000661292d0       0x10 ../build/x64_Release/pmc_parse.o
                0x00000000661292d0                Palmtree::Math::Core::Internal::StringWriter::GetString()
 .text$_ZN8Palmtree4Math4Core8Internal14ResourceHolder16__ChainBufferTag5CheckEv
                0x00000000661292e0       0x10 ../build/x64_Release/pmc_memory.o
                0x00000000661292e0                Palmtree::Math::Core::Internal::ResourceHolder::__ChainBufferTag::Check()
 .text$_ZN8Palmtree4Math4Core8Internal14ResourceHolder16__ChainBufferTag5ClearEv
                0x00000000661292f0       0x10 ../build/x64_Release/pmc_memory.o
                0x00000000661292f0                Palmtree::Math::Core::Internal::ResourceHolder::__ChainBufferTag::Clear()
 .text$_ZN8Palmtree4Math4Core8Internal14ResourceHolder9__RootTag19EqualsBufferAddressEPv
                0x0000000066129300       0x50 ../build/x64_Release/pmc_memory.o
                0x0000000066129300                Palmtree::Math::Core::Internal::ResourceHolder::__RootTag::EqualsBufferAddress(void*)
 .text$_ZN8Palmtree4Math4Core8Internal14ResourceHolder9__RootTag8DestructEv
                0x0000000066129350       0x10 ../build/x64_Release/pmc_memory.o
                0x0000000066129350                Palmtree::Math::Core::Internal::ResourceHolder::__RootTag::Destruct()
 .text$_ZN8Palmtree4Math4Core8Internal14ResourceHolder9__RootTagD0Ev
                0x0000000066129360       0x30 ../build/x64_Release/pmc_memory.o
                0x0000000066129360                Palmtree::Math::Core::Internal::ResourceHolder::__RootTag::~__RootTag()
 .text$_ZN8Palmtree4Math4Core8Internal14ResourceHolder9__RootTagD1Ev
                0x0000000066129390       0x20 ../build/x64_Release/pmc_memory.o
                0x0000000066129390                Palmtree::Math::Core::Internal::ResourceHolder::__RootTag::~__RootTag()
 .text$_ZN8Palmtree4Math4Core8Internal14ResourceHolderD0Ev
                0x00000000661293b0       0xb0 ../build/x64_Release/pmc_memory.o
                0x00000000661293b0                Palmtree::Math::Core::Internal::ResourceHolder::~ResourceHolder()
 .text$_ZN8Palmtree4Math4Core8Internal14ResourceHolderD1Ev
                0x0000000066129460       0xa0 ../build/x64_Release/pmc_memory.o
                0x0000000066129460                Palmtree::Math::Core::Internal::ResourceHolder::~ResourceHolder()
 .text$_ZN8Palmtree4Math4Core8Internal14ResourceHolderD2Ev
                0x0000000066129500       0xa0 ../build/x64_Release/pmc_memory.o
                0x0000000066129500                Palmtree::Math::Core::Internal::ResourceHolder::~ResourceHolder()
 .text$_ZN8Palmtree4Math4Core8Internal15FormatExceptionD0Ev
                0x00000000661295a0       0x30 ../build/x64_Release/pmc_bytes.o
                0x00000000661295a0                Palmtree::Math::Core::Internal::FormatException::~FormatException()
 .text$_ZN8Palmtree4Math4Core8Internal15FormatExceptionD1Ev
                0x00000000661295d0       0x10 ../build/x64_Release/pmc_bytes.o
                0x00000000661295d0                Palmtree::Math::Core::Internal::FormatException::~FormatException()
 .text$_ZN8Palmtree4Math4Core8Internal16DecimalFromatter14FormatterTypeC11WritePrefixEcPNS2_12StringWriterE
                0x00000000661295e0      0x180 ../build/x64_Release/pmc_tostring.o
                0x00000000661295e0                Palmtree::Math::Core::Internal::DecimalFromatter::FormatterTypeC::WritePrefix(char, Palmtree::Math::Core::Internal::StringWriter*)
 .text$_ZN8Palmtree4Math4Core8Internal16DecimalFromatter14FormatterTypeC11WriteSuffixEcPNS2_12StringWriterE
                0x0000000066129760      0x160 ../build/x64_Release/pmc_tostring.o
                0x0000000066129760                Palmtree::Math::Core::Internal::DecimalFromatter::FormatterTypeC::WriteSuffix(char, Palmtree::Math::Core::Internal::StringWriter*)
 .text$_ZN8Palmtree4Math4Core8Internal16DecimalFromatter14FormatterTypeC14WriteZeroValueEPNS2_12StringWriterE
                0x00000000661298c0       0x60 ../build/x64_Release/pmc_tostring.o
                0x00000000661298c0                Palmtree::Math::Core::Internal::DecimalFromatter::FormatterTypeC::WriteZeroValue(Palmtree::Math::Core::Internal::StringWriter*)
 .text$_ZN8Palmtree4Math4Core8Internal16DecimalFromatter14FormatterTypeC20FormatNumberSequenceEPKwPNS2_12StringWriterE
                0x0000000066129920      0x290 ../build/x64_Release/pmc_tostring.o
                0x0000000066129920                Palmtree::Math::Core::Internal::DecimalFromatter::FormatterTypeC::FormatNumberSequence(wchar_t const*, Palmtree::Math::Core::Internal::StringWriter*)
 .text$_ZN8Palmtree4Math4Core8Internal16DecimalFromatter14FormatterTypeC24GetDefaultPrecisionValueEv
                0x0000000066129bb0       0x10 ../build/x64_Release/pmc_tostring.o
                0x0000000066129bb0                Palmtree::Math::Core::Internal::DecimalFromatter::FormatterTypeC::GetDefaultPrecisionValue()
 .text$_ZN8Palmtree4Math4Core8Internal16DecimalFromatter14FormatterTypeD11WritePrefixEcPNS2_12StringWriterE
                0x0000000066129bc0       0x20 ../build/x64_Release/pmc_tostring.o
                0x0000000066129bc0                Palmtree::Math::Core::Internal::DecimalFromatter::FormatterTypeD::WritePrefix(char, Palmtree::Math::Core::Internal::StringWriter*)
 .text$_ZN8Palmtree4Math4Core8Internal16DecimalFromatter14FormatterTypeD11WriteSuffixEcPNS2_12StringWriterE
                0x0000000066129be0       0x10 ../build/x64_Release/pmc_tostring.o
                0x0000000066129be0                Palmtree::Math::Core::Internal::DecimalFromatter::FormatterTypeD::WriteSuffix(char, Palmtree::Math::Core::Internal::StringWriter*)
 .text$_ZN8Palmtree4Math4Core8Internal16DecimalFromatter14FormatterTypeD14WriteZeroValueEPNS2_12StringWriterE
                0x0000000066129bf0       0x40 ../build/x64_Release/pmc_tostring.o
                0x0000000066129bf0                Palmtree::Math::Core::Internal::DecimalFromatter::FormatterTypeD::WriteZeroValue(Palmtree::Math::Core::Internal::StringWriter*)
 .text$_ZN8Palmtree4Math4Core8Internal16DecimalFromatter14FormatterTypeD20FormatNumberSequenceEPKwPNS2_12StringWriterE
                0x0000000066129c30       0x70 ../build/x64_Release/pmc_tostring.o
                0x0000000066129c30                Palmtree::Math::Core::Internal::DecimalFromatter::FormatterTypeD::FormatNumberSequence(wchar_t const*, Palmtree::Math::Core::Internal::StringWriter*)
 .text$_ZN8Palmtree4Math4Core8Internal16DecimalFromatter14FormatterTypeD24GetDefaultPrecisionValueEv
                0x0000000066129ca0       0x10 ../build/x64_Release/pmc_tostring.o
                0x0000000066129ca0                Palmtree::Math::Core::Internal::DecimalFromatter::FormatterTypeD::GetDefaultPrecisionValue()
 .text$_ZN8Palmtree4Math4Core8Internal16DecimalFromatter14FormatterTypeE11WritePrefixEcPNS2_12StringWriterE
                0x0000000066129cb0       0x20 ../build/x64_Release/pmc_tostring.o
                0x0000000066129cb0                Palmtree::Math::Core::Internal::DecimalFromatter::FormatterTypeE::WritePrefix(char, Palmtree::Math::Core::Internal::StringWriter*)
 .text$_ZN8Palmtree4Math4Core8Internal16DecimalFromatter14FormatterTypeE11WriteSuffixEcPNS2_12StringWriterE
                0x0000000066129cd0       0x10 ../build/x64_Release/pmc_tostring.o
                0x0000000066129cd0                Palmtree::Math::Core::Internal::DecimalFromatter::FormatterTypeE::WriteSuffix(char, Palmtree::Math::Core::Internal::StringWriter*)
 .text$_ZN8Palmtree4Math4Core8Internal16DecimalFromatter14FormatterTypeE14WriteZeroValueEPNS2_12StringWriterE
                0x0000000066129ce0       0x80 ../build/x64_Release/pmc_tostring.o
                0x0000000066129ce0                Palmtree::Math::Core::Internal::DecimalFromatter::FormatterTypeE::WriteZeroValue(Palmtree::Math::Core::Internal::StringWriter*)
 .text$_ZN8Palmtree4Math4Core8Internal16DecimalFromatter14FormatterTypeE16FormatInternallyEPNS2_19__tag_NUMBER_HEADEREPNS2_12StringWriterE
                0x0000000066129d60      0x1f0 ../build/x64_Release/pmc_tostring.o
                0x0000000066129d60                Palmtree::Math::Core::Internal::DecimalFromatter::FormatterTypeE::FormatInternally(Palmtree::Math::Core::Internal::__tag_NUMBER_HEADER*, Palmtree::Math::Core::Internal::StringWriter*)
 .text$_ZN8Palmtree4Math4Core8Internal16DecimalFromatter14FormatterTypeE20FormatNumberSequenceEPKwPNS2_12StringWriterE
                0x0000000066129f50       0xe0 ../build/x64_Release/pmc_tostring.o
                0x0000000066129f50                Palmtree::Math::Core::Internal::DecimalFromatter::FormatterTypeE::FormatNumberSequence(wchar_t const*, Palmtree::Math::Core::Internal::StringWriter*)
 .text$_ZN8Palmtree4Math4Core8Internal16DecimalFromatter14FormatterTypeE24GetDefaultPrecisionValueEv
                0x000000006612a030       0x10 ../build/x64_Release/pmc_tostring.o
                0x000000006612a030                Palmtree::Math::Core::Internal::DecimalFromatter::FormatterTypeE::GetDefaultPrecisionValue()
 .text$_ZN8Palmtree4Math4Core8Internal16DecimalFromatter14FormatterTypeF11WritePrefixEcPNS2_12StringWriterE
                0x000000006612a040       0x20 ../build/x64_Release/pmc_tostring.o
                0x000000006612a040                Palmtree::Math::Core::Internal::DecimalFromatter::FormatterTypeF::WritePrefix(char, Palmtree::Math::Core::Internal::StringWriter*)
 .text$_ZN8Palmtree4Math4Core8Internal16DecimalFromatter14FormatterTypeF11WriteSuffixEcPNS2_12StringWriterE
                0x000000006612a060       0x10 ../build/x64_Release/pmc_tostring.o
                0x000000006612a060                Palmtree::Math::Core::Internal::DecimalFromatter::FormatterTypeF::WriteSuffix(char, Palmtree::Math::Core::Internal::StringWriter*)
 .text$_ZN8Palmtree4Math4Core8Internal16DecimalFromatter14FormatterTypeF14WriteZeroValueEPNS2_12StringWriterE
                0x000000006612a070       0x60 ../build/x64_Release/pmc_tostring.o
                0x000000006612a070                Palmtree::Math::Core::Internal::DecimalFromatter::FormatterTypeF::WriteZeroValue(Palmtree::Math::Core::Internal::StringWriter*)
 .text$_ZN8Palmtree4Math4Core8Internal16DecimalFromatter14FormatterTypeF20FormatNumberSequenceEPKwPNS2_12StringWriterE
                0x000000006612a0d0       0x60 ../build/x64_Release/pmc_tostring.o
                0x000000006612a0d0                Palmtree::Math::Core::Internal::DecimalFromatter::FormatterTypeF::FormatNumberSequence(wchar_t const*, Palmtree::Math::Core::Internal::StringWriter*)
 .text$_ZN8Palmtree4Math4Core8Internal16DecimalFromatter14FormatterTypeF24GetDefaultPrecisionValueEv
                0x000000006612a130       0x10 ../build/x64_Release/pmc_tostring.o
                0x000000006612a130                Palmtree::Math::Core::Internal::DecimalFromatter::FormatterTypeF::GetDefaultPrecisionValue()
 .text$_ZN8Palmtree4Math4Core8Internal16DecimalFromatter14FormatterTypeN11WritePrefixEcPNS2_12StringWriterE
                0x000000006612a140       0x90 ../build/x64_Release/pmc_tostring.o
                0x000000006612a140                Palmtree::Math::Core::Internal::DecimalFromatter::FormatterTypeN::WritePrefix(char, Palmtree::Math::Core::Internal::StringWriter*)
 .text$_ZN8Palmtree4Math4Core8Internal16DecimalFromatter14FormatterTypeN11WriteSuffixEcPNS2_12StringWriterE
                0x000000006612a1d0       0x80 ../build/x64_Release/pmc_tostring.o
                0x000000006612a1d0                Palmtree::Math::Core::Internal::DecimalFromatter::FormatterTypeN::WriteSuffix(char, Palmtree::Math::Core::Internal::StringWriter*)
 .text$_ZN8Palmtree4Math4Core8Internal16DecimalFromatter14FormatterTypeN14WriteZeroValueEPNS2_12StringWriterE
                0x000000006612a250       0x60 ../build/x64_Release/pmc_tostring.o
                0x000000006612a250                Palmtree::Math::Core::Internal::DecimalFromatter::FormatterTypeN::WriteZeroValue(Palmtree::Math::Core::Internal::StringWriter*)
 .text$_ZN8Palmtree4Math4Core8Internal16DecimalFromatter14FormatterTypeN20FormatNumberSequenceEPKwPNS2_12StringWriterE
                0x000000006612a2b0      0x290 ../build/x64_Release/pmc_tostring.o
                0x000000006612a2b0                Palmtree::Math::Core::Internal::DecimalFromatter::FormatterTypeN::FormatNumberSequence(wchar_t const*, Palmtree::Math::Core::Internal::StringWriter*)
 .text$_ZN8Palmtree4Math4Core8Internal16DecimalFromatter14FormatterTypeN24GetDefaultPrecisionValueEv
                0x000000006612a540       0x10 ../build/x64_Release/pmc_tostring.o
                0x000000006612a540                Palmtree::Math::Core::Internal::DecimalFromatter::FormatterTypeN::GetDefaultPrecisionValue()
 .text$_ZN8Palmtree4Math4Core8Internal16DecimalFromatter14FormatterTypeP11WritePrefixEcPNS2_12StringWriterE
                0x000000006612a550      0x140 ../build/x64_Release/pmc_tostring.o
                0x000000006612a550                Palmtree::Math::Core::Internal::DecimalFromatter::FormatterTypeP::WritePrefix(char, Palmtree::Math::Core::Internal::StringWriter*)
 .text$_ZN8Palmtree4Math4Core8Internal16DecimalFromatter14FormatterTypeP11WriteSuffixEcPNS2_12StringWriterE
                0x000000006612a690      0x100 ../build/x64_Release/pmc_tostring.o
                0x000000006612a690                Palmtree::Math::Core::Internal::DecimalFromatter::FormatterTypeP::WriteSuffix(char, Palmtree::Math::Core::Internal::StringWriter*)
 .text$_ZN8Palmtree4Math4Core8Internal16DecimalFromatter14FormatterTypeP14WriteZeroValueEPNS2_12StringWriterE
                0x000000006612a790       0x60 ../build/x64_Release/pmc_tostring.o
                0x000000006612a790                Palmtree::Math::Core::Internal::DecimalFromatter::FormatterTypeP::WriteZeroValue(Palmtree::Math::Core::Internal::StringWriter*)
 .text$_ZN8Palmtree4Math4Core8Internal16DecimalFromatter14FormatterTypeP16FormatInternallyEPNS2_19__tag_NUMBER_HEADEREPNS2_12StringWriterE
                0x000000006612a7f0       0x70 ../build/x64_Release/pmc_tostring.o
                0x000000006612a7f0                Palmtree::Math::Core::Internal::DecimalFromatter::FormatterTypeP::FormatInternally(Palmtree::Math::Core::Internal::__tag_NUMBER_HEADER*, Palmtree::Math::Core::Internal::StringWriter*)
 .text$_ZN8Palmtree4Math4Core8Internal16DecimalFromatter14FormatterTypeP20FormatNumberSequenceEPKwPNS2_12StringWriterE
                0x000000006612a860      0x290 ../build/x64_Release/pmc_tostring.o
                0x000000006612a860                Palmtree::Math::Core::Internal::DecimalFromatter::FormatterTypeP::FormatNumberSequence(wchar_t const*, Palmtree::Math::Core::Internal::StringWriter*)
 .text$_ZN8Palmtree4Math4Core8Internal16DecimalFromatter14FormatterTypeP24GetDefaultPrecisionValueEv
                0x000000006612aaf0       0x10 ../build/x64_Release/pmc_tostring.o
                0x000000006612aaf0                Palmtree::Math::Core::Internal::DecimalFromatter::FormatterTypeP::GetDefaultPrecisionValue()
 .text$_ZN8Palmtree4Math4Core8Internal16DecimalFromatter29ThousandSeparatedStringWriter5WriteEPKw
                0x000000006612ab00       0xd0 ../build/x64_Release/pmc_tostring.o
                0x000000006612ab00                Palmtree::Math::Core::Internal::DecimalFromatter::ThousandSeparatedStringWriter::Write(wchar_t const*)
 .text$_ZN8Palmtree4Math4Core8Internal16DecimalFromatter29ThousandSeparatedStringWriter5WriteEw
                0x000000006612abd0       0x90 ../build/x64_Release/pmc_tostring.o
                0x000000006612abd0                Palmtree::Math::Core::Internal::DecimalFromatter::ThousandSeparatedStringWriter::Write(wchar_t)
 .text$_ZN8Palmtree4Math4Core8Internal16DecimalFromatter29ThousandSeparatedStringWriter9GetStringEv
                0x000000006612ac60       0x10 ../build/x64_Release/pmc_tostring.o
                0x000000006612ac60                Palmtree::Math::Core::Internal::DecimalFromatter::ThousandSeparatedStringWriter::GetString()
 .text$_ZN8Palmtree4Math4Core8Internal16DecimalFromatter9Formatter16FormatInternallyEPNS2_19__tag_NUMBER_HEADEREPNS2_12StringWriterE
                0x000000006612ac70      0x9f0 ../build/x64_Release/pmc_tostring.o
                0x000000006612ac70                Palmtree::Math::Core::Internal::DecimalFromatter::Formatter::FormatInternally(Palmtree::Math::Core::Internal::__tag_NUMBER_HEADER*, Palmtree::Math::Core::Internal::StringWriter*)
 .text$_ZN8Palmtree4Math4Core8Internal16DecimalFromatter9Formatter6FormatEcPNS2_19__tag_NUMBER_HEADEREPNS2_12StringWriterE
                0x000000006612b660       0xf0 ../build/x64_Release/pmc_tostring.o
                0x000000006612b660                Palmtree::Math::Core::Internal::DecimalFromatter::Formatter::Format(char, Palmtree::Math::Core::Internal::__tag_NUMBER_HEADER*, Palmtree::Math::Core::Internal::StringWriter*)
 .text$_ZN8Palmtree4Math4Core8Internal17ArgumentExceptionD0Ev
                0x000000006612b750       0x30 ../build/x64_Release/pmc_memory.o
                0x000000006612b750                Palmtree::Math::Core::Internal::ArgumentException::~ArgumentException()
 .text$_ZN8Palmtree4Math4Core8Internal17ArgumentExceptionD1Ev
                0x000000006612b780       0x10 ../build/x64_Release/pmc_memory.o
                0x000000006612b780                Palmtree::Math::Core::Internal::ArgumentException::~ArgumentException()
 .text$_ZN8Palmtree4Math4Core8Internal17OverflowExceptionD0Ev
                0x000000006612b790       0x30 ../build/x64_Release/pmc_pow.o
                0x000000006612b790                Palmtree::Math::Core::Internal::OverflowException::~OverflowException()
 .text$_ZN8Palmtree4Math4Core8Internal17OverflowExceptionD1Ev
                0x000000006612b7c0       0x10 ../build/x64_Release/pmc_pow.o
                0x000000006612b7c0                Palmtree::Math::Core::Internal::OverflowException::~OverflowException()
 .text$_ZN8Palmtree4Math4Core8Internal18BadBufferExceptionD0Ev
                0x000000006612b7d0       0x30 ../build/x64_Release/pmc_memory.o
                0x000000006612b7d0                Palmtree::Math::Core::Internal::BadBufferException::~BadBufferException()
 .text$_ZN8Palmtree4Math4Core8Internal18BadBufferExceptionD1Ev
                0x000000006612b800       0x10 ../build/x64_Release/pmc_memory.o
                0x000000006612b800                Palmtree::Math::Core::Internal::BadBufferException::~BadBufferException()
 .text$_ZN8Palmtree4Math4Core8Internal19ArithmeticExceptionD0Ev
                0x000000006612b810       0x30 ../build/x64_Release/pmc_greatestcommondivisor.o
                0x000000006612b810                Palmtree::Math::Core::Internal::ArithmeticException::~ArithmeticException()
 .text$_ZN8Palmtree4Math4Core8Internal19ArithmeticExceptionD1Ev
                0x000000006612b840       0x10 ../build/x64_Release/pmc_greatestcommondivisor.o
                0x000000006612b840                Palmtree::Math::Core::Internal::ArithmeticException::~ArithmeticException()
 .text$_ZN8Palmtree4Math4Core8Internal19ReverseStringReader10SkipStringEPKw
                0x000000006612b850       0xb0 ../build/x64_Release/pmc_tostring.o
                0x000000006612b850                Palmtree::Math::Core::Internal::ReverseStringReader::SkipString(wchar_t const*)
 .text$_ZN8Palmtree4Math4Core8Internal19ReverseStringReader10StartsWithEPKw
                0x000000006612b900       0x50 ../build/x64_Release/pmc_tostring.o
                0x000000006612b900                Palmtree::Math::Core::Internal::ReverseStringReader::StartsWith(wchar_t const*)
 .text$_ZN8Palmtree4Math4Core8Internal19ReverseStringReader8PeekCharEv
                0x000000006612b950       0x10 ../build/x64_Release/pmc_tostring.o
                0x000000006612b950                Palmtree::Math::Core::Internal::ReverseStringReader::PeekChar()
 .text$_ZN8Palmtree4Math4Core8Internal19ReverseStringReader8ProgressEv
                0x000000006612b960       0x30 ../build/x64_Release/pmc_tostring.o
                0x000000006612b960                Palmtree::Math::Core::Internal::ReverseStringReader::Progress()
 .text$_ZN8Palmtree4Math4Core8Internal19ReverseStringWriter5WriteEPKw
                0x000000006612b990       0xc0 ../build/x64_Release/pmc_tostring.o
                0x000000006612b990                Palmtree::Math::Core::Internal::ReverseStringWriter::Write(wchar_t const*)
 .text$_ZN8Palmtree4Math4Core8Internal19ReverseStringWriter5WriteEw
                0x000000006612ba50       0x30 ../build/x64_Release/pmc_tostring.o
                0x000000006612ba50                Palmtree::Math::Core::Internal::ReverseStringWriter::Write(wchar_t)
 .text$_ZN8Palmtree4Math4Core8Internal19ReverseStringWriter9GetStringEv
                0x000000006612ba80       0x10 ../build/x64_Release/pmc_tostring.o
                0x000000006612ba80                Palmtree::Math::Core::Internal::ReverseStringWriter::GetString()
 .text$_ZN8Palmtree4Math4Core8Internal21ArgumentNullExceptionD0Ev
                0x000000006612ba90       0x30 ../build/x64_Release/pmc_add.o
                0x000000006612ba90                Palmtree::Math::Core::Internal::ArgumentNullException::~ArgumentNullException()
 .text$_ZN8Palmtree4Math4Core8Internal21ArgumentNullExceptionD1Ev
                0x000000006612bac0       0x10 ../build/x64_Release/pmc_add.o
                0x000000006612bac0                Palmtree::Math::Core::Internal::ArgumentNullException::~ArgumentNullException()
 .text$_ZN8Palmtree4Math4Core8Internal21NotSupportedExceptionD0Ev
                0x000000006612bad0       0x30 ../build/x64_Release/pmc_tostring.o
                0x000000006612bad0                Palmtree::Math::Core::Internal::NotSupportedException::~NotSupportedException()
 .text$_ZN8Palmtree4Math4Core8Internal21NotSupportedExceptionD1Ev
                0x000000006612bb00       0x10 ../build/x64_Release/pmc_tostring.o
                0x000000006612bb00                Palmtree::Math::Core::Internal::NotSupportedException::~NotSupportedException()
 .text$_ZN8Palmtree4Math4Core8Internal22InternalErrorExceptionD0Ev
                0x000000006612bb10       0x30 ../build/x64_Release/pmc_add.o
                0x000000006612bb10                Palmtree::Math::Core::Internal::InternalErrorException::~InternalErrorException()
 .text$_ZN8Palmtree4Math4Core8Internal22InternalErrorExceptionD1Ev
                0x000000006612bb40       0x10 ../build/x64_Release/pmc_add.o
                0x000000006612bb40                Palmtree::Math::Core::Internal::InternalErrorException::~InternalErrorException()
 .text$_ZN8Palmtree4Math4Core8Internal23DivisionByZeroExceptionD0Ev
                0x000000006612bb50       0x30 ../build/x64_Release/pmc_divrem.o
                0x000000006612bb50                Palmtree::Math::Core::Internal::DivisionByZeroException::~DivisionByZeroException()
 .text$_ZN8Palmtree4Math4Core8Internal23DivisionByZeroExceptionD1Ev
                0x000000006612bb80       0x10 ../build/x64_Release/pmc_divrem.o
                0x000000006612bb80                Palmtree::Math::Core::Internal::DivisionByZeroException::~DivisionByZeroException()
 .text$_ZN8Palmtree4Math4Core8Internal24NotEnoughMemoryExceptionD0Ev
                0x000000006612bb90       0x30 ../build/x64_Release/pmc_memory.o
                0x000000006612bb90                Palmtree::Math::Core::Internal::NotEnoughMemoryException::~NotEnoughMemoryException()
 .text$_ZN8Palmtree4Math4Core8Internal24NotEnoughMemoryExceptionD1Ev
                0x000000006612bbc0       0x10 ../build/x64_Release/pmc_memory.o
                0x000000006612bbc0                Palmtree::Math::Core::Internal::NotEnoughMemoryException::~NotEnoughMemoryException()
 .text$_ZN8Palmtree4Math4Core8Internal27InsufficientBufferExceptionD0Ev
                0x000000006612bbd0       0x30 ../build/x64_Release/pmc_bytes.o
                0x000000006612bbd0                Palmtree::Math::Core::Internal::InsufficientBufferException::~InsufficientBufferException()
 .text$_ZN8Palmtree4Math4Core8Internal27InsufficientBufferExceptionD1Ev
                0x000000006612bc00       0x10 ../build/x64_Release/pmc_bytes.o
                0x000000006612bc00                Palmtree::Math::Core::Internal::InsufficientBufferException::~InsufficientBufferException()
 .text$_ZN8Palmtree4Math4Core8Internal9ExceptionD0Ev
                0x000000006612bc10       0x30 ../build/x64_Release/pmc_add.o
                0x000000006612bc10                Palmtree::Math::Core::Internal::Exception::~Exception()
 .text$_ZN8Palmtree4Math4Core8Internal9ExceptionD1Ev
                0x000000006612bc40       0x10 ../build/x64_Release/pmc_add.o
                0x000000006612bc40                Palmtree::Math::Core::Internal::Exception::~Exception()
 .text$_ZN9__gnu_cxx24__concurrence_lock_errorD0Ev
                0x000000006612bc50       0x30 C:/GNU/MINGW64/x86_64-8.1.0-win32-seh-rt_v6-rev0/mingw64/bin/../lib/gcc/x86_64-w64-mingw32/8.1.0\libstdc++.a(eh_alloc.o)
                0x000000006612bc50                __gnu_cxx::__concurrence_lock_error::~__concurrence_lock_error()
 .text$_ZN9__gnu_cxx24__concurrence_lock_errorD1Ev
                0x000000006612bc80       0x10 C:/GNU/MINGW64/x86_64-8.1.0-win32-seh-rt_v6-rev0/mingw64/bin/../lib/gcc/x86_64-w64-mingw32/8.1.0\libstdc++.a(eh_alloc.o)
                0x000000006612bc80                __gnu_cxx::__concurrence_lock_error::~__concurrence_lock_error()
 .text$_ZN9__gnu_cxx26__concurrence_unlock_errorD0Ev
                0x000000006612bc90       0x30 C:/GNU/MINGW64/x86_64-8.1.0-win32-seh-rt_v6-rev0/mingw64/bin/../lib/gcc/x86_64-w64-mingw32/8.1.0\libstdc++.a(eh_alloc.o)
                0x000000006612bc90                __gnu_cxx::__concurrence_unlock_error::~__concurrence_unlock_error()
 .text$_ZN9__gnu_cxx26__concurrence_unlock_errorD1Ev
                0x000000006612bcc0       0x10 C:/GNU/MINGW64/x86_64-8.1.0-win32-seh-rt_v6-rev0/mingw64/bin/../lib/gcc/x86_64-w64-mingw32/8.1.0\libstdc++.a(eh_alloc.o)
                0x000000006612bcc0                __gnu_cxx::__concurrence_unlock_error::~__concurrence_unlock_error()
 .text$_ZN9__gnu_cxx27__verbose_terminate_handlerEv
                0x000000006612bcd0      0x1c0 C:/GNU/MINGW64/x86_64-8.1.0-win32-seh-rt_v6-rev0/mingw64/bin/../lib/gcc/x86_64-w64-mingw32/8.1.0\libstdc++.a(vterminate.o)
                0x000000006612bcd0                __gnu_cxx::__verbose_terminate_handler()
 .text$_ZN9__gnu_cxx30__throw_concurrence_lock_errorEv
                0x000000006612be90       0x30 C:/GNU/MINGW64/x86_64-8.1.0-win32-seh-rt_v6-rev0/mingw64/bin/../lib/gcc/x86_64-w64-mingw32/8.1.0\libstdc++.a(eh_alloc.o)
                0x000000006612be90                __gnu_cxx::__throw_concurrence_lock_error()
 .text$_ZN9__gnu_cxx32__throw_concurrence_unlock_errorEv
                0x000000006612bec0       0x30 C:/GNU/MINGW64/x86_64-8.1.0-win32-seh-rt_v6-rev0/mingw64/bin/../lib/gcc/x86_64-w64-mingw32/8.1.0\libstdc++.a(eh_alloc.o)
                0x000000006612bec0                __gnu_cxx::__throw_concurrence_unlock_error()
 .text$_ZN9__gnu_cxx9__freeresEv
                0x000000006612bef0       0x30 C:/GNU/MINGW64/x86_64-8.1.0-win32-seh-rt_v6-rev0/mingw64/bin/../lib/gcc/x86_64-w64-mingw32/8.1.0\libstdc++.a(eh_alloc.o)
                0x000000006612bef0                __gnu_cxx::__freeres()
 .text$_ZNK10__cxxabiv117__class_type_info10__do_catchEPKSt9type_infoPPvj
                0x000000006612bf20       0x50 C:/GNU/MINGW64/x86_64-8.1.0-win32-seh-rt_v6-rev0/mingw64/bin/../lib/gcc/x86_64-w64-mingw32/8.1.0\libstdc++.a(class_type_info.o)
                0x000000006612bf20                __cxxabiv1::__class_type_info::__do_catch(std::type_info const*, void**, unsigned int) const
 .text$_ZNK10__cxxabiv117__class_type_info11__do_upcastEPKS0_PKvRNS0_15__upcast_resultE
                0x000000006612bf70       0x30 C:/GNU/MINGW64/x86_64-8.1.0-win32-seh-rt_v6-rev0/mingw64/bin/../lib/gcc/x86_64-w64-mingw32/8.1.0\libstdc++.a(class_type_info.o)
                0x000000006612bf70                __cxxabiv1::__class_type_info::__do_upcast(__cxxabiv1::__class_type_info const*, void const*, __cxxabiv1::__class_type_info::__upcast_result&) const
 .text$_ZNK10__cxxabiv117__class_type_info11__do_upcastEPKS0_PPv
                0x000000006612bfa0       0x60 C:/GNU/MINGW64/x86_64-8.1.0-win32-seh-rt_v6-rev0/mingw64/bin/../lib/gcc/x86_64-w64-mingw32/8.1.0\libstdc++.a(class_type_info.o)
                0x000000006612bfa0                __cxxabiv1::__class_type_info::__do_upcast(__cxxabiv1::__class_type_info const*, void**) const
 .text$_ZNK10__cxxabiv117__class_type_info12__do_dyncastExNS0_10__sub_kindEPKS0_PKvS3_S5_RNS0_16__dyncast_resultE
                0x000000006612c000       0x80 C:/GNU/MINGW64/x86_64-8.1.0-win32-seh-rt_v6-rev0/mingw64/bin/../lib/gcc/x86_64-w64-mingw32/8.1.0\libstdc++.a(class_type_info.o)
                0x000000006612c000                __cxxabiv1::__class_type_info::__do_dyncast(long long, __cxxabiv1::__class_type_info::__sub_kind, __cxxabiv1::__class_type_info const*, void const*, __cxxabiv1::__class_type_info const*, void const*, __cxxabiv1::__class_type_info::__dyncast_result&) const
 .text$_ZNK10__cxxabiv117__class_type_info20__do_find_public_srcExPKvPKS0_S2_
                0x000000006612c080       0x10 C:/GNU/MINGW64/x86_64-8.1.0-win32-seh-rt_v6-rev0/mingw64/bin/../lib/gcc/x86_64-w64-mingw32/8.1.0\libstdc++.a(class_type_info.o)
                0x000000006612c080                __cxxabiv1::__class_type_info::__do_find_public_src(long long, void const*, __cxxabiv1::__class_type_info const*, void const*) const
 .text$_ZNK10__cxxabiv120__si_class_type_info11__do_upcastEPKNS_17__class_type_infoEPKvRNS1_15__upcast_resultE
                0x000000006612c090       0x50 C:/GNU/MINGW64/x86_64-8.1.0-win32-seh-rt_v6-rev0/mingw64/bin/../lib/gcc/x86_64-w64-mingw32/8.1.0\libstdc++.a(si_class_type_info.o)
                0x000000006612c090                __cxxabiv1::__si_class_type_info::__do_upcast(__cxxabiv1::__class_type_info const*, void const*, __cxxabiv1::__class_type_info::__upcast_result&) const
 .text$_ZNK10__cxxabiv120__si_class_type_info12__do_dyncastExNS_17__class_type_info10__sub_kindEPKS1_PKvS4_S6_RNS1_16__dyncast_resultE
                0x000000006612c0e0      0x100 C:/GNU/MINGW64/x86_64-8.1.0-win32-seh-rt_v6-rev0/mingw64/bin/../lib/gcc/x86_64-w64-mingw32/8.1.0\libstdc++.a(si_class_type_info.o)
                0x000000006612c0e0                __cxxabiv1::__si_class_type_info::__do_dyncast(long long, __cxxabiv1::__class_type_info::__sub_kind, __cxxabiv1::__class_type_info const*, void const*, __cxxabiv1::__class_type_info const*, void const*, __cxxabiv1::__class_type_info::__dyncast_result&) const
 .text$_ZNK10__cxxabiv120__si_class_type_info20__do_find_public_srcExPKvPKNS_17__class_type_infoES2_
                0x000000006612c1e0       0x70 C:/GNU/MINGW64/x86_64-8.1.0-win32-seh-rt_v6-rev0/mingw64/bin/../lib/gcc/x86_64-w64-mingw32/8.1.0\libstdc++.a(si_class_type_info.o)
                0x000000006612c1e0                __cxxabiv1::__si_class_type_info::__do_find_public_src(long long, void const*, __cxxabiv1::__class_type_info const*, void const*) const
 .text$_ZNK10__cxxabiv121__vmi_class_type_info11__do_upcastEPKNS_17__class_type_infoEPKvRNS1_15__upcast_resultE
                0x000000006612c250      0x220 C:/GNU/MINGW64/x86_64-8.1.0-win32-seh-rt_v6-rev0/mingw64/bin/../lib/gcc/x86_64-w64-mingw32/8.1.0\libstdc++.a(vmi_class_type_info.o)
                0x000000006612c250                __cxxabiv1::__vmi_class_type_info::__do_upcast(__cxxabiv1::__class_type_info const*, void const*, __cxxabiv1::__class_type_info::__upcast_result&) const
 .text$_ZNK10__cxxabiv121__vmi_class_type_info12__do_dyncastExNS_17__class_type_info10__sub_kindEPKS1_PKvS4_S6_RNS1_16__dyncast_resultE
                0x000000006612c470      0x680 C:/GNU/MINGW64/x86_64-8.1.0-win32-seh-rt_v6-rev0/mingw64/bin/../lib/gcc/x86_64-w64-mingw32/8.1.0\libstdc++.a(vmi_class_type_info.o)
                0x000000006612c470                __cxxabiv1::__vmi_class_type_info::__do_dyncast(long long, __cxxabiv1::__class_type_info::__sub_kind, __cxxabiv1::__class_type_info const*, void const*, __cxxabiv1::__class_type_info const*, void const*, __cxxabiv1::__class_type_info::__dyncast_result&) const
 .text$_ZNK10__cxxabiv121__vmi_class_type_info20__do_find_public_srcExPKvPKNS_17__class_type_infoES2_
                0x000000006612caf0       0xd0 C:/GNU/MINGW64/x86_64-8.1.0-win32-seh-rt_v6-rev0/mingw64/bin/../lib/gcc/x86_64-w64-mingw32/8.1.0\libstdc++.a(vmi_class_type_info.o)
                0x000000006612caf0                __cxxabiv1::__vmi_class_type_info::__do_find_public_src(long long, void const*, __cxxabiv1::__class_type_info const*, void const*) const
 .text$_ZNK9__gnu_cxx24__concurrence_lock_error4whatEv
                0x000000006612cbc0       0x10 C:/GNU/MINGW64/x86_64-8.1.0-win32-seh-rt_v6-rev0/mingw64/bin/../lib/gcc/x86_64-w64-mingw32/8.1.0\libstdc++.a(eh_alloc.o)
                0x000000006612cbc0                __gnu_cxx::__concurrence_lock_error::what() const
 .text$_ZNK9__gnu_cxx26__concurrence_unlock_error4whatEv
                0x000000006612cbd0       0x10 C:/GNU/MINGW64/x86_64-8.1.0-win32-seh-rt_v6-rev0/mingw64/bin/../lib/gcc/x86_64-w64-mingw32/8.1.0\libstdc++.a(eh_alloc.o)
                0x000000006612cbd0                __gnu_cxx::__concurrence_unlock_error::what() const
 .text$_ZNKSt13bad_exception4whatEv
                0x000000006612cbe0       0x10 C:/GNU/MINGW64/x86_64-8.1.0-win32-seh-rt_v6-rev0/mingw64/bin/../lib/gcc/x86_64-w64-mingw32/8.1.0\libstdc++.a(eh_exception.o)
                0x000000006612cbe0                std::bad_exception::what() const
                0x000000006612cbe0                transaction clone for std::bad_exception::what() const
 .text$_ZNKSt9bad_alloc4whatEv
                0x000000006612cbf0       0x10 C:/GNU/MINGW64/x86_64-8.1.0-win32-seh-rt_v6-rev0/mingw64/bin/../lib/gcc/x86_64-w64-mingw32/8.1.0\libstdc++.a(bad_alloc.o)
                0x000000006612cbf0                std::bad_alloc::what() const
 .text$_ZNKSt9exception4whatEv
                0x000000006612cc00       0x10 C:/GNU/MINGW64/x86_64-8.1.0-win32-seh-rt_v6-rev0/mingw64/bin/../lib/gcc/x86_64-w64-mingw32/8.1.0\libstdc++.a(eh_exception.o)
                0x000000006612cc00                std::exception::what() const
                0x000000006612cc00                transaction clone for std::exception::what() const
 .text$_ZNKSt9type_info10__do_catchEPKS_PPvj
                0x000000006612cc10       0x10 C:/GNU/MINGW64/x86_64-8.1.0-win32-seh-rt_v6-rev0/mingw64/bin/../lib/gcc/x86_64-w64-mingw32/8.1.0\libstdc++.a(tinfo.o)
                0x000000006612cc10                std::type_info::__do_catch(std::type_info const*, void**, unsigned int) const
 .text$_ZNKSt9type_info11__do_upcastEPKN10__cxxabiv117__class_type_infoEPPv
                0x000000006612cc20       0x10 C:/GNU/MINGW64/x86_64-8.1.0-win32-seh-rt_v6-rev0/mingw64/bin/../lib/gcc/x86_64-w64-mingw32/8.1.0\libstdc++.a(tinfo.o)
                0x000000006612cc20                std::type_info::__do_upcast(__cxxabiv1::__class_type_info const*, void**) const
 .text$_ZNKSt9type_info14__is_pointer_pEv
                0x000000006612cc30       0x10 C:/GNU/MINGW64/x86_64-8.1.0-win32-seh-rt_v6-rev0/mingw64/bin/../lib/gcc/x86_64-w64-mingw32/8.1.0\libstdc++.a(tinfo.o)
                0x000000006612cc30                std::type_info::__is_pointer_p() const
                0x000000006612cc30                std::type_info::__is_function_p() const
 .text$_ZNKSt9type_infoeqERKS_
                0x000000006612cc40       0x40 C:/GNU/MINGW64/x86_64-8.1.0-win32-seh-rt_v6-rev0/mingw64/bin/../lib/gcc/x86_64-w64-mingw32/8.1.0\libstdc++.a(tinfo.o)
                0x000000006612cc40                std::type_info::operator==(std::type_info const&) const
 .text$_ZNSt13bad_exceptionD0Ev
                0x000000006612cc80       0x10 C:/GNU/MINGW64/x86_64-8.1.0-win32-seh-rt_v6-rev0/mingw64/bin/../lib/gcc/x86_64-w64-mingw32/8.1.0\libstdc++.a(eh_exception.o)
                0x000000006612cc80                std::bad_exception::~bad_exception()
 .text$_ZNSt13bad_exceptionD2Ev
                0x000000006612cc90       0x10 C:/GNU/MINGW64/x86_64-8.1.0-win32-seh-rt_v6-rev0/mingw64/bin/../lib/gcc/x86_64-w64-mingw32/8.1.0\libstdc++.a(eh_exception.o)
                0x000000006612cc90                std::bad_exception::~bad_exception()
                0x000000006612cc90                std::bad_exception::~bad_exception()
 .text$_ZNSt9bad_allocD0Ev
                0x000000006612cca0       0x30 C:/GNU/MINGW64/x86_64-8.1.0-win32-seh-rt_v6-rev0/mingw64/bin/../lib/gcc/x86_64-w64-mingw32/8.1.0\libstdc++.a(bad_alloc.o)
                0x000000006612cca0                std::bad_alloc::~bad_alloc()
 .text$_ZNSt9bad_allocD2Ev
                0x000000006612ccd0       0x10 C:/GNU/MINGW64/x86_64-8.1.0-win32-seh-rt_v6-rev0/mingw64/bin/../lib/gcc/x86_64-w64-mingw32/8.1.0\libstdc++.a(bad_alloc.o)
                0x000000006612ccd0                std::bad_alloc::~bad_alloc()
                0x000000006612ccd0                std::bad_alloc::~bad_alloc()
 .text$_ZNSt9exceptionD0Ev
                0x000000006612cce0       0x10 C:/GNU/MINGW64/x86_64-8.1.0-win32-seh-rt_v6-rev0/mingw64/bin/../lib/gcc/x86_64-w64-mingw32/8.1.0\libstdc++.a(eh_exception.o)
                0x000000006612cce0                std::exception::~exception()
 .text$_ZNSt9exceptionD2Ev
                0x000000006612ccf0       0x10 C:/GNU/MINGW64/x86_64-8.1.0-win32-seh-rt_v6-rev0/mingw64/bin/../lib/gcc/x86_64-w64-mingw32/8.1.0\libstdc++.a(eh_exception.o)
                0x000000006612ccf0                std::exception::~exception()
                0x000000006612ccf0                std::exception::~exception()
 .text$_ZNSt9type_infoD0Ev
                0x000000006612cd00       0x10 C:/GNU/MINGW64/x86_64-8.1.0-win32-seh-rt_v6-rev0/mingw64/bin/../lib/gcc/x86_64-w64-mingw32/8.1.0\libstdc++.a(tinfo.o)
                0x000000006612cd00                std::type_info::~type_info()
 .text$_ZNSt9type_infoD2Ev
                0x000000006612cd10       0x10 C:/GNU/MINGW64/x86_64-8.1.0-win32-seh-rt_v6-rev0/mingw64/bin/../lib/gcc/x86_64-w64-mingw32/8.1.0\libstdc++.a(tinfo.o)
                0x000000006612cd10                std::type_info::~type_info()
                0x000000006612cd10                std::type_info::~type_info()
 .text$_ZSt10unexpectedv
                0x000000006612cd20       0x20 C:/GNU/MINGW64/x86_64-8.1.0-win32-seh-rt_v6-rev0/mingw64/bin/../lib/gcc/x86_64-w64-mingw32/8.1.0\libstdc++.a(eh_terminate.o)
                0x000000006612cd20                std::unexpected()
 .text$_ZSt13get_terminatev
                0x000000006612cd40       0x10 C:/GNU/MINGW64/x86_64-8.1.0-win32-seh-rt_v6-rev0/mingw64/bin/../lib/gcc/x86_64-w64-mingw32/8.1.0\libstdc++.a(eh_terminate.o)
                0x000000006612cd40                std::get_terminate()
 .text$_ZSt13set_terminatePFvvE
                0x000000006612cd50       0x10 C:/GNU/MINGW64/x86_64-8.1.0-win32-seh-rt_v6-rev0/mingw64/bin/../lib/gcc/x86_64-w64-mingw32/8.1.0\libstdc++.a(eh_terminate.o)
                0x000000006612cd50                std::set_terminate(void (*)())
 .text$_ZSt14get_unexpectedv
                0x000000006612cd60       0x10 C:/GNU/MINGW64/x86_64-8.1.0-win32-seh-rt_v6-rev0/mingw64/bin/../lib/gcc/x86_64-w64-mingw32/8.1.0\libstdc++.a(eh_terminate.o)
                0x000000006612cd60                std::get_unexpected()
 .text$_ZSt14set_unexpectedPFvvE
                0x000000006612cd70       0x10 C:/GNU/MINGW64/x86_64-8.1.0-win32-seh-rt_v6-rev0/mingw64/bin/../lib/gcc/x86_64-w64-mingw32/8.1.0\libstdc++.a(eh_terminate.o)
                0x000000006612cd70                std::set_unexpected(void (*)())
 .text$_ZSt15get_new_handlerv
                0x000000006612cd80       0x10 C:/GNU/MINGW64/x86_64-8.1.0-win32-seh-rt_v6-rev0/mingw64/bin/../lib/gcc/x86_64-w64-mingw32/8.1.0\libstdc++.a(new_handler.o)
                0x000000006612cd80                std::get_new_handler()
 .text$_ZSt15set_new_handlerPFvvE
                0x000000006612cd90       0x10 C:/GNU/MINGW64/x86_64-8.1.0-win32-seh-rt_v6-rev0/mingw64/bin/../lib/gcc/x86_64-w64-mingw32/8.1.0\libstdc++.a(new_handler.o)
                0x000000006612cd90                std::set_new_handler(void (*)())
 .text$_ZSt18uncaught_exceptionv
                0x000000006612cda0       0x20 C:/GNU/MINGW64/x86_64-8.1.0-win32-seh-rt_v6-rev0/mingw64/bin/../lib/gcc/x86_64-w64-mingw32/8.1.0\libstdc++.a(eh_catch.o)
                0x000000006612cda0                std::uncaught_exception()
 .text$_ZSt19uncaught_exceptionsv
                0x000000006612cdc0       0x20 C:/GNU/MINGW64/x86_64-8.1.0-win32-seh-rt_v6-rev0/mingw64/bin/../lib/gcc/x86_64-w64-mingw32/8.1.0\libstdc++.a(eh_catch.o)
                0x000000006612cdc0                std::uncaught_exceptions()
 .text$_ZSt9terminatev
                0x000000006612cde0       0x20 C:/GNU/MINGW64/x86_64-8.1.0-win32-seh-rt_v6-rev0/mingw64/bin/../lib/gcc/x86_64-w64-mingw32/8.1.0\libstdc++.a(eh_terminate.o)
                0x000000006612cde0                std::terminate()
 .text$_ZdlPv   0x000000006612ce00       0x10 C:/GNU/MINGW64/x86_64-8.1.0-win32-seh-rt_v6-rev0/mingw64/bin/../lib/gcc/x86_64-w64-mingw32/8.1.0\libstdc++.a(del_op.o)
                0x000000006612ce00                operator delete(void*)
 .text$_ZdlPvy  0x000000006612ce10       0x10 C:/GNU/MINGW64/x86_64-8.1.0-win32-seh-rt_v6-rev0/mingw64/bin/../lib/gcc/x86_64-w64-mingw32/8.1.0\libstdc++.a(del_ops.o)
                0x000000006612ce10                operator delete(void*, unsigned long long)
 .text$_Znwy    0x000000006612ce20       0x70 C:/GNU/MINGW64/x86_64-8.1.0-win32-seh-rt_v6-rev0/mingw64/bin/../lib/gcc/x86_64-w64-mingw32/8.1.0\libstdc++.a(new_op.o)
                0x000000006612ce20                operator new(unsigned long long)
 .text$__cxa_allocate_dependent_exception
                0x000000006612ce90       0x50 C:/GNU/MINGW64/x86_64-8.1.0-win32-seh-rt_v6-rev0/mingw64/bin/../lib/gcc/x86_64-w64-mingw32/8.1.0\libstdc++.a(eh_alloc.o)
                0x000000006612ce90                __cxa_allocate_dependent_exception
 .text$__cxa_allocate_exception
                0x000000006612cee0       0x60 C:/GNU/MINGW64/x86_64-8.1.0-win32-seh-rt_v6-rev0/mingw64/bin/../lib/gcc/x86_64-w64-mingw32/8.1.0\libstdc++.a(eh_alloc.o)
                0x000000006612cee0                __cxa_allocate_exception
 .text$__cxa_begin_catch
                0x000000006612cf40       0x80 C:/GNU/MINGW64/x86_64-8.1.0-win32-seh-rt_v6-rev0/mingw64/bin/../lib/gcc/x86_64-w64-mingw32/8.1.0\libstdc++.a(eh_catch.o)
                0x000000006612cf40                __cxa_begin_catch
 .text$__cxa_call_terminate
                0x000000006612cfc0       0x40 C:/GNU/MINGW64/x86_64-8.1.0-win32-seh-rt_v6-rev0/mingw64/bin/../lib/gcc/x86_64-w64-mingw32/8.1.0\libstdc++.a(eh_call.o)
                0x000000006612cfc0                __cxa_call_terminate
 .text$__cxa_call_unexpected
                0x000000006612d000       0xf0 C:/GNU/MINGW64/x86_64-8.1.0-win32-seh-rt_v6-rev0/mingw64/bin/../lib/gcc/x86_64-w64-mingw32/8.1.0\libstdc++.a(eh_personality.o)
                0x000000006612d000                __cxa_call_unexpected
 .text$__cxa_current_exception_type
                0x000000006612d0f0       0x40 C:/GNU/MINGW64/x86_64-8.1.0-win32-seh-rt_v6-rev0/mingw64/bin/../lib/gcc/x86_64-w64-mingw32/8.1.0\libstdc++.a(eh_type.o)
                0x000000006612d0f0                __cxa_current_exception_type
 .text$__cxa_deleted_virtual
                0x000000006612d130       0x30 C:/GNU/MINGW64/x86_64-8.1.0-win32-seh-rt_v6-rev0/mingw64/bin/../lib/gcc/x86_64-w64-mingw32/8.1.0\libstdc++.a(pure.o)
                0x000000006612d130                __cxa_deleted_virtual
 .text$__cxa_end_catch
                0x000000006612d160       0x80 C:/GNU/MINGW64/x86_64-8.1.0-win32-seh-rt_v6-rev0/mingw64/bin/../lib/gcc/x86_64-w64-mingw32/8.1.0\libstdc++.a(eh_catch.o)
                0x000000006612d160                __cxa_end_catch
 .text$__cxa_free_dependent_exception
                0x000000006612d1e0       0x30 C:/GNU/MINGW64/x86_64-8.1.0-win32-seh-rt_v6-rev0/mingw64/bin/../lib/gcc/x86_64-w64-mingw32/8.1.0\libstdc++.a(eh_alloc.o)
                0x000000006612d1e0                __cxa_free_dependent_exception
 .text$__cxa_free_exception
                0x000000006612d210       0x30 C:/GNU/MINGW64/x86_64-8.1.0-win32-seh-rt_v6-rev0/mingw64/bin/../lib/gcc/x86_64-w64-mingw32/8.1.0\libstdc++.a(eh_alloc.o)
                0x000000006612d210                __cxa_free_exception
 .text$__cxa_get_exception_ptr
                0x000000006612d240       0x10 C:/GNU/MINGW64/x86_64-8.1.0-win32-seh-rt_v6-rev0/mingw64/bin/../lib/gcc/x86_64-w64-mingw32/8.1.0\libstdc++.a(eh_catch.o)
                0x000000006612d240                __cxa_get_exception_ptr
 .text$__cxa_get_globals
                0x000000006612d250       0x10 C:/GNU/MINGW64/x86_64-8.1.0-win32-seh-rt_v6-rev0/mingw64/bin/../lib/gcc/x86_64-w64-mingw32/8.1.0\libstdc++.a(eh_globals.o)
                0x000000006612d250                __cxa_get_globals
 .text$__cxa_get_globals_fast
                0x000000006612d260       0x10 C:/GNU/MINGW64/x86_64-8.1.0-win32-seh-rt_v6-rev0/mingw64/bin/../lib/gcc/x86_64-w64-mingw32/8.1.0\libstdc++.a(eh_globals.o)
                0x000000006612d260                __cxa_get_globals_fast
 .text$__cxa_init_primary_exception
                0x000000006612d270       0x60 C:/GNU/MINGW64/x86_64-8.1.0-win32-seh-rt_v6-rev0/mingw64/bin/../lib/gcc/x86_64-w64-mingw32/8.1.0\libstdc++.a(eh_throw.o)
                0x000000006612d270                __cxa_init_primary_exception
 .text$__cxa_pure_virtual
                0x000000006612d2d0       0x30 C:/GNU/MINGW64/x86_64-8.1.0-win32-seh-rt_v6-rev0/mingw64/bin/../lib/gcc/x86_64-w64-mingw32/8.1.0\libstdc++.a(pure.o)
                0x000000006612d2d0                __cxa_pure_virtual
 .text$__cxa_rethrow
                0x000000006612d300       0x50 C:/GNU/MINGW64/x86_64-8.1.0-win32-seh-rt_v6-rev0/mingw64/bin/../lib/gcc/x86_64-w64-mingw32/8.1.0\libstdc++.a(eh_throw.o)
                0x000000006612d300                __cxa_rethrow
 .text$__cxa_throw
                0x000000006612d350       0x80 C:/GNU/MINGW64/x86_64-8.1.0-win32-seh-rt_v6-rev0/mingw64/bin/../lib/gcc/x86_64-w64-mingw32/8.1.0\libstdc++.a(eh_throw.o)
                0x000000006612d350                __cxa_throw
 .text$__gxx_personality_seh0
                0x000000006612d3d0       0x20 C:/GNU/MINGW64/x86_64-8.1.0-win32-seh-rt_v6-rev0/mingw64/bin/../lib/gcc/x86_64-w64-mingw32/8.1.0\libstdc++.a(eh_personality.o)
                0x000000006612d3d0                __gxx_personality_seh0
 .text$__tcf_0  0x000000006612d3f0       0x20 C:/GNU/MINGW64/x86_64-8.1.0-win32-seh-rt_v6-rev0/mingw64/bin/../lib/gcc/x86_64-w64-mingw32/8.1.0\libstdc++.a(eh_alloc.o)
 *(.text.*)
 .text.startup._GLOBAL__sub_I__ZN9__gnu_cxx9__freeresEv
                0x000000006612d410       0x80 C:/GNU/MINGW64/x86_64-8.1.0-win32-seh-rt_v6-rev0/mingw64/bin/../lib/gcc/x86_64-w64-mingw32/8.1.0\libstdc++.a(eh_alloc.o)
 .text.unlikely
                0x000000006612d490       0xb0 C:/GNU/MINGW64/x86_64-8.1.0-win32-seh-rt_v6-rev0/mingw64/bin/../lib/gcc/x86_64-w64-mingw32/8.1.0\libstdc++.a(cp-demangle.o)
 .text.unlikely
                0x000000006612d540       0x70 C:/GNU/MINGW64/x86_64-8.1.0-win32-seh-rt_v6-rev0/mingw64/bin/../lib/gcc/x86_64-w64-mingw32/8.1.0/../../../../x86_64-w64-mingw32/lib/../lib\libmingw32.a(lib64_libmingw32_a-pseudo-reloc.o)
 .text.startup  0x000000006612d5b0       0x10 C:/GNU/MINGW64/x86_64-8.1.0-win32-seh-rt_v6-rev0/mingw64/bin/../lib/gcc/x86_64-w64-mingw32/8.1.0/crtend.o
 *(.gnu.linkonce.t.*)
 *(.glue_7t)
 *(.glue_7)
                0x000000006612d5c0                . = ALIGN (0x8)
                0x000000006612d5c0                ___CTOR_LIST__ = .
                0x000000006612d5c0                __CTOR_LIST__ = .
                0x000000006612d5c0        0x4 LONG 0xffffffffffffffff
                0x000000006612d5c4        0x4 LONG 0xffffffffffffffff
 *(.ctors)
 .ctors         0x000000006612d5c8        0x8 C:/GNU/MINGW64/x86_64-8.1.0-win32-seh-rt_v6-rev0/mingw64/bin/../lib/gcc/x86_64-w64-mingw32/8.1.0\libstdc++.a(eh_alloc.o)
 *(.ctor)
 *(SORT_BY_NAME(.ctors.*))
 .ctors.65535   0x000000006612d5d0        0x8 C:/GNU/MINGW64/x86_64-8.1.0-win32-seh-rt_v6-rev0/mingw64/bin/../lib/gcc/x86_64-w64-mingw32/8.1.0/crtend.o
                0x000000006612d5d8        0x4 LONG 0x0
                0x000000006612d5dc        0x4 LONG 0x0
                0x000000006612d5e0                ___DTOR_LIST__ = .
                0x000000006612d5e0                __DTOR_LIST__ = .
                0x000000006612d5e0        0x4 LONG 0xffffffffffffffff
                0x000000006612d5e4        0x4 LONG 0xffffffffffffffff
 *(.dtors)
 *(.dtor)
 *(SORT_BY_NAME(.dtors.*))
                0x000000006612d5e8        0x4 LONG 0x0
                0x000000006612d5ec        0x4 LONG 0x0
 *(.fini)
 *(.gcc_exc)
                [!provide]                        PROVIDE (etext = .)
 *(.gcc_except_table)

.data           0x000000006612e000      0x200
                0x000000006612e000                __data_start__ = .
 *(.data)
 .data          0x000000006612e000        0x0 C:/GNU/MINGW64/x86_64-8.1.0-win32-seh-rt_v6-rev0/mingw64/bin/../lib/gcc/x86_64-w64-mingw32/8.1.0/../../../../x86_64-w64-mingw32/lib/../lib/dllcrt2.o
 .data          0x000000006612e000        0x0 C:/GNU/MINGW64/x86_64-8.1.0-win32-seh-rt_v6-rev0/mingw64/bin/../lib/gcc/x86_64-w64-mingw32/8.1.0/crtbegin.o
 .data          0x000000006612e000        0x0 ../build/x64_Release/cpuid.o
 .data          0x000000006612e000        0x0 ../build/x64_Release/dllmain.o
 .data          0x000000006612e000        0x0 ../build/x64_Release/pmc_add.o
 .data          0x000000006612e000        0x0 ../build/x64_Release/pmc_bitwiseand.o
 .data          0x000000006612e000        0x0 ../build/x64_Release/pmc_bitwiseor.o
 .data          0x000000006612e000        0x0 ../build/x64_Release/pmc_bytes.o
 .data          0x000000006612e000        0x0 ../build/x64_Release/pmc_compare.o
 .data          0x000000006612e000        0x0 ../build/x64_Release/pmc_divrem.o
 .data          0x000000006612e000        0x0 ../build/x64_Release/pmc_equals.o
 .data          0x000000006612e000        0x0 ../build/x64_Release/pmc_exclusiveor.o
 .data          0x000000006612e000        0x0 ../build/x64_Release/pmc_from.o
 .data          0x000000006612e000        0x0 ../build/x64_Release/pmc_greatestcommondivisor.o
 .data          0x000000006612e000        0x0 ../build/x64_Release/pmc_initialize.o
 .data          0x000000006612e000       0x10 ../build/x64_Release/pmc_interface_csharp.o
 .data          0x000000006612e010       0x10 ../build/x64_Release/pmc_memory.o
 .data          0x000000006612e020        0x0 ../build/x64_Release/pmc_modpow.o
 .data          0x000000006612e020        0x0 ../build/x64_Release/pmc_multiply.o
 .data          0x000000006612e020        0x0 ../build/x64_Release/pmc_parse.o
 .data          0x000000006612e020        0x0 ../build/x64_Release/pmc_pow.o
 .data          0x000000006612e020        0x0 ../build/x64_Release/pmc_shift.o
 .data          0x000000006612e020        0x0 ../build/x64_Release/pmc_statistics.o
 .data          0x000000006612e020        0x0 ../build/x64_Release/pmc_subtruct.o
 .data          0x000000006612e020        0x0 ../build/x64_Release/pmc_to.o
 .data          0x000000006612e020       0x80 ../build/x64_Release/pmc_tostring.o
 .data          0x000000006612e0a0        0x0 C:/GNU/MINGW64/x86_64-8.1.0-win32-seh-rt_v6-rev0/mingw64/bin/../lib/gcc/x86_64-w64-mingw32/8.1.0/../../../../x86_64-w64-mingw32/lib/../lib\libkernel32.a(dqifs01555.o)
 .data          0x000000006612e0a0        0x0 C:/GNU/MINGW64/x86_64-8.1.0-win32-seh-rt_v6-rev0/mingw64/bin/../lib/gcc/x86_64-w64-mingw32/8.1.0/../../../../x86_64-w64-mingw32/lib/../lib\libkernel32.a(dqifs01549.o)
 .data          0x000000006612e0a0        0x0 C:/GNU/MINGW64/x86_64-8.1.0-win32-seh-rt_v6-rev0/mingw64/bin/../lib/gcc/x86_64-w64-mingw32/8.1.0/../../../../x86_64-w64-mingw32/lib/../lib\libkernel32.a(dqifs01543.o)
 .data          0x000000006612e0a0        0x0 C:/GNU/MINGW64/x86_64-8.1.0-win32-seh-rt_v6-rev0/mingw64/bin/../lib/gcc/x86_64-w64-mingw32/8.1.0/../../../../x86_64-w64-mingw32/lib/../lib\libkernel32.a(dqifs01360.o)
 .data          0x000000006612e0a0        0x0 C:/GNU/MINGW64/x86_64-8.1.0-win32-seh-rt_v6-rev0/mingw64/bin/../lib/gcc/x86_64-w64-mingw32/8.1.0/../../../../x86_64-w64-mingw32/lib/../lib\libkernel32.a(dqifs00951.o)
 .data          0x000000006612e0a0        0x0 C:/GNU/MINGW64/x86_64-8.1.0-win32-seh-rt_v6-rev0/mingw64/bin/../lib/gcc/x86_64-w64-mingw32/8.1.0/../../../../x86_64-w64-mingw32/lib/../lib\libkernel32.a(dqifs00863.o)
 .data          0x000000006612e0a0        0x0 C:/GNU/MINGW64/x86_64-8.1.0-win32-seh-rt_v6-rev0/mingw64/bin/../lib/gcc/x86_64-w64-mingw32/8.1.0/../../../../x86_64-w64-mingw32/lib/../lib\libkernel32.a(dqifs00852.o)
 .data          0x000000006612e0a0        0x0 C:/GNU/MINGW64/x86_64-8.1.0-win32-seh-rt_v6-rev0/mingw64/bin/../lib/gcc/x86_64-w64-mingw32/8.1.0/../../../../x86_64-w64-mingw32/lib/../lib\libkernel32.a(dqifs00849.o)
 .data          0x000000006612e0a0        0x0 C:/GNU/MINGW64/x86_64-8.1.0-win32-seh-rt_v6-rev0/mingw64/bin/../lib/gcc/x86_64-w64-mingw32/8.1.0/../../../../x86_64-w64-mingw32/lib/../lib\libkernel32.a(dqifs00842.o)
 .data          0x000000006612e0a0        0x0 C:/GNU/MINGW64/x86_64-8.1.0-win32-seh-rt_v6-rev0/mingw64/bin/../lib/gcc/x86_64-w64-mingw32/8.1.0/../../../../x86_64-w64-mingw32/lib/../lib\libkernel32.a(dqifs00841.o)
 .data          0x000000006612e0a0        0x0 C:/GNU/MINGW64/x86_64-8.1.0-win32-seh-rt_v6-rev0/mingw64/bin/../lib/gcc/x86_64-w64-mingw32/8.1.0/../../../../x86_64-w64-mingw32/lib/../lib\libkernel32.a(dqifs00839.o)
 .data          0x000000006612e0a0        0x0 C:/GNU/MINGW64/x86_64-8.1.0-win32-seh-rt_v6-rev0/mingw64/bin/../lib/gcc/x86_64-w64-mingw32/8.1.0/../../../../x86_64-w64-mingw32/lib/../lib\libkernel32.a(dqifs00837.o)
 .data          0x000000006612e0a0        0x0 C:/GNU/MINGW64/x86_64-8.1.0-win32-seh-rt_v6-rev0/mingw64/bin/../lib/gcc/x86_64-w64-mingw32/8.1.0/../../../../x86_64-w64-mingw32/lib/../lib\libkernel32.a(dqifs00835.o)
 .data          0x000000006612e0a0        0x0 C:/GNU/MINGW64/x86_64-8.1.0-win32-seh-rt_v6-rev0/mingw64/bin/../lib/gcc/x86_64-w64-mingw32/8.1.0/../../../../x86_64-w64-mingw32/lib/../lib\libkernel32.a(dqifs00609.o)
 .data          0x000000006612e0a0        0x0 C:/GNU/MINGW64/x86_64-8.1.0-win32-seh-rt_v6-rev0/mingw64/bin/../lib/gcc/x86_64-w64-mingw32/8.1.0/../../../../x86_64-w64-mingw32/lib/../lib\libkernel32.a(dqifs00304.o)
 .data          0x000000006612e0a0        0x0 C:/GNU/MINGW64/x86_64-8.1.0-win32-seh-rt_v6-rev0/mingw64/bin/../lib/gcc/x86_64-w64-mingw32/8.1.0/../../../../x86_64-w64-mingw32/lib/../lib\libkernel32.a(dqifh.o)
 .data          0x000000006612e0a0        0x0 C:/GNU/MINGW64/x86_64-8.1.0-win32-seh-rt_v6-rev0/mingw64/bin/../lib/gcc/x86_64-w64-mingw32/8.1.0/../../../../x86_64-w64-mingw32/lib/../lib\libkernel32.a(dqift.o)
 .data          0x000000006612e0a0        0x0 C:/GNU/MINGW64/x86_64-8.1.0-win32-seh-rt_v6-rev0/mingw64/bin/../lib/gcc/x86_64-w64-mingw32/8.1.0/../../../../x86_64-w64-mingw32/lib/../lib\libuser32.a(dyqes00958.o)
 .data          0x000000006612e0a0        0x0 C:/GNU/MINGW64/x86_64-8.1.0-win32-seh-rt_v6-rev0/mingw64/bin/../lib/gcc/x86_64-w64-mingw32/8.1.0/../../../../x86_64-w64-mingw32/lib/../lib\libuser32.a(dyqeh.o)
 .data          0x000000006612e0a0        0x0 C:/GNU/MINGW64/x86_64-8.1.0-win32-seh-rt_v6-rev0/mingw64/bin/../lib/gcc/x86_64-w64-mingw32/8.1.0/../../../../x86_64-w64-mingw32/lib/../lib\libuser32.a(dyqet.o)
 .data          0x000000006612e0a0        0x0 C:/GNU/MINGW64/x86_64-8.1.0-win32-seh-rt_v6-rev0/mingw64/bin/../lib/gcc/x86_64-w64-mingw32/8.1.0\libstdc++.a(class_type_info.o)
 .data          0x000000006612e0a0        0x0 C:/GNU/MINGW64/x86_64-8.1.0-win32-seh-rt_v6-rev0/mingw64/bin/../lib/gcc/x86_64-w64-mingw32/8.1.0\libstdc++.a(del_ops.o)
 .data          0x000000006612e0a0        0x0 C:/GNU/MINGW64/x86_64-8.1.0-win32-seh-rt_v6-rev0/mingw64/bin/../lib/gcc/x86_64-w64-mingw32/8.1.0\libstdc++.a(eh_alloc.o)
 .data          0x000000006612e0a0        0x0 C:/GNU/MINGW64/x86_64-8.1.0-win32-seh-rt_v6-rev0/mingw64/bin/../lib/gcc/x86_64-w64-mingw32/8.1.0\libstdc++.a(eh_catch.o)
 .data          0x000000006612e0a0        0x0 C:/GNU/MINGW64/x86_64-8.1.0-win32-seh-rt_v6-rev0/mingw64/bin/../lib/gcc/x86_64-w64-mingw32/8.1.0\libstdc++.a(eh_exception.o)
 .data          0x000000006612e0a0        0x0 C:/GNU/MINGW64/x86_64-8.1.0-win32-seh-rt_v6-rev0/mingw64/bin/../lib/gcc/x86_64-w64-mingw32/8.1.0\libstdc++.a(eh_globals.o)
 .data          0x000000006612e0a0        0x0 C:/GNU/MINGW64/x86_64-8.1.0-win32-seh-rt_v6-rev0/mingw64/bin/../lib/gcc/x86_64-w64-mingw32/8.1.0\libstdc++.a(eh_personality.o)
 .data          0x000000006612e0a0        0x0 C:/GNU/MINGW64/x86_64-8.1.0-win32-seh-rt_v6-rev0/mingw64/bin/../lib/gcc/x86_64-w64-mingw32/8.1.0\libstdc++.a(eh_terminate.o)
 .data          0x000000006612e0a0        0x0 C:/GNU/MINGW64/x86_64-8.1.0-win32-seh-rt_v6-rev0/mingw64/bin/../lib/gcc/x86_64-w64-mingw32/8.1.0\libstdc++.a(eh_term_handler.o)
 .data          0x000000006612e0a0        0x0 C:/GNU/MINGW64/x86_64-8.1.0-win32-seh-rt_v6-rev0/mingw64/bin/../lib/gcc/x86_64-w64-mingw32/8.1.0\libstdc++.a(eh_throw.o)
 .data          0x000000006612e0a0        0x0 C:/GNU/MINGW64/x86_64-8.1.0-win32-seh-rt_v6-rev0/mingw64/bin/../lib/gcc/x86_64-w64-mingw32/8.1.0\libstdc++.a(eh_unex_handler.o)
 .data          0x000000006612e0a0        0x0 C:/GNU/MINGW64/x86_64-8.1.0-win32-seh-rt_v6-rev0/mingw64/bin/../lib/gcc/x86_64-w64-mingw32/8.1.0\libstdc++.a(new_op.o)
 .data          0x000000006612e0a0        0x0 C:/GNU/MINGW64/x86_64-8.1.0-win32-seh-rt_v6-rev0/mingw64/bin/../lib/gcc/x86_64-w64-mingw32/8.1.0\libstdc++.a(pure.o)
 .data          0x000000006612e0a0        0x0 C:/GNU/MINGW64/x86_64-8.1.0-win32-seh-rt_v6-rev0/mingw64/bin/../lib/gcc/x86_64-w64-mingw32/8.1.0\libstdc++.a(si_class_type_info.o)
 .data          0x000000006612e0a0        0x0 C:/GNU/MINGW64/x86_64-8.1.0-win32-seh-rt_v6-rev0/mingw64/bin/../lib/gcc/x86_64-w64-mingw32/8.1.0\libstdc++.a(tinfo.o)
 .data          0x000000006612e0a0        0x0 C:/GNU/MINGW64/x86_64-8.1.0-win32-seh-rt_v6-rev0/mingw64/bin/../lib/gcc/x86_64-w64-mingw32/8.1.0\libstdc++.a(vmi_class_type_info.o)
 .data          0x000000006612e0a0        0x0 C:/GNU/MINGW64/x86_64-8.1.0-win32-seh-rt_v6-rev0/mingw64/bin/../lib/gcc/x86_64-w64-mingw32/8.1.0\libstdc++.a(vterminate.o)
 .data          0x000000006612e0a0        0x0 C:/GNU/MINGW64/x86_64-8.1.0-win32-seh-rt_v6-rev0/mingw64/bin/../lib/gcc/x86_64-w64-mingw32/8.1.0\libstdc++.a(bad_alloc.o)
 .data          0x000000006612e0a0        0x0 C:/GNU/MINGW64/x86_64-8.1.0-win32-seh-rt_v6-rev0/mingw64/bin/../lib/gcc/x86_64-w64-mingw32/8.1.0\libstdc++.a(cp-demangle.o)
 .data          0x000000006612e0a0        0x0 C:/GNU/MINGW64/x86_64-8.1.0-win32-seh-rt_v6-rev0/mingw64/bin/../lib/gcc/x86_64-w64-mingw32/8.1.0\libstdc++.a(del_op.o)
 .data          0x000000006612e0a0        0x0 C:/GNU/MINGW64/x86_64-8.1.0-win32-seh-rt_v6-rev0/mingw64/bin/../lib/gcc/x86_64-w64-mingw32/8.1.0\libstdc++.a(eh_call.o)
 .data          0x000000006612e0a0        0x0 C:/GNU/MINGW64/x86_64-8.1.0-win32-seh-rt_v6-rev0/mingw64/bin/../lib/gcc/x86_64-w64-mingw32/8.1.0\libstdc++.a(eh_type.o)
 .data          0x000000006612e0a0        0x0 C:/GNU/MINGW64/x86_64-8.1.0-win32-seh-rt_v6-rev0/mingw64/bin/../lib/gcc/x86_64-w64-mingw32/8.1.0\libstdc++.a(new_handler.o)
 .data          0x000000006612e0a0       0x10 C:/GNU/MINGW64/x86_64-8.1.0-win32-seh-rt_v6-rev0/mingw64/bin/../lib/gcc/x86_64-w64-mingw32/8.1.0/../../../../x86_64-w64-mingw32/lib/../lib\libmingw32.a(lib64_libmingw32_a-gccmain.o)
 .data          0x000000006612e0b0       0x10 C:/GNU/MINGW64/x86_64-8.1.0-win32-seh-rt_v6-rev0/mingw64/bin/../lib/gcc/x86_64-w64-mingw32/8.1.0/../../../../x86_64-w64-mingw32/lib/../lib\libmingw32.a(lib64_libmingw32_a-natstart.o)
                0x000000006612e0b0                __native_vcclrit_reason
                0x000000006612e0b4                __native_dllmain_reason
 .data          0x000000006612e0c0        0x0 C:/GNU/MINGW64/x86_64-8.1.0-win32-seh-rt_v6-rev0/mingw64/bin/../lib/gcc/x86_64-w64-mingw32/8.1.0/../../../../x86_64-w64-mingw32/lib/../lib\libmingw32.a(lib64_libmingw32_a-gs_support.o)
 .data          0x000000006612e0c0        0x0 C:/GNU/MINGW64/x86_64-8.1.0-win32-seh-rt_v6-rev0/mingw64/bin/../lib/gcc/x86_64-w64-mingw32/8.1.0/../../../../x86_64-w64-mingw32/lib/../lib\libmingw32.a(lib64_libmingw32_a-tlssup.o)
 .data          0x000000006612e0c0        0x0 C:/GNU/MINGW64/x86_64-8.1.0-win32-seh-rt_v6-rev0/mingw64/bin/../lib/gcc/x86_64-w64-mingw32/8.1.0/../../../../x86_64-w64-mingw32/lib/../lib\libmingw32.a(lib64_libmingw32_a-cinitexe.o)
 .data          0x000000006612e0c0        0x0 C:/GNU/MINGW64/x86_64-8.1.0-win32-seh-rt_v6-rev0/mingw64/bin/../lib/gcc/x86_64-w64-mingw32/8.1.0/../../../../x86_64-w64-mingw32/lib/../lib\libmingw32.a(lib64_libmingw32_a-mingw_helpers.o)
 .data          0x000000006612e0c0        0x0 C:/GNU/MINGW64/x86_64-8.1.0-win32-seh-rt_v6-rev0/mingw64/bin/../lib/gcc/x86_64-w64-mingw32/8.1.0/../../../../x86_64-w64-mingw32/lib/../lib\libmingw32.a(lib64_libmingw32_a-pseudo-reloc.o)
 .data          0x000000006612e0c0        0x0 C:/GNU/MINGW64/x86_64-8.1.0-win32-seh-rt_v6-rev0/mingw64/bin/../lib/gcc/x86_64-w64-mingw32/8.1.0/../../../../x86_64-w64-mingw32/lib/../lib\libmingw32.a(lib64_libmingw32_a-crt_handler.o)
 .data          0x000000006612e0c0        0x0 C:/GNU/MINGW64/x86_64-8.1.0-win32-seh-rt_v6-rev0/mingw64/bin/../lib/gcc/x86_64-w64-mingw32/8.1.0/../../../../x86_64-w64-mingw32/lib/../lib\libmingw32.a(lib64_libmingw32_a-tlsthrd.o)
 .data          0x000000006612e0c0       0x10 C:/GNU/MINGW64/x86_64-8.1.0-win32-seh-rt_v6-rev0/mingw64/bin/../lib/gcc/x86_64-w64-mingw32/8.1.0/../../../../x86_64-w64-mingw32/lib/../lib\libmingw32.a(lib64_libmingw32_a-tlsmcrt.o)
                0x000000006612e0c0                _CRT_MT
 .data          0x000000006612e0d0        0x0 C:/GNU/MINGW64/x86_64-8.1.0-win32-seh-rt_v6-rev0/mingw64/bin/../lib/gcc/x86_64-w64-mingw32/8.1.0/../../../../x86_64-w64-mingw32/lib/../lib\libmingw32.a(lib64_libmingw32_a-pseudo-reloc-list.o)
 .data          0x000000006612e0d0        0x0 C:/GNU/MINGW64/x86_64-8.1.0-win32-seh-rt_v6-rev0/mingw64/bin/../lib/gcc/x86_64-w64-mingw32/8.1.0/../../../../x86_64-w64-mingw32/lib/../lib\libmingw32.a(lib64_libmingw32_a-pesect.o)
 .data          0x000000006612e0d0        0x0 C:/GNU/MINGW64/x86_64-8.1.0-win32-seh-rt_v6-rev0/mingw64/bin/../lib/gcc/x86_64-w64-mingw32/8.1.0/../../../../x86_64-w64-mingw32/lib/../lib\libmingw32.a(lib64_libmingw32_a-CRT_fp10.o)
 .data          0x000000006612e0d0        0x0 C:/GNU/MINGW64/x86_64-8.1.0-win32-seh-rt_v6-rev0/mingw64/bin/../lib/gcc/x86_64-w64-mingw32/8.1.0\libgcc.a(_chkstk_ms.o)
 .data          0x000000006612e0d0        0x0 C:/GNU/MINGW64/x86_64-8.1.0-win32-seh-rt_v6-rev0/mingw64/bin/../lib/gcc/x86_64-w64-mingw32/8.1.0\libgcc.a(_ctors.o)
 .data          0x000000006612e0d0        0x0 C:/GNU/MINGW64/x86_64-8.1.0-win32-seh-rt_v6-rev0/mingw64/bin/../lib/gcc/x86_64-w64-mingw32/8.1.0\libgcc.a(gthr-win32.o)
 .data          0x000000006612e0d0        0x0 C:/GNU/MINGW64/x86_64-8.1.0-win32-seh-rt_v6-rev0/mingw64/bin/../lib/gcc/x86_64-w64-mingw32/8.1.0\libgcc_eh.a(unwind-seh.o)
 .data          0x000000006612e0d0       0x10 C:/GNU/MINGW64/x86_64-8.1.0-win32-seh-rt_v6-rev0/mingw64/bin/../lib/gcc/x86_64-w64-mingw32/8.1.0\libgcc_eh.a(emutls.o)
 .data          0x000000006612e0e0        0x0 C:/GNU/MINGW64/x86_64-8.1.0-win32-seh-rt_v6-rev0/mingw64/bin/../lib/gcc/x86_64-w64-mingw32/8.1.0/../../../../x86_64-w64-mingw32/lib/../lib\libmingwex.a(lib64_libmingwex_a-dllentry.o)
 .data          0x000000006612e0e0        0x0 C:/GNU/MINGW64/x86_64-8.1.0-win32-seh-rt_v6-rev0/mingw64/bin/../lib/gcc/x86_64-w64-mingw32/8.1.0/../../../../x86_64-w64-mingw32/lib/../lib\libmsvcrt.a(duags01243.o)
 .data          0x000000006612e0e0        0x0 C:/GNU/MINGW64/x86_64-8.1.0-win32-seh-rt_v6-rev0/mingw64/bin/../lib/gcc/x86_64-w64-mingw32/8.1.0/../../../../x86_64-w64-mingw32/lib/../lib\libmsvcrt.a(duags01211.o)
 .data          0x000000006612e0e0        0x0 C:/GNU/MINGW64/x86_64-8.1.0-win32-seh-rt_v6-rev0/mingw64/bin/../lib/gcc/x86_64-w64-mingw32/8.1.0/../../../../x86_64-w64-mingw32/lib/../lib\libmsvcrt.a(duags01208.o)
 .data          0x000000006612e0e0        0x0 C:/GNU/MINGW64/x86_64-8.1.0-win32-seh-rt_v6-rev0/mingw64/bin/../lib/gcc/x86_64-w64-mingw32/8.1.0/../../../../x86_64-w64-mingw32/lib/../lib\libmsvcrt.a(duags01201.o)
 .data          0x000000006612e0e0        0x0 C:/GNU/MINGW64/x86_64-8.1.0-win32-seh-rt_v6-rev0/mingw64/bin/../lib/gcc/x86_64-w64-mingw32/8.1.0/../../../../x86_64-w64-mingw32/lib/../lib\libmsvcrt.a(duags01192.o)
 .data          0x000000006612e0e0        0x0 C:/GNU/MINGW64/x86_64-8.1.0-win32-seh-rt_v6-rev0/mingw64/bin/../lib/gcc/x86_64-w64-mingw32/8.1.0/../../../../x86_64-w64-mingw32/lib/../lib\libmsvcrt.a(duags01187.o)
 .data          0x000000006612e0e0        0x0 C:/GNU/MINGW64/x86_64-8.1.0-win32-seh-rt_v6-rev0/mingw64/bin/../lib/gcc/x86_64-w64-mingw32/8.1.0/../../../../x86_64-w64-mingw32/lib/../lib\libmsvcrt.a(duags01177.o)
 .data          0x000000006612e0e0        0x0 C:/GNU/MINGW64/x86_64-8.1.0-win32-seh-rt_v6-rev0/mingw64/bin/../lib/gcc/x86_64-w64-mingw32/8.1.0/../../../../x86_64-w64-mingw32/lib/../lib\libmsvcrt.a(duags01159.o)
 .data          0x000000006612e0e0        0x0 C:/GNU/MINGW64/x86_64-8.1.0-win32-seh-rt_v6-rev0/mingw64/bin/../lib/gcc/x86_64-w64-mingw32/8.1.0/../../../../x86_64-w64-mingw32/lib/../lib\libmsvcrt.a(duags01157.o)
 .data          0x000000006612e0e0        0x0 C:/GNU/MINGW64/x86_64-8.1.0-win32-seh-rt_v6-rev0/mingw64/bin/../lib/gcc/x86_64-w64-mingw32/8.1.0/../../../../x86_64-w64-mingw32/lib/../lib\libmsvcrt.a(duags01149.o)
 .data          0x000000006612e0e0        0x0 C:/GNU/MINGW64/x86_64-8.1.0-win32-seh-rt_v6-rev0/mingw64/bin/../lib/gcc/x86_64-w64-mingw32/8.1.0/../../../../x86_64-w64-mingw32/lib/../lib\libmsvcrt.a(duags01101.o)
 .data          0x000000006612e0e0        0x0 C:/GNU/MINGW64/x86_64-8.1.0-win32-seh-rt_v6-rev0/mingw64/bin/../lib/gcc/x86_64-w64-mingw32/8.1.0/../../../../x86_64-w64-mingw32/lib/../lib\libmsvcrt.a(duags01089.o)
 .data          0x000000006612e0e0        0x0 C:/GNU/MINGW64/x86_64-8.1.0-win32-seh-rt_v6-rev0/mingw64/bin/../lib/gcc/x86_64-w64-mingw32/8.1.0/../../../../x86_64-w64-mingw32/lib/../lib\libmsvcrt.a(duags01085.o)
 .data          0x000000006612e0e0        0x0 C:/GNU/MINGW64/x86_64-8.1.0-win32-seh-rt_v6-rev0/mingw64/bin/../lib/gcc/x86_64-w64-mingw32/8.1.0/../../../../x86_64-w64-mingw32/lib/../lib\libmsvcrt.a(duags01084.o)
 .data          0x000000006612e0e0        0x0 C:/GNU/MINGW64/x86_64-8.1.0-win32-seh-rt_v6-rev0/mingw64/bin/../lib/gcc/x86_64-w64-mingw32/8.1.0/../../../../x86_64-w64-mingw32/lib/../lib\libmsvcrt.a(duags01050.o)
 .data          0x000000006612e0e0        0x0 C:/GNU/MINGW64/x86_64-8.1.0-win32-seh-rt_v6-rev0/mingw64/bin/../lib/gcc/x86_64-w64-mingw32/8.1.0/../../../../x86_64-w64-mingw32/lib/../lib\libmsvcrt.a(duags01032.o)
 .data          0x000000006612e0e0        0x0 C:/GNU/MINGW64/x86_64-8.1.0-win32-seh-rt_v6-rev0/mingw64/bin/../lib/gcc/x86_64-w64-mingw32/8.1.0/../../../../x86_64-w64-mingw32/lib/../lib\libmsvcrt.a(duags00986.o)
 .data          0x000000006612e0e0        0x0 C:/GNU/MINGW64/x86_64-8.1.0-win32-seh-rt_v6-rev0/mingw64/bin/../lib/gcc/x86_64-w64-mingw32/8.1.0/../../../../x86_64-w64-mingw32/lib/../lib\libmsvcrt.a(duags00332.o)
 .data          0x000000006612e0e0        0x0 C:/GNU/MINGW64/x86_64-8.1.0-win32-seh-rt_v6-rev0/mingw64/bin/../lib/gcc/x86_64-w64-mingw32/8.1.0/../../../../x86_64-w64-mingw32/lib/../lib\libmsvcrt.a(duags00122.o)
 .data          0x000000006612e0e0       0x20 C:/GNU/MINGW64/x86_64-8.1.0-win32-seh-rt_v6-rev0/mingw64/bin/../lib/gcc/x86_64-w64-mingw32/8.1.0/../../../../x86_64-w64-mingw32/lib/../lib\libmsvcrt.a(lib64_libmsvcrt_os_a-onexit_table.o)
                0x000000006612e0e0                __imp__execute_onexit_table
                0x000000006612e0e8                __imp__register_onexit_function
                0x000000006612e0f0                __imp__initialize_onexit_table
 .data          0x000000006612e100       0x10 C:/GNU/MINGW64/x86_64-8.1.0-win32-seh-rt_v6-rev0/mingw64/bin/../lib/gcc/x86_64-w64-mingw32/8.1.0/../../../../x86_64-w64-mingw32/lib/../lib\libmsvcrt.a(lib64_libmsvcrt_os_a-acrt_iob_func.o)
                0x000000006612e100                __imp___acrt_iob_func
 .data          0x000000006612e110        0x0 C:/GNU/MINGW64/x86_64-8.1.0-win32-seh-rt_v6-rev0/mingw64/bin/../lib/gcc/x86_64-w64-mingw32/8.1.0/../../../../x86_64-w64-mingw32/lib/../lib\libmsvcrt.a(duagh.o)
 .data          0x000000006612e110        0x0 C:/GNU/MINGW64/x86_64-8.1.0-win32-seh-rt_v6-rev0/mingw64/bin/../lib/gcc/x86_64-w64-mingw32/8.1.0/../../../../x86_64-w64-mingw32/lib/../lib\libmsvcrt.a(duags00821.o)
 .data          0x000000006612e110        0x0 C:/GNU/MINGW64/x86_64-8.1.0-win32-seh-rt_v6-rev0/mingw64/bin/../lib/gcc/x86_64-w64-mingw32/8.1.0/../../../../x86_64-w64-mingw32/lib/../lib\libmsvcrt.a(duags00441.o)
 .data          0x000000006612e110        0x0 C:/GNU/MINGW64/x86_64-8.1.0-win32-seh-rt_v6-rev0/mingw64/bin/../lib/gcc/x86_64-w64-mingw32/8.1.0/../../../../x86_64-w64-mingw32/lib/../lib\libmsvcrt.a(duags00083.o)
 .data          0x000000006612e110        0x0 C:/GNU/MINGW64/x86_64-8.1.0-win32-seh-rt_v6-rev0/mingw64/bin/../lib/gcc/x86_64-w64-mingw32/8.1.0/../../../../x86_64-w64-mingw32/lib/../lib\libmsvcrt.a(duagt.o)
 .data          0x000000006612e110        0x0 C:/GNU/MINGW64/x86_64-8.1.0-win32-seh-rt_v6-rev0/mingw64/bin/../lib/gcc/x86_64-w64-mingw32/8.1.0/../../../../x86_64-w64-mingw32/lib/../lib\libkernel32.a(dqifs01453.o)
 .data          0x000000006612e110        0x0 C:/GNU/MINGW64/x86_64-8.1.0-win32-seh-rt_v6-rev0/mingw64/bin/../lib/gcc/x86_64-w64-mingw32/8.1.0/../../../../x86_64-w64-mingw32/lib/../lib\libkernel32.a(dqifs01445.o)
 .data          0x000000006612e110        0x0 C:/GNU/MINGW64/x86_64-8.1.0-win32-seh-rt_v6-rev0/mingw64/bin/../lib/gcc/x86_64-w64-mingw32/8.1.0/../../../../x86_64-w64-mingw32/lib/../lib\libkernel32.a(dqifs01443.o)
 .data          0x000000006612e110        0x0 C:/GNU/MINGW64/x86_64-8.1.0-win32-seh-rt_v6-rev0/mingw64/bin/../lib/gcc/x86_64-w64-mingw32/8.1.0/../../../../x86_64-w64-mingw32/lib/../lib\libkernel32.a(dqifs01409.o)
 .data          0x000000006612e110        0x0 C:/GNU/MINGW64/x86_64-8.1.0-win32-seh-rt_v6-rev0/mingw64/bin/../lib/gcc/x86_64-w64-mingw32/8.1.0/../../../../x86_64-w64-mingw32/lib/../lib\libkernel32.a(dqifs01396.o)
 .data          0x000000006612e110        0x0 C:/GNU/MINGW64/x86_64-8.1.0-win32-seh-rt_v6-rev0/mingw64/bin/../lib/gcc/x86_64-w64-mingw32/8.1.0/../../../../x86_64-w64-mingw32/lib/../lib\libkernel32.a(dqifs01395.o)
 .data          0x000000006612e110        0x0 C:/GNU/MINGW64/x86_64-8.1.0-win32-seh-rt_v6-rev0/mingw64/bin/../lib/gcc/x86_64-w64-mingw32/8.1.0/../../../../x86_64-w64-mingw32/lib/../lib\libkernel32.a(dqifs01394.o)
 .data          0x000000006612e110        0x0 C:/GNU/MINGW64/x86_64-8.1.0-win32-seh-rt_v6-rev0/mingw64/bin/../lib/gcc/x86_64-w64-mingw32/8.1.0/../../../../x86_64-w64-mingw32/lib/../lib\libkernel32.a(dqifs01393.o)
 .data          0x000000006612e110        0x0 C:/GNU/MINGW64/x86_64-8.1.0-win32-seh-rt_v6-rev0/mingw64/bin/../lib/gcc/x86_64-w64-mingw32/8.1.0/../../../../x86_64-w64-mingw32/lib/../lib\libkernel32.a(dqifs01375.o)
 .data          0x000000006612e110        0x0 C:/GNU/MINGW64/x86_64-8.1.0-win32-seh-rt_v6-rev0/mingw64/bin/../lib/gcc/x86_64-w64-mingw32/8.1.0/../../../../x86_64-w64-mingw32/lib/../lib\libkernel32.a(dqifs01346.o)
 .data          0x000000006612e110        0x0 C:/GNU/MINGW64/x86_64-8.1.0-win32-seh-rt_v6-rev0/mingw64/bin/../lib/gcc/x86_64-w64-mingw32/8.1.0/../../../../x86_64-w64-mingw32/lib/../lib\libkernel32.a(dqifs01290.o)
 .data          0x000000006612e110        0x0 C:/GNU/MINGW64/x86_64-8.1.0-win32-seh-rt_v6-rev0/mingw64/bin/../lib/gcc/x86_64-w64-mingw32/8.1.0/../../../../x86_64-w64-mingw32/lib/../lib\libkernel32.a(dqifs01194.o)
 .data          0x000000006612e110        0x0 C:/GNU/MINGW64/x86_64-8.1.0-win32-seh-rt_v6-rev0/mingw64/bin/../lib/gcc/x86_64-w64-mingw32/8.1.0/../../../../x86_64-w64-mingw32/lib/../lib\libkernel32.a(dqifs01193.o)
 .data          0x000000006612e110        0x0 C:/GNU/MINGW64/x86_64-8.1.0-win32-seh-rt_v6-rev0/mingw64/bin/../lib/gcc/x86_64-w64-mingw32/8.1.0/../../../../x86_64-w64-mingw32/lib/../lib\libkernel32.a(dqifs01187.o)
 .data          0x000000006612e110        0x0 C:/GNU/MINGW64/x86_64-8.1.0-win32-seh-rt_v6-rev0/mingw64/bin/../lib/gcc/x86_64-w64-mingw32/8.1.0/../../../../x86_64-w64-mingw32/lib/../lib\libkernel32.a(dqifs01180.o)
 .data          0x000000006612e110        0x0 C:/GNU/MINGW64/x86_64-8.1.0-win32-seh-rt_v6-rev0/mingw64/bin/../lib/gcc/x86_64-w64-mingw32/8.1.0/../../../../x86_64-w64-mingw32/lib/../lib\libkernel32.a(dqifs01179.o)
 .data          0x000000006612e110        0x0 C:/GNU/MINGW64/x86_64-8.1.0-win32-seh-rt_v6-rev0/mingw64/bin/../lib/gcc/x86_64-w64-mingw32/8.1.0/../../../../x86_64-w64-mingw32/lib/../lib\libkernel32.a(dqifs01154.o)
 .data          0x000000006612e110        0x0 C:/GNU/MINGW64/x86_64-8.1.0-win32-seh-rt_v6-rev0/mingw64/bin/../lib/gcc/x86_64-w64-mingw32/8.1.0/../../../../x86_64-w64-mingw32/lib/../lib\libkernel32.a(dqifs01112.o)
 .data          0x000000006612e110        0x0 C:/GNU/MINGW64/x86_64-8.1.0-win32-seh-rt_v6-rev0/mingw64/bin/../lib/gcc/x86_64-w64-mingw32/8.1.0/../../../../x86_64-w64-mingw32/lib/../lib\libkernel32.a(dqifs01093.o)
 .data          0x000000006612e110        0x0 C:/GNU/MINGW64/x86_64-8.1.0-win32-seh-rt_v6-rev0/mingw64/bin/../lib/gcc/x86_64-w64-mingw32/8.1.0/../../../../x86_64-w64-mingw32/lib/../lib\libkernel32.a(dqifs00774.o)
 .data          0x000000006612e110        0x0 C:/GNU/MINGW64/x86_64-8.1.0-win32-seh-rt_v6-rev0/mingw64/bin/../lib/gcc/x86_64-w64-mingw32/8.1.0/../../../../x86_64-w64-mingw32/lib/../lib\libkernel32.a(dqifs00746.o)
 .data          0x000000006612e110        0x0 C:/GNU/MINGW64/x86_64-8.1.0-win32-seh-rt_v6-rev0/mingw64/bin/../lib/gcc/x86_64-w64-mingw32/8.1.0/../../../../x86_64-w64-mingw32/lib/../lib\libkernel32.a(dqifs00540.o)
 .data          0x000000006612e110        0x0 C:/GNU/MINGW64/x86_64-8.1.0-win32-seh-rt_v6-rev0/mingw64/bin/../lib/gcc/x86_64-w64-mingw32/8.1.0/../../../../x86_64-w64-mingw32/lib/../lib\libkernel32.a(dqifs00536.o)
 .data          0x000000006612e110        0x0 C:/GNU/MINGW64/x86_64-8.1.0-win32-seh-rt_v6-rev0/mingw64/bin/../lib/gcc/x86_64-w64-mingw32/8.1.0/../../../../x86_64-w64-mingw32/lib/../lib\libkernel32.a(dqifs00535.o)
 .data          0x000000006612e110        0x0 C:/GNU/MINGW64/x86_64-8.1.0-win32-seh-rt_v6-rev0/mingw64/bin/../lib/gcc/x86_64-w64-mingw32/8.1.0/../../../../x86_64-w64-mingw32/lib/../lib\libkernel32.a(dqifs00268.o)
 .data          0x000000006612e110        0x0 C:/GNU/MINGW64/x86_64-8.1.0-win32-seh-rt_v6-rev0/mingw64/bin/../lib/gcc/x86_64-w64-mingw32/8.1.0/../../../../x86_64-w64-mingw32/lib/../lib\libkernel32.a(dqifs00231.o)
 .data          0x000000006612e110        0x0 C:/GNU/MINGW64/x86_64-8.1.0-win32-seh-rt_v6-rev0/mingw64/bin/../lib/gcc/x86_64-w64-mingw32/8.1.0/../../../../x86_64-w64-mingw32/lib/../lib\libkernel32.a(dqifs00130.o)
 .data          0x000000006612e110        0x0 C:/GNU/MINGW64/x86_64-8.1.0-win32-seh-rt_v6-rev0/mingw64/bin/../lib/gcc/x86_64-w64-mingw32/8.1.0/../../../../x86_64-w64-mingw32/lib/../lib\libmingw32.a(lib64_libmingw32_a-tlsmthread.o)
 .data          0x000000006612e110        0x0 C:/GNU/MINGW64/x86_64-8.1.0-win32-seh-rt_v6-rev0/mingw64/bin/../lib/gcc/x86_64-w64-mingw32/8.1.0/crtend.o
 *(.data2)
 *(SORT_BY_NAME(.data$*))
 .data$.LDFCM0  0x000000006612e110       0x10 C:/GNU/MINGW64/x86_64-8.1.0-win32-seh-rt_v6-rev0/mingw64/bin/../lib/gcc/x86_64-w64-mingw32/8.1.0\libstdc++.a(vterminate.o)
 .data$_ZN10__cxxabiv119__terminate_handlerE
                0x000000006612e120       0x10 C:/GNU/MINGW64/x86_64-8.1.0-win32-seh-rt_v6-rev0/mingw64/bin/../lib/gcc/x86_64-w64-mingw32/8.1.0\libstdc++.a(eh_term_handler.o)
                0x000000006612e120                __cxxabiv1::__terminate_handler
 .data$_ZN10__cxxabiv120__unexpected_handlerE
                0x000000006612e130       0x10 C:/GNU/MINGW64/x86_64-8.1.0-win32-seh-rt_v6-rev0/mingw64/bin/../lib/gcc/x86_64-w64-mingw32/8.1.0\libstdc++.a(eh_unex_handler.o)
                0x000000006612e130                __cxxabiv1::__unexpected_handler
 .data$_ZN12_GLOBAL__N_113__new_handlerE
                0x000000006612e140       0x10 C:/GNU/MINGW64/x86_64-8.1.0-win32-seh-rt_v6-rev0/mingw64/bin/../lib/gcc/x86_64-w64-mingw32/8.1.0\libstdc++.a(new_handler.o)
 *fill*         0x000000006612e150       0x10 
 .data$_ZN12_GLOBAL__N_114emergency_poolE
                0x000000006612e160       0x40 C:/GNU/MINGW64/x86_64-8.1.0-win32-seh-rt_v6-rev0/mingw64/bin/../lib/gcc/x86_64-w64-mingw32/8.1.0\libstdc++.a(eh_alloc.o)
 .data$_ZZN9__gnu_cxx27__verbose_terminate_handlerEvE11terminating
                0x000000006612e1a0       0x10 C:/GNU/MINGW64/x86_64-8.1.0-win32-seh-rt_v6-rev0/mingw64/bin/../lib/gcc/x86_64-w64-mingw32/8.1.0\libstdc++.a(vterminate.o)
 *fill*         0x000000006612e1b0       0x10 
 .data$__emutls_v._ZZN12_GLOBAL__N_110get_globalEvE6global
                0x000000006612e1c0       0x20 C:/GNU/MINGW64/x86_64-8.1.0-win32-seh-rt_v6-rev0/mingw64/bin/../lib/gcc/x86_64-w64-mingw32/8.1.0\libstdc++.a(eh_globals.o)
 .data$__security_cookie
                0x000000006612e1e0       0x10 C:/GNU/MINGW64/x86_64-8.1.0-win32-seh-rt_v6-rev0/mingw64/bin/../lib/gcc/x86_64-w64-mingw32/8.1.0/../../../../x86_64-w64-mingw32/lib/../lib\libmingw32.a(lib64_libmingw32_a-gs_support.o)
                0x000000006612e1e0                __security_cookie
 .data$__security_cookie_complement
                0x000000006612e1f0       0x10 C:/GNU/MINGW64/x86_64-8.1.0-win32-seh-rt_v6-rev0/mingw64/bin/../lib/gcc/x86_64-w64-mingw32/8.1.0/../../../../x86_64-w64-mingw32/lib/../lib\libmingw32.a(lib64_libmingw32_a-gs_support.o)
                0x000000006612e1f0                __security_cookie_complement
 *(.jcr)
                0x000000006612e200                __data_end__ = .
 *(.data_cygwin_nocopy)

.rdata          0x000000006612f000     0x5e00
 *(.rdata)
 .rdata         0x000000006612f000       0x90 ../build/x64_Release/pmc_add.o
 .rdata         0x000000006612f090       0x40 ../build/x64_Release/pmc_bitwiseand.o
 .rdata         0x000000006612f0d0       0x40 ../build/x64_Release/pmc_bitwiseor.o
 .rdata         0x000000006612f110      0x1c0 ../build/x64_Release/pmc_bytes.o
 .rdata         0x000000006612f2d0       0x40 ../build/x64_Release/pmc_compare.o
 .rdata         0x000000006612f310       0x60 ../build/x64_Release/pmc_divrem.o
 .rdata         0x000000006612f370       0x40 ../build/x64_Release/pmc_equals.o
 .rdata         0x000000006612f3b0       0x40 ../build/x64_Release/pmc_exclusiveor.o
 .rdata         0x000000006612f3f0      0x1a0 ../build/x64_Release/pmc_greatestcommondivisor.o
 .rdata         0x000000006612f590       0x40 ../build/x64_Release/pmc_initialize.o
 .rdata         0x000000006612f5d0      0x5a0 ../build/x64_Release/pmc_memory.o
 .rdata         0x000000006612fb70       0x80 ../build/x64_Release/pmc_modpow.o
 .rdata         0x000000006612fbf0       0x40 ../build/x64_Release/pmc_multiply.o
 .rdata         0x000000006612fc30      0x3f0 ../build/x64_Release/pmc_parse.o
 .rdata         0x0000000066130020       0x80 ../build/x64_Release/pmc_pow.o
 .rdata         0x00000000661300a0       0x30 ../build/x64_Release/pmc_shift.o
 .rdata         0x00000000661300d0       0x70 ../build/x64_Release/pmc_subtruct.o
 .rdata         0x0000000066130140       0x60 ../build/x64_Release/pmc_to.o
 .rdata         0x00000000661301a0      0x490 ../build/x64_Release/pmc_tostring.o
 .rdata         0x0000000066130630       0x50 C:/GNU/MINGW64/x86_64-8.1.0-win32-seh-rt_v6-rev0/mingw64/bin/../lib/gcc/x86_64-w64-mingw32/8.1.0\libstdc++.a(eh_alloc.o)
 .rdata         0x0000000066130680       0x30 C:/GNU/MINGW64/x86_64-8.1.0-win32-seh-rt_v6-rev0/mingw64/bin/../lib/gcc/x86_64-w64-mingw32/8.1.0\libstdc++.a(eh_exception.o)
 .rdata         0x00000000661306b0       0x40 C:/GNU/MINGW64/x86_64-8.1.0-win32-seh-rt_v6-rev0/mingw64/bin/../lib/gcc/x86_64-w64-mingw32/8.1.0\libstdc++.a(eh_personality.o)
 .rdata         0x00000000661306f0       0x40 C:/GNU/MINGW64/x86_64-8.1.0-win32-seh-rt_v6-rev0/mingw64/bin/../lib/gcc/x86_64-w64-mingw32/8.1.0\libstdc++.a(pure.o)
 .rdata         0x0000000066130730       0xa0 C:/GNU/MINGW64/x86_64-8.1.0-win32-seh-rt_v6-rev0/mingw64/bin/../lib/gcc/x86_64-w64-mingw32/8.1.0\libstdc++.a(vterminate.o)
 .rdata         0x00000000661307d0       0x10 C:/GNU/MINGW64/x86_64-8.1.0-win32-seh-rt_v6-rev0/mingw64/bin/../lib/gcc/x86_64-w64-mingw32/8.1.0\libstdc++.a(bad_alloc.o)
 .rdata         0x00000000661307e0     0x1da0 C:/GNU/MINGW64/x86_64-8.1.0-win32-seh-rt_v6-rev0/mingw64/bin/../lib/gcc/x86_64-w64-mingw32/8.1.0\libstdc++.a(cp-demangle.o)
 .rdata         0x0000000066132580       0x10 C:/GNU/MINGW64/x86_64-8.1.0-win32-seh-rt_v6-rev0/mingw64/bin/../lib/gcc/x86_64-w64-mingw32/8.1.0/../../../../x86_64-w64-mingw32/lib/../lib\libmingw32.a(lib64_libmingw32_a-gs_support.o)
 *fill*         0x0000000066132590       0x10 
 .rdata         0x00000000661325a0       0x60 C:/GNU/MINGW64/x86_64-8.1.0-win32-seh-rt_v6-rev0/mingw64/bin/../lib/gcc/x86_64-w64-mingw32/8.1.0/../../../../x86_64-w64-mingw32/lib/../lib\libmingw32.a(lib64_libmingw32_a-tlssup.o)
                0x00000000661325a0                __dyn_tls_init_callback
                0x00000000661325c0                _tls_used
 .rdata         0x0000000066132600      0x110 C:/GNU/MINGW64/x86_64-8.1.0-win32-seh-rt_v6-rev0/mingw64/bin/../lib/gcc/x86_64-w64-mingw32/8.1.0/../../../../x86_64-w64-mingw32/lib/../lib\libmingw32.a(lib64_libmingw32_a-pseudo-reloc.o)
 .rdata         0x0000000066132710       0x10 C:/GNU/MINGW64/x86_64-8.1.0-win32-seh-rt_v6-rev0/mingw64/bin/../lib/gcc/x86_64-w64-mingw32/8.1.0/../../../../x86_64-w64-mingw32/lib/../lib\libmingw32.a(lib64_libmingw32_a-crt_handler.o)
 *(SORT_BY_NAME(.rdata$*))
 .rdata$.refptr._CRT_MT
                0x0000000066132720       0x10 C:/GNU/MINGW64/x86_64-8.1.0-win32-seh-rt_v6-rev0/mingw64/bin/../lib/gcc/x86_64-w64-mingw32/8.1.0\libstdc++.a(eh_alloc.o)
                0x0000000066132720                .refptr._CRT_MT
 .rdata$.refptr._ZN10__cxxabiv119__terminate_handlerE
                0x0000000066132730       0x10 C:/GNU/MINGW64/x86_64-8.1.0-win32-seh-rt_v6-rev0/mingw64/bin/../lib/gcc/x86_64-w64-mingw32/8.1.0\libstdc++.a(eh_terminate.o)
                0x0000000066132730                .refptr._ZN10__cxxabiv119__terminate_handlerE
 .rdata$.refptr._ZN10__cxxabiv120__unexpected_handlerE
                0x0000000066132740       0x10 C:/GNU/MINGW64/x86_64-8.1.0-win32-seh-rt_v6-rev0/mingw64/bin/../lib/gcc/x86_64-w64-mingw32/8.1.0\libstdc++.a(eh_terminate.o)
                0x0000000066132740                .refptr._ZN10__cxxabiv120__unexpected_handlerE
 .rdata$.refptr._ZN8Palmtree4Math4Core8Internal10PMC_From_IEj
                0x0000000066132750       0x10 ../build/x64_Release/pmc_initialize.o
                0x0000000066132750                .refptr._ZN8Palmtree4Math4Core8Internal10PMC_From_IEj
 .rdata$.refptr._ZN8Palmtree4Math4Core8Internal10PMC_From_LEy
                0x0000000066132760       0x10 ../build/x64_Release/pmc_initialize.o
                0x0000000066132760                .refptr._ZN8Palmtree4Math4Core8Internal10PMC_From_LEy
 .rdata$.refptr._ZN8Palmtree4Math4Core8Internal10PMC_To_X_IEPNS2_21__tag_PMC_HANDLE_UINTE
                0x0000000066132770       0x10 ../build/x64_Release/pmc_initialize.o
                0x0000000066132770                .refptr._ZN8Palmtree4Math4Core8Internal10PMC_To_X_IEPNS2_21__tag_PMC_HANDLE_UINTE
 .rdata$.refptr._ZN8Palmtree4Math4Core8Internal10PMC_To_X_LEPNS2_21__tag_PMC_HANDLE_UINTE
                0x0000000066132780       0x10 ../build/x64_Release/pmc_initialize.o
                0x0000000066132780                .refptr._ZN8Palmtree4Math4Core8Internal10PMC_To_X_LEPNS2_21__tag_PMC_HANDLE_UINTE
 .rdata$.refptr._ZN8Palmtree4Math4Core8Internal10number_oneE
                0x0000000066132790       0x10 ../build/x64_Release/pmc_modpow.o
                0x0000000066132790                .refptr._ZN8Palmtree4Math4Core8Internal10number_oneE
 .rdata$.refptr._ZN8Palmtree4Math4Core8Internal11PMC_Add_I_XEjPNS2_21__tag_PMC_HANDLE_UINTE
                0x00000000661327a0       0x10 ../build/x64_Release/pmc_initialize.o
                0x00000000661327a0                .refptr._ZN8Palmtree4Math4Core8Internal11PMC_Add_I_XEjPNS2_21__tag_PMC_HANDLE_UINTE
 .rdata$.refptr._ZN8Palmtree4Math4Core8Internal11PMC_Add_L_XEyPNS2_21__tag_PMC_HANDLE_UINTE
                0x00000000661327b0       0x10 ../build/x64_Release/pmc_initialize.o
                0x00000000661327b0                .refptr._ZN8Palmtree4Math4Core8Internal11PMC_Add_L_XEyPNS2_21__tag_PMC_HANDLE_UINTE
 .rdata$.refptr._ZN8Palmtree4Math4Core8Internal11PMC_Add_X_IEPNS2_21__tag_PMC_HANDLE_UINTEj
                0x00000000661327c0       0x10 ../build/x64_Release/pmc_initialize.o
                0x00000000661327c0                .refptr._ZN8Palmtree4Math4Core8Internal11PMC_Add_X_IEPNS2_21__tag_PMC_HANDLE_UINTEj
 .rdata$.refptr._ZN8Palmtree4Math4Core8Internal11PMC_Add_X_LEPNS2_21__tag_PMC_HANDLE_UINTEy
                0x00000000661327d0       0x10 ../build/x64_Release/pmc_initialize.o
                0x00000000661327d0                .refptr._ZN8Palmtree4Math4Core8Internal11PMC_Add_X_LEPNS2_21__tag_PMC_HANDLE_UINTEy
 .rdata$.refptr._ZN8Palmtree4Math4Core8Internal11PMC_Add_X_XEPNS2_21__tag_PMC_HANDLE_UINTES4_
                0x00000000661327e0       0x10 ../build/x64_Release/pmc_initialize.o
                0x00000000661327e0                .refptr._ZN8Palmtree4Math4Core8Internal11PMC_Add_X_XEPNS2_21__tag_PMC_HANDLE_UINTES4_
 .rdata$.refptr._ZN8Palmtree4Math4Core8Internal11PMC_Clone_XEPNS2_21__tag_PMC_HANDLE_UINTE
                0x00000000661327f0       0x10 ../build/x64_Release/pmc_initialize.o
                0x00000000661327f0                .refptr._ZN8Palmtree4Math4Core8Internal11PMC_Clone_XEPNS2_21__tag_PMC_HANDLE_UINTE
 .rdata$.refptr._ZN8Palmtree4Math4Core8Internal11PMC_DisposeEPNS2_21__tag_PMC_HANDLE_UINTE
                0x0000000066132800       0x10 ../build/x64_Release/pmc_initialize.o
                0x0000000066132800                .refptr._ZN8Palmtree4Math4Core8Internal11PMC_DisposeEPNS2_21__tag_PMC_HANDLE_UINTE
 .rdata$.refptr._ZN8Palmtree4Math4Core8Internal11PMC_Pow_X_IEPNS2_21__tag_PMC_HANDLE_UINTEj
                0x0000000066132810       0x10 ../build/x64_Release/pmc_initialize.o
                0x0000000066132810                .refptr._ZN8Palmtree4Math4Core8Internal11PMC_Pow_X_IEPNS2_21__tag_PMC_HANDLE_UINTEj
 .rdata$.refptr._ZN8Palmtree4Math4Core8Internal11PMC_Pow_X_LEPNS2_21__tag_PMC_HANDLE_UINTEy
                0x0000000066132820       0x10 ../build/x64_Release/pmc_initialize.o
                0x0000000066132820                .refptr._ZN8Palmtree4Math4Core8Internal11PMC_Pow_X_LEPNS2_21__tag_PMC_HANDLE_UINTEy
 .rdata$.refptr._ZN8Palmtree4Math4Core8Internal11number_zeroE
                0x0000000066132830       0x10 ../build/x64_Release/pmc_add.o
                0x0000000066132830                .refptr._ZN8Palmtree4Math4Core8Internal11number_zeroE
 .rdata$.refptr._ZN8Palmtree4Math4Core8Internal12PMC_ToStringEPNS2_21__tag_PMC_HANDLE_UINTEPKwPKNS2_28__tag_PMC_NUMBER_FORMAT_INFOEPwy
                0x0000000066132840       0x10 ../build/x64_Release/pmc_initialize.o
                0x0000000066132840                .refptr._ZN8Palmtree4Math4Core8Internal12PMC_ToStringEPNS2_21__tag_PMC_HANDLE_UINTEPKwPKNS2_28__tag_PMC_NUMBER_FORMAT_INFOEPwy
 .rdata$.refptr._ZN8Palmtree4Math4Core8Internal12PMC_TryParseEPKwiPKNS2_28__tag_PMC_NUMBER_FORMAT_INFOEPPNS2_21__tag_PMC_HANDLE_UINTEPj
                0x0000000066132850       0x10 ../build/x64_Release/pmc_initialize.o
                0x0000000066132850                .refptr._ZN8Palmtree4Math4Core8Internal12PMC_TryParseEPKwiPKNS2_28__tag_PMC_NUMBER_FORMAT_INFOEPPNS2_21__tag_PMC_HANDLE_UINTEPj
 .rdata$.refptr._ZN8Palmtree4Math4Core8Internal14PMC_DivRem_I_XEjPNS2_21__tag_PMC_HANDLE_UINTEPj
                0x0000000066132860       0x10 ../build/x64_Release/pmc_initialize.o
                0x0000000066132860                .refptr._ZN8Palmtree4Math4Core8Internal14PMC_DivRem_I_XEjPNS2_21__tag_PMC_HANDLE_UINTEPj
 .rdata$.refptr._ZN8Palmtree4Math4Core8Internal14PMC_DivRem_L_XEyPNS2_21__tag_PMC_HANDLE_UINTEPy
                0x0000000066132870       0x10 ../build/x64_Release/pmc_initialize.o
                0x0000000066132870                .refptr._ZN8Palmtree4Math4Core8Internal14PMC_DivRem_L_XEyPNS2_21__tag_PMC_HANDLE_UINTEPy
 .rdata$.refptr._ZN8Palmtree4Math4Core8Internal14PMC_DivRem_X_IEPNS2_21__tag_PMC_HANDLE_UINTEjPS4_
                0x0000000066132880       0x10 ../build/x64_Release/pmc_initialize.o
                0x0000000066132880                .refptr._ZN8Palmtree4Math4Core8Internal14PMC_DivRem_X_IEPNS2_21__tag_PMC_HANDLE_UINTEjPS4_
 .rdata$.refptr._ZN8Palmtree4Math4Core8Internal14PMC_DivRem_X_LEPNS2_21__tag_PMC_HANDLE_UINTEyPS4_
                0x0000000066132890       0x10 ../build/x64_Release/pmc_initialize.o
                0x0000000066132890                .refptr._ZN8Palmtree4Math4Core8Internal14PMC_DivRem_X_LEPNS2_21__tag_PMC_HANDLE_UINTEyPS4_
 .rdata$.refptr._ZN8Palmtree4Math4Core8Internal14PMC_DivRem_X_XEPNS2_21__tag_PMC_HANDLE_UINTES4_PS4_
                0x00000000661328a0       0x10 ../build/x64_Release/pmc_initialize.o
                0x00000000661328a0                .refptr._ZN8Palmtree4Math4Core8Internal14PMC_DivRem_X_XEPNS2_21__tag_PMC_HANDLE_UINTES4_PS4_
 .rdata$.refptr._ZN8Palmtree4Math4Core8Internal14PMC_Equals_I_XEjPNS2_21__tag_PMC_HANDLE_UINTE
                0x00000000661328b0       0x10 ../build/x64_Release/pmc_initialize.o
                0x00000000661328b0                .refptr._ZN8Palmtree4Math4Core8Internal14PMC_Equals_I_XEjPNS2_21__tag_PMC_HANDLE_UINTE
 .rdata$.refptr._ZN8Palmtree4Math4Core8Internal14PMC_Equals_L_XEyPNS2_21__tag_PMC_HANDLE_UINTE
                0x00000000661328c0       0x10 ../build/x64_Release/pmc_initialize.o
                0x00000000661328c0                .refptr._ZN8Palmtree4Math4Core8Internal14PMC_Equals_L_XEyPNS2_21__tag_PMC_HANDLE_UINTE
 .rdata$.refptr._ZN8Palmtree4Math4Core8Internal14PMC_Equals_X_IEPNS2_21__tag_PMC_HANDLE_UINTEj
                0x00000000661328d0       0x10 ../build/x64_Release/pmc_initialize.o
                0x00000000661328d0                .refptr._ZN8Palmtree4Math4Core8Internal14PMC_Equals_X_IEPNS2_21__tag_PMC_HANDLE_UINTEj
 .rdata$.refptr._ZN8Palmtree4Math4Core8Internal14PMC_Equals_X_LEPNS2_21__tag_PMC_HANDLE_UINTEy
                0x00000000661328e0       0x10 ../build/x64_Release/pmc_initialize.o
                0x00000000661328e0                .refptr._ZN8Palmtree4Math4Core8Internal14PMC_Equals_X_LEPNS2_21__tag_PMC_HANDLE_UINTEy
 .rdata$.refptr._ZN8Palmtree4Math4Core8Internal14PMC_Equals_X_XEPNS2_21__tag_PMC_HANDLE_UINTES4_
                0x00000000661328f0       0x10 ../build/x64_Release/pmc_initialize.o
                0x00000000661328f0                .refptr._ZN8Palmtree4Math4Core8Internal14PMC_Equals_X_XEPNS2_21__tag_PMC_HANDLE_UINTES4_
 .rdata$.refptr._ZN8Palmtree4Math4Core8Internal15PMC_Compare_I_XEjPNS2_21__tag_PMC_HANDLE_UINTE
                0x0000000066132900       0x10 ../build/x64_Release/pmc_initialize.o
                0x0000000066132900                .refptr._ZN8Palmtree4Math4Core8Internal15PMC_Compare_I_XEjPNS2_21__tag_PMC_HANDLE_UINTE
 .rdata$.refptr._ZN8Palmtree4Math4Core8Internal15PMC_Compare_L_XEyPNS2_21__tag_PMC_HANDLE_UINTE
                0x0000000066132910       0x10 ../build/x64_Release/pmc_initialize.o
                0x0000000066132910                .refptr._ZN8Palmtree4Math4Core8Internal15PMC_Compare_L_XEyPNS2_21__tag_PMC_HANDLE_UINTE
 .rdata$.refptr._ZN8Palmtree4Math4Core8Internal15PMC_Compare_X_IEPNS2_21__tag_PMC_HANDLE_UINTEj
                0x0000000066132920       0x10 ../build/x64_Release/pmc_initialize.o
                0x0000000066132920                .refptr._ZN8Palmtree4Math4Core8Internal15PMC_Compare_X_IEPNS2_21__tag_PMC_HANDLE_UINTEj
 .rdata$.refptr._ZN8Palmtree4Math4Core8Internal15PMC_Compare_X_LEPNS2_21__tag_PMC_HANDLE_UINTEy
                0x0000000066132930       0x10 ../build/x64_Release/pmc_initialize.o
                0x0000000066132930                .refptr._ZN8Palmtree4Math4Core8Internal15PMC_Compare_X_LEPNS2_21__tag_PMC_HANDLE_UINTEy
 .rdata$.refptr._ZN8Palmtree4Math4Core8Internal15PMC_Compare_X_XEPNS2_21__tag_PMC_HANDLE_UINTES4_
                0x0000000066132940       0x10 ../build/x64_Release/pmc_initialize.o
                0x0000000066132940                .refptr._ZN8Palmtree4Math4Core8Internal15PMC_Compare_X_XEPNS2_21__tag_PMC_HANDLE_UINTES4_
 .rdata$.refptr._ZN8Palmtree4Math4Core8Internal15PMC_ToByteArrayEPNS2_21__tag_PMC_HANDLE_UINTEPhy
                0x0000000066132950       0x10 ../build/x64_Release/pmc_initialize.o
                0x0000000066132950                .refptr._ZN8Palmtree4Math4Core8Internal15PMC_ToByteArrayEPNS2_21__tag_PMC_HANDLE_UINTEPhy
 .rdata$.refptr._ZN8Palmtree4Math4Core8Internal15statistics_infoE
                0x0000000066132960       0x10 ../build/x64_Release/pmc_divrem.o
                0x0000000066132960                .refptr._ZN8Palmtree4Math4Core8Internal15statistics_infoE
 .rdata$.refptr._ZN8Palmtree4Math4Core8Internal16PMC_ModPow_X_X_XEPNS2_21__tag_PMC_HANDLE_UINTES4_S4_
                0x0000000066132970       0x10 ../build/x64_Release/pmc_initialize.o
                0x0000000066132970                .refptr._ZN8Palmtree4Math4Core8Internal16PMC_ModPow_X_X_XEPNS2_21__tag_PMC_HANDLE_UINTES4_S4_
 .rdata$.refptr._ZN8Palmtree4Math4Core8Internal16PMC_Multiply_I_XEjPNS2_21__tag_PMC_HANDLE_UINTE
                0x0000000066132980       0x10 ../build/x64_Release/pmc_initialize.o
                0x0000000066132980                .refptr._ZN8Palmtree4Math4Core8Internal16PMC_Multiply_I_XEjPNS2_21__tag_PMC_HANDLE_UINTE
 .rdata$.refptr._ZN8Palmtree4Math4Core8Internal16PMC_Multiply_L_XEyPNS2_21__tag_PMC_HANDLE_UINTE
                0x0000000066132990       0x10 ../build/x64_Release/pmc_initialize.o
                0x0000000066132990                .refptr._ZN8Palmtree4Math4Core8Internal16PMC_Multiply_L_XEyPNS2_21__tag_PMC_HANDLE_UINTE
 .rdata$.refptr._ZN8Palmtree4Math4Core8Internal16PMC_Multiply_X_IEPNS2_21__tag_PMC_HANDLE_UINTEj
                0x00000000661329a0       0x10 ../build/x64_Release/pmc_initialize.o
                0x00000000661329a0                .refptr._ZN8Palmtree4Math4Core8Internal16PMC_Multiply_X_IEPNS2_21__tag_PMC_HANDLE_UINTEj
 .rdata$.refptr._ZN8Palmtree4Math4Core8Internal16PMC_Multiply_X_LEPNS2_21__tag_PMC_HANDLE_UINTEy
                0x00000000661329b0       0x10 ../build/x64_Release/pmc_initialize.o
                0x00000000661329b0                .refptr._ZN8Palmtree4Math4Core8Internal16PMC_Multiply_X_LEPNS2_21__tag_PMC_HANDLE_UINTEy
 .rdata$.refptr._ZN8Palmtree4Math4Core8Internal16PMC_Multiply_X_XEPNS2_21__tag_PMC_HANDLE_UINTES4_
                0x00000000661329c0       0x10 ../build/x64_Release/pmc_initialize.o
                0x00000000661329c0                .refptr._ZN8Palmtree4Math4Core8Internal16PMC_Multiply_X_XEPNS2_21__tag_PMC_HANDLE_UINTES4_
 .rdata$.refptr._ZN8Palmtree4Math4Core8Internal16PMC_Subtruct_I_XEjPNS2_21__tag_PMC_HANDLE_UINTE
                0x00000000661329d0       0x10 ../build/x64_Release/pmc_initialize.o
                0x00000000661329d0                .refptr._ZN8Palmtree4Math4Core8Internal16PMC_Subtruct_I_XEjPNS2_21__tag_PMC_HANDLE_UINTE
 .rdata$.refptr._ZN8Palmtree4Math4Core8Internal16PMC_Subtruct_L_XEyPNS2_21__tag_PMC_HANDLE_UINTE
                0x00000000661329e0       0x10 ../build/x64_Release/pmc_initialize.o
                0x00000000661329e0                .refptr._ZN8Palmtree4Math4Core8Internal16PMC_Subtruct_L_XEyPNS2_21__tag_PMC_HANDLE_UINTE
 .rdata$.refptr._ZN8Palmtree4Math4Core8Internal16PMC_Subtruct_X_IEPNS2_21__tag_PMC_HANDLE_UINTEj
                0x00000000661329f0       0x10 ../build/x64_Release/pmc_initialize.o
                0x00000000661329f0                .refptr._ZN8Palmtree4Math4Core8Internal16PMC_Subtruct_X_IEPNS2_21__tag_PMC_HANDLE_UINTEj
 .rdata$.refptr._ZN8Palmtree4Math4Core8Internal16PMC_Subtruct_X_LEPNS2_21__tag_PMC_HANDLE_UINTEy
                0x0000000066132a00       0x10 ../build/x64_Release/pmc_initialize.o
                0x0000000066132a00                .refptr._ZN8Palmtree4Math4Core8Internal16PMC_Subtruct_X_LEPNS2_21__tag_PMC_HANDLE_UINTEy
 .rdata$.refptr._ZN8Palmtree4Math4Core8Internal16PMC_Subtruct_X_XEPNS2_21__tag_PMC_HANDLE_UINTES4_
                0x0000000066132a10       0x10 ../build/x64_Release/pmc_initialize.o
                0x0000000066132a10                .refptr._ZN8Palmtree4Math4Core8Internal16PMC_Subtruct_X_XEPNS2_21__tag_PMC_HANDLE_UINTES4_
 .rdata$.refptr._ZN8Palmtree4Math4Core8Internal17PMC_BitwiseOr_I_XEjPNS2_21__tag_PMC_HANDLE_UINTE
                0x0000000066132a20       0x10 ../build/x64_Release/pmc_initialize.o
                0x0000000066132a20                .refptr._ZN8Palmtree4Math4Core8Internal17PMC_BitwiseOr_I_XEjPNS2_21__tag_PMC_HANDLE_UINTE
 .rdata$.refptr._ZN8Palmtree4Math4Core8Internal17PMC_BitwiseOr_L_XEyPNS2_21__tag_PMC_HANDLE_UINTE
                0x0000000066132a30       0x10 ../build/x64_Release/pmc_initialize.o
                0x0000000066132a30                .refptr._ZN8Palmtree4Math4Core8Internal17PMC_BitwiseOr_L_XEyPNS2_21__tag_PMC_HANDLE_UINTE
 .rdata$.refptr._ZN8Palmtree4Math4Core8Internal17PMC_BitwiseOr_X_IEPNS2_21__tag_PMC_HANDLE_UINTEj
                0x0000000066132a40       0x10 ../build/x64_Release/pmc_initialize.o
                0x0000000066132a40                .refptr._ZN8Palmtree4Math4Core8Internal17PMC_BitwiseOr_X_IEPNS2_21__tag_PMC_HANDLE_UINTEj
 .rdata$.refptr._ZN8Palmtree4Math4Core8Internal17PMC_BitwiseOr_X_LEPNS2_21__tag_PMC_HANDLE_UINTEy
                0x0000000066132a50       0x10 ../build/x64_Release/pmc_initialize.o
                0x0000000066132a50                .refptr._ZN8Palmtree4Math4Core8Internal17PMC_BitwiseOr_X_LEPNS2_21__tag_PMC_HANDLE_UINTEy
 .rdata$.refptr._ZN8Palmtree4Math4Core8Internal17PMC_BitwiseOr_X_XEPNS2_21__tag_PMC_HANDLE_UINTES4_
                0x0000000066132a60       0x10 ../build/x64_Release/pmc_initialize.o
                0x0000000066132a60                .refptr._ZN8Palmtree4Math4Core8Internal17PMC_BitwiseOr_X_XEPNS2_21__tag_PMC_HANDLE_UINTES4_
 .rdata$.refptr._ZN8Palmtree4Math4Core8Internal17PMC_FromByteArrayEPKhy
                0x0000000066132a70       0x10 ../build/x64_Release/pmc_initialize.o
                0x0000000066132a70                .refptr._ZN8Palmtree4Math4Core8Internal17PMC_FromByteArrayEPKhy
 .rdata$.refptr._ZN8Palmtree4Math4Core8Internal17PMC_LeftShift_X_IEPNS2_21__tag_PMC_HANDLE_UINTEi
                0x0000000066132a80       0x10 ../build/x64_Release/pmc_initialize.o
                0x0000000066132a80                .refptr._ZN8Palmtree4Math4Core8Internal17PMC_LeftShift_X_IEPNS2_21__tag_PMC_HANDLE_UINTEi
 .rdata$.refptr._ZN8Palmtree4Math4Core8Internal18PMC_BitwiseAnd_I_XEjPNS2_21__tag_PMC_HANDLE_UINTE
                0x0000000066132a90       0x10 ../build/x64_Release/pmc_initialize.o
                0x0000000066132a90                .refptr._ZN8Palmtree4Math4Core8Internal18PMC_BitwiseAnd_I_XEjPNS2_21__tag_PMC_HANDLE_UINTE
 .rdata$.refptr._ZN8Palmtree4Math4Core8Internal18PMC_BitwiseAnd_L_XEyPNS2_21__tag_PMC_HANDLE_UINTE
                0x0000000066132aa0       0x10 ../build/x64_Release/pmc_initialize.o
                0x0000000066132aa0                .refptr._ZN8Palmtree4Math4Core8Internal18PMC_BitwiseAnd_L_XEyPNS2_21__tag_PMC_HANDLE_UINTE
 .rdata$.refptr._ZN8Palmtree4Math4Core8Internal18PMC_BitwiseAnd_X_IEPNS2_21__tag_PMC_HANDLE_UINTEj
                0x0000000066132ab0       0x10 ../build/x64_Release/pmc_initialize.o
                0x0000000066132ab0                .refptr._ZN8Palmtree4Math4Core8Internal18PMC_BitwiseAnd_X_IEPNS2_21__tag_PMC_HANDLE_UINTEj
 .rdata$.refptr._ZN8Palmtree4Math4Core8Internal18PMC_BitwiseAnd_X_LEPNS2_21__tag_PMC_HANDLE_UINTEy
                0x0000000066132ac0       0x10 ../build/x64_Release/pmc_initialize.o
                0x0000000066132ac0                .refptr._ZN8Palmtree4Math4Core8Internal18PMC_BitwiseAnd_X_LEPNS2_21__tag_PMC_HANDLE_UINTEy
 .rdata$.refptr._ZN8Palmtree4Math4Core8Internal18PMC_BitwiseAnd_X_XEPNS2_21__tag_PMC_HANDLE_UINTES4_
                0x0000000066132ad0       0x10 ../build/x64_Release/pmc_initialize.o
                0x0000000066132ad0                .refptr._ZN8Palmtree4Math4Core8Internal18PMC_BitwiseAnd_X_XEPNS2_21__tag_PMC_HANDLE_UINTES4_
 .rdata$.refptr._ZN8Palmtree4Math4Core8Internal18PMC_RightShift_X_IEPNS2_21__tag_PMC_HANDLE_UINTEi
                0x0000000066132ae0       0x10 ../build/x64_Release/pmc_initialize.o
                0x0000000066132ae0                .refptr._ZN8Palmtree4Math4Core8Internal18PMC_RightShift_X_IEPNS2_21__tag_PMC_HANDLE_UINTEi
 .rdata$.refptr._ZN8Palmtree4Math4Core8Internal19PMC_ExclusiveOr_I_XEjPNS2_21__tag_PMC_HANDLE_UINTE
                0x0000000066132af0       0x10 ../build/x64_Release/pmc_initialize.o
                0x0000000066132af0                .refptr._ZN8Palmtree4Math4Core8Internal19PMC_ExclusiveOr_I_XEjPNS2_21__tag_PMC_HANDLE_UINTE
 .rdata$.refptr._ZN8Palmtree4Math4Core8Internal19PMC_ExclusiveOr_L_XEyPNS2_21__tag_PMC_HANDLE_UINTE
                0x0000000066132b00       0x10 ../build/x64_Release/pmc_initialize.o
                0x0000000066132b00                .refptr._ZN8Palmtree4Math4Core8Internal19PMC_ExclusiveOr_L_XEyPNS2_21__tag_PMC_HANDLE_UINTE
 .rdata$.refptr._ZN8Palmtree4Math4Core8Internal19PMC_ExclusiveOr_X_IEPNS2_21__tag_PMC_HANDLE_UINTEj
                0x0000000066132b10       0x10 ../build/x64_Release/pmc_initialize.o
                0x0000000066132b10                .refptr._ZN8Palmtree4Math4Core8Internal19PMC_ExclusiveOr_X_IEPNS2_21__tag_PMC_HANDLE_UINTEj
 .rdata$.refptr._ZN8Palmtree4Math4Core8Internal19PMC_ExclusiveOr_X_LEPNS2_21__tag_PMC_HANDLE_UINTEy
                0x0000000066132b20       0x10 ../build/x64_Release/pmc_initialize.o
                0x0000000066132b20                .refptr._ZN8Palmtree4Math4Core8Internal19PMC_ExclusiveOr_X_LEPNS2_21__tag_PMC_HANDLE_UINTEy
 .rdata$.refptr._ZN8Palmtree4Math4Core8Internal19PMC_ExclusiveOr_X_XEPNS2_21__tag_PMC_HANDLE_UINTES4_
                0x0000000066132b30       0x10 ../build/x64_Release/pmc_initialize.o
                0x0000000066132b30                .refptr._ZN8Palmtree4Math4Core8Internal19PMC_ExclusiveOr_X_XEPNS2_21__tag_PMC_HANDLE_UINTES4_
 .rdata$.refptr._ZN8Palmtree4Math4Core8Internal19PMC_TryParseForSINTEPKwiPKNS2_28__tag_PMC_NUMBER_FORMAT_INFOEPcPPNS2_21__tag_PMC_HANDLE_UINTEPj
                0x0000000066132b40       0x10 ../build/x64_Release/pmc_initialize.o
                0x0000000066132b40                .refptr._ZN8Palmtree4Math4Core8Internal19PMC_TryParseForSINTEPKwiPKNS2_28__tag_PMC_NUMBER_FORMAT_INFOEPcPPNS2_21__tag_PMC_HANDLE_UINTEPj
 .rdata$.refptr._ZN8Palmtree4Math4Core8Internal21PMC_GetStatisticsInfoEPNS2_25__tag_PMC_STATISTICS_INFOE
                0x0000000066132b50       0x10 ../build/x64_Release/pmc_initialize.o
                0x0000000066132b50                .refptr._ZN8Palmtree4Math4Core8Internal21PMC_GetStatisticsInfoEPNS2_25__tag_PMC_STATISTICS_INFOE
 .rdata$.refptr._ZN8Palmtree4Math4Core8Internal22PMC_GetConstantValue_IEi
                0x0000000066132b60       0x10 ../build/x64_Release/pmc_initialize.o
                0x0000000066132b60                .refptr._ZN8Palmtree4Math4Core8Internal22PMC_GetConstantValue_IEi
 .rdata$.refptr._ZN8Palmtree4Math4Core8Internal22PMC_ToByteArrayForSINTEcPNS2_21__tag_PMC_HANDLE_UINTEPhy
                0x0000000066132b70       0x10 ../build/x64_Release/pmc_initialize.o
                0x0000000066132b70                .refptr._ZN8Palmtree4Math4Core8Internal22PMC_ToByteArrayForSINTEcPNS2_21__tag_PMC_HANDLE_UINTEPhy
 .rdata$.refptr._ZN8Palmtree4Math4Core8Internal24PMC_FromByteArrayForSINTEPhyPc
                0x0000000066132b80       0x10 ../build/x64_Release/pmc_initialize.o
                0x0000000066132b80                .refptr._ZN8Palmtree4Math4Core8Internal24PMC_FromByteArrayForSINTEPhyPc
 .rdata$.refptr._ZN8Palmtree4Math4Core8Internal26PMC_GetAllocatedMemorySizeEv
                0x0000000066132b90       0x10 ../build/x64_Release/pmc_initialize.o
                0x0000000066132b90                .refptr._ZN8Palmtree4Math4Core8Internal26PMC_GetAllocatedMemorySizeEv
 .rdata$.refptr._ZN8Palmtree4Math4Core8Internal29PMC_GreatestCommonDivisor_I_XEjPNS2_21__tag_PMC_HANDLE_UINTE
                0x0000000066132ba0       0x10 ../build/x64_Release/pmc_initialize.o
                0x0000000066132ba0                .refptr._ZN8Palmtree4Math4Core8Internal29PMC_GreatestCommonDivisor_I_XEjPNS2_21__tag_PMC_HANDLE_UINTE
 .rdata$.refptr._ZN8Palmtree4Math4Core8Internal29PMC_GreatestCommonDivisor_L_XEyPNS2_21__tag_PMC_HANDLE_UINTE
                0x0000000066132bb0       0x10 ../build/x64_Release/pmc_initialize.o
                0x0000000066132bb0                .refptr._ZN8Palmtree4Math4Core8Internal29PMC_GreatestCommonDivisor_L_XEyPNS2_21__tag_PMC_HANDLE_UINTE
 .rdata$.refptr._ZN8Palmtree4Math4Core8Internal29PMC_GreatestCommonDivisor_X_IEPNS2_21__tag_PMC_HANDLE_UINTEj
                0x0000000066132bc0       0x10 ../build/x64_Release/pmc_initialize.o
                0x0000000066132bc0                .refptr._ZN8Palmtree4Math4Core8Internal29PMC_GreatestCommonDivisor_X_IEPNS2_21__tag_PMC_HANDLE_UINTEj
 .rdata$.refptr._ZN8Palmtree4Math4Core8Internal29PMC_GreatestCommonDivisor_X_LEPNS2_21__tag_PMC_HANDLE_UINTEy
                0x0000000066132bd0       0x10 ../build/x64_Release/pmc_initialize.o
                0x0000000066132bd0                .refptr._ZN8Palmtree4Math4Core8Internal29PMC_GreatestCommonDivisor_X_LEPNS2_21__tag_PMC_HANDLE_UINTEy
 .rdata$.refptr._ZN8Palmtree4Math4Core8Internal29PMC_GreatestCommonDivisor_X_XEPNS2_21__tag_PMC_HANDLE_UINTES4_
                0x0000000066132be0       0x10 ../build/x64_Release/pmc_initialize.o
                0x0000000066132be0                .refptr._ZN8Palmtree4Math4Core8Internal29PMC_GreatestCommonDivisor_X_XEPNS2_21__tag_PMC_HANDLE_UINTES4_
 .rdata$.refptr._ZN8Palmtree4Math4Core8Internal30PMC_InitializeNumberFormatInfoEPNS2_28__tag_PMC_NUMBER_FORMAT_INFOE
                0x0000000066132bf0       0x10 ../build/x64_Release/pmc_initialize.o
                0x0000000066132bf0                .refptr._ZN8Palmtree4Math4Core8Internal30PMC_InitializeNumberFormatInfoEPNS2_28__tag_PMC_NUMBER_FORMAT_INFOE
 .rdata$.refptr._ZNSt13bad_exceptionD1Ev
                0x0000000066132c00       0x10 C:/GNU/MINGW64/x86_64-8.1.0-win32-seh-rt_v6-rev0/mingw64/bin/../lib/gcc/x86_64-w64-mingw32/8.1.0\libstdc++.a(eh_personality.o)
                0x0000000066132c00                .refptr._ZNSt13bad_exceptionD1Ev
 .rdata$.refptr._ZNSt9bad_allocD1Ev
                0x0000000066132c10       0x10 C:/GNU/MINGW64/x86_64-8.1.0-win32-seh-rt_v6-rev0/mingw64/bin/../lib/gcc/x86_64-w64-mingw32/8.1.0\libstdc++.a(new_op.o)
                0x0000000066132c10                .refptr._ZNSt9bad_allocD1Ev
 .rdata$.refptr._ZTVSt13bad_exception
                0x0000000066132c20       0x10 C:/GNU/MINGW64/x86_64-8.1.0-win32-seh-rt_v6-rev0/mingw64/bin/../lib/gcc/x86_64-w64-mingw32/8.1.0\libstdc++.a(eh_personality.o)
                0x0000000066132c20                .refptr._ZTVSt13bad_exception
 .rdata$.refptr._ZTVSt9bad_alloc
                0x0000000066132c30       0x10 C:/GNU/MINGW64/x86_64-8.1.0-win32-seh-rt_v6-rev0/mingw64/bin/../lib/gcc/x86_64-w64-mingw32/8.1.0\libstdc++.a(new_op.o)
                0x0000000066132c30                .refptr._ZTVSt9bad_alloc
 .rdata$.refptr.__CTOR_LIST__
                0x0000000066132c40       0x10 C:/GNU/MINGW64/x86_64-8.1.0-win32-seh-rt_v6-rev0/mingw64/bin/../lib/gcc/x86_64-w64-mingw32/8.1.0/../../../../x86_64-w64-mingw32/lib/../lib\libmingw32.a(lib64_libmingw32_a-gccmain.o)
                0x0000000066132c40                .refptr.__CTOR_LIST__
 .rdata$.refptr.__RUNTIME_PSEUDO_RELOC_LIST_END__
                0x0000000066132c50       0x10 C:/GNU/MINGW64/x86_64-8.1.0-win32-seh-rt_v6-rev0/mingw64/bin/../lib/gcc/x86_64-w64-mingw32/8.1.0/../../../../x86_64-w64-mingw32/lib/../lib\libmingw32.a(lib64_libmingw32_a-pseudo-reloc.o)
                0x0000000066132c50                .refptr.__RUNTIME_PSEUDO_RELOC_LIST_END__
 .rdata$.refptr.__RUNTIME_PSEUDO_RELOC_LIST__
                0x0000000066132c60       0x10 C:/GNU/MINGW64/x86_64-8.1.0-win32-seh-rt_v6-rev0/mingw64/bin/../lib/gcc/x86_64-w64-mingw32/8.1.0/../../../../x86_64-w64-mingw32/lib/../lib\libmingw32.a(lib64_libmingw32_a-pseudo-reloc.o)
                0x0000000066132c60                .refptr.__RUNTIME_PSEUDO_RELOC_LIST__
 .rdata$.refptr.__dyn_tls_init_callback
                0x0000000066132c70       0x10 C:/GNU/MINGW64/x86_64-8.1.0-win32-seh-rt_v6-rev0/mingw64/bin/../lib/gcc/x86_64-w64-mingw32/8.1.0/../../../../x86_64-w64-mingw32/lib/../lib/dllcrt2.o
                0x0000000066132c70                .refptr.__dyn_tls_init_callback
 .rdata$.refptr.__image_base__
                0x0000000066132c80       0x10 C:/GNU/MINGW64/x86_64-8.1.0-win32-seh-rt_v6-rev0/mingw64/bin/../lib/gcc/x86_64-w64-mingw32/8.1.0/../../../../x86_64-w64-mingw32/lib/../lib\libmingw32.a(lib64_libmingw32_a-pseudo-reloc.o)
                0x0000000066132c80                .refptr.__image_base__
 .rdata$.refptr.__native_dllmain_reason
                0x0000000066132c90       0x10 C:/GNU/MINGW64/x86_64-8.1.0-win32-seh-rt_v6-rev0/mingw64/bin/../lib/gcc/x86_64-w64-mingw32/8.1.0/../../../../x86_64-w64-mingw32/lib/../lib/dllcrt2.o
                0x0000000066132c90                .refptr.__native_dllmain_reason
 .rdata$.refptr.__native_startup_lock
                0x0000000066132ca0       0x10 C:/GNU/MINGW64/x86_64-8.1.0-win32-seh-rt_v6-rev0/mingw64/bin/../lib/gcc/x86_64-w64-mingw32/8.1.0/../../../../x86_64-w64-mingw32/lib/../lib/dllcrt2.o
                0x0000000066132ca0                .refptr.__native_startup_lock
 .rdata$.refptr.__native_startup_state
                0x0000000066132cb0       0x10 C:/GNU/MINGW64/x86_64-8.1.0-win32-seh-rt_v6-rev0/mingw64/bin/../lib/gcc/x86_64-w64-mingw32/8.1.0/../../../../x86_64-w64-mingw32/lib/../lib/dllcrt2.o
                0x0000000066132cb0                .refptr.__native_startup_state
 .rdata$.refptr.__xc_a
                0x0000000066132cc0       0x10 C:/GNU/MINGW64/x86_64-8.1.0-win32-seh-rt_v6-rev0/mingw64/bin/../lib/gcc/x86_64-w64-mingw32/8.1.0/../../../../x86_64-w64-mingw32/lib/../lib/dllcrt2.o
                0x0000000066132cc0                .refptr.__xc_a
 .rdata$.refptr.__xc_z
                0x0000000066132cd0       0x10 C:/GNU/MINGW64/x86_64-8.1.0-win32-seh-rt_v6-rev0/mingw64/bin/../lib/gcc/x86_64-w64-mingw32/8.1.0/../../../../x86_64-w64-mingw32/lib/../lib/dllcrt2.o
                0x0000000066132cd0                .refptr.__xc_z
 .rdata$.refptr.__xi_a
                0x0000000066132ce0       0x10 C:/GNU/MINGW64/x86_64-8.1.0-win32-seh-rt_v6-rev0/mingw64/bin/../lib/gcc/x86_64-w64-mingw32/8.1.0/../../../../x86_64-w64-mingw32/lib/../lib/dllcrt2.o
                0x0000000066132ce0                .refptr.__xi_a
 .rdata$.refptr.__xi_z
                0x0000000066132cf0       0x10 C:/GNU/MINGW64/x86_64-8.1.0-win32-seh-rt_v6-rev0/mingw64/bin/../lib/gcc/x86_64-w64-mingw32/8.1.0/../../../../x86_64-w64-mingw32/lib/../lib/dllcrt2.o
                0x0000000066132cf0                .refptr.__xi_z
 .rdata$.refptr.mingw_app_type
                0x0000000066132d00       0x10 C:/GNU/MINGW64/x86_64-8.1.0-win32-seh-rt_v6-rev0/mingw64/bin/../lib/gcc/x86_64-w64-mingw32/8.1.0/../../../../x86_64-w64-mingw32/lib/../lib/dllcrt2.o
                0x0000000066132d00                .refptr.mingw_app_type
 .rdata$_ZSt7nothrow
                0x0000000066132d10       0x10 C:/GNU/MINGW64/x86_64-8.1.0-win32-seh-rt_v6-rev0/mingw64/bin/../lib/gcc/x86_64-w64-mingw32/8.1.0\libstdc++.a(new_handler.o)
                0x0000000066132d10                std::nothrow
 .rdata$_ZTIN10__cxxabiv115__forced_unwindE
                0x0000000066132d20       0x10 C:/GNU/MINGW64/x86_64-8.1.0-win32-seh-rt_v6-rev0/mingw64/bin/../lib/gcc/x86_64-w64-mingw32/8.1.0\libstdc++.a(eh_exception.o)
                0x0000000066132d20                typeinfo for __cxxabiv1::__forced_unwind
 .rdata$_ZTIN10__cxxabiv117__class_type_infoE
                0x0000000066132d30       0x20 C:/GNU/MINGW64/x86_64-8.1.0-win32-seh-rt_v6-rev0/mingw64/bin/../lib/gcc/x86_64-w64-mingw32/8.1.0\libstdc++.a(class_type_info.o)
                0x0000000066132d30                typeinfo for __cxxabiv1::__class_type_info
 .rdata$_ZTIN10__cxxabiv119__foreign_exceptionE
                0x0000000066132d50       0x10 C:/GNU/MINGW64/x86_64-8.1.0-win32-seh-rt_v6-rev0/mingw64/bin/../lib/gcc/x86_64-w64-mingw32/8.1.0\libstdc++.a(eh_exception.o)
                0x0000000066132d50                typeinfo for __cxxabiv1::__foreign_exception
 .rdata$_ZTIN10__cxxabiv120__si_class_type_infoE
                0x0000000066132d60       0x20 C:/GNU/MINGW64/x86_64-8.1.0-win32-seh-rt_v6-rev0/mingw64/bin/../lib/gcc/x86_64-w64-mingw32/8.1.0\libstdc++.a(si_class_type_info.o)
                0x0000000066132d60                typeinfo for __cxxabiv1::__si_class_type_info
 .rdata$_ZTIN10__cxxabiv121__vmi_class_type_infoE
                0x0000000066132d80       0x20 C:/GNU/MINGW64/x86_64-8.1.0-win32-seh-rt_v6-rev0/mingw64/bin/../lib/gcc/x86_64-w64-mingw32/8.1.0\libstdc++.a(vmi_class_type_info.o)
                0x0000000066132d80                typeinfo for __cxxabiv1::__vmi_class_type_info
 .rdata$_ZTIN8Palmtree4Math4Core8Internal12StringReaderE
                0x0000000066132da0       0x10 ../build/x64_Release/pmc_parse.o
                0x0000000066132da0                typeinfo for Palmtree::Math::Core::Internal::StringReader
 .rdata$_ZTIN8Palmtree4Math4Core8Internal12StringWriterE
                0x0000000066132db0       0x10 ../build/x64_Release/pmc_parse.o
                0x0000000066132db0                typeinfo for Palmtree::Math::Core::Internal::StringWriter
 .rdata$_ZTIN8Palmtree4Math4Core8Internal14ResourceHolder16__ChainBufferTagE
                0x0000000066132dc0       0x10 ../build/x64_Release/pmc_memory.o
                0x0000000066132dc0                typeinfo for Palmtree::Math::Core::Internal::ResourceHolder::__ChainBufferTag
 .rdata$_ZTIN8Palmtree4Math4Core8Internal14ResourceHolder9__RootTagE
                0x0000000066132dd0       0x20 ../build/x64_Release/pmc_memory.o
                0x0000000066132dd0                typeinfo for Palmtree::Math::Core::Internal::ResourceHolder::__RootTag
 .rdata$_ZTIN8Palmtree4Math4Core8Internal14ResourceHolderE
                0x0000000066132df0       0x10 ../build/x64_Release/pmc_memory.o
                0x0000000066132df0                typeinfo for Palmtree::Math::Core::Internal::ResourceHolder
 .rdata$_ZTIN8Palmtree4Math4Core8Internal15FormatExceptionE
                0x0000000066132e00       0x20 ../build/x64_Release/pmc_bytes.o
                0x0000000066132e00                typeinfo for Palmtree::Math::Core::Internal::FormatException
 .rdata$_ZTIN8Palmtree4Math4Core8Internal16DecimalFromatter14FormatterTypeCE
                0x0000000066132e20       0x20 ../build/x64_Release/pmc_tostring.o
                0x0000000066132e20                typeinfo for Palmtree::Math::Core::Internal::DecimalFromatter::FormatterTypeC
 .rdata$_ZTIN8Palmtree4Math4Core8Internal16DecimalFromatter14FormatterTypeEE
                0x0000000066132e40       0x20 ../build/x64_Release/pmc_tostring.o
                0x0000000066132e40                typeinfo for Palmtree::Math::Core::Internal::DecimalFromatter::FormatterTypeE
 .rdata$_ZTIN8Palmtree4Math4Core8Internal16DecimalFromatter14FormatterTypeFE
                0x0000000066132e60       0x20 ../build/x64_Release/pmc_tostring.o
                0x0000000066132e60                typeinfo for Palmtree::Math::Core::Internal::DecimalFromatter::FormatterTypeF
 .rdata$_ZTIN8Palmtree4Math4Core8Internal16DecimalFromatter14FormatterTypeNE
                0x0000000066132e80       0x20 ../build/x64_Release/pmc_tostring.o
                0x0000000066132e80                typeinfo for Palmtree::Math::Core::Internal::DecimalFromatter::FormatterTypeN
 .rdata$_ZTIN8Palmtree4Math4Core8Internal16DecimalFromatter14FormatterTypePE
                0x0000000066132ea0       0x20 ../build/x64_Release/pmc_tostring.o
                0x0000000066132ea0                typeinfo for Palmtree::Math::Core::Internal::DecimalFromatter::FormatterTypeP
 .rdata$_ZTIN8Palmtree4Math4Core8Internal16DecimalFromatter9FormatterE
                0x0000000066132ec0       0x10 ../build/x64_Release/pmc_tostring.o
                0x0000000066132ec0                typeinfo for Palmtree::Math::Core::Internal::DecimalFromatter::Formatter
 .rdata$_ZTIN8Palmtree4Math4Core8Internal17ArgumentExceptionE
                0x0000000066132ed0       0x20 ../build/x64_Release/pmc_memory.o
                0x0000000066132ed0                typeinfo for Palmtree::Math::Core::Internal::ArgumentException
 .rdata$_ZTIN8Palmtree4Math4Core8Internal17OverflowExceptionE
                0x0000000066132ef0       0x20 ../build/x64_Release/pmc_pow.o
                0x0000000066132ef0                typeinfo for Palmtree::Math::Core::Internal::OverflowException
 .rdata$_ZTIN8Palmtree4Math4Core8Internal18BadBufferExceptionE
                0x0000000066132f10       0x20 ../build/x64_Release/pmc_memory.o
                0x0000000066132f10                typeinfo for Palmtree::Math::Core::Internal::BadBufferException
 .rdata$_ZTIN8Palmtree4Math4Core8Internal18ResourceHolderUINT22__StringChainBufferTagE
                0x0000000066132f30       0x20 ../build/x64_Release/pmc_memory.o
                0x0000000066132f30                typeinfo for Palmtree::Math::Core::Internal::ResourceHolderUINT::__StringChainBufferTag
 .rdata$_ZTIN8Palmtree4Math4Core8Internal18ResourceHolderUINT23__GenericChainBufferTagE
                0x0000000066132f50       0x20 ../build/x64_Release/pmc_memory.o
                0x0000000066132f50                typeinfo for Palmtree::Math::Core::Internal::ResourceHolderUINT::__GenericChainBufferTag
 .rdata$_ZTIN8Palmtree4Math4Core8Internal18ResourceHolderUINT28__StaticNumberChainBufferTagE
                0x0000000066132f70       0x20 ../build/x64_Release/pmc_memory.o
                0x0000000066132f70                typeinfo for Palmtree::Math::Core::Internal::ResourceHolderUINT::__StaticNumberChainBufferTag
 .rdata$_ZTIN8Palmtree4Math4Core8Internal18ResourceHolderUINT29__DynamicNumberChainBufferTagE
                0x0000000066132f90       0x20 ../build/x64_Release/pmc_memory.o
                0x0000000066132f90                typeinfo for Palmtree::Math::Core::Internal::ResourceHolderUINT::__DynamicNumberChainBufferTag
 .rdata$_ZTIN8Palmtree4Math4Core8Internal18ResourceHolderUINT34____UNIT_TYPE_Array_ChainBufferTagE
                0x0000000066132fb0       0x20 ../build/x64_Release/pmc_memory.o
                0x0000000066132fb0                typeinfo for Palmtree::Math::Core::Internal::ResourceHolderUINT::____UNIT_TYPE_Array_ChainBufferTag
 .rdata$_ZTIN8Palmtree4Math4Core8Internal18ResourceHolderUINT35__NumberHandleHookingChainBufferTagE
                0x0000000066132fd0       0x20 ../build/x64_Release/pmc_memory.o
                0x0000000066132fd0                typeinfo for Palmtree::Math::Core::Internal::ResourceHolderUINT::__NumberHandleHookingChainBufferTag
 .rdata$_ZTIN8Palmtree4Math4Core8Internal18ResourceHolderUINTE
                0x0000000066132ff0       0x30 ../build/x64_Release/pmc_memory.o
                0x0000000066132ff0                typeinfo for Palmtree::Math::Core::Internal::ResourceHolderUINT
 .rdata$_ZTIN8Palmtree4Math4Core8Internal19ArithmeticExceptionE
                0x0000000066133020       0x20 ../build/x64_Release/pmc_greatestcommondivisor.o
                0x0000000066133020                typeinfo for Palmtree::Math::Core::Internal::ArithmeticException
 .rdata$_ZTIN8Palmtree4Math4Core8Internal19ReverseStringWriterE
                0x0000000066133040       0x20 ../build/x64_Release/pmc_tostring.o
                0x0000000066133040                typeinfo for Palmtree::Math::Core::Internal::ReverseStringWriter
 .rdata$_ZTIN8Palmtree4Math4Core8Internal21ArgumentNullExceptionE
                0x0000000066133060       0x20 ../build/x64_Release/pmc_add.o
                0x0000000066133060                typeinfo for Palmtree::Math::Core::Internal::ArgumentNullException
 .rdata$_ZTIN8Palmtree4Math4Core8Internal21NotSupportedExceptionE
                0x0000000066133080       0x20 ../build/x64_Release/pmc_tostring.o
                0x0000000066133080                typeinfo for Palmtree::Math::Core::Internal::NotSupportedException
 .rdata$_ZTIN8Palmtree4Math4Core8Internal22InternalErrorExceptionE
                0x00000000661330a0       0x20 ../build/x64_Release/pmc_add.o
                0x00000000661330a0                typeinfo for Palmtree::Math::Core::Internal::InternalErrorException
 .rdata$_ZTIN8Palmtree4Math4Core8Internal23DivisionByZeroExceptionE
                0x00000000661330c0       0x20 ../build/x64_Release/pmc_divrem.o
                0x00000000661330c0                typeinfo for Palmtree::Math::Core::Internal::DivisionByZeroException
 .rdata$_ZTIN8Palmtree4Math4Core8Internal24NotEnoughMemoryExceptionE
                0x00000000661330e0       0x20 ../build/x64_Release/pmc_memory.o
                0x00000000661330e0                typeinfo for Palmtree::Math::Core::Internal::NotEnoughMemoryException
 .rdata$_ZTIN8Palmtree4Math4Core8Internal27InsufficientBufferExceptionE
                0x0000000066133100       0x20 ../build/x64_Release/pmc_bytes.o
                0x0000000066133100                typeinfo for Palmtree::Math::Core::Internal::InsufficientBufferException
 .rdata$_ZTIN8Palmtree4Math4Core8Internal9ExceptionE
                0x0000000066133120       0x30 ../build/x64_Release/pmc_add.o
                0x0000000066133120                typeinfo for Palmtree::Math::Core::Internal::Exception
 .rdata$_ZTIN9__gnu_cxx24__concurrence_lock_errorE
                0x0000000066133150       0x20 C:/GNU/MINGW64/x86_64-8.1.0-win32-seh-rt_v6-rev0/mingw64/bin/../lib/gcc/x86_64-w64-mingw32/8.1.0\libstdc++.a(eh_alloc.o)
                0x0000000066133150                typeinfo for __gnu_cxx::__concurrence_lock_error
 .rdata$_ZTIN9__gnu_cxx26__concurrence_unlock_errorE
                0x0000000066133170       0x20 C:/GNU/MINGW64/x86_64-8.1.0-win32-seh-rt_v6-rev0/mingw64/bin/../lib/gcc/x86_64-w64-mingw32/8.1.0\libstdc++.a(eh_alloc.o)
                0x0000000066133170                typeinfo for __gnu_cxx::__concurrence_unlock_error
 .rdata$_ZTISt13bad_exception
                0x0000000066133190       0x20 C:/GNU/MINGW64/x86_64-8.1.0-win32-seh-rt_v6-rev0/mingw64/bin/../lib/gcc/x86_64-w64-mingw32/8.1.0\libstdc++.a(eh_exception.o)
                0x0000000066133190                typeinfo for std::bad_exception
 .rdata$_ZTISt9bad_alloc
                0x00000000661331b0       0x20 C:/GNU/MINGW64/x86_64-8.1.0-win32-seh-rt_v6-rev0/mingw64/bin/../lib/gcc/x86_64-w64-mingw32/8.1.0\libstdc++.a(new_op.o)
                0x00000000661331b0                typeinfo for std::bad_alloc
 .rdata$_ZTISt9exception
                0x00000000661331d0       0x10 ../build/x64_Release/pmc_add.o
                0x00000000661331d0                typeinfo for std::exception
 .rdata$_ZTISt9type_info
                0x00000000661331e0       0x10 C:/GNU/MINGW64/x86_64-8.1.0-win32-seh-rt_v6-rev0/mingw64/bin/../lib/gcc/x86_64-w64-mingw32/8.1.0\libstdc++.a(class_type_info.o)
                0x00000000661331e0                typeinfo for std::type_info
 *fill*         0x00000000661331f0       0x10 
 .rdata$_ZTSN10__cxxabiv115__forced_unwindE
                0x0000000066133200       0x20 C:/GNU/MINGW64/x86_64-8.1.0-win32-seh-rt_v6-rev0/mingw64/bin/../lib/gcc/x86_64-w64-mingw32/8.1.0\libstdc++.a(eh_exception.o)
                0x0000000066133200                typeinfo name for __cxxabiv1::__forced_unwind
 .rdata$_ZTSN10__cxxabiv117__class_type_infoE
                0x0000000066133220       0x40 C:/GNU/MINGW64/x86_64-8.1.0-win32-seh-rt_v6-rev0/mingw64/bin/../lib/gcc/x86_64-w64-mingw32/8.1.0\libstdc++.a(class_type_info.o)
                0x0000000066133220                typeinfo name for __cxxabiv1::__class_type_info
 .rdata$_ZTSN10__cxxabiv119__foreign_exceptionE
                0x0000000066133260       0x40 C:/GNU/MINGW64/x86_64-8.1.0-win32-seh-rt_v6-rev0/mingw64/bin/../lib/gcc/x86_64-w64-mingw32/8.1.0\libstdc++.a(eh_exception.o)
                0x0000000066133260                typeinfo name for __cxxabiv1::__foreign_exception
 .rdata$_ZTSN10__cxxabiv120__si_class_type_infoE
                0x00000000661332a0       0x40 C:/GNU/MINGW64/x86_64-8.1.0-win32-seh-rt_v6-rev0/mingw64/bin/../lib/gcc/x86_64-w64-mingw32/8.1.0\libstdc++.a(si_class_type_info.o)
                0x00000000661332a0                typeinfo name for __cxxabiv1::__si_class_type_info
 .rdata$_ZTSN10__cxxabiv121__vmi_class_type_infoE
                0x00000000661332e0       0x40 C:/GNU/MINGW64/x86_64-8.1.0-win32-seh-rt_v6-rev0/mingw64/bin/../lib/gcc/x86_64-w64-mingw32/8.1.0\libstdc++.a(vmi_class_type_info.o)
                0x00000000661332e0                typeinfo name for __cxxabiv1::__vmi_class_type_info
 .rdata$_ZTSN8Palmtree4Math4Core8Internal12StringReaderE
                0x0000000066133320       0x40 ../build/x64_Release/pmc_parse.o
                0x0000000066133320                typeinfo name for Palmtree::Math::Core::Internal::StringReader
 .rdata$_ZTSN8Palmtree4Math4Core8Internal12StringWriterE
                0x0000000066133360       0x40 ../build/x64_Release/pmc_parse.o
                0x0000000066133360                typeinfo name for Palmtree::Math::Core::Internal::StringWriter
 .rdata$_ZTSN8Palmtree4Math4Core8Internal14ResourceHolder16__ChainBufferTagE
                0x00000000661333a0       0x60 ../build/x64_Release/pmc_memory.o
                0x00000000661333a0                typeinfo name for Palmtree::Math::Core::Internal::ResourceHolder::__ChainBufferTag
 .rdata$_ZTSN8Palmtree4Math4Core8Internal14ResourceHolder9__RootTagE
                0x0000000066133400       0x40 ../build/x64_Release/pmc_memory.o
                0x0000000066133400                typeinfo name for Palmtree::Math::Core::Internal::ResourceHolder::__RootTag
 .rdata$_ZTSN8Palmtree4Math4Core8Internal14ResourceHolderE
                0x0000000066133440       0x40 ../build/x64_Release/pmc_memory.o
                0x0000000066133440                typeinfo name for Palmtree::Math::Core::Internal::ResourceHolder
 .rdata$_ZTSN8Palmtree4Math4Core8Internal15FormatExceptionE
                0x0000000066133480       0x40 ../build/x64_Release/pmc_bytes.o
                0x0000000066133480                typeinfo name for Palmtree::Math::Core::Internal::FormatException
 .rdata$_ZTSN8Palmtree4Math4Core8Internal16DecimalFromatter14FormatterTypeCE
                0x00000000661334c0       0x60 ../build/x64_Release/pmc_tostring.o
                0x00000000661334c0                typeinfo name for Palmtree::Math::Core::Internal::DecimalFromatter::FormatterTypeC
 .rdata$_ZTSN8Palmtree4Math4Core8Internal16DecimalFromatter14FormatterTypeEE
                0x0000000066133520       0x60 ../build/x64_Release/pmc_tostring.o
                0x0000000066133520                typeinfo name for Palmtree::Math::Core::Internal::DecimalFromatter::FormatterTypeE
 .rdata$_ZTSN8Palmtree4Math4Core8Internal16DecimalFromatter14FormatterTypeFE
                0x0000000066133580       0x60 ../build/x64_Release/pmc_tostring.o
                0x0000000066133580                typeinfo name for Palmtree::Math::Core::Internal::DecimalFromatter::FormatterTypeF
 .rdata$_ZTSN8Palmtree4Math4Core8Internal16DecimalFromatter14FormatterTypeNE
                0x00000000661335e0       0x60 ../build/x64_Release/pmc_tostring.o
                0x00000000661335e0                typeinfo name for Palmtree::Math::Core::Internal::DecimalFromatter::FormatterTypeN
 .rdata$_ZTSN8Palmtree4Math4Core8Internal16DecimalFromatter14FormatterTypePE
                0x0000000066133640       0x60 ../build/x64_Release/pmc_tostring.o
                0x0000000066133640                typeinfo name for Palmtree::Math::Core::Internal::DecimalFromatter::FormatterTypeP
 .rdata$_ZTSN8Palmtree4Math4Core8Internal16DecimalFromatter9FormatterE
                0x00000000661336a0       0x40 ../build/x64_Release/pmc_tostring.o
                0x00000000661336a0                typeinfo name for Palmtree::Math::Core::Internal::DecimalFromatter::Formatter
 .rdata$_ZTSN8Palmtree4Math4Core8Internal17ArgumentExceptionE
                0x00000000661336e0       0x40 ../build/x64_Release/pmc_memory.o
                0x00000000661336e0                typeinfo name for Palmtree::Math::Core::Internal::ArgumentException
 .rdata$_ZTSN8Palmtree4Math4Core8Internal17OverflowExceptionE
                0x0000000066133720       0x40 ../build/x64_Release/pmc_pow.o
                0x0000000066133720                typeinfo name for Palmtree::Math::Core::Internal::OverflowException
 .rdata$_ZTSN8Palmtree4Math4Core8Internal18BadBufferExceptionE
                0x0000000066133760       0x40 ../build/x64_Release/pmc_memory.o
                0x0000000066133760                typeinfo name for Palmtree::Math::Core::Internal::BadBufferException
 .rdata$_ZTSN8Palmtree4Math4Core8Internal18ResourceHolderUINT22__StringChainBufferTagE
                0x00000000661337a0       0x60 ../build/x64_Release/pmc_memory.o
                0x00000000661337a0                typeinfo name for Palmtree::Math::Core::Internal::ResourceHolderUINT::__StringChainBufferTag
 .rdata$_ZTSN8Palmtree4Math4Core8Internal18ResourceHolderUINT23__GenericChainBufferTagE
                0x0000000066133800       0x60 ../build/x64_Release/pmc_memory.o
                0x0000000066133800                typeinfo name for Palmtree::Math::Core::Internal::ResourceHolderUINT::__GenericChainBufferTag
 .rdata$_ZTSN8Palmtree4Math4Core8Internal18ResourceHolderUINT28__StaticNumberChainBufferTagE
                0x0000000066133860       0x60 ../build/x64_Release/pmc_memory.o
                0x0000000066133860                typeinfo name for Palmtree::Math::Core::Internal::ResourceHolderUINT::__StaticNumberChainBufferTag
 .rdata$_ZTSN8Palmtree4Math4Core8Internal18ResourceHolderUINT29__DynamicNumberChainBufferTagE
                0x00000000661338c0       0x60 ../build/x64_Release/pmc_memory.o
                0x00000000661338c0                typeinfo name for Palmtree::Math::Core::Internal::ResourceHolderUINT::__DynamicNumberChainBufferTag
 .rdata$_ZTSN8Palmtree4Math4Core8Internal18ResourceHolderUINT34____UNIT_TYPE_Array_ChainBufferTagE
                0x0000000066133920       0x60 ../build/x64_Release/pmc_memory.o
                0x0000000066133920                typeinfo name for Palmtree::Math::Core::Internal::ResourceHolderUINT::____UNIT_TYPE_Array_ChainBufferTag
 .rdata$_ZTSN8Palmtree4Math4Core8Internal18ResourceHolderUINT35__NumberHandleHookingChainBufferTagE
                0x0000000066133980       0x60 ../build/x64_Release/pmc_memory.o
                0x0000000066133980                typeinfo name for Palmtree::Math::Core::Internal::ResourceHolderUINT::__NumberHandleHookingChainBufferTag
 .rdata$_ZTSN8Palmtree4Math4Core8Internal18ResourceHolderUINTE
                0x00000000661339e0       0x40 ../build/x64_Release/pmc_memory.o
                0x00000000661339e0                typeinfo name for Palmtree::Math::Core::Internal::ResourceHolderUINT
 .rdata$_ZTSN8Palmtree4Math4Core8Internal19ArithmeticExceptionE
                0x0000000066133a20       0x40 ../build/x64_Release/pmc_greatestcommondivisor.o
                0x0000000066133a20                typeinfo name for Palmtree::Math::Core::Internal::ArithmeticException
 .rdata$_ZTSN8Palmtree4Math4Core8Internal19ReverseStringWriterE
                0x0000000066133a60       0x40 ../build/x64_Release/pmc_tostring.o
                0x0000000066133a60                typeinfo name for Palmtree::Math::Core::Internal::ReverseStringWriter
 .rdata$_ZTSN8Palmtree4Math4Core8Internal21ArgumentNullExceptionE
                0x0000000066133aa0       0x40 ../build/x64_Release/pmc_add.o
                0x0000000066133aa0                typeinfo name for Palmtree::Math::Core::Internal::ArgumentNullException
 .rdata$_ZTSN8Palmtree4Math4Core8Internal21NotSupportedExceptionE
                0x0000000066133ae0       0x40 ../build/x64_Release/pmc_tostring.o
                0x0000000066133ae0                typeinfo name for Palmtree::Math::Core::Internal::NotSupportedException
 .rdata$_ZTSN8Palmtree4Math4Core8Internal22InternalErrorExceptionE
                0x0000000066133b20       0x40 ../build/x64_Release/pmc_add.o
                0x0000000066133b20                typeinfo name for Palmtree::Math::Core::Internal::InternalErrorException
 .rdata$_ZTSN8Palmtree4Math4Core8Internal23DivisionByZeroExceptionE
                0x0000000066133b60       0x40 ../build/x64_Release/pmc_divrem.o
                0x0000000066133b60                typeinfo name for Palmtree::Math::Core::Internal::DivisionByZeroException
 .rdata$_ZTSN8Palmtree4Math4Core8Internal24NotEnoughMemoryExceptionE
                0x0000000066133ba0       0x40 ../build/x64_Release/pmc_memory.o
                0x0000000066133ba0                typeinfo name for Palmtree::Math::Core::Internal::NotEnoughMemoryException
 .rdata$_ZTSN8Palmtree4Math4Core8Internal27InsufficientBufferExceptionE
                0x0000000066133be0       0x40 ../build/x64_Release/pmc_bytes.o
                0x0000000066133be0                typeinfo name for Palmtree::Math::Core::Internal::InsufficientBufferException
 .rdata$_ZTSN8Palmtree4Math4Core8Internal9ExceptionE
                0x0000000066133c20       0x40 ../build/x64_Release/pmc_add.o
                0x0000000066133c20                typeinfo name for Palmtree::Math::Core::Internal::Exception
 .rdata$_ZTSN9__gnu_cxx24__concurrence_lock_errorE
                0x0000000066133c60       0x40 C:/GNU/MINGW64/x86_64-8.1.0-win32-seh-rt_v6-rev0/mingw64/bin/../lib/gcc/x86_64-w64-mingw32/8.1.0\libstdc++.a(eh_alloc.o)
                0x0000000066133c60                typeinfo name for __gnu_cxx::__concurrence_lock_error
 .rdata$_ZTSN9__gnu_cxx26__concurrence_unlock_errorE
                0x0000000066133ca0       0x40 C:/GNU/MINGW64/x86_64-8.1.0-win32-seh-rt_v6-rev0/mingw64/bin/../lib/gcc/x86_64-w64-mingw32/8.1.0\libstdc++.a(eh_alloc.o)
                0x0000000066133ca0                typeinfo name for __gnu_cxx::__concurrence_unlock_error
 .rdata$_ZTSSt13bad_exception
                0x0000000066133ce0       0x20 C:/GNU/MINGW64/x86_64-8.1.0-win32-seh-rt_v6-rev0/mingw64/bin/../lib/gcc/x86_64-w64-mingw32/8.1.0\libstdc++.a(eh_exception.o)
                0x0000000066133ce0                typeinfo name for std::bad_exception
 .rdata$_ZTSSt9bad_alloc
                0x0000000066133d00       0x10 C:/GNU/MINGW64/x86_64-8.1.0-win32-seh-rt_v6-rev0/mingw64/bin/../lib/gcc/x86_64-w64-mingw32/8.1.0\libstdc++.a(new_op.o)
                0x0000000066133d00                typeinfo name for std::bad_alloc
 .rdata$_ZTSSt9exception
                0x0000000066133d10       0x10 ../build/x64_Release/pmc_add.o
                0x0000000066133d10                typeinfo name for std::exception
 .rdata$_ZTSSt9type_info
                0x0000000066133d20       0x10 C:/GNU/MINGW64/x86_64-8.1.0-win32-seh-rt_v6-rev0/mingw64/bin/../lib/gcc/x86_64-w64-mingw32/8.1.0\libstdc++.a(class_type_info.o)
                0x0000000066133d20                typeinfo name for std::type_info
 .rdata$_ZTVN10__cxxabiv115__forced_unwindE
                0x0000000066133d30       0x30 C:/GNU/MINGW64/x86_64-8.1.0-win32-seh-rt_v6-rev0/mingw64/bin/../lib/gcc/x86_64-w64-mingw32/8.1.0\libstdc++.a(eh_exception.o)
                0x0000000066133d30                vtable for __cxxabiv1::__forced_unwind
 .rdata$_ZTVN10__cxxabiv117__class_type_infoE
                0x0000000066133d60       0x60 C:/GNU/MINGW64/x86_64-8.1.0-win32-seh-rt_v6-rev0/mingw64/bin/../lib/gcc/x86_64-w64-mingw32/8.1.0\libstdc++.a(class_type_info.o)
                0x0000000066133d60                vtable for __cxxabiv1::__class_type_info
 .rdata$_ZTVN10__cxxabiv119__foreign_exceptionE
                0x0000000066133dc0       0x30 C:/GNU/MINGW64/x86_64-8.1.0-win32-seh-rt_v6-rev0/mingw64/bin/../lib/gcc/x86_64-w64-mingw32/8.1.0\libstdc++.a(eh_exception.o)
                0x0000000066133dc0                vtable for __cxxabiv1::__foreign_exception
 .rdata$_ZTVN10__cxxabiv120__si_class_type_infoE
                0x0000000066133df0       0x60 C:/GNU/MINGW64/x86_64-8.1.0-win32-seh-rt_v6-rev0/mingw64/bin/../lib/gcc/x86_64-w64-mingw32/8.1.0\libstdc++.a(si_class_type_info.o)
                0x0000000066133df0                vtable for __cxxabiv1::__si_class_type_info
 .rdata$_ZTVN10__cxxabiv121__vmi_class_type_infoE
                0x0000000066133e50       0x60 C:/GNU/MINGW64/x86_64-8.1.0-win32-seh-rt_v6-rev0/mingw64/bin/../lib/gcc/x86_64-w64-mingw32/8.1.0\libstdc++.a(vmi_class_type_info.o)
                0x0000000066133e50                vtable for __cxxabiv1::__vmi_class_type_info
 .rdata$_ZTVN8Palmtree4Math4Core8Internal12StringReaderE
                0x0000000066133eb0       0x30 ../build/x64_Release/pmc_parse.o
                0x0000000066133eb0                vtable for Palmtree::Math::Core::Internal::StringReader
 .rdata$_ZTVN8Palmtree4Math4Core8Internal12StringWriterE
                0x0000000066133ee0       0x30 ../build/x64_Release/pmc_parse.o
                0x0000000066133ee0                vtable for Palmtree::Math::Core::Internal::StringWriter
 .rdata$_ZTVN8Palmtree4Math4Core8Internal14ResourceHolder16__ChainBufferTagE
                0x0000000066133f10       0x40 ../build/x64_Release/pmc_memory.o
                0x0000000066133f10                vtable for Palmtree::Math::Core::Internal::ResourceHolder::__ChainBufferTag
 .rdata$_ZTVN8Palmtree4Math4Core8Internal14ResourceHolder9__RootTagE
                0x0000000066133f50       0x40 ../build/x64_Release/pmc_memory.o
                0x0000000066133f50                vtable for Palmtree::Math::Core::Internal::ResourceHolder::__RootTag
 .rdata$_ZTVN8Palmtree4Math4Core8Internal14ResourceHolderE
                0x0000000066133f90       0x20 ../build/x64_Release/pmc_memory.o
                0x0000000066133f90                vtable for Palmtree::Math::Core::Internal::ResourceHolder
 .rdata$_ZTVN8Palmtree4Math4Core8Internal15FormatExceptionE
                0x0000000066133fb0       0x30 ../build/x64_Release/pmc_bytes.o
                0x0000000066133fb0                vtable for Palmtree::Math::Core::Internal::FormatException
 .rdata$_ZTVN8Palmtree4Math4Core8Internal16DecimalFromatter14FormatterTypeCE
                0x0000000066133fe0       0x40 ../build/x64_Release/pmc_tostring.o
                0x0000000066133fe0                vtable for Palmtree::Math::Core::Internal::DecimalFromatter::FormatterTypeC
 .rdata$_ZTVN8Palmtree4Math4Core8Internal16DecimalFromatter14FormatterTypeEE
                0x0000000066134020       0x40 ../build/x64_Release/pmc_tostring.o
                0x0000000066134020                vtable for Palmtree::Math::Core::Internal::DecimalFromatter::FormatterTypeE
 .rdata$_ZTVN8Palmtree4Math4Core8Internal16DecimalFromatter14FormatterTypeFE
                0x0000000066134060       0x40 ../build/x64_Release/pmc_tostring.o
                0x0000000066134060                vtable for Palmtree::Math::Core::Internal::DecimalFromatter::FormatterTypeF
 .rdata$_ZTVN8Palmtree4Math4Core8Internal16DecimalFromatter14FormatterTypeNE
                0x00000000661340a0       0x40 ../build/x64_Release/pmc_tostring.o
                0x00000000661340a0                vtable for Palmtree::Math::Core::Internal::DecimalFromatter::FormatterTypeN
 .rdata$_ZTVN8Palmtree4Math4Core8Internal16DecimalFromatter14FormatterTypePE
                0x00000000661340e0       0x40 ../build/x64_Release/pmc_tostring.o
                0x00000000661340e0                vtable for Palmtree::Math::Core::Internal::DecimalFromatter::FormatterTypeP
 .rdata$_ZTVN8Palmtree4Math4Core8Internal17ArgumentExceptionE
                0x0000000066134120       0x30 ../build/x64_Release/pmc_memory.o
                0x0000000066134120                vtable for Palmtree::Math::Core::Internal::ArgumentException
 .rdata$_ZTVN8Palmtree4Math4Core8Internal17OverflowExceptionE
                0x0000000066134150       0x30 ../build/x64_Release/pmc_pow.o
                0x0000000066134150                vtable for Palmtree::Math::Core::Internal::OverflowException
 .rdata$_ZTVN8Palmtree4Math4Core8Internal18BadBufferExceptionE
                0x0000000066134180       0x30 ../build/x64_Release/pmc_memory.o
                0x0000000066134180                vtable for Palmtree::Math::Core::Internal::BadBufferException
 .rdata$_ZTVN8Palmtree4Math4Core8Internal18ResourceHolderUINT22__StringChainBufferTagE
                0x00000000661341b0       0x40 ../build/x64_Release/pmc_memory.o
                0x00000000661341b0                vtable for Palmtree::Math::Core::Internal::ResourceHolderUINT::__StringChainBufferTag
 .rdata$_ZTVN8Palmtree4Math4Core8Internal18ResourceHolderUINT23__GenericChainBufferTagE
                0x00000000661341f0       0x40 ../build/x64_Release/pmc_memory.o
                0x00000000661341f0                vtable for Palmtree::Math::Core::Internal::ResourceHolderUINT::__GenericChainBufferTag
 .rdata$_ZTVN8Palmtree4Math4Core8Internal18ResourceHolderUINT28__StaticNumberChainBufferTagE
                0x0000000066134230       0x40 ../build/x64_Release/pmc_memory.o
                0x0000000066134230                vtable for Palmtree::Math::Core::Internal::ResourceHolderUINT::__StaticNumberChainBufferTag
 .rdata$_ZTVN8Palmtree4Math4Core8Internal18ResourceHolderUINT29__DynamicNumberChainBufferTagE
                0x0000000066134270       0x40 ../build/x64_Release/pmc_memory.o
                0x0000000066134270                vtable for Palmtree::Math::Core::Internal::ResourceHolderUINT::__DynamicNumberChainBufferTag
 .rdata$_ZTVN8Palmtree4Math4Core8Internal18ResourceHolderUINT34____UNIT_TYPE_Array_ChainBufferTagE
                0x00000000661342b0       0x40 ../build/x64_Release/pmc_memory.o
                0x00000000661342b0                vtable for Palmtree::Math::Core::Internal::ResourceHolderUINT::____UNIT_TYPE_Array_ChainBufferTag
 .rdata$_ZTVN8Palmtree4Math4Core8Internal18ResourceHolderUINT35__NumberHandleHookingChainBufferTagE
                0x00000000661342f0       0x40 ../build/x64_Release/pmc_memory.o
                0x00000000661342f0                vtable for Palmtree::Math::Core::Internal::ResourceHolderUINT::__NumberHandleHookingChainBufferTag
 .rdata$_ZTVN8Palmtree4Math4Core8Internal18ResourceHolderUINTE
                0x0000000066134330       0x20 ../build/x64_Release/pmc_memory.o
                0x0000000066134330                vtable for Palmtree::Math::Core::Internal::ResourceHolderUINT
 .rdata$_ZTVN8Palmtree4Math4Core8Internal19ArithmeticExceptionE
                0x0000000066134350       0x30 ../build/x64_Release/pmc_greatestcommondivisor.o
                0x0000000066134350                vtable for Palmtree::Math::Core::Internal::ArithmeticException
 .rdata$_ZTVN8Palmtree4Math4Core8Internal19ReverseStringWriterE
                0x0000000066134380       0x30 ../build/x64_Release/pmc_tostring.o
                0x0000000066134380                vtable for Palmtree::Math::Core::Internal::ReverseStringWriter
 .rdata$_ZTVN8Palmtree4Math4Core8Internal21ArgumentNullExceptionE
                0x00000000661343b0       0x30 ../build/x64_Release/pmc_add.o
                0x00000000661343b0                vtable for Palmtree::Math::Core::Internal::ArgumentNullException
 .rdata$_ZTVN8Palmtree4Math4Core8Internal21NotSupportedExceptionE
                0x00000000661343e0       0x30 ../build/x64_Release/pmc_tostring.o
                0x00000000661343e0                vtable for Palmtree::Math::Core::Internal::NotSupportedException
 .rdata$_ZTVN8Palmtree4Math4Core8Internal22InternalErrorExceptionE
                0x0000000066134410       0x30 ../build/x64_Release/pmc_add.o
                0x0000000066134410                vtable for Palmtree::Math::Core::Internal::InternalErrorException
 .rdata$_ZTVN8Palmtree4Math4Core8Internal23DivisionByZeroExceptionE
                0x0000000066134440       0x30 ../build/x64_Release/pmc_divrem.o
                0x0000000066134440                vtable for Palmtree::Math::Core::Internal::DivisionByZeroException
 .rdata$_ZTVN8Palmtree4Math4Core8Internal24NotEnoughMemoryExceptionE
                0x0000000066134470       0x30 ../build/x64_Release/pmc_memory.o
                0x0000000066134470                vtable for Palmtree::Math::Core::Internal::NotEnoughMemoryException
 .rdata$_ZTVN8Palmtree4Math4Core8Internal27InsufficientBufferExceptionE
                0x00000000661344a0       0x30 ../build/x64_Release/pmc_bytes.o
                0x00000000661344a0                vtable for Palmtree::Math::Core::Internal::InsufficientBufferException
 .rdata$_ZTVN8Palmtree4Math4Core8Internal9ExceptionE
                0x00000000661344d0       0x30 ../build/x64_Release/pmc_add.o
                0x00000000661344d0                vtable for Palmtree::Math::Core::Internal::Exception
 .rdata$_ZTVN9__gnu_cxx24__concurrence_lock_errorE
                0x0000000066134500       0x30 C:/GNU/MINGW64/x86_64-8.1.0-win32-seh-rt_v6-rev0/mingw64/bin/../lib/gcc/x86_64-w64-mingw32/8.1.0\libstdc++.a(eh_alloc.o)
                0x0000000066134500                vtable for __gnu_cxx::__concurrence_lock_error
 .rdata$_ZTVN9__gnu_cxx26__concurrence_unlock_errorE
                0x0000000066134530       0x30 C:/GNU/MINGW64/x86_64-8.1.0-win32-seh-rt_v6-rev0/mingw64/bin/../lib/gcc/x86_64-w64-mingw32/8.1.0\libstdc++.a(eh_alloc.o)
                0x0000000066134530                vtable for __gnu_cxx::__concurrence_unlock_error
 .rdata$_ZTVSt13bad_exception
                0x0000000066134560       0x30 C:/GNU/MINGW64/x86_64-8.1.0-win32-seh-rt_v6-rev0/mingw64/bin/../lib/gcc/x86_64-w64-mingw32/8.1.0\libstdc++.a(eh_exception.o)
                0x0000000066134560                vtable for std::bad_exception
 .rdata$_ZTVSt9bad_alloc
                0x0000000066134590       0x30 C:/GNU/MINGW64/x86_64-8.1.0-win32-seh-rt_v6-rev0/mingw64/bin/../lib/gcc/x86_64-w64-mingw32/8.1.0\libstdc++.a(bad_alloc.o)
                0x0000000066134590                vtable for std::bad_alloc
 .rdata$_ZTVSt9exception
                0x00000000661345c0       0x30 C:/GNU/MINGW64/x86_64-8.1.0-win32-seh-rt_v6-rev0/mingw64/bin/../lib/gcc/x86_64-w64-mingw32/8.1.0\libstdc++.a(eh_exception.o)
                0x00000000661345c0                vtable for std::exception
 .rdata$_ZTVSt9type_info
                0x00000000661345f0       0x40 C:/GNU/MINGW64/x86_64-8.1.0-win32-seh-rt_v6-rev0/mingw64/bin/../lib/gcc/x86_64-w64-mingw32/8.1.0\libstdc++.a(tinfo.o)
                0x00000000661345f0                vtable for std::type_info
 .rdata$zzz     0x0000000066134630       0x40 ../build/x64_Release/cpuid.o
 .rdata$zzz     0x0000000066134670       0x40 ../build/x64_Release/dllmain.o
 .rdata$zzz     0x00000000661346b0       0x40 ../build/x64_Release/pmc_add.o
 .rdata$zzz     0x00000000661346f0       0x40 ../build/x64_Release/pmc_bitwiseand.o
 .rdata$zzz     0x0000000066134730       0x40 ../build/x64_Release/pmc_bitwiseor.o
 .rdata$zzz     0x0000000066134770       0x40 ../build/x64_Release/pmc_bytes.o
 .rdata$zzz     0x00000000661347b0       0x40 ../build/x64_Release/pmc_compare.o
 .rdata$zzz     0x00000000661347f0       0x40 ../build/x64_Release/pmc_divrem.o
 .rdata$zzz     0x0000000066134830       0x40 ../build/x64_Release/pmc_equals.o
 .rdata$zzz     0x0000000066134870       0x40 ../build/x64_Release/pmc_exclusiveor.o
 .rdata$zzz     0x00000000661348b0       0x40 ../build/x64_Release/pmc_from.o
 .rdata$zzz     0x00000000661348f0       0x40 ../build/x64_Release/pmc_greatestcommondivisor.o
 .rdata$zzz     0x0000000066134930       0x40 ../build/x64_Release/pmc_initialize.o
 .rdata$zzz     0x0000000066134970       0x40 ../build/x64_Release/pmc_interface_csharp.o
 .rdata$zzz     0x00000000661349b0       0x40 ../build/x64_Release/pmc_memory.o
 .rdata$zzz     0x00000000661349f0       0x40 ../build/x64_Release/pmc_modpow.o
 .rdata$zzz     0x0000000066134a30       0x40 ../build/x64_Release/pmc_multiply.o
 .rdata$zzz     0x0000000066134a70       0x40 ../build/x64_Release/pmc_parse.o
 .rdata$zzz     0x0000000066134ab0       0x40 ../build/x64_Release/pmc_pow.o
 .rdata$zzz     0x0000000066134af0       0x40 ../build/x64_Release/pmc_shift.o
 .rdata$zzz     0x0000000066134b30       0x40 ../build/x64_Release/pmc_statistics.o
 .rdata$zzz     0x0000000066134b70       0x40 ../build/x64_Release/pmc_subtruct.o
 .rdata$zzz     0x0000000066134bb0       0x40 ../build/x64_Release/pmc_to.o
 .rdata$zzz     0x0000000066134bf0       0x40 ../build/x64_Release/pmc_tostring.o
                0x0000000066134c30                __rt_psrelocs_start = .
 *(.rdata_runtime_pseudo_reloc)
                0x0000000066134c30                __rt_psrelocs_end = .
                0x0000000000000000                __rt_psrelocs_size = (__rt_psrelocs_end - __rt_psrelocs_start)
                0x0000000066134c30                ___RUNTIME_PSEUDO_RELOC_LIST_END__ = .
                0x0000000066134c30                __RUNTIME_PSEUDO_RELOC_LIST_END__ = .
                0x0000000066134c30                ___RUNTIME_PSEUDO_RELOC_LIST__ = (. - __rt_psrelocs_size)
                0x0000000066134c30                __RUNTIME_PSEUDO_RELOC_LIST__ = (. - __rt_psrelocs_size)

.eh_frame
 *(.eh_frame*)

.pdata          0x0000000066135000     0x1e00
 *(.pdata*)
 .pdata         0x0000000066135000       0x3c C:/GNU/MINGW64/x86_64-8.1.0-win32-seh-rt_v6-rev0/mingw64/bin/../lib/gcc/x86_64-w64-mingw32/8.1.0/../../../../x86_64-w64-mingw32/lib/../lib/dllcrt2.o
 .pdata         0x000000006613503c       0x18 C:/GNU/MINGW64/x86_64-8.1.0-win32-seh-rt_v6-rev0/mingw64/bin/../lib/gcc/x86_64-w64-mingw32/8.1.0/crtbegin.o
 .pdata         0x0000000066135054        0xc ../build/x64_Release/cpuid.o
 .pdata         0x0000000066135060        0xc ../build/x64_Release/dllmain.o
 .pdata$_ZN8Palmtree4Math4Core8Internal9ExceptionD1Ev
                0x000000006613506c        0xc ../build/x64_Release/pmc_add.o
 .pdata$_ZN8Palmtree4Math4Core8Internal9ExceptionD0Ev
                0x0000000066135078        0xc ../build/x64_Release/pmc_add.o
 .pdata$_ZN8Palmtree4Math4Core8Internal21ArgumentNullExceptionD1Ev
                0x0000000066135084        0xc ../build/x64_Release/pmc_add.o
 .pdata$_ZN8Palmtree4Math4Core8Internal21ArgumentNullExceptionD0Ev
                0x0000000066135090        0xc ../build/x64_Release/pmc_add.o
 .pdata$_ZN8Palmtree4Math4Core8Internal22InternalErrorExceptionD1Ev
                0x000000006613509c        0xc ../build/x64_Release/pmc_add.o
 .pdata$_ZN8Palmtree4Math4Core8Internal22InternalErrorExceptionD0Ev
                0x00000000661350a8        0xc ../build/x64_Release/pmc_add.o
 .pdata         0x00000000661350b4       0x90 ../build/x64_Release/pmc_add.o
 .pdata         0x0000000066135144       0x48 ../build/x64_Release/pmc_bitwiseand.o
 .pdata         0x000000006613518c       0x60 ../build/x64_Release/pmc_bitwiseor.o
 .pdata$_ZN8Palmtree4Math4Core8Internal15FormatExceptionD1Ev
                0x00000000661351ec        0xc ../build/x64_Release/pmc_bytes.o
 .pdata$_ZN8Palmtree4Math4Core8Internal15FormatExceptionD0Ev
                0x00000000661351f8        0xc ../build/x64_Release/pmc_bytes.o
 .pdata$_ZN8Palmtree4Math4Core8Internal27InsufficientBufferExceptionD1Ev
                0x0000000066135204        0xc ../build/x64_Release/pmc_bytes.o
 .pdata$_ZN8Palmtree4Math4Core8Internal27InsufficientBufferExceptionD0Ev
                0x0000000066135210        0xc ../build/x64_Release/pmc_bytes.o
 .pdata         0x000000006613521c       0x30 ../build/x64_Release/pmc_bytes.o
 .pdata         0x000000006613524c       0x6c ../build/x64_Release/pmc_compare.o
 .pdata$_ZN8Palmtree4Math4Core8Internal23DivisionByZeroExceptionD1Ev
                0x00000000661352b8        0xc ../build/x64_Release/pmc_divrem.o
 .pdata$_ZN8Palmtree4Math4Core8Internal23DivisionByZeroExceptionD0Ev
                0x00000000661352c4        0xc ../build/x64_Release/pmc_divrem.o
 .pdata         0x00000000661352d0       0xc0 ../build/x64_Release/pmc_divrem.o
 .pdata         0x0000000066135390       0x48 ../build/x64_Release/pmc_equals.o
 .pdata         0x00000000661353d8       0x60 ../build/x64_Release/pmc_exclusiveor.o
 .pdata         0x0000000066135438       0x3c ../build/x64_Release/pmc_from.o
 .pdata$_ZN8Palmtree4Math4Core8Internal19ArithmeticExceptionD1Ev
                0x0000000066135474        0xc ../build/x64_Release/pmc_greatestcommondivisor.o
 .pdata$_ZN8Palmtree4Math4Core8Internal19ArithmeticExceptionD0Ev
                0x0000000066135480        0xc ../build/x64_Release/pmc_greatestcommondivisor.o
 .pdata         0x000000006613548c       0x78 ../build/x64_Release/pmc_greatestcommondivisor.o
 .pdata         0x0000000066135504       0x18 ../build/x64_Release/pmc_initialize.o
 .pdata         0x000000006613551c      0x3cc ../build/x64_Release/pmc_interface_csharp.o
 .pdata$_ZN8Palmtree4Math4Core8Internal14ResourceHolder16__ChainBufferTag5ClearEv
                0x00000000661358e8        0xc ../build/x64_Release/pmc_memory.o
 .pdata$_ZN8Palmtree4Math4Core8Internal14ResourceHolder16__ChainBufferTag5CheckEv
                0x00000000661358f4        0xc ../build/x64_Release/pmc_memory.o
 .pdata$_ZN8Palmtree4Math4Core8Internal14ResourceHolder9__RootTagD1Ev
                0x0000000066135900        0xc ../build/x64_Release/pmc_memory.o
 .pdata$_ZN8Palmtree4Math4Core8Internal14ResourceHolder9__RootTag8DestructEv
                0x000000006613590c        0xc ../build/x64_Release/pmc_memory.o
 .pdata         0x0000000066135918      0x3b4 ../build/x64_Release/pmc_memory.o
 .pdata$_ZN8Palmtree4Math4Core8Internal14ResourceHolder9__RootTag19EqualsBufferAddressEPv
                0x0000000066135ccc        0xc ../build/x64_Release/pmc_memory.o
 .pdata$_ZN8Palmtree4Math4Core8Internal14ResourceHolder9__RootTagD0Ev
                0x0000000066135cd8        0xc ../build/x64_Release/pmc_memory.o
 .pdata$_ZN8Palmtree4Math4Core8Internal18BadBufferExceptionD1Ev
                0x0000000066135ce4        0xc ../build/x64_Release/pmc_memory.o
 .pdata$_ZN8Palmtree4Math4Core8Internal18BadBufferExceptionD0Ev
                0x0000000066135cf0        0xc ../build/x64_Release/pmc_memory.o
 .pdata$_ZN8Palmtree4Math4Core8Internal24NotEnoughMemoryExceptionD1Ev
                0x0000000066135cfc        0xc ../build/x64_Release/pmc_memory.o
 .pdata$_ZN8Palmtree4Math4Core8Internal24NotEnoughMemoryExceptionD0Ev
                0x0000000066135d08        0xc ../build/x64_Release/pmc_memory.o
 .pdata$_ZN8Palmtree4Math4Core8Internal17ArgumentExceptionD1Ev
                0x0000000066135d14        0xc ../build/x64_Release/pmc_memory.o
 .pdata$_ZN8Palmtree4Math4Core8Internal17ArgumentExceptionD0Ev
                0x0000000066135d20        0xc ../build/x64_Release/pmc_memory.o
 .pdata$_ZN8Palmtree4Math4Core8Internal14ResourceHolderD1Ev
                0x0000000066135d2c        0xc ../build/x64_Release/pmc_memory.o
 .pdata$_ZN8Palmtree4Math4Core8Internal14ResourceHolderD0Ev
                0x0000000066135d38        0xc ../build/x64_Release/pmc_memory.o
 .pdata$_ZN8Palmtree4Math4Core8Internal14ResourceHolderD2Ev
                0x0000000066135d44        0xc ../build/x64_Release/pmc_memory.o
 .pdata         0x0000000066135d50       0x24 ../build/x64_Release/pmc_modpow.o
 .pdata         0x0000000066135d74       0xcc ../build/x64_Release/pmc_multiply.o
 .pdata$_ZN8Palmtree4Math4Core8Internal12StringReader8PeekCharEv
                0x0000000066135e40        0xc ../build/x64_Release/pmc_parse.o
 .pdata$_ZN8Palmtree4Math4Core8Internal12StringReader10StartsWithEPKw
                0x0000000066135e4c        0xc ../build/x64_Release/pmc_parse.o
 .pdata$_ZN8Palmtree4Math4Core8Internal12StringWriter5WriteEPKw
                0x0000000066135e58        0xc ../build/x64_Release/pmc_parse.o
 .pdata$_ZN8Palmtree4Math4Core8Internal12StringWriter9GetStringEv
                0x0000000066135e64        0xc ../build/x64_Release/pmc_parse.o
 .pdata         0x0000000066135e70       0x9c ../build/x64_Release/pmc_parse.o
 .pdata$_ZN8Palmtree4Math4Core8Internal12StringWriter5WriteEw
                0x0000000066135f0c        0xc ../build/x64_Release/pmc_parse.o
 .pdata$_ZN8Palmtree4Math4Core8Internal12StringReader8ProgressEv
                0x0000000066135f18        0xc ../build/x64_Release/pmc_parse.o
 .pdata$_ZN8Palmtree4Math4Core8Internal12StringReader10SkipStringEPKw
                0x0000000066135f24        0xc ../build/x64_Release/pmc_parse.o
 .pdata$_ZN8Palmtree4Math4Core8Internal11ParserState32ParseAsIntegerPartNumberSequenceEv
                0x0000000066135f30        0xc ../build/x64_Release/pmc_parse.o
 .pdata$_ZN8Palmtree4Math4Core8Internal11ParserState33ParseAsFractionPartNumberSequenceEv
                0x0000000066135f3c        0xc ../build/x64_Release/pmc_parse.o
 .pdata$_ZN8Palmtree4Math4Core8Internal11ParserState26ParseAsDecimalNumberStringEv
                0x0000000066135f48        0xc ../build/x64_Release/pmc_parse.o
 .pdata$_ZN8Palmtree4Math4Core8Internal17OverflowExceptionD1Ev
                0x0000000066135f54        0xc ../build/x64_Release/pmc_pow.o
 .pdata$_ZN8Palmtree4Math4Core8Internal17OverflowExceptionD0Ev
                0x0000000066135f60        0xc ../build/x64_Release/pmc_pow.o
 .pdata         0x0000000066135f6c       0x3c ../build/x64_Release/pmc_pow.o
 .pdata         0x0000000066135fa8       0x54 ../build/x64_Release/pmc_shift.o
 .pdata         0x0000000066135ffc        0xc ../build/x64_Release/pmc_statistics.o
 .pdata         0x0000000066136008       0x60 ../build/x64_Release/pmc_subtruct.o
 .pdata         0x0000000066136068       0x24 ../build/x64_Release/pmc_to.o
 .pdata$_ZN8Palmtree4Math4Core8Internal19ReverseStringReader8PeekCharEv
                0x000000006613608c        0xc ../build/x64_Release/pmc_tostring.o
 .pdata$_ZN8Palmtree4Math4Core8Internal19ReverseStringReader10StartsWithEPKw
                0x0000000066136098        0xc ../build/x64_Release/pmc_tostring.o
 .pdata$_ZN8Palmtree4Math4Core8Internal19ReverseStringWriter9GetStringEv
                0x00000000661360a4        0xc ../build/x64_Release/pmc_tostring.o
 .pdata$_ZN8Palmtree4Math4Core8Internal16DecimalFromatter29ThousandSeparatedStringWriter9GetStringEv
                0x00000000661360b0        0xc ../build/x64_Release/pmc_tostring.o
 .pdata$_ZN8Palmtree4Math4Core8Internal16DecimalFromatter14FormatterTypeC24GetDefaultPrecisionValueEv
                0x00000000661360bc        0xc ../build/x64_Release/pmc_tostring.o
 .pdata$_ZN8Palmtree4Math4Core8Internal16DecimalFromatter14FormatterTypeD24GetDefaultPrecisionValueEv
                0x00000000661360c8        0xc ../build/x64_Release/pmc_tostring.o
 .pdata$_ZN8Palmtree4Math4Core8Internal16DecimalFromatter14FormatterTypeD14WriteZeroValueEPNS2_12StringWriterE
                0x00000000661360d4        0xc ../build/x64_Release/pmc_tostring.o
 .pdata$_ZN8Palmtree4Math4Core8Internal16DecimalFromatter14FormatterTypeD11WriteSuffixEcPNS2_12StringWriterE
                0x00000000661360e0        0xc ../build/x64_Release/pmc_tostring.o
 .pdata$_ZN8Palmtree4Math4Core8Internal16DecimalFromatter14FormatterTypeE24GetDefaultPrecisionValueEv
                0x00000000661360ec        0xc ../build/x64_Release/pmc_tostring.o
 .pdata$_ZN8Palmtree4Math4Core8Internal16DecimalFromatter14FormatterTypeE14WriteZeroValueEPNS2_12StringWriterE
                0x00000000661360f8        0xc ../build/x64_Release/pmc_tostring.o
 .pdata$_ZN8Palmtree4Math4Core8Internal16DecimalFromatter14FormatterTypeE11WriteSuffixEcPNS2_12StringWriterE
                0x0000000066136104        0xc ../build/x64_Release/pmc_tostring.o
 .pdata$_ZN8Palmtree4Math4Core8Internal16DecimalFromatter14FormatterTypeF24GetDefaultPrecisionValueEv
                0x0000000066136110        0xc ../build/x64_Release/pmc_tostring.o
 .pdata$_ZN8Palmtree4Math4Core8Internal16DecimalFromatter14FormatterTypeF11WriteSuffixEcPNS2_12StringWriterE
                0x000000006613611c        0xc ../build/x64_Release/pmc_tostring.o
 .pdata$_ZN8Palmtree4Math4Core8Internal16DecimalFromatter14FormatterTypeN24GetDefaultPrecisionValueEv
                0x0000000066136128        0xc ../build/x64_Release/pmc_tostring.o
 .pdata$_ZN8Palmtree4Math4Core8Internal16DecimalFromatter14FormatterTypeP24GetDefaultPrecisionValueEv
                0x0000000066136134        0xc ../build/x64_Release/pmc_tostring.o
 .pdata$_ZN8Palmtree4Math4Core8Internal21NotSupportedExceptionD1Ev
                0x0000000066136140        0xc ../build/x64_Release/pmc_tostring.o
 .pdata$_ZN8Palmtree4Math4Core8Internal21NotSupportedExceptionD0Ev
                0x000000006613614c        0xc ../build/x64_Release/pmc_tostring.o
 .pdata$_ZN8Palmtree4Math4Core8Internal16DecimalFromatter14FormatterTypeD20FormatNumberSequenceEPKwPNS2_12StringWriterE
                0x0000000066136158        0xc ../build/x64_Release/pmc_tostring.o
 .pdata$_ZN8Palmtree4Math4Core8Internal16DecimalFromatter29ThousandSeparatedStringWriter5WriteEw
                0x0000000066136164        0xc ../build/x64_Release/pmc_tostring.o
 .pdata$_ZN8Palmtree4Math4Core8Internal16DecimalFromatter14FormatterTypeC11WritePrefixEcPNS2_12StringWriterE
                0x0000000066136170        0xc ../build/x64_Release/pmc_tostring.o
 .pdata$_ZN8Palmtree4Math4Core8Internal16DecimalFromatter14FormatterTypeC11WriteSuffixEcPNS2_12StringWriterE
                0x000000006613617c        0xc ../build/x64_Release/pmc_tostring.o
 .pdata$_ZN8Palmtree4Math4Core8Internal16DecimalFromatter14FormatterTypeD11WritePrefixEcPNS2_12StringWriterE
                0x0000000066136188        0xc ../build/x64_Release/pmc_tostring.o
 .pdata$_ZN8Palmtree4Math4Core8Internal16DecimalFromatter14FormatterTypeE11WritePrefixEcPNS2_12StringWriterE
                0x0000000066136194        0xc ../build/x64_Release/pmc_tostring.o
 .pdata$_ZN8Palmtree4Math4Core8Internal16DecimalFromatter14FormatterTypeF11WritePrefixEcPNS2_12StringWriterE
                0x00000000661361a0        0xc ../build/x64_Release/pmc_tostring.o
 .pdata$_ZN8Palmtree4Math4Core8Internal16DecimalFromatter14FormatterTypeN11WritePrefixEcPNS2_12StringWriterE
                0x00000000661361ac        0xc ../build/x64_Release/pmc_tostring.o
 .pdata$_ZN8Palmtree4Math4Core8Internal16DecimalFromatter14FormatterTypeN11WriteSuffixEcPNS2_12StringWriterE
                0x00000000661361b8        0xc ../build/x64_Release/pmc_tostring.o
 .pdata$_ZN8Palmtree4Math4Core8Internal16DecimalFromatter14FormatterTypeP11WritePrefixEcPNS2_12StringWriterE
                0x00000000661361c4        0xc ../build/x64_Release/pmc_tostring.o
 .pdata$_ZN8Palmtree4Math4Core8Internal16DecimalFromatter14FormatterTypeP11WriteSuffixEcPNS2_12StringWriterE
                0x00000000661361d0        0xc ../build/x64_Release/pmc_tostring.o
 .pdata         0x00000000661361dc       0x78 ../build/x64_Release/pmc_tostring.o
 .pdata$_ZN8Palmtree4Math4Core8Internal19ReverseStringWriter5WriteEw
                0x0000000066136254        0xc ../build/x64_Release/pmc_tostring.o
 .pdata$_ZN8Palmtree4Math4Core8Internal19ReverseStringReader8ProgressEv
                0x0000000066136260        0xc ../build/x64_Release/pmc_tostring.o
 .pdata$_ZN8Palmtree4Math4Core8Internal19ReverseStringReader10SkipStringEPKw
                0x000000006613626c        0xc ../build/x64_Release/pmc_tostring.o
 .pdata$_ZN8Palmtree4Math4Core8Internal16DecimalFromatter14FormatterTypeC14WriteZeroValueEPNS2_12StringWriterE
                0x0000000066136278        0xc ../build/x64_Release/pmc_tostring.o
 .pdata$_ZN8Palmtree4Math4Core8Internal16DecimalFromatter14FormatterTypeF14WriteZeroValueEPNS2_12StringWriterE
                0x0000000066136284        0xc ../build/x64_Release/pmc_tostring.o
 .pdata$_ZN8Palmtree4Math4Core8Internal16DecimalFromatter14FormatterTypeP14WriteZeroValueEPNS2_12StringWriterE
                0x0000000066136290        0xc ../build/x64_Release/pmc_tostring.o
 .pdata$_ZN8Palmtree4Math4Core8Internal16DecimalFromatter14FormatterTypeN14WriteZeroValueEPNS2_12StringWriterE
                0x000000006613629c        0xc ../build/x64_Release/pmc_tostring.o
 .pdata$_ZN8Palmtree4Math4Core8Internal16DecimalFromatter14FormatterTypeF20FormatNumberSequenceEPKwPNS2_12StringWriterE
                0x00000000661362a8        0xc ../build/x64_Release/pmc_tostring.o
 .pdata$_ZN8Palmtree4Math4Core8Internal16DecimalFromatter14FormatterTypeE20FormatNumberSequenceEPKwPNS2_12StringWriterE
                0x00000000661362b4        0xc ../build/x64_Release/pmc_tostring.o
 .pdata$_ZN8Palmtree4Math4Core8Internal16DecimalFromatter29ThousandSeparatedStringWriter5WriteEPKw
                0x00000000661362c0        0xc ../build/x64_Release/pmc_tostring.o
 .pdata$_ZN8Palmtree4Math4Core8Internal19ReverseStringWriter5WriteEPKw
                0x00000000661362cc        0xc ../build/x64_Release/pmc_tostring.o
 .pdata$_ZN8Palmtree4Math4Core8Internal16DecimalFromatter9Formatter6FormatEcPNS2_19__tag_NUMBER_HEADEREPNS2_12StringWriterE
                0x00000000661362d8        0xc ../build/x64_Release/pmc_tostring.o
 .pdata$_ZN8Palmtree4Math4Core8Internal16DecimalFromatter14FormatterTypeC20FormatNumberSequenceEPKwPNS2_12StringWriterE
                0x00000000661362e4        0xc ../build/x64_Release/pmc_tostring.o
 .pdata$_ZN8Palmtree4Math4Core8Internal16DecimalFromatter14FormatterTypeP20FormatNumberSequenceEPKwPNS2_12StringWriterE
                0x00000000661362f0        0xc ../build/x64_Release/pmc_tostring.o
 .pdata$_ZN8Palmtree4Math4Core8Internal16DecimalFromatter14FormatterTypeN20FormatNumberSequenceEPKwPNS2_12StringWriterE
                0x00000000661362fc        0xc ../build/x64_Release/pmc_tostring.o
 .pdata$_ZN8Palmtree4Math4Core8Internal16DecimalFromatter9Formatter16FormatInternallyEPNS2_19__tag_NUMBER_HEADEREPNS2_12StringWriterE
                0x0000000066136308        0xc ../build/x64_Release/pmc_tostring.o
 .pdata$_ZN8Palmtree4Math4Core8Internal16DecimalFromatter14FormatterTypeP16FormatInternallyEPNS2_19__tag_NUMBER_HEADEREPNS2_12StringWriterE
                0x0000000066136314        0xc ../build/x64_Release/pmc_tostring.o
 .pdata$_ZN8Palmtree4Math4Core8Internal16DecimalFromatter14FormatterTypeE16FormatInternallyEPNS2_19__tag_NUMBER_HEADEREPNS2_12StringWriterE
                0x0000000066136320        0xc ../build/x64_Release/pmc_tostring.o
 .pdata$_ZNK10__cxxabiv117__class_type_info11__do_upcastEPKS0_PPv
                0x000000006613632c        0xc C:/GNU/MINGW64/x86_64-8.1.0-win32-seh-rt_v6-rev0/mingw64/bin/../lib/gcc/x86_64-w64-mingw32/8.1.0\libstdc++.a(class_type_info.o)
 .pdata$_ZNK10__cxxabiv117__class_type_info20__do_find_public_srcExPKvPKS0_S2_
                0x0000000066136338        0xc C:/GNU/MINGW64/x86_64-8.1.0-win32-seh-rt_v6-rev0/mingw64/bin/../lib/gcc/x86_64-w64-mingw32/8.1.0\libstdc++.a(class_type_info.o)
 .pdata$_ZN10__cxxabiv117__class_type_infoD2Ev
                0x0000000066136344        0xc C:/GNU/MINGW64/x86_64-8.1.0-win32-seh-rt_v6-rev0/mingw64/bin/../lib/gcc/x86_64-w64-mingw32/8.1.0\libstdc++.a(class_type_info.o)
 .pdata$_ZN10__cxxabiv117__class_type_infoD0Ev
                0x0000000066136350        0xc C:/GNU/MINGW64/x86_64-8.1.0-win32-seh-rt_v6-rev0/mingw64/bin/../lib/gcc/x86_64-w64-mingw32/8.1.0\libstdc++.a(class_type_info.o)
 .pdata$_ZNK10__cxxabiv117__class_type_info12__do_dyncastExNS0_10__sub_kindEPKS0_PKvS3_S5_RNS0_16__dyncast_resultE
                0x000000006613635c        0xc C:/GNU/MINGW64/x86_64-8.1.0-win32-seh-rt_v6-rev0/mingw64/bin/../lib/gcc/x86_64-w64-mingw32/8.1.0\libstdc++.a(class_type_info.o)
 .pdata$_ZNK10__cxxabiv117__class_type_info11__do_upcastEPKS0_PKvRNS0_15__upcast_resultE
                0x0000000066136368        0xc C:/GNU/MINGW64/x86_64-8.1.0-win32-seh-rt_v6-rev0/mingw64/bin/../lib/gcc/x86_64-w64-mingw32/8.1.0\libstdc++.a(class_type_info.o)
 .pdata$_ZNK10__cxxabiv117__class_type_info10__do_catchEPKSt9type_infoPPvj
                0x0000000066136374        0xc C:/GNU/MINGW64/x86_64-8.1.0-win32-seh-rt_v6-rev0/mingw64/bin/../lib/gcc/x86_64-w64-mingw32/8.1.0\libstdc++.a(class_type_info.o)
 .pdata$_ZdlPvy
                0x0000000066136380        0xc C:/GNU/MINGW64/x86_64-8.1.0-win32-seh-rt_v6-rev0/mingw64/bin/../lib/gcc/x86_64-w64-mingw32/8.1.0\libstdc++.a(del_ops.o)
 .pdata$_ZNK9__gnu_cxx24__concurrence_lock_error4whatEv
                0x000000006613638c        0xc C:/GNU/MINGW64/x86_64-8.1.0-win32-seh-rt_v6-rev0/mingw64/bin/../lib/gcc/x86_64-w64-mingw32/8.1.0\libstdc++.a(eh_alloc.o)
 .pdata$_ZNK9__gnu_cxx26__concurrence_unlock_error4whatEv
                0x0000000066136398        0xc C:/GNU/MINGW64/x86_64-8.1.0-win32-seh-rt_v6-rev0/mingw64/bin/../lib/gcc/x86_64-w64-mingw32/8.1.0\libstdc++.a(eh_alloc.o)
 .pdata$_ZN9__gnu_cxx24__concurrence_lock_errorD1Ev
                0x00000000661363a4        0xc C:/GNU/MINGW64/x86_64-8.1.0-win32-seh-rt_v6-rev0/mingw64/bin/../lib/gcc/x86_64-w64-mingw32/8.1.0\libstdc++.a(eh_alloc.o)
 .pdata$_ZN9__gnu_cxx26__concurrence_unlock_errorD1Ev
                0x00000000661363b0        0xc C:/GNU/MINGW64/x86_64-8.1.0-win32-seh-rt_v6-rev0/mingw64/bin/../lib/gcc/x86_64-w64-mingw32/8.1.0\libstdc++.a(eh_alloc.o)
 .pdata$_ZN9__gnu_cxx24__concurrence_lock_errorD0Ev
                0x00000000661363bc        0xc C:/GNU/MINGW64/x86_64-8.1.0-win32-seh-rt_v6-rev0/mingw64/bin/../lib/gcc/x86_64-w64-mingw32/8.1.0\libstdc++.a(eh_alloc.o)
 .pdata$_ZN9__gnu_cxx26__concurrence_unlock_errorD0Ev
                0x00000000661363c8        0xc C:/GNU/MINGW64/x86_64-8.1.0-win32-seh-rt_v6-rev0/mingw64/bin/../lib/gcc/x86_64-w64-mingw32/8.1.0\libstdc++.a(eh_alloc.o)
 .pdata$__tcf_0
                0x00000000661363d4        0xc C:/GNU/MINGW64/x86_64-8.1.0-win32-seh-rt_v6-rev0/mingw64/bin/../lib/gcc/x86_64-w64-mingw32/8.1.0\libstdc++.a(eh_alloc.o)
 .pdata$_ZN9__gnu_cxx30__throw_concurrence_lock_errorEv
                0x00000000661363e0        0xc C:/GNU/MINGW64/x86_64-8.1.0-win32-seh-rt_v6-rev0/mingw64/bin/../lib/gcc/x86_64-w64-mingw32/8.1.0\libstdc++.a(eh_alloc.o)
 .pdata$_ZN9__gnu_cxx32__throw_concurrence_unlock_errorEv
                0x00000000661363ec        0xc C:/GNU/MINGW64/x86_64-8.1.0-win32-seh-rt_v6-rev0/mingw64/bin/../lib/gcc/x86_64-w64-mingw32/8.1.0\libstdc++.a(eh_alloc.o)
 .pdata$_ZN12_GLOBAL__N_14pool4freeEPv.constprop.2
                0x00000000661363f8        0xc C:/GNU/MINGW64/x86_64-8.1.0-win32-seh-rt_v6-rev0/mingw64/bin/../lib/gcc/x86_64-w64-mingw32/8.1.0\libstdc++.a(eh_alloc.o)
 .pdata$_ZN12_GLOBAL__N_14pool8allocateEy.constprop.3
                0x0000000066136404        0xc C:/GNU/MINGW64/x86_64-8.1.0-win32-seh-rt_v6-rev0/mingw64/bin/../lib/gcc/x86_64-w64-mingw32/8.1.0\libstdc++.a(eh_alloc.o)
 .pdata$_ZN9__gnu_cxx9__freeresEv
                0x0000000066136410        0xc C:/GNU/MINGW64/x86_64-8.1.0-win32-seh-rt_v6-rev0/mingw64/bin/../lib/gcc/x86_64-w64-mingw32/8.1.0\libstdc++.a(eh_alloc.o)
 .pdata$__cxa_allocate_exception
                0x000000006613641c        0xc C:/GNU/MINGW64/x86_64-8.1.0-win32-seh-rt_v6-rev0/mingw64/bin/../lib/gcc/x86_64-w64-mingw32/8.1.0\libstdc++.a(eh_alloc.o)
 .pdata$__cxa_free_exception
                0x0000000066136428        0xc C:/GNU/MINGW64/x86_64-8.1.0-win32-seh-rt_v6-rev0/mingw64/bin/../lib/gcc/x86_64-w64-mingw32/8.1.0\libstdc++.a(eh_alloc.o)
 .pdata$__cxa_allocate_dependent_exception
                0x0000000066136434        0xc C:/GNU/MINGW64/x86_64-8.1.0-win32-seh-rt_v6-rev0/mingw64/bin/../lib/gcc/x86_64-w64-mingw32/8.1.0\libstdc++.a(eh_alloc.o)
 .pdata$__cxa_free_dependent_exception
                0x0000000066136440        0xc C:/GNU/MINGW64/x86_64-8.1.0-win32-seh-rt_v6-rev0/mingw64/bin/../lib/gcc/x86_64-w64-mingw32/8.1.0\libstdc++.a(eh_alloc.o)
 .pdata.startup._GLOBAL__sub_I__ZN9__gnu_cxx9__freeresEv
                0x000000006613644c        0xc C:/GNU/MINGW64/x86_64-8.1.0-win32-seh-rt_v6-rev0/mingw64/bin/../lib/gcc/x86_64-w64-mingw32/8.1.0\libstdc++.a(eh_alloc.o)
 .pdata$__cxa_get_exception_ptr
                0x0000000066136458        0xc C:/GNU/MINGW64/x86_64-8.1.0-win32-seh-rt_v6-rev0/mingw64/bin/../lib/gcc/x86_64-w64-mingw32/8.1.0\libstdc++.a(eh_catch.o)
 .pdata$__cxa_begin_catch
                0x0000000066136464        0xc C:/GNU/MINGW64/x86_64-8.1.0-win32-seh-rt_v6-rev0/mingw64/bin/../lib/gcc/x86_64-w64-mingw32/8.1.0\libstdc++.a(eh_catch.o)
 .pdata$__cxa_end_catch
                0x0000000066136470        0xc C:/GNU/MINGW64/x86_64-8.1.0-win32-seh-rt_v6-rev0/mingw64/bin/../lib/gcc/x86_64-w64-mingw32/8.1.0\libstdc++.a(eh_catch.o)
 .pdata$_ZSt18uncaught_exceptionv
                0x000000006613647c        0xc C:/GNU/MINGW64/x86_64-8.1.0-win32-seh-rt_v6-rev0/mingw64/bin/../lib/gcc/x86_64-w64-mingw32/8.1.0\libstdc++.a(eh_catch.o)
 .pdata$_ZSt19uncaught_exceptionsv
                0x0000000066136488        0xc C:/GNU/MINGW64/x86_64-8.1.0-win32-seh-rt_v6-rev0/mingw64/bin/../lib/gcc/x86_64-w64-mingw32/8.1.0\libstdc++.a(eh_catch.o)
 .pdata$_ZNSt9exceptionD2Ev
                0x0000000066136494        0xc C:/GNU/MINGW64/x86_64-8.1.0-win32-seh-rt_v6-rev0/mingw64/bin/../lib/gcc/x86_64-w64-mingw32/8.1.0\libstdc++.a(eh_exception.o)
 .pdata$_ZNSt13bad_exceptionD2Ev
                0x00000000661364a0        0xc C:/GNU/MINGW64/x86_64-8.1.0-win32-seh-rt_v6-rev0/mingw64/bin/../lib/gcc/x86_64-w64-mingw32/8.1.0\libstdc++.a(eh_exception.o)
 .pdata$_ZNKSt9exception4whatEv
                0x00000000661364ac        0xc C:/GNU/MINGW64/x86_64-8.1.0-win32-seh-rt_v6-rev0/mingw64/bin/../lib/gcc/x86_64-w64-mingw32/8.1.0\libstdc++.a(eh_exception.o)
 .pdata$_ZNKSt13bad_exception4whatEv
                0x00000000661364b8        0xc C:/GNU/MINGW64/x86_64-8.1.0-win32-seh-rt_v6-rev0/mingw64/bin/../lib/gcc/x86_64-w64-mingw32/8.1.0\libstdc++.a(eh_exception.o)
 .pdata$_ZNSt9exceptionD0Ev
                0x00000000661364c4        0xc C:/GNU/MINGW64/x86_64-8.1.0-win32-seh-rt_v6-rev0/mingw64/bin/../lib/gcc/x86_64-w64-mingw32/8.1.0\libstdc++.a(eh_exception.o)
 .pdata$_ZNSt13bad_exceptionD0Ev
                0x00000000661364d0        0xc C:/GNU/MINGW64/x86_64-8.1.0-win32-seh-rt_v6-rev0/mingw64/bin/../lib/gcc/x86_64-w64-mingw32/8.1.0\libstdc++.a(eh_exception.o)
 .pdata$_ZN10__cxxabiv115__forced_unwindD2Ev
                0x00000000661364dc        0xc C:/GNU/MINGW64/x86_64-8.1.0-win32-seh-rt_v6-rev0/mingw64/bin/../lib/gcc/x86_64-w64-mingw32/8.1.0\libstdc++.a(eh_exception.o)
 .pdata$_ZN10__cxxabiv115__forced_unwindD0Ev
                0x00000000661364e8        0xc C:/GNU/MINGW64/x86_64-8.1.0-win32-seh-rt_v6-rev0/mingw64/bin/../lib/gcc/x86_64-w64-mingw32/8.1.0\libstdc++.a(eh_exception.o)
 .pdata$_ZN10__cxxabiv119__foreign_exceptionD2Ev
                0x00000000661364f4        0xc C:/GNU/MINGW64/x86_64-8.1.0-win32-seh-rt_v6-rev0/mingw64/bin/../lib/gcc/x86_64-w64-mingw32/8.1.0\libstdc++.a(eh_exception.o)
 .pdata$_ZN10__cxxabiv119__foreign_exceptionD0Ev
                0x0000000066136500        0xc C:/GNU/MINGW64/x86_64-8.1.0-win32-seh-rt_v6-rev0/mingw64/bin/../lib/gcc/x86_64-w64-mingw32/8.1.0\libstdc++.a(eh_exception.o)
 .pdata$_ZGTtNKSt9exceptionD1Ev
                0x000000006613650c        0xc C:/GNU/MINGW64/x86_64-8.1.0-win32-seh-rt_v6-rev0/mingw64/bin/../lib/gcc/x86_64-w64-mingw32/8.1.0\libstdc++.a(eh_exception.o)
 .pdata$_ZGTtNKSt13bad_exceptionD1Ev
                0x0000000066136518        0xc C:/GNU/MINGW64/x86_64-8.1.0-win32-seh-rt_v6-rev0/mingw64/bin/../lib/gcc/x86_64-w64-mingw32/8.1.0\libstdc++.a(eh_exception.o)
 .pdata$__cxa_get_globals
                0x0000000066136524        0xc C:/GNU/MINGW64/x86_64-8.1.0-win32-seh-rt_v6-rev0/mingw64/bin/../lib/gcc/x86_64-w64-mingw32/8.1.0\libstdc++.a(eh_globals.o)
 .pdata$__cxa_get_globals_fast
                0x0000000066136530        0xc C:/GNU/MINGW64/x86_64-8.1.0-win32-seh-rt_v6-rev0/mingw64/bin/../lib/gcc/x86_64-w64-mingw32/8.1.0\libstdc++.a(eh_globals.o)
 .pdata$_ZL16get_adjusted_ptrPKSt9type_infoS1_PPv
                0x000000006613653c        0xc C:/GNU/MINGW64/x86_64-8.1.0-win32-seh-rt_v6-rev0/mingw64/bin/../lib/gcc/x86_64-w64-mingw32/8.1.0\libstdc++.a(eh_personality.o)
 .pdata$_ZL21base_of_encoded_valuehP15_Unwind_Context
                0x0000000066136548        0xc C:/GNU/MINGW64/x86_64-8.1.0-win32-seh-rt_v6-rev0/mingw64/bin/../lib/gcc/x86_64-w64-mingw32/8.1.0\libstdc++.a(eh_personality.o)
 .pdata$_ZL28read_encoded_value_with_basehyPKhPy
                0x0000000066136554        0xc C:/GNU/MINGW64/x86_64-8.1.0-win32-seh-rt_v6-rev0/mingw64/bin/../lib/gcc/x86_64-w64-mingw32/8.1.0\libstdc++.a(eh_personality.o)
 .pdata$_ZL17parse_lsda_headerP15_Unwind_ContextPKhP16lsda_header_info
                0x0000000066136560        0xc C:/GNU/MINGW64/x86_64-8.1.0-win32-seh-rt_v6-rev0/mingw64/bin/../lib/gcc/x86_64-w64-mingw32/8.1.0\libstdc++.a(eh_personality.o)
 .pdata$_ZL15get_ttype_entryP16lsda_header_infoy
                0x000000006613656c        0xc C:/GNU/MINGW64/x86_64-8.1.0-win32-seh-rt_v6-rev0/mingw64/bin/../lib/gcc/x86_64-w64-mingw32/8.1.0\libstdc++.a(eh_personality.o)
 .pdata$_ZL20check_exception_specP16lsda_header_infoPKSt9type_infoPvx
                0x0000000066136578        0xc C:/GNU/MINGW64/x86_64-8.1.0-win32-seh-rt_v6-rev0/mingw64/bin/../lib/gcc/x86_64-w64-mingw32/8.1.0\libstdc++.a(eh_personality.o)
 .pdata$_ZN10__cxxabiv1L21__gxx_personality_impEiiyP17_Unwind_ExceptionP15_Unwind_Context
                0x0000000066136584        0xc C:/GNU/MINGW64/x86_64-8.1.0-win32-seh-rt_v6-rev0/mingw64/bin/../lib/gcc/x86_64-w64-mingw32/8.1.0\libstdc++.a(eh_personality.o)
 .pdata$__cxa_call_unexpected
                0x0000000066136590        0xc C:/GNU/MINGW64/x86_64-8.1.0-win32-seh-rt_v6-rev0/mingw64/bin/../lib/gcc/x86_64-w64-mingw32/8.1.0\libstdc++.a(eh_personality.o)
 .pdata$__gxx_personality_seh0
                0x000000006613659c        0xc C:/GNU/MINGW64/x86_64-8.1.0-win32-seh-rt_v6-rev0/mingw64/bin/../lib/gcc/x86_64-w64-mingw32/8.1.0\libstdc++.a(eh_personality.o)
 .pdata$_ZN10__cxxabiv111__terminateEPFvvE
                0x00000000661365a8        0xc C:/GNU/MINGW64/x86_64-8.1.0-win32-seh-rt_v6-rev0/mingw64/bin/../lib/gcc/x86_64-w64-mingw32/8.1.0\libstdc++.a(eh_terminate.o)
 .pdata$_ZSt9terminatev
                0x00000000661365b4        0xc C:/GNU/MINGW64/x86_64-8.1.0-win32-seh-rt_v6-rev0/mingw64/bin/../lib/gcc/x86_64-w64-mingw32/8.1.0\libstdc++.a(eh_terminate.o)
 .pdata$_ZN10__cxxabiv112__unexpectedEPFvvE
                0x00000000661365c0        0xc C:/GNU/MINGW64/x86_64-8.1.0-win32-seh-rt_v6-rev0/mingw64/bin/../lib/gcc/x86_64-w64-mingw32/8.1.0\libstdc++.a(eh_terminate.o)
 .pdata$_ZSt10unexpectedv
                0x00000000661365cc        0xc C:/GNU/MINGW64/x86_64-8.1.0-win32-seh-rt_v6-rev0/mingw64/bin/../lib/gcc/x86_64-w64-mingw32/8.1.0\libstdc++.a(eh_terminate.o)
 .pdata$_ZSt13set_terminatePFvvE
                0x00000000661365d8        0xc C:/GNU/MINGW64/x86_64-8.1.0-win32-seh-rt_v6-rev0/mingw64/bin/../lib/gcc/x86_64-w64-mingw32/8.1.0\libstdc++.a(eh_terminate.o)
 .pdata$_ZSt13get_terminatev
                0x00000000661365e4        0xc C:/GNU/MINGW64/x86_64-8.1.0-win32-seh-rt_v6-rev0/mingw64/bin/../lib/gcc/x86_64-w64-mingw32/8.1.0\libstdc++.a(eh_terminate.o)
 .pdata$_ZSt14set_unexpectedPFvvE
                0x00000000661365f0        0xc C:/GNU/MINGW64/x86_64-8.1.0-win32-seh-rt_v6-rev0/mingw64/bin/../lib/gcc/x86_64-w64-mingw32/8.1.0\libstdc++.a(eh_terminate.o)
 .pdata$_ZSt14get_unexpectedv
                0x00000000661365fc        0xc C:/GNU/MINGW64/x86_64-8.1.0-win32-seh-rt_v6-rev0/mingw64/bin/../lib/gcc/x86_64-w64-mingw32/8.1.0\libstdc++.a(eh_terminate.o)
 .pdata$_ZL23__gxx_exception_cleanup19_Unwind_Reason_CodeP17_Unwind_Exception
                0x0000000066136608        0xc C:/GNU/MINGW64/x86_64-8.1.0-win32-seh-rt_v6-rev0/mingw64/bin/../lib/gcc/x86_64-w64-mingw32/8.1.0\libstdc++.a(eh_throw.o)
 .pdata$__cxa_init_primary_exception
                0x0000000066136614        0xc C:/GNU/MINGW64/x86_64-8.1.0-win32-seh-rt_v6-rev0/mingw64/bin/../lib/gcc/x86_64-w64-mingw32/8.1.0\libstdc++.a(eh_throw.o)
 .pdata$__cxa_throw
                0x0000000066136620        0xc C:/GNU/MINGW64/x86_64-8.1.0-win32-seh-rt_v6-rev0/mingw64/bin/../lib/gcc/x86_64-w64-mingw32/8.1.0\libstdc++.a(eh_throw.o)
 .pdata$__cxa_rethrow
                0x000000006613662c        0xc C:/GNU/MINGW64/x86_64-8.1.0-win32-seh-rt_v6-rev0/mingw64/bin/../lib/gcc/x86_64-w64-mingw32/8.1.0\libstdc++.a(eh_throw.o)
 .pdata$_Znwy   0x0000000066136638        0xc C:/GNU/MINGW64/x86_64-8.1.0-win32-seh-rt_v6-rev0/mingw64/bin/../lib/gcc/x86_64-w64-mingw32/8.1.0\libstdc++.a(new_op.o)
 .pdata$__cxa_pure_virtual
                0x0000000066136644        0xc C:/GNU/MINGW64/x86_64-8.1.0-win32-seh-rt_v6-rev0/mingw64/bin/../lib/gcc/x86_64-w64-mingw32/8.1.0\libstdc++.a(pure.o)
 .pdata$__cxa_deleted_virtual
                0x0000000066136650        0xc C:/GNU/MINGW64/x86_64-8.1.0-win32-seh-rt_v6-rev0/mingw64/bin/../lib/gcc/x86_64-w64-mingw32/8.1.0\libstdc++.a(pure.o)
 .pdata$_ZN10__cxxabiv120__si_class_type_infoD2Ev
                0x000000006613665c        0xc C:/GNU/MINGW64/x86_64-8.1.0-win32-seh-rt_v6-rev0/mingw64/bin/../lib/gcc/x86_64-w64-mingw32/8.1.0\libstdc++.a(si_class_type_info.o)
 .pdata$_ZN10__cxxabiv120__si_class_type_infoD0Ev
                0x0000000066136668        0xc C:/GNU/MINGW64/x86_64-8.1.0-win32-seh-rt_v6-rev0/mingw64/bin/../lib/gcc/x86_64-w64-mingw32/8.1.0\libstdc++.a(si_class_type_info.o)
 .pdata$_ZNK10__cxxabiv120__si_class_type_info20__do_find_public_srcExPKvPKNS_17__class_type_infoES2_
                0x0000000066136674        0xc C:/GNU/MINGW64/x86_64-8.1.0-win32-seh-rt_v6-rev0/mingw64/bin/../lib/gcc/x86_64-w64-mingw32/8.1.0\libstdc++.a(si_class_type_info.o)
 .pdata$_ZNK10__cxxabiv120__si_class_type_info12__do_dyncastExNS_17__class_type_info10__sub_kindEPKS1_PKvS4_S6_RNS1_16__dyncast_resultE
                0x0000000066136680        0xc C:/GNU/MINGW64/x86_64-8.1.0-win32-seh-rt_v6-rev0/mingw64/bin/../lib/gcc/x86_64-w64-mingw32/8.1.0\libstdc++.a(si_class_type_info.o)
 .pdata$_ZNK10__cxxabiv120__si_class_type_info11__do_upcastEPKNS_17__class_type_infoEPKvRNS1_15__upcast_resultE
                0x000000006613668c        0xc C:/GNU/MINGW64/x86_64-8.1.0-win32-seh-rt_v6-rev0/mingw64/bin/../lib/gcc/x86_64-w64-mingw32/8.1.0\libstdc++.a(si_class_type_info.o)
 .pdata$_ZNSt9type_infoD2Ev
                0x0000000066136698        0xc C:/GNU/MINGW64/x86_64-8.1.0-win32-seh-rt_v6-rev0/mingw64/bin/../lib/gcc/x86_64-w64-mingw32/8.1.0\libstdc++.a(tinfo.o)
 .pdata$_ZNKSt9type_info14__is_pointer_pEv
                0x00000000661366a4        0xc C:/GNU/MINGW64/x86_64-8.1.0-win32-seh-rt_v6-rev0/mingw64/bin/../lib/gcc/x86_64-w64-mingw32/8.1.0\libstdc++.a(tinfo.o)
 .pdata$_ZNKSt9type_info11__do_upcastEPKN10__cxxabiv117__class_type_infoEPPv
                0x00000000661366b0        0xc C:/GNU/MINGW64/x86_64-8.1.0-win32-seh-rt_v6-rev0/mingw64/bin/../lib/gcc/x86_64-w64-mingw32/8.1.0\libstdc++.a(tinfo.o)
 .pdata$_ZNSt9type_infoD0Ev
                0x00000000661366bc        0xc C:/GNU/MINGW64/x86_64-8.1.0-win32-seh-rt_v6-rev0/mingw64/bin/../lib/gcc/x86_64-w64-mingw32/8.1.0\libstdc++.a(tinfo.o)
 .pdata$_ZNKSt9type_infoeqERKS_
                0x00000000661366c8        0xc C:/GNU/MINGW64/x86_64-8.1.0-win32-seh-rt_v6-rev0/mingw64/bin/../lib/gcc/x86_64-w64-mingw32/8.1.0\libstdc++.a(tinfo.o)
 .pdata$_ZNKSt9type_info10__do_catchEPKS_PPvj
                0x00000000661366d4        0xc C:/GNU/MINGW64/x86_64-8.1.0-win32-seh-rt_v6-rev0/mingw64/bin/../lib/gcc/x86_64-w64-mingw32/8.1.0\libstdc++.a(tinfo.o)
 .pdata$_ZN10__cxxabiv121__vmi_class_type_infoD2Ev
                0x00000000661366e0        0xc C:/GNU/MINGW64/x86_64-8.1.0-win32-seh-rt_v6-rev0/mingw64/bin/../lib/gcc/x86_64-w64-mingw32/8.1.0\libstdc++.a(vmi_class_type_info.o)
 .pdata$_ZN10__cxxabiv121__vmi_class_type_infoD0Ev
                0x00000000661366ec        0xc C:/GNU/MINGW64/x86_64-8.1.0-win32-seh-rt_v6-rev0/mingw64/bin/../lib/gcc/x86_64-w64-mingw32/8.1.0\libstdc++.a(vmi_class_type_info.o)
 .pdata$_ZNK10__cxxabiv121__vmi_class_type_info20__do_find_public_srcExPKvPKNS_17__class_type_infoES2_
                0x00000000661366f8        0xc C:/GNU/MINGW64/x86_64-8.1.0-win32-seh-rt_v6-rev0/mingw64/bin/../lib/gcc/x86_64-w64-mingw32/8.1.0\libstdc++.a(vmi_class_type_info.o)
 .pdata$_ZNK10__cxxabiv121__vmi_class_type_info11__do_upcastEPKNS_17__class_type_infoEPKvRNS1_15__upcast_resultE
                0x0000000066136704        0xc C:/GNU/MINGW64/x86_64-8.1.0-win32-seh-rt_v6-rev0/mingw64/bin/../lib/gcc/x86_64-w64-mingw32/8.1.0\libstdc++.a(vmi_class_type_info.o)
 .pdata$_ZNK10__cxxabiv121__vmi_class_type_info12__do_dyncastExNS_17__class_type_info10__sub_kindEPKS1_PKvS4_S6_RNS1_16__dyncast_resultE
                0x0000000066136710        0xc C:/GNU/MINGW64/x86_64-8.1.0-win32-seh-rt_v6-rev0/mingw64/bin/../lib/gcc/x86_64-w64-mingw32/8.1.0\libstdc++.a(vmi_class_type_info.o)
 .pdata$_ZN9__gnu_cxx27__verbose_terminate_handlerEv
                0x000000006613671c        0xc C:/GNU/MINGW64/x86_64-8.1.0-win32-seh-rt_v6-rev0/mingw64/bin/../lib/gcc/x86_64-w64-mingw32/8.1.0\libstdc++.a(vterminate.o)
 .pdata$_ZNKSt9bad_alloc4whatEv
                0x0000000066136728        0xc C:/GNU/MINGW64/x86_64-8.1.0-win32-seh-rt_v6-rev0/mingw64/bin/../lib/gcc/x86_64-w64-mingw32/8.1.0\libstdc++.a(bad_alloc.o)
 .pdata$_ZNSt9bad_allocD2Ev
                0x0000000066136734        0xc C:/GNU/MINGW64/x86_64-8.1.0-win32-seh-rt_v6-rev0/mingw64/bin/../lib/gcc/x86_64-w64-mingw32/8.1.0\libstdc++.a(bad_alloc.o)
 .pdata$_ZNSt9bad_allocD0Ev
                0x0000000066136740        0xc C:/GNU/MINGW64/x86_64-8.1.0-win32-seh-rt_v6-rev0/mingw64/bin/../lib/gcc/x86_64-w64-mingw32/8.1.0\libstdc++.a(bad_alloc.o)
 .pdata         0x000000006613674c      0x210 C:/GNU/MINGW64/x86_64-8.1.0-win32-seh-rt_v6-rev0/mingw64/bin/../lib/gcc/x86_64-w64-mingw32/8.1.0\libstdc++.a(cp-demangle.o)
 .pdata.unlikely
                0x000000006613695c        0xc C:/GNU/MINGW64/x86_64-8.1.0-win32-seh-rt_v6-rev0/mingw64/bin/../lib/gcc/x86_64-w64-mingw32/8.1.0\libstdc++.a(cp-demangle.o)
 .pdata$_ZdlPv  0x0000000066136968        0xc C:/GNU/MINGW64/x86_64-8.1.0-win32-seh-rt_v6-rev0/mingw64/bin/../lib/gcc/x86_64-w64-mingw32/8.1.0\libstdc++.a(del_op.o)
 .pdata$__cxa_call_terminate
                0x0000000066136974        0xc C:/GNU/MINGW64/x86_64-8.1.0-win32-seh-rt_v6-rev0/mingw64/bin/../lib/gcc/x86_64-w64-mingw32/8.1.0\libstdc++.a(eh_call.o)
 .pdata$__cxa_current_exception_type
                0x0000000066136980        0xc C:/GNU/MINGW64/x86_64-8.1.0-win32-seh-rt_v6-rev0/mingw64/bin/../lib/gcc/x86_64-w64-mingw32/8.1.0\libstdc++.a(eh_type.o)
 .pdata$_ZSt15set_new_handlerPFvvE
                0x000000006613698c        0xc C:/GNU/MINGW64/x86_64-8.1.0-win32-seh-rt_v6-rev0/mingw64/bin/../lib/gcc/x86_64-w64-mingw32/8.1.0\libstdc++.a(new_handler.o)
 .pdata$_ZSt15get_new_handlerv
                0x0000000066136998        0xc C:/GNU/MINGW64/x86_64-8.1.0-win32-seh-rt_v6-rev0/mingw64/bin/../lib/gcc/x86_64-w64-mingw32/8.1.0\libstdc++.a(new_handler.o)
 .pdata         0x00000000661369a4       0x24 C:/GNU/MINGW64/x86_64-8.1.0-win32-seh-rt_v6-rev0/mingw64/bin/../lib/gcc/x86_64-w64-mingw32/8.1.0/../../../../x86_64-w64-mingw32/lib/../lib\libmingw32.a(lib64_libmingw32_a-gccmain.o)
 .pdata         0x00000000661369c8       0x18 C:/GNU/MINGW64/x86_64-8.1.0-win32-seh-rt_v6-rev0/mingw64/bin/../lib/gcc/x86_64-w64-mingw32/8.1.0/../../../../x86_64-w64-mingw32/lib/../lib\libmingw32.a(lib64_libmingw32_a-gs_support.o)
 .pdata         0x00000000661369e0       0x24 C:/GNU/MINGW64/x86_64-8.1.0-win32-seh-rt_v6-rev0/mingw64/bin/../lib/gcc/x86_64-w64-mingw32/8.1.0/../../../../x86_64-w64-mingw32/lib/../lib\libmingw32.a(lib64_libmingw32_a-tlssup.o)
 .pdata         0x0000000066136a04       0x18 C:/GNU/MINGW64/x86_64-8.1.0-win32-seh-rt_v6-rev0/mingw64/bin/../lib/gcc/x86_64-w64-mingw32/8.1.0/../../../../x86_64-w64-mingw32/lib/../lib\libmingw32.a(lib64_libmingw32_a-mingw_helpers.o)
 .pdata.unlikely
                0x0000000066136a1c        0xc C:/GNU/MINGW64/x86_64-8.1.0-win32-seh-rt_v6-rev0/mingw64/bin/../lib/gcc/x86_64-w64-mingw32/8.1.0/../../../../x86_64-w64-mingw32/lib/../lib\libmingw32.a(lib64_libmingw32_a-pseudo-reloc.o)
 .pdata         0x0000000066136a28       0x18 C:/GNU/MINGW64/x86_64-8.1.0-win32-seh-rt_v6-rev0/mingw64/bin/../lib/gcc/x86_64-w64-mingw32/8.1.0/../../../../x86_64-w64-mingw32/lib/../lib\libmingw32.a(lib64_libmingw32_a-pseudo-reloc.o)
 .pdata         0x0000000066136a40       0x24 C:/GNU/MINGW64/x86_64-8.1.0-win32-seh-rt_v6-rev0/mingw64/bin/../lib/gcc/x86_64-w64-mingw32/8.1.0/../../../../x86_64-w64-mingw32/lib/../lib\libmingw32.a(lib64_libmingw32_a-crt_handler.o)
 .pdata         0x0000000066136a64       0x30 C:/GNU/MINGW64/x86_64-8.1.0-win32-seh-rt_v6-rev0/mingw64/bin/../lib/gcc/x86_64-w64-mingw32/8.1.0/../../../../x86_64-w64-mingw32/lib/../lib\libmingw32.a(lib64_libmingw32_a-tlsthrd.o)
 .pdata         0x0000000066136a94       0x78 C:/GNU/MINGW64/x86_64-8.1.0-win32-seh-rt_v6-rev0/mingw64/bin/../lib/gcc/x86_64-w64-mingw32/8.1.0/../../../../x86_64-w64-mingw32/lib/../lib\libmingw32.a(lib64_libmingw32_a-pesect.o)
 .pdata         0x0000000066136b0c        0xc C:/GNU/MINGW64/x86_64-8.1.0-win32-seh-rt_v6-rev0/mingw64/bin/../lib/gcc/x86_64-w64-mingw32/8.1.0/../../../../x86_64-w64-mingw32/lib/../lib\libmingw32.a(lib64_libmingw32_a-CRT_fp10.o)
 .pdata         0x0000000066136b18       0xb4 C:/GNU/MINGW64/x86_64-8.1.0-win32-seh-rt_v6-rev0/mingw64/bin/../lib/gcc/x86_64-w64-mingw32/8.1.0\libgcc.a(gthr-win32.o)
 .pdata         0x0000000066136bcc       0xe4 C:/GNU/MINGW64/x86_64-8.1.0-win32-seh-rt_v6-rev0/mingw64/bin/../lib/gcc/x86_64-w64-mingw32/8.1.0\libgcc_eh.a(unwind-seh.o)
 .pdata         0x0000000066136cb0       0x3c C:/GNU/MINGW64/x86_64-8.1.0-win32-seh-rt_v6-rev0/mingw64/bin/../lib/gcc/x86_64-w64-mingw32/8.1.0\libgcc_eh.a(emutls.o)
 .pdata         0x0000000066136cec        0xc C:/GNU/MINGW64/x86_64-8.1.0-win32-seh-rt_v6-rev0/mingw64/bin/../lib/gcc/x86_64-w64-mingw32/8.1.0/../../../../x86_64-w64-mingw32/lib/../lib\libmingwex.a(lib64_libmingwex_a-dllentry.o)
 .pdata         0x0000000066136cf8       0x24 C:/GNU/MINGW64/x86_64-8.1.0-win32-seh-rt_v6-rev0/mingw64/bin/../lib/gcc/x86_64-w64-mingw32/8.1.0/../../../../x86_64-w64-mingw32/lib/../lib\libmsvcrt.a(lib64_libmsvcrt_os_a-onexit_table.o)
 .pdata         0x0000000066136d1c        0xc C:/GNU/MINGW64/x86_64-8.1.0-win32-seh-rt_v6-rev0/mingw64/bin/../lib/gcc/x86_64-w64-mingw32/8.1.0/../../../../x86_64-w64-mingw32/lib/../lib\libmsvcrt.a(lib64_libmsvcrt_os_a-acrt_iob_func.o)
 .pdata         0x0000000066136d28       0x18 C:/GNU/MINGW64/x86_64-8.1.0-win32-seh-rt_v6-rev0/mingw64/bin/../lib/gcc/x86_64-w64-mingw32/8.1.0/../../../../x86_64-w64-mingw32/lib/../lib\libmingw32.a(lib64_libmingw32_a-tlsmthread.o)
 .pdata.startup
                0x0000000066136d40        0xc C:/GNU/MINGW64/x86_64-8.1.0-win32-seh-rt_v6-rev0/mingw64/bin/../lib/gcc/x86_64-w64-mingw32/8.1.0/crtend.o

.xdata          0x0000000066137000     0x2c00
 *(.xdata*)
 .xdata         0x0000000066137000       0x34 C:/GNU/MINGW64/x86_64-8.1.0-win32-seh-rt_v6-rev0/mingw64/bin/../lib/gcc/x86_64-w64-mingw32/8.1.0/../../../../x86_64-w64-mingw32/lib/../lib/dllcrt2.o
 .xdata         0x0000000066137034        0x8 C:/GNU/MINGW64/x86_64-8.1.0-win32-seh-rt_v6-rev0/mingw64/bin/../lib/gcc/x86_64-w64-mingw32/8.1.0/crtbegin.o
 .xdata         0x000000006613703c        0x8 ../build/x64_Release/cpuid.o
 .xdata         0x0000000066137044        0x8 ../build/x64_Release/dllmain.o
 .xdata$_ZN8Palmtree4Math4Core8Internal9ExceptionD1Ev
                0x000000006613704c        0x4 ../build/x64_Release/pmc_add.o
 .xdata$_ZN8Palmtree4Math4Core8Internal9ExceptionD0Ev
                0x0000000066137050        0x8 ../build/x64_Release/pmc_add.o
 .xdata$_ZN8Palmtree4Math4Core8Internal21ArgumentNullExceptionD1Ev
                0x0000000066137058        0x4 ../build/x64_Release/pmc_add.o
 .xdata$_ZN8Palmtree4Math4Core8Internal21ArgumentNullExceptionD0Ev
                0x000000006613705c        0x8 ../build/x64_Release/pmc_add.o
 .xdata$_ZN8Palmtree4Math4Core8Internal22InternalErrorExceptionD1Ev
                0x0000000066137064        0x4 ../build/x64_Release/pmc_add.o
 .xdata$_ZN8Palmtree4Math4Core8Internal22InternalErrorExceptionD0Ev
                0x0000000066137068        0x8 ../build/x64_Release/pmc_add.o
 .xdata         0x0000000066137070      0x16c ../build/x64_Release/pmc_add.o
 .xdata         0x00000000661371dc       0x68 ../build/x64_Release/pmc_bitwiseand.o
 .xdata         0x0000000066137244      0x11c ../build/x64_Release/pmc_bitwiseor.o
 .xdata$_ZN8Palmtree4Math4Core8Internal15FormatExceptionD1Ev
                0x0000000066137360        0x4 ../build/x64_Release/pmc_bytes.o
 .xdata$_ZN8Palmtree4Math4Core8Internal15FormatExceptionD0Ev
                0x0000000066137364        0x8 ../build/x64_Release/pmc_bytes.o
 .xdata$_ZN8Palmtree4Math4Core8Internal27InsufficientBufferExceptionD1Ev
                0x000000006613736c        0x4 ../build/x64_Release/pmc_bytes.o
 .xdata$_ZN8Palmtree4Math4Core8Internal27InsufficientBufferExceptionD0Ev
                0x0000000066137370        0x8 ../build/x64_Release/pmc_bytes.o
 .xdata         0x0000000066137378       0x98 ../build/x64_Release/pmc_bytes.o
 .xdata         0x0000000066137410       0x4c ../build/x64_Release/pmc_compare.o
 .xdata$_ZN8Palmtree4Math4Core8Internal23DivisionByZeroExceptionD1Ev
                0x000000006613745c        0x4 ../build/x64_Release/pmc_divrem.o
 .xdata$_ZN8Palmtree4Math4Core8Internal23DivisionByZeroExceptionD0Ev
                0x0000000066137460        0x8 ../build/x64_Release/pmc_divrem.o
 .xdata         0x0000000066137468      0x1dc ../build/x64_Release/pmc_divrem.o
 .xdata         0x0000000066137644       0x40 ../build/x64_Release/pmc_equals.o
 .xdata         0x0000000066137684      0x124 ../build/x64_Release/pmc_exclusiveor.o
 .xdata         0x00000000661377a8       0x84 ../build/x64_Release/pmc_from.o
 .xdata$_ZN8Palmtree4Math4Core8Internal19ArithmeticExceptionD1Ev
                0x000000006613782c        0x4 ../build/x64_Release/pmc_greatestcommondivisor.o
 .xdata$_ZN8Palmtree4Math4Core8Internal19ArithmeticExceptionD0Ev
                0x0000000066137830        0x8 ../build/x64_Release/pmc_greatestcommondivisor.o
 .xdata         0x0000000066137838      0x164 ../build/x64_Release/pmc_greatestcommondivisor.o
 .xdata         0x000000006613799c       0x20 ../build/x64_Release/pmc_initialize.o
 .xdata         0x00000000661379bc      0x944 ../build/x64_Release/pmc_interface_csharp.o
 .xdata$_ZN8Palmtree4Math4Core8Internal14ResourceHolder16__ChainBufferTag5ClearEv
                0x0000000066138300        0x4 ../build/x64_Release/pmc_memory.o
 .xdata$_ZN8Palmtree4Math4Core8Internal14ResourceHolder16__ChainBufferTag5CheckEv
                0x0000000066138304        0x4 ../build/x64_Release/pmc_memory.o
 .xdata$_ZN8Palmtree4Math4Core8Internal14ResourceHolder9__RootTagD1Ev
                0x0000000066138308        0x4 ../build/x64_Release/pmc_memory.o
 .xdata$_ZN8Palmtree4Math4Core8Internal14ResourceHolder9__RootTag8DestructEv
                0x000000006613830c        0x4 ../build/x64_Release/pmc_memory.o
 .xdata         0x0000000066138310      0x478 ../build/x64_Release/pmc_memory.o
 .xdata$_ZN8Palmtree4Math4Core8Internal14ResourceHolder9__RootTag19EqualsBufferAddressEPv
                0x0000000066138788        0x8 ../build/x64_Release/pmc_memory.o
 .xdata$_ZN8Palmtree4Math4Core8Internal14ResourceHolder9__RootTagD0Ev
                0x0000000066138790        0x4 ../build/x64_Release/pmc_memory.o
 .xdata$_ZN8Palmtree4Math4Core8Internal18BadBufferExceptionD1Ev
                0x0000000066138794        0x4 ../build/x64_Release/pmc_memory.o
 .xdata$_ZN8Palmtree4Math4Core8Internal18BadBufferExceptionD0Ev
                0x0000000066138798        0x8 ../build/x64_Release/pmc_memory.o
 .xdata$_ZN8Palmtree4Math4Core8Internal24NotEnoughMemoryExceptionD1Ev
                0x00000000661387a0        0x4 ../build/x64_Release/pmc_memory.o
 .xdata$_ZN8Palmtree4Math4Core8Internal24NotEnoughMemoryExceptionD0Ev
                0x00000000661387a4        0x8 ../build/x64_Release/pmc_memory.o
 .xdata$_ZN8Palmtree4Math4Core8Internal17ArgumentExceptionD1Ev
                0x00000000661387ac        0x4 ../build/x64_Release/pmc_memory.o
 .xdata$_ZN8Palmtree4Math4Core8Internal17ArgumentExceptionD0Ev
                0x00000000661387b0        0x8 ../build/x64_Release/pmc_memory.o
 .xdata$_ZN8Palmtree4Math4Core8Internal14ResourceHolderD1Ev
                0x00000000661387b8       0x14 ../build/x64_Release/pmc_memory.o
 .xdata$_ZN8Palmtree4Math4Core8Internal14ResourceHolderD0Ev
                0x00000000661387cc       0x14 ../build/x64_Release/pmc_memory.o
 .xdata$_ZN8Palmtree4Math4Core8Internal14ResourceHolderD2Ev
                0x00000000661387e0       0x14 ../build/x64_Release/pmc_memory.o
 .xdata         0x00000000661387f4       0x70 ../build/x64_Release/pmc_modpow.o
 .xdata         0x0000000066138864      0x18c ../build/x64_Release/pmc_multiply.o
 .xdata$_ZN8Palmtree4Math4Core8Internal12StringReader8PeekCharEv
                0x00000000661389f0        0x4 ../build/x64_Release/pmc_parse.o
 .xdata$_ZN8Palmtree4Math4Core8Internal12StringReader10StartsWithEPKw
                0x00000000661389f4        0x4 ../build/x64_Release/pmc_parse.o
 .xdata$_ZN8Palmtree4Math4Core8Internal12StringWriter5WriteEPKw
                0x00000000661389f8        0xc ../build/x64_Release/pmc_parse.o
 .xdata$_ZN8Palmtree4Math4Core8Internal12StringWriter9GetStringEv
                0x0000000066138a04        0x4 ../build/x64_Release/pmc_parse.o
 .xdata         0x0000000066138a08      0x130 ../build/x64_Release/pmc_parse.o
 .xdata$_ZN8Palmtree4Math4Core8Internal12StringWriter5WriteEw
                0x0000000066138b38        0x8 ../build/x64_Release/pmc_parse.o
 .xdata$_ZN8Palmtree4Math4Core8Internal12StringReader8ProgressEv
                0x0000000066138b40        0x8 ../build/x64_Release/pmc_parse.o
 .xdata$_ZN8Palmtree4Math4Core8Internal12StringReader10SkipStringEPKw
                0x0000000066138b48        0x8 ../build/x64_Release/pmc_parse.o
 .xdata$_ZN8Palmtree4Math4Core8Internal11ParserState32ParseAsIntegerPartNumberSequenceEv
                0x0000000066138b50       0x10 ../build/x64_Release/pmc_parse.o
 .xdata$_ZN8Palmtree4Math4Core8Internal11ParserState33ParseAsFractionPartNumberSequenceEv
                0x0000000066138b60        0x8 ../build/x64_Release/pmc_parse.o
 .xdata$_ZN8Palmtree4Math4Core8Internal11ParserState26ParseAsDecimalNumberStringEv
                0x0000000066138b68       0x10 ../build/x64_Release/pmc_parse.o
 .xdata$_ZN8Palmtree4Math4Core8Internal17OverflowExceptionD1Ev
                0x0000000066138b78        0x4 ../build/x64_Release/pmc_pow.o
 .xdata$_ZN8Palmtree4Math4Core8Internal17OverflowExceptionD0Ev
                0x0000000066138b7c        0x8 ../build/x64_Release/pmc_pow.o
 .xdata         0x0000000066138b84       0xc4 ../build/x64_Release/pmc_pow.o
 .xdata         0x0000000066138c48       0xcc ../build/x64_Release/pmc_shift.o
 .xdata         0x0000000066138d14        0x4 ../build/x64_Release/pmc_statistics.o
 .xdata         0x0000000066138d18      0x100 ../build/x64_Release/pmc_subtruct.o
 .xdata         0x0000000066138e18       0x14 ../build/x64_Release/pmc_to.o
 .xdata$_ZN8Palmtree4Math4Core8Internal19ReverseStringReader8PeekCharEv
                0x0000000066138e2c        0x4 ../build/x64_Release/pmc_tostring.o
 .xdata$_ZN8Palmtree4Math4Core8Internal19ReverseStringReader10StartsWithEPKw
                0x0000000066138e30        0x4 ../build/x64_Release/pmc_tostring.o
 .xdata$_ZN8Palmtree4Math4Core8Internal19ReverseStringWriter9GetStringEv
                0x0000000066138e34        0x4 ../build/x64_Release/pmc_tostring.o
 .xdata$_ZN8Palmtree4Math4Core8Internal16DecimalFromatter29ThousandSeparatedStringWriter9GetStringEv
                0x0000000066138e38        0x4 ../build/x64_Release/pmc_tostring.o
 .xdata$_ZN8Palmtree4Math4Core8Internal16DecimalFromatter14FormatterTypeC24GetDefaultPrecisionValueEv
                0x0000000066138e3c        0x4 ../build/x64_Release/pmc_tostring.o
 .xdata$_ZN8Palmtree4Math4Core8Internal16DecimalFromatter14FormatterTypeD24GetDefaultPrecisionValueEv
                0x0000000066138e40        0x4 ../build/x64_Release/pmc_tostring.o
 .xdata$_ZN8Palmtree4Math4Core8Internal16DecimalFromatter14FormatterTypeD14WriteZeroValueEPNS2_12StringWriterE
                0x0000000066138e44        0xc ../build/x64_Release/pmc_tostring.o
 .xdata$_ZN8Palmtree4Math4Core8Internal16DecimalFromatter14FormatterTypeD11WriteSuffixEcPNS2_12StringWriterE
                0x0000000066138e50        0x4 ../build/x64_Release/pmc_tostring.o
 .xdata$_ZN8Palmtree4Math4Core8Internal16DecimalFromatter14FormatterTypeE24GetDefaultPrecisionValueEv
                0x0000000066138e54        0x4 ../build/x64_Release/pmc_tostring.o
 .xdata$_ZN8Palmtree4Math4Core8Internal16DecimalFromatter14FormatterTypeE14WriteZeroValueEPNS2_12StringWriterE
                0x0000000066138e58        0xc ../build/x64_Release/pmc_tostring.o
 .xdata$_ZN8Palmtree4Math4Core8Internal16DecimalFromatter14FormatterTypeE11WriteSuffixEcPNS2_12StringWriterE
                0x0000000066138e64        0x4 ../build/x64_Release/pmc_tostring.o
 .xdata$_ZN8Palmtree4Math4Core8Internal16DecimalFromatter14FormatterTypeF24GetDefaultPrecisionValueEv
                0x0000000066138e68        0x4 ../build/x64_Release/pmc_tostring.o
 .xdata$_ZN8Palmtree4Math4Core8Internal16DecimalFromatter14FormatterTypeF11WriteSuffixEcPNS2_12StringWriterE
                0x0000000066138e6c        0x4 ../build/x64_Release/pmc_tostring.o
 .xdata$_ZN8Palmtree4Math4Core8Internal16DecimalFromatter14FormatterTypeN24GetDefaultPrecisionValueEv
                0x0000000066138e70        0x4 ../build/x64_Release/pmc_tostring.o
 .xdata$_ZN8Palmtree4Math4Core8Internal16DecimalFromatter14FormatterTypeP24GetDefaultPrecisionValueEv
                0x0000000066138e74        0x4 ../build/x64_Release/pmc_tostring.o
 .xdata$_ZN8Palmtree4Math4Core8Internal21NotSupportedExceptionD1Ev
                0x0000000066138e78        0x4 ../build/x64_Release/pmc_tostring.o
 .xdata$_ZN8Palmtree4Math4Core8Internal21NotSupportedExceptionD0Ev
                0x0000000066138e7c        0x8 ../build/x64_Release/pmc_tostring.o
 .xdata$_ZN8Palmtree4Math4Core8Internal16DecimalFromatter14FormatterTypeD20FormatNumberSequenceEPKwPNS2_12StringWriterE
                0x0000000066138e84       0x10 ../build/x64_Release/pmc_tostring.o
 .xdata$_ZN8Palmtree4Math4Core8Internal16DecimalFromatter29ThousandSeparatedStringWriter5WriteEw
                0x0000000066138e94        0xc ../build/x64_Release/pmc_tostring.o
 .xdata$_ZN8Palmtree4Math4Core8Internal16DecimalFromatter14FormatterTypeC11WritePrefixEcPNS2_12StringWriterE
                0x0000000066138ea0        0xc ../build/x64_Release/pmc_tostring.o
 .xdata$_ZN8Palmtree4Math4Core8Internal16DecimalFromatter14FormatterTypeC11WriteSuffixEcPNS2_12StringWriterE
                0x0000000066138eac        0xc ../build/x64_Release/pmc_tostring.o
 .xdata$_ZN8Palmtree4Math4Core8Internal16DecimalFromatter14FormatterTypeD11WritePrefixEcPNS2_12StringWriterE
                0x0000000066138eb8        0x4 ../build/x64_Release/pmc_tostring.o
 .xdata$_ZN8Palmtree4Math4Core8Internal16DecimalFromatter14FormatterTypeE11WritePrefixEcPNS2_12StringWriterE
                0x0000000066138ebc        0x4 ../build/x64_Release/pmc_tostring.o
 .xdata$_ZN8Palmtree4Math4Core8Internal16DecimalFromatter14FormatterTypeF11WritePrefixEcPNS2_12StringWriterE
                0x0000000066138ec0        0x4 ../build/x64_Release/pmc_tostring.o
 .xdata$_ZN8Palmtree4Math4Core8Internal16DecimalFromatter14FormatterTypeN11WritePrefixEcPNS2_12StringWriterE
                0x0000000066138ec4        0x8 ../build/x64_Release/pmc_tostring.o
 .xdata$_ZN8Palmtree4Math4Core8Internal16DecimalFromatter14FormatterTypeN11WriteSuffixEcPNS2_12StringWriterE
                0x0000000066138ecc        0x8 ../build/x64_Release/pmc_tostring.o
 .xdata$_ZN8Palmtree4Math4Core8Internal16DecimalFromatter14FormatterTypeP11WritePrefixEcPNS2_12StringWriterE
                0x0000000066138ed4        0xc ../build/x64_Release/pmc_tostring.o
 .xdata$_ZN8Palmtree4Math4Core8Internal16DecimalFromatter14FormatterTypeP11WriteSuffixEcPNS2_12StringWriterE
                0x0000000066138ee0        0xc ../build/x64_Release/pmc_tostring.o
 .xdata         0x0000000066138eec      0x114 ../build/x64_Release/pmc_tostring.o
 .xdata$_ZN8Palmtree4Math4Core8Internal19ReverseStringWriter5WriteEw
                0x0000000066139000        0x8 ../build/x64_Release/pmc_tostring.o
 .xdata$_ZN8Palmtree4Math4Core8Internal19ReverseStringReader8ProgressEv
                0x0000000066139008        0x8 ../build/x64_Release/pmc_tostring.o
 .xdata$_ZN8Palmtree4Math4Core8Internal19ReverseStringReader10SkipStringEPKw
                0x0000000066139010        0x8 ../build/x64_Release/pmc_tostring.o
 .xdata$_ZN8Palmtree4Math4Core8Internal16DecimalFromatter14FormatterTypeC14WriteZeroValueEPNS2_12StringWriterE
                0x0000000066139018        0xc ../build/x64_Release/pmc_tostring.o
 .xdata$_ZN8Palmtree4Math4Core8Internal16DecimalFromatter14FormatterTypeF14WriteZeroValueEPNS2_12StringWriterE
                0x0000000066139024        0xc ../build/x64_Release/pmc_tostring.o
 .xdata$_ZN8Palmtree4Math4Core8Internal16DecimalFromatter14FormatterTypeP14WriteZeroValueEPNS2_12StringWriterE
                0x0000000066139030        0xc ../build/x64_Release/pmc_tostring.o
 .xdata$_ZN8Palmtree4Math4Core8Internal16DecimalFromatter14FormatterTypeN14WriteZeroValueEPNS2_12StringWriterE
                0x000000006613903c        0xc ../build/x64_Release/pmc_tostring.o
 .xdata$_ZN8Palmtree4Math4Core8Internal16DecimalFromatter14FormatterTypeF20FormatNumberSequenceEPKwPNS2_12StringWriterE
                0x0000000066139048        0xc ../build/x64_Release/pmc_tostring.o
 .xdata$_ZN8Palmtree4Math4Core8Internal16DecimalFromatter14FormatterTypeE20FormatNumberSequenceEPKwPNS2_12StringWriterE
                0x0000000066139054       0x10 ../build/x64_Release/pmc_tostring.o
 .xdata$_ZN8Palmtree4Math4Core8Internal16DecimalFromatter29ThousandSeparatedStringWriter5WriteEPKw
                0x0000000066139064       0x10 ../build/x64_Release/pmc_tostring.o
 .xdata$_ZN8Palmtree4Math4Core8Internal19ReverseStringWriter5WriteEPKw
                0x0000000066139074       0x10 ../build/x64_Release/pmc_tostring.o
 .xdata$_ZN8Palmtree4Math4Core8Internal16DecimalFromatter9Formatter6FormatEcPNS2_19__tag_NUMBER_HEADEREPNS2_12StringWriterE
                0x0000000066139084       0x10 ../build/x64_Release/pmc_tostring.o
 .xdata$_ZN8Palmtree4Math4Core8Internal16DecimalFromatter14FormatterTypeC20FormatNumberSequenceEPKwPNS2_12StringWriterE
                0x0000000066139094       0x30 ../build/x64_Release/pmc_tostring.o
 .xdata$_ZN8Palmtree4Math4Core8Internal16DecimalFromatter14FormatterTypeP20FormatNumberSequenceEPKwPNS2_12StringWriterE
                0x00000000661390c4       0x30 ../build/x64_Release/pmc_tostring.o
 .xdata$_ZN8Palmtree4Math4Core8Internal16DecimalFromatter14FormatterTypeN20FormatNumberSequenceEPKwPNS2_12StringWriterE
                0x00000000661390f4       0x30 ../build/x64_Release/pmc_tostring.o
 .xdata$_ZN8Palmtree4Math4Core8Internal16DecimalFromatter9Formatter16FormatInternallyEPNS2_19__tag_NUMBER_HEADEREPNS2_12StringWriterE
                0x0000000066139124       0x3c ../build/x64_Release/pmc_tostring.o
 .xdata$_ZN8Palmtree4Math4Core8Internal16DecimalFromatter14FormatterTypeP16FormatInternallyEPNS2_19__tag_NUMBER_HEADEREPNS2_12StringWriterE
                0x0000000066139160       0x24 ../build/x64_Release/pmc_tostring.o
 .xdata$_ZN8Palmtree4Math4Core8Internal16DecimalFromatter14FormatterTypeE16FormatInternallyEPNS2_19__tag_NUMBER_HEADEREPNS2_12StringWriterE
                0x0000000066139184       0x54 ../build/x64_Release/pmc_tostring.o
 .xdata$_ZNK10__cxxabiv117__class_type_info11__do_upcastEPKS0_PPv
                0x00000000661391d8        0x8 C:/GNU/MINGW64/x86_64-8.1.0-win32-seh-rt_v6-rev0/mingw64/bin/../lib/gcc/x86_64-w64-mingw32/8.1.0\libstdc++.a(class_type_info.o)
 .xdata$_ZNK10__cxxabiv117__class_type_info20__do_find_public_srcExPKvPKS0_S2_
                0x00000000661391e0        0x4 C:/GNU/MINGW64/x86_64-8.1.0-win32-seh-rt_v6-rev0/mingw64/bin/../lib/gcc/x86_64-w64-mingw32/8.1.0\libstdc++.a(class_type_info.o)
 .xdata$_ZN10__cxxabiv117__class_type_infoD2Ev
                0x00000000661391e4        0x4 C:/GNU/MINGW64/x86_64-8.1.0-win32-seh-rt_v6-rev0/mingw64/bin/../lib/gcc/x86_64-w64-mingw32/8.1.0\libstdc++.a(class_type_info.o)
 .xdata$_ZN10__cxxabiv117__class_type_infoD0Ev
                0x00000000661391e8        0x8 C:/GNU/MINGW64/x86_64-8.1.0-win32-seh-rt_v6-rev0/mingw64/bin/../lib/gcc/x86_64-w64-mingw32/8.1.0\libstdc++.a(class_type_info.o)
 .xdata$_ZNK10__cxxabiv117__class_type_info12__do_dyncastExNS0_10__sub_kindEPKS0_PKvS3_S5_RNS0_16__dyncast_resultE
                0x00000000661391f0       0x10 C:/GNU/MINGW64/x86_64-8.1.0-win32-seh-rt_v6-rev0/mingw64/bin/../lib/gcc/x86_64-w64-mingw32/8.1.0\libstdc++.a(class_type_info.o)
 .xdata$_ZNK10__cxxabiv117__class_type_info11__do_upcastEPKS0_PKvRNS0_15__upcast_resultE
                0x0000000066139200        0xc C:/GNU/MINGW64/x86_64-8.1.0-win32-seh-rt_v6-rev0/mingw64/bin/../lib/gcc/x86_64-w64-mingw32/8.1.0\libstdc++.a(class_type_info.o)
 .xdata$_ZNK10__cxxabiv117__class_type_info10__do_catchEPKSt9type_infoPPvj
                0x000000006613920c       0x10 C:/GNU/MINGW64/x86_64-8.1.0-win32-seh-rt_v6-rev0/mingw64/bin/../lib/gcc/x86_64-w64-mingw32/8.1.0\libstdc++.a(class_type_info.o)
 .xdata$_ZdlPvy
                0x000000006613921c        0x4 C:/GNU/MINGW64/x86_64-8.1.0-win32-seh-rt_v6-rev0/mingw64/bin/../lib/gcc/x86_64-w64-mingw32/8.1.0\libstdc++.a(del_ops.o)
 .xdata$_ZNK9__gnu_cxx24__concurrence_lock_error4whatEv
                0x0000000066139220        0x4 C:/GNU/MINGW64/x86_64-8.1.0-win32-seh-rt_v6-rev0/mingw64/bin/../lib/gcc/x86_64-w64-mingw32/8.1.0\libstdc++.a(eh_alloc.o)
 .xdata$_ZNK9__gnu_cxx26__concurrence_unlock_error4whatEv
                0x0000000066139224        0x4 C:/GNU/MINGW64/x86_64-8.1.0-win32-seh-rt_v6-rev0/mingw64/bin/../lib/gcc/x86_64-w64-mingw32/8.1.0\libstdc++.a(eh_alloc.o)
 .xdata$_ZN9__gnu_cxx24__concurrence_lock_errorD1Ev
                0x0000000066139228        0x4 C:/GNU/MINGW64/x86_64-8.1.0-win32-seh-rt_v6-rev0/mingw64/bin/../lib/gcc/x86_64-w64-mingw32/8.1.0\libstdc++.a(eh_alloc.o)
 .xdata$_ZN9__gnu_cxx26__concurrence_unlock_errorD1Ev
                0x000000006613922c        0x4 C:/GNU/MINGW64/x86_64-8.1.0-win32-seh-rt_v6-rev0/mingw64/bin/../lib/gcc/x86_64-w64-mingw32/8.1.0\libstdc++.a(eh_alloc.o)
 .xdata$_ZN9__gnu_cxx24__concurrence_lock_errorD0Ev
                0x0000000066139230        0x8 C:/GNU/MINGW64/x86_64-8.1.0-win32-seh-rt_v6-rev0/mingw64/bin/../lib/gcc/x86_64-w64-mingw32/8.1.0\libstdc++.a(eh_alloc.o)
 .xdata$_ZN9__gnu_cxx26__concurrence_unlock_errorD0Ev
                0x0000000066139238        0x8 C:/GNU/MINGW64/x86_64-8.1.0-win32-seh-rt_v6-rev0/mingw64/bin/../lib/gcc/x86_64-w64-mingw32/8.1.0\libstdc++.a(eh_alloc.o)
 .xdata$__tcf_0
                0x0000000066139240        0xc C:/GNU/MINGW64/x86_64-8.1.0-win32-seh-rt_v6-rev0/mingw64/bin/../lib/gcc/x86_64-w64-mingw32/8.1.0\libstdc++.a(eh_alloc.o)
 .xdata$_ZN9__gnu_cxx30__throw_concurrence_lock_errorEv
                0x000000006613924c        0x8 C:/GNU/MINGW64/x86_64-8.1.0-win32-seh-rt_v6-rev0/mingw64/bin/../lib/gcc/x86_64-w64-mingw32/8.1.0\libstdc++.a(eh_alloc.o)
 .xdata$_ZN9__gnu_cxx32__throw_concurrence_unlock_errorEv
                0x0000000066139254        0x8 C:/GNU/MINGW64/x86_64-8.1.0-win32-seh-rt_v6-rev0/mingw64/bin/../lib/gcc/x86_64-w64-mingw32/8.1.0\libstdc++.a(eh_alloc.o)
 .xdata$_ZN12_GLOBAL__N_14pool4freeEPv.constprop.2
                0x000000006613925c       0x28 C:/GNU/MINGW64/x86_64-8.1.0-win32-seh-rt_v6-rev0/mingw64/bin/../lib/gcc/x86_64-w64-mingw32/8.1.0\libstdc++.a(eh_alloc.o)
 .xdata$_ZN12_GLOBAL__N_14pool8allocateEy.constprop.3
                0x0000000066139284       0x28 C:/GNU/MINGW64/x86_64-8.1.0-win32-seh-rt_v6-rev0/mingw64/bin/../lib/gcc/x86_64-w64-mingw32/8.1.0\libstdc++.a(eh_alloc.o)
 .xdata$_ZN9__gnu_cxx9__freeresEv
                0x00000000661392ac        0x8 C:/GNU/MINGW64/x86_64-8.1.0-win32-seh-rt_v6-rev0/mingw64/bin/../lib/gcc/x86_64-w64-mingw32/8.1.0\libstdc++.a(eh_alloc.o)
 .xdata$__cxa_allocate_exception
                0x00000000661392b4       0x14 C:/GNU/MINGW64/x86_64-8.1.0-win32-seh-rt_v6-rev0/mingw64/bin/../lib/gcc/x86_64-w64-mingw32/8.1.0\libstdc++.a(eh_alloc.o)
 .xdata$__cxa_free_exception
                0x00000000661392c8        0xc C:/GNU/MINGW64/x86_64-8.1.0-win32-seh-rt_v6-rev0/mingw64/bin/../lib/gcc/x86_64-w64-mingw32/8.1.0\libstdc++.a(eh_alloc.o)
 .xdata$__cxa_allocate_dependent_exception
                0x00000000661392d4       0x10 C:/GNU/MINGW64/x86_64-8.1.0-win32-seh-rt_v6-rev0/mingw64/bin/../lib/gcc/x86_64-w64-mingw32/8.1.0\libstdc++.a(eh_alloc.o)
 .xdata$__cxa_free_dependent_exception
                0x00000000661392e4        0xc C:/GNU/MINGW64/x86_64-8.1.0-win32-seh-rt_v6-rev0/mingw64/bin/../lib/gcc/x86_64-w64-mingw32/8.1.0\libstdc++.a(eh_alloc.o)
 .xdata.startup._GLOBAL__sub_I__ZN9__gnu_cxx9__freeresEv
                0x00000000661392f0        0x8 C:/GNU/MINGW64/x86_64-8.1.0-win32-seh-rt_v6-rev0/mingw64/bin/../lib/gcc/x86_64-w64-mingw32/8.1.0\libstdc++.a(eh_alloc.o)
 .xdata$__cxa_get_exception_ptr
                0x00000000661392f8        0x4 C:/GNU/MINGW64/x86_64-8.1.0-win32-seh-rt_v6-rev0/mingw64/bin/../lib/gcc/x86_64-w64-mingw32/8.1.0\libstdc++.a(eh_catch.o)
 .xdata$__cxa_begin_catch
                0x00000000661392fc        0x8 C:/GNU/MINGW64/x86_64-8.1.0-win32-seh-rt_v6-rev0/mingw64/bin/../lib/gcc/x86_64-w64-mingw32/8.1.0\libstdc++.a(eh_catch.o)
 .xdata$__cxa_end_catch
                0x0000000066139304        0x8 C:/GNU/MINGW64/x86_64-8.1.0-win32-seh-rt_v6-rev0/mingw64/bin/../lib/gcc/x86_64-w64-mingw32/8.1.0\libstdc++.a(eh_catch.o)
 .xdata$_ZSt18uncaught_exceptionv
                0x000000006613930c        0x8 C:/GNU/MINGW64/x86_64-8.1.0-win32-seh-rt_v6-rev0/mingw64/bin/../lib/gcc/x86_64-w64-mingw32/8.1.0\libstdc++.a(eh_catch.o)
 .xdata$_ZSt19uncaught_exceptionsv
                0x0000000066139314        0x8 C:/GNU/MINGW64/x86_64-8.1.0-win32-seh-rt_v6-rev0/mingw64/bin/../lib/gcc/x86_64-w64-mingw32/8.1.0\libstdc++.a(eh_catch.o)
 .xdata$_ZNSt9exceptionD2Ev
                0x000000006613931c        0x4 C:/GNU/MINGW64/x86_64-8.1.0-win32-seh-rt_v6-rev0/mingw64/bin/../lib/gcc/x86_64-w64-mingw32/8.1.0\libstdc++.a(eh_exception.o)
 .xdata$_ZNSt13bad_exceptionD2Ev
                0x0000000066139320        0x4 C:/GNU/MINGW64/x86_64-8.1.0-win32-seh-rt_v6-rev0/mingw64/bin/../lib/gcc/x86_64-w64-mingw32/8.1.0\libstdc++.a(eh_exception.o)
 .xdata$_ZNKSt9exception4whatEv
                0x0000000066139324        0x4 C:/GNU/MINGW64/x86_64-8.1.0-win32-seh-rt_v6-rev0/mingw64/bin/../lib/gcc/x86_64-w64-mingw32/8.1.0\libstdc++.a(eh_exception.o)
 .xdata$_ZNKSt13bad_exception4whatEv
                0x0000000066139328        0x4 C:/GNU/MINGW64/x86_64-8.1.0-win32-seh-rt_v6-rev0/mingw64/bin/../lib/gcc/x86_64-w64-mingw32/8.1.0\libstdc++.a(eh_exception.o)
 .xdata$_ZNSt9exceptionD0Ev
                0x000000006613932c        0x4 C:/GNU/MINGW64/x86_64-8.1.0-win32-seh-rt_v6-rev0/mingw64/bin/../lib/gcc/x86_64-w64-mingw32/8.1.0\libstdc++.a(eh_exception.o)
 .xdata$_ZNSt13bad_exceptionD0Ev
                0x0000000066139330        0x4 C:/GNU/MINGW64/x86_64-8.1.0-win32-seh-rt_v6-rev0/mingw64/bin/../lib/gcc/x86_64-w64-mingw32/8.1.0\libstdc++.a(eh_exception.o)
 .xdata$_ZN10__cxxabiv115__forced_unwindD2Ev
                0x0000000066139334        0x4 C:/GNU/MINGW64/x86_64-8.1.0-win32-seh-rt_v6-rev0/mingw64/bin/../lib/gcc/x86_64-w64-mingw32/8.1.0\libstdc++.a(eh_exception.o)
 .xdata$_ZN10__cxxabiv115__forced_unwindD0Ev
                0x0000000066139338        0x4 C:/GNU/MINGW64/x86_64-8.1.0-win32-seh-rt_v6-rev0/mingw64/bin/../lib/gcc/x86_64-w64-mingw32/8.1.0\libstdc++.a(eh_exception.o)
 .xdata$_ZN10__cxxabiv119__foreign_exceptionD2Ev
                0x000000006613933c        0x4 C:/GNU/MINGW64/x86_64-8.1.0-win32-seh-rt_v6-rev0/mingw64/bin/../lib/gcc/x86_64-w64-mingw32/8.1.0\libstdc++.a(eh_exception.o)
 .xdata$_ZN10__cxxabiv119__foreign_exceptionD0Ev
                0x0000000066139340        0x4 C:/GNU/MINGW64/x86_64-8.1.0-win32-seh-rt_v6-rev0/mingw64/bin/../lib/gcc/x86_64-w64-mingw32/8.1.0\libstdc++.a(eh_exception.o)
 .xdata$_ZGTtNKSt9exceptionD1Ev
                0x0000000066139344        0x4 C:/GNU/MINGW64/x86_64-8.1.0-win32-seh-rt_v6-rev0/mingw64/bin/../lib/gcc/x86_64-w64-mingw32/8.1.0\libstdc++.a(eh_exception.o)
 .xdata$_ZGTtNKSt13bad_exceptionD1Ev
                0x0000000066139348        0x4 C:/GNU/MINGW64/x86_64-8.1.0-win32-seh-rt_v6-rev0/mingw64/bin/../lib/gcc/x86_64-w64-mingw32/8.1.0\libstdc++.a(eh_exception.o)
 .xdata$__cxa_get_globals
                0x000000006613934c        0x4 C:/GNU/MINGW64/x86_64-8.1.0-win32-seh-rt_v6-rev0/mingw64/bin/../lib/gcc/x86_64-w64-mingw32/8.1.0\libstdc++.a(eh_globals.o)
 .xdata$__cxa_get_globals_fast
                0x0000000066139350        0x4 C:/GNU/MINGW64/x86_64-8.1.0-win32-seh-rt_v6-rev0/mingw64/bin/../lib/gcc/x86_64-w64-mingw32/8.1.0\libstdc++.a(eh_globals.o)
 .xdata$_ZL16get_adjusted_ptrPKSt9type_infoS1_PPv
                0x0000000066139354        0xc C:/GNU/MINGW64/x86_64-8.1.0-win32-seh-rt_v6-rev0/mingw64/bin/../lib/gcc/x86_64-w64-mingw32/8.1.0\libstdc++.a(eh_personality.o)
 .xdata$_ZL21base_of_encoded_valuehP15_Unwind_Context
                0x0000000066139360        0x8 C:/GNU/MINGW64/x86_64-8.1.0-win32-seh-rt_v6-rev0/mingw64/bin/../lib/gcc/x86_64-w64-mingw32/8.1.0\libstdc++.a(eh_personality.o)
 .xdata$_ZL28read_encoded_value_with_basehyPKhPy
                0x0000000066139368        0xc C:/GNU/MINGW64/x86_64-8.1.0-win32-seh-rt_v6-rev0/mingw64/bin/../lib/gcc/x86_64-w64-mingw32/8.1.0\libstdc++.a(eh_personality.o)
 .xdata$_ZL17parse_lsda_headerP15_Unwind_ContextPKhP16lsda_header_info
                0x0000000066139374       0x10 C:/GNU/MINGW64/x86_64-8.1.0-win32-seh-rt_v6-rev0/mingw64/bin/../lib/gcc/x86_64-w64-mingw32/8.1.0\libstdc++.a(eh_personality.o)
 .xdata$_ZL15get_ttype_entryP16lsda_header_infoy
                0x0000000066139384        0x8 C:/GNU/MINGW64/x86_64-8.1.0-win32-seh-rt_v6-rev0/mingw64/bin/../lib/gcc/x86_64-w64-mingw32/8.1.0\libstdc++.a(eh_personality.o)
 .xdata$_ZL20check_exception_specP16lsda_header_infoPKSt9type_infoPvx
                0x000000006613938c       0x10 C:/GNU/MINGW64/x86_64-8.1.0-win32-seh-rt_v6-rev0/mingw64/bin/../lib/gcc/x86_64-w64-mingw32/8.1.0\libstdc++.a(eh_personality.o)
 .xdata$_ZN10__cxxabiv1L21__gxx_personality_impEiiyP17_Unwind_ExceptionP15_Unwind_Context
                0x000000006613939c       0x38 C:/GNU/MINGW64/x86_64-8.1.0-win32-seh-rt_v6-rev0/mingw64/bin/../lib/gcc/x86_64-w64-mingw32/8.1.0\libstdc++.a(eh_personality.o)
 .xdata$__cxa_call_unexpected
                0x00000000661393d4       0x34 C:/GNU/MINGW64/x86_64-8.1.0-win32-seh-rt_v6-rev0/mingw64/bin/../lib/gcc/x86_64-w64-mingw32/8.1.0\libstdc++.a(eh_personality.o)
 .xdata$__gxx_personality_seh0
                0x0000000066139408        0x8 C:/GNU/MINGW64/x86_64-8.1.0-win32-seh-rt_v6-rev0/mingw64/bin/../lib/gcc/x86_64-w64-mingw32/8.1.0\libstdc++.a(eh_personality.o)
 .xdata$_ZN10__cxxabiv111__terminateEPFvvE
                0x0000000066139410       0x30 C:/GNU/MINGW64/x86_64-8.1.0-win32-seh-rt_v6-rev0/mingw64/bin/../lib/gcc/x86_64-w64-mingw32/8.1.0\libstdc++.a(eh_terminate.o)
 .xdata$_ZSt9terminatev
                0x0000000066139440        0x8 C:/GNU/MINGW64/x86_64-8.1.0-win32-seh-rt_v6-rev0/mingw64/bin/../lib/gcc/x86_64-w64-mingw32/8.1.0\libstdc++.a(eh_terminate.o)
 .xdata$_ZN10__cxxabiv112__unexpectedEPFvvE
                0x0000000066139448        0x8 C:/GNU/MINGW64/x86_64-8.1.0-win32-seh-rt_v6-rev0/mingw64/bin/../lib/gcc/x86_64-w64-mingw32/8.1.0\libstdc++.a(eh_terminate.o)
 .xdata$_ZSt10unexpectedv
                0x0000000066139450        0x8 C:/GNU/MINGW64/x86_64-8.1.0-win32-seh-rt_v6-rev0/mingw64/bin/../lib/gcc/x86_64-w64-mingw32/8.1.0\libstdc++.a(eh_terminate.o)
 .xdata$_ZSt13set_terminatePFvvE
                0x0000000066139458        0x4 C:/GNU/MINGW64/x86_64-8.1.0-win32-seh-rt_v6-rev0/mingw64/bin/../lib/gcc/x86_64-w64-mingw32/8.1.0\libstdc++.a(eh_terminate.o)
 .xdata$_ZSt13get_terminatev
                0x000000006613945c        0x4 C:/GNU/MINGW64/x86_64-8.1.0-win32-seh-rt_v6-rev0/mingw64/bin/../lib/gcc/x86_64-w64-mingw32/8.1.0\libstdc++.a(eh_terminate.o)
 .xdata$_ZSt14set_unexpectedPFvvE
                0x0000000066139460        0x4 C:/GNU/MINGW64/x86_64-8.1.0-win32-seh-rt_v6-rev0/mingw64/bin/../lib/gcc/x86_64-w64-mingw32/8.1.0\libstdc++.a(eh_terminate.o)
 .xdata$_ZSt14get_unexpectedv
                0x0000000066139464        0x4 C:/GNU/MINGW64/x86_64-8.1.0-win32-seh-rt_v6-rev0/mingw64/bin/../lib/gcc/x86_64-w64-mingw32/8.1.0\libstdc++.a(eh_terminate.o)
 .xdata$_ZL23__gxx_exception_cleanup19_Unwind_Reason_CodeP17_Unwind_Exception
                0x0000000066139468        0x8 C:/GNU/MINGW64/x86_64-8.1.0-win32-seh-rt_v6-rev0/mingw64/bin/../lib/gcc/x86_64-w64-mingw32/8.1.0\libstdc++.a(eh_throw.o)
 .xdata$__cxa_init_primary_exception
                0x0000000066139470        0x8 C:/GNU/MINGW64/x86_64-8.1.0-win32-seh-rt_v6-rev0/mingw64/bin/../lib/gcc/x86_64-w64-mingw32/8.1.0\libstdc++.a(eh_throw.o)
 .xdata$__cxa_throw
                0x0000000066139478        0xc C:/GNU/MINGW64/x86_64-8.1.0-win32-seh-rt_v6-rev0/mingw64/bin/../lib/gcc/x86_64-w64-mingw32/8.1.0\libstdc++.a(eh_throw.o)
 .xdata$__cxa_rethrow
                0x0000000066139484        0x8 C:/GNU/MINGW64/x86_64-8.1.0-win32-seh-rt_v6-rev0/mingw64/bin/../lib/gcc/x86_64-w64-mingw32/8.1.0\libstdc++.a(eh_throw.o)
 .xdata$_Znwy   0x000000006613948c        0x8 C:/GNU/MINGW64/x86_64-8.1.0-win32-seh-rt_v6-rev0/mingw64/bin/../lib/gcc/x86_64-w64-mingw32/8.1.0\libstdc++.a(new_op.o)
 .xdata$__cxa_pure_virtual
                0x0000000066139494        0x8 C:/GNU/MINGW64/x86_64-8.1.0-win32-seh-rt_v6-rev0/mingw64/bin/../lib/gcc/x86_64-w64-mingw32/8.1.0\libstdc++.a(pure.o)
 .xdata$__cxa_deleted_virtual
                0x000000006613949c        0x8 C:/GNU/MINGW64/x86_64-8.1.0-win32-seh-rt_v6-rev0/mingw64/bin/../lib/gcc/x86_64-w64-mingw32/8.1.0\libstdc++.a(pure.o)
 .xdata$_ZN10__cxxabiv120__si_class_type_infoD2Ev
                0x00000000661394a4        0x4 C:/GNU/MINGW64/x86_64-8.1.0-win32-seh-rt_v6-rev0/mingw64/bin/../lib/gcc/x86_64-w64-mingw32/8.1.0\libstdc++.a(si_class_type_info.o)
 .xdata$_ZN10__cxxabiv120__si_class_type_infoD0Ev
                0x00000000661394a8        0x8 C:/GNU/MINGW64/x86_64-8.1.0-win32-seh-rt_v6-rev0/mingw64/bin/../lib/gcc/x86_64-w64-mingw32/8.1.0\libstdc++.a(si_class_type_info.o)
 .xdata$_ZNK10__cxxabiv120__si_class_type_info20__do_find_public_srcExPKvPKNS_17__class_type_infoES2_
                0x00000000661394b0        0xc C:/GNU/MINGW64/x86_64-8.1.0-win32-seh-rt_v6-rev0/mingw64/bin/../lib/gcc/x86_64-w64-mingw32/8.1.0\libstdc++.a(si_class_type_info.o)
 .xdata$_ZNK10__cxxabiv120__si_class_type_info12__do_dyncastExNS_17__class_type_info10__sub_kindEPKS1_PKvS4_S6_RNS1_16__dyncast_resultE
                0x00000000661394bc       0x18 C:/GNU/MINGW64/x86_64-8.1.0-win32-seh-rt_v6-rev0/mingw64/bin/../lib/gcc/x86_64-w64-mingw32/8.1.0\libstdc++.a(si_class_type_info.o)
 .xdata$_ZNK10__cxxabiv120__si_class_type_info11__do_upcastEPKNS_17__class_type_infoEPKvRNS1_15__upcast_resultE
                0x00000000661394d4       0x10 C:/GNU/MINGW64/x86_64-8.1.0-win32-seh-rt_v6-rev0/mingw64/bin/../lib/gcc/x86_64-w64-mingw32/8.1.0\libstdc++.a(si_class_type_info.o)
 .xdata$_ZNSt9type_infoD2Ev
                0x00000000661394e4        0x4 C:/GNU/MINGW64/x86_64-8.1.0-win32-seh-rt_v6-rev0/mingw64/bin/../lib/gcc/x86_64-w64-mingw32/8.1.0\libstdc++.a(tinfo.o)
 .xdata$_ZNKSt9type_info14__is_pointer_pEv
                0x00000000661394e8        0x4 C:/GNU/MINGW64/x86_64-8.1.0-win32-seh-rt_v6-rev0/mingw64/bin/../lib/gcc/x86_64-w64-mingw32/8.1.0\libstdc++.a(tinfo.o)
 .xdata$_ZNKSt9type_info11__do_upcastEPKN10__cxxabiv117__class_type_infoEPPv
                0x00000000661394ec        0x4 C:/GNU/MINGW64/x86_64-8.1.0-win32-seh-rt_v6-rev0/mingw64/bin/../lib/gcc/x86_64-w64-mingw32/8.1.0\libstdc++.a(tinfo.o)
 .xdata$_ZNSt9type_infoD0Ev
                0x00000000661394f0        0x4 C:/GNU/MINGW64/x86_64-8.1.0-win32-seh-rt_v6-rev0/mingw64/bin/../lib/gcc/x86_64-w64-mingw32/8.1.0\libstdc++.a(tinfo.o)
 .xdata$_ZNKSt9type_infoeqERKS_
                0x00000000661394f4        0x8 C:/GNU/MINGW64/x86_64-8.1.0-win32-seh-rt_v6-rev0/mingw64/bin/../lib/gcc/x86_64-w64-mingw32/8.1.0\libstdc++.a(tinfo.o)
 .xdata$_ZNKSt9type_info10__do_catchEPKS_PPvj
                0x00000000661394fc        0x4 C:/GNU/MINGW64/x86_64-8.1.0-win32-seh-rt_v6-rev0/mingw64/bin/../lib/gcc/x86_64-w64-mingw32/8.1.0\libstdc++.a(tinfo.o)
 .xdata$_ZN10__cxxabiv121__vmi_class_type_infoD2Ev
                0x0000000066139500        0x4 C:/GNU/MINGW64/x86_64-8.1.0-win32-seh-rt_v6-rev0/mingw64/bin/../lib/gcc/x86_64-w64-mingw32/8.1.0\libstdc++.a(vmi_class_type_info.o)
 .xdata$_ZN10__cxxabiv121__vmi_class_type_infoD0Ev
                0x0000000066139504        0x8 C:/GNU/MINGW64/x86_64-8.1.0-win32-seh-rt_v6-rev0/mingw64/bin/../lib/gcc/x86_64-w64-mingw32/8.1.0\libstdc++.a(vmi_class_type_info.o)
 .xdata$_ZNK10__cxxabiv121__vmi_class_type_info20__do_find_public_srcExPKvPKNS_17__class_type_infoES2_
                0x000000006613950c       0x14 C:/GNU/MINGW64/x86_64-8.1.0-win32-seh-rt_v6-rev0/mingw64/bin/../lib/gcc/x86_64-w64-mingw32/8.1.0\libstdc++.a(vmi_class_type_info.o)
 .xdata$_ZNK10__cxxabiv121__vmi_class_type_info11__do_upcastEPKNS_17__class_type_infoEPKvRNS1_15__upcast_resultE
                0x0000000066139520       0x18 C:/GNU/MINGW64/x86_64-8.1.0-win32-seh-rt_v6-rev0/mingw64/bin/../lib/gcc/x86_64-w64-mingw32/8.1.0\libstdc++.a(vmi_class_type_info.o)
 .xdata$_ZNK10__cxxabiv121__vmi_class_type_info12__do_dyncastExNS_17__class_type_info10__sub_kindEPKS1_PKvS4_S6_RNS1_16__dyncast_resultE
                0x0000000066139538       0x18 C:/GNU/MINGW64/x86_64-8.1.0-win32-seh-rt_v6-rev0/mingw64/bin/../lib/gcc/x86_64-w64-mingw32/8.1.0\libstdc++.a(vmi_class_type_info.o)
 .xdata$_ZN9__gnu_cxx27__verbose_terminate_handlerEv
                0x0000000066139550       0x3c C:/GNU/MINGW64/x86_64-8.1.0-win32-seh-rt_v6-rev0/mingw64/bin/../lib/gcc/x86_64-w64-mingw32/8.1.0\libstdc++.a(vterminate.o)
 .xdata$_ZNKSt9bad_alloc4whatEv
                0x000000006613958c        0x4 C:/GNU/MINGW64/x86_64-8.1.0-win32-seh-rt_v6-rev0/mingw64/bin/../lib/gcc/x86_64-w64-mingw32/8.1.0\libstdc++.a(bad_alloc.o)
 .xdata$_ZNSt9bad_allocD2Ev
                0x0000000066139590        0x4 C:/GNU/MINGW64/x86_64-8.1.0-win32-seh-rt_v6-rev0/mingw64/bin/../lib/gcc/x86_64-w64-mingw32/8.1.0\libstdc++.a(bad_alloc.o)
 .xdata$_ZNSt9bad_allocD0Ev
                0x0000000066139594        0x8 C:/GNU/MINGW64/x86_64-8.1.0-win32-seh-rt_v6-rev0/mingw64/bin/../lib/gcc/x86_64-w64-mingw32/8.1.0\libstdc++.a(bad_alloc.o)
 .xdata         0x000000006613959c      0x240 C:/GNU/MINGW64/x86_64-8.1.0-win32-seh-rt_v6-rev0/mingw64/bin/../lib/gcc/x86_64-w64-mingw32/8.1.0\libstdc++.a(cp-demangle.o)
 .xdata.unlikely
                0x00000000661397dc       0x1c C:/GNU/MINGW64/x86_64-8.1.0-win32-seh-rt_v6-rev0/mingw64/bin/../lib/gcc/x86_64-w64-mingw32/8.1.0\libstdc++.a(cp-demangle.o)
 .xdata$_ZdlPv  0x00000000661397f8        0x4 C:/GNU/MINGW64/x86_64-8.1.0-win32-seh-rt_v6-rev0/mingw64/bin/../lib/gcc/x86_64-w64-mingw32/8.1.0\libstdc++.a(del_op.o)
 .xdata$__cxa_call_terminate
                0x00000000661397fc        0x8 C:/GNU/MINGW64/x86_64-8.1.0-win32-seh-rt_v6-rev0/mingw64/bin/../lib/gcc/x86_64-w64-mingw32/8.1.0\libstdc++.a(eh_call.o)
 .xdata$__cxa_current_exception_type
                0x0000000066139804        0x8 C:/GNU/MINGW64/x86_64-8.1.0-win32-seh-rt_v6-rev0/mingw64/bin/../lib/gcc/x86_64-w64-mingw32/8.1.0\libstdc++.a(eh_type.o)
 .xdata$_ZSt15set_new_handlerPFvvE
                0x000000006613980c        0x4 C:/GNU/MINGW64/x86_64-8.1.0-win32-seh-rt_v6-rev0/mingw64/bin/../lib/gcc/x86_64-w64-mingw32/8.1.0\libstdc++.a(new_handler.o)
 .xdata$_ZSt15get_new_handlerv
                0x0000000066139810        0x4 C:/GNU/MINGW64/x86_64-8.1.0-win32-seh-rt_v6-rev0/mingw64/bin/../lib/gcc/x86_64-w64-mingw32/8.1.0\libstdc++.a(new_handler.o)
 .xdata         0x0000000066139814       0x18 C:/GNU/MINGW64/x86_64-8.1.0-win32-seh-rt_v6-rev0/mingw64/bin/../lib/gcc/x86_64-w64-mingw32/8.1.0/../../../../x86_64-w64-mingw32/lib/../lib\libmingw32.a(lib64_libmingw32_a-gccmain.o)
 .xdata         0x000000006613982c       0x20 C:/GNU/MINGW64/x86_64-8.1.0-win32-seh-rt_v6-rev0/mingw64/bin/../lib/gcc/x86_64-w64-mingw32/8.1.0/../../../../x86_64-w64-mingw32/lib/../lib\libmingw32.a(lib64_libmingw32_a-gs_support.o)
 .xdata         0x000000006613984c       0x18 C:/GNU/MINGW64/x86_64-8.1.0-win32-seh-rt_v6-rev0/mingw64/bin/../lib/gcc/x86_64-w64-mingw32/8.1.0/../../../../x86_64-w64-mingw32/lib/../lib\libmingw32.a(lib64_libmingw32_a-tlssup.o)
 .xdata         0x0000000066139864        0x8 C:/GNU/MINGW64/x86_64-8.1.0-win32-seh-rt_v6-rev0/mingw64/bin/../lib/gcc/x86_64-w64-mingw32/8.1.0/../../../../x86_64-w64-mingw32/lib/../lib\libmingw32.a(lib64_libmingw32_a-mingw_helpers.o)
 .xdata.unlikely
                0x000000006613986c        0xc C:/GNU/MINGW64/x86_64-8.1.0-win32-seh-rt_v6-rev0/mingw64/bin/../lib/gcc/x86_64-w64-mingw32/8.1.0/../../../../x86_64-w64-mingw32/lib/../lib\libmingw32.a(lib64_libmingw32_a-pseudo-reloc.o)
 .xdata         0x0000000066139878       0x28 C:/GNU/MINGW64/x86_64-8.1.0-win32-seh-rt_v6-rev0/mingw64/bin/../lib/gcc/x86_64-w64-mingw32/8.1.0/../../../../x86_64-w64-mingw32/lib/../lib\libmingw32.a(lib64_libmingw32_a-pseudo-reloc.o)
 .xdata         0x00000000661398a0       0x20 C:/GNU/MINGW64/x86_64-8.1.0-win32-seh-rt_v6-rev0/mingw64/bin/../lib/gcc/x86_64-w64-mingw32/8.1.0/../../../../x86_64-w64-mingw32/lib/../lib\libmingw32.a(lib64_libmingw32_a-crt_handler.o)
 .xdata         0x00000000661398c0       0x30 C:/GNU/MINGW64/x86_64-8.1.0-win32-seh-rt_v6-rev0/mingw64/bin/../lib/gcc/x86_64-w64-mingw32/8.1.0/../../../../x86_64-w64-mingw32/lib/../lib\libmingw32.a(lib64_libmingw32_a-tlsthrd.o)
 .xdata         0x00000000661398f0       0x48 C:/GNU/MINGW64/x86_64-8.1.0-win32-seh-rt_v6-rev0/mingw64/bin/../lib/gcc/x86_64-w64-mingw32/8.1.0/../../../../x86_64-w64-mingw32/lib/../lib\libmingw32.a(lib64_libmingw32_a-pesect.o)
 .xdata         0x0000000066139938        0x4 C:/GNU/MINGW64/x86_64-8.1.0-win32-seh-rt_v6-rev0/mingw64/bin/../lib/gcc/x86_64-w64-mingw32/8.1.0/../../../../x86_64-w64-mingw32/lib/../lib\libmingw32.a(lib64_libmingw32_a-CRT_fp10.o)
 .xdata         0x000000006613993c       0x80 C:/GNU/MINGW64/x86_64-8.1.0-win32-seh-rt_v6-rev0/mingw64/bin/../lib/gcc/x86_64-w64-mingw32/8.1.0\libgcc.a(gthr-win32.o)
 .xdata         0x00000000661399bc       0x94 C:/GNU/MINGW64/x86_64-8.1.0-win32-seh-rt_v6-rev0/mingw64/bin/../lib/gcc/x86_64-w64-mingw32/8.1.0\libgcc_eh.a(unwind-seh.o)
 .xdata         0x0000000066139a50       0x38 C:/GNU/MINGW64/x86_64-8.1.0-win32-seh-rt_v6-rev0/mingw64/bin/../lib/gcc/x86_64-w64-mingw32/8.1.0\libgcc_eh.a(emutls.o)
 .xdata         0x0000000066139a88        0x4 C:/GNU/MINGW64/x86_64-8.1.0-win32-seh-rt_v6-rev0/mingw64/bin/../lib/gcc/x86_64-w64-mingw32/8.1.0/../../../../x86_64-w64-mingw32/lib/../lib\libmingwex.a(lib64_libmingwex_a-dllentry.o)
 .xdata         0x0000000066139a8c       0x20 C:/GNU/MINGW64/x86_64-8.1.0-win32-seh-rt_v6-rev0/mingw64/bin/../lib/gcc/x86_64-w64-mingw32/8.1.0/../../../../x86_64-w64-mingw32/lib/../lib\libmsvcrt.a(lib64_libmsvcrt_os_a-onexit_table.o)
 .xdata         0x0000000066139aac        0x8 C:/GNU/MINGW64/x86_64-8.1.0-win32-seh-rt_v6-rev0/mingw64/bin/../lib/gcc/x86_64-w64-mingw32/8.1.0/../../../../x86_64-w64-mingw32/lib/../lib\libmsvcrt.a(lib64_libmsvcrt_os_a-acrt_iob_func.o)
 .xdata         0x0000000066139ab4        0x8 C:/GNU/MINGW64/x86_64-8.1.0-win32-seh-rt_v6-rev0/mingw64/bin/../lib/gcc/x86_64-w64-mingw32/8.1.0/../../../../x86_64-w64-mingw32/lib/../lib\libmingw32.a(lib64_libmingw32_a-tlsmthread.o)
 .xdata.startup
                0x0000000066139abc        0x4 C:/GNU/MINGW64/x86_64-8.1.0-win32-seh-rt_v6-rev0/mingw64/bin/../lib/gcc/x86_64-w64-mingw32/8.1.0/crtend.o

.bss            0x000000006613a000     0x1140
                0x000000006613a000                __bss_start__ = .
 *(.bss)
 .bss           0x000000006613a000       0x20 C:/GNU/MINGW64/x86_64-8.1.0-win32-seh-rt_v6-rev0/mingw64/bin/../lib/gcc/x86_64-w64-mingw32/8.1.0/../../../../x86_64-w64-mingw32/lib/../lib/dllcrt2.o
 .bss           0x000000006613a020        0x0 C:/GNU/MINGW64/x86_64-8.1.0-win32-seh-rt_v6-rev0/mingw64/bin/../lib/gcc/x86_64-w64-mingw32/8.1.0/crtbegin.o
 .bss           0x000000006613a020        0x0 ../build/x64_Release/cpuid.o
 .bss           0x000000006613a020        0x0 ../build/x64_Release/dllmain.o
 .bss           0x000000006613a020       0x10 ../build/x64_Release/pmc_add.o
 .bss           0x000000006613a030        0x0 ../build/x64_Release/pmc_bitwiseand.o
 .bss           0x000000006613a030        0x0 ../build/x64_Release/pmc_bitwiseor.o
 .bss           0x000000006613a030        0x0 ../build/x64_Release/pmc_bytes.o
 .bss           0x000000006613a030        0x0 ../build/x64_Release/pmc_compare.o
 .bss           0x000000006613a030       0x10 ../build/x64_Release/pmc_divrem.o
 .bss           0x000000006613a040        0x0 ../build/x64_Release/pmc_equals.o
 .bss           0x000000006613a040        0x0 ../build/x64_Release/pmc_exclusiveor.o
 .bss           0x000000006613a040        0x0 ../build/x64_Release/pmc_from.o
 .bss           0x000000006613a040        0x0 ../build/x64_Release/pmc_greatestcommondivisor.o
 .bss           0x000000006613a040      0x280 ../build/x64_Release/pmc_initialize.o
                0x000000006613a040                Palmtree::Math::Core::Internal::configuration_info
 .bss           0x000000006613a2c0        0x0 ../build/x64_Release/pmc_interface_csharp.o
 .bss           0x000000006613a2c0      0x100 ../build/x64_Release/pmc_memory.o
                0x000000006613a2c0                Palmtree::Math::Core::Internal::mcs
                0x000000006613a300                Palmtree::Math::Core::Internal::number_one
                0x000000006613a360                Palmtree::Math::Core::Internal::number_zero
                0x000000006613a3b0                Palmtree::Math::Core::Internal::hLocalHeap
 .bss           0x000000006613a3c0        0x0 ../build/x64_Release/pmc_modpow.o
 .bss           0x000000006613a3c0       0x10 ../build/x64_Release/pmc_multiply.o
 *fill*         0x000000006613a3d0       0x10 
 .bss           0x000000006613a3e0      0x220 ../build/x64_Release/pmc_parse.o
 .bss           0x000000006613a600        0x0 ../build/x64_Release/pmc_pow.o
 .bss           0x000000006613a600        0x0 ../build/x64_Release/pmc_shift.o
 .bss           0x000000006613a600       0x10 ../build/x64_Release/pmc_statistics.o
                0x000000006613a600                Palmtree::Math::Core::Internal::statistics_info
 .bss           0x000000006613a610        0x0 ../build/x64_Release/pmc_subtruct.o
 .bss           0x000000006613a610        0x0 ../build/x64_Release/pmc_to.o
 *fill*         0x000000006613a610       0x10 
 .bss           0x000000006613a620      0x200 ../build/x64_Release/pmc_tostring.o
 .bss           0x000000006613a820        0x0 C:/GNU/MINGW64/x86_64-8.1.0-win32-seh-rt_v6-rev0/mingw64/bin/../lib/gcc/x86_64-w64-mingw32/8.1.0/../../../../x86_64-w64-mingw32/lib/../lib\libkernel32.a(dqifs01555.o)
 .bss           0x000000006613a820        0x0 C:/GNU/MINGW64/x86_64-8.1.0-win32-seh-rt_v6-rev0/mingw64/bin/../lib/gcc/x86_64-w64-mingw32/8.1.0/../../../../x86_64-w64-mingw32/lib/../lib\libkernel32.a(dqifs01549.o)
 .bss           0x000000006613a820        0x0 C:/GNU/MINGW64/x86_64-8.1.0-win32-seh-rt_v6-rev0/mingw64/bin/../lib/gcc/x86_64-w64-mingw32/8.1.0/../../../../x86_64-w64-mingw32/lib/../lib\libkernel32.a(dqifs01543.o)
 .bss           0x000000006613a820        0x0 C:/GNU/MINGW64/x86_64-8.1.0-win32-seh-rt_v6-rev0/mingw64/bin/../lib/gcc/x86_64-w64-mingw32/8.1.0/../../../../x86_64-w64-mingw32/lib/../lib\libkernel32.a(dqifs01360.o)
 .bss           0x000000006613a820        0x0 C:/GNU/MINGW64/x86_64-8.1.0-win32-seh-rt_v6-rev0/mingw64/bin/../lib/gcc/x86_64-w64-mingw32/8.1.0/../../../../x86_64-w64-mingw32/lib/../lib\libkernel32.a(dqifs00951.o)
 .bss           0x000000006613a820        0x0 C:/GNU/MINGW64/x86_64-8.1.0-win32-seh-rt_v6-rev0/mingw64/bin/../lib/gcc/x86_64-w64-mingw32/8.1.0/../../../../x86_64-w64-mingw32/lib/../lib\libkernel32.a(dqifs00863.o)
 .bss           0x000000006613a820        0x0 C:/GNU/MINGW64/x86_64-8.1.0-win32-seh-rt_v6-rev0/mingw64/bin/../lib/gcc/x86_64-w64-mingw32/8.1.0/../../../../x86_64-w64-mingw32/lib/../lib\libkernel32.a(dqifs00852.o)
 .bss           0x000000006613a820        0x0 C:/GNU/MINGW64/x86_64-8.1.0-win32-seh-rt_v6-rev0/mingw64/bin/../lib/gcc/x86_64-w64-mingw32/8.1.0/../../../../x86_64-w64-mingw32/lib/../lib\libkernel32.a(dqifs00849.o)
 .bss           0x000000006613a820        0x0 C:/GNU/MINGW64/x86_64-8.1.0-win32-seh-rt_v6-rev0/mingw64/bin/../lib/gcc/x86_64-w64-mingw32/8.1.0/../../../../x86_64-w64-mingw32/lib/../lib\libkernel32.a(dqifs00842.o)
 .bss           0x000000006613a820        0x0 C:/GNU/MINGW64/x86_64-8.1.0-win32-seh-rt_v6-rev0/mingw64/bin/../lib/gcc/x86_64-w64-mingw32/8.1.0/../../../../x86_64-w64-mingw32/lib/../lib\libkernel32.a(dqifs00841.o)
 .bss           0x000000006613a820        0x0 C:/GNU/MINGW64/x86_64-8.1.0-win32-seh-rt_v6-rev0/mingw64/bin/../lib/gcc/x86_64-w64-mingw32/8.1.0/../../../../x86_64-w64-mingw32/lib/../lib\libkernel32.a(dqifs00839.o)
 .bss           0x000000006613a820        0x0 C:/GNU/MINGW64/x86_64-8.1.0-win32-seh-rt_v6-rev0/mingw64/bin/../lib/gcc/x86_64-w64-mingw32/8.1.0/../../../../x86_64-w64-mingw32/lib/../lib\libkernel32.a(dqifs00837.o)
 .bss           0x000000006613a820        0x0 C:/GNU/MINGW64/x86_64-8.1.0-win32-seh-rt_v6-rev0/mingw64/bin/../lib/gcc/x86_64-w64-mingw32/8.1.0/../../../../x86_64-w64-mingw32/lib/../lib\libkernel32.a(dqifs00835.o)
 .bss           0x000000006613a820        0x0 C:/GNU/MINGW64/x86_64-8.1.0-win32-seh-rt_v6-rev0/mingw64/bin/../lib/gcc/x86_64-w64-mingw32/8.1.0/../../../../x86_64-w64-mingw32/lib/../lib\libkernel32.a(dqifs00609.o)
 .bss           0x000000006613a820        0x0 C:/GNU/MINGW64/x86_64-8.1.0-win32-seh-rt_v6-rev0/mingw64/bin/../lib/gcc/x86_64-w64-mingw32/8.1.0/../../../../x86_64-w64-mingw32/lib/../lib\libkernel32.a(dqifs00304.o)
 .bss           0x000000006613a820        0x0 C:/GNU/MINGW64/x86_64-8.1.0-win32-seh-rt_v6-rev0/mingw64/bin/../lib/gcc/x86_64-w64-mingw32/8.1.0/../../../../x86_64-w64-mingw32/lib/../lib\libkernel32.a(dqifh.o)
 .bss           0x000000006613a820        0x0 C:/GNU/MINGW64/x86_64-8.1.0-win32-seh-rt_v6-rev0/mingw64/bin/../lib/gcc/x86_64-w64-mingw32/8.1.0/../../../../x86_64-w64-mingw32/lib/../lib\libkernel32.a(dqift.o)
 .bss           0x000000006613a820        0x0 C:/GNU/MINGW64/x86_64-8.1.0-win32-seh-rt_v6-rev0/mingw64/bin/../lib/gcc/x86_64-w64-mingw32/8.1.0/../../../../x86_64-w64-mingw32/lib/../lib\libuser32.a(dyqes00958.o)
 .bss           0x000000006613a820        0x0 C:/GNU/MINGW64/x86_64-8.1.0-win32-seh-rt_v6-rev0/mingw64/bin/../lib/gcc/x86_64-w64-mingw32/8.1.0/../../../../x86_64-w64-mingw32/lib/../lib\libuser32.a(dyqeh.o)
 .bss           0x000000006613a820        0x0 C:/GNU/MINGW64/x86_64-8.1.0-win32-seh-rt_v6-rev0/mingw64/bin/../lib/gcc/x86_64-w64-mingw32/8.1.0/../../../../x86_64-w64-mingw32/lib/../lib\libuser32.a(dyqet.o)
 .bss           0x000000006613a820        0x0 C:/GNU/MINGW64/x86_64-8.1.0-win32-seh-rt_v6-rev0/mingw64/bin/../lib/gcc/x86_64-w64-mingw32/8.1.0\libstdc++.a(class_type_info.o)
 .bss           0x000000006613a820        0x0 C:/GNU/MINGW64/x86_64-8.1.0-win32-seh-rt_v6-rev0/mingw64/bin/../lib/gcc/x86_64-w64-mingw32/8.1.0\libstdc++.a(del_ops.o)
 .bss           0x000000006613a820        0x0 C:/GNU/MINGW64/x86_64-8.1.0-win32-seh-rt_v6-rev0/mingw64/bin/../lib/gcc/x86_64-w64-mingw32/8.1.0\libstdc++.a(eh_alloc.o)
 .bss           0x000000006613a820        0x0 C:/GNU/MINGW64/x86_64-8.1.0-win32-seh-rt_v6-rev0/mingw64/bin/../lib/gcc/x86_64-w64-mingw32/8.1.0\libstdc++.a(eh_catch.o)
 .bss           0x000000006613a820        0x0 C:/GNU/MINGW64/x86_64-8.1.0-win32-seh-rt_v6-rev0/mingw64/bin/../lib/gcc/x86_64-w64-mingw32/8.1.0\libstdc++.a(eh_exception.o)
 .bss           0x000000006613a820        0x0 C:/GNU/MINGW64/x86_64-8.1.0-win32-seh-rt_v6-rev0/mingw64/bin/../lib/gcc/x86_64-w64-mingw32/8.1.0\libstdc++.a(eh_globals.o)
 .bss           0x000000006613a820        0x0 C:/GNU/MINGW64/x86_64-8.1.0-win32-seh-rt_v6-rev0/mingw64/bin/../lib/gcc/x86_64-w64-mingw32/8.1.0\libstdc++.a(eh_personality.o)
 .bss           0x000000006613a820        0x0 C:/GNU/MINGW64/x86_64-8.1.0-win32-seh-rt_v6-rev0/mingw64/bin/../lib/gcc/x86_64-w64-mingw32/8.1.0\libstdc++.a(eh_terminate.o)
 .bss           0x000000006613a820        0x0 C:/GNU/MINGW64/x86_64-8.1.0-win32-seh-rt_v6-rev0/mingw64/bin/../lib/gcc/x86_64-w64-mingw32/8.1.0\libstdc++.a(eh_term_handler.o)
 .bss           0x000000006613a820        0x0 C:/GNU/MINGW64/x86_64-8.1.0-win32-seh-rt_v6-rev0/mingw64/bin/../lib/gcc/x86_64-w64-mingw32/8.1.0\libstdc++.a(eh_throw.o)
 .bss           0x000000006613a820        0x0 C:/GNU/MINGW64/x86_64-8.1.0-win32-seh-rt_v6-rev0/mingw64/bin/../lib/gcc/x86_64-w64-mingw32/8.1.0\libstdc++.a(eh_unex_handler.o)
 .bss           0x000000006613a820        0x0 C:/GNU/MINGW64/x86_64-8.1.0-win32-seh-rt_v6-rev0/mingw64/bin/../lib/gcc/x86_64-w64-mingw32/8.1.0\libstdc++.a(new_op.o)
 .bss           0x000000006613a820        0x0 C:/GNU/MINGW64/x86_64-8.1.0-win32-seh-rt_v6-rev0/mingw64/bin/../lib/gcc/x86_64-w64-mingw32/8.1.0\libstdc++.a(pure.o)
 .bss           0x000000006613a820        0x0 C:/GNU/MINGW64/x86_64-8.1.0-win32-seh-rt_v6-rev0/mingw64/bin/../lib/gcc/x86_64-w64-mingw32/8.1.0\libstdc++.a(si_class_type_info.o)
 .bss           0x000000006613a820        0x0 C:/GNU/MINGW64/x86_64-8.1.0-win32-seh-rt_v6-rev0/mingw64/bin/../lib/gcc/x86_64-w64-mingw32/8.1.0\libstdc++.a(tinfo.o)
 .bss           0x000000006613a820        0x0 C:/GNU/MINGW64/x86_64-8.1.0-win32-seh-rt_v6-rev0/mingw64/bin/../lib/gcc/x86_64-w64-mingw32/8.1.0\libstdc++.a(vmi_class_type_info.o)
 .bss           0x000000006613a820        0x0 C:/GNU/MINGW64/x86_64-8.1.0-win32-seh-rt_v6-rev0/mingw64/bin/../lib/gcc/x86_64-w64-mingw32/8.1.0\libstdc++.a(vterminate.o)
 .bss           0x000000006613a820        0x0 C:/GNU/MINGW64/x86_64-8.1.0-win32-seh-rt_v6-rev0/mingw64/bin/../lib/gcc/x86_64-w64-mingw32/8.1.0\libstdc++.a(bad_alloc.o)
 .bss           0x000000006613a820        0x0 C:/GNU/MINGW64/x86_64-8.1.0-win32-seh-rt_v6-rev0/mingw64/bin/../lib/gcc/x86_64-w64-mingw32/8.1.0\libstdc++.a(cp-demangle.o)
 .bss           0x000000006613a820        0x0 C:/GNU/MINGW64/x86_64-8.1.0-win32-seh-rt_v6-rev0/mingw64/bin/../lib/gcc/x86_64-w64-mingw32/8.1.0\libstdc++.a(del_op.o)
 .bss           0x000000006613a820        0x0 C:/GNU/MINGW64/x86_64-8.1.0-win32-seh-rt_v6-rev0/mingw64/bin/../lib/gcc/x86_64-w64-mingw32/8.1.0\libstdc++.a(eh_call.o)
 .bss           0x000000006613a820        0x0 C:/GNU/MINGW64/x86_64-8.1.0-win32-seh-rt_v6-rev0/mingw64/bin/../lib/gcc/x86_64-w64-mingw32/8.1.0\libstdc++.a(eh_type.o)
 .bss           0x000000006613a820        0x0 C:/GNU/MINGW64/x86_64-8.1.0-win32-seh-rt_v6-rev0/mingw64/bin/../lib/gcc/x86_64-w64-mingw32/8.1.0\libstdc++.a(new_handler.o)
 .bss           0x000000006613a820       0x10 C:/GNU/MINGW64/x86_64-8.1.0-win32-seh-rt_v6-rev0/mingw64/bin/../lib/gcc/x86_64-w64-mingw32/8.1.0/../../../../x86_64-w64-mingw32/lib/../lib\libmingw32.a(lib64_libmingw32_a-gccmain.o)
 .bss           0x000000006613a830        0x0 C:/GNU/MINGW64/x86_64-8.1.0-win32-seh-rt_v6-rev0/mingw64/bin/../lib/gcc/x86_64-w64-mingw32/8.1.0/../../../../x86_64-w64-mingw32/lib/../lib\libmingw32.a(lib64_libmingw32_a-natstart.o)
 *fill*         0x000000006613a830       0x10 
 .bss           0x000000006613a840      0x580 C:/GNU/MINGW64/x86_64-8.1.0-win32-seh-rt_v6-rev0/mingw64/bin/../lib/gcc/x86_64-w64-mingw32/8.1.0/../../../../x86_64-w64-mingw32/lib/../lib\libmingw32.a(lib64_libmingw32_a-gs_support.o)
 .bss           0x000000006613adc0       0x10 C:/GNU/MINGW64/x86_64-8.1.0-win32-seh-rt_v6-rev0/mingw64/bin/../lib/gcc/x86_64-w64-mingw32/8.1.0/../../../../x86_64-w64-mingw32/lib/../lib\libmingw32.a(lib64_libmingw32_a-tlssup.o)
                0x000000006613adc0                mingw_initltssuo_force
                0x000000006613adc4                mingw_initltsdyn_force
                0x000000006613adc8                mingw_initltsdrot_force
                0x000000006613adcc                _tls_index
 .bss           0x000000006613add0        0x0 C:/GNU/MINGW64/x86_64-8.1.0-win32-seh-rt_v6-rev0/mingw64/bin/../lib/gcc/x86_64-w64-mingw32/8.1.0/../../../../x86_64-w64-mingw32/lib/../lib\libmingw32.a(lib64_libmingw32_a-cinitexe.o)
 .bss           0x000000006613add0       0x10 C:/GNU/MINGW64/x86_64-8.1.0-win32-seh-rt_v6-rev0/mingw64/bin/../lib/gcc/x86_64-w64-mingw32/8.1.0/../../../../x86_64-w64-mingw32/lib/../lib\libmingw32.a(lib64_libmingw32_a-mingw_helpers.o)
                0x000000006613add0                mingw_app_type
 .bss           0x000000006613ade0       0x10 C:/GNU/MINGW64/x86_64-8.1.0-win32-seh-rt_v6-rev0/mingw64/bin/../lib/gcc/x86_64-w64-mingw32/8.1.0/../../../../x86_64-w64-mingw32/lib/../lib\libmingw32.a(lib64_libmingw32_a-pseudo-reloc.o)
 *fill*         0x000000006613adf0       0x10 
 .bss           0x000000006613ae00      0x2a0 C:/GNU/MINGW64/x86_64-8.1.0-win32-seh-rt_v6-rev0/mingw64/bin/../lib/gcc/x86_64-w64-mingw32/8.1.0/../../../../x86_64-w64-mingw32/lib/../lib\libmingw32.a(lib64_libmingw32_a-crt_handler.o)
                0x000000006613ae00                __mingw_oldexcpt_handler
 .bss           0x000000006613b0a0       0x60 C:/GNU/MINGW64/x86_64-8.1.0-win32-seh-rt_v6-rev0/mingw64/bin/../lib/gcc/x86_64-w64-mingw32/8.1.0/../../../../x86_64-w64-mingw32/lib/../lib\libmingw32.a(lib64_libmingw32_a-tlsthrd.o)
 .bss           0x000000006613b100        0x0 C:/GNU/MINGW64/x86_64-8.1.0-win32-seh-rt_v6-rev0/mingw64/bin/../lib/gcc/x86_64-w64-mingw32/8.1.0/../../../../x86_64-w64-mingw32/lib/../lib\libmingw32.a(lib64_libmingw32_a-tlsmcrt.o)
 .bss           0x000000006613b100       0x10 C:/GNU/MINGW64/x86_64-8.1.0-win32-seh-rt_v6-rev0/mingw64/bin/../lib/gcc/x86_64-w64-mingw32/8.1.0/../../../../x86_64-w64-mingw32/lib/../lib\libmingw32.a(lib64_libmingw32_a-pseudo-reloc-list.o)
 .bss           0x000000006613b110        0x0 C:/GNU/MINGW64/x86_64-8.1.0-win32-seh-rt_v6-rev0/mingw64/bin/../lib/gcc/x86_64-w64-mingw32/8.1.0/../../../../x86_64-w64-mingw32/lib/../lib\libmingw32.a(lib64_libmingw32_a-pesect.o)
 .bss           0x000000006613b110        0x0 C:/GNU/MINGW64/x86_64-8.1.0-win32-seh-rt_v6-rev0/mingw64/bin/../lib/gcc/x86_64-w64-mingw32/8.1.0/../../../../x86_64-w64-mingw32/lib/../lib\libmingw32.a(lib64_libmingw32_a-CRT_fp10.o)
 .bss           0x000000006613b110        0x0 C:/GNU/MINGW64/x86_64-8.1.0-win32-seh-rt_v6-rev0/mingw64/bin/../lib/gcc/x86_64-w64-mingw32/8.1.0\libgcc.a(_chkstk_ms.o)
 .bss           0x000000006613b110        0x0 C:/GNU/MINGW64/x86_64-8.1.0-win32-seh-rt_v6-rev0/mingw64/bin/../lib/gcc/x86_64-w64-mingw32/8.1.0\libgcc.a(_ctors.o)
 .bss           0x000000006613b110        0x0 C:/GNU/MINGW64/x86_64-8.1.0-win32-seh-rt_v6-rev0/mingw64/bin/../lib/gcc/x86_64-w64-mingw32/8.1.0\libgcc.a(gthr-win32.o)
 .bss           0x000000006613b110        0x0 C:/GNU/MINGW64/x86_64-8.1.0-win32-seh-rt_v6-rev0/mingw64/bin/../lib/gcc/x86_64-w64-mingw32/8.1.0\libgcc_eh.a(unwind-seh.o)
 .bss           0x000000006613b110       0x20 C:/GNU/MINGW64/x86_64-8.1.0-win32-seh-rt_v6-rev0/mingw64/bin/../lib/gcc/x86_64-w64-mingw32/8.1.0\libgcc_eh.a(emutls.o)
 .bss           0x000000006613b130        0x0 C:/GNU/MINGW64/x86_64-8.1.0-win32-seh-rt_v6-rev0/mingw64/bin/../lib/gcc/x86_64-w64-mingw32/8.1.0/../../../../x86_64-w64-mingw32/lib/../lib\libmingwex.a(lib64_libmingwex_a-dllentry.o)
 .bss           0x000000006613b130        0x0 C:/GNU/MINGW64/x86_64-8.1.0-win32-seh-rt_v6-rev0/mingw64/bin/../lib/gcc/x86_64-w64-mingw32/8.1.0/../../../../x86_64-w64-mingw32/lib/../lib\libmsvcrt.a(duags01243.o)
 .bss           0x000000006613b130        0x0 C:/GNU/MINGW64/x86_64-8.1.0-win32-seh-rt_v6-rev0/mingw64/bin/../lib/gcc/x86_64-w64-mingw32/8.1.0/../../../../x86_64-w64-mingw32/lib/../lib\libmsvcrt.a(duags01211.o)
 .bss           0x000000006613b130        0x0 C:/GNU/MINGW64/x86_64-8.1.0-win32-seh-rt_v6-rev0/mingw64/bin/../lib/gcc/x86_64-w64-mingw32/8.1.0/../../../../x86_64-w64-mingw32/lib/../lib\libmsvcrt.a(duags01208.o)
 .bss           0x000000006613b130        0x0 C:/GNU/MINGW64/x86_64-8.1.0-win32-seh-rt_v6-rev0/mingw64/bin/../lib/gcc/x86_64-w64-mingw32/8.1.0/../../../../x86_64-w64-mingw32/lib/../lib\libmsvcrt.a(duags01201.o)
 .bss           0x000000006613b130        0x0 C:/GNU/MINGW64/x86_64-8.1.0-win32-seh-rt_v6-rev0/mingw64/bin/../lib/gcc/x86_64-w64-mingw32/8.1.0/../../../../x86_64-w64-mingw32/lib/../lib\libmsvcrt.a(duags01192.o)
 .bss           0x000000006613b130        0x0 C:/GNU/MINGW64/x86_64-8.1.0-win32-seh-rt_v6-rev0/mingw64/bin/../lib/gcc/x86_64-w64-mingw32/8.1.0/../../../../x86_64-w64-mingw32/lib/../lib\libmsvcrt.a(duags01187.o)
 .bss           0x000000006613b130        0x0 C:/GNU/MINGW64/x86_64-8.1.0-win32-seh-rt_v6-rev0/mingw64/bin/../lib/gcc/x86_64-w64-mingw32/8.1.0/../../../../x86_64-w64-mingw32/lib/../lib\libmsvcrt.a(duags01177.o)
 .bss           0x000000006613b130        0x0 C:/GNU/MINGW64/x86_64-8.1.0-win32-seh-rt_v6-rev0/mingw64/bin/../lib/gcc/x86_64-w64-mingw32/8.1.0/../../../../x86_64-w64-mingw32/lib/../lib\libmsvcrt.a(duags01159.o)
 .bss           0x000000006613b130        0x0 C:/GNU/MINGW64/x86_64-8.1.0-win32-seh-rt_v6-rev0/mingw64/bin/../lib/gcc/x86_64-w64-mingw32/8.1.0/../../../../x86_64-w64-mingw32/lib/../lib\libmsvcrt.a(duags01157.o)
 .bss           0x000000006613b130        0x0 C:/GNU/MINGW64/x86_64-8.1.0-win32-seh-rt_v6-rev0/mingw64/bin/../lib/gcc/x86_64-w64-mingw32/8.1.0/../../../../x86_64-w64-mingw32/lib/../lib\libmsvcrt.a(duags01149.o)
 .bss           0x000000006613b130        0x0 C:/GNU/MINGW64/x86_64-8.1.0-win32-seh-rt_v6-rev0/mingw64/bin/../lib/gcc/x86_64-w64-mingw32/8.1.0/../../../../x86_64-w64-mingw32/lib/../lib\libmsvcrt.a(duags01101.o)
 .bss           0x000000006613b130        0x0 C:/GNU/MINGW64/x86_64-8.1.0-win32-seh-rt_v6-rev0/mingw64/bin/../lib/gcc/x86_64-w64-mingw32/8.1.0/../../../../x86_64-w64-mingw32/lib/../lib\libmsvcrt.a(duags01089.o)
 .bss           0x000000006613b130        0x0 C:/GNU/MINGW64/x86_64-8.1.0-win32-seh-rt_v6-rev0/mingw64/bin/../lib/gcc/x86_64-w64-mingw32/8.1.0/../../../../x86_64-w64-mingw32/lib/../lib\libmsvcrt.a(duags01085.o)
 .bss           0x000000006613b130        0x0 C:/GNU/MINGW64/x86_64-8.1.0-win32-seh-rt_v6-rev0/mingw64/bin/../lib/gcc/x86_64-w64-mingw32/8.1.0/../../../../x86_64-w64-mingw32/lib/../lib\libmsvcrt.a(duags01084.o)
 .bss           0x000000006613b130        0x0 C:/GNU/MINGW64/x86_64-8.1.0-win32-seh-rt_v6-rev0/mingw64/bin/../lib/gcc/x86_64-w64-mingw32/8.1.0/../../../../x86_64-w64-mingw32/lib/../lib\libmsvcrt.a(duags01050.o)
 .bss           0x000000006613b130        0x0 C:/GNU/MINGW64/x86_64-8.1.0-win32-seh-rt_v6-rev0/mingw64/bin/../lib/gcc/x86_64-w64-mingw32/8.1.0/../../../../x86_64-w64-mingw32/lib/../lib\libmsvcrt.a(duags01032.o)
 .bss           0x000000006613b130        0x0 C:/GNU/MINGW64/x86_64-8.1.0-win32-seh-rt_v6-rev0/mingw64/bin/../lib/gcc/x86_64-w64-mingw32/8.1.0/../../../../x86_64-w64-mingw32/lib/../lib\libmsvcrt.a(duags00986.o)
 .bss           0x000000006613b130        0x0 C:/GNU/MINGW64/x86_64-8.1.0-win32-seh-rt_v6-rev0/mingw64/bin/../lib/gcc/x86_64-w64-mingw32/8.1.0/../../../../x86_64-w64-mingw32/lib/../lib\libmsvcrt.a(duags00332.o)
 .bss           0x000000006613b130        0x0 C:/GNU/MINGW64/x86_64-8.1.0-win32-seh-rt_v6-rev0/mingw64/bin/../lib/gcc/x86_64-w64-mingw32/8.1.0/../../../../x86_64-w64-mingw32/lib/../lib\libmsvcrt.a(duags00122.o)
 .bss           0x000000006613b130        0x0 C:/GNU/MINGW64/x86_64-8.1.0-win32-seh-rt_v6-rev0/mingw64/bin/../lib/gcc/x86_64-w64-mingw32/8.1.0/../../../../x86_64-w64-mingw32/lib/../lib\libmsvcrt.a(lib64_libmsvcrt_os_a-onexit_table.o)
 .bss           0x000000006613b130        0x0 C:/GNU/MINGW64/x86_64-8.1.0-win32-seh-rt_v6-rev0/mingw64/bin/../lib/gcc/x86_64-w64-mingw32/8.1.0/../../../../x86_64-w64-mingw32/lib/../lib\libmsvcrt.a(lib64_libmsvcrt_os_a-acrt_iob_func.o)
 .bss           0x000000006613b130        0x0 C:/GNU/MINGW64/x86_64-8.1.0-win32-seh-rt_v6-rev0/mingw64/bin/../lib/gcc/x86_64-w64-mingw32/8.1.0/../../../../x86_64-w64-mingw32/lib/../lib\libmsvcrt.a(duagh.o)
 .bss           0x000000006613b130        0x0 C:/GNU/MINGW64/x86_64-8.1.0-win32-seh-rt_v6-rev0/mingw64/bin/../lib/gcc/x86_64-w64-mingw32/8.1.0/../../../../x86_64-w64-mingw32/lib/../lib\libmsvcrt.a(duags00821.o)
 .bss           0x000000006613b130        0x0 C:/GNU/MINGW64/x86_64-8.1.0-win32-seh-rt_v6-rev0/mingw64/bin/../lib/gcc/x86_64-w64-mingw32/8.1.0/../../../../x86_64-w64-mingw32/lib/../lib\libmsvcrt.a(duags00441.o)
 .bss           0x000000006613b130        0x0 C:/GNU/MINGW64/x86_64-8.1.0-win32-seh-rt_v6-rev0/mingw64/bin/../lib/gcc/x86_64-w64-mingw32/8.1.0/../../../../x86_64-w64-mingw32/lib/../lib\libmsvcrt.a(duags00083.o)
 .bss           0x000000006613b130        0x0 C:/GNU/MINGW64/x86_64-8.1.0-win32-seh-rt_v6-rev0/mingw64/bin/../lib/gcc/x86_64-w64-mingw32/8.1.0/../../../../x86_64-w64-mingw32/lib/../lib\libmsvcrt.a(duagt.o)
 .bss           0x000000006613b130        0x0 C:/GNU/MINGW64/x86_64-8.1.0-win32-seh-rt_v6-rev0/mingw64/bin/../lib/gcc/x86_64-w64-mingw32/8.1.0/../../../../x86_64-w64-mingw32/lib/../lib\libkernel32.a(dqifs01453.o)
 .bss           0x000000006613b130        0x0 C:/GNU/MINGW64/x86_64-8.1.0-win32-seh-rt_v6-rev0/mingw64/bin/../lib/gcc/x86_64-w64-mingw32/8.1.0/../../../../x86_64-w64-mingw32/lib/../lib\libkernel32.a(dqifs01445.o)
 .bss           0x000000006613b130        0x0 C:/GNU/MINGW64/x86_64-8.1.0-win32-seh-rt_v6-rev0/mingw64/bin/../lib/gcc/x86_64-w64-mingw32/8.1.0/../../../../x86_64-w64-mingw32/lib/../lib\libkernel32.a(dqifs01443.o)
 .bss           0x000000006613b130        0x0 C:/GNU/MINGW64/x86_64-8.1.0-win32-seh-rt_v6-rev0/mingw64/bin/../lib/gcc/x86_64-w64-mingw32/8.1.0/../../../../x86_64-w64-mingw32/lib/../lib\libkernel32.a(dqifs01409.o)
 .bss           0x000000006613b130        0x0 C:/GNU/MINGW64/x86_64-8.1.0-win32-seh-rt_v6-rev0/mingw64/bin/../lib/gcc/x86_64-w64-mingw32/8.1.0/../../../../x86_64-w64-mingw32/lib/../lib\libkernel32.a(dqifs01396.o)
 .bss           0x000000006613b130        0x0 C:/GNU/MINGW64/x86_64-8.1.0-win32-seh-rt_v6-rev0/mingw64/bin/../lib/gcc/x86_64-w64-mingw32/8.1.0/../../../../x86_64-w64-mingw32/lib/../lib\libkernel32.a(dqifs01395.o)
 .bss           0x000000006613b130        0x0 C:/GNU/MINGW64/x86_64-8.1.0-win32-seh-rt_v6-rev0/mingw64/bin/../lib/gcc/x86_64-w64-mingw32/8.1.0/../../../../x86_64-w64-mingw32/lib/../lib\libkernel32.a(dqifs01394.o)
 .bss           0x000000006613b130        0x0 C:/GNU/MINGW64/x86_64-8.1.0-win32-seh-rt_v6-rev0/mingw64/bin/../lib/gcc/x86_64-w64-mingw32/8.1.0/../../../../x86_64-w64-mingw32/lib/../lib\libkernel32.a(dqifs01393.o)
 .bss           0x000000006613b130        0x0 C:/GNU/MINGW64/x86_64-8.1.0-win32-seh-rt_v6-rev0/mingw64/bin/../lib/gcc/x86_64-w64-mingw32/8.1.0/../../../../x86_64-w64-mingw32/lib/../lib\libkernel32.a(dqifs01375.o)
 .bss           0x000000006613b130        0x0 C:/GNU/MINGW64/x86_64-8.1.0-win32-seh-rt_v6-rev0/mingw64/bin/../lib/gcc/x86_64-w64-mingw32/8.1.0/../../../../x86_64-w64-mingw32/lib/../lib\libkernel32.a(dqifs01346.o)
 .bss           0x000000006613b130        0x0 C:/GNU/MINGW64/x86_64-8.1.0-win32-seh-rt_v6-rev0/mingw64/bin/../lib/gcc/x86_64-w64-mingw32/8.1.0/../../../../x86_64-w64-mingw32/lib/../lib\libkernel32.a(dqifs01290.o)
 .bss           0x000000006613b130        0x0 C:/GNU/MINGW64/x86_64-8.1.0-win32-seh-rt_v6-rev0/mingw64/bin/../lib/gcc/x86_64-w64-mingw32/8.1.0/../../../../x86_64-w64-mingw32/lib/../lib\libkernel32.a(dqifs01194.o)
 .bss           0x000000006613b130        0x0 C:/GNU/MINGW64/x86_64-8.1.0-win32-seh-rt_v6-rev0/mingw64/bin/../lib/gcc/x86_64-w64-mingw32/8.1.0/../../../../x86_64-w64-mingw32/lib/../lib\libkernel32.a(dqifs01193.o)
 .bss           0x000000006613b130        0x0 C:/GNU/MINGW64/x86_64-8.1.0-win32-seh-rt_v6-rev0/mingw64/bin/../lib/gcc/x86_64-w64-mingw32/8.1.0/../../../../x86_64-w64-mingw32/lib/../lib\libkernel32.a(dqifs01187.o)
 .bss           0x000000006613b130        0x0 C:/GNU/MINGW64/x86_64-8.1.0-win32-seh-rt_v6-rev0/mingw64/bin/../lib/gcc/x86_64-w64-mingw32/8.1.0/../../../../x86_64-w64-mingw32/lib/../lib\libkernel32.a(dqifs01180.o)
 .bss           0x000000006613b130        0x0 C:/GNU/MINGW64/x86_64-8.1.0-win32-seh-rt_v6-rev0/mingw64/bin/../lib/gcc/x86_64-w64-mingw32/8.1.0/../../../../x86_64-w64-mingw32/lib/../lib\libkernel32.a(dqifs01179.o)
 .bss           0x000000006613b130        0x0 C:/GNU/MINGW64/x86_64-8.1.0-win32-seh-rt_v6-rev0/mingw64/bin/../lib/gcc/x86_64-w64-mingw32/8.1.0/../../../../x86_64-w64-mingw32/lib/../lib\libkernel32.a(dqifs01154.o)
 .bss           0x000000006613b130        0x0 C:/GNU/MINGW64/x86_64-8.1.0-win32-seh-rt_v6-rev0/mingw64/bin/../lib/gcc/x86_64-w64-mingw32/8.1.0/../../../../x86_64-w64-mingw32/lib/../lib\libkernel32.a(dqifs01112.o)
 .bss           0x000000006613b130        0x0 C:/GNU/MINGW64/x86_64-8.1.0-win32-seh-rt_v6-rev0/mingw64/bin/../lib/gcc/x86_64-w64-mingw32/8.1.0/../../../../x86_64-w64-mingw32/lib/../lib\libkernel32.a(dqifs01093.o)
 .bss           0x000000006613b130        0x0 C:/GNU/MINGW64/x86_64-8.1.0-win32-seh-rt_v6-rev0/mingw64/bin/../lib/gcc/x86_64-w64-mingw32/8.1.0/../../../../x86_64-w64-mingw32/lib/../lib\libkernel32.a(dqifs00774.o)
 .bss           0x000000006613b130        0x0 C:/GNU/MINGW64/x86_64-8.1.0-win32-seh-rt_v6-rev0/mingw64/bin/../lib/gcc/x86_64-w64-mingw32/8.1.0/../../../../x86_64-w64-mingw32/lib/../lib\libkernel32.a(dqifs00746.o)
 .bss           0x000000006613b130        0x0 C:/GNU/MINGW64/x86_64-8.1.0-win32-seh-rt_v6-rev0/mingw64/bin/../lib/gcc/x86_64-w64-mingw32/8.1.0/../../../../x86_64-w64-mingw32/lib/../lib\libkernel32.a(dqifs00540.o)
 .bss           0x000000006613b130        0x0 C:/GNU/MINGW64/x86_64-8.1.0-win32-seh-rt_v6-rev0/mingw64/bin/../lib/gcc/x86_64-w64-mingw32/8.1.0/../../../../x86_64-w64-mingw32/lib/../lib\libkernel32.a(dqifs00536.o)
 .bss           0x000000006613b130        0x0 C:/GNU/MINGW64/x86_64-8.1.0-win32-seh-rt_v6-rev0/mingw64/bin/../lib/gcc/x86_64-w64-mingw32/8.1.0/../../../../x86_64-w64-mingw32/lib/../lib\libkernel32.a(dqifs00535.o)
 .bss           0x000000006613b130        0x0 C:/GNU/MINGW64/x86_64-8.1.0-win32-seh-rt_v6-rev0/mingw64/bin/../lib/gcc/x86_64-w64-mingw32/8.1.0/../../../../x86_64-w64-mingw32/lib/../lib\libkernel32.a(dqifs00268.o)
 .bss           0x000000006613b130        0x0 C:/GNU/MINGW64/x86_64-8.1.0-win32-seh-rt_v6-rev0/mingw64/bin/../lib/gcc/x86_64-w64-mingw32/8.1.0/../../../../x86_64-w64-mingw32/lib/../lib\libkernel32.a(dqifs00231.o)
 .bss           0x000000006613b130        0x0 C:/GNU/MINGW64/x86_64-8.1.0-win32-seh-rt_v6-rev0/mingw64/bin/../lib/gcc/x86_64-w64-mingw32/8.1.0/../../../../x86_64-w64-mingw32/lib/../lib\libkernel32.a(dqifs00130.o)
 .bss           0x000000006613b130        0x0 C:/GNU/MINGW64/x86_64-8.1.0-win32-seh-rt_v6-rev0/mingw64/bin/../lib/gcc/x86_64-w64-mingw32/8.1.0/../../../../x86_64-w64-mingw32/lib/../lib\libmingw32.a(lib64_libmingw32_a-tlsmthread.o)
 .bss           0x000000006613b130        0x0 C:/GNU/MINGW64/x86_64-8.1.0-win32-seh-rt_v6-rev0/mingw64/bin/../lib/gcc/x86_64-w64-mingw32/8.1.0/crtend.o
 *(COMMON)
 COMMON         0x000000006613b130       0x10 C:/GNU/MINGW64/x86_64-8.1.0-win32-seh-rt_v6-rev0/mingw64/bin/../lib/gcc/x86_64-w64-mingw32/8.1.0/../../../../x86_64-w64-mingw32/lib/../lib\libmingw32.a(lib64_libmingw32_a-natstart.o)
                0x000000006613b130                __native_startup_state
                0x000000006613b138                __native_startup_lock
 COMMON         0x000000006613b140        0x0 C:/GNU/MINGW64/x86_64-8.1.0-win32-seh-rt_v6-rev0/mingw64/bin/../lib/gcc/x86_64-w64-mingw32/8.1.0\libgcc.a(_ctors.o)
                0x000000006613b140                __bss_end__ = .

.edata          0x000000006613c000      0xa00
 *(.edata)
 .edata         0x000000006613c000      0x9a1 dll stuff

/DISCARD/
 *(.debug$S)
 *(.debug$T)
 *(.debug$F)
 *(.drectve)
 *(.note.GNU-stack)
 *(.gnu.lto_*)

.idata          0x000000006613d000      0xa00
 SORT_BY_NAME(*)(.idata$2)
 .idata$2       0x000000006613d000       0x14 C:/GNU/MINGW64/x86_64-8.1.0-win32-seh-rt_v6-rev0/mingw64/bin/../lib/gcc/x86_64-w64-mingw32/8.1.0/../../../../x86_64-w64-mingw32/lib/../lib\libkernel32.a(dqifh.o)
                0x000000006613d000                _head_lib64_libkernel32_a
 .idata$2       0x000000006613d014       0x14 C:/GNU/MINGW64/x86_64-8.1.0-win32-seh-rt_v6-rev0/mingw64/bin/../lib/gcc/x86_64-w64-mingw32/8.1.0/../../../../x86_64-w64-mingw32/lib/../lib\libmsvcrt.a(duagh.o)
                0x000000006613d014                _head_lib64_libmsvcrt_os_a
 .idata$2       0x000000006613d028       0x14 C:/GNU/MINGW64/x86_64-8.1.0-win32-seh-rt_v6-rev0/mingw64/bin/../lib/gcc/x86_64-w64-mingw32/8.1.0/../../../../x86_64-w64-mingw32/lib/../lib\libuser32.a(dyqeh.o)
                0x000000006613d028                _head_lib64_libuser32_a
 SORT_BY_NAME(*)(.idata$3)
                0x000000006613d03c        0x4 LONG 0x0
                0x000000006613d040        0x4 LONG 0x0
                0x000000006613d044        0x4 LONG 0x0
                0x000000006613d048        0x4 LONG 0x0
                0x000000006613d04c        0x4 LONG 0x0
 SORT_BY_NAME(*)(.idata$4)
 .idata$4       0x000000006613d050        0x0 C:/GNU/MINGW64/x86_64-8.1.0-win32-seh-rt_v6-rev0/mingw64/bin/../lib/gcc/x86_64-w64-mingw32/8.1.0/../../../../x86_64-w64-mingw32/lib/../lib\libkernel32.a(dqifh.o)
 .idata$4       0x000000006613d050        0x8 C:/GNU/MINGW64/x86_64-8.1.0-win32-seh-rt_v6-rev0/mingw64/bin/../lib/gcc/x86_64-w64-mingw32/8.1.0/../../../../x86_64-w64-mingw32/lib/../lib\libkernel32.a(dqifs00130.o)
 .idata$4       0x000000006613d058        0x8 C:/GNU/MINGW64/x86_64-8.1.0-win32-seh-rt_v6-rev0/mingw64/bin/../lib/gcc/x86_64-w64-mingw32/8.1.0/../../../../x86_64-w64-mingw32/lib/../lib\libkernel32.a(dqifs00231.o)
 .idata$4       0x000000006613d060        0x8 C:/GNU/MINGW64/x86_64-8.1.0-win32-seh-rt_v6-rev0/mingw64/bin/../lib/gcc/x86_64-w64-mingw32/8.1.0/../../../../x86_64-w64-mingw32/lib/../lib\libkernel32.a(dqifs00268.o)
 .idata$4       0x000000006613d068        0x8 C:/GNU/MINGW64/x86_64-8.1.0-win32-seh-rt_v6-rev0/mingw64/bin/../lib/gcc/x86_64-w64-mingw32/8.1.0/../../../../x86_64-w64-mingw32/lib/../lib\libkernel32.a(dqifs00304.o)
 .idata$4       0x000000006613d070        0x8 C:/GNU/MINGW64/x86_64-8.1.0-win32-seh-rt_v6-rev0/mingw64/bin/../lib/gcc/x86_64-w64-mingw32/8.1.0/../../../../x86_64-w64-mingw32/lib/../lib\libkernel32.a(dqifs00535.o)
 .idata$4       0x000000006613d078        0x8 C:/GNU/MINGW64/x86_64-8.1.0-win32-seh-rt_v6-rev0/mingw64/bin/../lib/gcc/x86_64-w64-mingw32/8.1.0/../../../../x86_64-w64-mingw32/lib/../lib\libkernel32.a(dqifs00536.o)
 .idata$4       0x000000006613d080        0x8 C:/GNU/MINGW64/x86_64-8.1.0-win32-seh-rt_v6-rev0/mingw64/bin/../lib/gcc/x86_64-w64-mingw32/8.1.0/../../../../x86_64-w64-mingw32/lib/../lib\libkernel32.a(dqifs00540.o)
 .idata$4       0x000000006613d088        0x8 C:/GNU/MINGW64/x86_64-8.1.0-win32-seh-rt_v6-rev0/mingw64/bin/../lib/gcc/x86_64-w64-mingw32/8.1.0/../../../../x86_64-w64-mingw32/lib/../lib\libkernel32.a(dqifs00609.o)
 .idata$4       0x000000006613d090        0x8 C:/GNU/MINGW64/x86_64-8.1.0-win32-seh-rt_v6-rev0/mingw64/bin/../lib/gcc/x86_64-w64-mingw32/8.1.0/../../../../x86_64-w64-mingw32/lib/../lib\libkernel32.a(dqifs00746.o)
 .idata$4       0x000000006613d098        0x8 C:/GNU/MINGW64/x86_64-8.1.0-win32-seh-rt_v6-rev0/mingw64/bin/../lib/gcc/x86_64-w64-mingw32/8.1.0/../../../../x86_64-w64-mingw32/lib/../lib\libkernel32.a(dqifs00774.o)
 .idata$4       0x000000006613d0a0        0x8 C:/GNU/MINGW64/x86_64-8.1.0-win32-seh-rt_v6-rev0/mingw64/bin/../lib/gcc/x86_64-w64-mingw32/8.1.0/../../../../x86_64-w64-mingw32/lib/../lib\libkernel32.a(dqifs00835.o)
 .idata$4       0x000000006613d0a8        0x8 C:/GNU/MINGW64/x86_64-8.1.0-win32-seh-rt_v6-rev0/mingw64/bin/../lib/gcc/x86_64-w64-mingw32/8.1.0/../../../../x86_64-w64-mingw32/lib/../lib\libkernel32.a(dqifs00837.o)
 .idata$4       0x000000006613d0b0        0x8 C:/GNU/MINGW64/x86_64-8.1.0-win32-seh-rt_v6-rev0/mingw64/bin/../lib/gcc/x86_64-w64-mingw32/8.1.0/../../../../x86_64-w64-mingw32/lib/../lib\libkernel32.a(dqifs00839.o)
 .idata$4       0x000000006613d0b8        0x8 C:/GNU/MINGW64/x86_64-8.1.0-win32-seh-rt_v6-rev0/mingw64/bin/../lib/gcc/x86_64-w64-mingw32/8.1.0/../../../../x86_64-w64-mingw32/lib/../lib\libkernel32.a(dqifs00841.o)
 .idata$4       0x000000006613d0c0        0x8 C:/GNU/MINGW64/x86_64-8.1.0-win32-seh-rt_v6-rev0/mingw64/bin/../lib/gcc/x86_64-w64-mingw32/8.1.0/../../../../x86_64-w64-mingw32/lib/../lib\libkernel32.a(dqifs00842.o)
 .idata$4       0x000000006613d0c8        0x8 C:/GNU/MINGW64/x86_64-8.1.0-win32-seh-rt_v6-rev0/mingw64/bin/../lib/gcc/x86_64-w64-mingw32/8.1.0/../../../../x86_64-w64-mingw32/lib/../lib\libkernel32.a(dqifs00849.o)
 .idata$4       0x000000006613d0d0        0x8 C:/GNU/MINGW64/x86_64-8.1.0-win32-seh-rt_v6-rev0/mingw64/bin/../lib/gcc/x86_64-w64-mingw32/8.1.0/../../../../x86_64-w64-mingw32/lib/../lib\libkernel32.a(dqifs00852.o)
 .idata$4       0x000000006613d0d8        0x8 C:/GNU/MINGW64/x86_64-8.1.0-win32-seh-rt_v6-rev0/mingw64/bin/../lib/gcc/x86_64-w64-mingw32/8.1.0/../../../../x86_64-w64-mingw32/lib/../lib\libkernel32.a(dqifs00863.o)
 .idata$4       0x000000006613d0e0        0x8 C:/GNU/MINGW64/x86_64-8.1.0-win32-seh-rt_v6-rev0/mingw64/bin/../lib/gcc/x86_64-w64-mingw32/8.1.0/../../../../x86_64-w64-mingw32/lib/../lib\libkernel32.a(dqifs00951.o)
 .idata$4       0x000000006613d0e8        0x8 C:/GNU/MINGW64/x86_64-8.1.0-win32-seh-rt_v6-rev0/mingw64/bin/../lib/gcc/x86_64-w64-mingw32/8.1.0/../../../../x86_64-w64-mingw32/lib/../lib\libkernel32.a(dqifs01093.o)
 .idata$4       0x000000006613d0f0        0x8 C:/GNU/MINGW64/x86_64-8.1.0-win32-seh-rt_v6-rev0/mingw64/bin/../lib/gcc/x86_64-w64-mingw32/8.1.0/../../../../x86_64-w64-mingw32/lib/../lib\libkernel32.a(dqifs01112.o)
 .idata$4       0x000000006613d0f8        0x8 C:/GNU/MINGW64/x86_64-8.1.0-win32-seh-rt_v6-rev0/mingw64/bin/../lib/gcc/x86_64-w64-mingw32/8.1.0/../../../../x86_64-w64-mingw32/lib/../lib\libkernel32.a(dqifs01154.o)
 .idata$4       0x000000006613d100        0x8 C:/GNU/MINGW64/x86_64-8.1.0-win32-seh-rt_v6-rev0/mingw64/bin/../lib/gcc/x86_64-w64-mingw32/8.1.0/../../../../x86_64-w64-mingw32/lib/../lib\libkernel32.a(dqifs01179.o)
 .idata$4       0x000000006613d108        0x8 C:/GNU/MINGW64/x86_64-8.1.0-win32-seh-rt_v6-rev0/mingw64/bin/../lib/gcc/x86_64-w64-mingw32/8.1.0/../../../../x86_64-w64-mingw32/lib/../lib\libkernel32.a(dqifs01180.o)
 .idata$4       0x000000006613d110        0x8 C:/GNU/MINGW64/x86_64-8.1.0-win32-seh-rt_v6-rev0/mingw64/bin/../lib/gcc/x86_64-w64-mingw32/8.1.0/../../../../x86_64-w64-mingw32/lib/../lib\libkernel32.a(dqifs01187.o)
 .idata$4       0x000000006613d118        0x8 C:/GNU/MINGW64/x86_64-8.1.0-win32-seh-rt_v6-rev0/mingw64/bin/../lib/gcc/x86_64-w64-mingw32/8.1.0/../../../../x86_64-w64-mingw32/lib/../lib\libkernel32.a(dqifs01193.o)
 .idata$4       0x000000006613d120        0x8 C:/GNU/MINGW64/x86_64-8.1.0-win32-seh-rt_v6-rev0/mingw64/bin/../lib/gcc/x86_64-w64-mingw32/8.1.0/../../../../x86_64-w64-mingw32/lib/../lib\libkernel32.a(dqifs01194.o)
 .idata$4       0x000000006613d128        0x8 C:/GNU/MINGW64/x86_64-8.1.0-win32-seh-rt_v6-rev0/mingw64/bin/../lib/gcc/x86_64-w64-mingw32/8.1.0/../../../../x86_64-w64-mingw32/lib/../lib\libkernel32.a(dqifs01290.o)
 .idata$4       0x000000006613d130        0x8 C:/GNU/MINGW64/x86_64-8.1.0-win32-seh-rt_v6-rev0/mingw64/bin/../lib/gcc/x86_64-w64-mingw32/8.1.0/../../../../x86_64-w64-mingw32/lib/../lib\libkernel32.a(dqifs01346.o)
 .idata$4       0x000000006613d138        0x8 C:/GNU/MINGW64/x86_64-8.1.0-win32-seh-rt_v6-rev0/mingw64/bin/../lib/gcc/x86_64-w64-mingw32/8.1.0/../../../../x86_64-w64-mingw32/lib/../lib\libkernel32.a(dqifs01360.o)
 .idata$4       0x000000006613d140        0x8 C:/GNU/MINGW64/x86_64-8.1.0-win32-seh-rt_v6-rev0/mingw64/bin/../lib/gcc/x86_64-w64-mingw32/8.1.0/../../../../x86_64-w64-mingw32/lib/../lib\libkernel32.a(dqifs01375.o)
 .idata$4       0x000000006613d148        0x8 C:/GNU/MINGW64/x86_64-8.1.0-win32-seh-rt_v6-rev0/mingw64/bin/../lib/gcc/x86_64-w64-mingw32/8.1.0/../../../../x86_64-w64-mingw32/lib/../lib\libkernel32.a(dqifs01393.o)
 .idata$4       0x000000006613d150        0x8 C:/GNU/MINGW64/x86_64-8.1.0-win32-seh-rt_v6-rev0/mingw64/bin/../lib/gcc/x86_64-w64-mingw32/8.1.0/../../../../x86_64-w64-mingw32/lib/../lib\libkernel32.a(dqifs01394.o)
 .idata$4       0x000000006613d158        0x8 C:/GNU/MINGW64/x86_64-8.1.0-win32-seh-rt_v6-rev0/mingw64/bin/../lib/gcc/x86_64-w64-mingw32/8.1.0/../../../../x86_64-w64-mingw32/lib/../lib\libkernel32.a(dqifs01395.o)
 .idata$4       0x000000006613d160        0x8 C:/GNU/MINGW64/x86_64-8.1.0-win32-seh-rt_v6-rev0/mingw64/bin/../lib/gcc/x86_64-w64-mingw32/8.1.0/../../../../x86_64-w64-mingw32/lib/../lib\libkernel32.a(dqifs01396.o)
 .idata$4       0x000000006613d168        0x8 C:/GNU/MINGW64/x86_64-8.1.0-win32-seh-rt_v6-rev0/mingw64/bin/../lib/gcc/x86_64-w64-mingw32/8.1.0/../../../../x86_64-w64-mingw32/lib/../lib\libkernel32.a(dqifs01409.o)
 .idata$4       0x000000006613d170        0x8 C:/GNU/MINGW64/x86_64-8.1.0-win32-seh-rt_v6-rev0/mingw64/bin/../lib/gcc/x86_64-w64-mingw32/8.1.0/../../../../x86_64-w64-mingw32/lib/../lib\libkernel32.a(dqifs01443.o)
 .idata$4       0x000000006613d178        0x8 C:/GNU/MINGW64/x86_64-8.1.0-win32-seh-rt_v6-rev0/mingw64/bin/../lib/gcc/x86_64-w64-mingw32/8.1.0/../../../../x86_64-w64-mingw32/lib/../lib\libkernel32.a(dqifs01445.o)
 .idata$4       0x000000006613d180        0x8 C:/GNU/MINGW64/x86_64-8.1.0-win32-seh-rt_v6-rev0/mingw64/bin/../lib/gcc/x86_64-w64-mingw32/8.1.0/../../../../x86_64-w64-mingw32/lib/../lib\libkernel32.a(dqifs01453.o)
 .idata$4       0x000000006613d188        0x8 C:/GNU/MINGW64/x86_64-8.1.0-win32-seh-rt_v6-rev0/mingw64/bin/../lib/gcc/x86_64-w64-mingw32/8.1.0/../../../../x86_64-w64-mingw32/lib/../lib\libkernel32.a(dqifs01543.o)
 .idata$4       0x000000006613d190        0x8 C:/GNU/MINGW64/x86_64-8.1.0-win32-seh-rt_v6-rev0/mingw64/bin/../lib/gcc/x86_64-w64-mingw32/8.1.0/../../../../x86_64-w64-mingw32/lib/../lib\libkernel32.a(dqifs01549.o)
 .idata$4       0x000000006613d198        0x8 C:/GNU/MINGW64/x86_64-8.1.0-win32-seh-rt_v6-rev0/mingw64/bin/../lib/gcc/x86_64-w64-mingw32/8.1.0/../../../../x86_64-w64-mingw32/lib/../lib\libkernel32.a(dqifs01555.o)
 .idata$4       0x000000006613d1a0        0x8 C:/GNU/MINGW64/x86_64-8.1.0-win32-seh-rt_v6-rev0/mingw64/bin/../lib/gcc/x86_64-w64-mingw32/8.1.0/../../../../x86_64-w64-mingw32/lib/../lib\libkernel32.a(dqift.o)
 .idata$4       0x000000006613d1a8        0x0 C:/GNU/MINGW64/x86_64-8.1.0-win32-seh-rt_v6-rev0/mingw64/bin/../lib/gcc/x86_64-w64-mingw32/8.1.0/../../../../x86_64-w64-mingw32/lib/../lib\libmsvcrt.a(duagh.o)
 .idata$4       0x000000006613d1a8        0x8 C:/GNU/MINGW64/x86_64-8.1.0-win32-seh-rt_v6-rev0/mingw64/bin/../lib/gcc/x86_64-w64-mingw32/8.1.0/../../../../x86_64-w64-mingw32/lib/../lib\libmsvcrt.a(duags00083.o)
 .idata$4       0x000000006613d1b0        0x8 C:/GNU/MINGW64/x86_64-8.1.0-win32-seh-rt_v6-rev0/mingw64/bin/../lib/gcc/x86_64-w64-mingw32/8.1.0/../../../../x86_64-w64-mingw32/lib/../lib\libmsvcrt.a(duags00122.o)
 .idata$4       0x000000006613d1b8        0x8 C:/GNU/MINGW64/x86_64-8.1.0-win32-seh-rt_v6-rev0/mingw64/bin/../lib/gcc/x86_64-w64-mingw32/8.1.0/../../../../x86_64-w64-mingw32/lib/../lib\libmsvcrt.a(duags00332.o)
 .idata$4       0x000000006613d1c0        0x8 C:/GNU/MINGW64/x86_64-8.1.0-win32-seh-rt_v6-rev0/mingw64/bin/../lib/gcc/x86_64-w64-mingw32/8.1.0/../../../../x86_64-w64-mingw32/lib/../lib\libmsvcrt.a(duags00441.o)
 .idata$4       0x000000006613d1c8        0x8 C:/GNU/MINGW64/x86_64-8.1.0-win32-seh-rt_v6-rev0/mingw64/bin/../lib/gcc/x86_64-w64-mingw32/8.1.0/../../../../x86_64-w64-mingw32/lib/../lib\libmsvcrt.a(duags00821.o)
 .idata$4       0x000000006613d1d0        0x8 C:/GNU/MINGW64/x86_64-8.1.0-win32-seh-rt_v6-rev0/mingw64/bin/../lib/gcc/x86_64-w64-mingw32/8.1.0/../../../../x86_64-w64-mingw32/lib/../lib\libmsvcrt.a(duags00986.o)
 .idata$4       0x000000006613d1d8        0x8 C:/GNU/MINGW64/x86_64-8.1.0-win32-seh-rt_v6-rev0/mingw64/bin/../lib/gcc/x86_64-w64-mingw32/8.1.0/../../../../x86_64-w64-mingw32/lib/../lib\libmsvcrt.a(duags01032.o)
 .idata$4       0x000000006613d1e0        0x8 C:/GNU/MINGW64/x86_64-8.1.0-win32-seh-rt_v6-rev0/mingw64/bin/../lib/gcc/x86_64-w64-mingw32/8.1.0/../../../../x86_64-w64-mingw32/lib/../lib\libmsvcrt.a(duags01050.o)
 .idata$4       0x000000006613d1e8        0x8 C:/GNU/MINGW64/x86_64-8.1.0-win32-seh-rt_v6-rev0/mingw64/bin/../lib/gcc/x86_64-w64-mingw32/8.1.0/../../../../x86_64-w64-mingw32/lib/../lib\libmsvcrt.a(duags01084.o)
 .idata$4       0x000000006613d1f0        0x8 C:/GNU/MINGW64/x86_64-8.1.0-win32-seh-rt_v6-rev0/mingw64/bin/../lib/gcc/x86_64-w64-mingw32/8.1.0/../../../../x86_64-w64-mingw32/lib/../lib\libmsvcrt.a(duags01085.o)
 .idata$4       0x000000006613d1f8        0x8 C:/GNU/MINGW64/x86_64-8.1.0-win32-seh-rt_v6-rev0/mingw64/bin/../lib/gcc/x86_64-w64-mingw32/8.1.0/../../../../x86_64-w64-mingw32/lib/../lib\libmsvcrt.a(duags01089.o)
 .idata$4       0x000000006613d200        0x8 C:/GNU/MINGW64/x86_64-8.1.0-win32-seh-rt_v6-rev0/mingw64/bin/../lib/gcc/x86_64-w64-mingw32/8.1.0/../../../../x86_64-w64-mingw32/lib/../lib\libmsvcrt.a(duags01101.o)
 .idata$4       0x000000006613d208        0x8 C:/GNU/MINGW64/x86_64-8.1.0-win32-seh-rt_v6-rev0/mingw64/bin/../lib/gcc/x86_64-w64-mingw32/8.1.0/../../../../x86_64-w64-mingw32/lib/../lib\libmsvcrt.a(duags01149.o)
 .idata$4       0x000000006613d210        0x8 C:/GNU/MINGW64/x86_64-8.1.0-win32-seh-rt_v6-rev0/mingw64/bin/../lib/gcc/x86_64-w64-mingw32/8.1.0/../../../../x86_64-w64-mingw32/lib/../lib\libmsvcrt.a(duags01157.o)
 .idata$4       0x000000006613d218        0x8 C:/GNU/MINGW64/x86_64-8.1.0-win32-seh-rt_v6-rev0/mingw64/bin/../lib/gcc/x86_64-w64-mingw32/8.1.0/../../../../x86_64-w64-mingw32/lib/../lib\libmsvcrt.a(duags01159.o)
 .idata$4       0x000000006613d220        0x8 C:/GNU/MINGW64/x86_64-8.1.0-win32-seh-rt_v6-rev0/mingw64/bin/../lib/gcc/x86_64-w64-mingw32/8.1.0/../../../../x86_64-w64-mingw32/lib/../lib\libmsvcrt.a(duags01177.o)
 .idata$4       0x000000006613d228        0x8 C:/GNU/MINGW64/x86_64-8.1.0-win32-seh-rt_v6-rev0/mingw64/bin/../lib/gcc/x86_64-w64-mingw32/8.1.0/../../../../x86_64-w64-mingw32/lib/../lib\libmsvcrt.a(duags01187.o)
 .idata$4       0x000000006613d230        0x8 C:/GNU/MINGW64/x86_64-8.1.0-win32-seh-rt_v6-rev0/mingw64/bin/../lib/gcc/x86_64-w64-mingw32/8.1.0/../../../../x86_64-w64-mingw32/lib/../lib\libmsvcrt.a(duags01192.o)
 .idata$4       0x000000006613d238        0x8 C:/GNU/MINGW64/x86_64-8.1.0-win32-seh-rt_v6-rev0/mingw64/bin/../lib/gcc/x86_64-w64-mingw32/8.1.0/../../../../x86_64-w64-mingw32/lib/../lib\libmsvcrt.a(duags01201.o)
 .idata$4       0x000000006613d240        0x8 C:/GNU/MINGW64/x86_64-8.1.0-win32-seh-rt_v6-rev0/mingw64/bin/../lib/gcc/x86_64-w64-mingw32/8.1.0/../../../../x86_64-w64-mingw32/lib/../lib\libmsvcrt.a(duags01208.o)
 .idata$4       0x000000006613d248        0x8 C:/GNU/MINGW64/x86_64-8.1.0-win32-seh-rt_v6-rev0/mingw64/bin/../lib/gcc/x86_64-w64-mingw32/8.1.0/../../../../x86_64-w64-mingw32/lib/../lib\libmsvcrt.a(duags01211.o)
 .idata$4       0x000000006613d250        0x8 C:/GNU/MINGW64/x86_64-8.1.0-win32-seh-rt_v6-rev0/mingw64/bin/../lib/gcc/x86_64-w64-mingw32/8.1.0/../../../../x86_64-w64-mingw32/lib/../lib\libmsvcrt.a(duags01243.o)
 .idata$4       0x000000006613d258        0x8 C:/GNU/MINGW64/x86_64-8.1.0-win32-seh-rt_v6-rev0/mingw64/bin/../lib/gcc/x86_64-w64-mingw32/8.1.0/../../../../x86_64-w64-mingw32/lib/../lib\libmsvcrt.a(duagt.o)
 .idata$4       0x000000006613d260        0x0 C:/GNU/MINGW64/x86_64-8.1.0-win32-seh-rt_v6-rev0/mingw64/bin/../lib/gcc/x86_64-w64-mingw32/8.1.0/../../../../x86_64-w64-mingw32/lib/../lib\libuser32.a(dyqeh.o)
 .idata$4       0x000000006613d260        0x8 C:/GNU/MINGW64/x86_64-8.1.0-win32-seh-rt_v6-rev0/mingw64/bin/../lib/gcc/x86_64-w64-mingw32/8.1.0/../../../../x86_64-w64-mingw32/lib/../lib\libuser32.a(dyqes00958.o)
 .idata$4       0x000000006613d268        0x8 C:/GNU/MINGW64/x86_64-8.1.0-win32-seh-rt_v6-rev0/mingw64/bin/../lib/gcc/x86_64-w64-mingw32/8.1.0/../../../../x86_64-w64-mingw32/lib/../lib\libuser32.a(dyqet.o)
                0x000000006613d270                __IAT_start__ = .
 SORT_BY_NAME(*)(.idata$5)
 .idata$5       0x000000006613d270        0x0 C:/GNU/MINGW64/x86_64-8.1.0-win32-seh-rt_v6-rev0/mingw64/bin/../lib/gcc/x86_64-w64-mingw32/8.1.0/../../../../x86_64-w64-mingw32/lib/../lib\libkernel32.a(dqifh.o)
 .idata$5       0x000000006613d270        0x8 C:/GNU/MINGW64/x86_64-8.1.0-win32-seh-rt_v6-rev0/mingw64/bin/../lib/gcc/x86_64-w64-mingw32/8.1.0/../../../../x86_64-w64-mingw32/lib/../lib\libkernel32.a(dqifs00130.o)
                0x000000006613d270                __imp_CloseHandle
 .idata$5       0x000000006613d278        0x8 C:/GNU/MINGW64/x86_64-8.1.0-win32-seh-rt_v6-rev0/mingw64/bin/../lib/gcc/x86_64-w64-mingw32/8.1.0/../../../../x86_64-w64-mingw32/lib/../lib\libkernel32.a(dqifs00231.o)
                0x000000006613d278                __imp_CreateSemaphoreW
 .idata$5       0x000000006613d280        0x8 C:/GNU/MINGW64/x86_64-8.1.0-win32-seh-rt_v6-rev0/mingw64/bin/../lib/gcc/x86_64-w64-mingw32/8.1.0/../../../../x86_64-w64-mingw32/lib/../lib\libkernel32.a(dqifs00268.o)
                0x000000006613d280                __imp_DeleteCriticalSection
 .idata$5       0x000000006613d288        0x8 C:/GNU/MINGW64/x86_64-8.1.0-win32-seh-rt_v6-rev0/mingw64/bin/../lib/gcc/x86_64-w64-mingw32/8.1.0/../../../../x86_64-w64-mingw32/lib/../lib\libkernel32.a(dqifs00304.o)
                0x000000006613d288                __imp_EnterCriticalSection
 .idata$5       0x000000006613d290        0x8 C:/GNU/MINGW64/x86_64-8.1.0-win32-seh-rt_v6-rev0/mingw64/bin/../lib/gcc/x86_64-w64-mingw32/8.1.0/../../../../x86_64-w64-mingw32/lib/../lib\libkernel32.a(dqifs00535.o)
                0x000000006613d290                __imp_GetCurrentProcess
 .idata$5       0x000000006613d298        0x8 C:/GNU/MINGW64/x86_64-8.1.0-win32-seh-rt_v6-rev0/mingw64/bin/../lib/gcc/x86_64-w64-mingw32/8.1.0/../../../../x86_64-w64-mingw32/lib/../lib\libkernel32.a(dqifs00536.o)
                0x000000006613d298                __imp_GetCurrentProcessId
 .idata$5       0x000000006613d2a0        0x8 C:/GNU/MINGW64/x86_64-8.1.0-win32-seh-rt_v6-rev0/mingw64/bin/../lib/gcc/x86_64-w64-mingw32/8.1.0/../../../../x86_64-w64-mingw32/lib/../lib\libkernel32.a(dqifs00540.o)
                0x000000006613d2a0                __imp_GetCurrentThreadId
 .idata$5       0x000000006613d2a8        0x8 C:/GNU/MINGW64/x86_64-8.1.0-win32-seh-rt_v6-rev0/mingw64/bin/../lib/gcc/x86_64-w64-mingw32/8.1.0/../../../../x86_64-w64-mingw32/lib/../lib\libkernel32.a(dqifs00609.o)
                0x000000006613d2a8                __imp_GetLastError
 .idata$5       0x000000006613d2b0        0x8 C:/GNU/MINGW64/x86_64-8.1.0-win32-seh-rt_v6-rev0/mingw64/bin/../lib/gcc/x86_64-w64-mingw32/8.1.0/../../../../x86_64-w64-mingw32/lib/../lib\libkernel32.a(dqifs00746.o)
                0x000000006613d2b0                __imp_GetSystemTimeAsFileTime
 .idata$5       0x000000006613d2b8        0x8 C:/GNU/MINGW64/x86_64-8.1.0-win32-seh-rt_v6-rev0/mingw64/bin/../lib/gcc/x86_64-w64-mingw32/8.1.0/../../../../x86_64-w64-mingw32/lib/../lib\libkernel32.a(dqifs00774.o)
                0x000000006613d2b8                __imp_GetTickCount
 .idata$5       0x000000006613d2c0        0x8 C:/GNU/MINGW64/x86_64-8.1.0-win32-seh-rt_v6-rev0/mingw64/bin/../lib/gcc/x86_64-w64-mingw32/8.1.0/../../../../x86_64-w64-mingw32/lib/../lib\libkernel32.a(dqifs00835.o)
                0x000000006613d2c0                __imp_HeapAlloc
 .idata$5       0x000000006613d2c8        0x8 C:/GNU/MINGW64/x86_64-8.1.0-win32-seh-rt_v6-rev0/mingw64/bin/../lib/gcc/x86_64-w64-mingw32/8.1.0/../../../../x86_64-w64-mingw32/lib/../lib\libkernel32.a(dqifs00837.o)
                0x000000006613d2c8                __imp_HeapCreate
 .idata$5       0x000000006613d2d0        0x8 C:/GNU/MINGW64/x86_64-8.1.0-win32-seh-rt_v6-rev0/mingw64/bin/../lib/gcc/x86_64-w64-mingw32/8.1.0/../../../../x86_64-w64-mingw32/lib/../lib\libkernel32.a(dqifs00839.o)
                0x000000006613d2d0                __imp_HeapDestroy
 .idata$5       0x000000006613d2d8        0x8 C:/GNU/MINGW64/x86_64-8.1.0-win32-seh-rt_v6-rev0/mingw64/bin/../lib/gcc/x86_64-w64-mingw32/8.1.0/../../../../x86_64-w64-mingw32/lib/../lib\libkernel32.a(dqifs00841.o)
                0x000000006613d2d8                __imp_HeapFree
 .idata$5       0x000000006613d2e0        0x8 C:/GNU/MINGW64/x86_64-8.1.0-win32-seh-rt_v6-rev0/mingw64/bin/../lib/gcc/x86_64-w64-mingw32/8.1.0/../../../../x86_64-w64-mingw32/lib/../lib\libkernel32.a(dqifs00842.o)
                0x000000006613d2e0                __imp_HeapLock
 .idata$5       0x000000006613d2e8        0x8 C:/GNU/MINGW64/x86_64-8.1.0-win32-seh-rt_v6-rev0/mingw64/bin/../lib/gcc/x86_64-w64-mingw32/8.1.0/../../../../x86_64-w64-mingw32/lib/../lib\libkernel32.a(dqifs00849.o)
                0x000000006613d2e8                __imp_HeapUnlock
 .idata$5       0x000000006613d2f0        0x8 C:/GNU/MINGW64/x86_64-8.1.0-win32-seh-rt_v6-rev0/mingw64/bin/../lib/gcc/x86_64-w64-mingw32/8.1.0/../../../../x86_64-w64-mingw32/lib/../lib\libkernel32.a(dqifs00852.o)
                0x000000006613d2f0                __imp_HeapWalk
 .idata$5       0x000000006613d2f8        0x8 C:/GNU/MINGW64/x86_64-8.1.0-win32-seh-rt_v6-rev0/mingw64/bin/../lib/gcc/x86_64-w64-mingw32/8.1.0/../../../../x86_64-w64-mingw32/lib/../lib\libkernel32.a(dqifs00863.o)
                0x000000006613d2f8                __imp_InitializeCriticalSection
 .idata$5       0x000000006613d300        0x8 C:/GNU/MINGW64/x86_64-8.1.0-win32-seh-rt_v6-rev0/mingw64/bin/../lib/gcc/x86_64-w64-mingw32/8.1.0/../../../../x86_64-w64-mingw32/lib/../lib\libkernel32.a(dqifs00951.o)
                0x000000006613d300                __imp_LeaveCriticalSection
 .idata$5       0x000000006613d308        0x8 C:/GNU/MINGW64/x86_64-8.1.0-win32-seh-rt_v6-rev0/mingw64/bin/../lib/gcc/x86_64-w64-mingw32/8.1.0/../../../../x86_64-w64-mingw32/lib/../lib\libkernel32.a(dqifs01093.o)
                0x000000006613d308                __imp_QueryPerformanceCounter
 .idata$5       0x000000006613d310        0x8 C:/GNU/MINGW64/x86_64-8.1.0-win32-seh-rt_v6-rev0/mingw64/bin/../lib/gcc/x86_64-w64-mingw32/8.1.0/../../../../x86_64-w64-mingw32/lib/../lib\libkernel32.a(dqifs01112.o)
                0x000000006613d310                __imp_RaiseException
 .idata$5       0x000000006613d318        0x8 C:/GNU/MINGW64/x86_64-8.1.0-win32-seh-rt_v6-rev0/mingw64/bin/../lib/gcc/x86_64-w64-mingw32/8.1.0/../../../../x86_64-w64-mingw32/lib/../lib\libkernel32.a(dqifs01154.o)
                0x000000006613d318                __imp_ReleaseSemaphore
 .idata$5       0x000000006613d320        0x8 C:/GNU/MINGW64/x86_64-8.1.0-win32-seh-rt_v6-rev0/mingw64/bin/../lib/gcc/x86_64-w64-mingw32/8.1.0/../../../../x86_64-w64-mingw32/lib/../lib\libkernel32.a(dqifs01179.o)
                0x000000006613d320                __imp_RtlAddFunctionTable
 .idata$5       0x000000006613d328        0x8 C:/GNU/MINGW64/x86_64-8.1.0-win32-seh-rt_v6-rev0/mingw64/bin/../lib/gcc/x86_64-w64-mingw32/8.1.0/../../../../x86_64-w64-mingw32/lib/../lib\libkernel32.a(dqifs01180.o)
                0x000000006613d328                __imp_RtlCaptureContext
 .idata$5       0x000000006613d330        0x8 C:/GNU/MINGW64/x86_64-8.1.0-win32-seh-rt_v6-rev0/mingw64/bin/../lib/gcc/x86_64-w64-mingw32/8.1.0/../../../../x86_64-w64-mingw32/lib/../lib\libkernel32.a(dqifs01187.o)
                0x000000006613d330                __imp_RtlLookupFunctionEntry
 .idata$5       0x000000006613d338        0x8 C:/GNU/MINGW64/x86_64-8.1.0-win32-seh-rt_v6-rev0/mingw64/bin/../lib/gcc/x86_64-w64-mingw32/8.1.0/../../../../x86_64-w64-mingw32/lib/../lib\libkernel32.a(dqifs01193.o)
                0x000000006613d338                __imp_RtlUnwindEx
 .idata$5       0x000000006613d340        0x8 C:/GNU/MINGW64/x86_64-8.1.0-win32-seh-rt_v6-rev0/mingw64/bin/../lib/gcc/x86_64-w64-mingw32/8.1.0/../../../../x86_64-w64-mingw32/lib/../lib\libkernel32.a(dqifs01194.o)
                0x000000006613d340                __imp_RtlVirtualUnwind
 .idata$5       0x000000006613d348        0x8 C:/GNU/MINGW64/x86_64-8.1.0-win32-seh-rt_v6-rev0/mingw64/bin/../lib/gcc/x86_64-w64-mingw32/8.1.0/../../../../x86_64-w64-mingw32/lib/../lib\libkernel32.a(dqifs01290.o)
                0x000000006613d348                __imp_SetLastError
 .idata$5       0x000000006613d350        0x8 C:/GNU/MINGW64/x86_64-8.1.0-win32-seh-rt_v6-rev0/mingw64/bin/../lib/gcc/x86_64-w64-mingw32/8.1.0/../../../../x86_64-w64-mingw32/lib/../lib\libkernel32.a(dqifs01346.o)
                0x000000006613d350                __imp_SetUnhandledExceptionFilter
 .idata$5       0x000000006613d358        0x8 C:/GNU/MINGW64/x86_64-8.1.0-win32-seh-rt_v6-rev0/mingw64/bin/../lib/gcc/x86_64-w64-mingw32/8.1.0/../../../../x86_64-w64-mingw32/lib/../lib\libkernel32.a(dqifs01360.o)
                0x000000006613d358                __imp_Sleep
 .idata$5       0x000000006613d360        0x8 C:/GNU/MINGW64/x86_64-8.1.0-win32-seh-rt_v6-rev0/mingw64/bin/../lib/gcc/x86_64-w64-mingw32/8.1.0/../../../../x86_64-w64-mingw32/lib/../lib\libkernel32.a(dqifs01375.o)
                0x000000006613d360                __imp_TerminateProcess
 .idata$5       0x000000006613d368        0x8 C:/GNU/MINGW64/x86_64-8.1.0-win32-seh-rt_v6-rev0/mingw64/bin/../lib/gcc/x86_64-w64-mingw32/8.1.0/../../../../x86_64-w64-mingw32/lib/../lib\libkernel32.a(dqifs01393.o)
                0x000000006613d368                __imp_TlsAlloc
 .idata$5       0x000000006613d370        0x8 C:/GNU/MINGW64/x86_64-8.1.0-win32-seh-rt_v6-rev0/mingw64/bin/../lib/gcc/x86_64-w64-mingw32/8.1.0/../../../../x86_64-w64-mingw32/lib/../lib\libkernel32.a(dqifs01394.o)
                0x000000006613d370                __imp_TlsFree
 .idata$5       0x000000006613d378        0x8 C:/GNU/MINGW64/x86_64-8.1.0-win32-seh-rt_v6-rev0/mingw64/bin/../lib/gcc/x86_64-w64-mingw32/8.1.0/../../../../x86_64-w64-mingw32/lib/../lib\libkernel32.a(dqifs01395.o)
                0x000000006613d378                __imp_TlsGetValue
 .idata$5       0x000000006613d380        0x8 C:/GNU/MINGW64/x86_64-8.1.0-win32-seh-rt_v6-rev0/mingw64/bin/../lib/gcc/x86_64-w64-mingw32/8.1.0/../../../../x86_64-w64-mingw32/lib/../lib\libkernel32.a(dqifs01396.o)
                0x000000006613d380                __imp_TlsSetValue
 .idata$5       0x000000006613d388        0x8 C:/GNU/MINGW64/x86_64-8.1.0-win32-seh-rt_v6-rev0/mingw64/bin/../lib/gcc/x86_64-w64-mingw32/8.1.0/../../../../x86_64-w64-mingw32/lib/../lib\libkernel32.a(dqifs01409.o)
                0x000000006613d388                __imp_UnhandledExceptionFilter
 .idata$5       0x000000006613d390        0x8 C:/GNU/MINGW64/x86_64-8.1.0-win32-seh-rt_v6-rev0/mingw64/bin/../lib/gcc/x86_64-w64-mingw32/8.1.0/../../../../x86_64-w64-mingw32/lib/../lib\libkernel32.a(dqifs01443.o)
                0x000000006613d390                __imp_VirtualProtect
 .idata$5       0x000000006613d398        0x8 C:/GNU/MINGW64/x86_64-8.1.0-win32-seh-rt_v6-rev0/mingw64/bin/../lib/gcc/x86_64-w64-mingw32/8.1.0/../../../../x86_64-w64-mingw32/lib/../lib\libkernel32.a(dqifs01445.o)
                0x000000006613d398                __imp_VirtualQuery
 .idata$5       0x000000006613d3a0        0x8 C:/GNU/MINGW64/x86_64-8.1.0-win32-seh-rt_v6-rev0/mingw64/bin/../lib/gcc/x86_64-w64-mingw32/8.1.0/../../../../x86_64-w64-mingw32/lib/../lib\libkernel32.a(dqifs01453.o)
                0x000000006613d3a0                __imp_WaitForSingleObject
 .idata$5       0x000000006613d3a8        0x8 C:/GNU/MINGW64/x86_64-8.1.0-win32-seh-rt_v6-rev0/mingw64/bin/../lib/gcc/x86_64-w64-mingw32/8.1.0/../../../../x86_64-w64-mingw32/lib/../lib\libkernel32.a(dqifs01543.o)
                0x000000006613d3a8                __imp_lstrcmpW
 .idata$5       0x000000006613d3b0        0x8 C:/GNU/MINGW64/x86_64-8.1.0-win32-seh-rt_v6-rev0/mingw64/bin/../lib/gcc/x86_64-w64-mingw32/8.1.0/../../../../x86_64-w64-mingw32/lib/../lib\libkernel32.a(dqifs01549.o)
                0x000000006613d3b0                __imp_lstrcpyW
 .idata$5       0x000000006613d3b8        0x8 C:/GNU/MINGW64/x86_64-8.1.0-win32-seh-rt_v6-rev0/mingw64/bin/../lib/gcc/x86_64-w64-mingw32/8.1.0/../../../../x86_64-w64-mingw32/lib/../lib\libkernel32.a(dqifs01555.o)
                0x000000006613d3b8                __imp_lstrlenW
 .idata$5       0x000000006613d3c0        0x8 C:/GNU/MINGW64/x86_64-8.1.0-win32-seh-rt_v6-rev0/mingw64/bin/../lib/gcc/x86_64-w64-mingw32/8.1.0/../../../../x86_64-w64-mingw32/lib/../lib\libkernel32.a(dqift.o)
 .idata$5       0x000000006613d3c8        0x0 C:/GNU/MINGW64/x86_64-8.1.0-win32-seh-rt_v6-rev0/mingw64/bin/../lib/gcc/x86_64-w64-mingw32/8.1.0/../../../../x86_64-w64-mingw32/lib/../lib\libmsvcrt.a(duagh.o)
 .idata$5       0x000000006613d3c8        0x8 C:/GNU/MINGW64/x86_64-8.1.0-win32-seh-rt_v6-rev0/mingw64/bin/../lib/gcc/x86_64-w64-mingw32/8.1.0/../../../../x86_64-w64-mingw32/lib/../lib\libmsvcrt.a(duags00083.o)
                0x000000006613d3c8                __imp___iob_func
 .idata$5       0x000000006613d3d0        0x8 C:/GNU/MINGW64/x86_64-8.1.0-win32-seh-rt_v6-rev0/mingw64/bin/../lib/gcc/x86_64-w64-mingw32/8.1.0/../../../../x86_64-w64-mingw32/lib/../lib\libmsvcrt.a(duags00122.o)
                0x000000006613d3d0                __imp__amsg_exit
 .idata$5       0x000000006613d3d8        0x8 C:/GNU/MINGW64/x86_64-8.1.0-win32-seh-rt_v6-rev0/mingw64/bin/../lib/gcc/x86_64-w64-mingw32/8.1.0/../../../../x86_64-w64-mingw32/lib/../lib\libmsvcrt.a(duags00332.o)
                0x000000006613d3d8                __imp__initterm
 .idata$5       0x000000006613d3e0        0x8 C:/GNU/MINGW64/x86_64-8.1.0-win32-seh-rt_v6-rev0/mingw64/bin/../lib/gcc/x86_64-w64-mingw32/8.1.0/../../../../x86_64-w64-mingw32/lib/../lib\libmsvcrt.a(duags00441.o)
                0x000000006613d3e0                __imp__lock
 .idata$5       0x000000006613d3e8        0x8 C:/GNU/MINGW64/x86_64-8.1.0-win32-seh-rt_v6-rev0/mingw64/bin/../lib/gcc/x86_64-w64-mingw32/8.1.0/../../../../x86_64-w64-mingw32/lib/../lib\libmsvcrt.a(duags00821.o)
                0x000000006613d3e8                __imp__unlock
 .idata$5       0x000000006613d3f0        0x8 C:/GNU/MINGW64/x86_64-8.1.0-win32-seh-rt_v6-rev0/mingw64/bin/../lib/gcc/x86_64-w64-mingw32/8.1.0/../../../../x86_64-w64-mingw32/lib/../lib\libmsvcrt.a(duags00986.o)
                0x000000006613d3f0                __imp_write
 .idata$5       0x000000006613d3f8        0x8 C:/GNU/MINGW64/x86_64-8.1.0-win32-seh-rt_v6-rev0/mingw64/bin/../lib/gcc/x86_64-w64-mingw32/8.1.0/../../../../x86_64-w64-mingw32/lib/../lib\libmsvcrt.a(duags01032.o)
                0x000000006613d3f8                __imp_abort
 .idata$5       0x000000006613d400        0x8 C:/GNU/MINGW64/x86_64-8.1.0-win32-seh-rt_v6-rev0/mingw64/bin/../lib/gcc/x86_64-w64-mingw32/8.1.0/../../../../x86_64-w64-mingw32/lib/../lib\libmsvcrt.a(duags01050.o)
                0x000000006613d400                __imp_calloc
 .idata$5       0x000000006613d408        0x8 C:/GNU/MINGW64/x86_64-8.1.0-win32-seh-rt_v6-rev0/mingw64/bin/../lib/gcc/x86_64-w64-mingw32/8.1.0/../../../../x86_64-w64-mingw32/lib/../lib\libmsvcrt.a(duags01084.o)
                0x000000006613d408                __imp_fputc
 .idata$5       0x000000006613d410        0x8 C:/GNU/MINGW64/x86_64-8.1.0-win32-seh-rt_v6-rev0/mingw64/bin/../lib/gcc/x86_64-w64-mingw32/8.1.0/../../../../x86_64-w64-mingw32/lib/../lib\libmsvcrt.a(duags01085.o)
                0x000000006613d410                __imp_fputs
 .idata$5       0x000000006613d418        0x8 C:/GNU/MINGW64/x86_64-8.1.0-win32-seh-rt_v6-rev0/mingw64/bin/../lib/gcc/x86_64-w64-mingw32/8.1.0/../../../../x86_64-w64-mingw32/lib/../lib\libmsvcrt.a(duags01089.o)
                0x000000006613d418                __imp_free
 .idata$5       0x000000006613d420        0x8 C:/GNU/MINGW64/x86_64-8.1.0-win32-seh-rt_v6-rev0/mingw64/bin/../lib/gcc/x86_64-w64-mingw32/8.1.0/../../../../x86_64-w64-mingw32/lib/../lib\libmsvcrt.a(duags01101.o)
                0x000000006613d420                __imp_fwrite
 .idata$5       0x000000006613d428        0x8 C:/GNU/MINGW64/x86_64-8.1.0-win32-seh-rt_v6-rev0/mingw64/bin/../lib/gcc/x86_64-w64-mingw32/8.1.0/../../../../x86_64-w64-mingw32/lib/../lib\libmsvcrt.a(duags01149.o)
                0x000000006613d428                __imp_malloc
 .idata$5       0x000000006613d430        0x8 C:/GNU/MINGW64/x86_64-8.1.0-win32-seh-rt_v6-rev0/mingw64/bin/../lib/gcc/x86_64-w64-mingw32/8.1.0/../../../../x86_64-w64-mingw32/lib/../lib\libmsvcrt.a(duags01157.o)
                0x000000006613d430                __imp_memcpy
 .idata$5       0x000000006613d438        0x8 C:/GNU/MINGW64/x86_64-8.1.0-win32-seh-rt_v6-rev0/mingw64/bin/../lib/gcc/x86_64-w64-mingw32/8.1.0/../../../../x86_64-w64-mingw32/lib/../lib\libmsvcrt.a(duags01159.o)
                0x000000006613d438                __imp_memset
 .idata$5       0x000000006613d440        0x8 C:/GNU/MINGW64/x86_64-8.1.0-win32-seh-rt_v6-rev0/mingw64/bin/../lib/gcc/x86_64-w64-mingw32/8.1.0/../../../../x86_64-w64-mingw32/lib/../lib\libmsvcrt.a(duags01177.o)
                0x000000006613d440                __imp_realloc
 .idata$5       0x000000006613d448        0x8 C:/GNU/MINGW64/x86_64-8.1.0-win32-seh-rt_v6-rev0/mingw64/bin/../lib/gcc/x86_64-w64-mingw32/8.1.0/../../../../x86_64-w64-mingw32/lib/../lib\libmsvcrt.a(duags01187.o)
                0x000000006613d448                __imp_signal
 .idata$5       0x000000006613d450        0x8 C:/GNU/MINGW64/x86_64-8.1.0-win32-seh-rt_v6-rev0/mingw64/bin/../lib/gcc/x86_64-w64-mingw32/8.1.0/../../../../x86_64-w64-mingw32/lib/../lib\libmsvcrt.a(duags01192.o)
                0x000000006613d450                __imp_sprintf
 .idata$5       0x000000006613d458        0x8 C:/GNU/MINGW64/x86_64-8.1.0-win32-seh-rt_v6-rev0/mingw64/bin/../lib/gcc/x86_64-w64-mingw32/8.1.0/../../../../x86_64-w64-mingw32/lib/../lib\libmsvcrt.a(duags01201.o)
                0x000000006613d458                __imp_strcmp
 .idata$5       0x000000006613d460        0x8 C:/GNU/MINGW64/x86_64-8.1.0-win32-seh-rt_v6-rev0/mingw64/bin/../lib/gcc/x86_64-w64-mingw32/8.1.0/../../../../x86_64-w64-mingw32/lib/../lib\libmsvcrt.a(duags01208.o)
                0x000000006613d460                __imp_strlen
 .idata$5       0x000000006613d468        0x8 C:/GNU/MINGW64/x86_64-8.1.0-win32-seh-rt_v6-rev0/mingw64/bin/../lib/gcc/x86_64-w64-mingw32/8.1.0/../../../../x86_64-w64-mingw32/lib/../lib\libmsvcrt.a(duags01211.o)
                0x000000006613d468                __imp_strncmp
 .idata$5       0x000000006613d470        0x8 C:/GNU/MINGW64/x86_64-8.1.0-win32-seh-rt_v6-rev0/mingw64/bin/../lib/gcc/x86_64-w64-mingw32/8.1.0/../../../../x86_64-w64-mingw32/lib/../lib\libmsvcrt.a(duags01243.o)
                0x000000006613d470                __imp_vfprintf
 .idata$5       0x000000006613d478        0x8 C:/GNU/MINGW64/x86_64-8.1.0-win32-seh-rt_v6-rev0/mingw64/bin/../lib/gcc/x86_64-w64-mingw32/8.1.0/../../../../x86_64-w64-mingw32/lib/../lib\libmsvcrt.a(duagt.o)
 .idata$5       0x000000006613d480        0x0 C:/GNU/MINGW64/x86_64-8.1.0-win32-seh-rt_v6-rev0/mingw64/bin/../lib/gcc/x86_64-w64-mingw32/8.1.0/../../../../x86_64-w64-mingw32/lib/../lib\libuser32.a(dyqeh.o)
 .idata$5       0x000000006613d480        0x8 C:/GNU/MINGW64/x86_64-8.1.0-win32-seh-rt_v6-rev0/mingw64/bin/../lib/gcc/x86_64-w64-mingw32/8.1.0/../../../../x86_64-w64-mingw32/lib/../lib\libuser32.a(dyqes00958.o)
                0x000000006613d480                __imp_wsprintfW
 .idata$5       0x000000006613d488        0x8 C:/GNU/MINGW64/x86_64-8.1.0-win32-seh-rt_v6-rev0/mingw64/bin/../lib/gcc/x86_64-w64-mingw32/8.1.0/../../../../x86_64-w64-mingw32/lib/../lib\libuser32.a(dyqet.o)
                0x000000006613d490                __IAT_end__ = .
 SORT_BY_NAME(*)(.idata$6)
 .idata$6       0x000000006613d490        0xe C:/GNU/MINGW64/x86_64-8.1.0-win32-seh-rt_v6-rev0/mingw64/bin/../lib/gcc/x86_64-w64-mingw32/8.1.0/../../../../x86_64-w64-mingw32/lib/../lib\libkernel32.a(dqifs00130.o)
 .idata$6       0x000000006613d49e       0x14 C:/GNU/MINGW64/x86_64-8.1.0-win32-seh-rt_v6-rev0/mingw64/bin/../lib/gcc/x86_64-w64-mingw32/8.1.0/../../../../x86_64-w64-mingw32/lib/../lib\libkernel32.a(dqifs00231.o)
 .idata$6       0x000000006613d4b2       0x18 C:/GNU/MINGW64/x86_64-8.1.0-win32-seh-rt_v6-rev0/mingw64/bin/../lib/gcc/x86_64-w64-mingw32/8.1.0/../../../../x86_64-w64-mingw32/lib/../lib\libkernel32.a(dqifs00268.o)
 .idata$6       0x000000006613d4ca       0x18 C:/GNU/MINGW64/x86_64-8.1.0-win32-seh-rt_v6-rev0/mingw64/bin/../lib/gcc/x86_64-w64-mingw32/8.1.0/../../../../x86_64-w64-mingw32/lib/../lib\libkernel32.a(dqifs00304.o)
 .idata$6       0x000000006613d4e2       0x14 C:/GNU/MINGW64/x86_64-8.1.0-win32-seh-rt_v6-rev0/mingw64/bin/../lib/gcc/x86_64-w64-mingw32/8.1.0/../../../../x86_64-w64-mingw32/lib/../lib\libkernel32.a(dqifs00535.o)
 .idata$6       0x000000006613d4f6       0x16 C:/GNU/MINGW64/x86_64-8.1.0-win32-seh-rt_v6-rev0/mingw64/bin/../lib/gcc/x86_64-w64-mingw32/8.1.0/../../../../x86_64-w64-mingw32/lib/../lib\libkernel32.a(dqifs00536.o)
 .idata$6       0x000000006613d50c       0x16 C:/GNU/MINGW64/x86_64-8.1.0-win32-seh-rt_v6-rev0/mingw64/bin/../lib/gcc/x86_64-w64-mingw32/8.1.0/../../../../x86_64-w64-mingw32/lib/../lib\libkernel32.a(dqifs00540.o)
 .idata$6       0x000000006613d522       0x10 C:/GNU/MINGW64/x86_64-8.1.0-win32-seh-rt_v6-rev0/mingw64/bin/../lib/gcc/x86_64-w64-mingw32/8.1.0/../../../../x86_64-w64-mingw32/lib/../lib\libkernel32.a(dqifs00609.o)
 .idata$6       0x000000006613d532       0x1a C:/GNU/MINGW64/x86_64-8.1.0-win32-seh-rt_v6-rev0/mingw64/bin/../lib/gcc/x86_64-w64-mingw32/8.1.0/../../../../x86_64-w64-mingw32/lib/../lib\libkernel32.a(dqifs00746.o)
 .idata$6       0x000000006613d54c       0x10 C:/GNU/MINGW64/x86_64-8.1.0-win32-seh-rt_v6-rev0/mingw64/bin/../lib/gcc/x86_64-w64-mingw32/8.1.0/../../../../x86_64-w64-mingw32/lib/../lib\libkernel32.a(dqifs00774.o)
 .idata$6       0x000000006613d55c        0xc C:/GNU/MINGW64/x86_64-8.1.0-win32-seh-rt_v6-rev0/mingw64/bin/../lib/gcc/x86_64-w64-mingw32/8.1.0/../../../../x86_64-w64-mingw32/lib/../lib\libkernel32.a(dqifs00835.o)
 .idata$6       0x000000006613d568        0xe C:/GNU/MINGW64/x86_64-8.1.0-win32-seh-rt_v6-rev0/mingw64/bin/../lib/gcc/x86_64-w64-mingw32/8.1.0/../../../../x86_64-w64-mingw32/lib/../lib\libkernel32.a(dqifs00837.o)
 .idata$6       0x000000006613d576        0xe C:/GNU/MINGW64/x86_64-8.1.0-win32-seh-rt_v6-rev0/mingw64/bin/../lib/gcc/x86_64-w64-mingw32/8.1.0/../../../../x86_64-w64-mingw32/lib/../lib\libkernel32.a(dqifs00839.o)
 .idata$6       0x000000006613d584        0xc C:/GNU/MINGW64/x86_64-8.1.0-win32-seh-rt_v6-rev0/mingw64/bin/../lib/gcc/x86_64-w64-mingw32/8.1.0/../../../../x86_64-w64-mingw32/lib/../lib\libkernel32.a(dqifs00841.o)
 .idata$6       0x000000006613d590        0xc C:/GNU/MINGW64/x86_64-8.1.0-win32-seh-rt_v6-rev0/mingw64/bin/../lib/gcc/x86_64-w64-mingw32/8.1.0/../../../../x86_64-w64-mingw32/lib/../lib\libkernel32.a(dqifs00842.o)
 .idata$6       0x000000006613d59c        0xe C:/GNU/MINGW64/x86_64-8.1.0-win32-seh-rt_v6-rev0/mingw64/bin/../lib/gcc/x86_64-w64-mingw32/8.1.0/../../../../x86_64-w64-mingw32/lib/../lib\libkernel32.a(dqifs00849.o)
 .idata$6       0x000000006613d5aa        0xc C:/GNU/MINGW64/x86_64-8.1.0-win32-seh-rt_v6-rev0/mingw64/bin/../lib/gcc/x86_64-w64-mingw32/8.1.0/../../../../x86_64-w64-mingw32/lib/../lib\libkernel32.a(dqifs00852.o)
 .idata$6       0x000000006613d5b6       0x1c C:/GNU/MINGW64/x86_64-8.1.0-win32-seh-rt_v6-rev0/mingw64/bin/../lib/gcc/x86_64-w64-mingw32/8.1.0/../../../../x86_64-w64-mingw32/lib/../lib\libkernel32.a(dqifs00863.o)
 .idata$6       0x000000006613d5d2       0x18 C:/GNU/MINGW64/x86_64-8.1.0-win32-seh-rt_v6-rev0/mingw64/bin/../lib/gcc/x86_64-w64-mingw32/8.1.0/../../../../x86_64-w64-mingw32/lib/../lib\libkernel32.a(dqifs00951.o)
 .idata$6       0x000000006613d5ea       0x1a C:/GNU/MINGW64/x86_64-8.1.0-win32-seh-rt_v6-rev0/mingw64/bin/../lib/gcc/x86_64-w64-mingw32/8.1.0/../../../../x86_64-w64-mingw32/lib/../lib\libkernel32.a(dqifs01093.o)
 .idata$6       0x000000006613d604       0x12 C:/GNU/MINGW64/x86_64-8.1.0-win32-seh-rt_v6-rev0/mingw64/bin/../lib/gcc/x86_64-w64-mingw32/8.1.0/../../../../x86_64-w64-mingw32/lib/../lib\libkernel32.a(dqifs01112.o)
 .idata$6       0x000000006613d616       0x14 C:/GNU/MINGW64/x86_64-8.1.0-win32-seh-rt_v6-rev0/mingw64/bin/../lib/gcc/x86_64-w64-mingw32/8.1.0/../../../../x86_64-w64-mingw32/lib/../lib\libkernel32.a(dqifs01154.o)
 .idata$6       0x000000006613d62a       0x16 C:/GNU/MINGW64/x86_64-8.1.0-win32-seh-rt_v6-rev0/mingw64/bin/../lib/gcc/x86_64-w64-mingw32/8.1.0/../../../../x86_64-w64-mingw32/lib/../lib\libkernel32.a(dqifs01179.o)
 .idata$6       0x000000006613d640       0x14 C:/GNU/MINGW64/x86_64-8.1.0-win32-seh-rt_v6-rev0/mingw64/bin/../lib/gcc/x86_64-w64-mingw32/8.1.0/../../../../x86_64-w64-mingw32/lib/../lib\libkernel32.a(dqifs01180.o)
 .idata$6       0x000000006613d654       0x1a C:/GNU/MINGW64/x86_64-8.1.0-win32-seh-rt_v6-rev0/mingw64/bin/../lib/gcc/x86_64-w64-mingw32/8.1.0/../../../../x86_64-w64-mingw32/lib/../lib\libkernel32.a(dqifs01187.o)
 .idata$6       0x000000006613d66e        0xe C:/GNU/MINGW64/x86_64-8.1.0-win32-seh-rt_v6-rev0/mingw64/bin/../lib/gcc/x86_64-w64-mingw32/8.1.0/../../../../x86_64-w64-mingw32/lib/../lib\libkernel32.a(dqifs01193.o)
 .idata$6       0x000000006613d67c       0x14 C:/GNU/MINGW64/x86_64-8.1.0-win32-seh-rt_v6-rev0/mingw64/bin/../lib/gcc/x86_64-w64-mingw32/8.1.0/../../../../x86_64-w64-mingw32/lib/../lib\libkernel32.a(dqifs01194.o)
 .idata$6       0x000000006613d690       0x10 C:/GNU/MINGW64/x86_64-8.1.0-win32-seh-rt_v6-rev0/mingw64/bin/../lib/gcc/x86_64-w64-mingw32/8.1.0/../../../../x86_64-w64-mingw32/lib/../lib\libkernel32.a(dqifs01290.o)
 .idata$6       0x000000006613d6a0       0x1e C:/GNU/MINGW64/x86_64-8.1.0-win32-seh-rt_v6-rev0/mingw64/bin/../lib/gcc/x86_64-w64-mingw32/8.1.0/../../../../x86_64-w64-mingw32/lib/../lib\libkernel32.a(dqifs01346.o)
 .idata$6       0x000000006613d6be        0x8 C:/GNU/MINGW64/x86_64-8.1.0-win32-seh-rt_v6-rev0/mingw64/bin/../lib/gcc/x86_64-w64-mingw32/8.1.0/../../../../x86_64-w64-mingw32/lib/../lib\libkernel32.a(dqifs01360.o)
 .idata$6       0x000000006613d6c6       0x14 C:/GNU/MINGW64/x86_64-8.1.0-win32-seh-rt_v6-rev0/mingw64/bin/../lib/gcc/x86_64-w64-mingw32/8.1.0/../../../../x86_64-w64-mingw32/lib/../lib\libkernel32.a(dqifs01375.o)
 .idata$6       0x000000006613d6da        0xc C:/GNU/MINGW64/x86_64-8.1.0-win32-seh-rt_v6-rev0/mingw64/bin/../lib/gcc/x86_64-w64-mingw32/8.1.0/../../../../x86_64-w64-mingw32/lib/../lib\libkernel32.a(dqifs01393.o)
 .idata$6       0x000000006613d6e6        0xa C:/GNU/MINGW64/x86_64-8.1.0-win32-seh-rt_v6-rev0/mingw64/bin/../lib/gcc/x86_64-w64-mingw32/8.1.0/../../../../x86_64-w64-mingw32/lib/../lib\libkernel32.a(dqifs01394.o)
 .idata$6       0x000000006613d6f0        0xe C:/GNU/MINGW64/x86_64-8.1.0-win32-seh-rt_v6-rev0/mingw64/bin/../lib/gcc/x86_64-w64-mingw32/8.1.0/../../../../x86_64-w64-mingw32/lib/../lib\libkernel32.a(dqifs01395.o)
 .idata$6       0x000000006613d6fe        0xe C:/GNU/MINGW64/x86_64-8.1.0-win32-seh-rt_v6-rev0/mingw64/bin/../lib/gcc/x86_64-w64-mingw32/8.1.0/../../../../x86_64-w64-mingw32/lib/../lib\libkernel32.a(dqifs01396.o)
 .idata$6       0x000000006613d70c       0x1c C:/GNU/MINGW64/x86_64-8.1.0-win32-seh-rt_v6-rev0/mingw64/bin/../lib/gcc/x86_64-w64-mingw32/8.1.0/../../../../x86_64-w64-mingw32/lib/../lib\libkernel32.a(dqifs01409.o)
 .idata$6       0x000000006613d728       0x12 C:/GNU/MINGW64/x86_64-8.1.0-win32-seh-rt_v6-rev0/mingw64/bin/../lib/gcc/x86_64-w64-mingw32/8.1.0/../../../../x86_64-w64-mingw32/lib/../lib\libkernel32.a(dqifs01443.o)
 .idata$6       0x000000006613d73a       0x10 C:/GNU/MINGW64/x86_64-8.1.0-win32-seh-rt_v6-rev0/mingw64/bin/../lib/gcc/x86_64-w64-mingw32/8.1.0/../../../../x86_64-w64-mingw32/lib/../lib\libkernel32.a(dqifs01445.o)
 .idata$6       0x000000006613d74a       0x16 C:/GNU/MINGW64/x86_64-8.1.0-win32-seh-rt_v6-rev0/mingw64/bin/../lib/gcc/x86_64-w64-mingw32/8.1.0/../../../../x86_64-w64-mingw32/lib/../lib\libkernel32.a(dqifs01453.o)
 .idata$6       0x000000006613d760        0xc C:/GNU/MINGW64/x86_64-8.1.0-win32-seh-rt_v6-rev0/mingw64/bin/../lib/gcc/x86_64-w64-mingw32/8.1.0/../../../../x86_64-w64-mingw32/lib/../lib\libkernel32.a(dqifs01543.o)
 .idata$6       0x000000006613d76c        0xc C:/GNU/MINGW64/x86_64-8.1.0-win32-seh-rt_v6-rev0/mingw64/bin/../lib/gcc/x86_64-w64-mingw32/8.1.0/../../../../x86_64-w64-mingw32/lib/../lib\libkernel32.a(dqifs01549.o)
 .idata$6       0x000000006613d778        0xc C:/GNU/MINGW64/x86_64-8.1.0-win32-seh-rt_v6-rev0/mingw64/bin/../lib/gcc/x86_64-w64-mingw32/8.1.0/../../../../x86_64-w64-mingw32/lib/../lib\libkernel32.a(dqifs01555.o)
 .idata$6       0x000000006613d784        0xe C:/GNU/MINGW64/x86_64-8.1.0-win32-seh-rt_v6-rev0/mingw64/bin/../lib/gcc/x86_64-w64-mingw32/8.1.0/../../../../x86_64-w64-mingw32/lib/../lib\libmsvcrt.a(duags00083.o)
 .idata$6       0x000000006613d792        0xe C:/GNU/MINGW64/x86_64-8.1.0-win32-seh-rt_v6-rev0/mingw64/bin/../lib/gcc/x86_64-w64-mingw32/8.1.0/../../../../x86_64-w64-mingw32/lib/../lib\libmsvcrt.a(duags00122.o)
 .idata$6       0x000000006613d7a0        0xc C:/GNU/MINGW64/x86_64-8.1.0-win32-seh-rt_v6-rev0/mingw64/bin/../lib/gcc/x86_64-w64-mingw32/8.1.0/../../../../x86_64-w64-mingw32/lib/../lib\libmsvcrt.a(duags00332.o)
 .idata$6       0x000000006613d7ac        0x8 C:/GNU/MINGW64/x86_64-8.1.0-win32-seh-rt_v6-rev0/mingw64/bin/../lib/gcc/x86_64-w64-mingw32/8.1.0/../../../../x86_64-w64-mingw32/lib/../lib\libmsvcrt.a(duags00441.o)
 .idata$6       0x000000006613d7b4        0xa C:/GNU/MINGW64/x86_64-8.1.0-win32-seh-rt_v6-rev0/mingw64/bin/../lib/gcc/x86_64-w64-mingw32/8.1.0/../../../../x86_64-w64-mingw32/lib/../lib\libmsvcrt.a(duags00821.o)
 .idata$6       0x000000006613d7be        0xa C:/GNU/MINGW64/x86_64-8.1.0-win32-seh-rt_v6-rev0/mingw64/bin/../lib/gcc/x86_64-w64-mingw32/8.1.0/../../../../x86_64-w64-mingw32/lib/../lib\libmsvcrt.a(duags00986.o)
 .idata$6       0x000000006613d7c8        0x8 C:/GNU/MINGW64/x86_64-8.1.0-win32-seh-rt_v6-rev0/mingw64/bin/../lib/gcc/x86_64-w64-mingw32/8.1.0/../../../../x86_64-w64-mingw32/lib/../lib\libmsvcrt.a(duags01032.o)
 .idata$6       0x000000006613d7d0        0xa C:/GNU/MINGW64/x86_64-8.1.0-win32-seh-rt_v6-rev0/mingw64/bin/../lib/gcc/x86_64-w64-mingw32/8.1.0/../../../../x86_64-w64-mingw32/lib/../lib\libmsvcrt.a(duags01050.o)
 .idata$6       0x000000006613d7da        0x8 C:/GNU/MINGW64/x86_64-8.1.0-win32-seh-rt_v6-rev0/mingw64/bin/../lib/gcc/x86_64-w64-mingw32/8.1.0/../../../../x86_64-w64-mingw32/lib/../lib\libmsvcrt.a(duags01084.o)
 .idata$6       0x000000006613d7e2        0x8 C:/GNU/MINGW64/x86_64-8.1.0-win32-seh-rt_v6-rev0/mingw64/bin/../lib/gcc/x86_64-w64-mingw32/8.1.0/../../../../x86_64-w64-mingw32/lib/../lib\libmsvcrt.a(duags01085.o)
 .idata$6       0x000000006613d7ea        0x8 C:/GNU/MINGW64/x86_64-8.1.0-win32-seh-rt_v6-rev0/mingw64/bin/../lib/gcc/x86_64-w64-mingw32/8.1.0/../../../../x86_64-w64-mingw32/lib/../lib\libmsvcrt.a(duags01089.o)
 .idata$6       0x000000006613d7f2        0xa C:/GNU/MINGW64/x86_64-8.1.0-win32-seh-rt_v6-rev0/mingw64/bin/../lib/gcc/x86_64-w64-mingw32/8.1.0/../../../../x86_64-w64-mingw32/lib/../lib\libmsvcrt.a(duags01101.o)
 .idata$6       0x000000006613d7fc        0xa C:/GNU/MINGW64/x86_64-8.1.0-win32-seh-rt_v6-rev0/mingw64/bin/../lib/gcc/x86_64-w64-mingw32/8.1.0/../../../../x86_64-w64-mingw32/lib/../lib\libmsvcrt.a(duags01149.o)
 .idata$6       0x000000006613d806        0xa C:/GNU/MINGW64/x86_64-8.1.0-win32-seh-rt_v6-rev0/mingw64/bin/../lib/gcc/x86_64-w64-mingw32/8.1.0/../../../../x86_64-w64-mingw32/lib/../lib\libmsvcrt.a(duags01157.o)
 .idata$6       0x000000006613d810        0xa C:/GNU/MINGW64/x86_64-8.1.0-win32-seh-rt_v6-rev0/mingw64/bin/../lib/gcc/x86_64-w64-mingw32/8.1.0/../../../../x86_64-w64-mingw32/lib/../lib\libmsvcrt.a(duags01159.o)
 .idata$6       0x000000006613d81a        0xa C:/GNU/MINGW64/x86_64-8.1.0-win32-seh-rt_v6-rev0/mingw64/bin/../lib/gcc/x86_64-w64-mingw32/8.1.0/../../../../x86_64-w64-mingw32/lib/../lib\libmsvcrt.a(duags01177.o)
 .idata$6       0x000000006613d824        0xa C:/GNU/MINGW64/x86_64-8.1.0-win32-seh-rt_v6-rev0/mingw64/bin/../lib/gcc/x86_64-w64-mingw32/8.1.0/../../../../x86_64-w64-mingw32/lib/../lib\libmsvcrt.a(duags01187.o)
 .idata$6       0x000000006613d82e        0xa C:/GNU/MINGW64/x86_64-8.1.0-win32-seh-rt_v6-rev0/mingw64/bin/../lib/gcc/x86_64-w64-mingw32/8.1.0/../../../../x86_64-w64-mingw32/lib/../lib\libmsvcrt.a(duags01192.o)
 .idata$6       0x000000006613d838        0xa C:/GNU/MINGW64/x86_64-8.1.0-win32-seh-rt_v6-rev0/mingw64/bin/../lib/gcc/x86_64-w64-mingw32/8.1.0/../../../../x86_64-w64-mingw32/lib/../lib\libmsvcrt.a(duags01201.o)
 .idata$6       0x000000006613d842        0xa C:/GNU/MINGW64/x86_64-8.1.0-win32-seh-rt_v6-rev0/mingw64/bin/../lib/gcc/x86_64-w64-mingw32/8.1.0/../../../../x86_64-w64-mingw32/lib/../lib\libmsvcrt.a(duags01208.o)
 .idata$6       0x000000006613d84c        0xa C:/GNU/MINGW64/x86_64-8.1.0-win32-seh-rt_v6-rev0/mingw64/bin/../lib/gcc/x86_64-w64-mingw32/8.1.0/../../../../x86_64-w64-mingw32/lib/../lib\libmsvcrt.a(duags01211.o)
 .idata$6       0x000000006613d856        0xc C:/GNU/MINGW64/x86_64-8.1.0-win32-seh-rt_v6-rev0/mingw64/bin/../lib/gcc/x86_64-w64-mingw32/8.1.0/../../../../x86_64-w64-mingw32/lib/../lib\libmsvcrt.a(duags01243.o)
 .idata$6       0x000000006613d862        0xc C:/GNU/MINGW64/x86_64-8.1.0-win32-seh-rt_v6-rev0/mingw64/bin/../lib/gcc/x86_64-w64-mingw32/8.1.0/../../../../x86_64-w64-mingw32/lib/../lib\libuser32.a(dyqes00958.o)
 SORT_BY_NAME(*)(.idata$7)
 *fill*         0x000000006613d86e        0x2 
 .idata$7       0x000000006613d870        0x4 C:/GNU/MINGW64/x86_64-8.1.0-win32-seh-rt_v6-rev0/mingw64/bin/../lib/gcc/x86_64-w64-mingw32/8.1.0/../../../../x86_64-w64-mingw32/lib/../lib\libkernel32.a(dqifs00130.o)
 .idata$7       0x000000006613d874        0x4 C:/GNU/MINGW64/x86_64-8.1.0-win32-seh-rt_v6-rev0/mingw64/bin/../lib/gcc/x86_64-w64-mingw32/8.1.0/../../../../x86_64-w64-mingw32/lib/../lib\libkernel32.a(dqifs00231.o)
 .idata$7       0x000000006613d878        0x4 C:/GNU/MINGW64/x86_64-8.1.0-win32-seh-rt_v6-rev0/mingw64/bin/../lib/gcc/x86_64-w64-mingw32/8.1.0/../../../../x86_64-w64-mingw32/lib/../lib\libkernel32.a(dqifs00268.o)
 .idata$7       0x000000006613d87c        0x4 C:/GNU/MINGW64/x86_64-8.1.0-win32-seh-rt_v6-rev0/mingw64/bin/../lib/gcc/x86_64-w64-mingw32/8.1.0/../../../../x86_64-w64-mingw32/lib/../lib\libkernel32.a(dqifs00304.o)
 .idata$7       0x000000006613d880        0x4 C:/GNU/MINGW64/x86_64-8.1.0-win32-seh-rt_v6-rev0/mingw64/bin/../lib/gcc/x86_64-w64-mingw32/8.1.0/../../../../x86_64-w64-mingw32/lib/../lib\libkernel32.a(dqifs00535.o)
 .idata$7       0x000000006613d884        0x4 C:/GNU/MINGW64/x86_64-8.1.0-win32-seh-rt_v6-rev0/mingw64/bin/../lib/gcc/x86_64-w64-mingw32/8.1.0/../../../../x86_64-w64-mingw32/lib/../lib\libkernel32.a(dqifs00536.o)
 .idata$7       0x000000006613d888        0x4 C:/GNU/MINGW64/x86_64-8.1.0-win32-seh-rt_v6-rev0/mingw64/bin/../lib/gcc/x86_64-w64-mingw32/8.1.0/../../../../x86_64-w64-mingw32/lib/../lib\libkernel32.a(dqifs00540.o)
 .idata$7       0x000000006613d88c        0x4 C:/GNU/MINGW64/x86_64-8.1.0-win32-seh-rt_v6-rev0/mingw64/bin/../lib/gcc/x86_64-w64-mingw32/8.1.0/../../../../x86_64-w64-mingw32/lib/../lib\libkernel32.a(dqifs00609.o)
 .idata$7       0x000000006613d890        0x4 C:/GNU/MINGW64/x86_64-8.1.0-win32-seh-rt_v6-rev0/mingw64/bin/../lib/gcc/x86_64-w64-mingw32/8.1.0/../../../../x86_64-w64-mingw32/lib/../lib\libkernel32.a(dqifs00746.o)
 .idata$7       0x000000006613d894        0x4 C:/GNU/MINGW64/x86_64-8.1.0-win32-seh-rt_v6-rev0/mingw64/bin/../lib/gcc/x86_64-w64-mingw32/8.1.0/../../../../x86_64-w64-mingw32/lib/../lib\libkernel32.a(dqifs00774.o)
 .idata$7       0x000000006613d898        0x4 C:/GNU/MINGW64/x86_64-8.1.0-win32-seh-rt_v6-rev0/mingw64/bin/../lib/gcc/x86_64-w64-mingw32/8.1.0/../../../../x86_64-w64-mingw32/lib/../lib\libkernel32.a(dqifs00835.o)
 .idata$7       0x000000006613d89c        0x4 C:/GNU/MINGW64/x86_64-8.1.0-win32-seh-rt_v6-rev0/mingw64/bin/../lib/gcc/x86_64-w64-mingw32/8.1.0/../../../../x86_64-w64-mingw32/lib/../lib\libkernel32.a(dqifs00837.o)
 .idata$7       0x000000006613d8a0        0x4 C:/GNU/MINGW64/x86_64-8.1.0-win32-seh-rt_v6-rev0/mingw64/bin/../lib/gcc/x86_64-w64-mingw32/8.1.0/../../../../x86_64-w64-mingw32/lib/../lib\libkernel32.a(dqifs00839.o)
 .idata$7       0x000000006613d8a4        0x4 C:/GNU/MINGW64/x86_64-8.1.0-win32-seh-rt_v6-rev0/mingw64/bin/../lib/gcc/x86_64-w64-mingw32/8.1.0/../../../../x86_64-w64-mingw32/lib/../lib\libkernel32.a(dqifs00841.o)
 .idata$7       0x000000006613d8a8        0x4 C:/GNU/MINGW64/x86_64-8.1.0-win32-seh-rt_v6-rev0/mingw64/bin/../lib/gcc/x86_64-w64-mingw32/8.1.0/../../../../x86_64-w64-mingw32/lib/../lib\libkernel32.a(dqifs00842.o)
 .idata$7       0x000000006613d8ac        0x4 C:/GNU/MINGW64/x86_64-8.1.0-win32-seh-rt_v6-rev0/mingw64/bin/../lib/gcc/x86_64-w64-mingw32/8.1.0/../../../../x86_64-w64-mingw32/lib/../lib\libkernel32.a(dqifs00849.o)
 .idata$7       0x000000006613d8b0        0x4 C:/GNU/MINGW64/x86_64-8.1.0-win32-seh-rt_v6-rev0/mingw64/bin/../lib/gcc/x86_64-w64-mingw32/8.1.0/../../../../x86_64-w64-mingw32/lib/../lib\libkernel32.a(dqifs00852.o)
 .idata$7       0x000000006613d8b4        0x4 C:/GNU/MINGW64/x86_64-8.1.0-win32-seh-rt_v6-rev0/mingw64/bin/../lib/gcc/x86_64-w64-mingw32/8.1.0/../../../../x86_64-w64-mingw32/lib/../lib\libkernel32.a(dqifs00863.o)
 .idata$7       0x000000006613d8b8        0x4 C:/GNU/MINGW64/x86_64-8.1.0-win32-seh-rt_v6-rev0/mingw64/bin/../lib/gcc/x86_64-w64-mingw32/8.1.0/../../../../x86_64-w64-mingw32/lib/../lib\libkernel32.a(dqifs00951.o)
 .idata$7       0x000000006613d8bc        0x4 C:/GNU/MINGW64/x86_64-8.1.0-win32-seh-rt_v6-rev0/mingw64/bin/../lib/gcc/x86_64-w64-mingw32/8.1.0/../../../../x86_64-w64-mingw32/lib/../lib\libkernel32.a(dqifs01093.o)
 .idata$7       0x000000006613d8c0        0x4 C:/GNU/MINGW64/x86_64-8.1.0-win32-seh-rt_v6-rev0/mingw64/bin/../lib/gcc/x86_64-w64-mingw32/8.1.0/../../../../x86_64-w64-mingw32/lib/../lib\libkernel32.a(dqifs01112.o)
 .idata$7       0x000000006613d8c4        0x4 C:/GNU/MINGW64/x86_64-8.1.0-win32-seh-rt_v6-rev0/mingw64/bin/../lib/gcc/x86_64-w64-mingw32/8.1.0/../../../../x86_64-w64-mingw32/lib/../lib\libkernel32.a(dqifs01154.o)
 .idata$7       0x000000006613d8c8        0x4 C:/GNU/MINGW64/x86_64-8.1.0-win32-seh-rt_v6-rev0/mingw64/bin/../lib/gcc/x86_64-w64-mingw32/8.1.0/../../../../x86_64-w64-mingw32/lib/../lib\libkernel32.a(dqifs01179.o)
 .idata$7       0x000000006613d8cc        0x4 C:/GNU/MINGW64/x86_64-8.1.0-win32-seh-rt_v6-rev0/mingw64/bin/../lib/gcc/x86_64-w64-mingw32/8.1.0/../../../../x86_64-w64-mingw32/lib/../lib\libkernel32.a(dqifs01180.o)
 .idata$7       0x000000006613d8d0        0x4 C:/GNU/MINGW64/x86_64-8.1.0-win32-seh-rt_v6-rev0/mingw64/bin/../lib/gcc/x86_64-w64-mingw32/8.1.0/../../../../x86_64-w64-mingw32/lib/../lib\libkernel32.a(dqifs01187.o)
 .idata$7       0x000000006613d8d4        0x4 C:/GNU/MINGW64/x86_64-8.1.0-win32-seh-rt_v6-rev0/mingw64/bin/../lib/gcc/x86_64-w64-mingw32/8.1.0/../../../../x86_64-w64-mingw32/lib/../lib\libkernel32.a(dqifs01193.o)
 .idata$7       0x000000006613d8d8        0x4 C:/GNU/MINGW64/x86_64-8.1.0-win32-seh-rt_v6-rev0/mingw64/bin/../lib/gcc/x86_64-w64-mingw32/8.1.0/../../../../x86_64-w64-mingw32/lib/../lib\libkernel32.a(dqifs01194.o)
 .idata$7       0x000000006613d8dc        0x4 C:/GNU/MINGW64/x86_64-8.1.0-win32-seh-rt_v6-rev0/mingw64/bin/../lib/gcc/x86_64-w64-mingw32/8.1.0/../../../../x86_64-w64-mingw32/lib/../lib\libkernel32.a(dqifs01290.o)
 .idata$7       0x000000006613d8e0        0x4 C:/GNU/MINGW64/x86_64-8.1.0-win32-seh-rt_v6-rev0/mingw64/bin/../lib/gcc/x86_64-w64-mingw32/8.1.0/../../../../x86_64-w64-mingw32/lib/../lib\libkernel32.a(dqifs01346.o)
 .idata$7       0x000000006613d8e4        0x4 C:/GNU/MINGW64/x86_64-8.1.0-win32-seh-rt_v6-rev0/mingw64/bin/../lib/gcc/x86_64-w64-mingw32/8.1.0/../../../../x86_64-w64-mingw32/lib/../lib\libkernel32.a(dqifs01360.o)
 .idata$7       0x000000006613d8e8        0x4 C:/GNU/MINGW64/x86_64-8.1.0-win32-seh-rt_v6-rev0/mingw64/bin/../lib/gcc/x86_64-w64-mingw32/8.1.0/../../../../x86_64-w64-mingw32/lib/../lib\libkernel32.a(dqifs01375.o)
 .idata$7       0x000000006613d8ec        0x4 C:/GNU/MINGW64/x86_64-8.1.0-win32-seh-rt_v6-rev0/mingw64/bin/../lib/gcc/x86_64-w64-mingw32/8.1.0/../../../../x86_64-w64-mingw32/lib/../lib\libkernel32.a(dqifs01393.o)
 .idata$7       0x000000006613d8f0        0x4 C:/GNU/MINGW64/x86_64-8.1.0-win32-seh-rt_v6-rev0/mingw64/bin/../lib/gcc/x86_64-w64-mingw32/8.1.0/../../../../x86_64-w64-mingw32/lib/../lib\libkernel32.a(dqifs01394.o)
 .idata$7       0x000000006613d8f4        0x4 C:/GNU/MINGW64/x86_64-8.1.0-win32-seh-rt_v6-rev0/mingw64/bin/../lib/gcc/x86_64-w64-mingw32/8.1.0/../../../../x86_64-w64-mingw32/lib/../lib\libkernel32.a(dqifs01395.o)
 .idata$7       0x000000006613d8f8        0x4 C:/GNU/MINGW64/x86_64-8.1.0-win32-seh-rt_v6-rev0/mingw64/bin/../lib/gcc/x86_64-w64-mingw32/8.1.0/../../../../x86_64-w64-mingw32/lib/../lib\libkernel32.a(dqifs01396.o)
 .idata$7       0x000000006613d8fc        0x4 C:/GNU/MINGW64/x86_64-8.1.0-win32-seh-rt_v6-rev0/mingw64/bin/../lib/gcc/x86_64-w64-mingw32/8.1.0/../../../../x86_64-w64-mingw32/lib/../lib\libkernel32.a(dqifs01409.o)
 .idata$7       0x000000006613d900        0x4 C:/GNU/MINGW64/x86_64-8.1.0-win32-seh-rt_v6-rev0/mingw64/bin/../lib/gcc/x86_64-w64-mingw32/8.1.0/../../../../x86_64-w64-mingw32/lib/../lib\libkernel32.a(dqifs01443.o)
 .idata$7       0x000000006613d904        0x4 C:/GNU/MINGW64/x86_64-8.1.0-win32-seh-rt_v6-rev0/mingw64/bin/../lib/gcc/x86_64-w64-mingw32/8.1.0/../../../../x86_64-w64-mingw32/lib/../lib\libkernel32.a(dqifs01445.o)
 .idata$7       0x000000006613d908        0x4 C:/GNU/MINGW64/x86_64-8.1.0-win32-seh-rt_v6-rev0/mingw64/bin/../lib/gcc/x86_64-w64-mingw32/8.1.0/../../../../x86_64-w64-mingw32/lib/../lib\libkernel32.a(dqifs01453.o)
 .idata$7       0x000000006613d90c        0x4 C:/GNU/MINGW64/x86_64-8.1.0-win32-seh-rt_v6-rev0/mingw64/bin/../lib/gcc/x86_64-w64-mingw32/8.1.0/../../../../x86_64-w64-mingw32/lib/../lib\libkernel32.a(dqifs01543.o)
 .idata$7       0x000000006613d910        0x4 C:/GNU/MINGW64/x86_64-8.1.0-win32-seh-rt_v6-rev0/mingw64/bin/../lib/gcc/x86_64-w64-mingw32/8.1.0/../../../../x86_64-w64-mingw32/lib/../lib\libkernel32.a(dqifs01549.o)
 .idata$7       0x000000006613d914        0x4 C:/GNU/MINGW64/x86_64-8.1.0-win32-seh-rt_v6-rev0/mingw64/bin/../lib/gcc/x86_64-w64-mingw32/8.1.0/../../../../x86_64-w64-mingw32/lib/../lib\libkernel32.a(dqifs01555.o)
 .idata$7       0x000000006613d918       0x10 C:/GNU/MINGW64/x86_64-8.1.0-win32-seh-rt_v6-rev0/mingw64/bin/../lib/gcc/x86_64-w64-mingw32/8.1.0/../../../../x86_64-w64-mingw32/lib/../lib\libkernel32.a(dqift.o)
                0x000000006613d918                __lib64_libkernel32_a_iname
 .idata$7       0x000000006613d928        0x4 C:/GNU/MINGW64/x86_64-8.1.0-win32-seh-rt_v6-rev0/mingw64/bin/../lib/gcc/x86_64-w64-mingw32/8.1.0/../../../../x86_64-w64-mingw32/lib/../lib\libmsvcrt.a(duags00083.o)
 .idata$7       0x000000006613d92c        0x4 C:/GNU/MINGW64/x86_64-8.1.0-win32-seh-rt_v6-rev0/mingw64/bin/../lib/gcc/x86_64-w64-mingw32/8.1.0/../../../../x86_64-w64-mingw32/lib/../lib\libmsvcrt.a(duags00122.o)
 .idata$7       0x000000006613d930        0x4 C:/GNU/MINGW64/x86_64-8.1.0-win32-seh-rt_v6-rev0/mingw64/bin/../lib/gcc/x86_64-w64-mingw32/8.1.0/../../../../x86_64-w64-mingw32/lib/../lib\libmsvcrt.a(duags00332.o)
 .idata$7       0x000000006613d934        0x4 C:/GNU/MINGW64/x86_64-8.1.0-win32-seh-rt_v6-rev0/mingw64/bin/../lib/gcc/x86_64-w64-mingw32/8.1.0/../../../../x86_64-w64-mingw32/lib/../lib\libmsvcrt.a(duags00441.o)
 .idata$7       0x000000006613d938        0x4 C:/GNU/MINGW64/x86_64-8.1.0-win32-seh-rt_v6-rev0/mingw64/bin/../lib/gcc/x86_64-w64-mingw32/8.1.0/../../../../x86_64-w64-mingw32/lib/../lib\libmsvcrt.a(duags00821.o)
 .idata$7       0x000000006613d93c        0x4 C:/GNU/MINGW64/x86_64-8.1.0-win32-seh-rt_v6-rev0/mingw64/bin/../lib/gcc/x86_64-w64-mingw32/8.1.0/../../../../x86_64-w64-mingw32/lib/../lib\libmsvcrt.a(duags00986.o)
 .idata$7       0x000000006613d940        0x4 C:/GNU/MINGW64/x86_64-8.1.0-win32-seh-rt_v6-rev0/mingw64/bin/../lib/gcc/x86_64-w64-mingw32/8.1.0/../../../../x86_64-w64-mingw32/lib/../lib\libmsvcrt.a(duags01032.o)
 .idata$7       0x000000006613d944        0x4 C:/GNU/MINGW64/x86_64-8.1.0-win32-seh-rt_v6-rev0/mingw64/bin/../lib/gcc/x86_64-w64-mingw32/8.1.0/../../../../x86_64-w64-mingw32/lib/../lib\libmsvcrt.a(duags01050.o)
 .idata$7       0x000000006613d948        0x4 C:/GNU/MINGW64/x86_64-8.1.0-win32-seh-rt_v6-rev0/mingw64/bin/../lib/gcc/x86_64-w64-mingw32/8.1.0/../../../../x86_64-w64-mingw32/lib/../lib\libmsvcrt.a(duags01084.o)
 .idata$7       0x000000006613d94c        0x4 C:/GNU/MINGW64/x86_64-8.1.0-win32-seh-rt_v6-rev0/mingw64/bin/../lib/gcc/x86_64-w64-mingw32/8.1.0/../../../../x86_64-w64-mingw32/lib/../lib\libmsvcrt.a(duags01085.o)
 .idata$7       0x000000006613d950        0x4 C:/GNU/MINGW64/x86_64-8.1.0-win32-seh-rt_v6-rev0/mingw64/bin/../lib/gcc/x86_64-w64-mingw32/8.1.0/../../../../x86_64-w64-mingw32/lib/../lib\libmsvcrt.a(duags01089.o)
 .idata$7       0x000000006613d954        0x4 C:/GNU/MINGW64/x86_64-8.1.0-win32-seh-rt_v6-rev0/mingw64/bin/../lib/gcc/x86_64-w64-mingw32/8.1.0/../../../../x86_64-w64-mingw32/lib/../lib\libmsvcrt.a(duags01101.o)
 .idata$7       0x000000006613d958        0x4 C:/GNU/MINGW64/x86_64-8.1.0-win32-seh-rt_v6-rev0/mingw64/bin/../lib/gcc/x86_64-w64-mingw32/8.1.0/../../../../x86_64-w64-mingw32/lib/../lib\libmsvcrt.a(duags01149.o)
 .idata$7       0x000000006613d95c        0x4 C:/GNU/MINGW64/x86_64-8.1.0-win32-seh-rt_v6-rev0/mingw64/bin/../lib/gcc/x86_64-w64-mingw32/8.1.0/../../../../x86_64-w64-mingw32/lib/../lib\libmsvcrt.a(duags01157.o)
 .idata$7       0x000000006613d960        0x4 C:/GNU/MINGW64/x86_64-8.1.0-win32-seh-rt_v6-rev0/mingw64/bin/../lib/gcc/x86_64-w64-mingw32/8.1.0/../../../../x86_64-w64-mingw32/lib/../lib\libmsvcrt.a(duags01159.o)
 .idata$7       0x000000006613d964        0x4 C:/GNU/MINGW64/x86_64-8.1.0-win32-seh-rt_v6-rev0/mingw64/bin/../lib/gcc/x86_64-w64-mingw32/8.1.0/../../../../x86_64-w64-mingw32/lib/../lib\libmsvcrt.a(duags01177.o)
 .idata$7       0x000000006613d968        0x4 C:/GNU/MINGW64/x86_64-8.1.0-win32-seh-rt_v6-rev0/mingw64/bin/../lib/gcc/x86_64-w64-mingw32/8.1.0/../../../../x86_64-w64-mingw32/lib/../lib\libmsvcrt.a(duags01187.o)
 .idata$7       0x000000006613d96c        0x4 C:/GNU/MINGW64/x86_64-8.1.0-win32-seh-rt_v6-rev0/mingw64/bin/../lib/gcc/x86_64-w64-mingw32/8.1.0/../../../../x86_64-w64-mingw32/lib/../lib\libmsvcrt.a(duags01192.o)
 .idata$7       0x000000006613d970        0x4 C:/GNU/MINGW64/x86_64-8.1.0-win32-seh-rt_v6-rev0/mingw64/bin/../lib/gcc/x86_64-w64-mingw32/8.1.0/../../../../x86_64-w64-mingw32/lib/../lib\libmsvcrt.a(duags01201.o)
 .idata$7       0x000000006613d974        0x4 C:/GNU/MINGW64/x86_64-8.1.0-win32-seh-rt_v6-rev0/mingw64/bin/../lib/gcc/x86_64-w64-mingw32/8.1.0/../../../../x86_64-w64-mingw32/lib/../lib\libmsvcrt.a(duags01208.o)
 .idata$7       0x000000006613d978        0x4 C:/GNU/MINGW64/x86_64-8.1.0-win32-seh-rt_v6-rev0/mingw64/bin/../lib/gcc/x86_64-w64-mingw32/8.1.0/../../../../x86_64-w64-mingw32/lib/../lib\libmsvcrt.a(duags01211.o)
 .idata$7       0x000000006613d97c        0x4 C:/GNU/MINGW64/x86_64-8.1.0-win32-seh-rt_v6-rev0/mingw64/bin/../lib/gcc/x86_64-w64-mingw32/8.1.0/../../../../x86_64-w64-mingw32/lib/../lib\libmsvcrt.a(duags01243.o)
 .idata$7       0x000000006613d980        0xc C:/GNU/MINGW64/x86_64-8.1.0-win32-seh-rt_v6-rev0/mingw64/bin/../lib/gcc/x86_64-w64-mingw32/8.1.0/../../../../x86_64-w64-mingw32/lib/../lib\libmsvcrt.a(duagt.o)
                0x000000006613d980                __lib64_libmsvcrt_os_a_iname
 .idata$7       0x000000006613d98c        0x4 C:/GNU/MINGW64/x86_64-8.1.0-win32-seh-rt_v6-rev0/mingw64/bin/../lib/gcc/x86_64-w64-mingw32/8.1.0/../../../../x86_64-w64-mingw32/lib/../lib\libuser32.a(dyqes00958.o)
 .idata$7       0x000000006613d990        0xc C:/GNU/MINGW64/x86_64-8.1.0-win32-seh-rt_v6-rev0/mingw64/bin/../lib/gcc/x86_64-w64-mingw32/8.1.0/../../../../x86_64-w64-mingw32/lib/../lib\libuser32.a(dyqet.o)
                0x000000006613d990                __lib64_libuser32_a_iname

.CRT            0x000000006613e000      0x200
                0x000000006613e000                ___crt_xc_start__ = .
 *(SORT_BY_NAME(.CRT$XC*))
 .CRT$XCA       0x000000006613e000        0x8 C:/GNU/MINGW64/x86_64-8.1.0-win32-seh-rt_v6-rev0/mingw64/bin/../lib/gcc/x86_64-w64-mingw32/8.1.0/../../../../x86_64-w64-mingw32/lib/../lib\libmingw32.a(lib64_libmingw32_a-cinitexe.o)
                0x000000006613e000                __xc_a
 .CRT$XCZ       0x000000006613e008        0x8 C:/GNU/MINGW64/x86_64-8.1.0-win32-seh-rt_v6-rev0/mingw64/bin/../lib/gcc/x86_64-w64-mingw32/8.1.0/../../../../x86_64-w64-mingw32/lib/../lib\libmingw32.a(lib64_libmingw32_a-cinitexe.o)
                0x000000006613e008                __xc_z
                0x000000006613e010                ___crt_xc_end__ = .
                0x000000006613e010                ___crt_xi_start__ = .
 *(SORT_BY_NAME(.CRT$XI*))
 .CRT$XIA       0x000000006613e010        0x8 C:/GNU/MINGW64/x86_64-8.1.0-win32-seh-rt_v6-rev0/mingw64/bin/../lib/gcc/x86_64-w64-mingw32/8.1.0/../../../../x86_64-w64-mingw32/lib/../lib\libmingw32.a(lib64_libmingw32_a-cinitexe.o)
                0x000000006613e010                __xi_a
 .CRT$XIAA      0x000000006613e018        0x8 C:/GNU/MINGW64/x86_64-8.1.0-win32-seh-rt_v6-rev0/mingw64/bin/../lib/gcc/x86_64-w64-mingw32/8.1.0/../../../../x86_64-w64-mingw32/lib/../lib/dllcrt2.o
                0x000000006613e018                pcinit
 .CRT$XIZ       0x000000006613e020        0x8 C:/GNU/MINGW64/x86_64-8.1.0-win32-seh-rt_v6-rev0/mingw64/bin/../lib/gcc/x86_64-w64-mingw32/8.1.0/../../../../x86_64-w64-mingw32/lib/../lib\libmingw32.a(lib64_libmingw32_a-cinitexe.o)
                0x000000006613e020                __xi_z
                0x000000006613e028                ___crt_xi_end__ = .
                0x000000006613e028                ___crt_xl_start__ = .
 *(SORT_BY_NAME(.CRT$XL*))
 .CRT$XLA       0x000000006613e028        0x8 C:/GNU/MINGW64/x86_64-8.1.0-win32-seh-rt_v6-rev0/mingw64/bin/../lib/gcc/x86_64-w64-mingw32/8.1.0/../../../../x86_64-w64-mingw32/lib/../lib\libmingw32.a(lib64_libmingw32_a-tlssup.o)
                0x000000006613e028                __xl_a
 .CRT$XLC       0x000000006613e030        0x8 C:/GNU/MINGW64/x86_64-8.1.0-win32-seh-rt_v6-rev0/mingw64/bin/../lib/gcc/x86_64-w64-mingw32/8.1.0/../../../../x86_64-w64-mingw32/lib/../lib\libmingw32.a(lib64_libmingw32_a-tlssup.o)
                0x000000006613e030                __xl_c
 .CRT$XLD       0x000000006613e038        0x8 C:/GNU/MINGW64/x86_64-8.1.0-win32-seh-rt_v6-rev0/mingw64/bin/../lib/gcc/x86_64-w64-mingw32/8.1.0/../../../../x86_64-w64-mingw32/lib/../lib\libmingw32.a(lib64_libmingw32_a-tlssup.o)
                0x000000006613e038                __xl_d
 .CRT$XLZ       0x000000006613e040        0x8 C:/GNU/MINGW64/x86_64-8.1.0-win32-seh-rt_v6-rev0/mingw64/bin/../lib/gcc/x86_64-w64-mingw32/8.1.0/../../../../x86_64-w64-mingw32/lib/../lib\libmingw32.a(lib64_libmingw32_a-tlssup.o)
                0x000000006613e040                __xl_z
                0x000000006613e048                ___crt_xp_start__ = .
 *(SORT_BY_NAME(.CRT$XP*))
                0x000000006613e048                ___crt_xp_end__ = .
                0x000000006613e048                ___crt_xt_start__ = .
 *(SORT_BY_NAME(.CRT$XT*))
                0x000000006613e048                ___crt_xt_end__ = .
 .CRT$XDA       0x000000006613e048        0x8 C:/GNU/MINGW64/x86_64-8.1.0-win32-seh-rt_v6-rev0/mingw64/bin/../lib/gcc/x86_64-w64-mingw32/8.1.0/../../../../x86_64-w64-mingw32/lib/../lib\libmingw32.a(lib64_libmingw32_a-tlssup.o)
 .CRT$XDZ       0x000000006613e050        0x8 C:/GNU/MINGW64/x86_64-8.1.0-win32-seh-rt_v6-rev0/mingw64/bin/../lib/gcc/x86_64-w64-mingw32/8.1.0/../../../../x86_64-w64-mingw32/lib/../lib\libmingw32.a(lib64_libmingw32_a-tlssup.o)

.tls            0x000000006613f000      0x200
                0x000000006613f000                ___tls_start__ = .
 *(.tls$AAA)
 *(.tls)
 .tls           0x000000006613f000        0x8 C:/GNU/MINGW64/x86_64-8.1.0-win32-seh-rt_v6-rev0/mingw64/bin/../lib/gcc/x86_64-w64-mingw32/8.1.0/../../../../x86_64-w64-mingw32/lib/../lib\libmingw32.a(lib64_libmingw32_a-tlssup.o)
                0x000000006613f000                _tls_start
 *(.tls$)
 *(SORT_BY_NAME(.tls$*))
 .tls$ZZZ       0x000000006613f008        0x8 C:/GNU/MINGW64/x86_64-8.1.0-win32-seh-rt_v6-rev0/mingw64/bin/../lib/gcc/x86_64-w64-mingw32/8.1.0/../../../../x86_64-w64-mingw32/lib/../lib\libmingw32.a(lib64_libmingw32_a-tlssup.o)
                0x000000006613f008                _tls_end
 *(.tls$ZZZ)
                0x000000006613f010                ___tls_end__ = .

.endjunk        0x0000000066140000        0x0
                [!provide]                        PROVIDE (end = .)
                [!provide]                        PROVIDE (_end = .)
                0x0000000066140000                __end__ = .

.rsrc           0x0000000066140000      0x400
 *(.rsrc)
 .rsrc          0x0000000066140000      0x378 ../build/x64_Release/version.o
 *(.rsrc$*)

.reloc          0x0000000066141000      0x600
 *(.reloc)
 .reloc         0x0000000066141000      0x568 dll stuff

.stab
 *(.stab)

.stabstr
 *(.stabstr)

.debug_aranges  0x0000000066142000      0x200
 *(.debug_aranges)
 .debug_aranges
                0x0000000066142000       0x30 C:/GNU/MINGW64/x86_64-8.1.0-win32-seh-rt_v6-rev0/mingw64/bin/../lib/gcc/x86_64-w64-mingw32/8.1.0\libgcc.a(_chkstk_ms.o)
 .debug_aranges
                0x0000000066142030       0x20 C:/GNU/MINGW64/x86_64-8.1.0-win32-seh-rt_v6-rev0/mingw64/bin/../lib/gcc/x86_64-w64-mingw32/8.1.0\libgcc.a(_ctors.o)
 .debug_aranges
                0x0000000066142050       0x30 C:/GNU/MINGW64/x86_64-8.1.0-win32-seh-rt_v6-rev0/mingw64/bin/../lib/gcc/x86_64-w64-mingw32/8.1.0\libgcc.a(gthr-win32.o)
 .debug_aranges
                0x0000000066142080       0x30 C:/GNU/MINGW64/x86_64-8.1.0-win32-seh-rt_v6-rev0/mingw64/bin/../lib/gcc/x86_64-w64-mingw32/8.1.0\libgcc_eh.a(unwind-seh.o)
 .debug_aranges
                0x00000000661420b0       0x30 C:/GNU/MINGW64/x86_64-8.1.0-win32-seh-rt_v6-rev0/mingw64/bin/../lib/gcc/x86_64-w64-mingw32/8.1.0\libgcc_eh.a(emutls.o)

.zdebug_aranges
 *(.zdebug_aranges)

.debug_pubnames
 *(.debug_pubnames)

.zdebug_pubnames
 *(.zdebug_pubnames)

.debug_pubtypes
 *(.debug_pubtypes)

.zdebug_pubtypes
 *(.zdebug_pubtypes)

.debug_info     0x0000000066143000    0x15e00
 *(.debug_info .gnu.linkonce.wi.*)
 .debug_info    0x0000000066143000       0x2e C:/GNU/MINGW64/x86_64-8.1.0-win32-seh-rt_v6-rev0/mingw64/bin/../lib/gcc/x86_64-w64-mingw32/8.1.0\libgcc.a(_chkstk_ms.o)
 .debug_info    0x000000006614302e     0x1eda C:/GNU/MINGW64/x86_64-8.1.0-win32-seh-rt_v6-rev0/mingw64/bin/../lib/gcc/x86_64-w64-mingw32/8.1.0\libgcc.a(_ctors.o)
 .debug_info    0x0000000066144f08     0x5636 C:/GNU/MINGW64/x86_64-8.1.0-win32-seh-rt_v6-rev0/mingw64/bin/../lib/gcc/x86_64-w64-mingw32/8.1.0\libgcc.a(gthr-win32.o)
 .debug_info    0x000000006614a53e     0x733b C:/GNU/MINGW64/x86_64-8.1.0-win32-seh-rt_v6-rev0/mingw64/bin/../lib/gcc/x86_64-w64-mingw32/8.1.0\libgcc_eh.a(unwind-seh.o)
 .debug_info    0x0000000066151879     0x7418 C:/GNU/MINGW64/x86_64-8.1.0-win32-seh-rt_v6-rev0/mingw64/bin/../lib/gcc/x86_64-w64-mingw32/8.1.0\libgcc_eh.a(emutls.o)

.zdebug_info
 *(.zdebug_info .zdebug.gnu.linkonce.wi.*)

.debug_abbrev   0x0000000066159000     0x1000
 *(.debug_abbrev)
 .debug_abbrev  0x0000000066159000       0x14 C:/GNU/MINGW64/x86_64-8.1.0-win32-seh-rt_v6-rev0/mingw64/bin/../lib/gcc/x86_64-w64-mingw32/8.1.0\libgcc.a(_chkstk_ms.o)
 .debug_abbrev  0x0000000066159014      0x135 C:/GNU/MINGW64/x86_64-8.1.0-win32-seh-rt_v6-rev0/mingw64/bin/../lib/gcc/x86_64-w64-mingw32/8.1.0\libgcc.a(_ctors.o)
 .debug_abbrev  0x0000000066159149      0x385 C:/GNU/MINGW64/x86_64-8.1.0-win32-seh-rt_v6-rev0/mingw64/bin/../lib/gcc/x86_64-w64-mingw32/8.1.0\libgcc.a(gthr-win32.o)
 .debug_abbrev  0x00000000661594ce      0x47e C:/GNU/MINGW64/x86_64-8.1.0-win32-seh-rt_v6-rev0/mingw64/bin/../lib/gcc/x86_64-w64-mingw32/8.1.0\libgcc_eh.a(unwind-seh.o)
 .debug_abbrev  0x000000006615994c      0x4cf C:/GNU/MINGW64/x86_64-8.1.0-win32-seh-rt_v6-rev0/mingw64/bin/../lib/gcc/x86_64-w64-mingw32/8.1.0\libgcc_eh.a(emutls.o)

.zdebug_abbrev
 *(.zdebug_abbrev)

.debug_line     0x000000006615a000     0x1a00
 *(.debug_line)
 .debug_line    0x000000006615a000       0x7b C:/GNU/MINGW64/x86_64-8.1.0-win32-seh-rt_v6-rev0/mingw64/bin/../lib/gcc/x86_64-w64-mingw32/8.1.0\libgcc.a(_chkstk_ms.o)
 .debug_line    0x000000006615a07b      0x1a7 C:/GNU/MINGW64/x86_64-8.1.0-win32-seh-rt_v6-rev0/mingw64/bin/../lib/gcc/x86_64-w64-mingw32/8.1.0\libgcc.a(_ctors.o)
 .debug_line    0x000000006615a222      0x6c1 C:/GNU/MINGW64/x86_64-8.1.0-win32-seh-rt_v6-rev0/mingw64/bin/../lib/gcc/x86_64-w64-mingw32/8.1.0\libgcc.a(gthr-win32.o)
 .debug_line    0x000000006615a8e3      0x758 C:/GNU/MINGW64/x86_64-8.1.0-win32-seh-rt_v6-rev0/mingw64/bin/../lib/gcc/x86_64-w64-mingw32/8.1.0\libgcc_eh.a(unwind-seh.o)
 .debug_line    0x000000006615b03b      0x82c C:/GNU/MINGW64/x86_64-8.1.0-win32-seh-rt_v6-rev0/mingw64/bin/../lib/gcc/x86_64-w64-mingw32/8.1.0\libgcc_eh.a(emutls.o)

.zdebug_line
 *(.zdebug_line)

.debug_frame    0x000000006615c000      0x800
 *(.debug_frame)
 .debug_frame   0x000000006615c000       0x48 C:/GNU/MINGW64/x86_64-8.1.0-win32-seh-rt_v6-rev0/mingw64/bin/../lib/gcc/x86_64-w64-mingw32/8.1.0\libgcc.a(_chkstk_ms.o)
 .debug_frame   0x000000006615c048      0x2d0 C:/GNU/MINGW64/x86_64-8.1.0-win32-seh-rt_v6-rev0/mingw64/bin/../lib/gcc/x86_64-w64-mingw32/8.1.0\libgcc.a(gthr-win32.o)
 .debug_frame   0x000000006615c318      0x2e8 C:/GNU/MINGW64/x86_64-8.1.0-win32-seh-rt_v6-rev0/mingw64/bin/../lib/gcc/x86_64-w64-mingw32/8.1.0\libgcc_eh.a(unwind-seh.o)
 .debug_frame   0x000000006615c600      0x140 C:/GNU/MINGW64/x86_64-8.1.0-win32-seh-rt_v6-rev0/mingw64/bin/../lib/gcc/x86_64-w64-mingw32/8.1.0\libgcc_eh.a(emutls.o)

.zdebug_frame
 *(.zdebug_frame)

.debug_str      0x000000006615d000      0x400
 *(.debug_str)
 .debug_str     0x000000006615d000       0x9b C:/GNU/MINGW64/x86_64-8.1.0-win32-seh-rt_v6-rev0/mingw64/bin/../lib/gcc/x86_64-w64-mingw32/8.1.0\libgcc.a(_chkstk_ms.o)
 .debug_str     0x000000006615d09b        0x0 C:/GNU/MINGW64/x86_64-8.1.0-win32-seh-rt_v6-rev0/mingw64/bin/../lib/gcc/x86_64-w64-mingw32/8.1.0\libgcc.a(_ctors.o)
 .debug_str     0x000000006615d09b       0xb3 C:/GNU/MINGW64/x86_64-8.1.0-win32-seh-rt_v6-rev0/mingw64/bin/../lib/gcc/x86_64-w64-mingw32/8.1.0\libgcc.a(gthr-win32.o)
 .debug_str     0x000000006615d14e       0xa6 C:/GNU/MINGW64/x86_64-8.1.0-win32-seh-rt_v6-rev0/mingw64/bin/../lib/gcc/x86_64-w64-mingw32/8.1.0\libgcc_eh.a(unwind-seh.o)
 .debug_str     0x000000006615d1f4       0xa4 C:/GNU/MINGW64/x86_64-8.1.0-win32-seh-rt_v6-rev0/mingw64/bin/../lib/gcc/x86_64-w64-mingw32/8.1.0\libgcc_eh.a(emutls.o)

.zdebug_str
 *(.zdebug_str)

.debug_loc      0x000000006615e000     0x2400
 *(.debug_loc)
 .debug_loc     0x000000006615e000      0xc70 C:/GNU/MINGW64/x86_64-8.1.0-win32-seh-rt_v6-rev0/mingw64/bin/../lib/gcc/x86_64-w64-mingw32/8.1.0\libgcc.a(gthr-win32.o)
 .debug_loc     0x000000006615ec70      0xb63 C:/GNU/MINGW64/x86_64-8.1.0-win32-seh-rt_v6-rev0/mingw64/bin/../lib/gcc/x86_64-w64-mingw32/8.1.0\libgcc_eh.a(unwind-seh.o)
 .debug_loc     0x000000006615f7d3      0xb42 C:/GNU/MINGW64/x86_64-8.1.0-win32-seh-rt_v6-rev0/mingw64/bin/../lib/gcc/x86_64-w64-mingw32/8.1.0\libgcc_eh.a(emutls.o)

.zdebug_loc
 *(.zdebug_loc)

.debug_macinfo
 *(.debug_macinfo)

.zdebug_macinfo
 *(.zdebug_macinfo)

.debug_weaknames
 *(.debug_weaknames)

.zdebug_weaknames
 *(.zdebug_weaknames)

.debug_funcnames
 *(.debug_funcnames)

.zdebug_funcnames
 *(.zdebug_funcnames)

.debug_typenames
 *(.debug_typenames)

.zdebug_typenames
 *(.zdebug_typenames)

.debug_varnames
 *(.debug_varnames)

.zdebug_varnames
 *(.zdebug_varnames)

.debug_macro
 *(.debug_macro)

.zdebug_macro
 *(.zdebug_macro)

.debug_ranges   0x0000000066161000      0x200
 *(.debug_ranges)
 .debug_ranges  0x0000000066161000       0x70 C:/GNU/MINGW64/x86_64-8.1.0-win32-seh-rt_v6-rev0/mingw64/bin/../lib/gcc/x86_64-w64-mingw32/8.1.0\libgcc.a(gthr-win32.o)
 .debug_ranges  0x0000000066161070      0x170 C:/GNU/MINGW64/x86_64-8.1.0-win32-seh-rt_v6-rev0/mingw64/bin/../lib/gcc/x86_64-w64-mingw32/8.1.0\libgcc_eh.a(emutls.o)

.zdebug_ranges
 *(.zdebug_ranges)

.debug_types
 *(.debug_types .gnu.linkonce.wt.*)

.zdebug_types
 *(.zdebug_types .zdebug.gnu.linkonce.wt.*)

.debug_gdb_scripts
 *(.debug_gdb_scripts)

.zdebug_gdb_scripts
 *(.zdebug_gdb_scripts)
OUTPUT(../../dist/Release/x64/Palmtree.Math.Core.Uint.dll pei-x86-64)
LOAD dll stuff
