	.file	"pmc_greatestcommondivisor.cpp"
	.text
	.section	.text$_ZN8Palmtree4Math4Core8Internal9ExceptionD1Ev,"x"
	.linkonce discard
	.align 2
	.p2align 4,,15
	.globl	_ZN8Palmtree4Math4Core8Internal9ExceptionD1Ev
	.def	_ZN8Palmtree4Math4Core8Internal9ExceptionD1Ev;	.scl	2;	.type	32;	.endef
	.seh_proc	_ZN8Palmtree4Math4Core8Internal9ExceptionD1Ev
_ZN8Palmtree4Math4Core8Internal9ExceptionD1Ev:
.LFB6090:
	.seh_endprologue
	leaq	16+_ZTVN8Palmtree4Math4Core8Internal9ExceptionE(%rip), %rax
	movq	%rax, (%rcx)
	jmp	_ZNSt9exceptionD2Ev
	.seh_endproc
	.section	.text$_ZN8Palmtree4Math4Core8Internal9ExceptionD0Ev,"x"
	.linkonce discard
	.align 2
	.p2align 4,,15
	.globl	_ZN8Palmtree4Math4Core8Internal9ExceptionD0Ev
	.def	_ZN8Palmtree4Math4Core8Internal9ExceptionD0Ev;	.scl	2;	.type	32;	.endef
	.seh_proc	_ZN8Palmtree4Math4Core8Internal9ExceptionD0Ev
_ZN8Palmtree4Math4Core8Internal9ExceptionD0Ev:
.LFB6091:
	pushq	%rbx
	.seh_pushreg	%rbx
	subq	$32, %rsp
	.seh_stackalloc	32
	.seh_endprologue
	leaq	16+_ZTVN8Palmtree4Math4Core8Internal9ExceptionE(%rip), %rax
	movq	%rcx, %rbx
	movq	%rax, (%rcx)
	call	_ZNSt9exceptionD2Ev
	movl	$32, %edx
	movq	%rbx, %rcx
	addq	$32, %rsp
	popq	%rbx
	jmp	_ZdlPvy
	.seh_endproc
	.section	.text$_ZN8Palmtree4Math4Core8Internal21ArgumentNullExceptionD1Ev,"x"
	.linkonce discard
	.align 2
	.p2align 4,,15
	.globl	_ZN8Palmtree4Math4Core8Internal21ArgumentNullExceptionD1Ev
	.def	_ZN8Palmtree4Math4Core8Internal21ArgumentNullExceptionD1Ev;	.scl	2;	.type	32;	.endef
	.seh_proc	_ZN8Palmtree4Math4Core8Internal21ArgumentNullExceptionD1Ev
_ZN8Palmtree4Math4Core8Internal21ArgumentNullExceptionD1Ev:
.LFB6113:
	.seh_endprologue
	leaq	16+_ZTVN8Palmtree4Math4Core8Internal9ExceptionE(%rip), %rax
	movq	%rax, (%rcx)
	jmp	_ZNSt9exceptionD2Ev
	.seh_endproc
	.section	.text$_ZN8Palmtree4Math4Core8Internal21ArgumentNullExceptionD0Ev,"x"
	.linkonce discard
	.align 2
	.p2align 4,,15
	.globl	_ZN8Palmtree4Math4Core8Internal21ArgumentNullExceptionD0Ev
	.def	_ZN8Palmtree4Math4Core8Internal21ArgumentNullExceptionD0Ev;	.scl	2;	.type	32;	.endef
	.seh_proc	_ZN8Palmtree4Math4Core8Internal21ArgumentNullExceptionD0Ev
_ZN8Palmtree4Math4Core8Internal21ArgumentNullExceptionD0Ev:
.LFB6114:
	pushq	%rbx
	.seh_pushreg	%rbx
	subq	$32, %rsp
	.seh_stackalloc	32
	.seh_endprologue
	leaq	16+_ZTVN8Palmtree4Math4Core8Internal9ExceptionE(%rip), %rax
	movq	%rcx, %rbx
	movq	%rax, (%rcx)
	call	_ZNSt9exceptionD2Ev
	movl	$32, %edx
	movq	%rbx, %rcx
	addq	$32, %rsp
	popq	%rbx
	jmp	_ZdlPvy
	.seh_endproc
	.section	.text$_ZN8Palmtree4Math4Core8Internal19ArithmeticExceptionD1Ev,"x"
	.linkonce discard
	.align 2
	.p2align 4,,15
	.globl	_ZN8Palmtree4Math4Core8Internal19ArithmeticExceptionD1Ev
	.def	_ZN8Palmtree4Math4Core8Internal19ArithmeticExceptionD1Ev;	.scl	2;	.type	32;	.endef
	.seh_proc	_ZN8Palmtree4Math4Core8Internal19ArithmeticExceptionD1Ev
_ZN8Palmtree4Math4Core8Internal19ArithmeticExceptionD1Ev:
.LFB6153:
	.seh_endprologue
	leaq	16+_ZTVN8Palmtree4Math4Core8Internal9ExceptionE(%rip), %rax
	movq	%rax, (%rcx)
	jmp	_ZNSt9exceptionD2Ev
	.seh_endproc
	.section	.text$_ZN8Palmtree4Math4Core8Internal19ArithmeticExceptionD0Ev,"x"
	.linkonce discard
	.align 2
	.p2align 4,,15
	.globl	_ZN8Palmtree4Math4Core8Internal19ArithmeticExceptionD0Ev
	.def	_ZN8Palmtree4Math4Core8Internal19ArithmeticExceptionD0Ev;	.scl	2;	.type	32;	.endef
	.seh_proc	_ZN8Palmtree4Math4Core8Internal19ArithmeticExceptionD0Ev
_ZN8Palmtree4Math4Core8Internal19ArithmeticExceptionD0Ev:
.LFB6154:
	pushq	%rbx
	.seh_pushreg	%rbx
	subq	$32, %rsp
	.seh_stackalloc	32
	.seh_endprologue
	leaq	16+_ZTVN8Palmtree4Math4Core8Internal9ExceptionE(%rip), %rax
	movq	%rcx, %rbx
	movq	%rax, (%rcx)
	call	_ZNSt9exceptionD2Ev
	movl	$32, %edx
	movq	%rbx, %rcx
	addq	$32, %rsp
	popq	%rbx
	jmp	_ZdlPvy
	.seh_endproc
	.section	.text$_ZN8Palmtree4Math4Core8Internal22InternalErrorExceptionD1Ev,"x"
	.linkonce discard
	.align 2
	.p2align 4,,15
	.globl	_ZN8Palmtree4Math4Core8Internal22InternalErrorExceptionD1Ev
	.def	_ZN8Palmtree4Math4Core8Internal22InternalErrorExceptionD1Ev;	.scl	2;	.type	32;	.endef
	.seh_proc	_ZN8Palmtree4Math4Core8Internal22InternalErrorExceptionD1Ev
_ZN8Palmtree4Math4Core8Internal22InternalErrorExceptionD1Ev:
.LFB6203:
	.seh_endprologue
	leaq	16+_ZTVN8Palmtree4Math4Core8Internal9ExceptionE(%rip), %rax
	movq	%rax, (%rcx)
	jmp	_ZNSt9exceptionD2Ev
	.seh_endproc
	.section	.text$_ZN8Palmtree4Math4Core8Internal22InternalErrorExceptionD0Ev,"x"
	.linkonce discard
	.align 2
	.p2align 4,,15
	.globl	_ZN8Palmtree4Math4Core8Internal22InternalErrorExceptionD0Ev
	.def	_ZN8Palmtree4Math4Core8Internal22InternalErrorExceptionD0Ev;	.scl	2;	.type	32;	.endef
	.seh_proc	_ZN8Palmtree4Math4Core8Internal22InternalErrorExceptionD0Ev
_ZN8Palmtree4Math4Core8Internal22InternalErrorExceptionD0Ev:
.LFB6204:
	pushq	%rbx
	.seh_pushreg	%rbx
	subq	$32, %rsp
	.seh_stackalloc	32
	.seh_endprologue
	leaq	16+_ZTVN8Palmtree4Math4Core8Internal9ExceptionE(%rip), %rax
	movq	%rcx, %rbx
	movq	%rax, (%rcx)
	call	_ZNSt9exceptionD2Ev
	movl	$32, %edx
	movq	%rbx, %rcx
	addq	$32, %rsp
	popq	%rbx
	jmp	_ZdlPvy
	.seh_endproc
	.section .rdata,"dr"
	.align 8
.LC0:
	.ascii "\210N\37gW0f0D0j0D0\263"
	.ascii "0\374"
	.ascii "0\311"
	.ascii "0k00RT\220W0~0W0_0\2"
	.ascii "0\0\0"
	.align 8
.LC1:
	.ascii "p\0m\0c\0_\0g\0r\0e\0a\0t\0e\0s\0t\0c\0o\0m\0m\0o\0n\0d\0i\0v\0i\0s\0o\0r\0.\0c\0p\0p\0;\0G\0r\0e\0a\0t\0e\0s\0t\0C\0o\0m\0m\0o\0n\0D\0i\0v\0i\0s\0o\0r\0_\0I\0m\0p\0;\0"
	.ascii "1\0\0\0"
	.text
	.p2align 4,,15
	.def	_ZN8Palmtree4Math4Core8InternalL25GreatestCommonDivisor_ImpEPyS3_yS3_S3_;	.scl	3;	.type	32;	.endef
	.seh_proc	_ZN8Palmtree4Math4Core8InternalL25GreatestCommonDivisor_ImpEPyS3_yS3_S3_
_ZN8Palmtree4Math4Core8InternalL25GreatestCommonDivisor_ImpEPyS3_yS3_S3_:
.LFB6366:
	pushq	%rbp
	.seh_pushreg	%rbp
	pushq	%rdi
	.seh_pushreg	%rdi
	pushq	%rsi
	.seh_pushreg	%rsi
	pushq	%rbx
	.seh_pushreg	%rbx
	subq	$56, %rsp
	.seh_stackalloc	56
	.seh_endprologue
	testq	%r8, %r8
	movq	%rcx, %rsi
	movq	%rdx, %rbp
	movq	%r8, %rbx
	movq	%r9, %rdi
	je	.L11
	.p2align 4,,10
.L12:
	leaq	0(,%rbx,8), %rax
	cmpq	$0, -8(%rsi,%rax)
	jne	.L13
	cmpq	$0, -8(%rbp,%rax)
	jne	.L13
	subq	$1, %rbx
	jne	.L12
.L11:
	leaq	.LC0(%rip), %rdi
	movl	$32, %ecx
	call	__cxa_allocate_exception
	leaq	_ZN8Palmtree4Math4Core8Internal22InternalErrorExceptionD1Ev(%rip), %r8
	movq	%rdi, 16(%rax)
	leaq	.LC1(%rip), %rdi
	movq	%rax, %rcx
	movq	%rdi, 24(%rax)
	leaq	16+_ZTVN8Palmtree4Math4Core8Internal22InternalErrorExceptionE(%rip), %rdi
	movl	$-256, 8(%rax)
	leaq	_ZTIN8Palmtree4Math4Core8Internal22InternalErrorExceptionE(%rip), %rdx
	movq	%rdi, (%rax)
	call	__cxa_throw
	.p2align 4,,10
.L13:
	movq	%rbx, %r8
	movq	%rbp, %rdx
	movq	%rsi, %rcx
	call	_ZN8Palmtree4Math4Core8Internal11Compare_ImpEPyS3_y
	testl	%eax, %eax
	je	.L27
	jns	.L16
	movq	%rsi, %rax
	movq	%rbp, %rsi
	movq	%rax, %rbp
.L16:
	movq	%rbx, %rdx
	movq	%rbx, 40(%rsp)
	movq	%rbx, %r9
	movq	%rbp, %r8
	movq	%rsi, 32(%rsp)
	movq	%rsi, %rcx
	call	_ZN8Palmtree4Math4Core8Internal12Subtruct_ImpEPyyS3_yS3_y
	movq	(%rsi), %rdx
	testq	%rdx, %rdx
	jne	.L20
	movq	%rsi, %rax
	xorl	%r8d, %r8d
	.p2align 4,,10
.L18:
	addq	$8, %rax
	movq	(%rax), %rdx
	addl	$64, %r8d
	testq	%rdx, %rdx
	je	.L18
.L17:
/APP
 # 523 "../pmc_inline_func.h" 1
	bsfq %rdx, %rdx
 # 0 "" 2
/NO_APP
	addl	%edx, %r8d
	testl	%r8d, %r8d
	jle	.L12
	movl	$1, 32(%rsp)
	movq	%rsi, %r9
	movslq	%r8d, %r8
	movq	%rbx, %rdx
	movq	%rsi, %rcx
	call	_ZN8Palmtree4Math4Core8Internal14RightShift_ImpEPyyyS3_i
	jmp	.L12
	.p2align 4,,10
.L20:
	xorl	%r8d, %r8d
	jmp	.L17
.L27:
	movq	%rbx, %rcx
/APP
 # 952 "C:/GNU/MINGW64/x86_64-8.1.0-win32-seh-rt_v6-rev0/mingw64/x86_64-w64-mingw32/include/psdk_inc/intrin-impl.h" 1
	rep movsq
 # 0 "" 2
/NO_APP
	movq	128(%rsp), %rax
	movq	%rbx, (%rax)
	addq	$56, %rsp
	popq	%rbx
	popq	%rsi
	popq	%rdi
	popq	%rbp
	ret
	.seh_endproc
	.section .rdata,"dr"
	.align 8
.LC2:
	.ascii "p\0m\0c\0_\0g\0r\0e\0a\0t\0e\0s\0t\0c\0o\0m\0m\0o\0n\0d\0i\0v\0i\0s\0o\0r\0.\0c\0p\0p\0;\0G\0r\0e\0a\0t\0e\0s\0t\0C\0o\0m\0m\0o\0n\0D\0i\0v\0i\0s\0o\0r\0_\0"
	.ascii "1\0W\0_\0I\0m\0p\0;\0"
	.ascii "1\0\0\0"
	.text
	.p2align 4,,15
	.def	_ZN8Palmtree4Math4Core8InternalL28GreatestCommonDivisor_1W_ImpEyy;	.scl	3;	.type	32;	.endef
	.seh_proc	_ZN8Palmtree4Math4Core8InternalL28GreatestCommonDivisor_1W_ImpEyy
_ZN8Palmtree4Math4Core8InternalL28GreatestCommonDivisor_1W_ImpEyy:
.LFB6367:
	subq	$40, %rsp
	.seh_stackalloc	40
	.seh_endprologue
	testq	%rcx, %rcx
	movq	%rcx, %rax
	je	.L49
/APP
 # 523 "../pmc_inline_func.h" 1
	bsfq %rcx, %r10
 # 0 "" 2
/NO_APP
	testq	%rdx, %rdx
	movl	%r10d, %ecx
	je	.L32
/APP
 # 523 "../pmc_inline_func.h" 1
	bsfq %rdx, %r8
 # 0 "" 2
/NO_APP
	cmpl	%r10d, %r8d
	movl	%r8d, %r9d
	movl	%r8d, %r11d
	cmovg	%r10d, %r9d
	testl	%r10d, %r10d
	jg	.L31
	testl	%r11d, %r11d
	jg	.L42
	.p2align 4,,10
.L35:
	testq	%rax, %rax
	je	.L46
.L50:
	testq	%rdx, %rdx
	je	.L46
	cmpq	%rdx, %rax
	je	.L48
	jnb	.L39
	movq	%rax, %rcx
	movq	%rdx, %rax
	movq	%rcx, %rdx
.L39:
	subq	%rdx, %rax
	je	.L44
/APP
 # 523 "../pmc_inline_func.h" 1
	bsfq %rax, %r8
 # 0 "" 2
/NO_APP
	testl	%r8d, %r8d
	movl	%r8d, %ecx
	jle	.L35
.L40:
	shrq	%cl, %rax
	testq	%rax, %rax
	jne	.L50
.L46:
	movl	$32, %ecx
	call	__cxa_allocate_exception
	leaq	.LC0(%rip), %rcx
	movq	%rcx, 16(%rax)
	leaq	.LC2(%rip), %rcx
	movq	%rcx, 24(%rax)
	leaq	16+_ZTVN8Palmtree4Math4Core8Internal22InternalErrorExceptionE(%rip), %rcx
	movq	%rcx, (%rax)
	leaq	_ZN8Palmtree4Math4Core8Internal22InternalErrorExceptionD1Ev(%rip), %r8
	movq	%rax, %rcx
	movl	$-256, 8(%rax)
	leaq	_ZTIN8Palmtree4Math4Core8Internal22InternalErrorExceptionE(%rip), %rdx
	call	__cxa_throw
	.p2align 4,,10
.L32:
	movl	$64, %r8d
	cmpl	$64, %r10d
	movl	$64, %r11d
	movl	%r8d, %r9d
	cmovle	%r10d, %r9d
	testl	%r10d, %r10d
	jle	.L42
.L30:
	shrq	%cl, %rax
	movl	$64, %r11d
.L42:
	movl	%r11d, %ecx
	shrq	%cl, %rdx
	jmp	.L35
	.p2align 4,,10
.L44:
	movl	$64, %ecx
	jmp	.L40
	.p2align 4,,10
.L48:
	movl	%r9d, %ecx
	salq	%cl, %rax
	addq	$40, %rsp
	ret
	.p2align 4,,10
.L49:
	testq	%rdx, %rdx
	je	.L43
/APP
 # 523 "../pmc_inline_func.h" 1
	bsfq %rdx, %r8
 # 0 "" 2
/NO_APP
	movl	$64, %r9d
	cmpl	$64, %r8d
	movl	%r8d, %r11d
	cmovle	%r8d, %r9d
	movl	$64, %ecx
.L31:
	shrq	%cl, %rax
	testl	%r11d, %r11d
	jle	.L35
	jmp	.L42
.L43:
	movl	$64, %r9d
	movl	$64, %ecx
	jmp	.L30
	.seh_endproc
	.p2align 4,,15
	.globl	_ZN8Palmtree4Math4Core8Internal32Initialize_GreatestCommonDivisorEPNS2_23_tag_PROCESSOR_FEATURESE
	.def	_ZN8Palmtree4Math4Core8Internal32Initialize_GreatestCommonDivisorEPNS2_23_tag_PROCESSOR_FEATURESE;	.scl	2;	.type	32;	.endef
	.seh_proc	_ZN8Palmtree4Math4Core8Internal32Initialize_GreatestCommonDivisorEPNS2_23_tag_PROCESSOR_FEATURESE
_ZN8Palmtree4Math4Core8Internal32Initialize_GreatestCommonDivisorEPNS2_23_tag_PROCESSOR_FEATURESE:
.LFB6379:
	.seh_endprologue
	xorl	%eax, %eax
	ret
	.seh_endproc
	.section .rdata,"dr"
	.align 8
.LC3:
	.ascii "\25_peL02\0d0h0\202"
	.ascii "00\0j0n0g0G\0C\0D\0\222"
	.ascii "0\0N\17ak0Bl\201"
	.ascii "0\213"
	.ascii "0S0h0L0g0M0~0[0\223"
	.ascii "0\2"
	.ascii "0\0\0"
	.text
	.p2align 4,,15
	.def	_ZN8Palmtree4Math4Core8InternalL33PMC_GreatestCommonDivisor_X_I_ImpEPNS2_19__tag_NUMBER_HEADEREj;	.scl	3;	.type	32;	.endef
	.seh_proc	_ZN8Palmtree4Math4Core8InternalL33PMC_GreatestCommonDivisor_X_I_ImpEPNS2_19__tag_NUMBER_HEADEREj
_ZN8Palmtree4Math4Core8InternalL33PMC_GreatestCommonDivisor_X_I_ImpEPNS2_19__tag_NUMBER_HEADEREj:
.LFB6368:
	pushq	%r15
	.seh_pushreg	%r15
	pushq	%r14
	.seh_pushreg	%r14
	pushq	%r13
	.seh_pushreg	%r13
	pushq	%r12
	.seh_pushreg	%r12
	pushq	%rbp
	.seh_pushreg	%rbp
	pushq	%rdi
	.seh_pushreg	%rdi
	pushq	%rsi
	.seh_pushreg	%rsi
	pushq	%rbx
	.seh_pushreg	%rbx
	subq	$120, %rsp
	.seh_stackalloc	120
	.seh_endprologue
	testb	$1, 8(%rcx)
	movq	%rcx, %rsi
	movl	%edx, %ebx
	je	.L53
	testl	%edx, %edx
	je	.L65
	movl	%edx, %ecx
.LEHB0:
	call	_ZN8Palmtree4Math4Core8Internal10From_I_ImpEj
	movq	%rax, %rbp
.L52:
	movq	%rbp, %rax
	addq	$120, %rsp
	popq	%rbx
	popq	%rsi
	popq	%rdi
	popq	%rbp
	popq	%r12
	popq	%r13
	popq	%r14
	popq	%r15
	ret
	.p2align 4,,10
.L53:
	testl	%edx, %edx
	jne	.L56
	call	_ZN8Palmtree4Math4Core8Internal15DuplicateNumberEPNS2_19__tag_NUMBER_HEADERE
	movq	%rax, %rbp
	jmp	.L52
	.p2align 4,,10
.L56:
	leaq	80(%rsp), %r12
	movq	%r12, %rcx
	call	_ZN8Palmtree4Math4Core8Internal18ResourceHolderUINTC1Ev
.LEHE0:
	cmpq	$1, 24(%rsi)
	jbe	.L66
	movq	32(%rsi), %r8
	movl	$31, %eax
	movl	$32, %r13d
	movq	%r12, %rcx
/APP
 # 428 "../pmc_inline_func.h" 1
	bsrl %ebx, %edx
 # 0 "" 2
/NO_APP
	subl	%edx, %eax
	cltq
	subq	%rax, %r13
	cmpq	%r8, %r13
	cmovb	%r8, %r13
	movq	%r13, %rdx
.LEHB1:
	call	_ZN8Palmtree4Math4Core8Internal18ResourceHolderUINT13AllocateBlockEy
	movq	%r13, %rdx
	movq	%r12, %rcx
	movq	%rax, %r14
	call	_ZN8Palmtree4Math4Core8Internal18ResourceHolderUINT13AllocateBlockEy
	movq	%r13, %rdx
	movq	%r12, %rcx
	movq	%rax, %r15
	call	_ZN8Palmtree4Math4Core8Internal18ResourceHolderUINT14AllocateNumberEy
	movq	40(%rsi), %r8
	movq	%rax, %rbp
	movl	%ebx, %eax
/APP
 # 523 "../pmc_inline_func.h" 1
	bsfq %rax, %rax
 # 0 "" 2
/NO_APP
	cltq
	movq	24(%rsi), %rcx
	movq	%rax, 48(%rsp)
	movq	64(%rsi), %rsi
	cmpq	%rax, %r8
	cmovbe	%r8, %rax
	testq	%r8, %r8
	movq	%rax, 56(%rsp)
	jne	.L67
	movq	%r14, %rdi
/APP
 # 952 "C:/GNU/MINGW64/x86_64-8.1.0-win32-seh-rt_v6-rev0/mingw64/x86_64-w64-mingw32/include/psdk_inc/intrin-impl.h" 1
	rep movsq
 # 0 "" 2
/NO_APP
.L60:
	movzbl	48(%rsp), %ecx
	leaq	63(%r13), %r8
	movq	%r15, %rdx
	movq	64(%rbp), %r9
	shrq	$6, %r8
	shrl	%cl, %ebx
	movq	%r14, %rcx
	movl	%ebx, %eax
	movq	%rax, (%r15)
	leaq	72(%rsp), %rax
	movq	%rax, 32(%rsp)
	call	_ZN8Palmtree4Math4Core8InternalL25GreatestCommonDivisor_ImpEPyS3_yS3_S3_
	movq	%r14, %rdx
	movq	%r12, %rcx
	call	_ZN8Palmtree4Math4Core8Internal18ResourceHolderUINT10CheckBlockEPy
	movq	%r15, %rdx
	movq	%r12, %rcx
	call	_ZN8Palmtree4Math4Core8Internal18ResourceHolderUINT10CheckBlockEPy
	movq	%rbp, %rdx
	movq	%r12, %rcx
	call	_ZN8Palmtree4Math4Core8Internal18ResourceHolderUINT11CheckNumberEPNS2_19__tag_NUMBER_HEADERE
	movq	%r15, %rdx
	movq	%r12, %rcx
	call	_ZN8Palmtree4Math4Core8Internal18ResourceHolderUINT15DeallocateBlockEPy
	movq	%r14, %rdx
	movq	%r12, %rcx
	call	_ZN8Palmtree4Math4Core8Internal18ResourceHolderUINT15DeallocateBlockEPy
	movq	64(%rbp), %rcx
	movl	$1, 32(%rsp)
	movq	56(%rsp), %r8
	movq	72(%rsp), %rdx
	movq	%rcx, %r9
	call	_ZN8Palmtree4Math4Core8Internal13LeftShift_ImpEPyyyS3_i
	movq	%rbp, %rdx
	movq	%r12, %rcx
	call	_ZN8Palmtree4Math4Core8Internal18ResourceHolderUINT11CheckNumberEPNS2_19__tag_NUMBER_HEADERE
.L64:
	movq	%rbp, %rcx
	call	_ZN8Palmtree4Math4Core8Internal12CommitNumberEPNS2_19__tag_NUMBER_HEADERE
	movq	%rbp, %rdx
	movq	%r12, %rcx
	call	_ZN8Palmtree4Math4Core8Internal18ResourceHolderUINT12UnlinkNumberEPNS2_19__tag_NUMBER_HEADERE
	movq	%r12, %rcx
	call	_ZN8Palmtree4Math4Core8Internal18ResourceHolderUINTD1Ev
	jmp	.L52
	.p2align 4,,10
.L67:
	movq	%rcx, %rdx
	movl	$0, 32(%rsp)
	movq	%r14, %r9
	movq	%rsi, %rcx
	call	_ZN8Palmtree4Math4Core8Internal14RightShift_ImpEPyyyS3_i
.LEHE1:
	jmp	.L60
.L65:
	leaq	.LC3(%rip), %rdi
	movl	$32, %ecx
	call	__cxa_allocate_exception
	leaq	_ZN8Palmtree4Math4Core8Internal19ArithmeticExceptionD1Ev(%rip), %r8
	movq	%rdi, 16(%rax)
	leaq	16+_ZTVN8Palmtree4Math4Core8Internal19ArithmeticExceptionE(%rip), %rdi
	movq	%rax, %rcx
	movl	$-6, 8(%rax)
	leaq	_ZTIN8Palmtree4Math4Core8Internal19ArithmeticExceptionE(%rip), %rdx
	movq	$0, 24(%rax)
	movq	%rdi, (%rax)
.LEHB2:
	call	__cxa_throw
.LEHE2:
	.p2align 4,,10
.L66:
	movl	$64, %edx
	movq	%r12, %rcx
.LEHB3:
	call	_ZN8Palmtree4Math4Core8Internal18ResourceHolderUINT14AllocateNumberEy
	movq	%rax, %rbp
	movq	64(%rax), %rdi
	movl	%ebx, %edx
	movq	64(%rsi), %rax
	movq	(%rax), %rcx
	call	_ZN8Palmtree4Math4Core8InternalL28GreatestCommonDivisor_1W_ImpEyy
	movq	%rax, (%rdi)
	movq	%rbp, %rdx
	movq	%r12, %rcx
	call	_ZN8Palmtree4Math4Core8Internal18ResourceHolderUINT11CheckNumberEPNS2_19__tag_NUMBER_HEADERE
.LEHE3:
	jmp	.L64
.L62:
	movq	%rax, %rbx
	movq	%r12, %rcx
	call	_ZN8Palmtree4Math4Core8Internal18ResourceHolderUINTD1Ev
	movq	%rbx, %rcx
.LEHB4:
	call	_Unwind_Resume
	nop
.LEHE4:
	.def	__gxx_personality_seh0;	.scl	2;	.type	32;	.endef
	.seh_handler	__gxx_personality_seh0, @unwind, @except
	.seh_handlerdata
.LLSDA6368:
	.byte	0xff
	.byte	0xff
	.byte	0x1
	.uleb128 .LLSDACSE6368-.LLSDACSB6368
.LLSDACSB6368:
	.uleb128 .LEHB0-.LFB6368
	.uleb128 .LEHE0-.LEHB0
	.uleb128 0
	.uleb128 0
	.uleb128 .LEHB1-.LFB6368
	.uleb128 .LEHE1-.LEHB1
	.uleb128 .L62-.LFB6368
	.uleb128 0
	.uleb128 .LEHB2-.LFB6368
	.uleb128 .LEHE2-.LEHB2
	.uleb128 0
	.uleb128 0
	.uleb128 .LEHB3-.LFB6368
	.uleb128 .LEHE3-.LEHB3
	.uleb128 .L62-.LFB6368
	.uleb128 0
	.uleb128 .LEHB4-.LFB6368
	.uleb128 .LEHE4-.LEHB4
	.uleb128 0
	.uleb128 0
.LLSDACSE6368:
	.text
	.seh_endproc
	.section .rdata,"dr"
	.align 8
.LC4:
	.ascii "\25_pek0n\0u\0l\0l\0p\0t\0r\0L0\16NH0\211"
	.ascii "0\214"
	.ascii "0f0D0~0Y0\2"
	.ascii "0\0\0"
	.align 2
.LC5:
	.ascii "v\0\0\0"
	.text
	.p2align 4,,15
	.globl	_ZN8Palmtree4Math4Core8Internal29PMC_GreatestCommonDivisor_I_XEjPNS2_21__tag_PMC_HANDLE_UINTE
	.def	_ZN8Palmtree4Math4Core8Internal29PMC_GreatestCommonDivisor_I_XEjPNS2_21__tag_PMC_HANDLE_UINTE;	.scl	2;	.type	32;	.endef
	.seh_proc	_ZN8Palmtree4Math4Core8Internal29PMC_GreatestCommonDivisor_I_XEjPNS2_21__tag_PMC_HANDLE_UINTE
_ZN8Palmtree4Math4Core8Internal29PMC_GreatestCommonDivisor_I_XEjPNS2_21__tag_PMC_HANDLE_UINTE:
.LFB6374:
	pushq	%rdi
	.seh_pushreg	%rdi
	pushq	%rsi
	.seh_pushreg	%rsi
	pushq	%rbx
	.seh_pushreg	%rbx
	subq	$64, %rsp
	.seh_stackalloc	64
	.seh_endprologue
	testq	%rdx, %rdx
	movl	%ecx, %edi
	movq	%rdx, %rsi
	je	.L74
	leaq	32(%rsp), %rbx
	movq	%rdx, %rcx
.LEHB5:
	call	_ZN8Palmtree4Math4Core8Internal11CheckNumberEPNS2_19__tag_NUMBER_HEADERE
	movq	%rbx, %rcx
	call	_ZN8Palmtree4Math4Core8Internal18ResourceHolderUINTC1Ev
.LEHE5:
	movl	%edi, %edx
	movq	%rsi, %rcx
.LEHB6:
	call	_ZN8Palmtree4Math4Core8InternalL33PMC_GreatestCommonDivisor_X_I_ImpEPNS2_19__tag_NUMBER_HEADEREj
	movq	%rax, %rdx
	movq	%rbx, %rcx
	movq	%rax, %rsi
	call	_ZN8Palmtree4Math4Core8Internal18ResourceHolderUINT10HookNumberEPNS2_19__tag_NUMBER_HEADERE
	movq	%rsi, %rdx
	movq	%rbx, %rcx
	call	_ZN8Palmtree4Math4Core8Internal18ResourceHolderUINT12UnlinkNumberEPNS2_19__tag_NUMBER_HEADERE
.LEHE6:
	movq	%rbx, %rcx
	call	_ZN8Palmtree4Math4Core8Internal18ResourceHolderUINTD1Ev
	movq	%rsi, %rax
	addq	$64, %rsp
	popq	%rbx
	popq	%rsi
	popq	%rdi
	ret
.L74:
	leaq	.LC4(%rip), %rdi
	movl	$32, %ecx
	call	__cxa_allocate_exception
	leaq	_ZN8Palmtree4Math4Core8Internal21ArgumentNullExceptionD1Ev(%rip), %r8
	movq	%rdi, 16(%rax)
	leaq	.LC5(%rip), %rdi
	movq	%rax, %rcx
	movq	%rdi, 24(%rax)
	leaq	16+_ZTVN8Palmtree4Math4Core8Internal21ArgumentNullExceptionE(%rip), %rdi
	movl	$-2, 8(%rax)
	leaq	_ZTIN8Palmtree4Math4Core8Internal21ArgumentNullExceptionE(%rip), %rdx
	movq	%rdi, (%rax)
.LEHB7:
	call	__cxa_throw
.L71:
	movq	%rax, %rsi
	movq	%rbx, %rcx
	call	_ZN8Palmtree4Math4Core8Internal18ResourceHolderUINTD1Ev
	movq	%rsi, %rcx
	call	_Unwind_Resume
	nop
.LEHE7:
	.seh_handler	__gxx_personality_seh0, @unwind, @except
	.seh_handlerdata
.LLSDA6374:
	.byte	0xff
	.byte	0xff
	.byte	0x1
	.uleb128 .LLSDACSE6374-.LLSDACSB6374
.LLSDACSB6374:
	.uleb128 .LEHB5-.LFB6374
	.uleb128 .LEHE5-.LEHB5
	.uleb128 0
	.uleb128 0
	.uleb128 .LEHB6-.LFB6374
	.uleb128 .LEHE6-.LEHB6
	.uleb128 .L71-.LFB6374
	.uleb128 0
	.uleb128 .LEHB7-.LFB6374
	.uleb128 .LEHE7-.LEHB7
	.uleb128 0
	.uleb128 0
.LLSDACSE6374:
	.text
	.seh_endproc
	.section .rdata,"dr"
	.align 2
.LC6:
	.ascii "u\0\0\0"
	.text
	.p2align 4,,15
	.globl	_ZN8Palmtree4Math4Core8Internal29PMC_GreatestCommonDivisor_X_IEPNS2_21__tag_PMC_HANDLE_UINTEj
	.def	_ZN8Palmtree4Math4Core8Internal29PMC_GreatestCommonDivisor_X_IEPNS2_21__tag_PMC_HANDLE_UINTEj;	.scl	2;	.type	32;	.endef
	.seh_proc	_ZN8Palmtree4Math4Core8Internal29PMC_GreatestCommonDivisor_X_IEPNS2_21__tag_PMC_HANDLE_UINTEj
_ZN8Palmtree4Math4Core8Internal29PMC_GreatestCommonDivisor_X_IEPNS2_21__tag_PMC_HANDLE_UINTEj:
.LFB6375:
	pushq	%rdi
	.seh_pushreg	%rdi
	pushq	%rsi
	.seh_pushreg	%rsi
	pushq	%rbx
	.seh_pushreg	%rbx
	subq	$64, %rsp
	.seh_stackalloc	64
	.seh_endprologue
	testq	%rcx, %rcx
	movq	%rcx, %rsi
	movl	%edx, %edi
	je	.L81
.LEHB8:
	call	_ZN8Palmtree4Math4Core8Internal11CheckNumberEPNS2_19__tag_NUMBER_HEADERE
	leaq	32(%rsp), %rbx
	movq	%rbx, %rcx
	call	_ZN8Palmtree4Math4Core8Internal18ResourceHolderUINTC1Ev
.LEHE8:
	movl	%edi, %edx
	movq	%rsi, %rcx
.LEHB9:
	call	_ZN8Palmtree4Math4Core8InternalL33PMC_GreatestCommonDivisor_X_I_ImpEPNS2_19__tag_NUMBER_HEADEREj
	movq	%rax, %rdx
	movq	%rbx, %rcx
	movq	%rax, %rsi
	call	_ZN8Palmtree4Math4Core8Internal18ResourceHolderUINT10HookNumberEPNS2_19__tag_NUMBER_HEADERE
	movq	%rsi, %rdx
	movq	%rbx, %rcx
	call	_ZN8Palmtree4Math4Core8Internal18ResourceHolderUINT12UnlinkNumberEPNS2_19__tag_NUMBER_HEADERE
.LEHE9:
	movq	%rbx, %rcx
	call	_ZN8Palmtree4Math4Core8Internal18ResourceHolderUINTD1Ev
	movq	%rsi, %rax
	addq	$64, %rsp
	popq	%rbx
	popq	%rsi
	popq	%rdi
	ret
.L81:
	leaq	.LC4(%rip), %rdi
	movl	$32, %ecx
	call	__cxa_allocate_exception
	leaq	_ZN8Palmtree4Math4Core8Internal21ArgumentNullExceptionD1Ev(%rip), %r8
	movq	%rdi, 16(%rax)
	leaq	.LC6(%rip), %rdi
	movq	%rax, %rcx
	movq	%rdi, 24(%rax)
	leaq	16+_ZTVN8Palmtree4Math4Core8Internal21ArgumentNullExceptionE(%rip), %rdi
	movl	$-2, 8(%rax)
	leaq	_ZTIN8Palmtree4Math4Core8Internal21ArgumentNullExceptionE(%rip), %rdx
	movq	%rdi, (%rax)
.LEHB10:
	call	__cxa_throw
.L78:
	movq	%rax, %rsi
	movq	%rbx, %rcx
	call	_ZN8Palmtree4Math4Core8Internal18ResourceHolderUINTD1Ev
	movq	%rsi, %rcx
	call	_Unwind_Resume
	nop
.LEHE10:
	.seh_handler	__gxx_personality_seh0, @unwind, @except
	.seh_handlerdata
.LLSDA6375:
	.byte	0xff
	.byte	0xff
	.byte	0x1
	.uleb128 .LLSDACSE6375-.LLSDACSB6375
.LLSDACSB6375:
	.uleb128 .LEHB8-.LFB6375
	.uleb128 .LEHE8-.LEHB8
	.uleb128 0
	.uleb128 0
	.uleb128 .LEHB9-.LFB6375
	.uleb128 .LEHE9-.LEHB9
	.uleb128 .L78-.LFB6375
	.uleb128 0
	.uleb128 .LEHB10-.LFB6375
	.uleb128 .LEHE10-.LEHB10
	.uleb128 0
	.uleb128 0
.LLSDACSE6375:
	.text
	.seh_endproc
	.p2align 4,,15
	.def	_ZN8Palmtree4Math4Core8InternalL33PMC_GreatestCommonDivisor_X_L_ImpEPNS2_19__tag_NUMBER_HEADEREy;	.scl	3;	.type	32;	.endef
	.seh_proc	_ZN8Palmtree4Math4Core8InternalL33PMC_GreatestCommonDivisor_X_L_ImpEPNS2_19__tag_NUMBER_HEADEREy
_ZN8Palmtree4Math4Core8InternalL33PMC_GreatestCommonDivisor_X_L_ImpEPNS2_19__tag_NUMBER_HEADEREy:
.LFB6372:
	pushq	%r15
	.seh_pushreg	%r15
	pushq	%r14
	.seh_pushreg	%r14
	pushq	%r13
	.seh_pushreg	%r13
	pushq	%r12
	.seh_pushreg	%r12
	pushq	%rbp
	.seh_pushreg	%rbp
	pushq	%rdi
	.seh_pushreg	%rdi
	pushq	%rsi
	.seh_pushreg	%rsi
	pushq	%rbx
	.seh_pushreg	%rbx
	subq	$120, %rsp
	.seh_stackalloc	120
	.seh_endprologue
	testb	$1, 8(%rcx)
	movq	%rcx, %rsi
	movq	%rdx, %rbx
	je	.L83
	testq	%rdx, %rdx
	je	.L95
	movq	%rdx, %rcx
.LEHB11:
	call	_ZN8Palmtree4Math4Core8Internal10From_L_ImpEy
	movq	%rax, %rbp
.L82:
	movq	%rbp, %rax
	addq	$120, %rsp
	popq	%rbx
	popq	%rsi
	popq	%rdi
	popq	%rbp
	popq	%r12
	popq	%r13
	popq	%r14
	popq	%r15
	ret
	.p2align 4,,10
.L83:
	testq	%rdx, %rdx
	jne	.L86
	call	_ZN8Palmtree4Math4Core8Internal15DuplicateNumberEPNS2_19__tag_NUMBER_HEADERE
	movq	%rax, %rbp
	jmp	.L82
	.p2align 4,,10
.L86:
	leaq	80(%rsp), %r12
	movq	%r12, %rcx
	call	_ZN8Palmtree4Math4Core8Internal18ResourceHolderUINTC1Ev
.LEHE11:
	cmpq	$1, 24(%rsi)
	jbe	.L96
	movq	32(%rsi), %r8
	movl	$63, %eax
	movl	$64, %r13d
	movq	%r12, %rcx
/APP
 # 472 "../pmc_inline_func.h" 1
	bsrq %rbx, %rdx
 # 0 "" 2
/NO_APP
	subl	%edx, %eax
	cltq
	subq	%rax, %r13
	cmpq	%r8, %r13
	cmovb	%r8, %r13
	movq	%r13, %rdx
.LEHB12:
	call	_ZN8Palmtree4Math4Core8Internal18ResourceHolderUINT13AllocateBlockEy
	movq	%r13, %rdx
	movq	%r12, %rcx
	movq	%rax, %r14
	call	_ZN8Palmtree4Math4Core8Internal18ResourceHolderUINT13AllocateBlockEy
	movq	%r13, %rdx
	movq	%r12, %rcx
	movq	%rax, %r15
	call	_ZN8Palmtree4Math4Core8Internal18ResourceHolderUINT14AllocateNumberEy
	movq	40(%rsi), %r8
	movq	%rax, %rbp
/APP
 # 523 "../pmc_inline_func.h" 1
	bsfq %rbx, %rax
 # 0 "" 2
/NO_APP
	cltq
	movq	24(%rsi), %rcx
	movq	%rax, 48(%rsp)
	movq	64(%rsi), %rsi
	cmpq	%r8, %rax
	cmova	%r8, %rax
	testq	%r8, %r8
	movq	%rax, 56(%rsp)
	jne	.L97
	movq	%r14, %rdi
/APP
 # 952 "C:/GNU/MINGW64/x86_64-8.1.0-win32-seh-rt_v6-rev0/mingw64/x86_64-w64-mingw32/include/psdk_inc/intrin-impl.h" 1
	rep movsq
 # 0 "" 2
/NO_APP
.L90:
	movzbl	48(%rsp), %ecx
	leaq	63(%r13), %r8
	movq	%r15, %rdx
	movq	64(%rbp), %r9
	leaq	72(%rsp), %rax
	shrq	$6, %r8
	shrq	%cl, %rbx
	movq	%r14, %rcx
	movq	%rbx, (%r15)
	movq	%rax, 32(%rsp)
	call	_ZN8Palmtree4Math4Core8InternalL25GreatestCommonDivisor_ImpEPyS3_yS3_S3_
	movq	%r14, %rdx
	movq	%r12, %rcx
	call	_ZN8Palmtree4Math4Core8Internal18ResourceHolderUINT10CheckBlockEPy
	movq	%r15, %rdx
	movq	%r12, %rcx
	call	_ZN8Palmtree4Math4Core8Internal18ResourceHolderUINT10CheckBlockEPy
	movq	%rbp, %rdx
	movq	%r12, %rcx
	call	_ZN8Palmtree4Math4Core8Internal18ResourceHolderUINT11CheckNumberEPNS2_19__tag_NUMBER_HEADERE
	movq	%r15, %rdx
	movq	%r12, %rcx
	call	_ZN8Palmtree4Math4Core8Internal18ResourceHolderUINT15DeallocateBlockEPy
	movq	%r14, %rdx
	movq	%r12, %rcx
	call	_ZN8Palmtree4Math4Core8Internal18ResourceHolderUINT15DeallocateBlockEPy
	movq	64(%rbp), %rcx
	movl	$1, 32(%rsp)
	movq	56(%rsp), %r8
	movq	72(%rsp), %rdx
	movq	%rcx, %r9
	call	_ZN8Palmtree4Math4Core8Internal13LeftShift_ImpEPyyyS3_i
	movq	%rbp, %rdx
	movq	%r12, %rcx
	call	_ZN8Palmtree4Math4Core8Internal18ResourceHolderUINT11CheckNumberEPNS2_19__tag_NUMBER_HEADERE
.L94:
	movq	%rbp, %rcx
	call	_ZN8Palmtree4Math4Core8Internal12CommitNumberEPNS2_19__tag_NUMBER_HEADERE
	movq	%rbp, %rdx
	movq	%r12, %rcx
	call	_ZN8Palmtree4Math4Core8Internal18ResourceHolderUINT12UnlinkNumberEPNS2_19__tag_NUMBER_HEADERE
	movq	%r12, %rcx
	call	_ZN8Palmtree4Math4Core8Internal18ResourceHolderUINTD1Ev
	jmp	.L82
	.p2align 4,,10
.L97:
	movq	%rcx, %rdx
	movl	$0, 32(%rsp)
	movq	%r14, %r9
	movq	%rsi, %rcx
	call	_ZN8Palmtree4Math4Core8Internal14RightShift_ImpEPyyyS3_i
.LEHE12:
	jmp	.L90
.L95:
	leaq	.LC3(%rip), %rdi
	movl	$32, %ecx
	call	__cxa_allocate_exception
	leaq	_ZN8Palmtree4Math4Core8Internal19ArithmeticExceptionD1Ev(%rip), %r8
	movq	%rdi, 16(%rax)
	leaq	16+_ZTVN8Palmtree4Math4Core8Internal19ArithmeticExceptionE(%rip), %rdi
	movq	%rax, %rcx
	movl	$-6, 8(%rax)
	leaq	_ZTIN8Palmtree4Math4Core8Internal19ArithmeticExceptionE(%rip), %rdx
	movq	$0, 24(%rax)
	movq	%rdi, (%rax)
.LEHB13:
	call	__cxa_throw
.LEHE13:
	.p2align 4,,10
.L96:
	movl	$64, %edx
	movq	%r12, %rcx
.LEHB14:
	call	_ZN8Palmtree4Math4Core8Internal18ResourceHolderUINT14AllocateNumberEy
	movq	%rax, %rbp
	movq	64(%rax), %rdi
	movq	%rbx, %rdx
	movq	64(%rsi), %rax
	movq	(%rax), %rcx
	call	_ZN8Palmtree4Math4Core8InternalL28GreatestCommonDivisor_1W_ImpEyy
	movq	%rax, (%rdi)
	movq	%rbp, %rdx
	movq	%r12, %rcx
	call	_ZN8Palmtree4Math4Core8Internal18ResourceHolderUINT11CheckNumberEPNS2_19__tag_NUMBER_HEADERE
.LEHE14:
	jmp	.L94
.L92:
	movq	%rax, %rbx
	movq	%r12, %rcx
	call	_ZN8Palmtree4Math4Core8Internal18ResourceHolderUINTD1Ev
	movq	%rbx, %rcx
.LEHB15:
	call	_Unwind_Resume
	nop
.LEHE15:
	.seh_handler	__gxx_personality_seh0, @unwind, @except
	.seh_handlerdata
.LLSDA6372:
	.byte	0xff
	.byte	0xff
	.byte	0x1
	.uleb128 .LLSDACSE6372-.LLSDACSB6372
.LLSDACSB6372:
	.uleb128 .LEHB11-.LFB6372
	.uleb128 .LEHE11-.LEHB11
	.uleb128 0
	.uleb128 0
	.uleb128 .LEHB12-.LFB6372
	.uleb128 .LEHE12-.LEHB12
	.uleb128 .L92-.LFB6372
	.uleb128 0
	.uleb128 .LEHB13-.LFB6372
	.uleb128 .LEHE13-.LEHB13
	.uleb128 0
	.uleb128 0
	.uleb128 .LEHB14-.LFB6372
	.uleb128 .LEHE14-.LEHB14
	.uleb128 .L92-.LFB6372
	.uleb128 0
	.uleb128 .LEHB15-.LFB6372
	.uleb128 .LEHE15-.LEHB15
	.uleb128 0
	.uleb128 0
.LLSDACSE6372:
	.text
	.seh_endproc
	.p2align 4,,15
	.globl	_ZN8Palmtree4Math4Core8Internal29PMC_GreatestCommonDivisor_L_XEyPNS2_21__tag_PMC_HANDLE_UINTE
	.def	_ZN8Palmtree4Math4Core8Internal29PMC_GreatestCommonDivisor_L_XEyPNS2_21__tag_PMC_HANDLE_UINTE;	.scl	2;	.type	32;	.endef
	.seh_proc	_ZN8Palmtree4Math4Core8Internal29PMC_GreatestCommonDivisor_L_XEyPNS2_21__tag_PMC_HANDLE_UINTE
_ZN8Palmtree4Math4Core8Internal29PMC_GreatestCommonDivisor_L_XEyPNS2_21__tag_PMC_HANDLE_UINTE:
.LFB6376:
	pushq	%rdi
	.seh_pushreg	%rdi
	pushq	%rsi
	.seh_pushreg	%rsi
	pushq	%rbx
	.seh_pushreg	%rbx
	subq	$64, %rsp
	.seh_stackalloc	64
	.seh_endprologue
	testq	%rdx, %rdx
	movq	%rcx, %rdi
	movq	%rdx, %rsi
	je	.L104
	leaq	32(%rsp), %rbx
	movq	%rdx, %rcx
.LEHB16:
	call	_ZN8Palmtree4Math4Core8Internal11CheckNumberEPNS2_19__tag_NUMBER_HEADERE
	movq	%rbx, %rcx
	call	_ZN8Palmtree4Math4Core8Internal18ResourceHolderUINTC1Ev
.LEHE16:
	movq	%rdi, %rdx
	movq	%rsi, %rcx
.LEHB17:
	call	_ZN8Palmtree4Math4Core8InternalL33PMC_GreatestCommonDivisor_X_L_ImpEPNS2_19__tag_NUMBER_HEADEREy
	movq	%rax, %rdx
	movq	%rbx, %rcx
	movq	%rax, %rsi
	call	_ZN8Palmtree4Math4Core8Internal18ResourceHolderUINT10HookNumberEPNS2_19__tag_NUMBER_HEADERE
	movq	%rsi, %rdx
	movq	%rbx, %rcx
	call	_ZN8Palmtree4Math4Core8Internal18ResourceHolderUINT12UnlinkNumberEPNS2_19__tag_NUMBER_HEADERE
.LEHE17:
	movq	%rbx, %rcx
	call	_ZN8Palmtree4Math4Core8Internal18ResourceHolderUINTD1Ev
	movq	%rsi, %rax
	addq	$64, %rsp
	popq	%rbx
	popq	%rsi
	popq	%rdi
	ret
.L104:
	leaq	.LC4(%rip), %rdi
	movl	$32, %ecx
	call	__cxa_allocate_exception
	leaq	_ZN8Palmtree4Math4Core8Internal21ArgumentNullExceptionD1Ev(%rip), %r8
	movq	%rdi, 16(%rax)
	leaq	.LC5(%rip), %rdi
	movq	%rax, %rcx
	movq	%rdi, 24(%rax)
	leaq	16+_ZTVN8Palmtree4Math4Core8Internal21ArgumentNullExceptionE(%rip), %rdi
	movl	$-2, 8(%rax)
	leaq	_ZTIN8Palmtree4Math4Core8Internal21ArgumentNullExceptionE(%rip), %rdx
	movq	%rdi, (%rax)
.LEHB18:
	call	__cxa_throw
.L101:
	movq	%rax, %rsi
	movq	%rbx, %rcx
	call	_ZN8Palmtree4Math4Core8Internal18ResourceHolderUINTD1Ev
	movq	%rsi, %rcx
	call	_Unwind_Resume
	nop
.LEHE18:
	.seh_handler	__gxx_personality_seh0, @unwind, @except
	.seh_handlerdata
.LLSDA6376:
	.byte	0xff
	.byte	0xff
	.byte	0x1
	.uleb128 .LLSDACSE6376-.LLSDACSB6376
.LLSDACSB6376:
	.uleb128 .LEHB16-.LFB6376
	.uleb128 .LEHE16-.LEHB16
	.uleb128 0
	.uleb128 0
	.uleb128 .LEHB17-.LFB6376
	.uleb128 .LEHE17-.LEHB17
	.uleb128 .L101-.LFB6376
	.uleb128 0
	.uleb128 .LEHB18-.LFB6376
	.uleb128 .LEHE18-.LEHB18
	.uleb128 0
	.uleb128 0
.LLSDACSE6376:
	.text
	.seh_endproc
	.p2align 4,,15
	.globl	_ZN8Palmtree4Math4Core8Internal29PMC_GreatestCommonDivisor_X_LEPNS2_21__tag_PMC_HANDLE_UINTEy
	.def	_ZN8Palmtree4Math4Core8Internal29PMC_GreatestCommonDivisor_X_LEPNS2_21__tag_PMC_HANDLE_UINTEy;	.scl	2;	.type	32;	.endef
	.seh_proc	_ZN8Palmtree4Math4Core8Internal29PMC_GreatestCommonDivisor_X_LEPNS2_21__tag_PMC_HANDLE_UINTEy
_ZN8Palmtree4Math4Core8Internal29PMC_GreatestCommonDivisor_X_LEPNS2_21__tag_PMC_HANDLE_UINTEy:
.LFB6377:
	pushq	%rdi
	.seh_pushreg	%rdi
	pushq	%rsi
	.seh_pushreg	%rsi
	pushq	%rbx
	.seh_pushreg	%rbx
	subq	$64, %rsp
	.seh_stackalloc	64
	.seh_endprologue
	testq	%rcx, %rcx
	movq	%rcx, %rsi
	movq	%rdx, %rdi
	je	.L111
.LEHB19:
	call	_ZN8Palmtree4Math4Core8Internal11CheckNumberEPNS2_19__tag_NUMBER_HEADERE
	leaq	32(%rsp), %rbx
	movq	%rbx, %rcx
	call	_ZN8Palmtree4Math4Core8Internal18ResourceHolderUINTC1Ev
.LEHE19:
	movq	%rdi, %rdx
	movq	%rsi, %rcx
.LEHB20:
	call	_ZN8Palmtree4Math4Core8InternalL33PMC_GreatestCommonDivisor_X_L_ImpEPNS2_19__tag_NUMBER_HEADEREy
	movq	%rax, %rdx
	movq	%rbx, %rcx
	movq	%rax, %rsi
	call	_ZN8Palmtree4Math4Core8Internal18ResourceHolderUINT10HookNumberEPNS2_19__tag_NUMBER_HEADERE
	movq	%rsi, %rdx
	movq	%rbx, %rcx
	call	_ZN8Palmtree4Math4Core8Internal18ResourceHolderUINT12UnlinkNumberEPNS2_19__tag_NUMBER_HEADERE
.LEHE20:
	movq	%rbx, %rcx
	call	_ZN8Palmtree4Math4Core8Internal18ResourceHolderUINTD1Ev
	movq	%rsi, %rax
	addq	$64, %rsp
	popq	%rbx
	popq	%rsi
	popq	%rdi
	ret
.L111:
	leaq	.LC4(%rip), %rdi
	movl	$32, %ecx
	call	__cxa_allocate_exception
	leaq	_ZN8Palmtree4Math4Core8Internal21ArgumentNullExceptionD1Ev(%rip), %r8
	movq	%rdi, 16(%rax)
	leaq	.LC6(%rip), %rdi
	movq	%rax, %rcx
	movq	%rdi, 24(%rax)
	leaq	16+_ZTVN8Palmtree4Math4Core8Internal21ArgumentNullExceptionE(%rip), %rdi
	movl	$-2, 8(%rax)
	leaq	_ZTIN8Palmtree4Math4Core8Internal21ArgumentNullExceptionE(%rip), %rdx
	movq	%rdi, (%rax)
.LEHB21:
	call	__cxa_throw
.L108:
	movq	%rax, %rsi
	movq	%rbx, %rcx
	call	_ZN8Palmtree4Math4Core8Internal18ResourceHolderUINTD1Ev
	movq	%rsi, %rcx
	call	_Unwind_Resume
	nop
.LEHE21:
	.seh_handler	__gxx_personality_seh0, @unwind, @except
	.seh_handlerdata
.LLSDA6377:
	.byte	0xff
	.byte	0xff
	.byte	0x1
	.uleb128 .LLSDACSE6377-.LLSDACSB6377
.LLSDACSB6377:
	.uleb128 .LEHB19-.LFB6377
	.uleb128 .LEHE19-.LEHB19
	.uleb128 0
	.uleb128 0
	.uleb128 .LEHB20-.LFB6377
	.uleb128 .LEHE20-.LEHB20
	.uleb128 .L108-.LFB6377
	.uleb128 0
	.uleb128 .LEHB21-.LFB6377
	.uleb128 .LEHE21-.LEHB21
	.uleb128 0
	.uleb128 0
.LLSDACSE6377:
	.text
	.seh_endproc
	.p2align 4,,15
	.globl	_ZN8Palmtree4Math4Core8Internal29PMC_GreatestCommonDivisor_X_XEPNS2_21__tag_PMC_HANDLE_UINTES4_
	.def	_ZN8Palmtree4Math4Core8Internal29PMC_GreatestCommonDivisor_X_XEPNS2_21__tag_PMC_HANDLE_UINTES4_;	.scl	2;	.type	32;	.endef
	.seh_proc	_ZN8Palmtree4Math4Core8Internal29PMC_GreatestCommonDivisor_X_XEPNS2_21__tag_PMC_HANDLE_UINTES4_
_ZN8Palmtree4Math4Core8Internal29PMC_GreatestCommonDivisor_X_XEPNS2_21__tag_PMC_HANDLE_UINTES4_:
.LFB6378:
	pushq	%r15
	.seh_pushreg	%r15
	pushq	%r14
	.seh_pushreg	%r14
	pushq	%r13
	.seh_pushreg	%r13
	pushq	%r12
	.seh_pushreg	%r12
	pushq	%rbp
	.seh_pushreg	%rbp
	pushq	%rdi
	.seh_pushreg	%rdi
	pushq	%rsi
	.seh_pushreg	%rsi
	pushq	%rbx
	.seh_pushreg	%rbx
	subq	$168, %rsp
	.seh_stackalloc	168
	.seh_endprologue
	testq	%rcx, %rcx
	movq	%rcx, %rsi
	movq	%rdx, %rbx
	je	.L137
	testq	%rdx, %rdx
	je	.L138
.LEHB22:
	call	_ZN8Palmtree4Math4Core8Internal11CheckNumberEPNS2_19__tag_NUMBER_HEADERE
	leaq	96(%rsp), %r12
	movq	%rbx, %rcx
	call	_ZN8Palmtree4Math4Core8Internal11CheckNumberEPNS2_19__tag_NUMBER_HEADERE
	movq	%r12, %rcx
	call	_ZN8Palmtree4Math4Core8Internal18ResourceHolderUINTC1Ev
.LEHE22:
	testb	$1, 8(%rsi)
	jne	.L139
	testb	$1, 8(%rbx)
	je	.L118
	movq	%rsi, %rcx
.LEHB23:
	call	_ZN8Palmtree4Math4Core8Internal15DuplicateNumberEPNS2_19__tag_NUMBER_HEADERE
.L135:
	movq	%rax, %rbp
.L117:
	movq	%rbp, %rdx
	movq	%r12, %rcx
	call	_ZN8Palmtree4Math4Core8Internal18ResourceHolderUINT10HookNumberEPNS2_19__tag_NUMBER_HEADERE
	movq	%rbp, %rdx
	movq	%r12, %rcx
	call	_ZN8Palmtree4Math4Core8Internal18ResourceHolderUINT12UnlinkNumberEPNS2_19__tag_NUMBER_HEADERE
	movq	%r12, %rcx
	call	_ZN8Palmtree4Math4Core8Internal18ResourceHolderUINTD1Ev
	movq	%rbp, %rax
	addq	$168, %rsp
	popq	%rbx
	popq	%rsi
	popq	%rdi
	popq	%rbp
	popq	%r12
	popq	%r13
	popq	%r14
	popq	%r15
	ret
	.p2align 4,,10
.L139:
	testb	$1, 8(%rbx)
	jne	.L140
	movq	%rbx, %rcx
	call	_ZN8Palmtree4Math4Core8Internal15DuplicateNumberEPNS2_19__tag_NUMBER_HEADERE
	jmp	.L135
	.p2align 4,,10
.L118:
	leaq	128(%rsp), %r13
	movq	%r13, %rcx
	call	_ZN8Palmtree4Math4Core8Internal18ResourceHolderUINTC1Ev
.LEHE23:
	movq	32(%rbx), %r14
	cmpq	%r14, 32(%rsi)
	cmovnb	32(%rsi), %r14
	cmpq	$64, %r14
	jbe	.L141
	movq	%r14, %rdx
	movq	%r13, %rcx
.LEHB24:
	call	_ZN8Palmtree4Math4Core8Internal18ResourceHolderUINT13AllocateBlockEy
	movq	%r14, %rdx
	movq	%r13, %rcx
	movq	%rax, %r15
	call	_ZN8Palmtree4Math4Core8Internal18ResourceHolderUINT13AllocateBlockEy
	movq	%r14, %rdx
	movq	%r13, %rcx
	movq	%rax, 56(%rsp)
	call	_ZN8Palmtree4Math4Core8Internal18ResourceHolderUINT14AllocateNumberEy
	movq	40(%rsi), %r8
	movq	%rax, %rbp
	movq	40(%rbx), %rax
	movq	24(%rsi), %rcx
	movq	64(%rsi), %rsi
	cmpq	%rax, %r8
	movq	%rax, 64(%rsp)
	cmovbe	%r8, %rax
	testq	%r8, %r8
	movq	%rax, 72(%rsp)
	jne	.L142
	movq	%r15, %rdi
/APP
 # 952 "C:/GNU/MINGW64/x86_64-8.1.0-win32-seh-rt_v6-rev0/mingw64/x86_64-w64-mingw32/include/psdk_inc/intrin-impl.h" 1
	rep movsq
 # 0 "" 2
/NO_APP
.L122:
	cmpq	$0, 64(%rsp)
	movq	24(%rbx), %rcx
	movq	64(%rbx), %rsi
	jne	.L143
	movq	56(%rsp), %rdi
/APP
 # 952 "C:/GNU/MINGW64/x86_64-8.1.0-win32-seh-rt_v6-rev0/mingw64/x86_64-w64-mingw32/include/psdk_inc/intrin-impl.h" 1
	rep movsq
 # 0 "" 2
/NO_APP
.L124:
	movq	56(%rsp), %rdi
	leaq	63(%r14), %r8
	movq	%r15, %rcx
	movq	64(%rbp), %r9
	leaq	88(%rsp), %rax
	shrq	$6, %r8
	movq	%rax, 32(%rsp)
	movq	%rdi, %rdx
	call	_ZN8Palmtree4Math4Core8InternalL25GreatestCommonDivisor_ImpEPyS3_yS3_S3_
	movq	%r15, %rdx
	movq	%r13, %rcx
	call	_ZN8Palmtree4Math4Core8Internal18ResourceHolderUINT10CheckBlockEPy
	movq	%rdi, %rdx
	movq	%r13, %rcx
	call	_ZN8Palmtree4Math4Core8Internal18ResourceHolderUINT10CheckBlockEPy
	movq	%rbp, %rdx
	movq	%r13, %rcx
	call	_ZN8Palmtree4Math4Core8Internal18ResourceHolderUINT11CheckNumberEPNS2_19__tag_NUMBER_HEADERE
	movq	%rdi, %rdx
	movq	%r13, %rcx
	call	_ZN8Palmtree4Math4Core8Internal18ResourceHolderUINT15DeallocateBlockEPy
	movq	%r15, %rdx
	movq	%r13, %rcx
	call	_ZN8Palmtree4Math4Core8Internal18ResourceHolderUINT15DeallocateBlockEPy
	movq	64(%rbp), %rcx
	movl	$1, 32(%rsp)
	movq	72(%rsp), %r8
	movq	88(%rsp), %rdx
	movq	%rcx, %r9
	call	_ZN8Palmtree4Math4Core8Internal13LeftShift_ImpEPyyyS3_i
	movq	%rbp, %rdx
	movq	%r13, %rcx
	call	_ZN8Palmtree4Math4Core8Internal18ResourceHolderUINT11CheckNumberEPNS2_19__tag_NUMBER_HEADERE
.L134:
	movq	%rbp, %rcx
	call	_ZN8Palmtree4Math4Core8Internal12CommitNumberEPNS2_19__tag_NUMBER_HEADERE
	movq	%rbp, %rdx
	movq	%r13, %rcx
	call	_ZN8Palmtree4Math4Core8Internal18ResourceHolderUINT12UnlinkNumberEPNS2_19__tag_NUMBER_HEADERE
	movq	%r13, %rcx
	call	_ZN8Palmtree4Math4Core8Internal18ResourceHolderUINTD1Ev
	jmp	.L117
	.p2align 4,,10
.L141:
	movl	$64, %edx
	movq	%r13, %rcx
	call	_ZN8Palmtree4Math4Core8Internal18ResourceHolderUINT14AllocateNumberEy
	movq	%rax, %rbp
	movq	64(%rax), %rdi
	movq	64(%rbx), %rdx
	movq	64(%rsi), %rax
	movq	(%rdx), %rdx
	movq	(%rax), %rcx
	call	_ZN8Palmtree4Math4Core8InternalL28GreatestCommonDivisor_1W_ImpEyy
	movq	%rax, (%rdi)
	movq	%rbp, %rdx
	movq	%r13, %rcx
	call	_ZN8Palmtree4Math4Core8Internal18ResourceHolderUINT11CheckNumberEPNS2_19__tag_NUMBER_HEADERE
	jmp	.L134
	.p2align 4,,10
.L143:
	movq	56(%rsp), %r9
	movq	%rcx, %rdx
	movl	$0, 32(%rsp)
	movq	%rsi, %rcx
	movq	64(%rsp), %r8
	call	_ZN8Palmtree4Math4Core8Internal14RightShift_ImpEPyyyS3_i
	jmp	.L124
	.p2align 4,,10
.L142:
	movq	%rcx, %rdx
	movl	$0, 32(%rsp)
	movq	%r15, %r9
	movq	%rsi, %rcx
	call	_ZN8Palmtree4Math4Core8Internal14RightShift_ImpEPyyyS3_i
.LEHE24:
	jmp	.L122
.L137:
	leaq	.LC4(%rip), %rdi
	movl	$32, %ecx
	call	__cxa_allocate_exception
	movq	%rdi, 16(%rax)
	leaq	.LC6(%rip), %rdi
	movl	$-2, 8(%rax)
.L136:
	movq	%rdi, 24(%rax)
	leaq	16+_ZTVN8Palmtree4Math4Core8Internal21ArgumentNullExceptionE(%rip), %rdi
	movq	%rax, %rcx
	movq	%rdi, (%rax)
	leaq	_ZN8Palmtree4Math4Core8Internal21ArgumentNullExceptionD1Ev(%rip), %r8
	leaq	_ZTIN8Palmtree4Math4Core8Internal21ArgumentNullExceptionE(%rip), %rdx
.LEHB25:
	call	__cxa_throw
.LEHE25:
.L138:
	leaq	.LC4(%rip), %rdi
	movl	$32, %ecx
	call	__cxa_allocate_exception
	movq	%rdi, 16(%rax)
	leaq	.LC5(%rip), %rdi
	movl	$-2, 8(%rax)
	jmp	.L136
.L140:
	leaq	.LC3(%rip), %rdi
	movl	$32, %ecx
	call	__cxa_allocate_exception
	leaq	_ZN8Palmtree4Math4Core8Internal19ArithmeticExceptionD1Ev(%rip), %r8
	movq	%rdi, 16(%rax)
	leaq	16+_ZTVN8Palmtree4Math4Core8Internal19ArithmeticExceptionE(%rip), %rdi
	movq	%rax, %rcx
	movl	$-6, 8(%rax)
	leaq	_ZTIN8Palmtree4Math4Core8Internal19ArithmeticExceptionE(%rip), %rdx
	movq	$0, 24(%rax)
	movq	%rdi, (%rax)
.LEHB26:
	call	__cxa_throw
.LEHE26:
.L129:
	movq	%r13, %rcx
	movq	%rax, %rbx
	call	_ZN8Palmtree4Math4Core8Internal18ResourceHolderUINTD1Ev
.L127:
	movq	%r12, %rcx
	call	_ZN8Palmtree4Math4Core8Internal18ResourceHolderUINTD1Ev
	movq	%rbx, %rcx
.LEHB27:
	call	_Unwind_Resume
.LEHE27:
.L128:
	movq	%rax, %rbx
	jmp	.L127
	.seh_handler	__gxx_personality_seh0, @unwind, @except
	.seh_handlerdata
.LLSDA6378:
	.byte	0xff
	.byte	0xff
	.byte	0x1
	.uleb128 .LLSDACSE6378-.LLSDACSB6378
.LLSDACSB6378:
	.uleb128 .LEHB22-.LFB6378
	.uleb128 .LEHE22-.LEHB22
	.uleb128 0
	.uleb128 0
	.uleb128 .LEHB23-.LFB6378
	.uleb128 .LEHE23-.LEHB23
	.uleb128 .L128-.LFB6378
	.uleb128 0
	.uleb128 .LEHB24-.LFB6378
	.uleb128 .LEHE24-.LEHB24
	.uleb128 .L129-.LFB6378
	.uleb128 0
	.uleb128 .LEHB25-.LFB6378
	.uleb128 .LEHE25-.LEHB25
	.uleb128 0
	.uleb128 0
	.uleb128 .LEHB26-.LFB6378
	.uleb128 .LEHE26-.LEHB26
	.uleb128 .L128-.LFB6378
	.uleb128 0
	.uleb128 .LEHB27-.LFB6378
	.uleb128 .LEHE27-.LEHB27
	.uleb128 0
	.uleb128 0
.LLSDACSE6378:
	.text
	.seh_endproc
	.globl	_ZTSSt9exception
	.section	.rdata$_ZTSSt9exception,"dr"
	.linkonce same_size
	.align 8
_ZTSSt9exception:
	.ascii "St9exception\0"
	.globl	_ZTISt9exception
	.section	.rdata$_ZTISt9exception,"dr"
	.linkonce same_size
	.align 8
_ZTISt9exception:
	.quad	_ZTVN10__cxxabiv117__class_type_infoE+16
	.quad	_ZTSSt9exception
	.globl	_ZTSN8Palmtree4Math4Core8Internal9ExceptionE
	.section	.rdata$_ZTSN8Palmtree4Math4Core8Internal9ExceptionE,"dr"
	.linkonce same_size
	.align 32
_ZTSN8Palmtree4Math4Core8Internal9ExceptionE:
	.ascii "N8Palmtree4Math4Core8Internal9ExceptionE\0"
	.globl	_ZTIN8Palmtree4Math4Core8Internal9ExceptionE
	.section	.rdata$_ZTIN8Palmtree4Math4Core8Internal9ExceptionE,"dr"
	.linkonce same_size
	.align 8
_ZTIN8Palmtree4Math4Core8Internal9ExceptionE:
	.quad	_ZTVN10__cxxabiv121__vmi_class_type_infoE+16
	.quad	_ZTSN8Palmtree4Math4Core8Internal9ExceptionE
	.long	0
	.long	1
	.quad	_ZTISt9exception
	.quad	0
	.globl	_ZTSN8Palmtree4Math4Core8Internal21ArgumentNullExceptionE
	.section	.rdata$_ZTSN8Palmtree4Math4Core8Internal21ArgumentNullExceptionE,"dr"
	.linkonce same_size
	.align 32
_ZTSN8Palmtree4Math4Core8Internal21ArgumentNullExceptionE:
	.ascii "N8Palmtree4Math4Core8Internal21ArgumentNullExceptionE\0"
	.globl	_ZTIN8Palmtree4Math4Core8Internal21ArgumentNullExceptionE
	.section	.rdata$_ZTIN8Palmtree4Math4Core8Internal21ArgumentNullExceptionE,"dr"
	.linkonce same_size
	.align 8
_ZTIN8Palmtree4Math4Core8Internal21ArgumentNullExceptionE:
	.quad	_ZTVN10__cxxabiv120__si_class_type_infoE+16
	.quad	_ZTSN8Palmtree4Math4Core8Internal21ArgumentNullExceptionE
	.quad	_ZTIN8Palmtree4Math4Core8Internal9ExceptionE
	.globl	_ZTSN8Palmtree4Math4Core8Internal19ArithmeticExceptionE
	.section	.rdata$_ZTSN8Palmtree4Math4Core8Internal19ArithmeticExceptionE,"dr"
	.linkonce same_size
	.align 32
_ZTSN8Palmtree4Math4Core8Internal19ArithmeticExceptionE:
	.ascii "N8Palmtree4Math4Core8Internal19ArithmeticExceptionE\0"
	.globl	_ZTIN8Palmtree4Math4Core8Internal19ArithmeticExceptionE
	.section	.rdata$_ZTIN8Palmtree4Math4Core8Internal19ArithmeticExceptionE,"dr"
	.linkonce same_size
	.align 8
_ZTIN8Palmtree4Math4Core8Internal19ArithmeticExceptionE:
	.quad	_ZTVN10__cxxabiv120__si_class_type_infoE+16
	.quad	_ZTSN8Palmtree4Math4Core8Internal19ArithmeticExceptionE
	.quad	_ZTIN8Palmtree4Math4Core8Internal9ExceptionE
	.globl	_ZTSN8Palmtree4Math4Core8Internal22InternalErrorExceptionE
	.section	.rdata$_ZTSN8Palmtree4Math4Core8Internal22InternalErrorExceptionE,"dr"
	.linkonce same_size
	.align 32
_ZTSN8Palmtree4Math4Core8Internal22InternalErrorExceptionE:
	.ascii "N8Palmtree4Math4Core8Internal22InternalErrorExceptionE\0"
	.globl	_ZTIN8Palmtree4Math4Core8Internal22InternalErrorExceptionE
	.section	.rdata$_ZTIN8Palmtree4Math4Core8Internal22InternalErrorExceptionE,"dr"
	.linkonce same_size
	.align 8
_ZTIN8Palmtree4Math4Core8Internal22InternalErrorExceptionE:
	.quad	_ZTVN10__cxxabiv120__si_class_type_infoE+16
	.quad	_ZTSN8Palmtree4Math4Core8Internal22InternalErrorExceptionE
	.quad	_ZTIN8Palmtree4Math4Core8Internal9ExceptionE
	.globl	_ZTVN8Palmtree4Math4Core8Internal9ExceptionE
	.section	.rdata$_ZTVN8Palmtree4Math4Core8Internal9ExceptionE,"dr"
	.linkonce same_size
	.align 8
_ZTVN8Palmtree4Math4Core8Internal9ExceptionE:
	.quad	0
	.quad	_ZTIN8Palmtree4Math4Core8Internal9ExceptionE
	.quad	_ZN8Palmtree4Math4Core8Internal9ExceptionD1Ev
	.quad	_ZN8Palmtree4Math4Core8Internal9ExceptionD0Ev
	.quad	_ZNKSt9exception4whatEv
	.globl	_ZTVN8Palmtree4Math4Core8Internal21ArgumentNullExceptionE
	.section	.rdata$_ZTVN8Palmtree4Math4Core8Internal21ArgumentNullExceptionE,"dr"
	.linkonce same_size
	.align 8
_ZTVN8Palmtree4Math4Core8Internal21ArgumentNullExceptionE:
	.quad	0
	.quad	_ZTIN8Palmtree4Math4Core8Internal21ArgumentNullExceptionE
	.quad	_ZN8Palmtree4Math4Core8Internal21ArgumentNullExceptionD1Ev
	.quad	_ZN8Palmtree4Math4Core8Internal21ArgumentNullExceptionD0Ev
	.quad	_ZNKSt9exception4whatEv
	.globl	_ZTVN8Palmtree4Math4Core8Internal19ArithmeticExceptionE
	.section	.rdata$_ZTVN8Palmtree4Math4Core8Internal19ArithmeticExceptionE,"dr"
	.linkonce same_size
	.align 8
_ZTVN8Palmtree4Math4Core8Internal19ArithmeticExceptionE:
	.quad	0
	.quad	_ZTIN8Palmtree4Math4Core8Internal19ArithmeticExceptionE
	.quad	_ZN8Palmtree4Math4Core8Internal19ArithmeticExceptionD1Ev
	.quad	_ZN8Palmtree4Math4Core8Internal19ArithmeticExceptionD0Ev
	.quad	_ZNKSt9exception4whatEv
	.globl	_ZTVN8Palmtree4Math4Core8Internal22InternalErrorExceptionE
	.section	.rdata$_ZTVN8Palmtree4Math4Core8Internal22InternalErrorExceptionE,"dr"
	.linkonce same_size
	.align 8
_ZTVN8Palmtree4Math4Core8Internal22InternalErrorExceptionE:
	.quad	0
	.quad	_ZTIN8Palmtree4Math4Core8Internal22InternalErrorExceptionE
	.quad	_ZN8Palmtree4Math4Core8Internal22InternalErrorExceptionD1Ev
	.quad	_ZN8Palmtree4Math4Core8Internal22InternalErrorExceptionD0Ev
	.quad	_ZNKSt9exception4whatEv
	.ident	"GCC: (x86_64-win32-seh-rev0, Built by MinGW-W64 project) 8.1.0"
	.def	_ZNSt9exceptionD2Ev;	.scl	2;	.type	32;	.endef
	.def	_ZdlPvy;	.scl	2;	.type	32;	.endef
	.def	__cxa_allocate_exception;	.scl	2;	.type	32;	.endef
	.def	__cxa_throw;	.scl	2;	.type	32;	.endef
	.def	_ZN8Palmtree4Math4Core8Internal11Compare_ImpEPyS3_y;	.scl	2;	.type	32;	.endef
	.def	_ZN8Palmtree4Math4Core8Internal12Subtruct_ImpEPyyS3_yS3_y;	.scl	2;	.type	32;	.endef
	.def	_ZN8Palmtree4Math4Core8Internal14RightShift_ImpEPyyyS3_i;	.scl	2;	.type	32;	.endef
	.def	_ZN8Palmtree4Math4Core8Internal10From_I_ImpEj;	.scl	2;	.type	32;	.endef
	.def	_ZN8Palmtree4Math4Core8Internal15DuplicateNumberEPNS2_19__tag_NUMBER_HEADERE;	.scl	2;	.type	32;	.endef
	.def	_ZN8Palmtree4Math4Core8Internal18ResourceHolderUINTC1Ev;	.scl	2;	.type	32;	.endef
	.def	_ZN8Palmtree4Math4Core8Internal18ResourceHolderUINT13AllocateBlockEy;	.scl	2;	.type	32;	.endef
	.def	_ZN8Palmtree4Math4Core8Internal18ResourceHolderUINT14AllocateNumberEy;	.scl	2;	.type	32;	.endef
	.def	_ZN8Palmtree4Math4Core8Internal18ResourceHolderUINT10CheckBlockEPy;	.scl	2;	.type	32;	.endef
	.def	_ZN8Palmtree4Math4Core8Internal18ResourceHolderUINT11CheckNumberEPNS2_19__tag_NUMBER_HEADERE;	.scl	2;	.type	32;	.endef
	.def	_ZN8Palmtree4Math4Core8Internal18ResourceHolderUINT15DeallocateBlockEPy;	.scl	2;	.type	32;	.endef
	.def	_ZN8Palmtree4Math4Core8Internal13LeftShift_ImpEPyyyS3_i;	.scl	2;	.type	32;	.endef
	.def	_ZN8Palmtree4Math4Core8Internal12CommitNumberEPNS2_19__tag_NUMBER_HEADERE;	.scl	2;	.type	32;	.endef
	.def	_ZN8Palmtree4Math4Core8Internal18ResourceHolderUINT12UnlinkNumberEPNS2_19__tag_NUMBER_HEADERE;	.scl	2;	.type	32;	.endef
	.def	_ZN8Palmtree4Math4Core8Internal18ResourceHolderUINTD1Ev;	.scl	2;	.type	32;	.endef
	.def	_Unwind_Resume;	.scl	2;	.type	32;	.endef
	.def	_ZN8Palmtree4Math4Core8Internal11CheckNumberEPNS2_19__tag_NUMBER_HEADERE;	.scl	2;	.type	32;	.endef
	.def	_ZN8Palmtree4Math4Core8Internal18ResourceHolderUINT10HookNumberEPNS2_19__tag_NUMBER_HEADERE;	.scl	2;	.type	32;	.endef
	.def	_ZN8Palmtree4Math4Core8Internal10From_L_ImpEy;	.scl	2;	.type	32;	.endef
	.def	_ZNKSt9exception4whatEv;	.scl	2;	.type	32;	.endef
