	.file	"pmc_to.c"
	.text
	.p2align 4,,15
	.globl	PMC_To_X_I
	.def	PMC_To_X_I;	.scl	2;	.type	32;	.endef
	.seh_proc	PMC_To_X_I
PMC_To_X_I:
	pushq	%rsi
	.seh_pushreg	%rsi
	pushq	%rbx
	.seh_pushreg	%rbx
	subq	$40, %rsp
	.seh_stackalloc	40
	.seh_endprologue
	movq	%rcx, %rbx
	movq	%rdx, %rsi
	call	CheckNumber
	testl	%eax, %eax
	jne	.L1
	cmpq	$32, 24(%rbx)
	ja	.L4
	testb	$1, (%rbx)
	je	.L3
	movl	$0, (%rsi)
.L1:
	addq	$40, %rsp
	popq	%rbx
	popq	%rsi
	ret
	.p2align 4,,10
.L3:
	movq	64(%rbx), %rdx
	movq	(%rdx), %rdx
	movl	%edx, (%rsi)
	addq	$40, %rsp
	popq	%rbx
	popq	%rsi
	ret
.L4:
	movl	$-2, %eax
	jmp	.L1
	.seh_endproc
	.p2align 4,,15
	.globl	PMC_To_X_L
	.def	PMC_To_X_L;	.scl	2;	.type	32;	.endef
	.seh_proc	PMC_To_X_L
PMC_To_X_L:
	pushq	%rsi
	.seh_pushreg	%rsi
	pushq	%rbx
	.seh_pushreg	%rbx
	subq	$40, %rsp
	.seh_stackalloc	40
	.seh_endprologue
	movq	%rcx, %rbx
	movq	%rdx, %rsi
	call	CheckNumber
	testl	%eax, %eax
	jne	.L6
	cmpq	$64, 24(%rbx)
	ja	.L9
	testb	$1, (%rbx)
	je	.L8
	movq	$0, (%rsi)
.L6:
	addq	$40, %rsp
	popq	%rbx
	popq	%rsi
	ret
	.p2align 4,,10
.L8:
	movq	64(%rbx), %rdx
	movq	(%rdx), %rdx
	movq	%rdx, (%rsi)
	addq	$40, %rsp
	popq	%rbx
	popq	%rsi
	ret
.L9:
	movl	$-2, %eax
	jmp	.L6
	.seh_endproc
	.p2align 4,,15
	.globl	Initialize_To
	.def	Initialize_To;	.scl	2;	.type	32;	.endef
	.seh_proc	Initialize_To
Initialize_To:
	.seh_endprologue
	xorl	%eax, %eax
	ret
	.seh_endproc
	.ident	"GCC: (x86_64-win32-seh-rev0, Built by MinGW-W64 project) 8.1.0"
	.def	CheckNumber;	.scl	2;	.type	32;	.endef
