	.file	"pmc_log.cpp"
	.text
	.section	.text$_ZN8Palmtree4Math4Core8Internal9ExceptionD1Ev,"x"
	.linkonce discard
	.align 2
	.p2align 4,,15
	.globl	_ZN8Palmtree4Math4Core8Internal9ExceptionD1Ev
	.def	_ZN8Palmtree4Math4Core8Internal9ExceptionD1Ev;	.scl	2;	.type	32;	.endef
	.seh_proc	_ZN8Palmtree4Math4Core8Internal9ExceptionD1Ev
_ZN8Palmtree4Math4Core8Internal9ExceptionD1Ev:
.LFB6331:
	.seh_endprologue
	leaq	16+_ZTVN8Palmtree4Math4Core8Internal9ExceptionE(%rip), %rax
	movq	%rax, (%rcx)
	jmp	_ZNSt9exceptionD2Ev
	.seh_endproc
	.section	.text$_ZN8Palmtree4Math4Core8Internal9ExceptionD0Ev,"x"
	.linkonce discard
	.align 2
	.p2align 4,,15
	.globl	_ZN8Palmtree4Math4Core8Internal9ExceptionD0Ev
	.def	_ZN8Palmtree4Math4Core8Internal9ExceptionD0Ev;	.scl	2;	.type	32;	.endef
	.seh_proc	_ZN8Palmtree4Math4Core8Internal9ExceptionD0Ev
_ZN8Palmtree4Math4Core8Internal9ExceptionD0Ev:
.LFB6332:
	pushq	%rbx
	.seh_pushreg	%rbx
	subq	$32, %rsp
	.seh_stackalloc	32
	.seh_endprologue
	leaq	16+_ZTVN8Palmtree4Math4Core8Internal9ExceptionE(%rip), %rax
	movq	%rcx, %rbx
	movq	%rax, (%rcx)
	call	_ZNSt9exceptionD2Ev
	movl	$32, %edx
	movq	%rbx, %rcx
	addq	$32, %rsp
	popq	%rbx
	jmp	_ZdlPvy
	.seh_endproc
	.section	.text$_ZN8Palmtree4Math4Core8Internal19ArithmeticExceptionD1Ev,"x"
	.linkonce discard
	.align 2
	.p2align 4,,15
	.globl	_ZN8Palmtree4Math4Core8Internal19ArithmeticExceptionD1Ev
	.def	_ZN8Palmtree4Math4Core8Internal19ArithmeticExceptionD1Ev;	.scl	2;	.type	32;	.endef
	.seh_proc	_ZN8Palmtree4Math4Core8Internal19ArithmeticExceptionD1Ev
_ZN8Palmtree4Math4Core8Internal19ArithmeticExceptionD1Ev:
.LFB6394:
	.seh_endprologue
	leaq	16+_ZTVN8Palmtree4Math4Core8Internal9ExceptionE(%rip), %rax
	movq	%rax, (%rcx)
	jmp	_ZNSt9exceptionD2Ev
	.seh_endproc
	.section	.text$_ZN8Palmtree4Math4Core8Internal19ArithmeticExceptionD0Ev,"x"
	.linkonce discard
	.align 2
	.p2align 4,,15
	.globl	_ZN8Palmtree4Math4Core8Internal19ArithmeticExceptionD0Ev
	.def	_ZN8Palmtree4Math4Core8Internal19ArithmeticExceptionD0Ev;	.scl	2;	.type	32;	.endef
	.seh_proc	_ZN8Palmtree4Math4Core8Internal19ArithmeticExceptionD0Ev
_ZN8Palmtree4Math4Core8Internal19ArithmeticExceptionD0Ev:
.LFB6395:
	pushq	%rbx
	.seh_pushreg	%rbx
	subq	$32, %rsp
	.seh_stackalloc	32
	.seh_endprologue
	leaq	16+_ZTVN8Palmtree4Math4Core8Internal9ExceptionE(%rip), %rax
	movq	%rcx, %rbx
	movq	%rax, (%rcx)
	call	_ZNSt9exceptionD2Ev
	movl	$32, %edx
	movq	%rbx, %rcx
	addq	$32, %rsp
	popq	%rbx
	jmp	_ZdlPvy
	.seh_endproc
	.section	.text$_ZN8Palmtree4Math4Core8Internal21ArgumentNullExceptionD1Ev,"x"
	.linkonce discard
	.align 2
	.p2align 4,,15
	.globl	_ZN8Palmtree4Math4Core8Internal21ArgumentNullExceptionD1Ev
	.def	_ZN8Palmtree4Math4Core8Internal21ArgumentNullExceptionD1Ev;	.scl	2;	.type	32;	.endef
	.seh_proc	_ZN8Palmtree4Math4Core8Internal21ArgumentNullExceptionD1Ev
_ZN8Palmtree4Math4Core8Internal21ArgumentNullExceptionD1Ev:
.LFB6354:
	.seh_endprologue
	leaq	16+_ZTVN8Palmtree4Math4Core8Internal9ExceptionE(%rip), %rax
	movq	%rax, (%rcx)
	jmp	_ZNSt9exceptionD2Ev
	.seh_endproc
	.section	.text$_ZN8Palmtree4Math4Core8Internal21ArgumentNullExceptionD0Ev,"x"
	.linkonce discard
	.align 2
	.p2align 4,,15
	.globl	_ZN8Palmtree4Math4Core8Internal21ArgumentNullExceptionD0Ev
	.def	_ZN8Palmtree4Math4Core8Internal21ArgumentNullExceptionD0Ev;	.scl	2;	.type	32;	.endef
	.seh_proc	_ZN8Palmtree4Math4Core8Internal21ArgumentNullExceptionD0Ev
_ZN8Palmtree4Math4Core8Internal21ArgumentNullExceptionD0Ev:
.LFB6355:
	pushq	%rbx
	.seh_pushreg	%rbx
	subq	$32, %rsp
	.seh_stackalloc	32
	.seh_endprologue
	leaq	16+_ZTVN8Palmtree4Math4Core8Internal9ExceptionE(%rip), %rax
	movq	%rcx, %rbx
	movq	%rax, (%rcx)
	call	_ZNSt9exceptionD2Ev
	movl	$32, %edx
	movq	%rbx, %rcx
	addq	$32, %rsp
	popq	%rbx
	jmp	_ZdlPvy
	.seh_endproc
	.text
	.p2align 4,,15
	.globl	_ZN8Palmtree4Math4Core8Internal14Initialize_LogEPNS2_23_tag_PROCESSOR_FEATURESE
	.def	_ZN8Palmtree4Math4Core8Internal14Initialize_LogEPNS2_23_tag_PROCESSOR_FEATURESE;	.scl	2;	.type	32;	.endef
	.seh_proc	_ZN8Palmtree4Math4Core8Internal14Initialize_LogEPNS2_23_tag_PROCESSOR_FEATURESE
_ZN8Palmtree4Math4Core8Internal14Initialize_LogEPNS2_23_tag_PROCESSOR_FEATURESE:
.LFB6510:
	.seh_endprologue
	movq	.LC0(%rip), %rax
	movq	%rax, _ZN8Palmtree4Math4Core8InternalL7log10_2E(%rip)
	xorl	%eax, %eax
	ret
	.seh_endproc
	.section .rdata,"dr"
	.align 2
.LC1:
	.ascii "0\0n0\376[peo0*g\232[\251\177g0Y0\2"
	.ascii "0\0\0"
	.text
	.p2align 4,,15
	.globl	_ZN8Palmtree4Math4Core8Internal19PMC_Floor_Log10_ImpEPNS2_19__tag_NUMBER_HEADERE
	.def	_ZN8Palmtree4Math4Core8Internal19PMC_Floor_Log10_ImpEPNS2_19__tag_NUMBER_HEADERE;	.scl	2;	.type	32;	.endef
	.seh_proc	_ZN8Palmtree4Math4Core8Internal19PMC_Floor_Log10_ImpEPNS2_19__tag_NUMBER_HEADERE
_ZN8Palmtree4Math4Core8Internal19PMC_Floor_Log10_ImpEPNS2_19__tag_NUMBER_HEADERE:
.LFB6505:
	pushq	%r12
	.seh_pushreg	%r12
	pushq	%rbp
	.seh_pushreg	%rbp
	pushq	%rdi
	.seh_pushreg	%rdi
	pushq	%rsi
	.seh_pushreg	%rsi
	pushq	%rbx
	.seh_pushreg	%rbx
	subq	$64, %rsp
	.seh_stackalloc	64
	.seh_endprologue
	testb	$1, 8(%rcx)
	movq	%rcx, %r12
	jne	.L20
	leaq	32(%rsp), %rdi
	movq	%rdi, %rcx
.LEHB0:
	call	_ZN8Palmtree4Math4Core8Internal18ResourceHolderUINTC1Ev
.LEHE0:
	movq	32(%r12), %rax
	subq	$1, %rax
	js	.L11
	pxor	%xmm0, %xmm0
	cvtsi2sdq	%rax, %xmm0
.L12:
	mulsd	_ZN8Palmtree4Math4Core8InternalL7log10_2E(%rip), %xmm0
	movsd	.LC3(%rip), %xmm3
	movsd	.LC2(%rip), %xmm4
	movapd	%xmm0, %xmm2
	movapd	%xmm0, %xmm1
	andpd	%xmm3, %xmm2
	ucomisd	%xmm2, %xmm4
	ja	.L21
.L13:
	cvttsd2siq	%xmm1, %rdx
	movl	$1, %ecx
	movl	%edx, %ebp
	movl	%edx, %edx
.LEHB1:
	call	_ZN8Palmtree4Math4Core8Internal27PMC_TimesOfExponentOf10_ImpEjy
	movq	%rax, %rdx
	movq	%rdi, %rcx
	movq	%rax, %rsi
	call	_ZN8Palmtree4Math4Core8Internal18ResourceHolderUINT10HookNumberEPNS2_19__tag_NUMBER_HEADERE
	jmp	.L15
	.p2align 4,,10
.L22:
	addl	$1, %ebp
	testl	%eax, %eax
	movq	%rbx, %rsi
	je	.L14
.L15:
	movl	$10, %edx
	movq	%rsi, %rcx
	call	_ZN8Palmtree4Math4Core8Internal20PMC_Multiply_X_I_ImpEPNS2_19__tag_NUMBER_HEADEREj
	movq	%rax, %rdx
	movq	%rdi, %rcx
	movq	%rax, %rbx
	call	_ZN8Palmtree4Math4Core8Internal18ResourceHolderUINT10HookNumberEPNS2_19__tag_NUMBER_HEADERE
	movq	%rsi, %rdx
	movq	%rdi, %rcx
	call	_ZN8Palmtree4Math4Core8Internal18ResourceHolderUINT16DeallocateNumberEPNS2_19__tag_NUMBER_HEADERE
	movq	%r12, %rdx
	movq	%rbx, %rcx
	call	_ZN8Palmtree4Math4Core8Internal19PMC_Compare_X_X_ImpEPNS2_19__tag_NUMBER_HEADERES4_
.LEHE1:
	testl	%eax, %eax
	jle	.L22
.L14:
	movq	%rdi, %rcx
	call	_ZN8Palmtree4Math4Core8Internal18ResourceHolderUINTD1Ev
	movl	%ebp, %eax
	addq	$64, %rsp
	popq	%rbx
	popq	%rsi
	popq	%rdi
	popq	%rbp
	popq	%r12
	ret
	.p2align 4,,10
.L21:
	cvttsd2siq	%xmm0, %rax
	pxor	%xmm2, %xmm2
	movsd	.LC4(%rip), %xmm4
	andnpd	%xmm0, %xmm3
	cvtsi2sdq	%rax, %xmm2
	movapd	%xmm2, %xmm5
	cmpnlesd	%xmm0, %xmm5
	movapd	%xmm5, %xmm1
	andpd	%xmm4, %xmm1
	subsd	%xmm1, %xmm2
	movapd	%xmm2, %xmm1
	orpd	%xmm3, %xmm1
	jmp	.L13
	.p2align 4,,10
.L11:
	movq	%rax, %rdx
	andl	$1, %eax
	pxor	%xmm0, %xmm0
	shrq	%rdx
	orq	%rax, %rdx
	cvtsi2sdq	%rdx, %xmm0
	addsd	%xmm0, %xmm0
	jmp	.L12
.L20:
	leaq	.LC1(%rip), %rdi
	movl	$32, %ecx
	call	__cxa_allocate_exception
	leaq	_ZN8Palmtree4Math4Core8Internal19ArithmeticExceptionD1Ev(%rip), %r8
	movq	%rdi, 16(%rax)
	leaq	16+_ZTVN8Palmtree4Math4Core8Internal19ArithmeticExceptionE(%rip), %rdi
	movq	%rax, %rcx
	movl	$-6, 8(%rax)
	leaq	_ZTIN8Palmtree4Math4Core8Internal19ArithmeticExceptionE(%rip), %rdx
	movq	$0, 24(%rax)
	movq	%rdi, (%rax)
.LEHB2:
	call	__cxa_throw
.L17:
	movq	%rax, %rbx
	movq	%rdi, %rcx
	call	_ZN8Palmtree4Math4Core8Internal18ResourceHolderUINTD1Ev
	movq	%rbx, %rcx
	call	_Unwind_Resume
	nop
.LEHE2:
	.def	__gxx_personality_seh0;	.scl	2;	.type	32;	.endef
	.seh_handler	__gxx_personality_seh0, @unwind, @except
	.seh_handlerdata
.LLSDA6505:
	.byte	0xff
	.byte	0xff
	.byte	0x1
	.uleb128 .LLSDACSE6505-.LLSDACSB6505
.LLSDACSB6505:
	.uleb128 .LEHB0-.LFB6505
	.uleb128 .LEHE0-.LEHB0
	.uleb128 0
	.uleb128 0
	.uleb128 .LEHB1-.LFB6505
	.uleb128 .LEHE1-.LEHB1
	.uleb128 .L17-.LFB6505
	.uleb128 0
	.uleb128 .LEHB2-.LFB6505
	.uleb128 .LEHE2-.LEHB2
	.uleb128 0
	.uleb128 0
.LLSDACSE6505:
	.text
	.seh_endproc
	.section .rdata,"dr"
	.align 8
.LC5:
	.ascii "\25_pek0n\0u\0l\0l\0p\0t\0r\0L0\16NH0\211"
	.ascii "0\214"
	.ascii "0f0D0~0Y0\2"
	.ascii "0\0\0"
	.align 2
.LC6:
	.ascii "v\0\0\0"
	.text
	.p2align 4,,15
	.globl	_ZN8Palmtree4Math4Core8Internal15PMC_Floor_Log10EPNS2_21__tag_PMC_HANDLE_UINTE
	.def	_ZN8Palmtree4Math4Core8Internal15PMC_Floor_Log10EPNS2_21__tag_PMC_HANDLE_UINTE;	.scl	2;	.type	32;	.endef
	.seh_proc	_ZN8Palmtree4Math4Core8Internal15PMC_Floor_Log10EPNS2_21__tag_PMC_HANDLE_UINTE
_ZN8Palmtree4Math4Core8Internal15PMC_Floor_Log10EPNS2_21__tag_PMC_HANDLE_UINTE:
.LFB6509:
	pushq	%rbx
	.seh_pushreg	%rbx
	subq	$32, %rsp
	.seh_stackalloc	32
	.seh_endprologue
	testq	%rcx, %rcx
	movq	%rcx, %rbx
	je	.L25
	call	_ZN8Palmtree4Math4Core8Internal11CheckNumberEPNS2_19__tag_NUMBER_HEADERE
	movq	%rbx, %rcx
	addq	$32, %rsp
	popq	%rbx
	jmp	_ZN8Palmtree4Math4Core8Internal19PMC_Floor_Log10_ImpEPNS2_19__tag_NUMBER_HEADERE
.L25:
	movl	$32, %ecx
	call	__cxa_allocate_exception
	leaq	.LC5(%rip), %rdx
	movq	%rdx, 16(%rax)
	leaq	.LC6(%rip), %rdx
	movq	%rax, %rcx
	movq	%rdx, 24(%rax)
	leaq	16+_ZTVN8Palmtree4Math4Core8Internal21ArgumentNullExceptionE(%rip), %rdx
	movq	%rdx, (%rax)
	leaq	_ZN8Palmtree4Math4Core8Internal21ArgumentNullExceptionD1Ev(%rip), %r8
	movl	$-2, 8(%rax)
	leaq	_ZTIN8Palmtree4Math4Core8Internal21ArgumentNullExceptionE(%rip), %rdx
	call	__cxa_throw
	nop
	.seh_endproc
	.globl	_ZTSSt9exception
	.section	.rdata$_ZTSSt9exception,"dr"
	.linkonce same_size
	.align 8
_ZTSSt9exception:
	.ascii "St9exception\0"
	.globl	_ZTISt9exception
	.section	.rdata$_ZTISt9exception,"dr"
	.linkonce same_size
	.align 8
_ZTISt9exception:
	.quad	_ZTVN10__cxxabiv117__class_type_infoE+16
	.quad	_ZTSSt9exception
	.globl	_ZTSN8Palmtree4Math4Core8Internal9ExceptionE
	.section	.rdata$_ZTSN8Palmtree4Math4Core8Internal9ExceptionE,"dr"
	.linkonce same_size
	.align 32
_ZTSN8Palmtree4Math4Core8Internal9ExceptionE:
	.ascii "N8Palmtree4Math4Core8Internal9ExceptionE\0"
	.globl	_ZTIN8Palmtree4Math4Core8Internal9ExceptionE
	.section	.rdata$_ZTIN8Palmtree4Math4Core8Internal9ExceptionE,"dr"
	.linkonce same_size
	.align 8
_ZTIN8Palmtree4Math4Core8Internal9ExceptionE:
	.quad	_ZTVN10__cxxabiv121__vmi_class_type_infoE+16
	.quad	_ZTSN8Palmtree4Math4Core8Internal9ExceptionE
	.long	0
	.long	1
	.quad	_ZTISt9exception
	.quad	0
	.globl	_ZTSN8Palmtree4Math4Core8Internal21ArgumentNullExceptionE
	.section	.rdata$_ZTSN8Palmtree4Math4Core8Internal21ArgumentNullExceptionE,"dr"
	.linkonce same_size
	.align 32
_ZTSN8Palmtree4Math4Core8Internal21ArgumentNullExceptionE:
	.ascii "N8Palmtree4Math4Core8Internal21ArgumentNullExceptionE\0"
	.globl	_ZTIN8Palmtree4Math4Core8Internal21ArgumentNullExceptionE
	.section	.rdata$_ZTIN8Palmtree4Math4Core8Internal21ArgumentNullExceptionE,"dr"
	.linkonce same_size
	.align 8
_ZTIN8Palmtree4Math4Core8Internal21ArgumentNullExceptionE:
	.quad	_ZTVN10__cxxabiv120__si_class_type_infoE+16
	.quad	_ZTSN8Palmtree4Math4Core8Internal21ArgumentNullExceptionE
	.quad	_ZTIN8Palmtree4Math4Core8Internal9ExceptionE
	.globl	_ZTSN8Palmtree4Math4Core8Internal19ArithmeticExceptionE
	.section	.rdata$_ZTSN8Palmtree4Math4Core8Internal19ArithmeticExceptionE,"dr"
	.linkonce same_size
	.align 32
_ZTSN8Palmtree4Math4Core8Internal19ArithmeticExceptionE:
	.ascii "N8Palmtree4Math4Core8Internal19ArithmeticExceptionE\0"
	.globl	_ZTIN8Palmtree4Math4Core8Internal19ArithmeticExceptionE
	.section	.rdata$_ZTIN8Palmtree4Math4Core8Internal19ArithmeticExceptionE,"dr"
	.linkonce same_size
	.align 8
_ZTIN8Palmtree4Math4Core8Internal19ArithmeticExceptionE:
	.quad	_ZTVN10__cxxabiv120__si_class_type_infoE+16
	.quad	_ZTSN8Palmtree4Math4Core8Internal19ArithmeticExceptionE
	.quad	_ZTIN8Palmtree4Math4Core8Internal9ExceptionE
	.globl	_ZTVN8Palmtree4Math4Core8Internal9ExceptionE
	.section	.rdata$_ZTVN8Palmtree4Math4Core8Internal9ExceptionE,"dr"
	.linkonce same_size
	.align 8
_ZTVN8Palmtree4Math4Core8Internal9ExceptionE:
	.quad	0
	.quad	_ZTIN8Palmtree4Math4Core8Internal9ExceptionE
	.quad	_ZN8Palmtree4Math4Core8Internal9ExceptionD1Ev
	.quad	_ZN8Palmtree4Math4Core8Internal9ExceptionD0Ev
	.quad	_ZNKSt9exception4whatEv
	.globl	_ZTVN8Palmtree4Math4Core8Internal21ArgumentNullExceptionE
	.section	.rdata$_ZTVN8Palmtree4Math4Core8Internal21ArgumentNullExceptionE,"dr"
	.linkonce same_size
	.align 8
_ZTVN8Palmtree4Math4Core8Internal21ArgumentNullExceptionE:
	.quad	0
	.quad	_ZTIN8Palmtree4Math4Core8Internal21ArgumentNullExceptionE
	.quad	_ZN8Palmtree4Math4Core8Internal21ArgumentNullExceptionD1Ev
	.quad	_ZN8Palmtree4Math4Core8Internal21ArgumentNullExceptionD0Ev
	.quad	_ZNKSt9exception4whatEv
	.globl	_ZTVN8Palmtree4Math4Core8Internal19ArithmeticExceptionE
	.section	.rdata$_ZTVN8Palmtree4Math4Core8Internal19ArithmeticExceptionE,"dr"
	.linkonce same_size
	.align 8
_ZTVN8Palmtree4Math4Core8Internal19ArithmeticExceptionE:
	.quad	0
	.quad	_ZTIN8Palmtree4Math4Core8Internal19ArithmeticExceptionE
	.quad	_ZN8Palmtree4Math4Core8Internal19ArithmeticExceptionD1Ev
	.quad	_ZN8Palmtree4Math4Core8Internal19ArithmeticExceptionD0Ev
	.quad	_ZNKSt9exception4whatEv
.lcomm _ZN8Palmtree4Math4Core8InternalL7log10_2E,8,8
	.section .rdata,"dr"
	.align 8
.LC0:
	.long	1352628735
	.long	1070810131
	.align 8
.LC2:
	.long	0
	.long	1127219200
	.align 16
.LC3:
	.long	-1
	.long	2147483647
	.long	0
	.long	0
	.align 8
.LC4:
	.long	0
	.long	1072693248
	.ident	"GCC: (x86_64-win32-seh-rev0, Built by MinGW-W64 project) 8.1.0"
	.def	_ZNSt9exceptionD2Ev;	.scl	2;	.type	32;	.endef
	.def	_ZdlPvy;	.scl	2;	.type	32;	.endef
	.def	_ZN8Palmtree4Math4Core8Internal18ResourceHolderUINTC1Ev;	.scl	2;	.type	32;	.endef
	.def	_ZN8Palmtree4Math4Core8Internal27PMC_TimesOfExponentOf10_ImpEjy;	.scl	2;	.type	32;	.endef
	.def	_ZN8Palmtree4Math4Core8Internal18ResourceHolderUINT10HookNumberEPNS2_19__tag_NUMBER_HEADERE;	.scl	2;	.type	32;	.endef
	.def	_ZN8Palmtree4Math4Core8Internal20PMC_Multiply_X_I_ImpEPNS2_19__tag_NUMBER_HEADEREj;	.scl	2;	.type	32;	.endef
	.def	_ZN8Palmtree4Math4Core8Internal18ResourceHolderUINT16DeallocateNumberEPNS2_19__tag_NUMBER_HEADERE;	.scl	2;	.type	32;	.endef
	.def	_ZN8Palmtree4Math4Core8Internal19PMC_Compare_X_X_ImpEPNS2_19__tag_NUMBER_HEADERES4_;	.scl	2;	.type	32;	.endef
	.def	_ZN8Palmtree4Math4Core8Internal18ResourceHolderUINTD1Ev;	.scl	2;	.type	32;	.endef
	.def	__cxa_allocate_exception;	.scl	2;	.type	32;	.endef
	.def	__cxa_throw;	.scl	2;	.type	32;	.endef
	.def	_Unwind_Resume;	.scl	2;	.type	32;	.endef
	.def	_ZN8Palmtree4Math4Core8Internal11CheckNumberEPNS2_19__tag_NUMBER_HEADERE;	.scl	2;	.type	32;	.endef
	.def	_ZNKSt9exception4whatEv;	.scl	2;	.type	32;	.endef
