Archive member included to satisfy reference by file (symbol)

C:/GNU/MINGW64/i686-8.1.0-win32-dwarf-rt_v6-rev0/mingw32/bin/../lib/gcc/i686-w64-mingw32/8.1.0/../../../../i686-w64-mingw32/lib/../lib/libkernel32.a(dgzcs01342.o)
                              ../build/x86_Debug/pmc_parse.o (_imp__lstrlenW@4)
C:/GNU/MINGW64/i686-8.1.0-win32-dwarf-rt_v6-rev0/mingw32/bin/../lib/gcc/i686-w64-mingw32/8.1.0/../../../../i686-w64-mingw32/lib/../lib/libkernel32.a(dgzcs01336.o)
                              ../build/x86_Debug/pmc_parse.o (_imp__lstrcpyW@8)
C:/GNU/MINGW64/i686-8.1.0-win32-dwarf-rt_v6-rev0/mingw32/bin/../lib/gcc/i686-w64-mingw32/8.1.0/../../../../i686-w64-mingw32/lib/../lib/libkernel32.a(dgzcs01335.o)
                              ../build/x86_Debug/pmc_parse.o (_imp__lstrcpyA@8)
C:/GNU/MINGW64/i686-8.1.0-win32-dwarf-rt_v6-rev0/mingw32/bin/../lib/gcc/i686-w64-mingw32/8.1.0/../../../../i686-w64-mingw32/lib/../lib/libkernel32.a(dgzcs01330.o)
                              ../build/x86_Debug/TEST_op_ToStringD.o (_imp__lstrcmpW@8)
C:/GNU/MINGW64/i686-8.1.0-win32-dwarf-rt_v6-rev0/mingw32/bin/../lib/gcc/i686-w64-mingw32/8.1.0/../../../../i686-w64-mingw32/lib/../lib/libkernel32.a(dgzcs00729.o)
                              ../build/x86_Debug/pmc_memory.o (_imp__HeapFree@12)
C:/GNU/MINGW64/i686-8.1.0-win32-dwarf-rt_v6-rev0/mingw32/bin/../lib/gcc/i686-w64-mingw32/8.1.0/../../../../i686-w64-mingw32/lib/../lib/libkernel32.a(dgzcs00727.o)
                              ../build/x86_Debug/pmc_memory.o (_imp__HeapDestroy@4)
C:/GNU/MINGW64/i686-8.1.0-win32-dwarf-rt_v6-rev0/mingw32/bin/../lib/gcc/i686-w64-mingw32/8.1.0/../../../../i686-w64-mingw32/lib/../lib/libkernel32.a(dgzcs00725.o)
                              ../build/x86_Debug/pmc_memory.o (_imp__HeapCreate@12)
C:/GNU/MINGW64/i686-8.1.0-win32-dwarf-rt_v6-rev0/mingw32/bin/../lib/gcc/i686-w64-mingw32/8.1.0/../../../../i686-w64-mingw32/lib/../lib/libkernel32.a(dgzcs00723.o)
                              ../build/x86_Debug/pmc_memory.o (_imp__HeapAlloc@12)
C:/GNU/MINGW64/i686-8.1.0-win32-dwarf-rt_v6-rev0/mingw32/bin/../lib/gcc/i686-w64-mingw32/8.1.0/../../../../i686-w64-mingw32/lib/../lib/libkernel32.a(dgzcs00666.o)
                              ../build/x86_Debug/pmc_memory.o (_imp__GetTickCount@0)
C:/GNU/MINGW64/i686-8.1.0-win32-dwarf-rt_v6-rev0/mingw32/bin/../lib/gcc/i686-w64-mingw32/8.1.0/../../../../i686-w64-mingw32/lib/../lib/libkernel32.a(dgzch.o)
                              C:/GNU/MINGW64/i686-8.1.0-win32-dwarf-rt_v6-rev0/mingw32/bin/../lib/gcc/i686-w64-mingw32/8.1.0/../../../../i686-w64-mingw32/lib/../lib/libkernel32.a(dgzcs01342.o) (_head_lib32_libkernel32_a)
C:/GNU/MINGW64/i686-8.1.0-win32-dwarf-rt_v6-rev0/mingw32/bin/../lib/gcc/i686-w64-mingw32/8.1.0/../../../../i686-w64-mingw32/lib/../lib/libkernel32.a(dgzct.o)
                              C:/GNU/MINGW64/i686-8.1.0-win32-dwarf-rt_v6-rev0/mingw32/bin/../lib/gcc/i686-w64-mingw32/8.1.0/../../../../i686-w64-mingw32/lib/../lib/libkernel32.a(dgzch.o) (_lib32_libkernel32_a_iname)
C:/GNU/MINGW64/i686-8.1.0-win32-dwarf-rt_v6-rev0/mingw32/bin/../lib/gcc/i686-w64-mingw32/8.1.0/../../../../i686-w64-mingw32/lib/../lib/libuser32.a(dmces00912.o)
                              ../build/x86_Debug/debug.o (_imp__wsprintfW)
C:/GNU/MINGW64/i686-8.1.0-win32-dwarf-rt_v6-rev0/mingw32/bin/../lib/gcc/i686-w64-mingw32/8.1.0/../../../../i686-w64-mingw32/lib/../lib/libuser32.a(dmceh.o)
                              C:/GNU/MINGW64/i686-8.1.0-win32-dwarf-rt_v6-rev0/mingw32/bin/../lib/gcc/i686-w64-mingw32/8.1.0/../../../../i686-w64-mingw32/lib/../lib/libuser32.a(dmces00912.o) (_head_lib32_libuser32_a)
C:/GNU/MINGW64/i686-8.1.0-win32-dwarf-rt_v6-rev0/mingw32/bin/../lib/gcc/i686-w64-mingw32/8.1.0/../../../../i686-w64-mingw32/lib/../lib/libuser32.a(dmcet.o)
                              C:/GNU/MINGW64/i686-8.1.0-win32-dwarf-rt_v6-rev0/mingw32/bin/../lib/gcc/i686-w64-mingw32/8.1.0/../../../../i686-w64-mingw32/lib/../lib/libuser32.a(dmceh.o) (_lib32_libuser32_a_iname)

Allocating common symbols
Common symbol       size              file

number_zero         0x24              ../build/x86_Debug/pmc_memory.o
number_one          0x24              ../build/x86_Debug/pmc_memory.o
statistics_info     0x10              ../build/x86_Debug/pmc_statistics.o
hLocalHeap          0x4               ../build/x86_Debug/pmc_memory.o
configuration_info  0x4               ../build/x86_Debug/pmc_initialize.o

Discarded input sections

 .drectve       0x00000000       0x14 ../build/x86_Debug/debug.o
 .drectve       0x00000000       0x24 ../build/x86_Debug/pmc_initialize.o
 .drectve       0x00000000       0x54 ../build/x86_Debug/pmc_memory.o
 .drectve       0x00000000       0x20 ../build/x86_Debug/pmc_statistics.o
 .text          0x00000000        0x8 C:/GNU/MINGW64/i686-8.1.0-win32-dwarf-rt_v6-rev0/mingw32/bin/../lib/gcc/i686-w64-mingw32/8.1.0/../../../../i686-w64-mingw32/lib/../lib/libkernel32.a(dgzcs01342.o)
 .text          0x00000000        0x8 C:/GNU/MINGW64/i686-8.1.0-win32-dwarf-rt_v6-rev0/mingw32/bin/../lib/gcc/i686-w64-mingw32/8.1.0/../../../../i686-w64-mingw32/lib/../lib/libkernel32.a(dgzcs01336.o)
 .text          0x00000000        0x8 C:/GNU/MINGW64/i686-8.1.0-win32-dwarf-rt_v6-rev0/mingw32/bin/../lib/gcc/i686-w64-mingw32/8.1.0/../../../../i686-w64-mingw32/lib/../lib/libkernel32.a(dgzcs01335.o)
 .text          0x00000000        0x8 C:/GNU/MINGW64/i686-8.1.0-win32-dwarf-rt_v6-rev0/mingw32/bin/../lib/gcc/i686-w64-mingw32/8.1.0/../../../../i686-w64-mingw32/lib/../lib/libkernel32.a(dgzcs01330.o)
 .text          0x00000000        0x8 C:/GNU/MINGW64/i686-8.1.0-win32-dwarf-rt_v6-rev0/mingw32/bin/../lib/gcc/i686-w64-mingw32/8.1.0/../../../../i686-w64-mingw32/lib/../lib/libkernel32.a(dgzcs00729.o)
 .text          0x00000000        0x8 C:/GNU/MINGW64/i686-8.1.0-win32-dwarf-rt_v6-rev0/mingw32/bin/../lib/gcc/i686-w64-mingw32/8.1.0/../../../../i686-w64-mingw32/lib/../lib/libkernel32.a(dgzcs00727.o)
 .text          0x00000000        0x8 C:/GNU/MINGW64/i686-8.1.0-win32-dwarf-rt_v6-rev0/mingw32/bin/../lib/gcc/i686-w64-mingw32/8.1.0/../../../../i686-w64-mingw32/lib/../lib/libkernel32.a(dgzcs00725.o)
 .text          0x00000000        0x8 C:/GNU/MINGW64/i686-8.1.0-win32-dwarf-rt_v6-rev0/mingw32/bin/../lib/gcc/i686-w64-mingw32/8.1.0/../../../../i686-w64-mingw32/lib/../lib/libkernel32.a(dgzcs00723.o)
 .text          0x00000000        0x8 C:/GNU/MINGW64/i686-8.1.0-win32-dwarf-rt_v6-rev0/mingw32/bin/../lib/gcc/i686-w64-mingw32/8.1.0/../../../../i686-w64-mingw32/lib/../lib/libkernel32.a(dgzcs00666.o)
 .text          0x00000000        0x8 C:/GNU/MINGW64/i686-8.1.0-win32-dwarf-rt_v6-rev0/mingw32/bin/../lib/gcc/i686-w64-mingw32/8.1.0/../../../../i686-w64-mingw32/lib/../lib/libuser32.a(dmces00912.o)

Memory Configuration

Name             Origin             Length             Attributes
*default*        0x00000000         0xffffffff

Linker script and memory map

                0x6c640000                __image_base__ = 0x6c640000
                0x00000000                __dll__ = 0x0
                0x6c640000                ___ImageBase = 0x6c640000
                0x00001000                __section_alignment__ = 0x1000
                0x00000200                __file_alignment__ = 0x200
                0x00000004                __major_os_version__ = 0x4
                0x00000000                __minor_os_version__ = 0x0
                0x00000001                __major_image_version__ = 0x1
                0x00000000                __minor_image_version__ = 0x0
                0x00000004                __major_subsystem_version__ = 0x4
                0x00000000                __minor_subsystem_version__ = 0x0
                0x00000002                __subsystem__ = 0x2
                0x00200000                __size_of_stack_reserve__ = 0x200000
                0x00001000                __size_of_stack_commit__ = 0x1000
                0x00100000                __size_of_heap_reserve__ = 0x100000
                0x00001000                __size_of_heap_commit__ = 0x1000
                0x00000000                __loader_flags__ = 0x0
                0x00000000                __dll_characteristics__ = 0x0
LOAD ../build/x86_Debug/cpuid.o
LOAD ../build/x86_Debug/debug.o
LOAD ../build/x86_Debug/dllmain.o
LOAD ../build/x86_Debug/INTERNALTEST_op_DivRem.o
LOAD ../build/x86_Debug/INTERNALTEST_op_Multiply.o
LOAD ../build/x86_Debug/pmc_add.o
LOAD ../build/x86_Debug/pmc_bitwiseand.o
LOAD ../build/x86_Debug/pmc_bitwiseor.o
LOAD ../build/x86_Debug/pmc_bytes.o
LOAD ../build/x86_Debug/pmc_clone.o
LOAD ../build/x86_Debug/pmc_compare.o
LOAD ../build/x86_Debug/pmc_divrem.o
LOAD ../build/x86_Debug/pmc_equals.o
LOAD ../build/x86_Debug/pmc_exclusiveor.o
LOAD ../build/x86_Debug/pmc_from.o
LOAD ../build/x86_Debug/pmc_getpropertyvalue.o
LOAD ../build/x86_Debug/pmc_greatestcommondivisor.o
LOAD ../build/x86_Debug/pmc_initialize.o
LOAD ../build/x86_Debug/pmc_memory.o
LOAD ../build/x86_Debug/pmc_modpow.o
LOAD ../build/x86_Debug/pmc_multiply.o
LOAD ../build/x86_Debug/pmc_parse.o
LOAD ../build/x86_Debug/pmc_pow.o
LOAD ../build/x86_Debug/pmc_shift.o
LOAD ../build/x86_Debug/pmc_statistics.o
LOAD ../build/x86_Debug/pmc_subtruct.o
LOAD ../build/x86_Debug/pmc_to.o
LOAD ../build/x86_Debug/pmc_tostring.o
LOAD ../build/x86_Debug/TEST_autogenerated.o
LOAD ../build/x86_Debug/TEST_op_Add.o
LOAD ../build/x86_Debug/TEST_op_BitwiseAnd.o
LOAD ../build/x86_Debug/TEST_op_BitwiseOr.o
LOAD ../build/x86_Debug/TEST_op_Clone.o
LOAD ../build/x86_Debug/TEST_op_Compare.o
LOAD ../build/x86_Debug/TEST_op_DivRem.o
LOAD ../build/x86_Debug/TEST_op_Equals.o
LOAD ../build/x86_Debug/TEST_op_ExclusiveOr.o
LOAD ../build/x86_Debug/TEST_op_From_To.o
LOAD ../build/x86_Debug/TEST_op_GetPropertyValue.o
LOAD ../build/x86_Debug/TEST_op_GreatestCommonDivisor.o
LOAD ../build/x86_Debug/TEST_op_ModPow.o
LOAD ../build/x86_Debug/TEST_op_Multiply.o
LOAD ../build/x86_Debug/TEST_op_ParseDN.o
LOAD ../build/x86_Debug/TEST_op_ParseX.o
LOAD ../build/x86_Debug/TEST_op_Pow.o
LOAD ../build/x86_Debug/TEST_op_Shift.o
LOAD ../build/x86_Debug/TEST_op_Subtruct.o
LOAD ../build/x86_Debug/TEST_op_ToStringD.o
LOAD ../build/x86_Debug/TEST_op_ToStringN.o
LOAD ../build/x86_Debug/TEST_op_ToStringX.o
LOAD ../build/x86_Debug/version.o
LOAD C:/GNU/MINGW64/i686-8.1.0-win32-dwarf-rt_v6-rev0/mingw32/bin/../lib/gcc/i686-w64-mingw32/8.1.0/../../../../i686-w64-mingw32/lib/../lib/libkernel32.a
LOAD C:/GNU/MINGW64/i686-8.1.0-win32-dwarf-rt_v6-rev0/mingw32/bin/../lib/gcc/i686-w64-mingw32/8.1.0/../../../../i686-w64-mingw32/lib/../lib/libuser32.a
                0x000003d0                . = SIZEOF_HEADERS
                0x00001000                . = ALIGN (__section_alignment__)

.text           0x6c641000   0x405c00
 *(.init)
 *(.text)
 .text          0x6c641000      0x2e4 ../build/x86_Debug/cpuid.o
                0x6c641123                GetCPUInfo
 .text          0x6c6412e4      0x338 ../build/x86_Debug/debug.o
                0x6c6413d2                DoDebug@4
                0x6c6414cc                TEST_Assert
                0x6c641528                FormatTestLabel
                0x6c641558                FormatTestMesssage
                0x6c641581                DumpBinary_UNIT
 .text          0x6c64161c       0x58 ../build/x86_Debug/dllmain.o
                0x6c64161c                DllMain@12
 .text          0x6c641674      0x4dc ../build/x86_Debug/INTERNALTEST_op_DivRem.o
                0x6c6416fc                INTERNALTEST_DivRem_X_X
 .text          0x6c641b50      0x304 ../build/x86_Debug/INTERNALTEST_op_Multiply.o
                0x6c641bf0                INTERNALTEST_Multiply_X_X_Imp
 .text          0x6c641e54     0x16e4 ../build/x86_Debug/pmc_add.o
                0x6c642e09                PMC_Add_I_X@12
                0x6c642e8d                PMC_Add_X_I@12
                0x6c6431c8                PMC_Add_L_X@16
                0x6c64325f                PMC_Add_X_L@16
                0x6c6432f6                PMC_Add_X_X@12
                0x6c64350e                Initialize_Add
 .text          0x6c643538      0xc70 ../build/x86_Debug/pmc_bitwiseand.o
                0x6c643ca4                PMC_BitwiseAnd_I_X@12
                0x6c643d28                PMC_BitwiseAnd_X_I@12
                0x6c643dac                PMC_BitwiseAnd_L_X@16
                0x6c643ec6                PMC_BitwiseAnd_X_L@16
                0x6c643fe0                PMC_BitwiseAnd_X_X@12
                0x6c6441a1                Initialize_BitwiseAnd
 .text          0x6c6441a8     0x105c ../build/x86_Debug/pmc_bitwiseor.o
                0x6c644b7a                PMC_BitwiseOr_I_X@12
                0x6c644bfe                PMC_BitwiseOr_X_I@12
                0x6c644edf                PMC_BitwiseOr_L_X@16
                0x6c644f76                PMC_BitwiseOr_X_L@16
                0x6c64500d                PMC_BitwiseOr_X_X@12
                0x6c6451fb                Initialize_BitwiseOr
 .text          0x6c645204      0x284 ../build/x86_Debug/pmc_bytes.o
                0x6c6452e9                PMC_FromByteArray@12
                0x6c6453c2                PMC_ToByteArray@16
 .text          0x6c645488       0xac ../build/x86_Debug/pmc_clone.o
                0x6c645488                PMC_Clone_X@8
                0x6c64552d                Initialize_Clone
 .text          0x6c645534      0x65c ../build/x86_Debug/pmc_compare.o
                0x6c645589                Compare_Imp
                0x6c6456ac                PMC_Compare_I_X@12
                0x6c645713                PMC_Compare_X_I@12
                0x6c64596c                PMC_Compare_L_X@16
                0x6c6459e6                PMC_Compare_X_L@16
                0x6c645a5c                PMC_Compare_X_X@12
                0x6c645b88                Initialize_Compare
 .text          0x6c645b90     0x4e8c ../build/x86_Debug/pmc_divrem.o
                0x6c6465e4                DivRem_X_X
                0x6c6466e9                DivRem_X_1W
                0x6c6499ec                PMC_DivRem_I_X@16
                0x6c649b18                PMC_DivRem_X_I@16
                0x6c649d14                PMC_DivRem_L_X@20
                0x6c64a066                PMC_DivRem_X_L@20
                0x6c64a4ed                PMC_DivRem_X_X@16
                0x6c64a9e6                Initialize_DivRem
 .text          0x6c64aa1c      0x554 ../build/x86_Debug/pmc_equals.o
                0x6c64aa71                Equals_X_X
                0x6c64ab35                PMC_Equals_I_X@12
                0x6c64ab9e                PMC_Equals_X_I@12
                0x6c64ad5f                PMC_Equals_L_X@16
                0x6c64addb                PMC_Equals_X_L@16
                0x6c64ae57                PMC_Equals_X_X@12
                0x6c64af67                Initialize_Equals
 .text          0x6c64af70     0x10e4 ../build/x86_Debug/pmc_exclusiveor.o
                0x6c64b96b                PMC_ExclusiveOr_I_X@12
                0x6c64b9f5                PMC_ExclusiveOr_X_I@12
                0x6c64bd05                PMC_ExclusiveOr_L_X@16
                0x6c64bda2                PMC_ExclusiveOr_X_L@16
                0x6c64be3f                PMC_ExclusiveOr_X_X@12
                0x6c64c04d                Initialize_ExclusiveOr
 .text          0x6c64c054      0x288 ../build/x86_Debug/pmc_from.o
                0x6c64c0a9                From_I_Imp
                0x6c64c109                From_L_Imp
                0x6c64c1ed                PMC_From_I@8
                0x6c64c250                PMC_From_L@12
                0x6c64c2d6                Initialize_From
 .text          0x6c64c2dc       0xe8 ../build/x86_Debug/pmc_getpropertyvalue.o
                0x6c64c2dc                PMC_GetPropertyValue_X_I@12
                0x6c64c3be                Initialize_GetPropertyValue
 .text          0x6c64c3c4     0x1274 ../build/x86_Debug/pmc_greatestcommondivisor.o
                0x6c64c91f                PMC_GreatestCommonDivisor_I_X@12
                0x6c64c9a3                PMC_GreatestCommonDivisor_X_I@12
                0x6c64d0ed                PMC_GreatestCommonDivisor_L_X@16
                0x6c64d184                PMC_GreatestCommonDivisor_X_L@16
                0x6c64d21b                PMC_GreatestCommonDivisor_X_X@12
                0x6c64d632                Initialize_GreatestCommonDivisor
 .text          0x6c64d638      0x56c ../build/x86_Debug/pmc_initialize.o
                0x6c64d638                PMC_UINT_Initialize@4
 .text          0x6c64dba4     0x147c ../build/x86_Debug/pmc_memory.o
                0x6c64e573                AllocateBlock
                0x6c64e662                DeallocateBlock
                0x6c64e770                CheckBlockLight
                0x6c64e9ae                AttatchNumber
                0x6c64e9f0                AllocateNumber
                0x6c64ea6b                DetatchNumber
                0x6c64ea95                DeallocateNumber
                0x6c64eba8                CommitNumber
                0x6c64ed76                CheckNumber
                0x6c64edfa                DuplicateNumber
                0x6c64eeba                PMC_Dispose@4
                0x6c64eeed                Initialize_Memory
                0x6c64efae                AllocateHeapArea
                0x6c64eff1                DeallocateHeapArea
 .text          0x6c64f020     0x110c ../build/x86_Debug/pmc_modpow.o
                0x6c65003e                PMC_ModPow_X_X_X@16
                0x6c650124                Initialize_ModPow
 .text          0x6c65012c     0x2370 ../build/x86_Debug/pmc_multiply.o
                0x6c650292                Multiply_X_X_Imp
                0x6c651d51                PMC_Multiply_I_X@12
                0x6c651dd5                PMC_Multiply_X_I@12
                0x6c6520e8                PMC_Multiply_L_X@16
                0x6c65217f                PMC_Multiply_X_L@16
                0x6c652216                PMC_Multiply_X_X@12
                0x6c652437                Initialize_Multiply
 .text          0x6c65249c     0x2c1c ../build/x86_Debug/pmc_parse.o
                0x6c654f0c                PMC_TryParse@16
                0x6c654ff4                Initialize_Parse
 .text          0x6c6550b8      0x4f8 ../build/x86_Debug/pmc_pow.o
                0x6c655526                PMC_Pow_X_I@12
                0x6c6555aa                Initialize_Pow
 .text          0x6c6555b0     0x3af0 ../build/x86_Debug/pmc_shift.o
                0x6c6556b8                RightShift_Imp
                0x6c65647b                RightShift_Imp_DIV
                0x6c65723e                LeftShift_Imp
                0x6c657ffe                LeftShift_Imp_DIV
                0x6c658dbe                PMC_RightShift_X_I@12
                0x6c658f35                PMC_LeftShift_X_I@12
                0x6c659098                Initialize_Shift
 .text          0x6c6590a0       0x38 ../build/x86_Debug/pmc_statistics.o
                0x6c6590a0                PMC_GetStatisticsInfo@4
 .text          0x6c6590d8     0x11e8 ../build/x86_Debug/pmc_subtruct.o
                0x6c6596a4                Subtruct_Imp
                0x6c659858                PMC_Subtruct_I_X@12
                0x6c65995a                PMC_Subtruct_X_I@12
                0x6c659b38                PMC_Subtruct_L_X@16
                0x6c659d89                PMC_Subtruct_X_L@16
                0x6c65a0b4                PMC_Subtruct_X_X@12
                0x6c65a2b7                Initialize_Subtruct
 .text          0x6c65a2c0      0x174 ../build/x86_Debug/pmc_to.o
                0x6c65a2fd                PMC_To_X_I@8
                0x6c65a363                PMC_To_X_L@8
                0x6c65a42e                Initialize_To
 .text          0x6c65a434     0x1658 ../build/x86_Debug/pmc_tostring.o
                0x6c65b883                PMC_ToString@24
                0x6c65b9f8                Initialize_ToString
 .text          0x6c65ba8c   0x3e27b4 ../build/x86_Debug/TEST_autogenerated.o
                0x6c65ba8c                TEST_autogenerated
 .text          0x6ca3e240      0xb48 ../build/x86_Debug/TEST_op_Add.o
                0x6ca3e282                TEST_PMC_Add_I_X
                0x6ca3e48e                TEST_PMC_Add_L_X
                0x6ca3e6b9                TEST_PMC_Add_X_I
                0x6ca3e8c5                TEST_PMC_Add_X_L
                0x6ca3eaf0                TEST_PMC_Add_X_X
 .text          0x6ca3ed88      0x8a0 ../build/x86_Debug/TEST_op_BitwiseAnd.o
                0x6ca3edca                TEST_PMC_BitwiseAnd_I_X
                0x6ca3ef1c                TEST_PMC_BitwiseAnd_L_X
                0x6ca3f0ab                TEST_PMC_BitwiseAnd_X_I
                0x6ca3f1fd                TEST_PMC_BitwiseAnd_X_L
                0x6ca3f38c                TEST_PMC_BitwiseAnd_X_X
 .text          0x6ca3f628      0xb58 ../build/x86_Debug/TEST_op_BitwiseOr.o
                0x6ca3f66a                TEST_PMC_BitwiseOr_I_X
                0x6ca3f879                TEST_PMC_BitwiseOr_L_X
                0x6ca3faa7                TEST_PMC_BitwiseOr_X_I
                0x6ca3fcb6                TEST_PMC_BitwiseOr_X_L
                0x6ca3fee4                TEST_PMC_BitwiseOr_X_X
 .text          0x6ca40180      0x248 ../build/x86_Debug/TEST_op_Clone.o
                0x6ca401c2                TEST_PMC_Clone_X
 .text          0x6ca403c8      0x74c ../build/x86_Debug/TEST_op_Compare.o
                0x6ca403c8                TEST_PMC_Compare_I_X
                0x6ca4051a                TEST_PMC_Compare_L_X
                0x6ca4067f                TEST_PMC_Compare_X_I
                0x6ca407d1                TEST_PMC_Compare_X_L
                0x6ca40936                TEST_PMC_Compare_X_X
 .text          0x6ca40b14      0xcd0 ../build/x86_Debug/TEST_op_DivRem.o
                0x6ca40b56                TEST_PMC_DivRem_I_X
                0x6ca40cfa                TEST_PMC_DivRem_L_X
                0x6ca40f03                TEST_PMC_DivRem_X_I
                0x6ca4116a                TEST_PMC_DivRem_X_L
                0x6ca4143f                TEST_PMC_DivRem_X_X
 .text          0x6ca417e4      0x74c ../build/x86_Debug/TEST_op_Equals.o
                0x6ca417e4                TEST_PMC_Equals_I_X
                0x6ca41936                TEST_PMC_Equals_L_X
                0x6ca41a9b                TEST_PMC_Equals_X_I
                0x6ca41bed                TEST_PMC_Equals_X_L
                0x6ca41d52                TEST_PMC_Equals_X_X
 .text          0x6ca41f30      0xb58 ../build/x86_Debug/TEST_op_ExclusiveOr.o
                0x6ca41f72                TEST_PMC_ExclusiveOr_I_X
                0x6ca42181                TEST_PMC_ExclusiveOr_L_X
                0x6ca423af                TEST_PMC_ExclusiveOr_X_I
                0x6ca425be                TEST_PMC_ExclusiveOr_X_L
                0x6ca427ec                TEST_PMC_ExclusiveOr_X_X
 .text          0x6ca42a88      0x624 ../build/x86_Debug/TEST_op_From_To.o
                0x6ca42aca                TEST_PMC_From_I
                0x6ca42c45                TEST_PMC_From_L
                0x6ca42ddf                TEST_PMC_To_X_I
                0x6ca42f2f                TEST_PMC_To_X_L
 .text          0x6ca430ac      0x150 ../build/x86_Debug/TEST_op_GetPropertyValue.o
                0x6ca430ac                TEST_PMC_GetPropertyValue_X_I
 .text          0x6ca431fc      0xb94 ../build/x86_Debug/TEST_op_GreatestCommonDivisor.o
                0x6ca4323e                TEST_PMC_GreatestCommonDivisor_I_X
                0x6ca43459                TEST_PMC_GreatestCommonDivisor_L_X
                0x6ca43693                TEST_PMC_GreatestCommonDivisor_X_I
                0x6ca438ae                TEST_PMC_GreatestCommonDivisor_X_L
                0x6ca43ae8                TEST_PMC_GreatestCommonDivisor_X_X
 .text          0x6ca43d90      0x37c ../build/x86_Debug/TEST_op_ModPow.o
                0x6ca43dd2                TEST_PMC_ModPow_X_X_X
 .text          0x6ca4410c      0xb48 ../build/x86_Debug/TEST_op_Multiply.o
                0x6ca4414e                TEST_PMC_Multiply_I_X
                0x6ca4435a                TEST_PMC_Multiply_L_X
                0x6ca44585                TEST_PMC_Multiply_X_I
                0x6ca44791                TEST_PMC_Multiply_X_L
                0x6ca449bc                TEST_PMC_Multiply_X_X
 .text          0x6ca44c54      0x470 ../build/x86_Debug/TEST_op_ParseDN.o
                0x6ca44c96                TEST_PMC_ParseDN1
                0x6ca44eab                TEST_PMC_ParseDN2
 .text          0x6ca450c4      0x25c ../build/x86_Debug/TEST_op_ParseX.o
                0x6ca45106                TEST_PMC_ParseX
 .text          0x6ca45320      0x250 ../build/x86_Debug/TEST_op_Pow.o
                0x6ca45362                TEST_PMC_Pow_X_I
 .text          0x6ca45570      0x460 ../build/x86_Debug/TEST_op_Shift.o
                0x6ca455b2                TEST_PMC_RightShift_X_I
                0x6ca457c1                TEST_PMC_LeftShift_X_I
 .text          0x6ca459d0      0xa20 ../build/x86_Debug/TEST_op_Subtruct.o
                0x6ca45a12                TEST_PMC_Subtruct_I_X
                0x6ca45b69                TEST_PMC_Subtruct_L_X
                0x6ca45cfd                TEST_PMC_Subtruct_X_I
                0x6ca45f15                TEST_PMC_Subtruct_X_L
                0x6ca4614c                TEST_PMC_Subtruct_X_X
 .text          0x6ca463f0      0x210 ../build/x86_Debug/TEST_op_ToStringD.o
                0x6ca463f0                TEST_PMC_ToStringD
 .text          0x6ca46600      0x20c ../build/x86_Debug/TEST_op_ToStringN.o
                0x6ca46600                TEST_PMC_ToStringN
 .text          0x6ca4680c      0x210 ../build/x86_Debug/TEST_op_ToStringX.o
                0x6ca4680c                TEST_PMC_ToStringX
 .text          0x6ca46a1c        0x0 C:/GNU/MINGW64/i686-8.1.0-win32-dwarf-rt_v6-rev0/mingw32/bin/../lib/gcc/i686-w64-mingw32/8.1.0/../../../../i686-w64-mingw32/lib/../lib/libkernel32.a(dgzch.o)
 .text          0x6ca46a1c        0x0 C:/GNU/MINGW64/i686-8.1.0-win32-dwarf-rt_v6-rev0/mingw32/bin/../lib/gcc/i686-w64-mingw32/8.1.0/../../../../i686-w64-mingw32/lib/../lib/libkernel32.a(dgzct.o)
 .text          0x6ca46a1c        0x0 C:/GNU/MINGW64/i686-8.1.0-win32-dwarf-rt_v6-rev0/mingw32/bin/../lib/gcc/i686-w64-mingw32/8.1.0/../../../../i686-w64-mingw32/lib/../lib/libuser32.a(dmceh.o)
 .text          0x6ca46a1c        0x0 C:/GNU/MINGW64/i686-8.1.0-win32-dwarf-rt_v6-rev0/mingw32/bin/../lib/gcc/i686-w64-mingw32/8.1.0/../../../../i686-w64-mingw32/lib/../lib/libuser32.a(dmcet.o)
 *(SORT_BY_NAME(.text$*))
 *(.text.*)
 *(.gnu.linkonce.t.*)
 *(.glue_7t)
 *(.glue_7)
                0x6ca46a1c                ___CTOR_LIST__ = .
                0x6ca46a1c                __CTOR_LIST__ = .
                0x6ca46a1c        0x4 LONG 0xffffffff
 *(.ctors)
 *(.ctor)
 *(SORT_BY_NAME(.ctors.*))
                0x6ca46a20        0x4 LONG 0x0
                0x6ca46a24                ___DTOR_LIST__ = .
                0x6ca46a24                __DTOR_LIST__ = .
                0x6ca46a24        0x4 LONG 0xffffffff
 *(.dtors)
 *(.dtor)
 *(SORT_BY_NAME(.dtors.*))
                0x6ca46a28        0x4 LONG 0x0
 *(.fini)
 *(.gcc_exc)
                [!provide]                PROVIDE (etext = .)
                [!provide]                PROVIDE (_etext = .)
 *(.gcc_except_table)

.data           0x6ca47000    0x64200
                0x6ca47000                __data_start__ = .
 *(.data)
 .data          0x6ca47000        0x0 ../build/x86_Debug/cpuid.o
 .data          0x6ca47000        0x0 ../build/x86_Debug/debug.o
 .data          0x6ca47000        0x0 ../build/x86_Debug/dllmain.o
 .data          0x6ca47000        0x0 ../build/x86_Debug/INTERNALTEST_op_DivRem.o
 .data          0x6ca47000        0x0 ../build/x86_Debug/INTERNALTEST_op_Multiply.o
 .data          0x6ca47000        0x0 ../build/x86_Debug/pmc_add.o
 .data          0x6ca47000        0x0 ../build/x86_Debug/pmc_bitwiseand.o
 .data          0x6ca47000        0x0 ../build/x86_Debug/pmc_bitwiseor.o
 .data          0x6ca47000        0x0 ../build/x86_Debug/pmc_bytes.o
 .data          0x6ca47000        0x0 ../build/x86_Debug/pmc_clone.o
 .data          0x6ca47000        0x0 ../build/x86_Debug/pmc_compare.o
 .data          0x6ca47000        0x0 ../build/x86_Debug/pmc_divrem.o
 .data          0x6ca47000        0x0 ../build/x86_Debug/pmc_equals.o
 .data          0x6ca47000        0x0 ../build/x86_Debug/pmc_exclusiveor.o
 .data          0x6ca47000        0x0 ../build/x86_Debug/pmc_from.o
 .data          0x6ca47000        0x0 ../build/x86_Debug/pmc_getpropertyvalue.o
 .data          0x6ca47000        0x0 ../build/x86_Debug/pmc_greatestcommondivisor.o
 .data          0x6ca47000        0x0 ../build/x86_Debug/pmc_initialize.o
 .data          0x6ca47000        0x0 ../build/x86_Debug/pmc_memory.o
 .data          0x6ca47000        0x0 ../build/x86_Debug/pmc_modpow.o
 .data          0x6ca47000        0x0 ../build/x86_Debug/pmc_multiply.o
 .data          0x6ca47000        0x0 ../build/x86_Debug/pmc_parse.o
 .data          0x6ca47000        0x0 ../build/x86_Debug/pmc_pow.o
 .data          0x6ca47000        0x0 ../build/x86_Debug/pmc_shift.o
 .data          0x6ca47000        0x0 ../build/x86_Debug/pmc_statistics.o
 .data          0x6ca47000        0x0 ../build/x86_Debug/pmc_subtruct.o
 .data          0x6ca47000        0x0 ../build/x86_Debug/pmc_to.o
 .data          0x6ca47000       0xa0 ../build/x86_Debug/pmc_tostring.o
 .data          0x6ca470a0    0x64040 ../build/x86_Debug/TEST_autogenerated.o
 .data          0x6caab0e0        0x0 ../build/x86_Debug/TEST_op_Add.o
 .data          0x6caab0e0        0x0 ../build/x86_Debug/TEST_op_BitwiseAnd.o
 .data          0x6caab0e0        0x0 ../build/x86_Debug/TEST_op_BitwiseOr.o
 .data          0x6caab0e0        0x0 ../build/x86_Debug/TEST_op_Clone.o
 .data          0x6caab0e0        0x0 ../build/x86_Debug/TEST_op_Compare.o
 .data          0x6caab0e0        0x0 ../build/x86_Debug/TEST_op_DivRem.o
 .data          0x6caab0e0        0x0 ../build/x86_Debug/TEST_op_Equals.o
 .data          0x6caab0e0        0x0 ../build/x86_Debug/TEST_op_ExclusiveOr.o
 .data          0x6caab0e0        0x0 ../build/x86_Debug/TEST_op_From_To.o
 .data          0x6caab0e0        0x0 ../build/x86_Debug/TEST_op_GetPropertyValue.o
 .data          0x6caab0e0        0x0 ../build/x86_Debug/TEST_op_GreatestCommonDivisor.o
 .data          0x6caab0e0        0x0 ../build/x86_Debug/TEST_op_ModPow.o
 .data          0x6caab0e0        0x0 ../build/x86_Debug/TEST_op_Multiply.o
 .data          0x6caab0e0        0x0 ../build/x86_Debug/TEST_op_ParseDN.o
 .data          0x6caab0e0        0x0 ../build/x86_Debug/TEST_op_ParseX.o
 .data          0x6caab0e0        0x0 ../build/x86_Debug/TEST_op_Pow.o
 .data          0x6caab0e0        0x0 ../build/x86_Debug/TEST_op_Shift.o
 .data          0x6caab0e0        0x0 ../build/x86_Debug/TEST_op_Subtruct.o
 .data          0x6caab0e0        0x0 ../build/x86_Debug/TEST_op_ToStringD.o
 .data          0x6caab0e0        0x0 ../build/x86_Debug/TEST_op_ToStringN.o
 .data          0x6caab0e0        0x0 ../build/x86_Debug/TEST_op_ToStringX.o
 .data          0x6caab0e0        0x0 C:/GNU/MINGW64/i686-8.1.0-win32-dwarf-rt_v6-rev0/mingw32/bin/../lib/gcc/i686-w64-mingw32/8.1.0/../../../../i686-w64-mingw32/lib/../lib/libkernel32.a(dgzcs01342.o)
 .data          0x6caab0e0        0x0 C:/GNU/MINGW64/i686-8.1.0-win32-dwarf-rt_v6-rev0/mingw32/bin/../lib/gcc/i686-w64-mingw32/8.1.0/../../../../i686-w64-mingw32/lib/../lib/libkernel32.a(dgzcs01336.o)
 .data          0x6caab0e0        0x0 C:/GNU/MINGW64/i686-8.1.0-win32-dwarf-rt_v6-rev0/mingw32/bin/../lib/gcc/i686-w64-mingw32/8.1.0/../../../../i686-w64-mingw32/lib/../lib/libkernel32.a(dgzcs01335.o)
 .data          0x6caab0e0        0x0 C:/GNU/MINGW64/i686-8.1.0-win32-dwarf-rt_v6-rev0/mingw32/bin/../lib/gcc/i686-w64-mingw32/8.1.0/../../../../i686-w64-mingw32/lib/../lib/libkernel32.a(dgzcs01330.o)
 .data          0x6caab0e0        0x0 C:/GNU/MINGW64/i686-8.1.0-win32-dwarf-rt_v6-rev0/mingw32/bin/../lib/gcc/i686-w64-mingw32/8.1.0/../../../../i686-w64-mingw32/lib/../lib/libkernel32.a(dgzcs00729.o)
 .data          0x6caab0e0        0x0 C:/GNU/MINGW64/i686-8.1.0-win32-dwarf-rt_v6-rev0/mingw32/bin/../lib/gcc/i686-w64-mingw32/8.1.0/../../../../i686-w64-mingw32/lib/../lib/libkernel32.a(dgzcs00727.o)
 .data          0x6caab0e0        0x0 C:/GNU/MINGW64/i686-8.1.0-win32-dwarf-rt_v6-rev0/mingw32/bin/../lib/gcc/i686-w64-mingw32/8.1.0/../../../../i686-w64-mingw32/lib/../lib/libkernel32.a(dgzcs00725.o)
 .data          0x6caab0e0        0x0 C:/GNU/MINGW64/i686-8.1.0-win32-dwarf-rt_v6-rev0/mingw32/bin/../lib/gcc/i686-w64-mingw32/8.1.0/../../../../i686-w64-mingw32/lib/../lib/libkernel32.a(dgzcs00723.o)
 .data          0x6caab0e0        0x0 C:/GNU/MINGW64/i686-8.1.0-win32-dwarf-rt_v6-rev0/mingw32/bin/../lib/gcc/i686-w64-mingw32/8.1.0/../../../../i686-w64-mingw32/lib/../lib/libkernel32.a(dgzcs00666.o)
 .data          0x6caab0e0        0x0 C:/GNU/MINGW64/i686-8.1.0-win32-dwarf-rt_v6-rev0/mingw32/bin/../lib/gcc/i686-w64-mingw32/8.1.0/../../../../i686-w64-mingw32/lib/../lib/libkernel32.a(dgzch.o)
 .data          0x6caab0e0        0x0 C:/GNU/MINGW64/i686-8.1.0-win32-dwarf-rt_v6-rev0/mingw32/bin/../lib/gcc/i686-w64-mingw32/8.1.0/../../../../i686-w64-mingw32/lib/../lib/libkernel32.a(dgzct.o)
 .data          0x6caab0e0        0x0 C:/GNU/MINGW64/i686-8.1.0-win32-dwarf-rt_v6-rev0/mingw32/bin/../lib/gcc/i686-w64-mingw32/8.1.0/../../../../i686-w64-mingw32/lib/../lib/libuser32.a(dmces00912.o)
 .data          0x6caab0e0        0x0 C:/GNU/MINGW64/i686-8.1.0-win32-dwarf-rt_v6-rev0/mingw32/bin/../lib/gcc/i686-w64-mingw32/8.1.0/../../../../i686-w64-mingw32/lib/../lib/libuser32.a(dmceh.o)
 .data          0x6caab0e0        0x0 C:/GNU/MINGW64/i686-8.1.0-win32-dwarf-rt_v6-rev0/mingw32/bin/../lib/gcc/i686-w64-mingw32/8.1.0/../../../../i686-w64-mingw32/lib/../lib/libuser32.a(dmcet.o)
 *(.data2)
 *(SORT_BY_NAME(.data$*))
 *(.jcr)
                0x6caab0e0                __data_end__ = .
 *(.data_cygwin_nocopy)

.rdata          0x6caac000    0x59000
 *(.rdata)
 .rdata         0x6caac000      0x1bc ../build/x86_Debug/debug.o
 .rdata         0x6caac1bc       0xf0 ../build/x86_Debug/INTERNALTEST_op_DivRem.o
 .rdata         0x6caac2ac       0x7c ../build/x86_Debug/INTERNALTEST_op_Multiply.o
 .rdata         0x6caac328       0xf0 ../build/x86_Debug/pmc_parse.o
 .rdata         0x6caac418       0xe8 ../build/x86_Debug/pmc_tostring.o
 .rdata         0x6caac500    0x55120 ../build/x86_Debug/TEST_autogenerated.o
 .rdata         0x6cb01620      0x2b4 ../build/x86_Debug/TEST_op_Add.o
 .rdata         0x6cb018d4      0x344 ../build/x86_Debug/TEST_op_BitwiseAnd.o
 .rdata         0x6cb01c18      0x32c ../build/x86_Debug/TEST_op_BitwiseOr.o
 .rdata         0x6cb01f44      0x114 ../build/x86_Debug/TEST_op_Clone.o
 .rdata         0x6cb02058      0x2bc ../build/x86_Debug/TEST_op_Compare.o
 .rdata         0x6cb02314      0x304 ../build/x86_Debug/TEST_op_DivRem.o
 .rdata         0x6cb02618      0x2ac ../build/x86_Debug/TEST_op_Equals.o
 .rdata         0x6cb028c4      0x354 ../build/x86_Debug/TEST_op_ExclusiveOr.o
 .rdata         0x6cb02c18      0x200 ../build/x86_Debug/TEST_op_From_To.o
 .rdata         0x6cb02e18      0x104 ../build/x86_Debug/TEST_op_GetPropertyValue.o
 .rdata         0x6cb02f1c      0x41c ../build/x86_Debug/TEST_op_GreatestCommonDivisor.o
 .rdata         0x6cb03338      0x128 ../build/x86_Debug/TEST_op_ModPow.o
 .rdata         0x6cb03460      0x318 ../build/x86_Debug/TEST_op_Multiply.o
 .rdata         0x6cb03778      0x10c ../build/x86_Debug/TEST_op_ParseDN.o
 .rdata         0x6cb03884       0xdc ../build/x86_Debug/TEST_op_ParseX.o
 .rdata         0x6cb03960      0x114 ../build/x86_Debug/TEST_op_Pow.o
 .rdata         0x6cb03a74      0x1b0 ../build/x86_Debug/TEST_op_Shift.o
 .rdata         0x6cb03c24      0x31c ../build/x86_Debug/TEST_op_Subtruct.o
 .rdata         0x6cb03f40       0xe0 ../build/x86_Debug/TEST_op_ToStringD.o
 .rdata         0x6cb04020       0xdc ../build/x86_Debug/TEST_op_ToStringN.o
 .rdata         0x6cb040fc       0xe0 ../build/x86_Debug/TEST_op_ToStringX.o
 *(SORT_BY_NAME(.rdata$*))
 .rdata$zzz     0x6cb041dc       0x40 ../build/x86_Debug/cpuid.o
 .rdata$zzz     0x6cb0421c       0x40 ../build/x86_Debug/debug.o
 .rdata$zzz     0x6cb0425c       0x40 ../build/x86_Debug/dllmain.o
 .rdata$zzz     0x6cb0429c       0x40 ../build/x86_Debug/INTERNALTEST_op_DivRem.o
 .rdata$zzz     0x6cb042dc       0x40 ../build/x86_Debug/INTERNALTEST_op_Multiply.o
 .rdata$zzz     0x6cb0431c       0x40 ../build/x86_Debug/pmc_add.o
 .rdata$zzz     0x6cb0435c       0x40 ../build/x86_Debug/pmc_bitwiseand.o
 .rdata$zzz     0x6cb0439c       0x40 ../build/x86_Debug/pmc_bitwiseor.o
 .rdata$zzz     0x6cb043dc       0x40 ../build/x86_Debug/pmc_bytes.o
 .rdata$zzz     0x6cb0441c       0x40 ../build/x86_Debug/pmc_clone.o
 .rdata$zzz     0x6cb0445c       0x40 ../build/x86_Debug/pmc_compare.o
 .rdata$zzz     0x6cb0449c       0x40 ../build/x86_Debug/pmc_divrem.o
 .rdata$zzz     0x6cb044dc       0x40 ../build/x86_Debug/pmc_equals.o
 .rdata$zzz     0x6cb0451c       0x40 ../build/x86_Debug/pmc_exclusiveor.o
 .rdata$zzz     0x6cb0455c       0x40 ../build/x86_Debug/pmc_from.o
 .rdata$zzz     0x6cb0459c       0x40 ../build/x86_Debug/pmc_getpropertyvalue.o
 .rdata$zzz     0x6cb045dc       0x40 ../build/x86_Debug/pmc_greatestcommondivisor.o
 .rdata$zzz     0x6cb0461c       0x40 ../build/x86_Debug/pmc_initialize.o
 .rdata$zzz     0x6cb0465c       0x40 ../build/x86_Debug/pmc_memory.o
 .rdata$zzz     0x6cb0469c       0x40 ../build/x86_Debug/pmc_modpow.o
 .rdata$zzz     0x6cb046dc       0x40 ../build/x86_Debug/pmc_multiply.o
 .rdata$zzz     0x6cb0471c       0x40 ../build/x86_Debug/pmc_parse.o
 .rdata$zzz     0x6cb0475c       0x40 ../build/x86_Debug/pmc_pow.o
 .rdata$zzz     0x6cb0479c       0x40 ../build/x86_Debug/pmc_shift.o
 .rdata$zzz     0x6cb047dc       0x40 ../build/x86_Debug/pmc_statistics.o
 .rdata$zzz     0x6cb0481c       0x40 ../build/x86_Debug/pmc_subtruct.o
 .rdata$zzz     0x6cb0485c       0x40 ../build/x86_Debug/pmc_to.o
 .rdata$zzz     0x6cb0489c       0x40 ../build/x86_Debug/pmc_tostring.o
 .rdata$zzz     0x6cb048dc       0x40 ../build/x86_Debug/TEST_autogenerated.o
 .rdata$zzz     0x6cb0491c       0x40 ../build/x86_Debug/TEST_op_Add.o
 .rdata$zzz     0x6cb0495c       0x40 ../build/x86_Debug/TEST_op_BitwiseAnd.o
 .rdata$zzz     0x6cb0499c       0x40 ../build/x86_Debug/TEST_op_BitwiseOr.o
 .rdata$zzz     0x6cb049dc       0x40 ../build/x86_Debug/TEST_op_Clone.o
 .rdata$zzz     0x6cb04a1c       0x40 ../build/x86_Debug/TEST_op_Compare.o
 .rdata$zzz     0x6cb04a5c       0x40 ../build/x86_Debug/TEST_op_DivRem.o
 .rdata$zzz     0x6cb04a9c       0x40 ../build/x86_Debug/TEST_op_Equals.o
 .rdata$zzz     0x6cb04adc       0x40 ../build/x86_Debug/TEST_op_ExclusiveOr.o
 .rdata$zzz     0x6cb04b1c       0x40 ../build/x86_Debug/TEST_op_From_To.o
 .rdata$zzz     0x6cb04b5c       0x40 ../build/x86_Debug/TEST_op_GetPropertyValue.o
 .rdata$zzz     0x6cb04b9c       0x40 ../build/x86_Debug/TEST_op_GreatestCommonDivisor.o
 .rdata$zzz     0x6cb04bdc       0x40 ../build/x86_Debug/TEST_op_ModPow.o
 .rdata$zzz     0x6cb04c1c       0x40 ../build/x86_Debug/TEST_op_Multiply.o
 .rdata$zzz     0x6cb04c5c       0x40 ../build/x86_Debug/TEST_op_ParseDN.o
 .rdata$zzz     0x6cb04c9c       0x40 ../build/x86_Debug/TEST_op_ParseX.o
 .rdata$zzz     0x6cb04cdc       0x40 ../build/x86_Debug/TEST_op_Pow.o
 .rdata$zzz     0x6cb04d1c       0x40 ../build/x86_Debug/TEST_op_Shift.o
 .rdata$zzz     0x6cb04d5c       0x40 ../build/x86_Debug/TEST_op_Subtruct.o
 .rdata$zzz     0x6cb04d9c       0x40 ../build/x86_Debug/TEST_op_ToStringD.o
 .rdata$zzz     0x6cb04ddc       0x40 ../build/x86_Debug/TEST_op_ToStringN.o
 .rdata$zzz     0x6cb04e1c       0x40 ../build/x86_Debug/TEST_op_ToStringX.o
                0x6cb04e5c                __rt_psrelocs_start = .
 *(.rdata_runtime_pseudo_reloc)
                0x6cb04e5c                __rt_psrelocs_end = .
                0x00000000                __rt_psrelocs_size = (__rt_psrelocs_end - __rt_psrelocs_start)
                0x6cb04e5c                ___RUNTIME_PSEUDO_RELOC_LIST_END__ = .
                0x6cb04e5c                __RUNTIME_PSEUDO_RELOC_LIST_END__ = .
                0x6cb04e5c                ___RUNTIME_PSEUDO_RELOC_LIST__ = (. - __rt_psrelocs_size)
                0x6cb04e5c                __RUNTIME_PSEUDO_RELOC_LIST__ = (. - __rt_psrelocs_size)

.eh_frame       0x6cb05000     0x4400
 *(.eh_frame*)
 .eh_frame      0x6cb05000       0xb8 ../build/x86_Debug/cpuid.o
 .eh_frame      0x6cb050b8      0x130 ../build/x86_Debug/debug.o
 .eh_frame      0x6cb051e8       0x38 ../build/x86_Debug/dllmain.o
 .eh_frame      0x6cb05220       0x8c ../build/x86_Debug/INTERNALTEST_op_DivRem.o
 .eh_frame      0x6cb052ac       0xac ../build/x86_Debug/INTERNALTEST_op_Multiply.o
 .eh_frame      0x6cb05358      0x430 ../build/x86_Debug/pmc_add.o
 .eh_frame      0x6cb05788      0x19c ../build/x86_Debug/pmc_bitwiseand.o
 .eh_frame      0x6cb05924      0x214 ../build/x86_Debug/pmc_bitwiseor.o
 .eh_frame      0x6cb05b38       0xe8 ../build/x86_Debug/pmc_bytes.o
 .eh_frame      0x6cb05c20       0x4c ../build/x86_Debug/pmc_clone.o
 .eh_frame      0x6cb05c6c      0x17c ../build/x86_Debug/pmc_compare.o
 .eh_frame      0x6cb05de8      0x748 ../build/x86_Debug/pmc_divrem.o
 .eh_frame      0x6cb06530      0x17c ../build/x86_Debug/pmc_equals.o
 .eh_frame      0x6cb066ac      0x214 ../build/x86_Debug/pmc_exclusiveor.o
 .eh_frame      0x6cb068c0       0xf0 ../build/x86_Debug/pmc_from.o
 .eh_frame      0x6cb069b0       0x4c ../build/x86_Debug/pmc_getpropertyvalue.o
 .eh_frame      0x6cb069fc      0x238 ../build/x86_Debug/pmc_greatestcommondivisor.o
 .eh_frame      0x6cb06c34       0x38 ../build/x86_Debug/pmc_initialize.o
 .eh_frame      0x6cb06c6c      0x3d0 ../build/x86_Debug/pmc_memory.o
 .eh_frame      0x6cb0703c      0x18c ../build/x86_Debug/pmc_modpow.o
 .eh_frame      0x6cb071c8      0x3b4 ../build/x86_Debug/pmc_multiply.o
 .eh_frame      0x6cb0757c      0x470 ../build/x86_Debug/pmc_parse.o
 .eh_frame      0x6cb079ec      0x100 ../build/x86_Debug/pmc_pow.o
 .eh_frame      0x6cb07aec      0x194 ../build/x86_Debug/pmc_shift.o
 .eh_frame      0x6cb07c80       0x38 ../build/x86_Debug/pmc_statistics.o
 .eh_frame      0x6cb07cb8      0x2e4 ../build/x86_Debug/pmc_subtruct.o
 .eh_frame      0x6cb07f9c       0x98 ../build/x86_Debug/pmc_to.o
 .eh_frame      0x6cb08034      0x2f8 ../build/x86_Debug/pmc_tostring.o
 .eh_frame      0x6cb0832c       0x3c ../build/x86_Debug/TEST_autogenerated.o
 .eh_frame      0x6cb08368      0x114 ../build/x86_Debug/TEST_op_Add.o
 .eh_frame      0x6cb0847c      0x11c ../build/x86_Debug/TEST_op_BitwiseAnd.o
 .eh_frame      0x6cb08598      0x114 ../build/x86_Debug/TEST_op_BitwiseOr.o
 .eh_frame      0x6cb086ac       0x64 ../build/x86_Debug/TEST_op_Clone.o
 .eh_frame      0x6cb08710       0xf4 ../build/x86_Debug/TEST_op_Compare.o
 .eh_frame      0x6cb08804      0x11c ../build/x86_Debug/TEST_op_DivRem.o
 .eh_frame      0x6cb08920       0xf4 ../build/x86_Debug/TEST_op_Equals.o
 .eh_frame      0x6cb08a14      0x114 ../build/x86_Debug/TEST_op_ExclusiveOr.o
 .eh_frame      0x6cb08b28       0xec ../build/x86_Debug/TEST_op_From_To.o
 .eh_frame      0x6cb08c14       0x44 ../build/x86_Debug/TEST_op_GetPropertyValue.o
 .eh_frame      0x6cb08c58      0x114 ../build/x86_Debug/TEST_op_GreatestCommonDivisor.o
 .eh_frame      0x6cb08d6c       0x68 ../build/x86_Debug/TEST_op_ModPow.o
 .eh_frame      0x6cb08dd4      0x114 ../build/x86_Debug/TEST_op_Multiply.o
 .eh_frame      0x6cb08ee8       0x90 ../build/x86_Debug/TEST_op_ParseDN.o
 .eh_frame      0x6cb08f78       0x64 ../build/x86_Debug/TEST_op_ParseX.o
 .eh_frame      0x6cb08fdc       0x64 ../build/x86_Debug/TEST_op_Pow.o
 .eh_frame      0x6cb09040       0x90 ../build/x86_Debug/TEST_op_Shift.o
 .eh_frame      0x6cb090d0      0x118 ../build/x86_Debug/TEST_op_Subtruct.o
 .eh_frame      0x6cb091e8       0x44 ../build/x86_Debug/TEST_op_ToStringD.o
 .eh_frame      0x6cb0922c       0x44 ../build/x86_Debug/TEST_op_ToStringN.o
 .eh_frame      0x6cb09270       0x44 ../build/x86_Debug/TEST_op_ToStringX.o

.pdata
 *(.pdata*)

.bss            0x6cb0a000    0x17518
                0x6cb0a000                __bss_start__ = .
 *(.bss)
 .bss           0x6cb0a000        0x0 ../build/x86_Debug/cpuid.o
 .bss           0x6cb0a000      0x420 ../build/x86_Debug/debug.o
                0x6cb0a000                test_total_count
                0x6cb0a004                test_ok_count
                0x6cb0a008                __DEBUG_LOG
 .bss           0x6cb0a420        0x0 ../build/x86_Debug/dllmain.o
 .bss           0x6cb0a420        0x0 ../build/x86_Debug/INTERNALTEST_op_DivRem.o
 .bss           0x6cb0a420        0x0 ../build/x86_Debug/INTERNALTEST_op_Multiply.o
 .bss           0x6cb0a420        0x4 ../build/x86_Debug/pmc_add.o
 .bss           0x6cb0a424        0x0 ../build/x86_Debug/pmc_bitwiseand.o
 .bss           0x6cb0a424        0x0 ../build/x86_Debug/pmc_bitwiseor.o
 .bss           0x6cb0a424        0x0 ../build/x86_Debug/pmc_bytes.o
 .bss           0x6cb0a424        0x0 ../build/x86_Debug/pmc_clone.o
 .bss           0x6cb0a424        0x0 ../build/x86_Debug/pmc_compare.o
 .bss           0x6cb0a424        0x4 ../build/x86_Debug/pmc_divrem.o
 .bss           0x6cb0a428        0x0 ../build/x86_Debug/pmc_equals.o
 .bss           0x6cb0a428        0x0 ../build/x86_Debug/pmc_exclusiveor.o
 .bss           0x6cb0a428        0x0 ../build/x86_Debug/pmc_from.o
 .bss           0x6cb0a428        0x0 ../build/x86_Debug/pmc_getpropertyvalue.o
 .bss           0x6cb0a428        0x0 ../build/x86_Debug/pmc_greatestcommondivisor.o
 *fill*         0x6cb0a428       0x18 
 .bss           0x6cb0a440      0x120 ../build/x86_Debug/pmc_initialize.o
 .bss           0x6cb0a560        0x0 ../build/x86_Debug/pmc_memory.o
 .bss           0x6cb0a560        0x0 ../build/x86_Debug/pmc_modpow.o
 .bss           0x6cb0a560        0xc ../build/x86_Debug/pmc_multiply.o
 *fill*         0x6cb0a56c       0x14 
 .bss           0x6cb0a580       0x40 ../build/x86_Debug/pmc_parse.o
 .bss           0x6cb0a5c0        0x0 ../build/x86_Debug/pmc_pow.o
 .bss           0x6cb0a5c0        0x0 ../build/x86_Debug/pmc_shift.o
 .bss           0x6cb0a5c0        0x0 ../build/x86_Debug/pmc_statistics.o
 .bss           0x6cb0a5c0        0x0 ../build/x86_Debug/pmc_subtruct.o
 .bss           0x6cb0a5c0        0x0 ../build/x86_Debug/pmc_to.o
 .bss           0x6cb0a5c0       0x40 ../build/x86_Debug/pmc_tostring.o
 .bss           0x6cb0a600      0xb0c ../build/x86_Debug/TEST_autogenerated.o
 .bss           0x6cb0b10c        0x0 ../build/x86_Debug/TEST_op_Add.o
 .bss           0x6cb0b10c        0x0 ../build/x86_Debug/TEST_op_BitwiseAnd.o
 .bss           0x6cb0b10c        0x0 ../build/x86_Debug/TEST_op_BitwiseOr.o
 .bss           0x6cb0b10c        0x0 ../build/x86_Debug/TEST_op_Clone.o
 .bss           0x6cb0b10c        0x0 ../build/x86_Debug/TEST_op_Compare.o
 .bss           0x6cb0b10c        0x0 ../build/x86_Debug/TEST_op_DivRem.o
 .bss           0x6cb0b10c        0x0 ../build/x86_Debug/TEST_op_Equals.o
 .bss           0x6cb0b10c        0x0 ../build/x86_Debug/TEST_op_ExclusiveOr.o
 .bss           0x6cb0b10c        0x0 ../build/x86_Debug/TEST_op_From_To.o
 .bss           0x6cb0b10c        0x0 ../build/x86_Debug/TEST_op_GetPropertyValue.o
 .bss           0x6cb0b10c        0x0 ../build/x86_Debug/TEST_op_GreatestCommonDivisor.o
 .bss           0x6cb0b10c        0x0 ../build/x86_Debug/TEST_op_ModPow.o
 .bss           0x6cb0b10c        0x0 ../build/x86_Debug/TEST_op_Multiply.o
 *fill*         0x6cb0b10c       0x14 
 .bss           0x6cb0b120      0x240 ../build/x86_Debug/TEST_op_ParseDN.o
 .bss           0x6cb0b360      0x120 ../build/x86_Debug/TEST_op_ParseX.o
 .bss           0x6cb0b480    0x10000 ../build/x86_Debug/TEST_op_Pow.o
 .bss           0x6cb1b480        0x0 ../build/x86_Debug/TEST_op_Shift.o
 .bss           0x6cb1b480        0x0 ../build/x86_Debug/TEST_op_Subtruct.o
 .bss           0x6cb1b480     0x2000 ../build/x86_Debug/TEST_op_ToStringD.o
 .bss           0x6cb1d480     0x2000 ../build/x86_Debug/TEST_op_ToStringN.o
 .bss           0x6cb1f480     0x2000 ../build/x86_Debug/TEST_op_ToStringX.o
 .bss           0x6cb21480        0x0 C:/GNU/MINGW64/i686-8.1.0-win32-dwarf-rt_v6-rev0/mingw32/bin/../lib/gcc/i686-w64-mingw32/8.1.0/../../../../i686-w64-mingw32/lib/../lib/libkernel32.a(dgzcs01342.o)
 .bss           0x6cb21480        0x0 C:/GNU/MINGW64/i686-8.1.0-win32-dwarf-rt_v6-rev0/mingw32/bin/../lib/gcc/i686-w64-mingw32/8.1.0/../../../../i686-w64-mingw32/lib/../lib/libkernel32.a(dgzcs01336.o)
 .bss           0x6cb21480        0x0 C:/GNU/MINGW64/i686-8.1.0-win32-dwarf-rt_v6-rev0/mingw32/bin/../lib/gcc/i686-w64-mingw32/8.1.0/../../../../i686-w64-mingw32/lib/../lib/libkernel32.a(dgzcs01335.o)
 .bss           0x6cb21480        0x0 C:/GNU/MINGW64/i686-8.1.0-win32-dwarf-rt_v6-rev0/mingw32/bin/../lib/gcc/i686-w64-mingw32/8.1.0/../../../../i686-w64-mingw32/lib/../lib/libkernel32.a(dgzcs01330.o)
 .bss           0x6cb21480        0x0 C:/GNU/MINGW64/i686-8.1.0-win32-dwarf-rt_v6-rev0/mingw32/bin/../lib/gcc/i686-w64-mingw32/8.1.0/../../../../i686-w64-mingw32/lib/../lib/libkernel32.a(dgzcs00729.o)
 .bss           0x6cb21480        0x0 C:/GNU/MINGW64/i686-8.1.0-win32-dwarf-rt_v6-rev0/mingw32/bin/../lib/gcc/i686-w64-mingw32/8.1.0/../../../../i686-w64-mingw32/lib/../lib/libkernel32.a(dgzcs00727.o)
 .bss           0x6cb21480        0x0 C:/GNU/MINGW64/i686-8.1.0-win32-dwarf-rt_v6-rev0/mingw32/bin/../lib/gcc/i686-w64-mingw32/8.1.0/../../../../i686-w64-mingw32/lib/../lib/libkernel32.a(dgzcs00725.o)
 .bss           0x6cb21480        0x0 C:/GNU/MINGW64/i686-8.1.0-win32-dwarf-rt_v6-rev0/mingw32/bin/../lib/gcc/i686-w64-mingw32/8.1.0/../../../../i686-w64-mingw32/lib/../lib/libkernel32.a(dgzcs00723.o)
 .bss           0x6cb21480        0x0 C:/GNU/MINGW64/i686-8.1.0-win32-dwarf-rt_v6-rev0/mingw32/bin/../lib/gcc/i686-w64-mingw32/8.1.0/../../../../i686-w64-mingw32/lib/../lib/libkernel32.a(dgzcs00666.o)
 .bss           0x6cb21480        0x0 C:/GNU/MINGW64/i686-8.1.0-win32-dwarf-rt_v6-rev0/mingw32/bin/../lib/gcc/i686-w64-mingw32/8.1.0/../../../../i686-w64-mingw32/lib/../lib/libkernel32.a(dgzch.o)
 .bss           0x6cb21480        0x0 C:/GNU/MINGW64/i686-8.1.0-win32-dwarf-rt_v6-rev0/mingw32/bin/../lib/gcc/i686-w64-mingw32/8.1.0/../../../../i686-w64-mingw32/lib/../lib/libkernel32.a(dgzct.o)
 .bss           0x6cb21480        0x0 C:/GNU/MINGW64/i686-8.1.0-win32-dwarf-rt_v6-rev0/mingw32/bin/../lib/gcc/i686-w64-mingw32/8.1.0/../../../../i686-w64-mingw32/lib/../lib/libuser32.a(dmces00912.o)
 .bss           0x6cb21480        0x0 C:/GNU/MINGW64/i686-8.1.0-win32-dwarf-rt_v6-rev0/mingw32/bin/../lib/gcc/i686-w64-mingw32/8.1.0/../../../../i686-w64-mingw32/lib/../lib/libuser32.a(dmceh.o)
 .bss           0x6cb21480        0x0 C:/GNU/MINGW64/i686-8.1.0-win32-dwarf-rt_v6-rev0/mingw32/bin/../lib/gcc/i686-w64-mingw32/8.1.0/../../../../i686-w64-mingw32/lib/../lib/libuser32.a(dmcet.o)
 *(COMMON)
 COMMON         0x6cb21480        0x4 ../build/x86_Debug/pmc_initialize.o
                0x6cb21480                configuration_info
 *fill*         0x6cb21484       0x1c 
 COMMON         0x6cb214a0       0x68 ../build/x86_Debug/pmc_memory.o
                0x6cb214a0                number_zero
                0x6cb214e0                number_one
                0x6cb21504                hLocalHeap
 COMMON         0x6cb21508       0x10 ../build/x86_Debug/pmc_statistics.o
                0x6cb21508                statistics_info
                0x6cb21518                __bss_end__ = .

.edata          0x6cb22000      0x200
 *(.edata)
 .edata         0x6cb22000       0x58 dll stuff

/DISCARD/
 *(.debug$S)
 *(.debug$T)
 *(.debug$F)
 *(.drectve)
 *(.note.GNU-stack)
 *(.gnu.lto_*)

.idata          0x6cb23000      0x200
 SORT_BY_NAME(*)(.idata$2)
 .idata$2       0x6cb23000       0x14 C:/GNU/MINGW64/i686-8.1.0-win32-dwarf-rt_v6-rev0/mingw32/bin/../lib/gcc/i686-w64-mingw32/8.1.0/../../../../i686-w64-mingw32/lib/../lib/libkernel32.a(dgzch.o)
                0x6cb23000                _head_lib32_libkernel32_a
 .idata$2       0x6cb23014       0x14 C:/GNU/MINGW64/i686-8.1.0-win32-dwarf-rt_v6-rev0/mingw32/bin/../lib/gcc/i686-w64-mingw32/8.1.0/../../../../i686-w64-mingw32/lib/../lib/libuser32.a(dmceh.o)
                0x6cb23014                _head_lib32_libuser32_a
 SORT_BY_NAME(*)(.idata$3)
                0x6cb23028        0x4 LONG 0x0
                0x6cb2302c        0x4 LONG 0x0
                0x6cb23030        0x4 LONG 0x0
                0x6cb23034        0x4 LONG 0x0
                0x6cb23038        0x4 LONG 0x0
 SORT_BY_NAME(*)(.idata$4)
 .idata$4       0x6cb2303c        0x0 C:/GNU/MINGW64/i686-8.1.0-win32-dwarf-rt_v6-rev0/mingw32/bin/../lib/gcc/i686-w64-mingw32/8.1.0/../../../../i686-w64-mingw32/lib/../lib/libkernel32.a(dgzch.o)
 .idata$4       0x6cb2303c        0x4 C:/GNU/MINGW64/i686-8.1.0-win32-dwarf-rt_v6-rev0/mingw32/bin/../lib/gcc/i686-w64-mingw32/8.1.0/../../../../i686-w64-mingw32/lib/../lib/libkernel32.a(dgzcs00666.o)
 .idata$4       0x6cb23040        0x4 C:/GNU/MINGW64/i686-8.1.0-win32-dwarf-rt_v6-rev0/mingw32/bin/../lib/gcc/i686-w64-mingw32/8.1.0/../../../../i686-w64-mingw32/lib/../lib/libkernel32.a(dgzcs00723.o)
 .idata$4       0x6cb23044        0x4 C:/GNU/MINGW64/i686-8.1.0-win32-dwarf-rt_v6-rev0/mingw32/bin/../lib/gcc/i686-w64-mingw32/8.1.0/../../../../i686-w64-mingw32/lib/../lib/libkernel32.a(dgzcs00725.o)
 .idata$4       0x6cb23048        0x4 C:/GNU/MINGW64/i686-8.1.0-win32-dwarf-rt_v6-rev0/mingw32/bin/../lib/gcc/i686-w64-mingw32/8.1.0/../../../../i686-w64-mingw32/lib/../lib/libkernel32.a(dgzcs00727.o)
 .idata$4       0x6cb2304c        0x4 C:/GNU/MINGW64/i686-8.1.0-win32-dwarf-rt_v6-rev0/mingw32/bin/../lib/gcc/i686-w64-mingw32/8.1.0/../../../../i686-w64-mingw32/lib/../lib/libkernel32.a(dgzcs00729.o)
 .idata$4       0x6cb23050        0x4 C:/GNU/MINGW64/i686-8.1.0-win32-dwarf-rt_v6-rev0/mingw32/bin/../lib/gcc/i686-w64-mingw32/8.1.0/../../../../i686-w64-mingw32/lib/../lib/libkernel32.a(dgzcs01330.o)
 .idata$4       0x6cb23054        0x4 C:/GNU/MINGW64/i686-8.1.0-win32-dwarf-rt_v6-rev0/mingw32/bin/../lib/gcc/i686-w64-mingw32/8.1.0/../../../../i686-w64-mingw32/lib/../lib/libkernel32.a(dgzcs01335.o)
 .idata$4       0x6cb23058        0x4 C:/GNU/MINGW64/i686-8.1.0-win32-dwarf-rt_v6-rev0/mingw32/bin/../lib/gcc/i686-w64-mingw32/8.1.0/../../../../i686-w64-mingw32/lib/../lib/libkernel32.a(dgzcs01336.o)
 .idata$4       0x6cb2305c        0x4 C:/GNU/MINGW64/i686-8.1.0-win32-dwarf-rt_v6-rev0/mingw32/bin/../lib/gcc/i686-w64-mingw32/8.1.0/../../../../i686-w64-mingw32/lib/../lib/libkernel32.a(dgzcs01342.o)
 .idata$4       0x6cb23060        0x4 C:/GNU/MINGW64/i686-8.1.0-win32-dwarf-rt_v6-rev0/mingw32/bin/../lib/gcc/i686-w64-mingw32/8.1.0/../../../../i686-w64-mingw32/lib/../lib/libkernel32.a(dgzct.o)
 .idata$4       0x6cb23064        0x0 C:/GNU/MINGW64/i686-8.1.0-win32-dwarf-rt_v6-rev0/mingw32/bin/../lib/gcc/i686-w64-mingw32/8.1.0/../../../../i686-w64-mingw32/lib/../lib/libuser32.a(dmceh.o)
 .idata$4       0x6cb23064        0x4 C:/GNU/MINGW64/i686-8.1.0-win32-dwarf-rt_v6-rev0/mingw32/bin/../lib/gcc/i686-w64-mingw32/8.1.0/../../../../i686-w64-mingw32/lib/../lib/libuser32.a(dmces00912.o)
 .idata$4       0x6cb23068        0x4 C:/GNU/MINGW64/i686-8.1.0-win32-dwarf-rt_v6-rev0/mingw32/bin/../lib/gcc/i686-w64-mingw32/8.1.0/../../../../i686-w64-mingw32/lib/../lib/libuser32.a(dmcet.o)
                0x6cb2306c                __IAT_start__ = .
 SORT_BY_NAME(*)(.idata$5)
 .idata$5       0x6cb2306c        0x0 C:/GNU/MINGW64/i686-8.1.0-win32-dwarf-rt_v6-rev0/mingw32/bin/../lib/gcc/i686-w64-mingw32/8.1.0/../../../../i686-w64-mingw32/lib/../lib/libkernel32.a(dgzch.o)
 .idata$5       0x6cb2306c        0x4 C:/GNU/MINGW64/i686-8.1.0-win32-dwarf-rt_v6-rev0/mingw32/bin/../lib/gcc/i686-w64-mingw32/8.1.0/../../../../i686-w64-mingw32/lib/../lib/libkernel32.a(dgzcs00666.o)
                0x6cb2306c                _imp__GetTickCount@0
 .idata$5       0x6cb23070        0x4 C:/GNU/MINGW64/i686-8.1.0-win32-dwarf-rt_v6-rev0/mingw32/bin/../lib/gcc/i686-w64-mingw32/8.1.0/../../../../i686-w64-mingw32/lib/../lib/libkernel32.a(dgzcs00723.o)
                0x6cb23070                _imp__HeapAlloc@12
 .idata$5       0x6cb23074        0x4 C:/GNU/MINGW64/i686-8.1.0-win32-dwarf-rt_v6-rev0/mingw32/bin/../lib/gcc/i686-w64-mingw32/8.1.0/../../../../i686-w64-mingw32/lib/../lib/libkernel32.a(dgzcs00725.o)
                0x6cb23074                _imp__HeapCreate@12
 .idata$5       0x6cb23078        0x4 C:/GNU/MINGW64/i686-8.1.0-win32-dwarf-rt_v6-rev0/mingw32/bin/../lib/gcc/i686-w64-mingw32/8.1.0/../../../../i686-w64-mingw32/lib/../lib/libkernel32.a(dgzcs00727.o)
                0x6cb23078                _imp__HeapDestroy@4
 .idata$5       0x6cb2307c        0x4 C:/GNU/MINGW64/i686-8.1.0-win32-dwarf-rt_v6-rev0/mingw32/bin/../lib/gcc/i686-w64-mingw32/8.1.0/../../../../i686-w64-mingw32/lib/../lib/libkernel32.a(dgzcs00729.o)
                0x6cb2307c                _imp__HeapFree@12
 .idata$5       0x6cb23080        0x4 C:/GNU/MINGW64/i686-8.1.0-win32-dwarf-rt_v6-rev0/mingw32/bin/../lib/gcc/i686-w64-mingw32/8.1.0/../../../../i686-w64-mingw32/lib/../lib/libkernel32.a(dgzcs01330.o)
                0x6cb23080                _imp__lstrcmpW@8
 .idata$5       0x6cb23084        0x4 C:/GNU/MINGW64/i686-8.1.0-win32-dwarf-rt_v6-rev0/mingw32/bin/../lib/gcc/i686-w64-mingw32/8.1.0/../../../../i686-w64-mingw32/lib/../lib/libkernel32.a(dgzcs01335.o)
                0x6cb23084                _imp__lstrcpyA@8
 .idata$5       0x6cb23088        0x4 C:/GNU/MINGW64/i686-8.1.0-win32-dwarf-rt_v6-rev0/mingw32/bin/../lib/gcc/i686-w64-mingw32/8.1.0/../../../../i686-w64-mingw32/lib/../lib/libkernel32.a(dgzcs01336.o)
                0x6cb23088                _imp__lstrcpyW@8
 .idata$5       0x6cb2308c        0x4 C:/GNU/MINGW64/i686-8.1.0-win32-dwarf-rt_v6-rev0/mingw32/bin/../lib/gcc/i686-w64-mingw32/8.1.0/../../../../i686-w64-mingw32/lib/../lib/libkernel32.a(dgzcs01342.o)
                0x6cb2308c                _imp__lstrlenW@4
 .idata$5       0x6cb23090        0x4 C:/GNU/MINGW64/i686-8.1.0-win32-dwarf-rt_v6-rev0/mingw32/bin/../lib/gcc/i686-w64-mingw32/8.1.0/../../../../i686-w64-mingw32/lib/../lib/libkernel32.a(dgzct.o)
 .idata$5       0x6cb23094        0x0 C:/GNU/MINGW64/i686-8.1.0-win32-dwarf-rt_v6-rev0/mingw32/bin/../lib/gcc/i686-w64-mingw32/8.1.0/../../../../i686-w64-mingw32/lib/../lib/libuser32.a(dmceh.o)
 .idata$5       0x6cb23094        0x4 C:/GNU/MINGW64/i686-8.1.0-win32-dwarf-rt_v6-rev0/mingw32/bin/../lib/gcc/i686-w64-mingw32/8.1.0/../../../../i686-w64-mingw32/lib/../lib/libuser32.a(dmces00912.o)
                0x6cb23094                _imp__wsprintfW
 .idata$5       0x6cb23098        0x4 C:/GNU/MINGW64/i686-8.1.0-win32-dwarf-rt_v6-rev0/mingw32/bin/../lib/gcc/i686-w64-mingw32/8.1.0/../../../../i686-w64-mingw32/lib/../lib/libuser32.a(dmcet.o)
                0x6cb2309c                __IAT_end__ = .
 SORT_BY_NAME(*)(.idata$6)
 .idata$6       0x6cb2309c       0x10 C:/GNU/MINGW64/i686-8.1.0-win32-dwarf-rt_v6-rev0/mingw32/bin/../lib/gcc/i686-w64-mingw32/8.1.0/../../../../i686-w64-mingw32/lib/../lib/libkernel32.a(dgzcs00666.o)
 .idata$6       0x6cb230ac        0xc C:/GNU/MINGW64/i686-8.1.0-win32-dwarf-rt_v6-rev0/mingw32/bin/../lib/gcc/i686-w64-mingw32/8.1.0/../../../../i686-w64-mingw32/lib/../lib/libkernel32.a(dgzcs00723.o)
 .idata$6       0x6cb230b8        0xe C:/GNU/MINGW64/i686-8.1.0-win32-dwarf-rt_v6-rev0/mingw32/bin/../lib/gcc/i686-w64-mingw32/8.1.0/../../../../i686-w64-mingw32/lib/../lib/libkernel32.a(dgzcs00725.o)
 .idata$6       0x6cb230c6        0xe C:/GNU/MINGW64/i686-8.1.0-win32-dwarf-rt_v6-rev0/mingw32/bin/../lib/gcc/i686-w64-mingw32/8.1.0/../../../../i686-w64-mingw32/lib/../lib/libkernel32.a(dgzcs00727.o)
 .idata$6       0x6cb230d4        0xc C:/GNU/MINGW64/i686-8.1.0-win32-dwarf-rt_v6-rev0/mingw32/bin/../lib/gcc/i686-w64-mingw32/8.1.0/../../../../i686-w64-mingw32/lib/../lib/libkernel32.a(dgzcs00729.o)
 .idata$6       0x6cb230e0        0xc C:/GNU/MINGW64/i686-8.1.0-win32-dwarf-rt_v6-rev0/mingw32/bin/../lib/gcc/i686-w64-mingw32/8.1.0/../../../../i686-w64-mingw32/lib/../lib/libkernel32.a(dgzcs01330.o)
 .idata$6       0x6cb230ec        0xc C:/GNU/MINGW64/i686-8.1.0-win32-dwarf-rt_v6-rev0/mingw32/bin/../lib/gcc/i686-w64-mingw32/8.1.0/../../../../i686-w64-mingw32/lib/../lib/libkernel32.a(dgzcs01335.o)
 .idata$6       0x6cb230f8        0xc C:/GNU/MINGW64/i686-8.1.0-win32-dwarf-rt_v6-rev0/mingw32/bin/../lib/gcc/i686-w64-mingw32/8.1.0/../../../../i686-w64-mingw32/lib/../lib/libkernel32.a(dgzcs01336.o)
 .idata$6       0x6cb23104        0xc C:/GNU/MINGW64/i686-8.1.0-win32-dwarf-rt_v6-rev0/mingw32/bin/../lib/gcc/i686-w64-mingw32/8.1.0/../../../../i686-w64-mingw32/lib/../lib/libkernel32.a(dgzcs01342.o)
 .idata$6       0x6cb23110        0xc C:/GNU/MINGW64/i686-8.1.0-win32-dwarf-rt_v6-rev0/mingw32/bin/../lib/gcc/i686-w64-mingw32/8.1.0/../../../../i686-w64-mingw32/lib/../lib/libuser32.a(dmces00912.o)
 SORT_BY_NAME(*)(.idata$7)
 .idata$7       0x6cb2311c        0x4 C:/GNU/MINGW64/i686-8.1.0-win32-dwarf-rt_v6-rev0/mingw32/bin/../lib/gcc/i686-w64-mingw32/8.1.0/../../../../i686-w64-mingw32/lib/../lib/libkernel32.a(dgzcs00666.o)
 .idata$7       0x6cb23120        0x4 C:/GNU/MINGW64/i686-8.1.0-win32-dwarf-rt_v6-rev0/mingw32/bin/../lib/gcc/i686-w64-mingw32/8.1.0/../../../../i686-w64-mingw32/lib/../lib/libkernel32.a(dgzcs00723.o)
 .idata$7       0x6cb23124        0x4 C:/GNU/MINGW64/i686-8.1.0-win32-dwarf-rt_v6-rev0/mingw32/bin/../lib/gcc/i686-w64-mingw32/8.1.0/../../../../i686-w64-mingw32/lib/../lib/libkernel32.a(dgzcs00725.o)
 .idata$7       0x6cb23128        0x4 C:/GNU/MINGW64/i686-8.1.0-win32-dwarf-rt_v6-rev0/mingw32/bin/../lib/gcc/i686-w64-mingw32/8.1.0/../../../../i686-w64-mingw32/lib/../lib/libkernel32.a(dgzcs00727.o)
 .idata$7       0x6cb2312c        0x4 C:/GNU/MINGW64/i686-8.1.0-win32-dwarf-rt_v6-rev0/mingw32/bin/../lib/gcc/i686-w64-mingw32/8.1.0/../../../../i686-w64-mingw32/lib/../lib/libkernel32.a(dgzcs00729.o)
 .idata$7       0x6cb23130        0x4 C:/GNU/MINGW64/i686-8.1.0-win32-dwarf-rt_v6-rev0/mingw32/bin/../lib/gcc/i686-w64-mingw32/8.1.0/../../../../i686-w64-mingw32/lib/../lib/libkernel32.a(dgzcs01330.o)
 .idata$7       0x6cb23134        0x4 C:/GNU/MINGW64/i686-8.1.0-win32-dwarf-rt_v6-rev0/mingw32/bin/../lib/gcc/i686-w64-mingw32/8.1.0/../../../../i686-w64-mingw32/lib/../lib/libkernel32.a(dgzcs01335.o)
 .idata$7       0x6cb23138        0x4 C:/GNU/MINGW64/i686-8.1.0-win32-dwarf-rt_v6-rev0/mingw32/bin/../lib/gcc/i686-w64-mingw32/8.1.0/../../../../i686-w64-mingw32/lib/../lib/libkernel32.a(dgzcs01336.o)
 .idata$7       0x6cb2313c        0x4 C:/GNU/MINGW64/i686-8.1.0-win32-dwarf-rt_v6-rev0/mingw32/bin/../lib/gcc/i686-w64-mingw32/8.1.0/../../../../i686-w64-mingw32/lib/../lib/libkernel32.a(dgzcs01342.o)
 .idata$7       0x6cb23140       0x10 C:/GNU/MINGW64/i686-8.1.0-win32-dwarf-rt_v6-rev0/mingw32/bin/../lib/gcc/i686-w64-mingw32/8.1.0/../../../../i686-w64-mingw32/lib/../lib/libkernel32.a(dgzct.o)
                0x6cb23140                _lib32_libkernel32_a_iname
 .idata$7       0x6cb23150        0x4 C:/GNU/MINGW64/i686-8.1.0-win32-dwarf-rt_v6-rev0/mingw32/bin/../lib/gcc/i686-w64-mingw32/8.1.0/../../../../i686-w64-mingw32/lib/../lib/libuser32.a(dmces00912.o)
 .idata$7       0x6cb23154        0xc C:/GNU/MINGW64/i686-8.1.0-win32-dwarf-rt_v6-rev0/mingw32/bin/../lib/gcc/i686-w64-mingw32/8.1.0/../../../../i686-w64-mingw32/lib/../lib/libuser32.a(dmcet.o)
                0x6cb23154                _lib32_libuser32_a_iname

.CRT            0x6cb24000        0x0
                0x6cb24000                ___crt_xc_start__ = .
 *(SORT_BY_NAME(.CRT$XC*))
                0x6cb24000                ___crt_xc_end__ = .
                0x6cb24000                ___crt_xi_start__ = .
 *(SORT_BY_NAME(.CRT$XI*))
                0x6cb24000                ___crt_xi_end__ = .
                0x6cb24000                ___crt_xl_start__ = .
 *(SORT_BY_NAME(.CRT$XL*))
                0x6cb24000                ___crt_xp_start__ = .
 *(SORT_BY_NAME(.CRT$XP*))
                0x6cb24000                ___crt_xp_end__ = .
                0x6cb24000                ___crt_xt_start__ = .
 *(SORT_BY_NAME(.CRT$XT*))
                0x6cb24000                ___crt_xt_end__ = .

.tls            0x6cb24000        0x0
                0x6cb24000                ___tls_start__ = .
 *(.tls$AAA)
 *(.tls)
 *(.tls$)
 *(SORT_BY_NAME(.tls$*))
 *(.tls$ZZZ)
                0x6cb24000                ___tls_end__ = .

.endjunk        0x6cb24000        0x0
                [!provide]                PROVIDE (end = .)
                [!provide]                PROVIDE (_end = .)
                0x6cb24000                __end__ = .

.rsrc           0x6cb24000      0x400
 *(.rsrc)
 .rsrc          0x6cb24000      0x378 ../build/x86_Debug/version.o
 *(.rsrc$*)

.reloc          0x6cb25000    0x59200
 *(.reloc)
 .reloc         0x6cb25000    0x59070 dll stuff

.stab
 *(.stab)

.stabstr
 *(.stabstr)

.debug_aranges  0x6cb7f000      0x800
 *(.debug_aranges)
 .debug_aranges
                0x6cb7f000       0x20 ../build/x86_Debug/cpuid.o
 .debug_aranges
                0x6cb7f020       0x20 ../build/x86_Debug/debug.o
 .debug_aranges
                0x6cb7f040       0x20 ../build/x86_Debug/dllmain.o
 .debug_aranges
                0x6cb7f060       0x20 ../build/x86_Debug/INTERNALTEST_op_DivRem.o
 .debug_aranges
                0x6cb7f080       0x20 ../build/x86_Debug/INTERNALTEST_op_Multiply.o
 .debug_aranges
                0x6cb7f0a0       0x20 ../build/x86_Debug/pmc_add.o
 .debug_aranges
                0x6cb7f0c0       0x20 ../build/x86_Debug/pmc_bitwiseand.o
 .debug_aranges
                0x6cb7f0e0       0x20 ../build/x86_Debug/pmc_bitwiseor.o
 .debug_aranges
                0x6cb7f100       0x20 ../build/x86_Debug/pmc_bytes.o
 .debug_aranges
                0x6cb7f120       0x20 ../build/x86_Debug/pmc_clone.o
 .debug_aranges
                0x6cb7f140       0x20 ../build/x86_Debug/pmc_compare.o
 .debug_aranges
                0x6cb7f160       0x20 ../build/x86_Debug/pmc_divrem.o
 .debug_aranges
                0x6cb7f180       0x20 ../build/x86_Debug/pmc_equals.o
 .debug_aranges
                0x6cb7f1a0       0x20 ../build/x86_Debug/pmc_exclusiveor.o
 .debug_aranges
                0x6cb7f1c0       0x20 ../build/x86_Debug/pmc_from.o
 .debug_aranges
                0x6cb7f1e0       0x20 ../build/x86_Debug/pmc_getpropertyvalue.o
 .debug_aranges
                0x6cb7f200       0x20 ../build/x86_Debug/pmc_greatestcommondivisor.o
 .debug_aranges
                0x6cb7f220       0x20 ../build/x86_Debug/pmc_initialize.o
 .debug_aranges
                0x6cb7f240       0x20 ../build/x86_Debug/pmc_memory.o
 .debug_aranges
                0x6cb7f260       0x20 ../build/x86_Debug/pmc_modpow.o
 .debug_aranges
                0x6cb7f280       0x20 ../build/x86_Debug/pmc_multiply.o
 .debug_aranges
                0x6cb7f2a0       0x20 ../build/x86_Debug/pmc_parse.o
 .debug_aranges
                0x6cb7f2c0       0x20 ../build/x86_Debug/pmc_pow.o
 .debug_aranges
                0x6cb7f2e0       0x20 ../build/x86_Debug/pmc_shift.o
 .debug_aranges
                0x6cb7f300       0x20 ../build/x86_Debug/pmc_statistics.o
 .debug_aranges
                0x6cb7f320       0x20 ../build/x86_Debug/pmc_subtruct.o
 .debug_aranges
                0x6cb7f340       0x20 ../build/x86_Debug/pmc_to.o
 .debug_aranges
                0x6cb7f360       0x20 ../build/x86_Debug/pmc_tostring.o
 .debug_aranges
                0x6cb7f380       0x20 ../build/x86_Debug/TEST_autogenerated.o
 .debug_aranges
                0x6cb7f3a0       0x20 ../build/x86_Debug/TEST_op_Add.o
 .debug_aranges
                0x6cb7f3c0       0x20 ../build/x86_Debug/TEST_op_BitwiseAnd.o
 .debug_aranges
                0x6cb7f3e0       0x20 ../build/x86_Debug/TEST_op_BitwiseOr.o
 .debug_aranges
                0x6cb7f400       0x20 ../build/x86_Debug/TEST_op_Clone.o
 .debug_aranges
                0x6cb7f420       0x20 ../build/x86_Debug/TEST_op_Compare.o
 .debug_aranges
                0x6cb7f440       0x20 ../build/x86_Debug/TEST_op_DivRem.o
 .debug_aranges
                0x6cb7f460       0x20 ../build/x86_Debug/TEST_op_Equals.o
 .debug_aranges
                0x6cb7f480       0x20 ../build/x86_Debug/TEST_op_ExclusiveOr.o
 .debug_aranges
                0x6cb7f4a0       0x20 ../build/x86_Debug/TEST_op_From_To.o
 .debug_aranges
                0x6cb7f4c0       0x20 ../build/x86_Debug/TEST_op_GetPropertyValue.o
 .debug_aranges
                0x6cb7f4e0       0x20 ../build/x86_Debug/TEST_op_GreatestCommonDivisor.o
 .debug_aranges
                0x6cb7f500       0x20 ../build/x86_Debug/TEST_op_ModPow.o
 .debug_aranges
                0x6cb7f520       0x20 ../build/x86_Debug/TEST_op_Multiply.o
 .debug_aranges
                0x6cb7f540       0x20 ../build/x86_Debug/TEST_op_ParseDN.o
 .debug_aranges
                0x6cb7f560       0x20 ../build/x86_Debug/TEST_op_ParseX.o
 .debug_aranges
                0x6cb7f580       0x20 ../build/x86_Debug/TEST_op_Pow.o
 .debug_aranges
                0x6cb7f5a0       0x20 ../build/x86_Debug/TEST_op_Shift.o
 .debug_aranges
                0x6cb7f5c0       0x20 ../build/x86_Debug/TEST_op_Subtruct.o
 .debug_aranges
                0x6cb7f5e0       0x20 ../build/x86_Debug/TEST_op_ToStringD.o
 .debug_aranges
                0x6cb7f600       0x20 ../build/x86_Debug/TEST_op_ToStringN.o
 .debug_aranges
                0x6cb7f620       0x20 ../build/x86_Debug/TEST_op_ToStringX.o

.zdebug_aranges
 *(.zdebug_aranges)

.debug_pubnames
 *(.debug_pubnames)

.zdebug_pubnames
 *(.zdebug_pubnames)

.debug_pubtypes
 *(.debug_pubtypes)

.zdebug_pubtypes
 *(.zdebug_pubtypes)

.debug_info     0x6cb80000   0x1c2800
 *(.debug_info .gnu.linkonce.wi.*)
 .debug_info    0x6cb80000     0x50af ../build/x86_Debug/cpuid.o
 .debug_info    0x6cb850af     0x5eda ../build/x86_Debug/debug.o
 .debug_info    0x6cb8af89     0x4d4b ../build/x86_Debug/dllmain.o
 .debug_info    0x6cb8fcd4     0x5f52 ../build/x86_Debug/INTERNALTEST_op_DivRem.o
 .debug_info    0x6cb95c26     0x5e41 ../build/x86_Debug/INTERNALTEST_op_Multiply.o
 .debug_info    0x6cb9ba67     0x6002 ../build/x86_Debug/pmc_add.o
 .debug_info    0x6cba1a69     0x53c7 ../build/x86_Debug/pmc_bitwiseand.o
 .debug_info    0x6cba6e30     0x5654 ../build/x86_Debug/pmc_bitwiseor.o
 .debug_info    0x6cbac484     0x4ff9 ../build/x86_Debug/pmc_bytes.o
 .debug_info    0x6cbb147d     0x4e93 ../build/x86_Debug/pmc_clone.o
 .debug_info    0x6cbb6310     0x534e ../build/x86_Debug/pmc_compare.o
 .debug_info    0x6cbbb65e     0x7321 ../build/x86_Debug/pmc_divrem.o
 .debug_info    0x6cbc297f     0x530a ../build/x86_Debug/pmc_equals.o
 .debug_info    0x6cbc7c89     0x56b2 ../build/x86_Debug/pmc_exclusiveor.o
 .debug_info    0x6cbcd33b     0x50b4 ../build/x86_Debug/pmc_from.o
 .debug_info    0x6cbd23ef     0x4f0a ../build/x86_Debug/pmc_getpropertyvalue.o
 .debug_info    0x6cbd72f9     0x5a13 ../build/x86_Debug/pmc_greatestcommondivisor.o
 .debug_info    0x6cbdcd0c     0x5cbc ../build/x86_Debug/pmc_initialize.o
 .debug_info    0x6cbe29c8     0x5d26 ../build/x86_Debug/pmc_memory.o
 .debug_info    0x6cbe86ee     0x55bb ../build/x86_Debug/pmc_modpow.o
 .debug_info    0x6cbedca9     0x6124 ../build/x86_Debug/pmc_multiply.o
 .debug_info    0x6cbf3dcd     0x66fd ../build/x86_Debug/pmc_parse.o
 .debug_info    0x6cbfa4ca     0x52df ../build/x86_Debug/pmc_pow.o
 .debug_info    0x6cbff7a9     0x5697 ../build/x86_Debug/pmc_shift.o
 .debug_info    0x6cc04e40     0x4d1b ../build/x86_Debug/pmc_statistics.o
 .debug_info    0x6cc09b5b     0x5a12 ../build/x86_Debug/pmc_subtruct.o
 .debug_info    0x6cc0f56d     0x4f5e ../build/x86_Debug/pmc_to.o
 .debug_info    0x6cc144cb     0x62f2 ../build/x86_Debug/pmc_tostring.o
 .debug_info    0x6cc1a7bd    0xb06e2 ../build/x86_Debug/TEST_autogenerated.o
 .debug_info    0x6cccae9f     0x5d06 ../build/x86_Debug/TEST_op_Add.o
 .debug_info    0x6ccd0ba5     0x5c6b ../build/x86_Debug/TEST_op_BitwiseAnd.o
 .debug_info    0x6ccd6810     0x5d1e ../build/x86_Debug/TEST_op_BitwiseOr.o
 .debug_info    0x6ccdc52e     0x58fe ../build/x86_Debug/TEST_op_Clone.o
 .debug_info    0x6cce1e2c     0x5b70 ../build/x86_Debug/TEST_op_Compare.o
 .debug_info    0x6cce799c     0x5de2 ../build/x86_Debug/TEST_op_DivRem.o
 .debug_info    0x6cced77e     0x5b6a ../build/x86_Debug/TEST_op_Equals.o
 .debug_info    0x6ccf32e8     0x5d2a ../build/x86_Debug/TEST_op_ExclusiveOr.o
 .debug_info    0x6ccf9012     0x5af0 ../build/x86_Debug/TEST_op_From_To.o
 .debug_info    0x6ccfeb02     0x5855 ../build/x86_Debug/TEST_op_GetPropertyValue.o
 .debug_info    0x6cd04357     0x5dbe ../build/x86_Debug/TEST_op_GreatestCommonDivisor.o
 .debug_info    0x6cd0a115     0x59b6 ../build/x86_Debug/TEST_op_ModPow.o
 .debug_info    0x6cd0facb     0x5d24 ../build/x86_Debug/TEST_op_Multiply.o
 .debug_info    0x6cd157ef     0x5ac4 ../build/x86_Debug/TEST_op_ParseDN.o
 .debug_info    0x6cd1b2b3     0x5965 ../build/x86_Debug/TEST_op_ParseX.o
 .debug_info    0x6cd20c18     0x592a ../build/x86_Debug/TEST_op_Pow.o
 .debug_info    0x6cd26542     0x59db ../build/x86_Debug/TEST_op_Shift.o
 .debug_info    0x6cd2bf1d     0x5cf8 ../build/x86_Debug/TEST_op_Subtruct.o
 .debug_info    0x6cd31c15     0x58fb ../build/x86_Debug/TEST_op_ToStringD.o
 .debug_info    0x6cd37510     0x5960 ../build/x86_Debug/TEST_op_ToStringN.o
 .debug_info    0x6cd3ce70     0x58fb ../build/x86_Debug/TEST_op_ToStringX.o

.zdebug_info
 *(.zdebug_info .zdebug.gnu.linkonce.wi.*)

.debug_abbrev   0x6cd43000     0x7200
 *(.debug_abbrev)
 .debug_abbrev  0x6cd43000      0x200 ../build/x86_Debug/cpuid.o
 .debug_abbrev  0x6cd43200      0x268 ../build/x86_Debug/debug.o
 .debug_abbrev  0x6cd43468      0x175 ../build/x86_Debug/dllmain.o
 .debug_abbrev  0x6cd435dd      0x213 ../build/x86_Debug/INTERNALTEST_op_DivRem.o
 .debug_abbrev  0x6cd437f0      0x213 ../build/x86_Debug/INTERNALTEST_op_Multiply.o
 .debug_abbrev  0x6cd43a03      0x306 ../build/x86_Debug/pmc_add.o
 .debug_abbrev  0x6cd43d09      0x252 ../build/x86_Debug/pmc_bitwiseand.o
 .debug_abbrev  0x6cd43f5b      0x314 ../build/x86_Debug/pmc_bitwiseor.o
 .debug_abbrev  0x6cd4426f      0x262 ../build/x86_Debug/pmc_bytes.o
 .debug_abbrev  0x6cd444d1      0x195 ../build/x86_Debug/pmc_clone.o
 .debug_abbrev  0x6cd44666      0x294 ../build/x86_Debug/pmc_compare.o
 .debug_abbrev  0x6cd448fa      0x3ea ../build/x86_Debug/pmc_divrem.o
 .debug_abbrev  0x6cd44ce4      0x271 ../build/x86_Debug/pmc_equals.o
 .debug_abbrev  0x6cd44f55      0x314 ../build/x86_Debug/pmc_exclusiveor.o
 .debug_abbrev  0x6cd45269      0x244 ../build/x86_Debug/pmc_from.o
 .debug_abbrev  0x6cd454ad      0x195 ../build/x86_Debug/pmc_getpropertyvalue.o
 .debug_abbrev  0x6cd45642      0x307 ../build/x86_Debug/pmc_greatestcommondivisor.o
 .debug_abbrev  0x6cd45949      0x1fb ../build/x86_Debug/pmc_initialize.o
 .debug_abbrev  0x6cd45b44      0x47b ../build/x86_Debug/pmc_memory.o
 .debug_abbrev  0x6cd45fbf      0x2bd ../build/x86_Debug/pmc_modpow.o
 .debug_abbrev  0x6cd4627c      0x3a3 ../build/x86_Debug/pmc_multiply.o
 .debug_abbrev  0x6cd4661f      0x3d6 ../build/x86_Debug/pmc_parse.o
 .debug_abbrev  0x6cd469f5      0x2d2 ../build/x86_Debug/pmc_pow.o
 .debug_abbrev  0x6cd46cc7      0x2a7 ../build/x86_Debug/pmc_shift.o
 .debug_abbrev  0x6cd46f6e      0x18a ../build/x86_Debug/pmc_statistics.o
 .debug_abbrev  0x6cd470f8      0x305 ../build/x86_Debug/pmc_subtruct.o
 .debug_abbrev  0x6cd473fd      0x1af ../build/x86_Debug/pmc_to.o
 .debug_abbrev  0x6cd475ac      0x3d6 ../build/x86_Debug/pmc_tostring.o
 .debug_abbrev  0x6cd47982      0x1f2 ../build/x86_Debug/TEST_autogenerated.o
 .debug_abbrev  0x6cd47b74      0x1d8 ../build/x86_Debug/TEST_op_Add.o
 .debug_abbrev  0x6cd47d4c      0x1d8 ../build/x86_Debug/TEST_op_BitwiseAnd.o
 .debug_abbrev  0x6cd47f24      0x1d8 ../build/x86_Debug/TEST_op_BitwiseOr.o
 .debug_abbrev  0x6cd480fc      0x1b6 ../build/x86_Debug/TEST_op_Clone.o
 .debug_abbrev  0x6cd482b2      0x1d8 ../build/x86_Debug/TEST_op_Compare.o
 .debug_abbrev  0x6cd4848a      0x1fa ../build/x86_Debug/TEST_op_DivRem.o
 .debug_abbrev  0x6cd48684      0x1d8 ../build/x86_Debug/TEST_op_Equals.o
 .debug_abbrev  0x6cd4885c      0x1d8 ../build/x86_Debug/TEST_op_ExclusiveOr.o
 .debug_abbrev  0x6cd48a34      0x1d8 ../build/x86_Debug/TEST_op_From_To.o
 .debug_abbrev  0x6cd48c0c      0x19c ../build/x86_Debug/TEST_op_GetPropertyValue.o
 .debug_abbrev  0x6cd48da8      0x1e9 ../build/x86_Debug/TEST_op_GreatestCommonDivisor.o
 .debug_abbrev  0x6cd48f91      0x1c7 ../build/x86_Debug/TEST_op_ModPow.o
 .debug_abbrev  0x6cd49158      0x1d8 ../build/x86_Debug/TEST_op_Multiply.o
 .debug_abbrev  0x6cd49330      0x209 ../build/x86_Debug/TEST_op_ParseDN.o
 .debug_abbrev  0x6cd49539      0x1d6 ../build/x86_Debug/TEST_op_ParseX.o
 .debug_abbrev  0x6cd4970f      0x1bf ../build/x86_Debug/TEST_op_Pow.o
 .debug_abbrev  0x6cd498ce      0x1d8 ../build/x86_Debug/TEST_op_Shift.o
 .debug_abbrev  0x6cd49aa6      0x1d8 ../build/x86_Debug/TEST_op_Subtruct.o
 .debug_abbrev  0x6cd49c7e      0x1c3 ../build/x86_Debug/TEST_op_ToStringD.o
 .debug_abbrev  0x6cd49e41      0x1c3 ../build/x86_Debug/TEST_op_ToStringN.o
 .debug_abbrev  0x6cd4a004      0x1c3 ../build/x86_Debug/TEST_op_ToStringX.o

.zdebug_abbrev
 *(.zdebug_abbrev)

.debug_line     0x6cd4b000    0x32c00
 *(.debug_line)
 .debug_line    0x6cd4b000      0x3a9 ../build/x86_Debug/cpuid.o
 .debug_line    0x6cd4b3a9      0x33b ../build/x86_Debug/debug.o
 .debug_line    0x6cd4b6e4      0x24e ../build/x86_Debug/dllmain.o
 .debug_line    0x6cd4b932      0x428 ../build/x86_Debug/INTERNALTEST_op_DivRem.o
 .debug_line    0x6cd4bd5a      0x3a1 ../build/x86_Debug/INTERNALTEST_op_Multiply.o
 .debug_line    0x6cd4c0fb      0x87c ../build/x86_Debug/pmc_add.o
 .debug_line    0x6cd4c977      0x8a1 ../build/x86_Debug/pmc_bitwiseand.o
 .debug_line    0x6cd4d218      0x9de ../build/x86_Debug/pmc_bitwiseor.o
 .debug_line    0x6cd4dbf6      0x3ab ../build/x86_Debug/pmc_bytes.o
 .debug_line    0x6cd4dfa1      0x281 ../build/x86_Debug/pmc_clone.o
 .debug_line    0x6cd4e222      0x550 ../build/x86_Debug/pmc_compare.o
 .debug_line    0x6cd4e772     0x13a8 ../build/x86_Debug/pmc_divrem.o
 .debug_line    0x6cd4fb1a      0x452 ../build/x86_Debug/pmc_equals.o
 .debug_line    0x6cd4ff6c      0xa15 ../build/x86_Debug/pmc_exclusiveor.o
 .debug_line    0x6cd50981      0x351 ../build/x86_Debug/pmc_from.o
 .debug_line    0x6cd50cd2      0x285 ../build/x86_Debug/pmc_getpropertyvalue.o
 .debug_line    0x6cd50f57      0x82d ../build/x86_Debug/pmc_greatestcommondivisor.o
 .debug_line    0x6cd51784      0x3b2 ../build/x86_Debug/pmc_initialize.o
 .debug_line    0x6cd51b36      0xa94 ../build/x86_Debug/pmc_memory.o
 .debug_line    0x6cd525ca      0x75d ../build/x86_Debug/pmc_modpow.o
 .debug_line    0x6cd52d27      0x9e0 ../build/x86_Debug/pmc_multiply.o
 .debug_line    0x6cd53707     0x12cc ../build/x86_Debug/pmc_parse.o
 .debug_line    0x6cd549d3      0x4af ../build/x86_Debug/pmc_pow.o
 .debug_line    0x6cd54e82     0x17ec ../build/x86_Debug/pmc_shift.o
 .debug_line    0x6cd5666e      0x21c ../build/x86_Debug/pmc_statistics.o
 .debug_line    0x6cd5688a      0x7f6 ../build/x86_Debug/pmc_subtruct.o
 .debug_line    0x6cd57080      0x2e7 ../build/x86_Debug/pmc_to.o
 .debug_line    0x6cd57367      0xb23 ../build/x86_Debug/pmc_tostring.o
 .debug_line    0x6cd57e8a    0x21412 ../build/x86_Debug/TEST_autogenerated.o
 .debug_line    0x6cd7929c      0x476 ../build/x86_Debug/TEST_op_Add.o
 .debug_line    0x6cd79712      0x3e3 ../build/x86_Debug/TEST_op_BitwiseAnd.o
 .debug_line    0x6cd79af5      0x47c ../build/x86_Debug/TEST_op_BitwiseOr.o
 .debug_line    0x6cd79f71      0x2a6 ../build/x86_Debug/TEST_op_Clone.o
 .debug_line    0x6cd7a217      0x387 ../build/x86_Debug/TEST_op_Compare.o
 .debug_line    0x6cd7a59e      0x49b ../build/x86_Debug/TEST_op_DivRem.o
 .debug_line    0x6cd7aa39      0x386 ../build/x86_Debug/TEST_op_Equals.o
 .debug_line    0x6cd7adbf      0x483 ../build/x86_Debug/TEST_op_ExclusiveOr.o
 .debug_line    0x6cd7b242      0x365 ../build/x86_Debug/TEST_op_From_To.o
 .debug_line    0x6cd7b5a7      0x261 ../build/x86_Debug/TEST_op_GetPropertyValue.o
 .debug_line    0x6cd7b808      0x49c ../build/x86_Debug/TEST_op_GreatestCommonDivisor.o
 .debug_line    0x6cd7bca4      0x2ee ../build/x86_Debug/TEST_op_ModPow.o
 .debug_line    0x6cd7bf92      0x47b ../build/x86_Debug/TEST_op_Multiply.o
 .debug_line    0x6cd7c40d      0x314 ../build/x86_Debug/TEST_op_ParseDN.o
 .debug_line    0x6cd7c721      0x2ae ../build/x86_Debug/TEST_op_ParseX.o
 .debug_line    0x6cd7c9cf      0x2a7 ../build/x86_Debug/TEST_op_Pow.o
 .debug_line    0x6cd7cc76      0x311 ../build/x86_Debug/TEST_op_Shift.o
 .debug_line    0x6cd7cf87      0x444 ../build/x86_Debug/TEST_op_Subtruct.o
 .debug_line    0x6cd7d3cb      0x282 ../build/x86_Debug/TEST_op_ToStringD.o
 .debug_line    0x6cd7d64d      0x283 ../build/x86_Debug/TEST_op_ToStringN.o
 .debug_line    0x6cd7d8d0      0x282 ../build/x86_Debug/TEST_op_ToStringX.o

.zdebug_line
 *(.zdebug_line)

.debug_frame
 *(.debug_frame*)

.zdebug_frame
 *(.zdebug_frame*)

.debug_str      0x6cd7e000     0x1000
 *(.debug_str)
 .debug_str     0x6cd7e000       0x29 ../build/x86_Debug/cpuid.o
 .debug_str     0x6cd7e029       0x13 ../build/x86_Debug/debug.o
 .debug_str     0x6cd7e03c        0x9 ../build/x86_Debug/dllmain.o
 .debug_str     0x6cd7e045        0x9 ../build/x86_Debug/INTERNALTEST_op_DivRem.o
 .debug_str     0x6cd7e04e        0x9 ../build/x86_Debug/INTERNALTEST_op_Multiply.o
 .debug_str     0x6cd7e057       0x57 ../build/x86_Debug/pmc_add.o
 .debug_str     0x6cd7e0ae       0x10 ../build/x86_Debug/pmc_bitwiseand.o
 .debug_str     0x6cd7e0be       0x63 ../build/x86_Debug/pmc_bitwiseor.o
 .debug_str     0x6cd7e121        0xf ../build/x86_Debug/pmc_bytes.o
 .debug_str     0x6cd7e130        0x9 ../build/x86_Debug/pmc_clone.o
 .debug_str     0x6cd7e139       0x2f ../build/x86_Debug/pmc_compare.o
 .debug_str     0x6cd7e168       0xe4 ../build/x86_Debug/pmc_divrem.o
 .debug_str     0x6cd7e24c       0x28 ../build/x86_Debug/pmc_equals.o
 .debug_str     0x6cd7e274       0x50 ../build/x86_Debug/pmc_exclusiveor.o
 .debug_str     0x6cd7e2c4       0x1d ../build/x86_Debug/pmc_from.o
 .debug_str     0x6cd7e2e1        0x9 ../build/x86_Debug/pmc_getpropertyvalue.o
 .debug_str     0x6cd7e2ea       0xb9 ../build/x86_Debug/pmc_greatestcommondivisor.o
 .debug_str     0x6cd7e3a3       0x7c ../build/x86_Debug/pmc_initialize.o
 .debug_str     0x6cd7e41f       0x62 ../build/x86_Debug/pmc_memory.o
 .debug_str     0x6cd7e481       0x60 ../build/x86_Debug/pmc_modpow.o
 .debug_str     0x6cd7e4e1       0x9b ../build/x86_Debug/pmc_multiply.o
 .debug_str     0x6cd7e57c       0xdd ../build/x86_Debug/pmc_parse.o
 .debug_str     0x6cd7e659       0x1d ../build/x86_Debug/pmc_pow.o
 .debug_str     0x6cd7e676       0x90 ../build/x86_Debug/pmc_shift.o
 .debug_str     0x6cd7e706        0x9 ../build/x86_Debug/pmc_statistics.o
 .debug_str     0x6cd7e70f       0x7e ../build/x86_Debug/pmc_subtruct.o
 .debug_str     0x6cd7e78d        0x9 ../build/x86_Debug/pmc_to.o
 .debug_str     0x6cd7e796       0x97 ../build/x86_Debug/pmc_tostring.o
 .debug_str     0x6cd7e82d        0x9 ../build/x86_Debug/TEST_autogenerated.o
 .debug_str     0x6cd7e836       0xca ../build/x86_Debug/TEST_op_Add.o
 .debug_str     0x6cd7e900       0x4b ../build/x86_Debug/TEST_op_BitwiseAnd.o
 .debug_str     0x6cd7e94b       0x81 ../build/x86_Debug/TEST_op_BitwiseOr.o
 .debug_str     0x6cd7e9cc        0x9 ../build/x86_Debug/TEST_op_Clone.o
 .debug_str     0x6cd7e9d5       0x5e ../build/x86_Debug/TEST_op_Compare.o
 .debug_str     0x6cd7ea33       0xbb ../build/x86_Debug/TEST_op_DivRem.o
 .debug_str     0x6cd7eaee       0x5e ../build/x86_Debug/TEST_op_Equals.o
 .debug_str     0x6cd7eb4c       0x81 ../build/x86_Debug/TEST_op_ExclusiveOr.o
 .debug_str     0x6cd7ebcd       0x45 ../build/x86_Debug/TEST_op_From_To.o
 .debug_str     0x6cd7ec12        0x9 ../build/x86_Debug/TEST_op_GetPropertyValue.o
 .debug_str     0x6cd7ec1b       0xde ../build/x86_Debug/TEST_op_GreatestCommonDivisor.o
 .debug_str     0x6cd7ecf9        0x9 ../build/x86_Debug/TEST_op_ModPow.o
 .debug_str     0x6cd7ed02       0xca ../build/x86_Debug/TEST_op_Multiply.o
 .debug_str     0x6cd7edcc       0x5e ../build/x86_Debug/TEST_op_ParseDN.o
 .debug_str     0x6cd7ee2a        0x9 ../build/x86_Debug/TEST_op_ParseX.o
 .debug_str     0x6cd7ee33        0x9 ../build/x86_Debug/TEST_op_Pow.o
 .debug_str     0x6cd7ee3c       0x66 ../build/x86_Debug/TEST_op_Shift.o
 .debug_str     0x6cd7eea2       0xa8 ../build/x86_Debug/TEST_op_Subtruct.o
 .debug_str     0x6cd7ef4a        0x9 ../build/x86_Debug/TEST_op_ToStringD.o
 .debug_str     0x6cd7ef53        0x9 ../build/x86_Debug/TEST_op_ToStringN.o
 .debug_str     0x6cd7ef5c        0x9 ../build/x86_Debug/TEST_op_ToStringX.o

.zdebug_str
 *(.zdebug_str)

.debug_loc
 *(.debug_loc)

.zdebug_loc
 *(.zdebug_loc)

.debug_macinfo
 *(.debug_macinfo)

.zdebug_macinfo
 *(.zdebug_macinfo)

.debug_weaknames
 *(.debug_weaknames)

.zdebug_weaknames
 *(.zdebug_weaknames)

.debug_funcnames
 *(.debug_funcnames)

.zdebug_funcnames
 *(.zdebug_funcnames)

.debug_typenames
 *(.debug_typenames)

.zdebug_typenames
 *(.zdebug_typenames)

.debug_varnames
 *(.debug_varnames)

.zdebug_varnames
 *(.zdebug_varnames)

.debug_macro
 *(.debug_macro)

.zdebug_macro
 *(.zdebug_macro)

.debug_ranges   0x6cd7f000      0x200
 *(.debug_ranges)
 .debug_ranges  0x6cd7f000       0xc8 ../build/x86_Debug/pmc_compare.o
 .debug_ranges  0x6cd7f0c8       0x30 ../build/x86_Debug/pmc_divrem.o
 .debug_ranges  0x6cd7f0f8       0x60 ../build/x86_Debug/pmc_subtruct.o

.zdebug_ranges
 *(.zdebug_ranges)

.debug_types
 *(.debug_types .gnu.linkonce.wt.*)

.zdebug_types
 *(.zdebug_types .gnu.linkonce.wt.*)

.debug_gdb_scripts
 *(.debug_gdb_scripts)

.zdebug_gdb_scripts
 *(.zdebug_gdb_scripts)
OUTPUT(../../dist/x86_Debug/Palmtree.Math.Core.Uint.dll pei-i386)
LOAD dll stuff
