	.file	"pmc_bitwiseor.c"
	.text
Ltext0:
	.def	__COPY_MEMORY_UNIT;	.scl	3;	.type	32;	.endef
__COPY_MEMORY_UNIT:
LFB4195:
	.file 1 "../pmc_inline_func.h"
	.loc 1 60 5
	.cfi_startproc
	pushl	%ebp
	.cfi_def_cfa_offset 8
	.cfi_offset 5, -8
	movl	%esp, %ebp
	.cfi_def_cfa_register 5
	pushl	%edi
	pushl	%esi
	pushl	%ebx
	subl	$16, %esp
	.cfi_offset 7, -12
	.cfi_offset 6, -16
	.cfi_offset 3, -20
	movl	8(%ebp), %eax
	movl	%eax, -16(%ebp)
	movl	12(%ebp), %eax
	movl	%eax, -20(%ebp)
	movl	16(%ebp), %eax
	movl	%eax, -24(%ebp)
LBB4:
LBB5:
	.file 2 "C:/GNU/MINGW64/i686-8.1.0-win32-dwarf-rt_v6-rev0/mingw32/i686-w64-mingw32/include/psdk_inc/intrin-impl.h"
	.loc 2 1773 87
	movl	-16(%ebp), %ecx
	movl	-20(%ebp), %edx
	movl	-24(%ebp), %eax
	movl	%ecx, %ebx
	movl	%ebx, %edi
	movl	%edx, %esi
	movl	%eax, %ecx
/APP
 # 1773 "C:/GNU/MINGW64/i686-8.1.0-win32-dwarf-rt_v6-rev0/mingw32/i686-w64-mingw32/include/psdk_inc/intrin-impl.h" 1
	rep movsd
 # 0 "" 2
/NO_APP
	movl	%ecx, %eax
	movl	%esi, %edx
	movl	%edi, %ebx
	movl	%ebx, -16(%ebp)
	movl	%edx, -20(%ebp)
	movl	%eax, -24(%ebp)
LBE5:
LBE4:
	.loc 1 68 5
	nop
	addl	$16, %esp
	popl	%ebx
	.cfi_restore 3
	popl	%esi
	.cfi_restore 6
	popl	%edi
	.cfi_restore 7
	popl	%ebp
	.cfi_restore 5
	.cfi_def_cfa 4, 4
	ret
	.cfi_endproc
LFE4195:
	.def	__FROMDWORDTOWORD;	.scl	3;	.type	32;	.endef
__FROMDWORDTOWORD:
LFB4207:
	.loc 1 176 5
	.cfi_startproc
	pushl	%ebp
	.cfi_def_cfa_offset 8
	.cfi_offset 5, -8
	movl	%esp, %ebp
	.cfi_def_cfa_register 5
	pushl	%ebx
	subl	$12, %esp
	.cfi_offset 3, -12
	movl	8(%ebp), %eax
	movl	%eax, -16(%ebp)
	movl	12(%ebp), %eax
	movl	%eax, -12(%ebp)
	.loc 1 177 42
	movl	-16(%ebp), %eax
	movl	-12(%ebp), %edx
	movl	%edx, %eax
	xorl	%edx, %edx
	movl	%eax, %ecx
	movl	%edx, %ebx
	.loc 1 177 24
	movl	%ecx, %edx
	.loc 1 177 22
	movl	16(%ebp), %eax
	movl	%edx, (%eax)
	.loc 1 178 17
	movl	-16(%ebp), %eax
	.loc 1 179 5
	addl	$12, %esp
	popl	%ebx
	.cfi_restore 3
	popl	%ebp
	.cfi_restore 5
	.cfi_def_cfa 4, 4
	ret
	.cfi_endproc
LFE4207:
	.def	__MAXIMUM_UNIT;	.scl	3;	.type	32;	.endef
__MAXIMUM_UNIT:
LFB4211:
	.loc 1 197 5
	.cfi_startproc
	pushl	%ebp
	.cfi_def_cfa_offset 8
	.cfi_offset 5, -8
	movl	%esp, %ebp
	.cfi_def_cfa_register 5
	.loc 1 198 28
	movl	12(%ebp), %eax
	cmpl	%eax, 8(%ebp)
	cmovnb	8(%ebp), %eax
	.loc 1 199 5
	popl	%ebp
	.cfi_restore 5
	.cfi_def_cfa 4, 4
	ret
	.cfi_endproc
LFE4211:
	.def	__LZCNT_ALT_32;	.scl	3;	.type	32;	.endef
__LZCNT_ALT_32:
LFB4234:
	.loc 1 590 5
	.cfi_startproc
	pushl	%ebp
	.cfi_def_cfa_offset 8
	.cfi_offset 5, -8
	movl	%esp, %ebp
	.cfi_def_cfa_register 5
	subl	$16, %esp
	.loc 1 591 12
	cmpl	$0, 8(%ebp)
	jne	L7
	.loc 1 592 20
	movl	$32, %eax
	jmp	L8
L7:
	.loc 1 597 9
/APP
 # 597 "../pmc_inline_func.h" 1
	bsrl 8(%ebp), %eax
 # 0 "" 2
/NO_APP
	movl	%eax, -4(%ebp)
	.loc 1 601 35
	movl	$31, %eax
	subl	-4(%ebp), %eax
L8:
	.loc 1 602 5
	leave
	.cfi_restore 5
	.cfi_def_cfa 4, 4
	ret
	.cfi_endproc
LFE4234:
	.def	_BitwiseOr_X_1W;	.scl	3;	.type	32;	.endef
_BitwiseOr_X_1W:
LFB4244:
	.file 3 "../pmc_bitwiseor.c"
	.loc 3 33 1
	.cfi_startproc
	pushl	%ebp
	.cfi_def_cfa_offset 8
	.cfi_offset 5, -8
	movl	%esp, %ebp
	.cfi_def_cfa_register 5
	subl	$12, %esp
	.loc 3 34 8
	cmpl	$1, 12(%ebp)
	jne	L10
	.loc 3 35 17
	movl	8(%ebp), %eax
	movl	(%eax), %eax
	.loc 3 35 21
	orl	16(%ebp), %eax
	movl	%eax, %edx
	.loc 3 35 14
	movl	20(%ebp), %eax
	movl	%edx, (%eax)
	.loc 3 41 1
	jmp	L12
L10:
	.loc 3 38 17
	movl	8(%ebp), %eax
	movl	(%eax), %eax
	.loc 3 38 21
	orl	16(%ebp), %eax
	movl	%eax, %edx
	.loc 3 38 14
	movl	20(%ebp), %eax
	movl	%edx, (%eax)
	.loc 3 39 9
	movl	12(%ebp), %eax
	leal	-1(%eax), %ecx
	.loc 3 39 36
	movl	8(%ebp), %eax
	leal	4(%eax), %edx
	.loc 3 39 9
	movl	20(%ebp), %eax
	addl	$4, %eax
	movl	%ecx, 8(%esp)
	movl	%edx, 4(%esp)
	movl	%eax, (%esp)
	call	__COPY_MEMORY_UNIT
L12:
	.loc 3 41 1
	nop
	leave
	.cfi_restore 5
	.cfi_def_cfa 4, 4
	ret
	.cfi_endproc
LFE4244:
	.def	_BitwiseOr_X_2W;	.scl	3;	.type	32;	.endef
_BitwiseOr_X_2W:
LFB4245:
	.loc 3 45 1
	.cfi_startproc
	pushl	%ebp
	.cfi_def_cfa_offset 8
	.cfi_offset 5, -8
	movl	%esp, %ebp
	.cfi_def_cfa_register 5
	subl	$12, %esp
	.loc 3 46 8
	cmpl	$1, 12(%ebp)
	jne	L14
	.loc 3 48 17
	movl	8(%ebp), %eax
	movl	(%eax), %eax
	.loc 3 48 21
	orl	20(%ebp), %eax
	movl	%eax, %edx
	.loc 3 48 14
	movl	24(%ebp), %eax
	movl	%edx, (%eax)
	.loc 3 49 10
	movl	24(%ebp), %eax
	leal	4(%eax), %edx
	.loc 3 49 14
	movl	16(%ebp), %eax
	movl	%eax, (%edx)
	.loc 3 62 1
	jmp	L17
L14:
	.loc 3 51 13
	cmpl	$2, 12(%ebp)
	jne	L16
	.loc 3 53 17
	movl	8(%ebp), %eax
	movl	(%eax), %eax
	.loc 3 53 21
	orl	20(%ebp), %eax
	movl	%eax, %edx
	.loc 3 53 14
	movl	24(%ebp), %eax
	movl	%edx, (%eax)
	.loc 3 54 17
	movl	8(%ebp), %eax
	addl	$4, %eax
	movl	(%eax), %eax
	.loc 3 54 10
	movl	24(%ebp), %edx
	addl	$4, %edx
	.loc 3 54 21
	orl	16(%ebp), %eax
	.loc 3 54 14
	movl	%eax, (%edx)
	.loc 3 62 1
	jmp	L17
L16:
	.loc 3 58 17
	movl	8(%ebp), %eax
	movl	(%eax), %eax
	.loc 3 58 21
	orl	20(%ebp), %eax
	movl	%eax, %edx
	.loc 3 58 14
	movl	24(%ebp), %eax
	movl	%edx, (%eax)
	.loc 3 59 17
	movl	8(%ebp), %eax
	addl	$4, %eax
	movl	(%eax), %eax
	.loc 3 59 10
	movl	24(%ebp), %edx
	addl	$4, %edx
	.loc 3 59 21
	orl	16(%ebp), %eax
	.loc 3 59 14
	movl	%eax, (%edx)
	.loc 3 60 9
	movl	12(%ebp), %eax
	leal	-2(%eax), %ecx
	.loc 3 60 36
	movl	8(%ebp), %eax
	leal	8(%eax), %edx
	.loc 3 60 9
	movl	24(%ebp), %eax
	addl	$8, %eax
	movl	%ecx, 8(%esp)
	movl	%edx, 4(%esp)
	movl	%eax, (%esp)
	call	__COPY_MEMORY_UNIT
L17:
	.loc 3 62 1
	nop
	leave
	.cfi_restore 5
	.cfi_def_cfa 4, 4
	ret
	.cfi_endproc
LFE4245:
	.def	_BitwiseOr_X_X;	.scl	3;	.type	32;	.endef
_BitwiseOr_X_X:
LFB4246:
	.loc 3 66 1
	.cfi_startproc
	pushl	%ebp
	.cfi_def_cfa_offset 8
	.cfi_offset 5, -8
	movl	%esp, %ebp
	.cfi_def_cfa_register 5
	subl	$28, %esp
	.loc 3 67 17
	movl	20(%ebp), %eax
	movl	%eax, -8(%ebp)
	.loc 3 68 17
	movl	12(%ebp), %eax
	subl	20(%ebp), %eax
	movl	%eax, -12(%ebp)
	.loc 3 70 17
	movl	-8(%ebp), %eax
	shrl	$5, %eax
	movl	%eax, -4(%ebp)
	.loc 3 71 11
	jmp	L19
L20:
	.loc 3 73 17
	movl	8(%ebp), %eax
	movl	(%eax), %edx
	.loc 3 73 24
	movl	16(%ebp), %eax
	movl	(%eax), %eax
	.loc 3 73 21
	orl	%eax, %edx
	.loc 3 73 14
	movl	24(%ebp), %eax
	movl	%edx, (%eax)
	.loc 3 74 17
	movl	8(%ebp), %eax
	addl	$4, %eax
	movl	(%eax), %ecx
	.loc 3 74 24
	movl	16(%ebp), %eax
	addl	$4, %eax
	movl	(%eax), %edx
	.loc 3 74 10
	movl	24(%ebp), %eax
	addl	$4, %eax
	.loc 3 74 21
	orl	%ecx, %edx
	.loc 3 74 14
	movl	%edx, (%eax)
	.loc 3 75 17
	movl	8(%ebp), %eax
	addl	$8, %eax
	movl	(%eax), %ecx
	.loc 3 75 24
	movl	16(%ebp), %eax
	addl	$8, %eax
	movl	(%eax), %edx
	.loc 3 75 10
	movl	24(%ebp), %eax
	addl	$8, %eax
	.loc 3 75 21
	orl	%ecx, %edx
	.loc 3 75 14
	movl	%edx, (%eax)
	.loc 3 76 17
	movl	8(%ebp), %eax
	addl	$12, %eax
	movl	(%eax), %ecx
	.loc 3 76 24
	movl	16(%ebp), %eax
	addl	$12, %eax
	movl	(%eax), %edx
	.loc 3 76 10
	movl	24(%ebp), %eax
	addl	$12, %eax
	.loc 3 76 21
	orl	%ecx, %edx
	.loc 3 76 14
	movl	%edx, (%eax)
	.loc 3 77 17
	movl	8(%ebp), %eax
	addl	$16, %eax
	movl	(%eax), %ecx
	.loc 3 77 24
	movl	16(%ebp), %eax
	addl	$16, %eax
	movl	(%eax), %edx
	.loc 3 77 10
	movl	24(%ebp), %eax
	addl	$16, %eax
	.loc 3 77 21
	orl	%ecx, %edx
	.loc 3 77 14
	movl	%edx, (%eax)
	.loc 3 78 17
	movl	8(%ebp), %eax
	addl	$20, %eax
	movl	(%eax), %ecx
	.loc 3 78 24
	movl	16(%ebp), %eax
	addl	$20, %eax
	movl	(%eax), %edx
	.loc 3 78 10
	movl	24(%ebp), %eax
	addl	$20, %eax
	.loc 3 78 21
	orl	%ecx, %edx
	.loc 3 78 14
	movl	%edx, (%eax)
	.loc 3 79 17
	movl	8(%ebp), %eax
	addl	$24, %eax
	movl	(%eax), %ecx
	.loc 3 79 24
	movl	16(%ebp), %eax
	addl	$24, %eax
	movl	(%eax), %edx
	.loc 3 79 10
	movl	24(%ebp), %eax
	addl	$24, %eax
	.loc 3 79 21
	orl	%ecx, %edx
	.loc 3 79 14
	movl	%edx, (%eax)
	.loc 3 80 17
	movl	8(%ebp), %eax
	addl	$28, %eax
	movl	(%eax), %ecx
	.loc 3 80 24
	movl	16(%ebp), %eax
	addl	$28, %eax
	movl	(%eax), %edx
	.loc 3 80 10
	movl	24(%ebp), %eax
	addl	$28, %eax
	.loc 3 80 21
	orl	%ecx, %edx
	.loc 3 80 14
	movl	%edx, (%eax)
	.loc 3 81 17
	movl	8(%ebp), %eax
	addl	$32, %eax
	movl	(%eax), %ecx
	.loc 3 81 24
	movl	16(%ebp), %eax
	addl	$32, %eax
	movl	(%eax), %edx
	.loc 3 81 10
	movl	24(%ebp), %eax
	addl	$32, %eax
	.loc 3 81 21
	orl	%ecx, %edx
	.loc 3 81 14
	movl	%edx, (%eax)
	.loc 3 82 17
	movl	8(%ebp), %eax
	addl	$36, %eax
	movl	(%eax), %ecx
	.loc 3 82 24
	movl	16(%ebp), %eax
	addl	$36, %eax
	movl	(%eax), %edx
	.loc 3 82 10
	movl	24(%ebp), %eax
	addl	$36, %eax
	.loc 3 82 21
	orl	%ecx, %edx
	.loc 3 82 14
	movl	%edx, (%eax)
	.loc 3 83 18
	movl	8(%ebp), %eax
	addl	$40, %eax
	movl	(%eax), %ecx
	.loc 3 83 26
	movl	16(%ebp), %eax
	addl	$40, %eax
	movl	(%eax), %edx
	.loc 3 83 10
	movl	24(%ebp), %eax
	addl	$40, %eax
	.loc 3 83 23
	orl	%ecx, %edx
	.loc 3 83 15
	movl	%edx, (%eax)
	.loc 3 84 18
	movl	8(%ebp), %eax
	addl	$44, %eax
	movl	(%eax), %ecx
	.loc 3 84 26
	movl	16(%ebp), %eax
	addl	$44, %eax
	movl	(%eax), %edx
	.loc 3 84 10
	movl	24(%ebp), %eax
	addl	$44, %eax
	.loc 3 84 23
	orl	%ecx, %edx
	.loc 3 84 15
	movl	%edx, (%eax)
	.loc 3 85 18
	movl	8(%ebp), %eax
	addl	$48, %eax
	movl	(%eax), %ecx
	.loc 3 85 26
	movl	16(%ebp), %eax
	addl	$48, %eax
	movl	(%eax), %edx
	.loc 3 85 10
	movl	24(%ebp), %eax
	addl	$48, %eax
	.loc 3 85 23
	orl	%ecx, %edx
	.loc 3 85 15
	movl	%edx, (%eax)
	.loc 3 86 18
	movl	8(%ebp), %eax
	addl	$52, %eax
	movl	(%eax), %ecx
	.loc 3 86 26
	movl	16(%ebp), %eax
	addl	$52, %eax
	movl	(%eax), %edx
	.loc 3 86 10
	movl	24(%ebp), %eax
	addl	$52, %eax
	.loc 3 86 23
	orl	%ecx, %edx
	.loc 3 86 15
	movl	%edx, (%eax)
	.loc 3 87 18
	movl	8(%ebp), %eax
	addl	$56, %eax
	movl	(%eax), %ecx
	.loc 3 87 26
	movl	16(%ebp), %eax
	addl	$56, %eax
	movl	(%eax), %edx
	.loc 3 87 10
	movl	24(%ebp), %eax
	addl	$56, %eax
	.loc 3 87 23
	orl	%ecx, %edx
	.loc 3 87 15
	movl	%edx, (%eax)
	.loc 3 88 18
	movl	8(%ebp), %eax
	addl	$60, %eax
	movl	(%eax), %ecx
	.loc 3 88 26
	movl	16(%ebp), %eax
	addl	$60, %eax
	movl	(%eax), %edx
	.loc 3 88 10
	movl	24(%ebp), %eax
	addl	$60, %eax
	.loc 3 88 23
	orl	%ecx, %edx
	.loc 3 88 15
	movl	%edx, (%eax)
	.loc 3 89 18
	movl	8(%ebp), %eax
	addl	$64, %eax
	movl	(%eax), %ecx
	.loc 3 89 26
	movl	16(%ebp), %eax
	addl	$64, %eax
	movl	(%eax), %edx
	.loc 3 89 10
	movl	24(%ebp), %eax
	addl	$64, %eax
	.loc 3 89 23
	orl	%ecx, %edx
	.loc 3 89 15
	movl	%edx, (%eax)
	.loc 3 90 18
	movl	8(%ebp), %eax
	addl	$68, %eax
	movl	(%eax), %ecx
	.loc 3 90 26
	movl	16(%ebp), %eax
	addl	$68, %eax
	movl	(%eax), %edx
	.loc 3 90 10
	movl	24(%ebp), %eax
	addl	$68, %eax
	.loc 3 90 23
	orl	%ecx, %edx
	.loc 3 90 15
	movl	%edx, (%eax)
	.loc 3 91 18
	movl	8(%ebp), %eax
	addl	$72, %eax
	movl	(%eax), %ecx
	.loc 3 91 26
	movl	16(%ebp), %eax
	addl	$72, %eax
	movl	(%eax), %edx
	.loc 3 91 10
	movl	24(%ebp), %eax
	addl	$72, %eax
	.loc 3 91 23
	orl	%ecx, %edx
	.loc 3 91 15
	movl	%edx, (%eax)
	.loc 3 92 18
	movl	8(%ebp), %eax
	addl	$76, %eax
	movl	(%eax), %ecx
	.loc 3 92 26
	movl	16(%ebp), %eax
	addl	$76, %eax
	movl	(%eax), %edx
	.loc 3 92 10
	movl	24(%ebp), %eax
	addl	$76, %eax
	.loc 3 92 23
	orl	%ecx, %edx
	.loc 3 92 15
	movl	%edx, (%eax)
	.loc 3 93 18
	movl	8(%ebp), %eax
	addl	$80, %eax
	movl	(%eax), %ecx
	.loc 3 93 26
	movl	16(%ebp), %eax
	addl	$80, %eax
	movl	(%eax), %edx
	.loc 3 93 10
	movl	24(%ebp), %eax
	addl	$80, %eax
	.loc 3 93 23
	orl	%ecx, %edx
	.loc 3 93 15
	movl	%edx, (%eax)
	.loc 3 94 18
	movl	8(%ebp), %eax
	addl	$84, %eax
	movl	(%eax), %ecx
	.loc 3 94 26
	movl	16(%ebp), %eax
	addl	$84, %eax
	movl	(%eax), %edx
	.loc 3 94 10
	movl	24(%ebp), %eax
	addl	$84, %eax
	.loc 3 94 23
	orl	%ecx, %edx
	.loc 3 94 15
	movl	%edx, (%eax)
	.loc 3 95 18
	movl	8(%ebp), %eax
	addl	$88, %eax
	movl	(%eax), %ecx
	.loc 3 95 26
	movl	16(%ebp), %eax
	addl	$88, %eax
	movl	(%eax), %edx
	.loc 3 95 10
	movl	24(%ebp), %eax
	addl	$88, %eax
	.loc 3 95 23
	orl	%ecx, %edx
	.loc 3 95 15
	movl	%edx, (%eax)
	.loc 3 96 18
	movl	8(%ebp), %eax
	addl	$92, %eax
	movl	(%eax), %ecx
	.loc 3 96 26
	movl	16(%ebp), %eax
	addl	$92, %eax
	movl	(%eax), %edx
	.loc 3 96 10
	movl	24(%ebp), %eax
	addl	$92, %eax
	.loc 3 96 23
	orl	%ecx, %edx
	.loc 3 96 15
	movl	%edx, (%eax)
	.loc 3 97 18
	movl	8(%ebp), %eax
	addl	$96, %eax
	movl	(%eax), %ecx
	.loc 3 97 26
	movl	16(%ebp), %eax
	addl	$96, %eax
	movl	(%eax), %edx
	.loc 3 97 10
	movl	24(%ebp), %eax
	addl	$96, %eax
	.loc 3 97 23
	orl	%ecx, %edx
	.loc 3 97 15
	movl	%edx, (%eax)
	.loc 3 98 18
	movl	8(%ebp), %eax
	addl	$100, %eax
	movl	(%eax), %ecx
	.loc 3 98 26
	movl	16(%ebp), %eax
	addl	$100, %eax
	movl	(%eax), %edx
	.loc 3 98 10
	movl	24(%ebp), %eax
	addl	$100, %eax
	.loc 3 98 23
	orl	%ecx, %edx
	.loc 3 98 15
	movl	%edx, (%eax)
	.loc 3 99 18
	movl	8(%ebp), %eax
	addl	$104, %eax
	movl	(%eax), %ecx
	.loc 3 99 26
	movl	16(%ebp), %eax
	addl	$104, %eax
	movl	(%eax), %edx
	.loc 3 99 10
	movl	24(%ebp), %eax
	addl	$104, %eax
	.loc 3 99 23
	orl	%ecx, %edx
	.loc 3 99 15
	movl	%edx, (%eax)
	.loc 3 100 18
	movl	8(%ebp), %eax
	addl	$108, %eax
	movl	(%eax), %ecx
	.loc 3 100 26
	movl	16(%ebp), %eax
	addl	$108, %eax
	movl	(%eax), %edx
	.loc 3 100 10
	movl	24(%ebp), %eax
	addl	$108, %eax
	.loc 3 100 23
	orl	%ecx, %edx
	.loc 3 100 15
	movl	%edx, (%eax)
	.loc 3 101 18
	movl	8(%ebp), %eax
	addl	$112, %eax
	movl	(%eax), %ecx
	.loc 3 101 26
	movl	16(%ebp), %eax
	addl	$112, %eax
	movl	(%eax), %edx
	.loc 3 101 10
	movl	24(%ebp), %eax
	addl	$112, %eax
	.loc 3 101 23
	orl	%ecx, %edx
	.loc 3 101 15
	movl	%edx, (%eax)
	.loc 3 102 18
	movl	8(%ebp), %eax
	addl	$116, %eax
	movl	(%eax), %ecx
	.loc 3 102 26
	movl	16(%ebp), %eax
	addl	$116, %eax
	movl	(%eax), %edx
	.loc 3 102 10
	movl	24(%ebp), %eax
	addl	$116, %eax
	.loc 3 102 23
	orl	%ecx, %edx
	.loc 3 102 15
	movl	%edx, (%eax)
	.loc 3 103 18
	movl	8(%ebp), %eax
	addl	$120, %eax
	movl	(%eax), %ecx
	.loc 3 103 26
	movl	16(%ebp), %eax
	addl	$120, %eax
	movl	(%eax), %edx
	.loc 3 103 10
	movl	24(%ebp), %eax
	addl	$120, %eax
	.loc 3 103 23
	orl	%ecx, %edx
	.loc 3 103 15
	movl	%edx, (%eax)
	.loc 3 104 18
	movl	8(%ebp), %eax
	addl	$124, %eax
	movl	(%eax), %ecx
	.loc 3 104 26
	movl	16(%ebp), %eax
	addl	$124, %eax
	movl	(%eax), %edx
	.loc 3 104 10
	movl	24(%ebp), %eax
	addl	$124, %eax
	.loc 3 104 23
	orl	%ecx, %edx
	.loc 3 104 15
	movl	%edx, (%eax)
	.loc 3 105 11
	subl	$-128, 8(%ebp)
	.loc 3 106 11
	subl	$-128, 16(%ebp)
	.loc 3 107 11
	subl	$-128, 24(%ebp)
	.loc 3 108 9
	subl	$1, -4(%ebp)
L19:
	.loc 3 71 11
	cmpl	$0, -4(%ebp)
	jne	L20
	.loc 3 111 18
	movl	-8(%ebp), %eax
	andl	$16, %eax
	.loc 3 111 8
	testl	%eax, %eax
	je	L21
	.loc 3 113 17
	movl	8(%ebp), %eax
	movl	(%eax), %edx
	.loc 3 113 24
	movl	16(%ebp), %eax
	movl	(%eax), %eax
	.loc 3 113 21
	orl	%eax, %edx
	.loc 3 113 14
	movl	24(%ebp), %eax
	movl	%edx, (%eax)
	.loc 3 114 17
	movl	8(%ebp), %eax
	addl	$4, %eax
	movl	(%eax), %ecx
	.loc 3 114 24
	movl	16(%ebp), %eax
	addl	$4, %eax
	movl	(%eax), %edx
	.loc 3 114 10
	movl	24(%ebp), %eax
	addl	$4, %eax
	.loc 3 114 21
	orl	%ecx, %edx
	.loc 3 114 14
	movl	%edx, (%eax)
	.loc 3 115 17
	movl	8(%ebp), %eax
	addl	$8, %eax
	movl	(%eax), %ecx
	.loc 3 115 24
	movl	16(%ebp), %eax
	addl	$8, %eax
	movl	(%eax), %edx
	.loc 3 115 10
	movl	24(%ebp), %eax
	addl	$8, %eax
	.loc 3 115 21
	orl	%ecx, %edx
	.loc 3 115 14
	movl	%edx, (%eax)
	.loc 3 116 17
	movl	8(%ebp), %eax
	addl	$12, %eax
	movl	(%eax), %ecx
	.loc 3 116 24
	movl	16(%ebp), %eax
	addl	$12, %eax
	movl	(%eax), %edx
	.loc 3 116 10
	movl	24(%ebp), %eax
	addl	$12, %eax
	.loc 3 116 21
	orl	%ecx, %edx
	.loc 3 116 14
	movl	%edx, (%eax)
	.loc 3 117 17
	movl	8(%ebp), %eax
	addl	$16, %eax
	movl	(%eax), %ecx
	.loc 3 117 24
	movl	16(%ebp), %eax
	addl	$16, %eax
	movl	(%eax), %edx
	.loc 3 117 10
	movl	24(%ebp), %eax
	addl	$16, %eax
	.loc 3 117 21
	orl	%ecx, %edx
	.loc 3 117 14
	movl	%edx, (%eax)
	.loc 3 118 17
	movl	8(%ebp), %eax
	addl	$20, %eax
	movl	(%eax), %ecx
	.loc 3 118 24
	movl	16(%ebp), %eax
	addl	$20, %eax
	movl	(%eax), %edx
	.loc 3 118 10
	movl	24(%ebp), %eax
	addl	$20, %eax
	.loc 3 118 21
	orl	%ecx, %edx
	.loc 3 118 14
	movl	%edx, (%eax)
	.loc 3 119 17
	movl	8(%ebp), %eax
	addl	$24, %eax
	movl	(%eax), %ecx
	.loc 3 119 24
	movl	16(%ebp), %eax
	addl	$24, %eax
	movl	(%eax), %edx
	.loc 3 119 10
	movl	24(%ebp), %eax
	addl	$24, %eax
	.loc 3 119 21
	orl	%ecx, %edx
	.loc 3 119 14
	movl	%edx, (%eax)
	.loc 3 120 17
	movl	8(%ebp), %eax
	addl	$28, %eax
	movl	(%eax), %ecx
	.loc 3 120 24
	movl	16(%ebp), %eax
	addl	$28, %eax
	movl	(%eax), %edx
	.loc 3 120 10
	movl	24(%ebp), %eax
	addl	$28, %eax
	.loc 3 120 21
	orl	%ecx, %edx
	.loc 3 120 14
	movl	%edx, (%eax)
	.loc 3 121 17
	movl	8(%ebp), %eax
	addl	$32, %eax
	movl	(%eax), %ecx
	.loc 3 121 24
	movl	16(%ebp), %eax
	addl	$32, %eax
	movl	(%eax), %edx
	.loc 3 121 10
	movl	24(%ebp), %eax
	addl	$32, %eax
	.loc 3 121 21
	orl	%ecx, %edx
	.loc 3 121 14
	movl	%edx, (%eax)
	.loc 3 122 17
	movl	8(%ebp), %eax
	addl	$36, %eax
	movl	(%eax), %ecx
	.loc 3 122 24
	movl	16(%ebp), %eax
	addl	$36, %eax
	movl	(%eax), %edx
	.loc 3 122 10
	movl	24(%ebp), %eax
	addl	$36, %eax
	.loc 3 122 21
	orl	%ecx, %edx
	.loc 3 122 14
	movl	%edx, (%eax)
	.loc 3 123 18
	movl	8(%ebp), %eax
	addl	$40, %eax
	movl	(%eax), %ecx
	.loc 3 123 26
	movl	16(%ebp), %eax
	addl	$40, %eax
	movl	(%eax), %edx
	.loc 3 123 10
	movl	24(%ebp), %eax
	addl	$40, %eax
	.loc 3 123 23
	orl	%ecx, %edx
	.loc 3 123 15
	movl	%edx, (%eax)
	.loc 3 124 18
	movl	8(%ebp), %eax
	addl	$44, %eax
	movl	(%eax), %ecx
	.loc 3 124 26
	movl	16(%ebp), %eax
	addl	$44, %eax
	movl	(%eax), %edx
	.loc 3 124 10
	movl	24(%ebp), %eax
	addl	$44, %eax
	.loc 3 124 23
	orl	%ecx, %edx
	.loc 3 124 15
	movl	%edx, (%eax)
	.loc 3 125 18
	movl	8(%ebp), %eax
	addl	$48, %eax
	movl	(%eax), %ecx
	.loc 3 125 26
	movl	16(%ebp), %eax
	addl	$48, %eax
	movl	(%eax), %edx
	.loc 3 125 10
	movl	24(%ebp), %eax
	addl	$48, %eax
	.loc 3 125 23
	orl	%ecx, %edx
	.loc 3 125 15
	movl	%edx, (%eax)
	.loc 3 126 18
	movl	8(%ebp), %eax
	addl	$52, %eax
	movl	(%eax), %ecx
	.loc 3 126 26
	movl	16(%ebp), %eax
	addl	$52, %eax
	movl	(%eax), %edx
	.loc 3 126 10
	movl	24(%ebp), %eax
	addl	$52, %eax
	.loc 3 126 23
	orl	%ecx, %edx
	.loc 3 126 15
	movl	%edx, (%eax)
	.loc 3 127 18
	movl	8(%ebp), %eax
	addl	$56, %eax
	movl	(%eax), %ecx
	.loc 3 127 26
	movl	16(%ebp), %eax
	addl	$56, %eax
	movl	(%eax), %edx
	.loc 3 127 10
	movl	24(%ebp), %eax
	addl	$56, %eax
	.loc 3 127 23
	orl	%ecx, %edx
	.loc 3 127 15
	movl	%edx, (%eax)
	.loc 3 128 18
	movl	8(%ebp), %eax
	addl	$60, %eax
	movl	(%eax), %ecx
	.loc 3 128 26
	movl	16(%ebp), %eax
	addl	$60, %eax
	movl	(%eax), %edx
	.loc 3 128 10
	movl	24(%ebp), %eax
	addl	$60, %eax
	.loc 3 128 23
	orl	%ecx, %edx
	.loc 3 128 15
	movl	%edx, (%eax)
	.loc 3 129 11
	addl	$64, 8(%ebp)
	.loc 3 130 11
	addl	$64, 16(%ebp)
	.loc 3 131 11
	addl	$64, 24(%ebp)
L21:
	.loc 3 134 18
	movl	-8(%ebp), %eax
	andl	$8, %eax
	.loc 3 134 8
	testl	%eax, %eax
	je	L22
	.loc 3 136 17
	movl	8(%ebp), %eax
	movl	(%eax), %edx
	.loc 3 136 24
	movl	16(%ebp), %eax
	movl	(%eax), %eax
	.loc 3 136 21
	orl	%eax, %edx
	.loc 3 136 14
	movl	24(%ebp), %eax
	movl	%edx, (%eax)
	.loc 3 137 17
	movl	8(%ebp), %eax
	addl	$4, %eax
	movl	(%eax), %ecx
	.loc 3 137 24
	movl	16(%ebp), %eax
	addl	$4, %eax
	movl	(%eax), %edx
	.loc 3 137 10
	movl	24(%ebp), %eax
	addl	$4, %eax
	.loc 3 137 21
	orl	%ecx, %edx
	.loc 3 137 14
	movl	%edx, (%eax)
	.loc 3 138 17
	movl	8(%ebp), %eax
	addl	$8, %eax
	movl	(%eax), %ecx
	.loc 3 138 24
	movl	16(%ebp), %eax
	addl	$8, %eax
	movl	(%eax), %edx
	.loc 3 138 10
	movl	24(%ebp), %eax
	addl	$8, %eax
	.loc 3 138 21
	orl	%ecx, %edx
	.loc 3 138 14
	movl	%edx, (%eax)
	.loc 3 139 17
	movl	8(%ebp), %eax
	addl	$12, %eax
	movl	(%eax), %ecx
	.loc 3 139 24
	movl	16(%ebp), %eax
	addl	$12, %eax
	movl	(%eax), %edx
	.loc 3 139 10
	movl	24(%ebp), %eax
	addl	$12, %eax
	.loc 3 139 21
	orl	%ecx, %edx
	.loc 3 139 14
	movl	%edx, (%eax)
	.loc 3 140 17
	movl	8(%ebp), %eax
	addl	$16, %eax
	movl	(%eax), %ecx
	.loc 3 140 24
	movl	16(%ebp), %eax
	addl	$16, %eax
	movl	(%eax), %edx
	.loc 3 140 10
	movl	24(%ebp), %eax
	addl	$16, %eax
	.loc 3 140 21
	orl	%ecx, %edx
	.loc 3 140 14
	movl	%edx, (%eax)
	.loc 3 141 17
	movl	8(%ebp), %eax
	addl	$20, %eax
	movl	(%eax), %ecx
	.loc 3 141 24
	movl	16(%ebp), %eax
	addl	$20, %eax
	movl	(%eax), %edx
	.loc 3 141 10
	movl	24(%ebp), %eax
	addl	$20, %eax
	.loc 3 141 21
	orl	%ecx, %edx
	.loc 3 141 14
	movl	%edx, (%eax)
	.loc 3 142 17
	movl	8(%ebp), %eax
	addl	$24, %eax
	movl	(%eax), %ecx
	.loc 3 142 24
	movl	16(%ebp), %eax
	addl	$24, %eax
	movl	(%eax), %edx
	.loc 3 142 10
	movl	24(%ebp), %eax
	addl	$24, %eax
	.loc 3 142 21
	orl	%ecx, %edx
	.loc 3 142 14
	movl	%edx, (%eax)
	.loc 3 143 17
	movl	8(%ebp), %eax
	addl	$28, %eax
	movl	(%eax), %ecx
	.loc 3 143 24
	movl	16(%ebp), %eax
	addl	$28, %eax
	movl	(%eax), %edx
	.loc 3 143 10
	movl	24(%ebp), %eax
	addl	$28, %eax
	.loc 3 143 21
	orl	%ecx, %edx
	.loc 3 143 14
	movl	%edx, (%eax)
	.loc 3 144 11
	addl	$32, 8(%ebp)
	.loc 3 145 11
	addl	$32, 16(%ebp)
	.loc 3 146 11
	addl	$32, 24(%ebp)
L22:
	.loc 3 149 18
	movl	-8(%ebp), %eax
	andl	$4, %eax
	.loc 3 149 8
	testl	%eax, %eax
	je	L23
	.loc 3 151 17
	movl	8(%ebp), %eax
	movl	(%eax), %edx
	.loc 3 151 24
	movl	16(%ebp), %eax
	movl	(%eax), %eax
	.loc 3 151 21
	orl	%eax, %edx
	.loc 3 151 14
	movl	24(%ebp), %eax
	movl	%edx, (%eax)
	.loc 3 152 17
	movl	8(%ebp), %eax
	addl	$4, %eax
	movl	(%eax), %ecx
	.loc 3 152 24
	movl	16(%ebp), %eax
	addl	$4, %eax
	movl	(%eax), %edx
	.loc 3 152 10
	movl	24(%ebp), %eax
	addl	$4, %eax
	.loc 3 152 21
	orl	%ecx, %edx
	.loc 3 152 14
	movl	%edx, (%eax)
	.loc 3 153 17
	movl	8(%ebp), %eax
	addl	$8, %eax
	movl	(%eax), %ecx
	.loc 3 153 24
	movl	16(%ebp), %eax
	addl	$8, %eax
	movl	(%eax), %edx
	.loc 3 153 10
	movl	24(%ebp), %eax
	addl	$8, %eax
	.loc 3 153 21
	orl	%ecx, %edx
	.loc 3 153 14
	movl	%edx, (%eax)
	.loc 3 154 17
	movl	8(%ebp), %eax
	addl	$12, %eax
	movl	(%eax), %ecx
	.loc 3 154 24
	movl	16(%ebp), %eax
	addl	$12, %eax
	movl	(%eax), %edx
	.loc 3 154 10
	movl	24(%ebp), %eax
	addl	$12, %eax
	.loc 3 154 21
	orl	%ecx, %edx
	.loc 3 154 14
	movl	%edx, (%eax)
	.loc 3 155 11
	addl	$16, 8(%ebp)
	.loc 3 156 11
	addl	$16, 16(%ebp)
	.loc 3 157 11
	addl	$16, 24(%ebp)
L23:
	.loc 3 160 18
	movl	-8(%ebp), %eax
	andl	$2, %eax
	.loc 3 160 8
	testl	%eax, %eax
	je	L24
	.loc 3 162 17
	movl	8(%ebp), %eax
	movl	(%eax), %edx
	.loc 3 162 24
	movl	16(%ebp), %eax
	movl	(%eax), %eax
	.loc 3 162 21
	orl	%eax, %edx
	.loc 3 162 14
	movl	24(%ebp), %eax
	movl	%edx, (%eax)
	.loc 3 163 17
	movl	8(%ebp), %eax
	addl	$4, %eax
	movl	(%eax), %ecx
	.loc 3 163 24
	movl	16(%ebp), %eax
	addl	$4, %eax
	movl	(%eax), %edx
	.loc 3 163 10
	movl	24(%ebp), %eax
	addl	$4, %eax
	.loc 3 163 21
	orl	%ecx, %edx
	.loc 3 163 14
	movl	%edx, (%eax)
	.loc 3 164 11
	addl	$8, 8(%ebp)
	.loc 3 165 11
	addl	$8, 16(%ebp)
	.loc 3 166 11
	addl	$8, 24(%ebp)
L24:
	.loc 3 169 18
	movl	-8(%ebp), %eax
	andl	$1, %eax
	.loc 3 169 8
	testl	%eax, %eax
	je	L25
	.loc 3 171 17
	movl	8(%ebp), %eax
	movl	(%eax), %edx
	.loc 3 171 24
	movl	16(%ebp), %eax
	movl	(%eax), %eax
	.loc 3 171 21
	orl	%eax, %edx
	.loc 3 171 14
	movl	24(%ebp), %eax
	movl	%edx, (%eax)
	.loc 3 172 11
	addl	$4, 8(%ebp)
	.loc 3 173 11
	addl	$4, 16(%ebp)
	.loc 3 174 11
	addl	$4, 24(%ebp)
L25:
	.loc 3 177 5
	movl	-12(%ebp), %eax
	movl	%eax, 8(%esp)
	movl	8(%ebp), %eax
	movl	%eax, 4(%esp)
	movl	24(%ebp), %eax
	movl	%eax, (%esp)
	call	__COPY_MEMORY_UNIT
	.loc 3 178 1
	nop
	leave
	.cfi_restore 5
	.cfi_def_cfa 4, 4
	ret
	.cfi_endproc
LFE4246:
	.def	_PMC_BitwiseOr_X_I_Imp;	.scl	3;	.type	32;	.endef
_PMC_BitwiseOr_X_I_Imp:
LFB4247:
	.loc 3 181 1
	.cfi_startproc
	pushl	%ebp
	.cfi_def_cfa_offset 8
	.cfi_offset 5, -8
	movl	%esp, %ebp
	.cfi_def_cfa_register 5
	subl	$56, %esp
	.loc 3 183 9
	movl	8(%ebp), %eax
	movzbl	24(%eax), %eax
	andl	$2, %eax
	.loc 3 183 8
	testb	%al, %al
	je	L27
	.loc 3 186 12
	cmpl	$0, 12(%ebp)
	jne	L28
	.loc 3 189 16
	movl	16(%ebp), %eax
	movl	$_number_zero, (%eax)
	jmp	L29
L28:
	.loc 3 194 27
	movl	16(%ebp), %eax
	movl	%eax, 4(%esp)
	movl	12(%ebp), %eax
	movl	%eax, (%esp)
	call	_From_I_Imp
	movl	%eax, -12(%ebp)
	.loc 3 194 16
	cmpl	$0, -12(%ebp)
	je	L29
	.loc 3 195 24
	movl	-12(%ebp), %eax
	jmp	L30
L27:
	.loc 3 198 13
	cmpl	$0, 12(%ebp)
	jne	L31
	.loc 3 201 23
	movl	16(%ebp), %eax
	movl	%eax, 4(%esp)
	movl	8(%ebp), %eax
	movl	%eax, (%esp)
	call	_DuplicateNumber
	movl	%eax, -12(%ebp)
	.loc 3 201 12
	cmpl	$0, -12(%ebp)
	je	L29
	.loc 3 202 20
	movl	-12(%ebp), %eax
	jmp	L30
L31:
LBB6:
	.loc 3 207 21
	movl	8(%ebp), %eax
	movl	12(%eax), %eax
	movl	%eax, -16(%ebp)
	.loc 3 208 51
	movl	12(%ebp), %eax
	movl	%eax, (%esp)
	call	__LZCNT_ALT_32
	.loc 3 208 21
	movl	$32, %edx
	subl	%eax, %edx
	movl	%edx, %eax
	movl	%eax, -20(%ebp)
	.loc 3 209 35
	movl	-20(%ebp), %eax
	movl	%eax, 4(%esp)
	movl	-16(%ebp), %eax
	movl	%eax, (%esp)
	call	__MAXIMUM_UNIT
	.loc 3 209 21
	addl	$1, %eax
	movl	%eax, -24(%ebp)
	.loc 3 211 23
	leal	-28(%ebp), %eax
	movl	%eax, 8(%esp)
	movl	-24(%ebp), %eax
	movl	%eax, 4(%esp)
	movl	16(%ebp), %eax
	movl	%eax, (%esp)
	call	_AllocateNumber
	movl	%eax, -12(%ebp)
	.loc 3 211 12
	cmpl	$0, -12(%ebp)
	je	L32
	.loc 3 212 20
	movl	-12(%ebp), %eax
	jmp	L30
L32:
	.loc 3 213 58
	movl	16(%ebp), %eax
	movl	(%eax), %eax
	.loc 3 213 9
	movl	32(%eax), %ecx
	movl	8(%ebp), %eax
	movl	8(%eax), %edx
	movl	8(%ebp), %eax
	movl	32(%eax), %eax
	movl	%ecx, 12(%esp)
	movl	12(%ebp), %ecx
	movl	%ecx, 8(%esp)
	movl	%edx, 4(%esp)
	movl	%eax, (%esp)
	call	_BitwiseOr_X_1W
	.loc 3 214 23
	movl	-28(%ebp), %edx
	.loc 3 214 40
	movl	16(%ebp), %eax
	movl	(%eax), %eax
	.loc 3 214 23
	movl	32(%eax), %eax
	movl	%edx, 4(%esp)
	movl	%eax, (%esp)
	call	_CheckBlockLight
	movl	%eax, -12(%ebp)
	.loc 3 214 12
	cmpl	$0, -12(%ebp)
	je	L34
	.loc 3 215 20
	movl	-12(%ebp), %eax
	jmp	L30
L34:
	.loc 3 216 9
	movl	16(%ebp), %eax
	movl	(%eax), %eax
	movl	%eax, (%esp)
	call	_CommitNumber
L29:
LBE6:
	.loc 3 218 12
	movl	$0, %eax
L30:
	.loc 3 219 1
	leave
	.cfi_restore 5
	.cfi_def_cfa 4, 4
	ret
	.cfi_endproc
LFE4247:
	.globl	_PMC_BitwiseOr_I_X@12
	.def	_PMC_BitwiseOr_I_X@12;	.scl	2;	.type	32;	.endef
_PMC_BitwiseOr_I_X@12:
LFB4248:
	.loc 3 222 1
	.cfi_startproc
	pushl	%ebp
	.cfi_def_cfa_offset 8
	.cfi_offset 5, -8
	movl	%esp, %ebp
	.cfi_def_cfa_register 5
	subl	$40, %esp
	.loc 3 228 8
	cmpl	$0, 12(%ebp)
	jne	L36
	.loc 3 229 16
	movl	$-1, %eax
	jmp	L37
L36:
	.loc 3 230 8
	cmpl	$0, 16(%ebp)
	jne	L38
	.loc 3 231 16
	movl	$-1, %eax
	jmp	L37
L38:
	.loc 3 233 19
	movl	12(%ebp), %eax
	movl	%eax, (%esp)
	call	_CheckNumber
	movl	%eax, -12(%ebp)
	.loc 3 233 8
	cmpl	$0, -12(%ebp)
	je	L39
	.loc 3 234 16
	movl	-12(%ebp), %eax
	jmp	L37
L39:
	.loc 3 235 19
	movl	16(%ebp), %eax
	movl	%eax, 8(%esp)
	movl	8(%ebp), %eax
	movl	%eax, 4(%esp)
	movl	12(%ebp), %eax
	movl	%eax, (%esp)
	call	_PMC_BitwiseOr_X_I_Imp
	movl	%eax, -12(%ebp)
	.loc 3 235 8
	cmpl	$0, -12(%ebp)
	je	L40
	.loc 3 236 16
	movl	-12(%ebp), %eax
	jmp	L37
L40:
	.loc 3 238 19
	movl	16(%ebp), %eax
	movl	(%eax), %eax
	movl	%eax, (%esp)
	call	_CheckNumber
	movl	%eax, -12(%ebp)
	.loc 3 238 8
	cmpl	$0, -12(%ebp)
	je	L41
	.loc 3 239 16
	movl	-12(%ebp), %eax
	jmp	L37
L41:
	.loc 3 241 12
	movl	$0, %eax
L37:
	.loc 3 242 1
	leave
	.cfi_restore 5
	.cfi_def_cfa 4, 4
	ret	$12
	.cfi_endproc
LFE4248:
	.globl	_PMC_BitwiseOr_X_I@12
	.def	_PMC_BitwiseOr_X_I@12;	.scl	2;	.type	32;	.endef
_PMC_BitwiseOr_X_I@12:
LFB4249:
	.loc 3 245 1
	.cfi_startproc
	pushl	%ebp
	.cfi_def_cfa_offset 8
	.cfi_offset 5, -8
	movl	%esp, %ebp
	.cfi_def_cfa_register 5
	subl	$40, %esp
	.loc 3 251 8
	cmpl	$0, 8(%ebp)
	jne	L43
	.loc 3 252 16
	movl	$-1, %eax
	jmp	L44
L43:
	.loc 3 253 8
	cmpl	$0, 16(%ebp)
	jne	L45
	.loc 3 254 16
	movl	$-1, %eax
	jmp	L44
L45:
	.loc 3 256 19
	movl	8(%ebp), %eax
	movl	%eax, (%esp)
	call	_CheckNumber
	movl	%eax, -12(%ebp)
	.loc 3 256 8
	cmpl	$0, -12(%ebp)
	je	L46
	.loc 3 257 16
	movl	-12(%ebp), %eax
	jmp	L44
L46:
	.loc 3 258 19
	movl	16(%ebp), %eax
	movl	%eax, 8(%esp)
	movl	12(%ebp), %eax
	movl	%eax, 4(%esp)
	movl	8(%ebp), %eax
	movl	%eax, (%esp)
	call	_PMC_BitwiseOr_X_I_Imp
	movl	%eax, -12(%ebp)
	.loc 3 258 8
	cmpl	$0, -12(%ebp)
	je	L47
	.loc 3 259 16
	movl	-12(%ebp), %eax
	jmp	L44
L47:
	.loc 3 261 19
	movl	16(%ebp), %eax
	movl	(%eax), %eax
	movl	%eax, (%esp)
	call	_CheckNumber
	movl	%eax, -12(%ebp)
	.loc 3 261 8
	cmpl	$0, -12(%ebp)
	je	L48
	.loc 3 262 16
	movl	-12(%ebp), %eax
	jmp	L44
L48:
	.loc 3 264 12
	movl	$0, %eax
L44:
	.loc 3 265 1
	leave
	.cfi_restore 5
	.cfi_def_cfa 4, 4
	ret	$12
	.cfi_endproc
LFE4249:
	.def	_PMC_BitwiseOr_X_L_Imp;	.scl	3;	.type	32;	.endef
_PMC_BitwiseOr_X_L_Imp:
LFB4250:
	.loc 3 268 1
	.cfi_startproc
	pushl	%ebp
	.cfi_def_cfa_offset 8
	.cfi_offset 5, -8
	movl	%esp, %ebp
	.cfi_def_cfa_register 5
	pushl	%esi
	pushl	%ebx
	subl	$96, %esp
	.cfi_offset 6, -12
	.cfi_offset 3, -16
	movl	12(%ebp), %esi
	movl	%esi, -64(%ebp)
	movl	16(%ebp), %esi
	movl	%esi, -60(%ebp)
	.loc 3 270 9
	movl	8(%ebp), %esi
	movzbl	24(%esi), %eax
	andl	$2, %eax
	.loc 3 270 8
	testb	%al, %al
	je	L50
	.loc 3 273 12
	movl	-64(%ebp), %eax
	xorb	$0, %ah
	movl	%eax, %ecx
	movl	-60(%ebp), %eax
	xorb	$0, %ah
	movl	%eax, %ebx
	movl	%ebx, %eax
	orl	%ecx, %eax
	testl	%eax, %eax
	jne	L51
	.loc 3 276 16
	movl	20(%ebp), %eax
	movl	$_number_zero, (%eax)
	jmp	L52
L51:
	.loc 3 281 27
	movl	20(%ebp), %eax
	movl	%eax, 8(%esp)
	movl	-64(%ebp), %eax
	movl	-60(%ebp), %edx
	movl	%eax, (%esp)
	movl	%edx, 4(%esp)
	call	_From_L_Imp
	movl	%eax, -12(%ebp)
	.loc 3 281 16
	cmpl	$0, -12(%ebp)
	je	L52
	.loc 3 282 24
	movl	-12(%ebp), %eax
	jmp	L53
L50:
	.loc 3 285 13
	movl	-64(%ebp), %ecx
	xorb	$0, %ch
	movl	%ecx, -72(%ebp)
	movl	-60(%ebp), %ecx
	xorb	$0, %ch
	movl	%ecx, -68(%ebp)
	movl	-72(%ebp), %ebx
	movl	-68(%ebp), %esi
	movl	%ebx, %eax
	orl	%esi, %eax
	testl	%eax, %eax
	jne	L54
	.loc 3 288 23
	movl	20(%ebp), %eax
	movl	%eax, 4(%esp)
	movl	8(%ebp), %eax
	movl	%eax, (%esp)
	call	_DuplicateNumber
	movl	%eax, -12(%ebp)
	.loc 3 288 12
	cmpl	$0, -12(%ebp)
	je	L52
	.loc 3 289 20
	movl	-12(%ebp), %eax
	jmp	L53
L54:
LBB7:
	.loc 3 297 25
	movl	8(%ebp), %eax
	movl	12(%eax), %eax
	movl	%eax, -16(%ebp)
	.loc 3 299 30
	leal	-40(%ebp), %eax
	movl	%eax, 8(%esp)
	movl	-64(%ebp), %eax
	movl	-60(%ebp), %edx
	movl	%eax, (%esp)
	movl	%edx, 4(%esp)
	call	__FROMDWORDTOWORD
	movl	%eax, -20(%ebp)
	.loc 3 300 22
	movl	-40(%ebp), %eax
	.loc 3 300 16
	testl	%eax, %eax
	jne	L55
LBB8:
	.loc 3 303 62
	movl	-20(%ebp), %eax
	movl	%eax, (%esp)
	call	__LZCNT_ALT_32
	.loc 3 303 29
	movl	$32, %edx
	subl	%eax, %edx
	movl	%edx, %eax
	movl	%eax, -24(%ebp)
	.loc 3 304 43
	movl	-24(%ebp), %eax
	movl	%eax, 4(%esp)
	movl	-16(%ebp), %eax
	movl	%eax, (%esp)
	call	__MAXIMUM_UNIT
	movl	%eax, -28(%ebp)
	.loc 3 306 31
	leal	-44(%ebp), %eax
	movl	%eax, 8(%esp)
	movl	-28(%ebp), %eax
	movl	%eax, 4(%esp)
	movl	20(%ebp), %eax
	movl	%eax, (%esp)
	call	_AllocateNumber
	movl	%eax, -12(%ebp)
	.loc 3 306 20
	cmpl	$0, -12(%ebp)
	je	L56
	.loc 3 307 28
	movl	-12(%ebp), %eax
	jmp	L53
L56:
	.loc 3 308 69
	movl	20(%ebp), %eax
	movl	(%eax), %eax
	.loc 3 308 17
	movl	32(%eax), %ecx
	movl	8(%ebp), %eax
	movl	8(%eax), %edx
	movl	8(%ebp), %eax
	movl	32(%eax), %eax
	movl	%ecx, 12(%esp)
	movl	-20(%ebp), %ecx
	movl	%ecx, 8(%esp)
	movl	%edx, 4(%esp)
	movl	%eax, (%esp)
	call	_BitwiseOr_X_1W
	.loc 3 309 31
	movl	-44(%ebp), %edx
	.loc 3 309 48
	movl	20(%ebp), %eax
	movl	(%eax), %eax
	.loc 3 309 31
	movl	32(%eax), %eax
	movl	%edx, 4(%esp)
	movl	%eax, (%esp)
	call	_CheckBlockLight
	movl	%eax, -12(%ebp)
	.loc 3 309 20
	cmpl	$0, -12(%ebp)
	je	L59
	.loc 3 310 28
	movl	-12(%ebp), %eax
	jmp	L53
L55:
LBE8:
LBB9:
	.loc 3 315 59
	movl	-40(%ebp), %eax
	movl	%eax, (%esp)
	call	__LZCNT_ALT_32
	.loc 3 315 29
	movl	$64, %edx
	subl	%eax, %edx
	movl	%edx, %eax
	movl	%eax, -32(%ebp)
	.loc 3 316 43
	movl	-32(%ebp), %eax
	movl	%eax, 4(%esp)
	movl	-16(%ebp), %eax
	movl	%eax, (%esp)
	call	__MAXIMUM_UNIT
	movl	%eax, -36(%ebp)
	.loc 3 318 31
	leal	-48(%ebp), %eax
	movl	%eax, 8(%esp)
	movl	-36(%ebp), %eax
	movl	%eax, 4(%esp)
	movl	20(%ebp), %eax
	movl	%eax, (%esp)
	call	_AllocateNumber
	movl	%eax, -12(%ebp)
	.loc 3 318 20
	cmpl	$0, -12(%ebp)
	je	L61
	.loc 3 319 28
	movl	-12(%ebp), %eax
	jmp	L53
L61:
	.loc 3 320 75
	movl	20(%ebp), %eax
	movl	(%eax), %eax
	.loc 3 320 17
	movl	32(%eax), %ebx
	movl	-40(%ebp), %ecx
	movl	8(%ebp), %eax
	movl	8(%eax), %edx
	movl	8(%ebp), %eax
	movl	32(%eax), %eax
	movl	%ebx, 16(%esp)
	movl	-20(%ebp), %ebx
	movl	%ebx, 12(%esp)
	movl	%ecx, 8(%esp)
	movl	%edx, 4(%esp)
	movl	%eax, (%esp)
	call	_BitwiseOr_X_2W
	.loc 3 321 31
	movl	-48(%ebp), %edx
	.loc 3 321 48
	movl	20(%ebp), %eax
	movl	(%eax), %eax
	.loc 3 321 31
	movl	32(%eax), %eax
	movl	%edx, 4(%esp)
	movl	%eax, (%esp)
	call	_CheckBlockLight
	movl	%eax, -12(%ebp)
	.loc 3 321 20
	cmpl	$0, -12(%ebp)
	je	L59
	.loc 3 322 28
	movl	-12(%ebp), %eax
	jmp	L53
L59:
LBE9:
	.loc 3 324 13 discriminator 2
	movl	20(%ebp), %eax
	movl	(%eax), %eax
	movl	%eax, (%esp)
	call	_CommitNumber
L52:
LBE7:
	.loc 3 342 12
	movl	$0, %eax
L53:
	.loc 3 343 1 discriminator 4
	addl	$96, %esp
	popl	%ebx
	.cfi_restore 3
	popl	%esi
	.cfi_restore 6
	popl	%ebp
	.cfi_restore 5
	.cfi_def_cfa 4, 4
	ret
	.cfi_endproc
LFE4250:
	.globl	_PMC_BitwiseOr_L_X@16
	.def	_PMC_BitwiseOr_L_X@16;	.scl	2;	.type	32;	.endef
_PMC_BitwiseOr_L_X@16:
LFB4251:
	.loc 3 346 1
	.cfi_startproc
	pushl	%ebp
	.cfi_def_cfa_offset 8
	.cfi_offset 5, -8
	movl	%esp, %ebp
	.cfi_def_cfa_register 5
	subl	$56, %esp
	movl	8(%ebp), %eax
	movl	%eax, -32(%ebp)
	movl	12(%ebp), %eax
	movl	%eax, -28(%ebp)
	.loc 3 352 8
	cmpl	$0, 16(%ebp)
	jne	L65
	.loc 3 353 16
	movl	$-1, %eax
	jmp	L66
L65:
	.loc 3 354 8
	cmpl	$0, 20(%ebp)
	jne	L67
	.loc 3 355 16
	movl	$-1, %eax
	jmp	L66
L67:
	.loc 3 357 19
	movl	16(%ebp), %eax
	movl	%eax, (%esp)
	call	_CheckNumber
	movl	%eax, -12(%ebp)
	.loc 3 357 8
	cmpl	$0, -12(%ebp)
	je	L68
	.loc 3 358 16
	movl	-12(%ebp), %eax
	jmp	L66
L68:
	.loc 3 359 19
	movl	20(%ebp), %eax
	movl	%eax, 12(%esp)
	movl	-32(%ebp), %eax
	movl	-28(%ebp), %edx
	movl	%eax, 4(%esp)
	movl	%edx, 8(%esp)
	movl	16(%ebp), %eax
	movl	%eax, (%esp)
	call	_PMC_BitwiseOr_X_L_Imp
	movl	%eax, -12(%ebp)
	.loc 3 359 8
	cmpl	$0, -12(%ebp)
	je	L69
	.loc 3 360 16
	movl	-12(%ebp), %eax
	jmp	L66
L69:
	.loc 3 362 19
	movl	20(%ebp), %eax
	movl	(%eax), %eax
	movl	%eax, (%esp)
	call	_CheckNumber
	movl	%eax, -12(%ebp)
	.loc 3 362 8
	cmpl	$0, -12(%ebp)
	je	L70
	.loc 3 363 16
	movl	-12(%ebp), %eax
	jmp	L66
L70:
	.loc 3 365 12
	movl	$0, %eax
L66:
	.loc 3 366 1
	leave
	.cfi_restore 5
	.cfi_def_cfa 4, 4
	ret	$16
	.cfi_endproc
LFE4251:
	.globl	_PMC_BitwiseOr_X_L@16
	.def	_PMC_BitwiseOr_X_L@16;	.scl	2;	.type	32;	.endef
_PMC_BitwiseOr_X_L@16:
LFB4252:
	.loc 3 369 1
	.cfi_startproc
	pushl	%ebp
	.cfi_def_cfa_offset 8
	.cfi_offset 5, -8
	movl	%esp, %ebp
	.cfi_def_cfa_register 5
	subl	$56, %esp
	movl	12(%ebp), %eax
	movl	%eax, -32(%ebp)
	movl	16(%ebp), %eax
	movl	%eax, -28(%ebp)
	.loc 3 375 8
	cmpl	$0, 8(%ebp)
	jne	L72
	.loc 3 376 16
	movl	$-1, %eax
	jmp	L73
L72:
	.loc 3 377 8
	cmpl	$0, 20(%ebp)
	jne	L74
	.loc 3 378 16
	movl	$-1, %eax
	jmp	L73
L74:
	.loc 3 380 19
	movl	8(%ebp), %eax
	movl	%eax, (%esp)
	call	_CheckNumber
	movl	%eax, -12(%ebp)
	.loc 3 380 8
	cmpl	$0, -12(%ebp)
	je	L75
	.loc 3 381 16
	movl	-12(%ebp), %eax
	jmp	L73
L75:
	.loc 3 382 19
	movl	20(%ebp), %eax
	movl	%eax, 12(%esp)
	movl	-32(%ebp), %eax
	movl	-28(%ebp), %edx
	movl	%eax, 4(%esp)
	movl	%edx, 8(%esp)
	movl	8(%ebp), %eax
	movl	%eax, (%esp)
	call	_PMC_BitwiseOr_X_L_Imp
	movl	%eax, -12(%ebp)
	.loc 3 382 8
	cmpl	$0, -12(%ebp)
	je	L76
	.loc 3 383 16
	movl	-12(%ebp), %eax
	jmp	L73
L76:
	.loc 3 385 19
	movl	20(%ebp), %eax
	movl	(%eax), %eax
	movl	%eax, (%esp)
	call	_CheckNumber
	movl	%eax, -12(%ebp)
	.loc 3 385 8
	cmpl	$0, -12(%ebp)
	je	L77
	.loc 3 386 16
	movl	-12(%ebp), %eax
	jmp	L73
L77:
	.loc 3 388 12
	movl	$0, %eax
L73:
	.loc 3 389 1
	leave
	.cfi_restore 5
	.cfi_def_cfa 4, 4
	ret	$16
	.cfi_endproc
LFE4252:
	.globl	_PMC_BitwiseOr_X_X@12
	.def	_PMC_BitwiseOr_X_X@12;	.scl	2;	.type	32;	.endef
_PMC_BitwiseOr_X_X@12:
LFB4253:
	.loc 3 392 1
	.cfi_startproc
	pushl	%ebp
	.cfi_def_cfa_offset 8
	.cfi_offset 5, -8
	movl	%esp, %ebp
	.cfi_def_cfa_register 5
	pushl	%esi
	pushl	%ebx
	subl	$80, %esp
	.cfi_offset 6, -12
	.cfi_offset 3, -16
	.loc 3 393 8
	cmpl	$0, 8(%ebp)
	jne	L79
	.loc 3 394 16
	movl	$-1, %eax
	jmp	L93
L79:
	.loc 3 395 8
	cmpl	$0, 12(%ebp)
	jne	L81
	.loc 3 396 16
	movl	$-1, %eax
	jmp	L93
L81:
	.loc 3 397 8
	cmpl	$0, 16(%ebp)
	jne	L82
	.loc 3 398 16
	movl	$-1, %eax
	jmp	L93
L82:
	.loc 3 399 20
	movl	8(%ebp), %eax
	movl	%eax, -12(%ebp)
	.loc 3 400 20
	movl	12(%ebp), %eax
	movl	%eax, -16(%ebp)
	.loc 3 402 19
	movl	-12(%ebp), %eax
	movl	%eax, (%esp)
	call	_CheckNumber
	movl	%eax, -20(%ebp)
	.loc 3 402 8
	cmpl	$0, -20(%ebp)
	je	L83
	.loc 3 403 16
	movl	-20(%ebp), %eax
	jmp	L93
L83:
	.loc 3 404 19
	movl	-16(%ebp), %eax
	movl	%eax, (%esp)
	call	_CheckNumber
	movl	%eax, -20(%ebp)
	.loc 3 404 8
	cmpl	$0, -20(%ebp)
	je	L84
	.loc 3 405 16
	movl	-20(%ebp), %eax
	jmp	L93
L84:
	.loc 3 407 9
	movl	-12(%ebp), %eax
	movzbl	24(%eax), %eax
	andl	$2, %eax
	.loc 3 407 8
	testb	%al, %al
	je	L85
	.loc 3 409 23
	leal	-40(%ebp), %eax
	movl	%eax, 4(%esp)
	movl	-16(%ebp), %eax
	movl	%eax, (%esp)
	call	_DuplicateNumber
	movl	%eax, -20(%ebp)
	.loc 3 409 12
	cmpl	$0, -20(%ebp)
	je	L86
	.loc 3 410 20
	movl	-20(%ebp), %eax
	jmp	L93
L85:
	.loc 3 412 14
	movl	-16(%ebp), %eax
	movzbl	24(%eax), %eax
	andl	$2, %eax
	.loc 3 412 13
	testb	%al, %al
	je	L87
	.loc 3 414 23
	leal	-40(%ebp), %eax
	movl	%eax, 4(%esp)
	movl	-12(%ebp), %eax
	movl	%eax, (%esp)
	call	_DuplicateNumber
	movl	%eax, -20(%ebp)
	.loc 3 414 12
	cmpl	$0, -20(%ebp)
	je	L86
	.loc 3 415 20
	movl	-20(%ebp), %eax
	jmp	L93
L87:
LBB10:
	.loc 3 419 15
	movl	-12(%ebp), %eax
	movl	8(%eax), %edx
	.loc 3 419 37
	movl	-16(%ebp), %eax
	movl	8(%eax), %eax
	.loc 3 419 12
	cmpl	%eax, %edx
	jnb	L88
LBB11:
	.loc 3 421 28
	movl	-12(%ebp), %eax
	movl	%eax, -24(%ebp)
	.loc 3 422 16
	movl	-16(%ebp), %eax
	movl	%eax, -12(%ebp)
	.loc 3 423 16
	movl	-24(%ebp), %eax
	movl	%eax, -16(%ebp)
L88:
LBE11:
	.loc 3 425 21
	movl	-12(%ebp), %eax
	movl	12(%eax), %eax
	movl	%eax, -28(%ebp)
	.loc 3 426 21
	movl	-16(%ebp), %eax
	movl	12(%eax), %eax
	movl	%eax, -32(%ebp)
	.loc 3 427 35
	movl	-32(%ebp), %eax
	movl	%eax, 4(%esp)
	movl	-28(%ebp), %eax
	movl	%eax, (%esp)
	call	__MAXIMUM_UNIT
	movl	%eax, -36(%ebp)
	.loc 3 429 23
	leal	-44(%ebp), %eax
	movl	%eax, 8(%esp)
	movl	-36(%ebp), %eax
	movl	%eax, 4(%esp)
	leal	-40(%ebp), %eax
	movl	%eax, (%esp)
	call	_AllocateNumber
	movl	%eax, -20(%ebp)
	.loc 3 429 12
	cmpl	$0, -20(%ebp)
	je	L89
	.loc 3 430 20
	movl	-20(%ebp), %eax
	jmp	L93
L89:
	.loc 3 431 89
	movl	-40(%ebp), %eax
	.loc 3 431 9
	movl	32(%eax), %esi
	movl	-16(%ebp), %eax
	movl	8(%eax), %ebx
	movl	-16(%ebp), %eax
	movl	32(%eax), %ecx
	movl	-12(%ebp), %eax
	movl	8(%eax), %edx
	movl	-12(%ebp), %eax
	movl	32(%eax), %eax
	movl	%esi, 16(%esp)
	movl	%ebx, 12(%esp)
	movl	%ecx, 8(%esp)
	movl	%edx, 4(%esp)
	movl	%eax, (%esp)
	call	_BitwiseOr_X_X
	.loc 3 432 23
	movl	-44(%ebp), %edx
	.loc 3 432 41
	movl	-40(%ebp), %eax
	.loc 3 432 23
	movl	32(%eax), %eax
	movl	%edx, 4(%esp)
	movl	%eax, (%esp)
	call	_CheckBlockLight
	movl	%eax, -20(%ebp)
	.loc 3 432 12
	cmpl	$0, -20(%ebp)
	je	L91
	.loc 3 433 20
	movl	-20(%ebp), %eax
	jmp	L93
L91:
	.loc 3 434 9
	movl	-40(%ebp), %eax
	movl	%eax, (%esp)
	call	_CommitNumber
L86:
LBE10:
	.loc 3 436 8
	movl	-40(%ebp), %edx
	movl	16(%ebp), %eax
	movl	%edx, (%eax)
	.loc 3 438 19
	movl	16(%ebp), %eax
	movl	(%eax), %eax
	movl	%eax, (%esp)
	call	_CheckNumber
	movl	%eax, -20(%ebp)
	.loc 3 438 8
	cmpl	$0, -20(%ebp)
	je	L92
	.loc 3 439 16
	movl	-20(%ebp), %eax
	jmp	L93
L92:
	.loc 3 441 12
	movl	$0, %eax
L93:
	.loc 3 442 1 discriminator 1
	addl	$80, %esp
	popl	%ebx
	.cfi_restore 3
	popl	%esi
	.cfi_restore 6
	popl	%ebp
	.cfi_restore 5
	.cfi_def_cfa 4, 4
	ret	$12
	.cfi_endproc
LFE4253:
	.globl	_Initialize_BitwiseOr
	.def	_Initialize_BitwiseOr;	.scl	2;	.type	32;	.endef
_Initialize_BitwiseOr:
LFB4254:
	.loc 3 445 1
	.cfi_startproc
	.loc 3 446 12
	movl	$0, %eax
	.loc 3 447 1
	ret
	.cfi_endproc
LFE4254:
Letext0:
	.file 4 "C:/GNU/MINGW64/i686-8.1.0-win32-dwarf-rt_v6-rev0/mingw32/i686-w64-mingw32/include/crtdefs.h"
	.file 5 "C:/GNU/MINGW64/i686-8.1.0-win32-dwarf-rt_v6-rev0/mingw32/i686-w64-mingw32/include/excpt.h"
	.file 6 "C:/GNU/MINGW64/i686-8.1.0-win32-dwarf-rt_v6-rev0/mingw32/i686-w64-mingw32/include/minwindef.h"
	.file 7 "C:/GNU/MINGW64/i686-8.1.0-win32-dwarf-rt_v6-rev0/mingw32/i686-w64-mingw32/include/ctype.h"
	.file 8 "C:/GNU/MINGW64/i686-8.1.0-win32-dwarf-rt_v6-rev0/mingw32/i686-w64-mingw32/include/guiddef.h"
	.file 9 "C:/GNU/MINGW64/i686-8.1.0-win32-dwarf-rt_v6-rev0/mingw32/i686-w64-mingw32/include/winnt.h"
	.file 10 "C:/GNU/MINGW64/i686-8.1.0-win32-dwarf-rt_v6-rev0/mingw32/i686-w64-mingw32/include/rpcdce.h"
	.file 11 "C:/GNU/MINGW64/i686-8.1.0-win32-dwarf-rt_v6-rev0/mingw32/i686-w64-mingw32/include/stdlib.h"
	.file 12 "C:/GNU/MINGW64/i686-8.1.0-win32-dwarf-rt_v6-rev0/mingw32/i686-w64-mingw32/include/malloc.h"
	.file 13 "C:/GNU/MINGW64/i686-8.1.0-win32-dwarf-rt_v6-rev0/mingw32/i686-w64-mingw32/include/wtypesbase.h"
	.file 14 "C:/GNU/MINGW64/i686-8.1.0-win32-dwarf-rt_v6-rev0/mingw32/i686-w64-mingw32/include/unknwnbase.h"
	.file 15 "C:/GNU/MINGW64/i686-8.1.0-win32-dwarf-rt_v6-rev0/mingw32/i686-w64-mingw32/include/objidlbase.h"
	.file 16 "C:/GNU/MINGW64/i686-8.1.0-win32-dwarf-rt_v6-rev0/mingw32/i686-w64-mingw32/include/cguid.h"
	.file 17 "C:/GNU/MINGW64/i686-8.1.0-win32-dwarf-rt_v6-rev0/mingw32/i686-w64-mingw32/include/wtypes.h"
	.file 18 "C:/GNU/MINGW64/i686-8.1.0-win32-dwarf-rt_v6-rev0/mingw32/i686-w64-mingw32/include/objidl.h"
	.file 19 "C:/GNU/MINGW64/i686-8.1.0-win32-dwarf-rt_v6-rev0/mingw32/i686-w64-mingw32/include/oleidl.h"
	.file 20 "C:/GNU/MINGW64/i686-8.1.0-win32-dwarf-rt_v6-rev0/mingw32/i686-w64-mingw32/include/servprov.h"
	.file 21 "C:/GNU/MINGW64/i686-8.1.0-win32-dwarf-rt_v6-rev0/mingw32/i686-w64-mingw32/include/oaidl.h"
	.file 22 "C:/GNU/MINGW64/i686-8.1.0-win32-dwarf-rt_v6-rev0/mingw32/i686-w64-mingw32/include/msxml.h"
	.file 23 "C:/GNU/MINGW64/i686-8.1.0-win32-dwarf-rt_v6-rev0/mingw32/i686-w64-mingw32/include/urlmon.h"
	.file 24 "C:/GNU/MINGW64/i686-8.1.0-win32-dwarf-rt_v6-rev0/mingw32/i686-w64-mingw32/include/propidl.h"
	.file 25 "C:/GNU/MINGW64/i686-8.1.0-win32-dwarf-rt_v6-rev0/mingw32/i686-w64-mingw32/include/oleauto.h"
	.file 26 "C:/GNU/MINGW64/i686-8.1.0-win32-dwarf-rt_v6-rev0/mingw32/i686-w64-mingw32/include/winioctl.h"
	.file 27 "C:/GNU/MINGW64/i686-8.1.0-win32-dwarf-rt_v6-rev0/mingw32/i686-w64-mingw32/include/winsmcrd.h"
	.file 28 "C:/GNU/MINGW64/i686-8.1.0-win32-dwarf-rt_v6-rev0/mingw32/i686-w64-mingw32/include/winscard.h"
	.file 29 "C:/GNU/MINGW64/i686-8.1.0-win32-dwarf-rt_v6-rev0/mingw32/i686-w64-mingw32/include/commdlg.h"
	.file 30 "C:/GNU/MINGW64/i686-8.1.0-win32-dwarf-rt_v6-rev0/mingw32/i686-w64-mingw32/include/stdint.h"
	.file 31 "../pmc.h"
	.file 32 "../pmc_cpuid.h"
	.file 33 "../pmc_internal.h"
	.file 34 "../pmc_uint_internal.h"