	.file	"pmc_pow.cpp"
	.text
Ltext0:
	.section	.text$_ZNSt9exceptionC2Ev,"x"
	.linkonce discard
	.align 2
	.globl	__ZNSt9exceptionC2Ev
	.def	__ZNSt9exceptionC2Ev;	.scl	2;	.type	32;	.endef
__ZNSt9exceptionC2Ev:
LFB515:
	.file 1 "C:/GNU/MINGW64/i686-8.1.0-win32-dwarf-rt_v6-rev0/mingw32/lib/gcc/i686-w64-mingw32/8.1.0/include/c++/bits/exception.h"
	.loc 1 63 5
	.cfi_startproc
	pushl	%ebp
	.cfi_def_cfa_offset 8
	.cfi_offset 5, -8
	movl	%esp, %ebp
	.cfi_def_cfa_register 5
	subl	$4, %esp
	movl	%ecx, -4(%ebp)
LBB11:
	.loc 1 63 26
	movl	$__ZTVSt9exception+8, %edx
	movl	-4(%ebp), %eax
	movl	%edx, (%eax)
LBE11:
	.loc 1 63 28
	nop
	leave
	.cfi_restore 5
	.cfi_def_cfa 4, 4
	ret
	.cfi_endproc
LFE515:
	.section	.text$_ZN8Palmtree4Math4Core8Internal9ExceptionC2EiPKw,"x"
	.linkonce discard
	.align 2
	.globl	__ZN8Palmtree4Math4Core8Internal9ExceptionC2EiPKw
	.def	__ZN8Palmtree4Math4Core8Internal9ExceptionC2EiPKw;	.scl	2;	.type	32;	.endef
__ZN8Palmtree4Math4Core8Internal9ExceptionC2EiPKw:
LFB584:
	.file 2 "../pmc_exception.h"
	.loc 2 47 9
	.cfi_startproc
	pushl	%ebp
	.cfi_def_cfa_offset 8
	.cfi_offset 5, -8
	movl	%esp, %ebp
	.cfi_def_cfa_register 5
	subl	$24, %esp
	movl	%ecx, -12(%ebp)
LBB12:
	.loc 2 48 9
	movl	-12(%ebp), %eax
	movl	%eax, %ecx
	call	__ZNSt9exceptionC2Ev
	movl	$__ZTVN8Palmtree4Math4Core8Internal9ExceptionE+8, %edx
	movl	-12(%ebp), %eax
	movl	%edx, (%eax)
	.loc 2 49 19
	movl	-12(%ebp), %eax
	movl	8(%ebp), %edx
	movl	%edx, 4(%eax)
	.loc 2 50 22
	movl	-12(%ebp), %eax
	movl	12(%ebp), %edx
	movl	%edx, 8(%eax)
	.loc 2 51 19
	movl	-12(%ebp), %eax
	movl	$0, 12(%eax)
LBE12:
	.loc 2 52 9
	nop
	leave
	.cfi_restore 5
	.cfi_def_cfa 4, 4
	ret	$8
	.cfi_endproc
LFE584:
	.section	.text$_ZN8Palmtree4Math4Core8Internal9ExceptionC2EiPKwS5_,"x"
	.linkonce discard
	.align 2
	.globl	__ZN8Palmtree4Math4Core8Internal9ExceptionC2EiPKwS5_
	.def	__ZN8Palmtree4Math4Core8Internal9ExceptionC2EiPKwS5_;	.scl	2;	.type	32;	.endef
__ZN8Palmtree4Math4Core8Internal9ExceptionC2EiPKwS5_:
LFB587:
	.loc 2 54 9
	.cfi_startproc
	pushl	%ebp
	.cfi_def_cfa_offset 8
	.cfi_offset 5, -8
	movl	%esp, %ebp
	.cfi_def_cfa_register 5
	subl	$24, %esp
	movl	%ecx, -12(%ebp)
LBB13:
	.loc 2 55 9
	movl	-12(%ebp), %eax
	movl	%eax, %ecx
	call	__ZNSt9exceptionC2Ev
	movl	$__ZTVN8Palmtree4Math4Core8Internal9ExceptionE+8, %edx
	movl	-12(%ebp), %eax
	movl	%edx, (%eax)
	.loc 2 56 19
	movl	-12(%ebp), %eax
	movl	8(%ebp), %edx
	movl	%edx, 4(%eax)
	.loc 2 57 22
	movl	-12(%ebp), %eax
	movl	12(%ebp), %edx
	movl	%edx, 8(%eax)
	.loc 2 58 19
	movl	-12(%ebp), %eax
	movl	16(%ebp), %edx
	movl	%edx, 12(%eax)
LBE13:
	.loc 2 59 9
	nop
	leave
	.cfi_restore 5
	.cfi_def_cfa 4, 4
	ret	$12
	.cfi_endproc
LFE587:
	.section	.text$_ZN8Palmtree4Math4Core8Internal9ExceptionD2Ev,"x"
	.linkonce discard
	.align 2
	.globl	__ZN8Palmtree4Math4Core8Internal9ExceptionD2Ev
	.def	__ZN8Palmtree4Math4Core8Internal9ExceptionD2Ev;	.scl	2;	.type	32;	.endef
__ZN8Palmtree4Math4Core8Internal9ExceptionD2Ev:
LFB593:
	.loc 2 69 17
	.cfi_startproc
	pushl	%ebp
	.cfi_def_cfa_offset 8
	.cfi_offset 5, -8
	movl	%esp, %ebp
	.cfi_def_cfa_register 5
	subl	$24, %esp
	movl	%ecx, -12(%ebp)
LBB14:
	.loc 2 70 9
	movl	$__ZTVN8Palmtree4Math4Core8Internal9ExceptionE+8, %edx
	movl	-12(%ebp), %eax
	movl	%edx, (%eax)
	movl	-12(%ebp), %eax
	movl	%eax, %ecx
	call	__ZNSt9exceptionD2Ev
LBE14:
	.loc 2 71 9
	nop
	leave
	.cfi_restore 5
	.cfi_def_cfa 4, 4
	ret
	.cfi_endproc
LFE593:
	.section	.text$_ZN8Palmtree4Math4Core8Internal9ExceptionD1Ev,"x"
	.linkonce discard
	.align 2
	.globl	__ZN8Palmtree4Math4Core8Internal9ExceptionD1Ev
	.def	__ZN8Palmtree4Math4Core8Internal9ExceptionD1Ev;	.scl	2;	.type	32;	.endef
__ZN8Palmtree4Math4Core8Internal9ExceptionD1Ev:
LFB594:
	.loc 2 69 17
	.cfi_startproc
	pushl	%ebp
	.cfi_def_cfa_offset 8
	.cfi_offset 5, -8
	movl	%esp, %ebp
	.cfi_def_cfa_register 5
	subl	$24, %esp
	movl	%ecx, -12(%ebp)
LBB15:
	.loc 2 70 9
	movl	$__ZTVN8Palmtree4Math4Core8Internal9ExceptionE+8, %edx
	movl	-12(%ebp), %eax
	movl	%edx, (%eax)
	movl	-12(%ebp), %eax
	movl	%eax, %ecx
	call	__ZNSt9exceptionD2Ev
LBE15:
	.loc 2 71 9
	nop
	leave
	.cfi_restore 5
	.cfi_def_cfa 4, 4
	ret
	.cfi_endproc
LFE594:
	.section	.text$_ZN8Palmtree4Math4Core8Internal9ExceptionD0Ev,"x"
	.linkonce discard
	.align 2
	.globl	__ZN8Palmtree4Math4Core8Internal9ExceptionD0Ev
	.def	__ZN8Palmtree4Math4Core8Internal9ExceptionD0Ev;	.scl	2;	.type	32;	.endef
__ZN8Palmtree4Math4Core8Internal9ExceptionD0Ev:
LFB595:
	.loc 2 69 17
	.cfi_startproc
	pushl	%ebp
	.cfi_def_cfa_offset 8
	.cfi_offset 5, -8
	movl	%esp, %ebp
	.cfi_def_cfa_register 5
	subl	$40, %esp
	movl	%ecx, -12(%ebp)
	.loc 2 71 9
	movl	-12(%ebp), %eax
	movl	%eax, %ecx
	call	__ZN8Palmtree4Math4Core8Internal9ExceptionD1Ev
	movl	$16, 4(%esp)
	movl	-12(%ebp), %eax
	movl	%eax, (%esp)
	call	__ZdlPvj
	leave
	.cfi_restore 5
	.cfi_def_cfa 4, 4
	ret
	.cfi_endproc
LFE595:
	.section	.text$_ZN8Palmtree4Math4Core8Internal21ArgumentNullExceptionC1EPKwS5_,"x"
	.linkonce discard
	.align 2
	.globl	__ZN8Palmtree4Math4Core8Internal21ArgumentNullExceptionC1EPKwS5_
	.def	__ZN8Palmtree4Math4Core8Internal21ArgumentNullExceptionC1EPKwS5_;	.scl	2;	.type	32;	.endef
__ZN8Palmtree4Math4Core8Internal21ArgumentNullExceptionC1EPKwS5_:
LFB611:
	.loc 2 113 9
	.cfi_startproc
	pushl	%ebp
	.cfi_def_cfa_offset 8
	.cfi_offset 5, -8
	movl	%esp, %ebp
	.cfi_def_cfa_register 5
	subl	$40, %esp
	movl	%ecx, -12(%ebp)
LBB16:
	.loc 2 114 50
	movl	-12(%ebp), %eax
	movl	12(%ebp), %edx
	movl	%edx, 8(%esp)
	movl	8(%ebp), %edx
	movl	%edx, 4(%esp)
	movl	$-2, (%esp)
	movl	%eax, %ecx
	call	__ZN8Palmtree4Math4Core8Internal9ExceptionC2EiPKwS5_
	subl	$12, %esp
	movl	$__ZTVN8Palmtree4Math4Core8Internal21ArgumentNullExceptionE+8, %edx
	movl	-12(%ebp), %eax
	movl	%edx, (%eax)
LBE16:
	.loc 2 116 9
	nop
	leave
	.cfi_restore 5
	.cfi_def_cfa 4, 4
	ret	$8
	.cfi_endproc
LFE611:
	.section	.text$_ZN8Palmtree4Math4Core8Internal21ArgumentNullExceptionD1Ev,"x"
	.linkonce discard
	.align 2
	.globl	__ZN8Palmtree4Math4Core8Internal21ArgumentNullExceptionD1Ev
	.def	__ZN8Palmtree4Math4Core8Internal21ArgumentNullExceptionD1Ev;	.scl	2;	.type	32;	.endef
__ZN8Palmtree4Math4Core8Internal21ArgumentNullExceptionD1Ev:
LFB617:
	.loc 2 123 17
	.cfi_startproc
	pushl	%ebp
	.cfi_def_cfa_offset 8
	.cfi_offset 5, -8
	movl	%esp, %ebp
	.cfi_def_cfa_register 5
	subl	$24, %esp
	movl	%ecx, -12(%ebp)
LBB17:
	.loc 2 124 9
	movl	$__ZTVN8Palmtree4Math4Core8Internal21ArgumentNullExceptionE+8, %edx
	movl	-12(%ebp), %eax
	movl	%edx, (%eax)
	movl	-12(%ebp), %eax
	movl	%eax, %ecx
	call	__ZN8Palmtree4Math4Core8Internal9ExceptionD2Ev
LBE17:
	.loc 2 125 9
	nop
	leave
	.cfi_restore 5
	.cfi_def_cfa 4, 4
	ret
	.cfi_endproc
LFE617:
	.section	.text$_ZN8Palmtree4Math4Core8Internal21ArgumentNullExceptionD0Ev,"x"
	.linkonce discard
	.align 2
	.globl	__ZN8Palmtree4Math4Core8Internal21ArgumentNullExceptionD0Ev
	.def	__ZN8Palmtree4Math4Core8Internal21ArgumentNullExceptionD0Ev;	.scl	2;	.type	32;	.endef
__ZN8Palmtree4Math4Core8Internal21ArgumentNullExceptionD0Ev:
LFB618:
	.loc 2 123 17
	.cfi_startproc
	pushl	%ebp
	.cfi_def_cfa_offset 8
	.cfi_offset 5, -8
	movl	%esp, %ebp
	.cfi_def_cfa_register 5
	subl	$40, %esp
	movl	%ecx, -12(%ebp)
	.loc 2 125 9
	movl	-12(%ebp), %eax
	movl	%eax, %ecx
	call	__ZN8Palmtree4Math4Core8Internal21ArgumentNullExceptionD1Ev
	movl	$16, 4(%esp)
	movl	-12(%ebp), %eax
	movl	%eax, (%esp)
	call	__ZdlPvj
	leave
	.cfi_restore 5
	.cfi_def_cfa 4, 4
	ret
	.cfi_endproc
LFE618:
	.section	.text$_ZN8Palmtree4Math4Core8Internal17OverflowExceptionC1EPKw,"x"
	.linkonce discard
	.align 2
	.globl	__ZN8Palmtree4Math4Core8Internal17OverflowExceptionC1EPKw
	.def	__ZN8Palmtree4Math4Core8Internal17OverflowExceptionC1EPKw;	.scl	2;	.type	32;	.endef
__ZN8Palmtree4Math4Core8Internal17OverflowExceptionC1EPKw:
LFB631:
	.loc 2 151 9
	.cfi_startproc
	pushl	%ebp
	.cfi_def_cfa_offset 8
	.cfi_offset 5, -8
	movl	%esp, %ebp
	.cfi_def_cfa_register 5
	subl	$40, %esp
	movl	%ecx, -12(%ebp)
LBB18:
	.loc 2 152 38
	movl	-12(%ebp), %eax
	movl	8(%ebp), %edx
	movl	%edx, 4(%esp)
	movl	$-4, (%esp)
	movl	%eax, %ecx
	call	__ZN8Palmtree4Math4Core8Internal9ExceptionC2EiPKw
	subl	$8, %esp
	movl	$__ZTVN8Palmtree4Math4Core8Internal17OverflowExceptionE+8, %edx
	movl	-12(%ebp), %eax
	movl	%edx, (%eax)
LBE18:
	.loc 2 154 9
	nop
	leave
	.cfi_restore 5
	.cfi_def_cfa 4, 4
	ret	$4
	.cfi_endproc
LFE631:
	.section	.text$_ZN8Palmtree4Math4Core8Internal17OverflowExceptionD1Ev,"x"
	.linkonce discard
	.align 2
	.globl	__ZN8Palmtree4Math4Core8Internal17OverflowExceptionD1Ev
	.def	__ZN8Palmtree4Math4Core8Internal17OverflowExceptionD1Ev;	.scl	2;	.type	32;	.endef
__ZN8Palmtree4Math4Core8Internal17OverflowExceptionD1Ev:
LFB637:
	.loc 2 161 17
	.cfi_startproc
	pushl	%ebp
	.cfi_def_cfa_offset 8
	.cfi_offset 5, -8
	movl	%esp, %ebp
	.cfi_def_cfa_register 5
	subl	$24, %esp
	movl	%ecx, -12(%ebp)
LBB19:
	.loc 2 162 9
	movl	$__ZTVN8Palmtree4Math4Core8Internal17OverflowExceptionE+8, %edx
	movl	-12(%ebp), %eax
	movl	%edx, (%eax)
	movl	-12(%ebp), %eax
	movl	%eax, %ecx
	call	__ZN8Palmtree4Math4Core8Internal9ExceptionD2Ev
LBE19:
	.loc 2 163 9
	nop
	leave
	.cfi_restore 5
	.cfi_def_cfa 4, 4
	ret
	.cfi_endproc
LFE637:
	.section	.text$_ZN8Palmtree4Math4Core8Internal17OverflowExceptionD0Ev,"x"
	.linkonce discard
	.align 2
	.globl	__ZN8Palmtree4Math4Core8Internal17OverflowExceptionD0Ev
	.def	__ZN8Palmtree4Math4Core8Internal17OverflowExceptionD0Ev;	.scl	2;	.type	32;	.endef
__ZN8Palmtree4Math4Core8Internal17OverflowExceptionD0Ev:
LFB638:
	.loc 2 161 17
	.cfi_startproc
	pushl	%ebp
	.cfi_def_cfa_offset 8
	.cfi_offset 5, -8
	movl	%esp, %ebp
	.cfi_def_cfa_register 5
	subl	$40, %esp
	movl	%ecx, -12(%ebp)
	.loc 2 163 9
	movl	-12(%ebp), %eax
	movl	%eax, %ecx
	call	__ZN8Palmtree4Math4Core8Internal17OverflowExceptionD1Ev
	movl	$16, 4(%esp)
	movl	-12(%ebp), %eax
	movl	%eax, (%esp)
	call	__ZdlPvj
	leave
	.cfi_restore 5
	.cfi_def_cfa 4, 4
	ret
	.cfi_endproc
LFE638:
	.section	.text$_ZN8Palmtree4Math4Core8Internal19ArithmeticExceptionC1EPKw,"x"
	.linkonce discard
	.align 2
	.globl	__ZN8Palmtree4Math4Core8Internal19ArithmeticExceptionC1EPKw
	.def	__ZN8Palmtree4Math4Core8Internal19ArithmeticExceptionC1EPKw;	.scl	2;	.type	32;	.endef
__ZN8Palmtree4Math4Core8Internal19ArithmeticExceptionC1EPKw:
LFB651:
	.loc 2 189 9
	.cfi_startproc
	pushl	%ebp
	.cfi_def_cfa_offset 8
	.cfi_offset 5, -8
	movl	%esp, %ebp
	.cfi_def_cfa_register 5
	subl	$40, %esp
	movl	%ecx, -12(%ebp)
LBB20:
	.loc 2 190 38
	movl	-12(%ebp), %eax
	movl	8(%ebp), %edx
	movl	%edx, 4(%esp)
	movl	$-6, (%esp)
	movl	%eax, %ecx
	call	__ZN8Palmtree4Math4Core8Internal9ExceptionC2EiPKw
	subl	$8, %esp
	movl	$__ZTVN8Palmtree4Math4Core8Internal19ArithmeticExceptionE+8, %edx
	movl	-12(%ebp), %eax
	movl	%edx, (%eax)
LBE20:
	.loc 2 192 9
	nop
	leave
	.cfi_restore 5
	.cfi_def_cfa 4, 4
	ret	$4
	.cfi_endproc
LFE651:
	.section	.text$_ZN8Palmtree4Math4Core8Internal19ArithmeticExceptionD1Ev,"x"
	.linkonce discard
	.align 2
	.globl	__ZN8Palmtree4Math4Core8Internal19ArithmeticExceptionD1Ev
	.def	__ZN8Palmtree4Math4Core8Internal19ArithmeticExceptionD1Ev;	.scl	2;	.type	32;	.endef
__ZN8Palmtree4Math4Core8Internal19ArithmeticExceptionD1Ev:
LFB657:
	.loc 2 199 17
	.cfi_startproc
	pushl	%ebp
	.cfi_def_cfa_offset 8
	.cfi_offset 5, -8
	movl	%esp, %ebp
	.cfi_def_cfa_register 5
	subl	$24, %esp
	movl	%ecx, -12(%ebp)
LBB21:
	.loc 2 200 9
	movl	$__ZTVN8Palmtree4Math4Core8Internal19ArithmeticExceptionE+8, %edx
	movl	-12(%ebp), %eax
	movl	%edx, (%eax)
	movl	-12(%ebp), %eax
	movl	%eax, %ecx
	call	__ZN8Palmtree4Math4Core8Internal9ExceptionD2Ev
LBE21:
	.loc 2 201 9
	nop
	leave
	.cfi_restore 5
	.cfi_def_cfa 4, 4
	ret
	.cfi_endproc
LFE657:
	.section	.text$_ZN8Palmtree4Math4Core8Internal19ArithmeticExceptionD0Ev,"x"
	.linkonce discard
	.align 2
	.globl	__ZN8Palmtree4Math4Core8Internal19ArithmeticExceptionD0Ev
	.def	__ZN8Palmtree4Math4Core8Internal19ArithmeticExceptionD0Ev;	.scl	2;	.type	32;	.endef
__ZN8Palmtree4Math4Core8Internal19ArithmeticExceptionD0Ev:
LFB658:
	.loc 2 199 17
	.cfi_startproc
	pushl	%ebp
	.cfi_def_cfa_offset 8
	.cfi_offset 5, -8
	movl	%esp, %ebp
	.cfi_def_cfa_register 5
	subl	$40, %esp
	movl	%ecx, -12(%ebp)
	.loc 2 201 9
	movl	-12(%ebp), %eax
	movl	%eax, %ecx
	call	__ZN8Palmtree4Math4Core8Internal19ArithmeticExceptionD1Ev
	movl	$16, 4(%esp)
	movl	-12(%ebp), %eax
	movl	%eax, (%esp)
	call	__ZdlPvj
	leave
	.cfi_restore 5
	.cfi_def_cfa 4, 4
	ret
	.cfi_endproc
LFE658:
	.section	.text$_ZN8Palmtree4Math4Core8Internal21NotSupportedExceptionC1EPKw,"x"
	.linkonce discard
	.align 2
	.globl	__ZN8Palmtree4Math4Core8Internal21NotSupportedExceptionC1EPKw
	.def	__ZN8Palmtree4Math4Core8Internal21NotSupportedExceptionC1EPKw;	.scl	2;	.type	32;	.endef
__ZN8Palmtree4Math4Core8Internal21NotSupportedExceptionC1EPKw:
LFB691:
	.loc 2 265 9
	.cfi_startproc
	pushl	%ebp
	.cfi_def_cfa_offset 8
	.cfi_offset 5, -8
	movl	%esp, %ebp
	.cfi_def_cfa_register 5
	subl	$40, %esp
	movl	%ecx, -12(%ebp)
LBB22:
	.loc 2 266 39
	movl	-12(%ebp), %eax
	movl	8(%ebp), %edx
	movl	%edx, 4(%esp)
	movl	$-10, (%esp)
	movl	%eax, %ecx
	call	__ZN8Palmtree4Math4Core8Internal9ExceptionC2EiPKw
	subl	$8, %esp
	movl	$__ZTVN8Palmtree4Math4Core8Internal21NotSupportedExceptionE+8, %edx
	movl	-12(%ebp), %eax
	movl	%edx, (%eax)
LBE22:
	.loc 2 268 9
	nop
	leave
	.cfi_restore 5
	.cfi_def_cfa 4, 4
	ret	$4
	.cfi_endproc
LFE691:
	.section	.text$_ZN8Palmtree4Math4Core8Internal21NotSupportedExceptionD1Ev,"x"
	.linkonce discard
	.align 2
	.globl	__ZN8Palmtree4Math4Core8Internal21NotSupportedExceptionD1Ev
	.def	__ZN8Palmtree4Math4Core8Internal21NotSupportedExceptionD1Ev;	.scl	2;	.type	32;	.endef
__ZN8Palmtree4Math4Core8Internal21NotSupportedExceptionD1Ev:
LFB697:
	.loc 2 275 17
	.cfi_startproc
	pushl	%ebp
	.cfi_def_cfa_offset 8
	.cfi_offset 5, -8
	movl	%esp, %ebp
	.cfi_def_cfa_register 5
	subl	$24, %esp
	movl	%ecx, -12(%ebp)
LBB23:
	.loc 2 276 9
	movl	$__ZTVN8Palmtree4Math4Core8Internal21NotSupportedExceptionE+8, %edx
	movl	-12(%ebp), %eax
	movl	%edx, (%eax)
	movl	-12(%ebp), %eax
	movl	%eax, %ecx
	call	__ZN8Palmtree4Math4Core8Internal9ExceptionD2Ev
LBE23:
	.loc 2 277 9
	nop
	leave
	.cfi_restore 5
	.cfi_def_cfa 4, 4
	ret
	.cfi_endproc
LFE697:
	.section	.text$_ZN8Palmtree4Math4Core8Internal21NotSupportedExceptionD0Ev,"x"
	.linkonce discard
	.align 2
	.globl	__ZN8Palmtree4Math4Core8Internal21NotSupportedExceptionD0Ev
	.def	__ZN8Palmtree4Math4Core8Internal21NotSupportedExceptionD0Ev;	.scl	2;	.type	32;	.endef
__ZN8Palmtree4Math4Core8Internal21NotSupportedExceptionD0Ev:
LFB698:
	.loc 2 275 17
	.cfi_startproc
	pushl	%ebp
	.cfi_def_cfa_offset 8
	.cfi_offset 5, -8
	movl	%esp, %ebp
	.cfi_def_cfa_register 5
	subl	$40, %esp
	movl	%ecx, -12(%ebp)
	.loc 2 277 9
	movl	-12(%ebp), %eax
	movl	%eax, %ecx
	call	__ZN8Palmtree4Math4Core8Internal21NotSupportedExceptionD1Ev
	movl	$16, 4(%esp)
	movl	-12(%ebp), %eax
	movl	%eax, (%esp)
	call	__ZdlPvj
	leave
	.cfi_restore 5
	.cfi_def_cfa 4, 4
	ret
	.cfi_endproc
LFE698:
	.text
	.def	__COPY_MEMORY_UNIT;	.scl	3;	.type	32;	.endef
__COPY_MEMORY_UNIT:
LFB4881:
	.file 3 "../pmc_inline_func.h"
	.loc 3 63 9
	.cfi_startproc
	pushl	%ebp
	.cfi_def_cfa_offset 8
	.cfi_offset 5, -8
	movl	%esp, %ebp
	.cfi_def_cfa_register 5
	pushl	%edi
	pushl	%esi
	pushl	%ebx
	subl	$16, %esp
	.cfi_offset 7, -12
	.cfi_offset 6, -16
	.cfi_offset 3, -20
	movl	8(%ebp), %eax
	movl	%eax, -16(%ebp)
	movl	12(%ebp), %eax
	movl	%eax, -20(%ebp)
	movl	16(%ebp), %eax
	movl	%eax, -24(%ebp)
LBB24:
LBB25:
	.file 4 "C:/GNU/MINGW64/i686-8.1.0-win32-dwarf-rt_v6-rev0/mingw32/i686-w64-mingw32/include/psdk_inc/intrin-impl.h"
	.loc 4 1773 233
	movl	-16(%ebp), %ecx
	movl	-20(%ebp), %edx
	movl	-24(%ebp), %eax
	movl	%ecx, %ebx
	movl	%ebx, %edi
	movl	%edx, %esi
	movl	%eax, %ecx
/APP
 # 1773 "C:/GNU/MINGW64/i686-8.1.0-win32-dwarf-rt_v6-rev0/mingw32/i686-w64-mingw32/include/psdk_inc/intrin-impl.h" 1
	rep movsd
 # 0 "" 2
/NO_APP
	movl	%ecx, %eax
	movl	%esi, %edx
	movl	%edi, %ebx
	movl	%ebx, -16(%ebp)
	movl	%edx, -20(%ebp)
	movl	%eax, -24(%ebp)
LBE25:
LBE24:
	.loc 3 71 9
	nop
	addl	$16, %esp
	popl	%ebx
	.cfi_restore 3
	popl	%esi
	.cfi_restore 6
	popl	%edi
	.cfi_restore 7
	popl	%ebp
	.cfi_restore 5
	.cfi_def_cfa 4, 4
	ret
	.cfi_endproc
LFE4881:
	.def	__ZERO_MEMORY_UNIT;	.scl	3;	.type	32;	.endef
__ZERO_MEMORY_UNIT:
LFB4885:
	.loc 3 96 9
	.cfi_startproc
	pushl	%ebp
	.cfi_def_cfa_offset 8
	.cfi_offset 5, -8
	movl	%esp, %ebp
	.cfi_def_cfa_register 5
	pushl	%edi
	pushl	%ebx
	subl	$16, %esp
	.cfi_offset 7, -12
	.cfi_offset 3, -16
	movl	8(%ebp), %eax
	movl	%eax, -12(%ebp)
	movl	$0, -16(%ebp)
	movl	12(%ebp), %eax
	movl	%eax, -20(%ebp)
LBB26:
LBB27:
	.loc 4 1463 174
	movl	-16(%ebp), %eax
	movl	-12(%ebp), %ecx
	movl	-20(%ebp), %edx
	movl	%ecx, %ebx
	movl	%ebx, %edi
	movl	%edx, %ecx
/APP
 # 1463 "C:/GNU/MINGW64/i686-8.1.0-win32-dwarf-rt_v6-rev0/mingw32/i686-w64-mingw32/include/psdk_inc/intrin-impl.h" 1
	rep stosl
 # 0 "" 2
/NO_APP
	movl	%ecx, %edx
	movl	%edi, %ebx
	movl	%ebx, -12(%ebp)
	movl	%edx, -20(%ebp)
LBE27:
LBE26:
	.loc 3 104 9
	nop
	addl	$16, %esp
	popl	%ebx
	.cfi_restore 3
	popl	%edi
	.cfi_restore 7
	popl	%ebp
	.cfi_restore 5
	.cfi_def_cfa 4, 4
	ret
	.cfi_endproc
LFE4885:
	.def	__LZCNT_ALT_32;	.scl	3;	.type	32;	.endef
__LZCNT_ALT_32:
LFB4912:
	.loc 3 421 9
	.cfi_startproc
	pushl	%ebp
	.cfi_def_cfa_offset 8
	.cfi_offset 5, -8
	movl	%esp, %ebp
	.cfi_def_cfa_register 5
	subl	$16, %esp
	.loc 3 422 13
	cmpl	$0, 8(%ebp)
	jne	L22
	.loc 3 423 38
	movl	$32, %eax
	jmp	L23
L22:
	.loc 3 428 57
/APP
 # 428 "../pmc_inline_func.h" 1
	bsrl 8(%ebp), %eax
 # 0 "" 2
/NO_APP
	movl	%eax, -4(%ebp)
	.loc 3 432 39
	movl	$31, %eax
	subl	-4(%ebp), %eax
L23:
	.loc 3 433 9
	leave
	.cfi_restore 5
	.cfi_def_cfa 4, 4
	ret
	.cfi_endproc
LFE4912:
	.def	__ZN8Palmtree4Math4Core8InternalL11Pow_X_I_ImpEPjjjS3_S3_S3_;	.scl	3;	.type	32;	.endef
__ZN8Palmtree4Math4Core8InternalL11Pow_X_I_ImpEPjjjS3_S3_S3_:
LFB4921:
	.file 5 "../pmc_pow.cpp"
	.loc 5 37 5
	.cfi_startproc
	pushl	%ebp
	.cfi_def_cfa_offset 8
	.cfi_offset 5, -8
	movl	%esp, %ebp
	.cfi_def_cfa_register 5
	subl	$88, %esp
	.loc 5 38 40
	movl	16(%ebp), %eax
	movl	%eax, (%esp)
	call	__LZCNT_ALT_32
	.loc 5 38 33
	addl	$1, %eax
	movl	$1, -40(%ebp)
	movl	%eax, -44(%ebp)
LBB28:
LBB29:
	.file 6 "C:/GNU/MINGW64/i686-8.1.0-win32-dwarf-rt_v6-rev0/mingw32/lib/gcc/i686-w64-mingw32/8.1.0/include/ia32intrin.h"
	.loc 6 175 7
	andl	$31, -44(%ebp)
	.loc 6 176 44
	movl	-44(%ebp), %eax
	movl	-40(%ebp), %edx
	movl	%eax, %ecx
	rorl	%cl, %edx
	movl	%edx, %eax
LBE29:
LBE28:
	.loc 5 38 33
	movl	%eax, -12(%ebp)
	.loc 5 42 22
	movl	20(%ebp), %eax
	movl	%eax, -16(%ebp)
	.loc 5 43 22
	movl	8(%ebp), %eax
	movl	%eax, -28(%ebp)
	.loc 5 44 22
	movl	24(%ebp), %eax
	movl	%eax, -20(%ebp)
	.loc 5 45 21
	movl	12(%ebp), %eax
	movl	%eax, -24(%ebp)
	.loc 5 46 21
	movl	12(%ebp), %eax
	movl	%eax, -32(%ebp)
	.loc 5 47 26
	movl	12(%ebp), %eax
	movl	%eax, 8(%esp)
	movl	8(%ebp), %eax
	movl	%eax, 4(%esp)
	movl	20(%ebp), %eax
	movl	%eax, (%esp)
	call	__COPY_MEMORY_UNIT
	.loc 5 48 16
	shrl	-12(%ebp)
L30:
	.loc 5 49 23
	cmpl	$0, -12(%ebp)
	je	L26
LBB30:
	.loc 5 52 30
	movl	-24(%ebp), %eax
	addl	%eax, %eax
	movl	%eax, 4(%esp)
	movl	-20(%ebp), %eax
	movl	%eax, (%esp)
	call	__ZERO_MEMORY_UNIT
	.loc 5 53 29
	movl	-20(%ebp), %eax
	movl	%eax, 16(%esp)
	movl	-24(%ebp), %eax
	movl	%eax, 12(%esp)
	movl	-16(%ebp), %eax
	movl	%eax, 8(%esp)
	movl	-24(%ebp), %eax
	movl	%eax, 4(%esp)
	movl	-16(%ebp), %eax
	movl	%eax, (%esp)
	call	__ZN8Palmtree4Math4Core8Internal16Multiply_X_X_ImpEPjjS3_jS3_
	.loc 5 54 21
	sall	-24(%ebp)
	.loc 5 55 34
	movl	-24(%ebp), %eax
	addl	$1073741823, %eax
	leal	0(,%eax,4), %edx
	movl	-20(%ebp), %eax
	addl	%edx, %eax
	movl	(%eax), %eax
	.loc 5 55 13
	testl	%eax, %eax
	jne	L27
	.loc 5 56 17
	subl	$1, -24(%ebp)
L27:
LBB31:
	.loc 5 59 19
	movl	16(%ebp), %eax
	andl	-12(%ebp), %eax
	.loc 5 59 13
	testl	%eax, %eax
	je	L28
	.loc 5 62 34
	movl	-24(%ebp), %edx
	movl	-32(%ebp), %eax
	addl	%edx, %eax
	movl	%eax, 4(%esp)
	movl	-16(%ebp), %eax
	movl	%eax, (%esp)
	call	__ZERO_MEMORY_UNIT
	.loc 5 63 33
	movl	-16(%ebp), %eax
	movl	%eax, 16(%esp)
	movl	-32(%ebp), %eax
	movl	%eax, 12(%esp)
	movl	-28(%ebp), %eax
	movl	%eax, 8(%esp)
	movl	-24(%ebp), %eax
	movl	%eax, 4(%esp)
	movl	-20(%ebp), %eax
	movl	%eax, (%esp)
	call	__ZN8Palmtree4Math4Core8Internal16Multiply_X_X_ImpEPjjS3_jS3_
	.loc 5 64 25
	movl	-32(%ebp), %eax
	addl	%eax, -24(%ebp)
	.loc 5 65 38
	movl	-24(%ebp), %eax
	addl	$1073741823, %eax
	leal	0(,%eax,4), %edx
	movl	-16(%ebp), %eax
	addl	%edx, %eax
	movl	(%eax), %eax
	.loc 5 65 17
	testl	%eax, %eax
	jne	L29
	.loc 5 66 21
	subl	$1, -24(%ebp)
	jmp	L29
L28:
LBB32:
	.loc 5 71 30
	movl	-16(%ebp), %eax
	movl	%eax, -36(%ebp)
	.loc 5 72 23
	movl	-20(%ebp), %eax
	movl	%eax, -16(%ebp)
	.loc 5 73 23
	movl	-36(%ebp), %eax
	movl	%eax, -20(%ebp)
L29:
LBE32:
LBE31:
	.loc 5 76 20
	shrl	-12(%ebp)
LBE30:
	.loc 5 49 9
	jmp	L30
L26:
	.loc 5 78 26
	movl	-24(%ebp), %eax
	movl	%eax, 8(%esp)
	movl	-16(%ebp), %eax
	movl	%eax, 4(%esp)
	movl	28(%ebp), %eax
	movl	%eax, (%esp)
	call	__COPY_MEMORY_UNIT
	.loc 5 79 5
	nop
	leave
	.cfi_restore 5
	.cfi_def_cfa 4, 4
	ret
	.cfi_endproc
LFE4921:
	.section .rdata,"dr"
	.align 2
LC0:
	.ascii "0\0n00\0WNn0$Po0*g\232[\251\177g0Y0\2"
	.ascii "0\0\0"
	.align 4
LC1:
	.ascii "\252"
	.ascii "0\374"
	.ascii "0\320"
	.ascii "0\374"
	.ascii "0\325"
	.ascii "0\355"
	.ascii "0\374"
	.ascii "0k0\210"
	.ascii "0\212"
	.ascii "0\10\212\227{\222"
	.ascii "0\232}L\210g0M0~0[0\223"
	.ascii "0\2"
	.ascii "0\0\0"
	.text
	.globl	__ZN8Palmtree4Math4Core8Internal15PMC_Pow_X_I_ImpEPNS2_19__tag_NUMBER_HEADEREj
	.def	__ZN8Palmtree4Math4Core8Internal15PMC_Pow_X_I_ImpEPNS2_19__tag_NUMBER_HEADEREj;	.scl	2;	.type	32;	.endef
__ZN8Palmtree4Math4Core8Internal15PMC_Pow_X_I_ImpEPNS2_19__tag_NUMBER_HEADEREj:
LFB4922:
	.loc 5 82 5
	.cfi_startproc
	.cfi_personality 0,___gxx_personality_v0
	.cfi_lsda 0,LLSDA4922
	pushl	%ebp
	.cfi_def_cfa_offset 8
	.cfi_offset 5, -8
	movl	%esp, %ebp
	.cfi_def_cfa_register 5
	pushl	%ebx
	subl	$84, %esp
	.cfi_offset 3, -12
LBB33:
	.loc 5 83 23
	movl	8(%ebp), %eax
	movzbl	4(%eax), %eax
	andl	$1, %eax
	.loc 5 83 9
	testb	%al, %al
	je	L32
	.loc 5 87 13
	cmpl	$0, 12(%ebp)
	jne	L33
	.loc 5 92 81
	movl	$16, (%esp)
	call	___cxa_allocate_exception
	movl	%eax, %ebx
	movl	$LC0, (%esp)
	movl	%ebx, %ecx
	call	__ZN8Palmtree4Math4Core8Internal19ArithmeticExceptionC1EPKw
	subl	$4, %esp
	movl	$__ZN8Palmtree4Math4Core8Internal19ArithmeticExceptionD1Ev, 8(%esp)
	movl	$__ZTIN8Palmtree4Math4Core8Internal19ArithmeticExceptionE, 4(%esp)
	movl	%ebx, (%esp)
LEHB0:
	call	___cxa_throw
L33:
	.loc 5 98 37
	movl	$__ZN8Palmtree4Math4Core8Internal11number_zeroE, %ebx
	jmp	L34
L32:
LBB34:
LBB35:
	.loc 5 101 27
	movl	8(%ebp), %eax
	movzbl	4(%eax), %eax
	andl	$2, %eax
	.loc 5 101 14
	testb	%al, %al
	je	L35
	.loc 5 106 32
	movl	$__ZN8Palmtree4Math4Core8Internal10number_oneE, %ebx
	jmp	L34
L35:
LBB36:
LBB37:
	.loc 5 112 13
	cmpl	$0, 12(%ebp)
	jne	L36
	.loc 5 117 36
	movl	$__ZN8Palmtree4Math4Core8Internal10number_oneE, %ebx
	jmp	L34
L36:
LBB38:
LBB39:
	.loc 5 119 18
	cmpl	$1, 12(%ebp)
	jne	L37
	.loc 5 124 40
	movl	8(%ebp), %eax
	movl	%eax, (%esp)
	call	__ZN8Palmtree4Math4Core8Internal15DuplicateNumberEPNS2_19__tag_NUMBER_HEADERE
	movl	%eax, %ebx
	.loc 5 124 43
	jmp	L34
L37:
LBB40:
	.loc 5 131 36
	leal	-40(%ebp), %eax
	movl	%eax, %ecx
	call	__ZN8Palmtree4Math4Core8Internal18ResourceHolderUINTC1Ev
LEHE0:
	.loc 5 132 29
	movl	8(%ebp), %eax
	movl	20(%eax), %eax
	movl	%eax, -12(%ebp)
	.loc 5 135 81
	movl	$-33, %eax
	movl	$0, %edx
	divl	12(%ebp)
	.loc 5 135 17
	cmpl	%eax, -12(%ebp)
	jbe	L38
	.loc 5 136 111
	movl	$16, (%esp)
	call	___cxa_allocate_exception
	movl	%eax, %ebx
	movl	$LC1, (%esp)
	movl	%ebx, %ecx
	call	__ZN8Palmtree4Math4Core8Internal17OverflowExceptionC1EPKw
	subl	$4, %esp
	movl	$__ZN8Palmtree4Math4Core8Internal17OverflowExceptionD1Ev, 8(%esp)
	movl	$__ZTIN8Palmtree4Math4Core8Internal17OverflowExceptionE, 4(%esp)
	movl	%ebx, (%esp)
LEHB1:
	call	___cxa_throw
L38:
	.loc 5 138 58
	movl	-12(%ebp), %eax
	imull	12(%ebp), %eax
	.loc 5 138 29
	addl	$32, %eax
	movl	%eax, -16(%ebp)
	.loc 5 140 60
	leal	-40(%ebp), %eax
	movl	-16(%ebp), %edx
	movl	%edx, (%esp)
	movl	%eax, %ecx
	call	__ZN8Palmtree4Math4Core8Internal18ResourceHolderUINT13AllocateBlockEj
	subl	$4, %esp
	movl	%eax, -20(%ebp)
	.loc 5 141 60
	leal	-40(%ebp), %eax
	movl	-16(%ebp), %edx
	movl	%edx, (%esp)
	movl	%eax, %ecx
	call	__ZN8Palmtree4Math4Core8Internal18ResourceHolderUINT13AllocateBlockEj
	.loc 5 141 60 is_stmt 0 discriminator 1
	subl	$4, %esp
	movl	%eax, -24(%ebp)
	.loc 5 142 55 is_stmt 1 discriminator 1
	leal	-40(%ebp), %eax
	movl	-16(%ebp), %edx
	movl	%edx, (%esp)
	movl	%eax, %ecx
	call	__ZN8Palmtree4Math4Core8Internal18ResourceHolderUINT14AllocateNumberEj
	subl	$4, %esp
	.loc 5 142 70 discriminator 1
	movl	%eax, -44(%ebp)
	.loc 5 143 28 discriminator 1
	movl	-44(%ebp), %eax
	movl	36(%eax), %ecx
	movl	8(%ebp), %eax
	movl	16(%eax), %edx
	movl	8(%ebp), %eax
	movl	36(%eax), %eax
	movl	%ecx, 20(%esp)
	movl	-24(%ebp), %ecx
	movl	%ecx, 16(%esp)
	movl	-20(%ebp), %ecx
	movl	%ecx, 12(%esp)
	movl	12(%ebp), %ecx
	movl	%ecx, 8(%esp)
	movl	%edx, 4(%esp)
	movl	%eax, (%esp)
	call	__ZN8Palmtree4Math4Core8InternalL11Pow_X_I_ImpEPjjjS3_S3_S3_
	.loc 5 144 32
	leal	-40(%ebp), %eax
	movl	-20(%ebp), %edx
	movl	%edx, (%esp)
	movl	%eax, %ecx
	call	__ZN8Palmtree4Math4Core8Internal18ResourceHolderUINT10CheckBlockEPj
	subl	$4, %esp
	.loc 5 145 32
	leal	-40(%ebp), %eax
	movl	-24(%ebp), %edx
	movl	%edx, (%esp)
	movl	%eax, %ecx
	call	__ZN8Palmtree4Math4Core8Internal18ResourceHolderUINT10CheckBlockEPj
	subl	$4, %esp
	.loc 5 146 33
	movl	-44(%ebp), %edx
	leal	-40(%ebp), %eax
	movl	%edx, (%esp)
	movl	%eax, %ecx
	call	__ZN8Palmtree4Math4Core8Internal18ResourceHolderUINT11CheckNumberEPNS2_19__tag_NUMBER_HEADERE
	subl	$4, %esp
	.loc 5 147 29
	movl	-44(%ebp), %eax
	movl	%eax, (%esp)
	call	__ZN8Palmtree4Math4Core8Internal12CommitNumberEPNS2_19__tag_NUMBER_HEADERE
	.loc 5 148 34
	movl	-44(%ebp), %edx
	leal	-40(%ebp), %eax
	movl	%edx, (%esp)
	movl	%eax, %ecx
	call	__ZN8Palmtree4Math4Core8Internal18ResourceHolderUINT12UnlinkNumberEPNS2_19__tag_NUMBER_HEADERE
LEHE1:
	subl	$4, %esp
	.loc 5 149 26
	movl	-44(%ebp), %ebx
	.loc 5 131 36
	leal	-40(%ebp), %eax
	movl	%eax, %ecx
	call	__ZN8Palmtree4Math4Core8Internal18ResourceHolderUINTD1Ev
L34:
	movl	%ebx, %eax
	jmp	L41
L40:
	movl	%eax, %ebx
	leal	-40(%ebp), %eax
	movl	%eax, %ecx
	call	__ZN8Palmtree4Math4Core8Internal18ResourceHolderUINTD1Ev
	movl	%ebx, %eax
	movl	%eax, (%esp)
LEHB2:
	call	__Unwind_Resume
LEHE2:
L41:
LBE40:
LBE39:
LBE38:
LBE37:
LBE36:
LBE35:
LBE34:
LBE33:
	.loc 5 152 5
	movl	-4(%ebp), %ebx
	leave
	.cfi_restore 5
	.cfi_restore 3
	.cfi_def_cfa 4, 4
	ret
	.cfi_endproc
LFE4922:
	.def	___gxx_personality_v0;	.scl	2;	.type	32;	.endef
	.section	.gcc_except_table,"w"
LLSDA4922:
	.byte	0xff
	.byte	0xff
	.byte	0x1
	.uleb128 LLSDACSE4922-LLSDACSB4922
LLSDACSB4922:
	.uleb128 LEHB0-LFB4922
	.uleb128 LEHE0-LEHB0
	.uleb128 0
	.uleb128 0
	.uleb128 LEHB1-LFB4922
	.uleb128 LEHE1-LEHB1
	.uleb128 L40-LFB4922
	.uleb128 0
	.uleb128 LEHB2-LFB4922
	.uleb128 LEHE2-LEHB2
	.uleb128 0
	.uleb128 0
LLSDACSE4922:
	.text
	.section .rdata,"dr"
	.align 2
LC2:
	.ascii "v\0\0\0"
	.align 4
LC3:
	.ascii "\25_pek0n\0u\0l\0l\0p\0t\0r\0L0\16NH0\211"
	.ascii "0\214"
	.ascii "0f0D0~0Y0\2"
	.ascii "0\0\0"
	.text
	.globl	__ZN8Palmtree4Math4Core8Internal11PMC_Pow_X_IEPNS2_21__tag_PMC_HANDLE_UINTEj@8
	.def	__ZN8Palmtree4Math4Core8Internal11PMC_Pow_X_IEPNS2_21__tag_PMC_HANDLE_UINTEj@8;	.scl	2;	.type	32;	.endef
__ZN8Palmtree4Math4Core8Internal11PMC_Pow_X_IEPNS2_21__tag_PMC_HANDLE_UINTEj@8:
LFB4926:
	.loc 5 275 5
	.cfi_startproc
	.cfi_personality 0,___gxx_personality_v0
	.cfi_lsda 0,LLSDA4926
	pushl	%ebp
	.cfi_def_cfa_offset 8
	.cfi_offset 5, -8
	movl	%esp, %ebp
	.cfi_def_cfa_register 5
	pushl	%ebx
	subl	$52, %esp
	.cfi_offset 3, -12
	.loc 5 281 9
	cmpl	$0, 8(%ebp)
	jne	L43
	.loc 5 282 96
	movl	$16, (%esp)
	call	___cxa_allocate_exception
	movl	%eax, %ebx
	movl	$LC2, 4(%esp)
	movl	$LC3, (%esp)
	movl	%ebx, %ecx
	call	__ZN8Palmtree4Math4Core8Internal21ArgumentNullExceptionC1EPKwS5_
	subl	$8, %esp
	movl	$__ZN8Palmtree4Math4Core8Internal21ArgumentNullExceptionD1Ev, 8(%esp)
	movl	$__ZTIN8Palmtree4Math4Core8Internal21ArgumentNullExceptionE, 4(%esp)
	movl	%ebx, (%esp)
LEHB3:
	call	___cxa_throw
L43:
	.loc 5 283 20
	movl	8(%ebp), %eax
	movl	%eax, (%esp)
	call	__ZN8Palmtree4Math4Core8Internal11CheckNumberEPNS2_19__tag_NUMBER_HEADERE
	.loc 5 284 28
	leal	-28(%ebp), %eax
	movl	%eax, %ecx
	call	__ZN8Palmtree4Math4Core8Internal18ResourceHolderUINTC1Ev
LEHE3:
	.loc 5 285 43
	movl	12(%ebp), %eax
	movl	%eax, 4(%esp)
	movl	8(%ebp), %eax
	movl	%eax, (%esp)
LEHB4:
	call	__ZN8Palmtree4Math4Core8Internal15PMC_Pow_X_I_ImpEPNS2_19__tag_NUMBER_HEADEREj
	movl	%eax, -12(%ebp)
	.loc 5 286 24
	leal	-28(%ebp), %eax
	movl	-12(%ebp), %edx
	movl	%edx, (%esp)
	movl	%eax, %ecx
	call	__ZN8Palmtree4Math4Core8Internal18ResourceHolderUINT10HookNumberEPNS2_19__tag_NUMBER_HEADERE
	.loc 5 286 24 is_stmt 0 discriminator 1
	subl	$4, %esp
	.loc 5 288 20 is_stmt 1 discriminator 1
	movl	-12(%ebp), %eax
	movl	%eax, (%esp)
	call	__ZN8Palmtree4Math4Core8Internal11CheckNumberEPNS2_19__tag_NUMBER_HEADERE
	.loc 5 290 26
	leal	-28(%ebp), %eax
	movl	-12(%ebp), %edx
	movl	%edx, (%esp)
	movl	%eax, %ecx
	call	__ZN8Palmtree4Math4Core8Internal18ResourceHolderUINT12UnlinkNumberEPNS2_19__tag_NUMBER_HEADERE
LEHE4:
	subl	$4, %esp
	.loc 5 291 35
	movl	-12(%ebp), %ebx
	.loc 5 284 28
	leal	-28(%ebp), %eax
	movl	%eax, %ecx
	call	__ZN8Palmtree4Math4Core8Internal18ResourceHolderUINTD1Ev
	.loc 5 291 35
	movl	%ebx, %eax
	jmp	L47
L46:
	movl	%eax, %ebx
	.loc 5 284 28
	leal	-28(%ebp), %eax
	movl	%eax, %ecx
	call	__ZN8Palmtree4Math4Core8Internal18ResourceHolderUINTD1Ev
	movl	%ebx, %eax
	movl	%eax, (%esp)
LEHB5:
	call	__Unwind_Resume
LEHE5:
L47:
	.loc 5 292 5
	movl	-4(%ebp), %ebx
	leave
	.cfi_restore 5
	.cfi_restore 3
	.cfi_def_cfa 4, 4
	ret	$8
	.cfi_endproc
LFE4926:
	.section	.gcc_except_table,"w"
LLSDA4926:
	.byte	0xff
	.byte	0xff
	.byte	0x1
	.uleb128 LLSDACSE4926-LLSDACSB4926
LLSDACSB4926:
	.uleb128 LEHB3-LFB4926
	.uleb128 LEHE3-LEHB3
	.uleb128 0
	.uleb128 0
	.uleb128 LEHB4-LFB4926
	.uleb128 LEHE4-LEHB4
	.uleb128 L46-LFB4926
	.uleb128 0
	.uleb128 LEHB5-LFB4926
	.uleb128 LEHE5-LEHB5
	.uleb128 0
	.uleb128 0
LLSDACSE4926:
	.text
	.section .rdata,"dr"
	.align 4
LC4:
	.ascii "\376s(Wn0\327"
	.ascii "0\351"
	.ascii "0\303"
	.ascii "0\310"
	.ascii "0\325"
	.ascii "0\251"
	.ascii "0\374"
	.ascii "0\340"
	.ascii "0g0o0\265"
	.ascii "0\335"
	.ascii "0\374"
	.ascii "0\310"
	.ascii "0U0\214"
	.ascii "0j0D0_j\375\200\222"
	.ascii "0\237[L\210W0\210"
	.ascii "0F0h0W0~0W0_0\2"
	.ascii "0\0\0"
	.text
	.globl	__ZN8Palmtree4Math4Core8Internal11PMC_Pow_X_LEPNS2_21__tag_PMC_HANDLE_UINTEy@12
	.def	__ZN8Palmtree4Math4Core8Internal11PMC_Pow_X_LEPNS2_21__tag_PMC_HANDLE_UINTEy@12;	.scl	2;	.type	32;	.endef
__ZN8Palmtree4Math4Core8Internal11PMC_Pow_X_LEPNS2_21__tag_PMC_HANDLE_UINTEy@12:
LFB4927:
	.loc 5 295 5
	.cfi_startproc
	pushl	%ebp
	.cfi_def_cfa_offset 8
	.cfi_offset 5, -8
	movl	%esp, %ebp
	.cfi_def_cfa_register 5
	pushl	%ebx
	subl	$36, %esp
	.cfi_offset 3, -12
	movl	12(%ebp), %eax
	movl	%eax, -16(%ebp)
	movl	16(%ebp), %eax
	movl	%eax, -12(%ebp)
	.loc 5 314 145
	movl	$16, (%esp)
	call	___cxa_allocate_exception
	movl	%eax, %ebx
	movl	$LC4, (%esp)
	movl	%ebx, %ecx
	call	__ZN8Palmtree4Math4Core8Internal21NotSupportedExceptionC1EPKw
	subl	$4, %esp
	movl	$__ZN8Palmtree4Math4Core8Internal21NotSupportedExceptionD1Ev, 8(%esp)
	movl	$__ZTIN8Palmtree4Math4Core8Internal21NotSupportedExceptionE, 4(%esp)
	movl	%ebx, (%esp)
	call	___cxa_throw
	.cfi_endproc
LFE4927:
	.globl	__ZN8Palmtree4Math4Core8Internal14Initialize_PowEPNS2_23_tag_PROCESSOR_FEATURESE
	.def	__ZN8Palmtree4Math4Core8Internal14Initialize_PowEPNS2_23_tag_PROCESSOR_FEATURESE;	.scl	2;	.type	32;	.endef
__ZN8Palmtree4Math4Core8Internal14Initialize_PowEPNS2_23_tag_PROCESSOR_FEATURESE:
LFB4928:
	.loc 5 319 5
	.cfi_startproc
	.loc 5 320 20
	movl	$0, %eax
	.loc 5 321 5
	ret
	.cfi_endproc
LFE4928:
	.globl	__ZTVN8Palmtree4Math4Core8Internal21NotSupportedExceptionE
	.section	.rdata$_ZTVN8Palmtree4Math4Core8Internal21NotSupportedExceptionE,"dr"
	.linkonce same_size
	.align 4
__ZTVN8Palmtree4Math4Core8Internal21NotSupportedExceptionE:
	.long	0
	.long	__ZTIN8Palmtree4Math4Core8Internal21NotSupportedExceptionE
	.long	__ZN8Palmtree4Math4Core8Internal21NotSupportedExceptionD1Ev
	.long	__ZN8Palmtree4Math4Core8Internal21NotSupportedExceptionD0Ev
	.long	__ZNKSt9exception4whatEv
	.globl	__ZTVN8Palmtree4Math4Core8Internal19ArithmeticExceptionE
	.section	.rdata$_ZTVN8Palmtree4Math4Core8Internal19ArithmeticExceptionE,"dr"
	.linkonce same_size
	.align 4
__ZTVN8Palmtree4Math4Core8Internal19ArithmeticExceptionE:
	.long	0
	.long	__ZTIN8Palmtree4Math4Core8Internal19ArithmeticExceptionE
	.long	__ZN8Palmtree4Math4Core8Internal19ArithmeticExceptionD1Ev
	.long	__ZN8Palmtree4Math4Core8Internal19ArithmeticExceptionD0Ev
	.long	__ZNKSt9exception4whatEv
	.globl	__ZTVN8Palmtree4Math4Core8Internal17OverflowExceptionE
	.section	.rdata$_ZTVN8Palmtree4Math4Core8Internal17OverflowExceptionE,"dr"
	.linkonce same_size
	.align 4
__ZTVN8Palmtree4Math4Core8Internal17OverflowExceptionE:
	.long	0
	.long	__ZTIN8Palmtree4Math4Core8Internal17OverflowExceptionE
	.long	__ZN8Palmtree4Math4Core8Internal17OverflowExceptionD1Ev
	.long	__ZN8Palmtree4Math4Core8Internal17OverflowExceptionD0Ev
	.long	__ZNKSt9exception4whatEv
	.globl	__ZTVN8Palmtree4Math4Core8Internal21ArgumentNullExceptionE
	.section	.rdata$_ZTVN8Palmtree4Math4Core8Internal21ArgumentNullExceptionE,"dr"
	.linkonce same_size
	.align 4
__ZTVN8Palmtree4Math4Core8Internal21ArgumentNullExceptionE:
	.long	0
	.long	__ZTIN8Palmtree4Math4Core8Internal21ArgumentNullExceptionE
	.long	__ZN8Palmtree4Math4Core8Internal21ArgumentNullExceptionD1Ev
	.long	__ZN8Palmtree4Math4Core8Internal21ArgumentNullExceptionD0Ev
	.long	__ZNKSt9exception4whatEv
	.globl	__ZTVN8Palmtree4Math4Core8Internal9ExceptionE
	.section	.rdata$_ZTVN8Palmtree4Math4Core8Internal9ExceptionE,"dr"
	.linkonce same_size
	.align 4
__ZTVN8Palmtree4Math4Core8Internal9ExceptionE:
	.long	0
	.long	__ZTIN8Palmtree4Math4Core8Internal9ExceptionE
	.long	__ZN8Palmtree4Math4Core8Internal9ExceptionD1Ev
	.long	__ZN8Palmtree4Math4Core8Internal9ExceptionD0Ev
	.long	__ZNKSt9exception4whatEv
	.globl	__ZTIN8Palmtree4Math4Core8Internal21NotSupportedExceptionE
	.section	.rdata$_ZTIN8Palmtree4Math4Core8Internal21NotSupportedExceptionE,"dr"
	.linkonce same_size
	.align 4
__ZTIN8Palmtree4Math4Core8Internal21NotSupportedExceptionE:
	.long	__ZTVN10__cxxabiv120__si_class_type_infoE+8
	.long	__ZTSN8Palmtree4Math4Core8Internal21NotSupportedExceptionE
	.long	__ZTIN8Palmtree4Math4Core8Internal9ExceptionE
	.globl	__ZTSN8Palmtree4Math4Core8Internal21NotSupportedExceptionE
	.section	.rdata$_ZTSN8Palmtree4Math4Core8Internal21NotSupportedExceptionE,"dr"
	.linkonce same_size
	.align 32
__ZTSN8Palmtree4Math4Core8Internal21NotSupportedExceptionE:
	.ascii "N8Palmtree4Math4Core8Internal21NotSupportedExceptionE\0"
	.globl	__ZTIN8Palmtree4Math4Core8Internal19ArithmeticExceptionE
	.section	.rdata$_ZTIN8Palmtree4Math4Core8Internal19ArithmeticExceptionE,"dr"
	.linkonce same_size
	.align 4
__ZTIN8Palmtree4Math4Core8Internal19ArithmeticExceptionE:
	.long	__ZTVN10__cxxabiv120__si_class_type_infoE+8
	.long	__ZTSN8Palmtree4Math4Core8Internal19ArithmeticExceptionE
	.long	__ZTIN8Palmtree4Math4Core8Internal9ExceptionE
	.globl	__ZTSN8Palmtree4Math4Core8Internal19ArithmeticExceptionE
	.section	.rdata$_ZTSN8Palmtree4Math4Core8Internal19ArithmeticExceptionE,"dr"
	.linkonce same_size
	.align 32
__ZTSN8Palmtree4Math4Core8Internal19ArithmeticExceptionE:
	.ascii "N8Palmtree4Math4Core8Internal19ArithmeticExceptionE\0"
	.globl	__ZTIN8Palmtree4Math4Core8Internal17OverflowExceptionE
	.section	.rdata$_ZTIN8Palmtree4Math4Core8Internal17OverflowExceptionE,"dr"
	.linkonce same_size
	.align 4
__ZTIN8Palmtree4Math4Core8Internal17OverflowExceptionE:
	.long	__ZTVN10__cxxabiv120__si_class_type_infoE+8
	.long	__ZTSN8Palmtree4Math4Core8Internal17OverflowExceptionE
	.long	__ZTIN8Palmtree4Math4Core8Internal9ExceptionE
	.globl	__ZTSN8Palmtree4Math4Core8Internal17OverflowExceptionE
	.section	.rdata$_ZTSN8Palmtree4Math4Core8Internal17OverflowExceptionE,"dr"
	.linkonce same_size
	.align 32
__ZTSN8Palmtree4Math4Core8Internal17OverflowExceptionE:
	.ascii "N8Palmtree4Math4Core8Internal17OverflowExceptionE\0"
	.globl	__ZTIN8Palmtree4Math4Core8Internal21ArgumentNullExceptionE
	.section	.rdata$_ZTIN8Palmtree4Math4Core8Internal21ArgumentNullExceptionE,"dr"
	.linkonce same_size
	.align 4
__ZTIN8Palmtree4Math4Core8Internal21ArgumentNullExceptionE:
	.long	__ZTVN10__cxxabiv120__si_class_type_infoE+8
	.long	__ZTSN8Palmtree4Math4Core8Internal21ArgumentNullExceptionE
	.long	__ZTIN8Palmtree4Math4Core8Internal9ExceptionE
	.globl	__ZTSN8Palmtree4Math4Core8Internal21ArgumentNullExceptionE
	.section	.rdata$_ZTSN8Palmtree4Math4Core8Internal21ArgumentNullExceptionE,"dr"
	.linkonce same_size
	.align 32
__ZTSN8Palmtree4Math4Core8Internal21ArgumentNullExceptionE:
	.ascii "N8Palmtree4Math4Core8Internal21ArgumentNullExceptionE\0"
	.globl	__ZTIN8Palmtree4Math4Core8Internal9ExceptionE
	.section	.rdata$_ZTIN8Palmtree4Math4Core8Internal9ExceptionE,"dr"
	.linkonce same_size
	.align 4
__ZTIN8Palmtree4Math4Core8Internal9ExceptionE:
	.long	__ZTVN10__cxxabiv121__vmi_class_type_infoE+8
	.long	__ZTSN8Palmtree4Math4Core8Internal9ExceptionE
	.long	0
	.long	1
	.long	__ZTISt9exception
	.long	0
	.globl	__ZTSN8Palmtree4Math4Core8Internal9ExceptionE
	.section	.rdata$_ZTSN8Palmtree4Math4Core8Internal9ExceptionE,"dr"
	.linkonce same_size
	.align 32
__ZTSN8Palmtree4Math4Core8Internal9ExceptionE:
	.ascii "N8Palmtree4Math4Core8Internal9ExceptionE\0"
	.globl	__ZTISt9exception
	.section	.rdata$_ZTISt9exception,"dr"
	.linkonce same_size
	.align 4
__ZTISt9exception:
	.long	__ZTVN10__cxxabiv117__class_type_infoE+8
	.long	__ZTSSt9exception
	.globl	__ZTSSt9exception
	.section	.rdata$_ZTSSt9exception,"dr"
	.linkonce same_size
	.align 4
__ZTSSt9exception:
	.ascii "St9exception\0"
	.text
Letext0:
	.file 7 "C:/GNU/MINGW64/i686-8.1.0-win32-dwarf-rt_v6-rev0/mingw32/i686-w64-mingw32/include/crtdefs.h"
	.file 8 "C:/GNU/MINGW64/i686-8.1.0-win32-dwarf-rt_v6-rev0/mingw32/i686-w64-mingw32/include/excpt.h"
	.file 9 "C:/GNU/MINGW64/i686-8.1.0-win32-dwarf-rt_v6-rev0/mingw32/i686-w64-mingw32/include/minwindef.h"
	.file 10 "C:/GNU/MINGW64/i686-8.1.0-win32-dwarf-rt_v6-rev0/mingw32/i686-w64-mingw32/include/ctype.h"
	.file 11 "C:/GNU/MINGW64/i686-8.1.0-win32-dwarf-rt_v6-rev0/mingw32/i686-w64-mingw32/include/guiddef.h"
	.file 12 "C:/GNU/MINGW64/i686-8.1.0-win32-dwarf-rt_v6-rev0/mingw32/i686-w64-mingw32/include/winnt.h"
	.file 13 "C:/GNU/MINGW64/i686-8.1.0-win32-dwarf-rt_v6-rev0/mingw32/i686-w64-mingw32/include/rpcdce.h"
	.file 14 "C:/GNU/MINGW64/i686-8.1.0-win32-dwarf-rt_v6-rev0/mingw32/lib/gcc/i686-w64-mingw32/8.1.0/include/c++/cstdlib"
	.file 15 "C:/GNU/MINGW64/i686-8.1.0-win32-dwarf-rt_v6-rev0/mingw32/lib/gcc/i686-w64-mingw32/8.1.0/include/c++/bits/std_abs.h"
	.file 16 "C:/GNU/MINGW64/i686-8.1.0-win32-dwarf-rt_v6-rev0/mingw32/lib/gcc/i686-w64-mingw32/8.1.0/include/c++/bits/exception_ptr.h"
	.file 17 "C:/GNU/MINGW64/i686-8.1.0-win32-dwarf-rt_v6-rev0/mingw32/lib/gcc/i686-w64-mingw32/8.1.0/include/c++/new"
	.file 18 "C:/GNU/MINGW64/i686-8.1.0-win32-dwarf-rt_v6-rev0/mingw32/lib/gcc/i686-w64-mingw32/8.1.0/include/c++/i686-w64-mingw32/bits/c++config.h"
	.file 19 "C:/GNU/MINGW64/i686-8.1.0-win32-dwarf-rt_v6-rev0/mingw32/lib/gcc/i686-w64-mingw32/8.1.0/include/c++/type_traits"
	.file 20 "C:/GNU/MINGW64/i686-8.1.0-win32-dwarf-rt_v6-rev0/mingw32/i686-w64-mingw32/include/stdlib.h"
	.file 21 "C:/GNU/MINGW64/i686-8.1.0-win32-dwarf-rt_v6-rev0/mingw32/i686-w64-mingw32/include/malloc.h"
	.file 22 "C:/GNU/MINGW64/i686-8.1.0-win32-dwarf-rt_v6-rev0/mingw32/lib/gcc/i686-w64-mingw32/8.1.0/include/c++/stdlib.h"
	.file 23 "C:/GNU/MINGW64/i686-8.1.0-win32-dwarf-rt_v6-rev0/mingw32/i686-w64-mingw32/include/wtypesbase.h"
	.file 24 "C:/GNU/MINGW64/i686-8.1.0-win32-dwarf-rt_v6-rev0/mingw32/i686-w64-mingw32/include/unknwnbase.h"
	.file 25 "C:/GNU/MINGW64/i686-8.1.0-win32-dwarf-rt_v6-rev0/mingw32/i686-w64-mingw32/include/objidlbase.h"
	.file 26 "C:/GNU/MINGW64/i686-8.1.0-win32-dwarf-rt_v6-rev0/mingw32/i686-w64-mingw32/include/cguid.h"
	.file 27 "C:/GNU/MINGW64/i686-8.1.0-win32-dwarf-rt_v6-rev0/mingw32/i686-w64-mingw32/include/wtypes.h"
	.file 28 "C:/GNU/MINGW64/i686-8.1.0-win32-dwarf-rt_v6-rev0/mingw32/i686-w64-mingw32/include/objidl.h"
	.file 29 "C:/GNU/MINGW64/i686-8.1.0-win32-dwarf-rt_v6-rev0/mingw32/i686-w64-mingw32/include/oleidl.h"
	.file 30 "C:/GNU/MINGW64/i686-8.1.0-win32-dwarf-rt_v6-rev0/mingw32/i686-w64-mingw32/include/servprov.h"
	.file 31 "C:/GNU/MINGW64/i686-8.1.0-win32-dwarf-rt_v6-rev0/mingw32/i686-w64-mingw32/include/oaidl.h"
	.file 32 "C:/GNU/MINGW64/i686-8.1.0-win32-dwarf-rt_v6-rev0/mingw32/i686-w64-mingw32/include/msxml.h"
	.file 33 "C:/GNU/MINGW64/i686-8.1.0-win32-dwarf-rt_v6-rev0/mingw32/i686-w64-mingw32/include/urlmon.h"
	.file 34 "C:/GNU/MINGW64/i686-8.1.0-win32-dwarf-rt_v6-rev0/mingw32/i686-w64-mingw32/include/propidl.h"
	.file 35 "C:/GNU/MINGW64/i686-8.1.0-win32-dwarf-rt_v6-rev0/mingw32/i686-w64-mingw32/include/oleauto.h"
	.file 36 "C:/GNU/MINGW64/i686-8.1.0-win32-dwarf-rt_v6-rev0/mingw32/i686-w64-mingw32/include/winioctl.h"
	.file 37 "C:/GNU/MINGW64/i686-8.1.0-win32-dwarf-rt_v6-rev0/mingw32/i686-w64-mingw32/include/winsmcrd.h"
	.file 38 "C:/GNU/MINGW64/i686-8.1.0-win32-dwarf-rt_v6-rev0/mingw32/i686-w64-mingw32/include/winscard.h"
	.file 39 "C:/GNU/MINGW64/i686-8.1.0-win32-dwarf-rt_v6-rev0/mingw32/i686-w64-mingw32/include/commdlg.h"
	.file 40 "C:/GNU/MINGW64/i686-8.1.0-win32-dwarf-rt_v6-rev0/mingw32/i686-w64-mingw32/include/wchar.h"
	.file 41 "C:/GNU/MINGW64/i686-8.1.0-win32-dwarf-rt_v6-rev0/mingw32/i686-w64-mingw32/include/stdint.h"
	.file 42 "../pmc.h"
	.file 43 "<built-in>"
	.file 44 "../pmc_uint.h"
	.file 45 "../pmc_cpuid.h"
	.file 46 "../pmc_uint_internal.h"
	.file 47 "../pmc_internal.h"