	.file	"pmc_memory.cpp"
	.text
Ltext0:
	.section	.text$_ZNSt9exceptionC2Ev,"x"
	.linkonce discard
	.align 2
	.globl	__ZNSt9exceptionC2Ev
	.def	__ZNSt9exceptionC2Ev;	.scl	2;	.type	32;	.endef
__ZNSt9exceptionC2Ev:
LFB515:
	.file 1 "C:/GNU/MINGW64/i686-8.1.0-win32-dwarf-rt_v6-rev0/mingw32/lib/gcc/i686-w64-mingw32/8.1.0/include/c++/bits/exception.h"
	.loc 1 63 5
	.cfi_startproc
	pushl	%ebp
	.cfi_def_cfa_offset 8
	.cfi_offset 5, -8
	movl	%esp, %ebp
	.cfi_def_cfa_register 5
	subl	$4, %esp
	movl	%ecx, -4(%ebp)
LBB10:
	.loc 1 63 26
	movl	$__ZTVSt9exception+8, %edx
	movl	-4(%ebp), %eax
	movl	%edx, (%eax)
LBE10:
	.loc 1 63 28
	nop
	leave
	.cfi_restore 5
	.cfi_def_cfa 4, 4
	ret
	.cfi_endproc
LFE515:
	.section	.text$_ZN8Palmtree4Math4Core8Internal9ExceptionC2EiPKw,"x"
	.linkonce discard
	.align 2
	.globl	__ZN8Palmtree4Math4Core8Internal9ExceptionC2EiPKw
	.def	__ZN8Palmtree4Math4Core8Internal9ExceptionC2EiPKw;	.scl	2;	.type	32;	.endef
__ZN8Palmtree4Math4Core8Internal9ExceptionC2EiPKw:
LFB584:
	.file 2 "../pmc_exception.h"
	.loc 2 47 9
	.cfi_startproc
	pushl	%ebp
	.cfi_def_cfa_offset 8
	.cfi_offset 5, -8
	movl	%esp, %ebp
	.cfi_def_cfa_register 5
	subl	$24, %esp
	movl	%ecx, -12(%ebp)
LBB11:
	.loc 2 48 9
	movl	-12(%ebp), %eax
	movl	%eax, %ecx
	call	__ZNSt9exceptionC2Ev
	movl	$__ZTVN8Palmtree4Math4Core8Internal9ExceptionE+8, %edx
	movl	-12(%ebp), %eax
	movl	%edx, (%eax)
	.loc 2 49 19
	movl	-12(%ebp), %eax
	movl	8(%ebp), %edx
	movl	%edx, 4(%eax)
	.loc 2 50 22
	movl	-12(%ebp), %eax
	movl	12(%ebp), %edx
	movl	%edx, 8(%eax)
	.loc 2 51 19
	movl	-12(%ebp), %eax
	movl	$0, 12(%eax)
LBE11:
	.loc 2 52 9
	nop
	leave
	.cfi_restore 5
	.cfi_def_cfa 4, 4
	ret	$8
	.cfi_endproc
LFE584:
	.section	.text$_ZN8Palmtree4Math4Core8Internal9ExceptionC2EiPKwS5_,"x"
	.linkonce discard
	.align 2
	.globl	__ZN8Palmtree4Math4Core8Internal9ExceptionC2EiPKwS5_
	.def	__ZN8Palmtree4Math4Core8Internal9ExceptionC2EiPKwS5_;	.scl	2;	.type	32;	.endef
__ZN8Palmtree4Math4Core8Internal9ExceptionC2EiPKwS5_:
LFB587:
	.loc 2 54 9
	.cfi_startproc
	pushl	%ebp
	.cfi_def_cfa_offset 8
	.cfi_offset 5, -8
	movl	%esp, %ebp
	.cfi_def_cfa_register 5
	subl	$24, %esp
	movl	%ecx, -12(%ebp)
LBB12:
	.loc 2 55 9
	movl	-12(%ebp), %eax
	movl	%eax, %ecx
	call	__ZNSt9exceptionC2Ev
	movl	$__ZTVN8Palmtree4Math4Core8Internal9ExceptionE+8, %edx
	movl	-12(%ebp), %eax
	movl	%edx, (%eax)
	.loc 2 56 19
	movl	-12(%ebp), %eax
	movl	8(%ebp), %edx
	movl	%edx, 4(%eax)
	.loc 2 57 22
	movl	-12(%ebp), %eax
	movl	12(%ebp), %edx
	movl	%edx, 8(%eax)
	.loc 2 58 19
	movl	-12(%ebp), %eax
	movl	16(%ebp), %edx
	movl	%edx, 12(%eax)
LBE12:
	.loc 2 59 9
	nop
	leave
	.cfi_restore 5
	.cfi_def_cfa 4, 4
	ret	$12
	.cfi_endproc
LFE587:
	.section	.text$_ZN8Palmtree4Math4Core8Internal9ExceptionD2Ev,"x"
	.linkonce discard
	.align 2
	.globl	__ZN8Palmtree4Math4Core8Internal9ExceptionD2Ev
	.def	__ZN8Palmtree4Math4Core8Internal9ExceptionD2Ev;	.scl	2;	.type	32;	.endef
__ZN8Palmtree4Math4Core8Internal9ExceptionD2Ev:
LFB593:
	.loc 2 69 17
	.cfi_startproc
	pushl	%ebp
	.cfi_def_cfa_offset 8
	.cfi_offset 5, -8
	movl	%esp, %ebp
	.cfi_def_cfa_register 5
	subl	$24, %esp
	movl	%ecx, -12(%ebp)
LBB13:
	.loc 2 70 9
	movl	$__ZTVN8Palmtree4Math4Core8Internal9ExceptionE+8, %edx
	movl	-12(%ebp), %eax
	movl	%edx, (%eax)
	movl	-12(%ebp), %eax
	movl	%eax, %ecx
	call	__ZNSt9exceptionD2Ev
LBE13:
	.loc 2 71 9
	nop
	leave
	.cfi_restore 5
	.cfi_def_cfa 4, 4
	ret
	.cfi_endproc
LFE593:
	.section	.text$_ZN8Palmtree4Math4Core8Internal9ExceptionD1Ev,"x"
	.linkonce discard
	.align 2
	.globl	__ZN8Palmtree4Math4Core8Internal9ExceptionD1Ev
	.def	__ZN8Palmtree4Math4Core8Internal9ExceptionD1Ev;	.scl	2;	.type	32;	.endef
__ZN8Palmtree4Math4Core8Internal9ExceptionD1Ev:
LFB594:
	.loc 2 69 17
	.cfi_startproc
	pushl	%ebp
	.cfi_def_cfa_offset 8
	.cfi_offset 5, -8
	movl	%esp, %ebp
	.cfi_def_cfa_register 5
	subl	$24, %esp
	movl	%ecx, -12(%ebp)
LBB14:
	.loc 2 70 9
	movl	$__ZTVN8Palmtree4Math4Core8Internal9ExceptionE+8, %edx
	movl	-12(%ebp), %eax
	movl	%edx, (%eax)
	movl	-12(%ebp), %eax
	movl	%eax, %ecx
	call	__ZNSt9exceptionD2Ev
LBE14:
	.loc 2 71 9
	nop
	leave
	.cfi_restore 5
	.cfi_def_cfa 4, 4
	ret
	.cfi_endproc
LFE594:
	.section	.text$_ZN8Palmtree4Math4Core8Internal9ExceptionD0Ev,"x"
	.linkonce discard
	.align 2
	.globl	__ZN8Palmtree4Math4Core8Internal9ExceptionD0Ev
	.def	__ZN8Palmtree4Math4Core8Internal9ExceptionD0Ev;	.scl	2;	.type	32;	.endef
__ZN8Palmtree4Math4Core8Internal9ExceptionD0Ev:
LFB595:
	.loc 2 69 17
	.cfi_startproc
	pushl	%ebp
	.cfi_def_cfa_offset 8
	.cfi_offset 5, -8
	movl	%esp, %ebp
	.cfi_def_cfa_register 5
	subl	$40, %esp
	movl	%ecx, -12(%ebp)
	.loc 2 71 9
	movl	-12(%ebp), %eax
	movl	%eax, %ecx
	call	__ZN8Palmtree4Math4Core8Internal9ExceptionD1Ev
	movl	$16, 4(%esp)
	movl	-12(%ebp), %eax
	movl	%eax, (%esp)
	call	__ZdlPvj
	leave
	.cfi_restore 5
	.cfi_def_cfa 4, 4
	ret
	.cfi_endproc
LFE595:
	.section	.text$_ZNK8Palmtree4Math4Core8Internal9Exception13GetStatusCodeEv,"x"
	.linkonce discard
	.align 2
	.globl	__ZNK8Palmtree4Math4Core8Internal9Exception13GetStatusCodeEv
	.def	__ZNK8Palmtree4Math4Core8Internal9Exception13GetStatusCodeEv;	.scl	2;	.type	32;	.endef
__ZNK8Palmtree4Math4Core8Internal9Exception13GetStatusCodeEv:
LFB596:
	.loc 2 73 25
	.cfi_startproc
	pushl	%ebp
	.cfi_def_cfa_offset 8
	.cfi_offset 5, -8
	movl	%esp, %ebp
	.cfi_def_cfa_register 5
	subl	$4, %esp
	movl	%ecx, -4(%ebp)
	.loc 2 75 26
	movl	-4(%ebp), %eax
	movl	4(%eax), %eax
	.loc 2 76 9
	leave
	.cfi_restore 5
	.cfi_def_cfa 4, 4
	ret
	.cfi_endproc
LFE596:
	.section	.text$_ZN8Palmtree4Math4Core8Internal17ArgumentExceptionC1EPKw,"x"
	.linkonce discard
	.align 2
	.globl	__ZN8Palmtree4Math4Core8Internal17ArgumentExceptionC1EPKw
	.def	__ZN8Palmtree4Math4Core8Internal17ArgumentExceptionC1EPKw;	.scl	2;	.type	32;	.endef
__ZN8Palmtree4Math4Core8Internal17ArgumentExceptionC1EPKw:
LFB601:
	.loc 2 94 9
	.cfi_startproc
	pushl	%ebp
	.cfi_def_cfa_offset 8
	.cfi_offset 5, -8
	movl	%esp, %ebp
	.cfi_def_cfa_register 5
	subl	$40, %esp
	movl	%ecx, -12(%ebp)
LBB15:
	.loc 2 95 38
	movl	-12(%ebp), %eax
	movl	8(%ebp), %edx
	movl	%edx, 4(%esp)
	movl	$-1, (%esp)
	movl	%eax, %ecx
	call	__ZN8Palmtree4Math4Core8Internal9ExceptionC2EiPKw
	subl	$8, %esp
	movl	$__ZTVN8Palmtree4Math4Core8Internal17ArgumentExceptionE+8, %edx
	movl	-12(%ebp), %eax
	movl	%edx, (%eax)
LBE15:
	.loc 2 97 9
	nop
	leave
	.cfi_restore 5
	.cfi_def_cfa 4, 4
	ret	$4
	.cfi_endproc
LFE601:
	.section	.text$_ZN8Palmtree4Math4Core8Internal17ArgumentExceptionD1Ev,"x"
	.linkonce discard
	.align 2
	.globl	__ZN8Palmtree4Math4Core8Internal17ArgumentExceptionD1Ev
	.def	__ZN8Palmtree4Math4Core8Internal17ArgumentExceptionD1Ev;	.scl	2;	.type	32;	.endef
__ZN8Palmtree4Math4Core8Internal17ArgumentExceptionD1Ev:
LFB607:
	.loc 2 104 17
	.cfi_startproc
	pushl	%ebp
	.cfi_def_cfa_offset 8
	.cfi_offset 5, -8
	movl	%esp, %ebp
	.cfi_def_cfa_register 5
	subl	$24, %esp
	movl	%ecx, -12(%ebp)
LBB16:
	.loc 2 105 9
	movl	$__ZTVN8Palmtree4Math4Core8Internal17ArgumentExceptionE+8, %edx
	movl	-12(%ebp), %eax
	movl	%edx, (%eax)
	movl	-12(%ebp), %eax
	movl	%eax, %ecx
	call	__ZN8Palmtree4Math4Core8Internal9ExceptionD2Ev
LBE16:
	.loc 2 106 9
	nop
	leave
	.cfi_restore 5
	.cfi_def_cfa 4, 4
	ret
	.cfi_endproc
LFE607:
	.section	.text$_ZN8Palmtree4Math4Core8Internal17ArgumentExceptionD0Ev,"x"
	.linkonce discard
	.align 2
	.globl	__ZN8Palmtree4Math4Core8Internal17ArgumentExceptionD0Ev
	.def	__ZN8Palmtree4Math4Core8Internal17ArgumentExceptionD0Ev;	.scl	2;	.type	32;	.endef
__ZN8Palmtree4Math4Core8Internal17ArgumentExceptionD0Ev:
LFB608:
	.loc 2 104 17
	.cfi_startproc
	pushl	%ebp
	.cfi_def_cfa_offset 8
	.cfi_offset 5, -8
	movl	%esp, %ebp
	.cfi_def_cfa_register 5
	subl	$40, %esp
	movl	%ecx, -12(%ebp)
	.loc 2 106 9
	movl	-12(%ebp), %eax
	movl	%eax, %ecx
	call	__ZN8Palmtree4Math4Core8Internal17ArgumentExceptionD1Ev
	movl	$16, 4(%esp)
	movl	-12(%ebp), %eax
	movl	%eax, (%esp)
	call	__ZdlPvj
	leave
	.cfi_restore 5
	.cfi_def_cfa 4, 4
	ret
	.cfi_endproc
LFE608:
	.section	.text$_ZN8Palmtree4Math4Core8Internal21ArgumentNullExceptionC1EPKwS5_,"x"
	.linkonce discard
	.align 2
	.globl	__ZN8Palmtree4Math4Core8Internal21ArgumentNullExceptionC1EPKwS5_
	.def	__ZN8Palmtree4Math4Core8Internal21ArgumentNullExceptionC1EPKwS5_;	.scl	2;	.type	32;	.endef
__ZN8Palmtree4Math4Core8Internal21ArgumentNullExceptionC1EPKwS5_:
LFB611:
	.loc 2 113 9
	.cfi_startproc
	pushl	%ebp
	.cfi_def_cfa_offset 8
	.cfi_offset 5, -8
	movl	%esp, %ebp
	.cfi_def_cfa_register 5
	subl	$40, %esp
	movl	%ecx, -12(%ebp)
LBB17:
	.loc 2 114 50
	movl	-12(%ebp), %eax
	movl	12(%ebp), %edx
	movl	%edx, 8(%esp)
	movl	8(%ebp), %edx
	movl	%edx, 4(%esp)
	movl	$-2, (%esp)
	movl	%eax, %ecx
	call	__ZN8Palmtree4Math4Core8Internal9ExceptionC2EiPKwS5_
	subl	$12, %esp
	movl	$__ZTVN8Palmtree4Math4Core8Internal21ArgumentNullExceptionE+8, %edx
	movl	-12(%ebp), %eax
	movl	%edx, (%eax)
LBE17:
	.loc 2 116 9
	nop
	leave
	.cfi_restore 5
	.cfi_def_cfa 4, 4
	ret	$8
	.cfi_endproc
LFE611:
	.section	.text$_ZN8Palmtree4Math4Core8Internal21ArgumentNullExceptionD1Ev,"x"
	.linkonce discard
	.align 2
	.globl	__ZN8Palmtree4Math4Core8Internal21ArgumentNullExceptionD1Ev
	.def	__ZN8Palmtree4Math4Core8Internal21ArgumentNullExceptionD1Ev;	.scl	2;	.type	32;	.endef
__ZN8Palmtree4Math4Core8Internal21ArgumentNullExceptionD1Ev:
LFB617:
	.loc 2 123 17
	.cfi_startproc
	pushl	%ebp
	.cfi_def_cfa_offset 8
	.cfi_offset 5, -8
	movl	%esp, %ebp
	.cfi_def_cfa_register 5
	subl	$24, %esp
	movl	%ecx, -12(%ebp)
LBB18:
	.loc 2 124 9
	movl	$__ZTVN8Palmtree4Math4Core8Internal21ArgumentNullExceptionE+8, %edx
	movl	-12(%ebp), %eax
	movl	%edx, (%eax)
	movl	-12(%ebp), %eax
	movl	%eax, %ecx
	call	__ZN8Palmtree4Math4Core8Internal9ExceptionD2Ev
LBE18:
	.loc 2 125 9
	nop
	leave
	.cfi_restore 5
	.cfi_def_cfa 4, 4
	ret
	.cfi_endproc
LFE617:
	.section	.text$_ZN8Palmtree4Math4Core8Internal21ArgumentNullExceptionD0Ev,"x"
	.linkonce discard
	.align 2
	.globl	__ZN8Palmtree4Math4Core8Internal21ArgumentNullExceptionD0Ev
	.def	__ZN8Palmtree4Math4Core8Internal21ArgumentNullExceptionD0Ev;	.scl	2;	.type	32;	.endef
__ZN8Palmtree4Math4Core8Internal21ArgumentNullExceptionD0Ev:
LFB618:
	.loc 2 123 17
	.cfi_startproc
	pushl	%ebp
	.cfi_def_cfa_offset 8
	.cfi_offset 5, -8
	movl	%esp, %ebp
	.cfi_def_cfa_register 5
	subl	$40, %esp
	movl	%ecx, -12(%ebp)
	.loc 2 125 9
	movl	-12(%ebp), %eax
	movl	%eax, %ecx
	call	__ZN8Palmtree4Math4Core8Internal21ArgumentNullExceptionD1Ev
	movl	$16, 4(%esp)
	movl	-12(%ebp), %eax
	movl	%eax, (%esp)
	call	__ZdlPvj
	leave
	.cfi_restore 5
	.cfi_def_cfa 4, 4
	ret
	.cfi_endproc
LFE618:
	.section	.text$_ZN8Palmtree4Math4Core8Internal24NotEnoughMemoryExceptionC1EPKw,"x"
	.linkonce discard
	.align 2
	.globl	__ZN8Palmtree4Math4Core8Internal24NotEnoughMemoryExceptionC1EPKw
	.def	__ZN8Palmtree4Math4Core8Internal24NotEnoughMemoryExceptionC1EPKw;	.scl	2;	.type	32;	.endef
__ZN8Palmtree4Math4Core8Internal24NotEnoughMemoryExceptionC1EPKw:
LFB681:
	.loc 2 246 9
	.cfi_startproc
	pushl	%ebp
	.cfi_def_cfa_offset 8
	.cfi_offset 5, -8
	movl	%esp, %ebp
	.cfi_def_cfa_register 5
	subl	$40, %esp
	movl	%ecx, -12(%ebp)
LBB19:
	.loc 2 247 38
	movl	-12(%ebp), %eax
	movl	8(%ebp), %edx
	movl	%edx, 4(%esp)
	movl	$-9, (%esp)
	movl	%eax, %ecx
	call	__ZN8Palmtree4Math4Core8Internal9ExceptionC2EiPKw
	subl	$8, %esp
	movl	$__ZTVN8Palmtree4Math4Core8Internal24NotEnoughMemoryExceptionE+8, %edx
	movl	-12(%ebp), %eax
	movl	%edx, (%eax)
LBE19:
	.loc 2 249 9
	nop
	leave
	.cfi_restore 5
	.cfi_def_cfa 4, 4
	ret	$4
	.cfi_endproc
LFE681:
	.section	.text$_ZN8Palmtree4Math4Core8Internal24NotEnoughMemoryExceptionD1Ev,"x"
	.linkonce discard
	.align 2
	.globl	__ZN8Palmtree4Math4Core8Internal24NotEnoughMemoryExceptionD1Ev
	.def	__ZN8Palmtree4Math4Core8Internal24NotEnoughMemoryExceptionD1Ev;	.scl	2;	.type	32;	.endef
__ZN8Palmtree4Math4Core8Internal24NotEnoughMemoryExceptionD1Ev:
LFB687:
	.loc 2 256 17
	.cfi_startproc
	pushl	%ebp
	.cfi_def_cfa_offset 8
	.cfi_offset 5, -8
	movl	%esp, %ebp
	.cfi_def_cfa_register 5
	subl	$24, %esp
	movl	%ecx, -12(%ebp)
LBB20:
	.loc 2 257 9
	movl	$__ZTVN8Palmtree4Math4Core8Internal24NotEnoughMemoryExceptionE+8, %edx
	movl	-12(%ebp), %eax
	movl	%edx, (%eax)
	movl	-12(%ebp), %eax
	movl	%eax, %ecx
	call	__ZN8Palmtree4Math4Core8Internal9ExceptionD2Ev
LBE20:
	.loc 2 258 9
	nop
	leave
	.cfi_restore 5
	.cfi_def_cfa 4, 4
	ret
	.cfi_endproc
LFE687:
	.section	.text$_ZN8Palmtree4Math4Core8Internal24NotEnoughMemoryExceptionD0Ev,"x"
	.linkonce discard
	.align 2
	.globl	__ZN8Palmtree4Math4Core8Internal24NotEnoughMemoryExceptionD0Ev
	.def	__ZN8Palmtree4Math4Core8Internal24NotEnoughMemoryExceptionD0Ev;	.scl	2;	.type	32;	.endef
__ZN8Palmtree4Math4Core8Internal24NotEnoughMemoryExceptionD0Ev:
LFB688:
	.loc 2 256 17
	.cfi_startproc
	pushl	%ebp
	.cfi_def_cfa_offset 8
	.cfi_offset 5, -8
	movl	%esp, %ebp
	.cfi_def_cfa_register 5
	subl	$40, %esp
	movl	%ecx, -12(%ebp)
	.loc 2 258 9
	movl	-12(%ebp), %eax
	movl	%eax, %ecx
	call	__ZN8Palmtree4Math4Core8Internal24NotEnoughMemoryExceptionD1Ev
	movl	$16, 4(%esp)
	movl	-12(%ebp), %eax
	movl	%eax, (%esp)
	call	__ZdlPvj
	leave
	.cfi_restore 5
	.cfi_def_cfa 4, 4
	ret
	.cfi_endproc
LFE688:
	.section	.text$_ZN8Palmtree4Math4Core8Internal22InternalErrorExceptionC1EPKwS5_,"x"
	.linkonce discard
	.align 2
	.globl	__ZN8Palmtree4Math4Core8Internal22InternalErrorExceptionC1EPKwS5_
	.def	__ZN8Palmtree4Math4Core8Internal22InternalErrorExceptionC1EPKwS5_;	.scl	2;	.type	32;	.endef
__ZN8Palmtree4Math4Core8Internal22InternalErrorExceptionC1EPKwS5_:
LFB701:
	.loc 2 284 9
	.cfi_startproc
	pushl	%ebp
	.cfi_def_cfa_offset 8
	.cfi_offset 5, -8
	movl	%esp, %ebp
	.cfi_def_cfa_register 5
	subl	$40, %esp
	movl	%ecx, -12(%ebp)
LBB21:
	.loc 2 285 46
	movl	-12(%ebp), %eax
	movl	12(%ebp), %edx
	movl	%edx, 8(%esp)
	movl	8(%ebp), %edx
	movl	%edx, 4(%esp)
	movl	$-256, (%esp)
	movl	%eax, %ecx
	call	__ZN8Palmtree4Math4Core8Internal9ExceptionC2EiPKwS5_
	subl	$12, %esp
	movl	$__ZTVN8Palmtree4Math4Core8Internal22InternalErrorExceptionE+8, %edx
	movl	-12(%ebp), %eax
	movl	%edx, (%eax)
LBE21:
	.loc 2 287 9
	nop
	leave
	.cfi_restore 5
	.cfi_def_cfa 4, 4
	ret	$8
	.cfi_endproc
LFE701:
	.section	.text$_ZN8Palmtree4Math4Core8Internal22InternalErrorExceptionD1Ev,"x"
	.linkonce discard
	.align 2
	.globl	__ZN8Palmtree4Math4Core8Internal22InternalErrorExceptionD1Ev
	.def	__ZN8Palmtree4Math4Core8Internal22InternalErrorExceptionD1Ev;	.scl	2;	.type	32;	.endef
__ZN8Palmtree4Math4Core8Internal22InternalErrorExceptionD1Ev:
LFB707:
	.loc 2 294 17
	.cfi_startproc
	pushl	%ebp
	.cfi_def_cfa_offset 8
	.cfi_offset 5, -8
	movl	%esp, %ebp
	.cfi_def_cfa_register 5
	subl	$24, %esp
	movl	%ecx, -12(%ebp)
LBB22:
	.loc 2 295 9
	movl	$__ZTVN8Palmtree4Math4Core8Internal22InternalErrorExceptionE+8, %edx
	movl	-12(%ebp), %eax
	movl	%edx, (%eax)
	movl	-12(%ebp), %eax
	movl	%eax, %ecx
	call	__ZN8Palmtree4Math4Core8Internal9ExceptionD2Ev
LBE22:
	.loc 2 296 9
	nop
	leave
	.cfi_restore 5
	.cfi_def_cfa 4, 4
	ret
	.cfi_endproc
LFE707:
	.section	.text$_ZN8Palmtree4Math4Core8Internal22InternalErrorExceptionD0Ev,"x"
	.linkonce discard
	.align 2
	.globl	__ZN8Palmtree4Math4Core8Internal22InternalErrorExceptionD0Ev
	.def	__ZN8Palmtree4Math4Core8Internal22InternalErrorExceptionD0Ev;	.scl	2;	.type	32;	.endef
__ZN8Palmtree4Math4Core8Internal22InternalErrorExceptionD0Ev:
LFB708:
	.loc 2 294 17
	.cfi_startproc
	pushl	%ebp
	.cfi_def_cfa_offset 8
	.cfi_offset 5, -8
	movl	%esp, %ebp
	.cfi_def_cfa_register 5
	subl	$40, %esp
	movl	%ecx, -12(%ebp)
	.loc 2 296 9
	movl	-12(%ebp), %eax
	movl	%eax, %ecx
	call	__ZN8Palmtree4Math4Core8Internal22InternalErrorExceptionD1Ev
	movl	$16, 4(%esp)
	movl	-12(%ebp), %eax
	movl	%eax, (%esp)
	call	__ZdlPvj
	leave
	.cfi_restore 5
	.cfi_def_cfa 4, 4
	ret
	.cfi_endproc
LFE708:
	.section	.text$_ZN8Palmtree4Math4Core8Internal18BadBufferExceptionC1EPKwS5_,"x"
	.linkonce discard
	.align 2
	.globl	__ZN8Palmtree4Math4Core8Internal18BadBufferExceptionC1EPKwS5_
	.def	__ZN8Palmtree4Math4Core8Internal18BadBufferExceptionC1EPKwS5_;	.scl	2;	.type	32;	.endef
__ZN8Palmtree4Math4Core8Internal18BadBufferExceptionC1EPKwS5_:
LFB711:
	.loc 2 305 9
	.cfi_startproc
	pushl	%ebp
	.cfi_def_cfa_offset 8
	.cfi_offset 5, -8
	movl	%esp, %ebp
	.cfi_def_cfa_register 5
	subl	$40, %esp
	movl	%ecx, -12(%ebp)
LBB23:
	.loc 2 306 46
	movl	-12(%ebp), %eax
	movl	12(%ebp), %edx
	movl	%edx, 8(%esp)
	movl	8(%ebp), %edx
	movl	%edx, 4(%esp)
	movl	$-257, (%esp)
	movl	%eax, %ecx
	call	__ZN8Palmtree4Math4Core8Internal9ExceptionC2EiPKwS5_
	subl	$12, %esp
	movl	$__ZTVN8Palmtree4Math4Core8Internal18BadBufferExceptionE+8, %edx
	movl	-12(%ebp), %eax
	movl	%edx, (%eax)
LBE23:
	.loc 2 308 9
	nop
	leave
	.cfi_restore 5
	.cfi_def_cfa 4, 4
	ret	$8
	.cfi_endproc
LFE711:
	.section	.text$_ZN8Palmtree4Math4Core8Internal18BadBufferExceptionD1Ev,"x"
	.linkonce discard
	.align 2
	.globl	__ZN8Palmtree4Math4Core8Internal18BadBufferExceptionD1Ev
	.def	__ZN8Palmtree4Math4Core8Internal18BadBufferExceptionD1Ev;	.scl	2;	.type	32;	.endef
__ZN8Palmtree4Math4Core8Internal18BadBufferExceptionD1Ev:
LFB717:
	.loc 2 315 17
	.cfi_startproc
	pushl	%ebp
	.cfi_def_cfa_offset 8
	.cfi_offset 5, -8
	movl	%esp, %ebp
	.cfi_def_cfa_register 5
	subl	$24, %esp
	movl	%ecx, -12(%ebp)
LBB24:
	.loc 2 316 9
	movl	$__ZTVN8Palmtree4Math4Core8Internal18BadBufferExceptionE+8, %edx
	movl	-12(%ebp), %eax
	movl	%edx, (%eax)
	movl	-12(%ebp), %eax
	movl	%eax, %ecx
	call	__ZN8Palmtree4Math4Core8Internal9ExceptionD2Ev
LBE24:
	.loc 2 317 9
	nop
	leave
	.cfi_restore 5
	.cfi_def_cfa 4, 4
	ret
	.cfi_endproc
LFE717:
	.section	.text$_ZN8Palmtree4Math4Core8Internal18BadBufferExceptionD0Ev,"x"
	.linkonce discard
	.align 2
	.globl	__ZN8Palmtree4Math4Core8Internal18BadBufferExceptionD0Ev
	.def	__ZN8Palmtree4Math4Core8Internal18BadBufferExceptionD0Ev;	.scl	2;	.type	32;	.endef
__ZN8Palmtree4Math4Core8Internal18BadBufferExceptionD0Ev:
LFB718:
	.loc 2 315 17
	.cfi_startproc
	pushl	%ebp
	.cfi_def_cfa_offset 8
	.cfi_offset 5, -8
	movl	%esp, %ebp
	.cfi_def_cfa_register 5
	subl	$40, %esp
	movl	%ecx, -12(%ebp)
	.loc 2 317 9
	movl	-12(%ebp), %eax
	movl	%eax, %ecx
	call	__ZN8Palmtree4Math4Core8Internal18BadBufferExceptionD1Ev
	movl	$20, 4(%esp)
	movl	-12(%ebp), %eax
	movl	%eax, (%esp)
	call	__ZdlPvj
	leave
	.cfi_restore 5
	.cfi_def_cfa 4, 4
	ret
	.cfi_endproc
LFE718:
	.section	.text$_ZN8Palmtree4Math4Core8Internal14ResourceHolder16__ChainBufferTagC2Ev,"x"
	.linkonce discard
	.align 2
	.globl	__ZN8Palmtree4Math4Core8Internal14ResourceHolder16__ChainBufferTagC2Ev
	.def	__ZN8Palmtree4Math4Core8Internal14ResourceHolder16__ChainBufferTagC2Ev;	.scl	2;	.type	32;	.endef
__ZN8Palmtree4Math4Core8Internal14ResourceHolder16__ChainBufferTagC2Ev:
LFB738:
	.file 3 "../pmc_resourceholder.h"
	.loc 3 57 13
	.cfi_startproc
	pushl	%ebp
	.cfi_def_cfa_offset 8
	.cfi_offset 5, -8
	movl	%esp, %ebp
	.cfi_def_cfa_register 5
	subl	$4, %esp
	movl	%ecx, -4(%ebp)
LBB25:
	.loc 3 58 13
	movl	$__ZTVN8Palmtree4Math4Core8Internal14ResourceHolder16__ChainBufferTagE+8, %edx
	movl	-4(%ebp), %eax
	movl	%edx, (%eax)
	.loc 3 59 23
	movl	-4(%ebp), %eax
	movl	-4(%ebp), %edx
	movl	%edx, 4(%eax)
	.loc 3 60 23
	movl	-4(%ebp), %eax
	movl	-4(%ebp), %edx
	movl	%edx, 8(%eax)
LBE25:
	.loc 3 61 13
	nop
	leave
	.cfi_restore 5
	.cfi_def_cfa 4, 4
	ret
	.cfi_endproc
LFE738:
	.section	.text$_ZN8Palmtree4Math4Core8Internal14ResourceHolder16__ChainBufferTagD2Ev,"x"
	.linkonce discard
	.align 2
	.globl	__ZN8Palmtree4Math4Core8Internal14ResourceHolder16__ChainBufferTagD2Ev
	.def	__ZN8Palmtree4Math4Core8Internal14ResourceHolder16__ChainBufferTagD2Ev;	.scl	2;	.type	32;	.endef
__ZN8Palmtree4Math4Core8Internal14ResourceHolder16__ChainBufferTagD2Ev:
LFB741:
	.loc 3 63 21
	.cfi_startproc
	pushl	%ebp
	.cfi_def_cfa_offset 8
	.cfi_offset 5, -8
	movl	%esp, %ebp
	.cfi_def_cfa_register 5
	subl	$24, %esp
	movl	%ecx, -12(%ebp)
LBB26:
	.loc 3 64 13
	movl	$__ZTVN8Palmtree4Math4Core8Internal14ResourceHolder16__ChainBufferTagE+8, %edx
	movl	-12(%ebp), %eax
	movl	%edx, (%eax)
	.loc 3 65 23
	movl	-12(%ebp), %eax
	movl	%eax, %ecx
	call	__ZN8Palmtree4Math4Core8Internal14ResourceHolder16__ChainBufferTag6UnlinkEv
LBE26:
	.loc 3 66 13
	nop
	leave
	.cfi_restore 5
	.cfi_def_cfa 4, 4
	ret
	.cfi_endproc
LFE741:
	.section	.text$_ZN8Palmtree4Math4Core8Internal14ResourceHolder16__ChainBufferTag4LinkEPS4_,"x"
	.linkonce discard
	.align 2
	.globl	__ZN8Palmtree4Math4Core8Internal14ResourceHolder16__ChainBufferTag4LinkEPS4_
	.def	__ZN8Palmtree4Math4Core8Internal14ResourceHolder16__ChainBufferTag4LinkEPS4_;	.scl	2;	.type	32;	.endef
__ZN8Palmtree4Math4Core8Internal14ResourceHolder16__ChainBufferTag4LinkEPS4_:
LFB744:
	.loc 3 68 18
	.cfi_startproc
	pushl	%ebp
	.cfi_def_cfa_offset 8
	.cfi_offset 5, -8
	movl	%esp, %ebp
	.cfi_def_cfa_register 5
	subl	$4, %esp
	movl	%ecx, -4(%ebp)
	.loc 3 70 30
	movl	-4(%ebp), %eax
	movl	4(%eax), %edx
	.loc 3 70 28
	movl	8(%ebp), %eax
	movl	%edx, 4(%eax)
	.loc 3 71 28
	movl	8(%ebp), %eax
	movl	-4(%ebp), %edx
	movl	%edx, 8(%eax)
	.loc 3 72 22
	movl	8(%ebp), %eax
	movl	4(%eax), %eax
	.loc 3 72 35
	movl	8(%ebp), %edx
	movl	%edx, 8(%eax)
	.loc 3 73 22
	movl	8(%ebp), %eax
	movl	8(%eax), %eax
	.loc 3 73 35
	movl	8(%ebp), %edx
	movl	%edx, 4(%eax)
	.loc 3 74 13
	nop
	leave
	.cfi_restore 5
	.cfi_def_cfa 4, 4
	ret	$4
	.cfi_endproc
LFE744:
	.section	.text$_ZN8Palmtree4Math4Core8Internal14ResourceHolder16__ChainBufferTag6UnlinkEv,"x"
	.linkonce discard
	.align 2
	.globl	__ZN8Palmtree4Math4Core8Internal14ResourceHolder16__ChainBufferTag6UnlinkEv
	.def	__ZN8Palmtree4Math4Core8Internal14ResourceHolder16__ChainBufferTag6UnlinkEv;	.scl	2;	.type	32;	.endef
__ZN8Palmtree4Math4Core8Internal14ResourceHolder16__ChainBufferTag6UnlinkEv:
LFB745:
	.loc 3 76 18
	.cfi_startproc
	pushl	%ebp
	.cfi_def_cfa_offset 8
	.cfi_offset 5, -8
	movl	%esp, %ebp
	.cfi_def_cfa_register 5
	subl	$4, %esp
	movl	%ecx, -4(%ebp)
	.loc 3 78 21
	movl	-4(%ebp), %eax
	movl	4(%eax), %eax
	.loc 3 78 17
	cmpl	%eax, -4(%ebp)
	je	L29
	.loc 3 80 21
	movl	-4(%ebp), %eax
	movl	4(%eax), %eax
	.loc 3 80 36
	movl	-4(%ebp), %edx
	movl	8(%edx), %edx
	.loc 3 80 34
	movl	%edx, 8(%eax)
	.loc 3 81 21
	movl	-4(%ebp), %eax
	movl	8(%eax), %eax
	.loc 3 81 36
	movl	-4(%ebp), %edx
	movl	4(%edx), %edx
	.loc 3 81 34
	movl	%edx, 4(%eax)
	.loc 3 82 27
	movl	-4(%ebp), %eax
	movl	-4(%ebp), %edx
	movl	%edx, 4(%eax)
	.loc 3 83 27
	movl	-4(%ebp), %eax
	movl	-4(%ebp), %edx
	movl	%edx, 8(%eax)
L29:
	.loc 3 85 13
	nop
	leave
	.cfi_restore 5
	.cfi_def_cfa 4, 4
	ret
	.cfi_endproc
LFE745:
	.section	.text$_ZN8Palmtree4Math4Core8Internal14ResourceHolder16__ChainBufferTag4NextEv,"x"
	.linkonce discard
	.align 2
	.globl	__ZN8Palmtree4Math4Core8Internal14ResourceHolder16__ChainBufferTag4NextEv
	.def	__ZN8Palmtree4Math4Core8Internal14ResourceHolder16__ChainBufferTag4NextEv;	.scl	2;	.type	32;	.endef
__ZN8Palmtree4Math4Core8Internal14ResourceHolder16__ChainBufferTag4NextEv:
LFB746:
	.loc 3 87 31
	.cfi_startproc
	pushl	%ebp
	.cfi_def_cfa_offset 8
	.cfi_offset 5, -8
	movl	%esp, %ebp
	.cfi_def_cfa_register 5
	subl	$4, %esp
	movl	%ecx, -4(%ebp)
	.loc 3 89 30
	movl	-4(%ebp), %eax
	movl	4(%eax), %eax
	.loc 3 90 13
	leave
	.cfi_restore 5
	.cfi_def_cfa 4, 4
	ret
	.cfi_endproc
LFE746:
	.section	.text$_ZN8Palmtree4Math4Core8Internal14ResourceHolder16__ChainBufferTag5ClearEv,"x"
	.linkonce discard
	.align 2
	.globl	__ZN8Palmtree4Math4Core8Internal14ResourceHolder16__ChainBufferTag5ClearEv
	.def	__ZN8Palmtree4Math4Core8Internal14ResourceHolder16__ChainBufferTag5ClearEv;	.scl	2;	.type	32;	.endef
__ZN8Palmtree4Math4Core8Internal14ResourceHolder16__ChainBufferTag5ClearEv:
LFB748:
	.loc 3 99 26
	.cfi_startproc
	pushl	%ebp
	.cfi_def_cfa_offset 8
	.cfi_offset 5, -8
	movl	%esp, %ebp
	.cfi_def_cfa_register 5
	subl	$4, %esp
	movl	%ecx, -4(%ebp)
	.loc 3 101 13
	nop
	leave
	.cfi_restore 5
	.cfi_def_cfa 4, 4
	ret
	.cfi_endproc
LFE748:
	.section	.text$_ZN8Palmtree4Math4Core8Internal14ResourceHolder16__ChainBufferTag5CheckEv,"x"
	.linkonce discard
	.align 2
	.globl	__ZN8Palmtree4Math4Core8Internal14ResourceHolder16__ChainBufferTag5CheckEv
	.def	__ZN8Palmtree4Math4Core8Internal14ResourceHolder16__ChainBufferTag5CheckEv;	.scl	2;	.type	32;	.endef
__ZN8Palmtree4Math4Core8Internal14ResourceHolder16__ChainBufferTag5CheckEv:
LFB749:
	.loc 3 103 26
	.cfi_startproc
	pushl	%ebp
	.cfi_def_cfa_offset 8
	.cfi_offset 5, -8
	movl	%esp, %ebp
	.cfi_def_cfa_register 5
	subl	$4, %esp
	movl	%ecx, -4(%ebp)
	.loc 3 105 13
	nop
	leave
	.cfi_restore 5
	.cfi_def_cfa 4, 4
	ret
	.cfi_endproc
LFE749:
	.section	.text$_ZN8Palmtree4Math4Core8Internal14ResourceHolder9__RootTagC1Ev,"x"
	.linkonce discard
	.align 2
	.globl	__ZN8Palmtree4Math4Core8Internal14ResourceHolder9__RootTagC1Ev
	.def	__ZN8Palmtree4Math4Core8Internal14ResourceHolder9__RootTagC1Ev;	.scl	2;	.type	32;	.endef
__ZN8Palmtree4Math4Core8Internal14ResourceHolder9__RootTagC1Ev:
LFB752:
	.loc 3 114 13
	.cfi_startproc
	pushl	%ebp
	.cfi_def_cfa_offset 8
	.cfi_offset 5, -8
	movl	%esp, %ebp
	.cfi_def_cfa_register 5
	subl	$24, %esp
	movl	%ecx, -12(%ebp)
LBB27:
	.loc 3 115 13
	movl	-12(%ebp), %eax
	movl	%eax, %ecx
	call	__ZN8Palmtree4Math4Core8Internal14ResourceHolder16__ChainBufferTagC2Ev
	movl	$__ZTVN8Palmtree4Math4Core8Internal14ResourceHolder9__RootTagE+8, %edx
	movl	-12(%ebp), %eax
	movl	%edx, (%eax)
LBE27:
	.loc 3 116 13
	nop
	leave
	.cfi_restore 5
	.cfi_def_cfa 4, 4
	ret
	.cfi_endproc
LFE752:
	.section	.text$_ZN8Palmtree4Math4Core8Internal14ResourceHolder9__RootTagD1Ev,"x"
	.linkonce discard
	.align 2
	.globl	__ZN8Palmtree4Math4Core8Internal14ResourceHolder9__RootTagD1Ev
	.def	__ZN8Palmtree4Math4Core8Internal14ResourceHolder9__RootTagD1Ev;	.scl	2;	.type	32;	.endef
__ZN8Palmtree4Math4Core8Internal14ResourceHolder9__RootTagD1Ev:
LFB755:
	.loc 3 118 21
	.cfi_startproc
	pushl	%ebp
	.cfi_def_cfa_offset 8
	.cfi_offset 5, -8
	movl	%esp, %ebp
	.cfi_def_cfa_register 5
	subl	$24, %esp
	movl	%ecx, -12(%ebp)
LBB28:
	.loc 3 119 13
	movl	$__ZTVN8Palmtree4Math4Core8Internal14ResourceHolder9__RootTagE+8, %edx
	movl	-12(%ebp), %eax
	movl	%edx, (%eax)
	movl	-12(%ebp), %eax
	movl	%eax, %ecx
	call	__ZN8Palmtree4Math4Core8Internal14ResourceHolder16__ChainBufferTagD2Ev
LBE28:
	.loc 3 120 13
	nop
	leave
	.cfi_restore 5
	.cfi_def_cfa 4, 4
	ret
	.cfi_endproc
LFE755:
	.section	.text$_ZN8Palmtree4Math4Core8Internal14ResourceHolder9__RootTagD0Ev,"x"
	.linkonce discard
	.align 2
	.globl	__ZN8Palmtree4Math4Core8Internal14ResourceHolder9__RootTagD0Ev
	.def	__ZN8Palmtree4Math4Core8Internal14ResourceHolder9__RootTagD0Ev;	.scl	2;	.type	32;	.endef
__ZN8Palmtree4Math4Core8Internal14ResourceHolder9__RootTagD0Ev:
LFB756:
	.loc 3 118 21
	.cfi_startproc
	pushl	%ebp
	.cfi_def_cfa_offset 8
	.cfi_offset 5, -8
	movl	%esp, %ebp
	.cfi_def_cfa_register 5
	subl	$40, %esp
	movl	%ecx, -12(%ebp)
	.loc 3 120 13
	movl	-12(%ebp), %eax
	movl	%eax, %ecx
	call	__ZN8Palmtree4Math4Core8Internal14ResourceHolder9__RootTagD1Ev
	movl	$12, 4(%esp)
	movl	-12(%ebp), %eax
	movl	%eax, (%esp)
	call	__ZdlPvj
	leave
	.cfi_restore 5
	.cfi_def_cfa 4, 4
	ret
	.cfi_endproc
LFE756:
	.section .rdata,"dr"
	.align 4
LC0:
	.ascii "p\0m\0c\0_\0r\0e\0s\0o\0u\0r\0c\0e\0h\0o\0l\0d\0e\0r\0.\0h\0;\0R\0e\0s\0o\0u\0r\0c\0e\0H\0o\0l\0d\0e\0r\0:\0:\0_\0_\0R\0o\0o\0t\0T\0a\0g\0:\0:\0E\0q\0u\0a\0l\0s\0B\0u\0f\0f\0e\0r\0A\0d\0d\0r\0e\0s\0s\0;\0"
	.ascii "1\0\0\0"
	.align 4
LC1:
	.ascii "\210N\37gW0f0D0j0D0\263"
	.ascii "0\374"
	.ascii "0\311"
	.ascii "0k00RT\220W0~0W0_0\2"
	.ascii "0\0\0"
	.section	.text$_ZN8Palmtree4Math4Core8Internal14ResourceHolder9__RootTag19EqualsBufferAddressEPv,"x"
	.linkonce discard
	.align 2
	.globl	__ZN8Palmtree4Math4Core8Internal14ResourceHolder9__RootTag19EqualsBufferAddressEPv
	.def	__ZN8Palmtree4Math4Core8Internal14ResourceHolder9__RootTag19EqualsBufferAddressEPv;	.scl	2;	.type	32;	.endef
__ZN8Palmtree4Math4Core8Internal14ResourceHolder9__RootTag19EqualsBufferAddressEPv:
LFB757:
	.loc 3 122 26
	.cfi_startproc
	pushl	%ebp
	.cfi_def_cfa_offset 8
	.cfi_offset 5, -8
	movl	%esp, %ebp
	.cfi_def_cfa_register 5
	pushl	%ebx
	subl	$36, %esp
	.cfi_offset 3, -12
	movl	%ecx, -12(%ebp)
	.loc 3 124 177
	movl	$16, (%esp)
	call	___cxa_allocate_exception
	movl	%eax, %ebx
	movl	$LC0, 4(%esp)
	movl	$LC1, (%esp)
	movl	%ebx, %ecx
	call	__ZN8Palmtree4Math4Core8Internal22InternalErrorExceptionC1EPKwS5_
	subl	$8, %esp
	movl	$__ZN8Palmtree4Math4Core8Internal22InternalErrorExceptionD1Ev, 8(%esp)
	movl	$__ZTIN8Palmtree4Math4Core8Internal22InternalErrorExceptionE, 4(%esp)
	movl	%ebx, (%esp)
	call	___cxa_throw
	.cfi_endproc
LFE757:
	.section	.text$_ZN8Palmtree4Math4Core8Internal14ResourceHolder9__RootTag8DestructEv,"x"
	.linkonce discard
	.align 2
	.globl	__ZN8Palmtree4Math4Core8Internal14ResourceHolder9__RootTag8DestructEv
	.def	__ZN8Palmtree4Math4Core8Internal14ResourceHolder9__RootTag8DestructEv;	.scl	2;	.type	32;	.endef
__ZN8Palmtree4Math4Core8Internal14ResourceHolder9__RootTag8DestructEv:
LFB758:
	.loc 3 127 26
	.cfi_startproc
	pushl	%ebp
	.cfi_def_cfa_offset 8
	.cfi_offset 5, -8
	movl	%esp, %ebp
	.cfi_def_cfa_register 5
	subl	$4, %esp
	movl	%ecx, -4(%ebp)
	.loc 3 129 13
	nop
	leave
	.cfi_restore 5
	.cfi_def_cfa 4, 4
	ret
	.cfi_endproc
LFE758:
	.section	.text$_ZN8Palmtree4Math4Core8Internal14ResourceHolderC2Ev,"x"
	.linkonce discard
	.align 2
	.globl	__ZN8Palmtree4Math4Core8Internal14ResourceHolderC2Ev
	.def	__ZN8Palmtree4Math4Core8Internal14ResourceHolderC2Ev;	.scl	2;	.type	32;	.endef
__ZN8Palmtree4Math4Core8Internal14ResourceHolderC2Ev:
LFB760:
	.loc 3 136 9
	.cfi_startproc
	pushl	%ebp
	.cfi_def_cfa_offset 8
	.cfi_offset 5, -8
	movl	%esp, %ebp
	.cfi_def_cfa_register 5
	subl	$24, %esp
	movl	%ecx, -12(%ebp)
LBB29:
	.loc 3 137 9
	movl	$__ZTVN8Palmtree4Math4Core8Internal14ResourceHolderE+8, %edx
	movl	-12(%ebp), %eax
	movl	%edx, (%eax)
	movl	-12(%ebp), %eax
	addl	$4, %eax
	movl	%eax, %ecx
	call	__ZN8Palmtree4Math4Core8Internal14ResourceHolder9__RootTagC1Ev
LBE29:
	.loc 3 138 9
	nop
	leave
	.cfi_restore 5
	.cfi_def_cfa 4, 4
	ret
	.cfi_endproc
LFE760:
	.section	.text$_ZN8Palmtree4Math4Core8Internal14ResourceHolderD2Ev,"x"
	.linkonce discard
	.align 2
	.globl	__ZN8Palmtree4Math4Core8Internal14ResourceHolderD2Ev
	.def	__ZN8Palmtree4Math4Core8Internal14ResourceHolderD2Ev;	.scl	2;	.type	32;	.endef
__ZN8Palmtree4Math4Core8Internal14ResourceHolderD2Ev:
LFB763:
	.loc 3 141 17
	.cfi_startproc
	.cfi_personality 0,___gxx_personality_v0
	.cfi_lsda 0,LLSDA763
	pushl	%ebp
	.cfi_def_cfa_offset 8
	.cfi_offset 5, -8
	movl	%esp, %ebp
	.cfi_def_cfa_register 5
	subl	$40, %esp
	movl	%ecx, -28(%ebp)
LBB30:
	.loc 3 142 9
	movl	$__ZTVN8Palmtree4Math4Core8Internal14ResourceHolderE+8, %edx
	movl	-28(%ebp), %eax
	movl	%edx, (%eax)
LBB31:
	.loc 3 143 18
	leal	-13(%ebp), %eax
	movl	%eax, %ecx
	call	__ZN8Palmtree4Math4Core8Internal4LockC1Ev
L43:
	.loc 3 144 34
	movl	-28(%ebp), %eax
	addl	$4, %eax
	movl	%eax, %ecx
	call	__ZN8Palmtree4Math4Core8Internal14ResourceHolder16__ChainBufferTag4NextEv
	movl	%eax, %edx
	.loc 3 144 37
	movl	-28(%ebp), %eax
	addl	$4, %eax
	cmpl	%eax, %edx
	setne	%al
	testb	%al, %al
	je	L41
LBB32:
	.loc 3 146 55
	movl	-28(%ebp), %eax
	addl	$4, %eax
	movl	%eax, %ecx
	call	__ZN8Palmtree4Math4Core8Internal14ResourceHolder16__ChainBufferTag4NextEv
	movl	%eax, -12(%ebp)
	.loc 3 147 28
	movl	-12(%ebp), %eax
	movl	%eax, %ecx
	call	__ZN8Palmtree4Math4Core8Internal14ResourceHolder16__ChainBufferTag6UnlinkEv
	.loc 3 148 31
	movl	-12(%ebp), %eax
	movl	(%eax), %eax
	addl	$20, %eax
	movl	(%eax), %eax
	.loc 3 148 30
	movl	-12(%ebp), %edx
	movl	%edx, %ecx
	call	*%eax
LVL0:
	.loc 3 149 27
	cmpl	$0, -12(%ebp)
	je	L43
	.loc 3 149 24 discriminator 1
	movl	-12(%ebp), %eax
	movl	(%eax), %eax
	addl	$4, %eax
	movl	(%eax), %eax
	movl	-12(%ebp), %edx
	movl	%edx, %ecx
	call	*%eax
LVL1:
LBE32:
	.loc 3 144 13 discriminator 1
	jmp	L43
L41:
	.loc 3 143 18
	leal	-13(%ebp), %eax
	movl	%eax, %ecx
	call	__ZN8Palmtree4Math4Core8Internal4LockD1Ev
LBE31:
	.loc 3 142 9
	movl	-28(%ebp), %eax
	addl	$4, %eax
	movl	%eax, %ecx
	call	__ZN8Palmtree4Math4Core8Internal14ResourceHolder9__RootTagD1Ev
LBE30:
	.loc 3 151 9
	nop
	leave
	.cfi_restore 5
	.cfi_def_cfa 4, 4
	ret
	.cfi_endproc
LFE763:
	.def	___gxx_personality_v0;	.scl	2;	.type	32;	.endef
	.section	.gcc_except_table,"w"
LLSDA763:
	.byte	0xff
	.byte	0xff
	.byte	0x1
	.uleb128 LLSDACSE763-LLSDACSB763
LLSDACSB763:
LLSDACSE763:
	.section	.text$_ZN8Palmtree4Math4Core8Internal14ResourceHolderD2Ev,"x"
	.linkonce discard
	.section	.text$_ZN8Palmtree4Math4Core8Internal14ResourceHolderD1Ev,"x"
	.linkonce discard
	.align 2
	.globl	__ZN8Palmtree4Math4Core8Internal14ResourceHolderD1Ev
	.def	__ZN8Palmtree4Math4Core8Internal14ResourceHolderD1Ev;	.scl	2;	.type	32;	.endef
__ZN8Palmtree4Math4Core8Internal14ResourceHolderD1Ev:
LFB764:
	.loc 3 141 17
	.cfi_startproc
	.cfi_personality 0,___gxx_personality_v0
	.cfi_lsda 0,LLSDA764
	pushl	%ebp
	.cfi_def_cfa_offset 8
	.cfi_offset 5, -8
	movl	%esp, %ebp
	.cfi_def_cfa_register 5
	subl	$40, %esp
	movl	%ecx, -28(%ebp)
LBB33:
	.loc 3 142 9
	movl	$__ZTVN8Palmtree4Math4Core8Internal14ResourceHolderE+8, %edx
	movl	-28(%ebp), %eax
	movl	%edx, (%eax)
LBB34:
	.loc 3 143 18
	leal	-13(%ebp), %eax
	movl	%eax, %ecx
	call	__ZN8Palmtree4Math4Core8Internal4LockC1Ev
L47:
	.loc 3 144 34
	movl	-28(%ebp), %eax
	addl	$4, %eax
	movl	%eax, %ecx
	call	__ZN8Palmtree4Math4Core8Internal14ResourceHolder16__ChainBufferTag4NextEv
	movl	%eax, %edx
	.loc 3 144 37
	movl	-28(%ebp), %eax
	addl	$4, %eax
	cmpl	%eax, %edx
	setne	%al
	testb	%al, %al
	je	L45
LBB35:
	.loc 3 146 55
	movl	-28(%ebp), %eax
	addl	$4, %eax
	movl	%eax, %ecx
	call	__ZN8Palmtree4Math4Core8Internal14ResourceHolder16__ChainBufferTag4NextEv
	movl	%eax, -12(%ebp)
	.loc 3 147 28
	movl	-12(%ebp), %eax
	movl	%eax, %ecx
	call	__ZN8Palmtree4Math4Core8Internal14ResourceHolder16__ChainBufferTag6UnlinkEv
	.loc 3 148 31
	movl	-12(%ebp), %eax
	movl	(%eax), %eax
	addl	$20, %eax
	movl	(%eax), %eax
	.loc 3 148 30
	movl	-12(%ebp), %edx
	movl	%edx, %ecx
	call	*%eax
LVL2:
	.loc 3 149 27
	cmpl	$0, -12(%ebp)
	je	L47
	.loc 3 149 24 discriminator 1
	movl	-12(%ebp), %eax
	movl	(%eax), %eax
	addl	$4, %eax
	movl	(%eax), %eax
	movl	-12(%ebp), %edx
	movl	%edx, %ecx
	call	*%eax
LVL3:
LBE35:
	.loc 3 144 13 discriminator 1
	jmp	L47
L45:
	.loc 3 143 18
	leal	-13(%ebp), %eax
	movl	%eax, %ecx
	call	__ZN8Palmtree4Math4Core8Internal4LockD1Ev
LBE34:
	.loc 3 142 9
	movl	-28(%ebp), %eax
	addl	$4, %eax
	movl	%eax, %ecx
	call	__ZN8Palmtree4Math4Core8Internal14ResourceHolder9__RootTagD1Ev
LBE33:
	.loc 3 151 9
	nop
	leave
	.cfi_restore 5
	.cfi_def_cfa 4, 4
	ret
	.cfi_endproc
LFE764:
	.section	.gcc_except_table,"w"
LLSDA764:
	.byte	0xff
	.byte	0xff
	.byte	0x1
	.uleb128 LLSDACSE764-LLSDACSB764
LLSDACSB764:
LLSDACSE764:
	.section	.text$_ZN8Palmtree4Math4Core8Internal14ResourceHolderD1Ev,"x"
	.linkonce discard
	.section	.text$_ZN8Palmtree4Math4Core8Internal14ResourceHolderD0Ev,"x"
	.linkonce discard
	.align 2
	.globl	__ZN8Palmtree4Math4Core8Internal14ResourceHolderD0Ev
	.def	__ZN8Palmtree4Math4Core8Internal14ResourceHolderD0Ev;	.scl	2;	.type	32;	.endef
__ZN8Palmtree4Math4Core8Internal14ResourceHolderD0Ev:
LFB765:
	.loc 3 141 17
	.cfi_startproc
	pushl	%ebp
	.cfi_def_cfa_offset 8
	.cfi_offset 5, -8
	movl	%esp, %ebp
	.cfi_def_cfa_register 5
	subl	$40, %esp
	movl	%ecx, -12(%ebp)
	.loc 3 151 9
	movl	-12(%ebp), %eax
	movl	%eax, %ecx
	call	__ZN8Palmtree4Math4Core8Internal14ResourceHolderD1Ev
	movl	$16, 4(%esp)
	movl	-12(%ebp), %eax
	movl	%eax, (%esp)
	call	__ZdlPvj
	leave
	.cfi_restore 5
	.cfi_def_cfa 4, 4
	ret
	.cfi_endproc
LFE765:
	.section	.text$_ZN8Palmtree4Math4Core8Internal14ResourceHolder7LinkTagEPNS3_16__ChainBufferTagE,"x"
	.linkonce discard
	.align 2
	.globl	__ZN8Palmtree4Math4Core8Internal14ResourceHolder7LinkTagEPNS3_16__ChainBufferTagE
	.def	__ZN8Palmtree4Math4Core8Internal14ResourceHolder7LinkTagEPNS3_16__ChainBufferTagE;	.scl	2;	.type	32;	.endef
__ZN8Palmtree4Math4Core8Internal14ResourceHolder7LinkTagEPNS3_16__ChainBufferTagE:
LFB766:
	.loc 3 154 14
	.cfi_startproc
	pushl	%ebp
	.cfi_def_cfa_offset 8
	.cfi_offset 5, -8
	movl	%esp, %ebp
	.cfi_def_cfa_register 5
	subl	$40, %esp
	movl	%ecx, -12(%ebp)
	.loc 3 156 27
	movl	-12(%ebp), %eax
	leal	4(%eax), %edx
	movl	8(%ebp), %eax
	movl	%eax, (%esp)
	movl	%edx, %ecx
	call	__ZN8Palmtree4Math4Core8Internal14ResourceHolder16__ChainBufferTag4LinkEPS4_
	subl	$4, %esp
	.loc 3 157 9
	nop
	leave
	.cfi_restore 5
	.cfi_def_cfa 4, 4
	ret	$4
	.cfi_endproc
LFE766:
	.section	.text$_ZN8Palmtree4Math4Core8Internal14ResourceHolder7FindTagEPv,"x"
	.linkonce discard
	.align 2
	.globl	__ZN8Palmtree4Math4Core8Internal14ResourceHolder7FindTagEPv
	.def	__ZN8Palmtree4Math4Core8Internal14ResourceHolder7FindTagEPv;	.scl	2;	.type	32;	.endef
__ZN8Palmtree4Math4Core8Internal14ResourceHolder7FindTagEPv:
LFB767:
	.loc 3 159 27
	.cfi_startproc
	pushl	%ebp
	.cfi_def_cfa_offset 8
	.cfi_offset 5, -8
	movl	%esp, %ebp
	.cfi_def_cfa_register 5
	subl	$56, %esp
	movl	%ecx, -28(%ebp)
LBB36:
	.loc 3 161 56
	movl	-28(%ebp), %eax
	addl	$4, %eax
	movl	%eax, %ecx
	call	__ZN8Palmtree4Math4Core8Internal14ResourceHolder16__ChainBufferTag4NextEv
	.loc 3 161 57
	movl	%eax, -12(%ebp)
L54:
	.loc 3 161 64 discriminator 1
	movl	-28(%ebp), %eax
	leal	4(%eax), %edx
	movl	-12(%ebp), %eax
	cmpl	%eax, %edx
	je	L51
	.loc 3 163 45
	movl	-12(%ebp), %edx
	.loc 3 163 52
	movl	-12(%ebp), %eax
	movl	(%eax), %eax
	addl	$8, %eax
	movl	(%eax), %eax
	.loc 3 163 45
	movl	8(%ebp), %ecx
	movl	%ecx, (%esp)
	movl	%edx, %ecx
	call	*%eax
LVL4:
	subl	$4, %esp
	.loc 3 163 53
	testl	%eax, %eax
	setne	%al
	.loc 3 163 17
	testb	%al, %al
	je	L52
	.loc 3 164 32
	movl	-12(%ebp), %eax
	jmp	L53
L52:
	.loc 3 161 94 discriminator 2
	movl	-12(%ebp), %eax
	movl	%eax, %ecx
	call	__ZN8Palmtree4Math4Core8Internal14ResourceHolder16__ChainBufferTag4NextEv
	.loc 3 161 83 discriminator 2
	movl	%eax, -12(%ebp)
	.loc 3 161 13 discriminator 2
	jmp	L54
L51:
LBE36:
	.loc 3 166 28
	movl	$0, %eax
L53:
	.loc 3 167 9
	leave
	.cfi_restore 5
	.cfi_def_cfa 4, 4
	ret	$4
	.cfi_endproc
LFE767:
	.text
	.def	__COPY_MEMORY_UNIT;	.scl	3;	.type	32;	.endef
__COPY_MEMORY_UNIT:
LFB4881:
	.file 4 "../pmc_inline_func.h"
	.loc 4 63 9
	.cfi_startproc
	pushl	%ebp
	.cfi_def_cfa_offset 8
	.cfi_offset 5, -8
	movl	%esp, %ebp
	.cfi_def_cfa_register 5
	pushl	%edi
	pushl	%esi
	pushl	%ebx
	subl	$16, %esp
	.cfi_offset 7, -12
	.cfi_offset 6, -16
	.cfi_offset 3, -20
	movl	8(%ebp), %eax
	movl	%eax, -16(%ebp)
	movl	12(%ebp), %eax
	movl	%eax, -20(%ebp)
	movl	16(%ebp), %eax
	movl	%eax, -24(%ebp)
LBB37:
LBB38:
	.file 5 "C:/GNU/MINGW64/i686-8.1.0-win32-dwarf-rt_v6-rev0/mingw32/i686-w64-mingw32/include/psdk_inc/intrin-impl.h"
	.loc 5 1773 233
	movl	-16(%ebp), %ecx
	movl	-20(%ebp), %edx
	movl	-24(%ebp), %eax
	movl	%ecx, %ebx
	movl	%ebx, %edi
	movl	%edx, %esi
	movl	%eax, %ecx
/APP
 # 1773 "C:/GNU/MINGW64/i686-8.1.0-win32-dwarf-rt_v6-rev0/mingw32/i686-w64-mingw32/include/psdk_inc/intrin-impl.h" 1
	rep movsd
 # 0 "" 2
/NO_APP
	movl	%ecx, %eax
	movl	%esi, %edx
	movl	%edi, %ebx
	movl	%ebx, -16(%ebp)
	movl	%edx, -20(%ebp)
	movl	%eax, -24(%ebp)
LBE38:
LBE37:
	.loc 4 71 9
	nop
	addl	$16, %esp
	popl	%ebx
	.cfi_restore 3
	popl	%esi
	.cfi_restore 6
	popl	%edi
	.cfi_restore 7
	popl	%ebp
	.cfi_restore 5
	.cfi_def_cfa 4, 4
	ret
	.cfi_endproc
LFE4881:
	.def	__ZERO_MEMORY_UNIT;	.scl	3;	.type	32;	.endef
__ZERO_MEMORY_UNIT:
LFB4885:
	.loc 4 96 9
	.cfi_startproc
	pushl	%ebp
	.cfi_def_cfa_offset 8
	.cfi_offset 5, -8
	movl	%esp, %ebp
	.cfi_def_cfa_register 5
	pushl	%edi
	pushl	%ebx
	subl	$16, %esp
	.cfi_offset 7, -12
	.cfi_offset 3, -16
	movl	8(%ebp), %eax
	movl	%eax, -12(%ebp)
	movl	$0, -16(%ebp)
	movl	12(%ebp), %eax
	movl	%eax, -20(%ebp)
LBB39:
LBB40:
	.loc 5 1463 174
	movl	-16(%ebp), %eax
	movl	-12(%ebp), %ecx
	movl	-20(%ebp), %edx
	movl	%ecx, %ebx
	movl	%ebx, %edi
	movl	%edx, %ecx
/APP
 # 1463 "C:/GNU/MINGW64/i686-8.1.0-win32-dwarf-rt_v6-rev0/mingw32/i686-w64-mingw32/include/psdk_inc/intrin-impl.h" 1
	rep stosl
 # 0 "" 2
/NO_APP
	movl	%ecx, %edx
	movl	%edi, %ebx
	movl	%ebx, -12(%ebp)
	movl	%edx, -20(%ebp)
LBE40:
LBE39:
	.loc 4 104 9
	nop
	addl	$16, %esp
	popl	%ebx
	.cfi_restore 3
	popl	%edi
	.cfi_restore 7
	popl	%ebp
	.cfi_restore 5
	.cfi_def_cfa 4, 4
	ret
	.cfi_endproc
LFE4885:
	.def	__FILL_MEMORY_UNIT;	.scl	3;	.type	32;	.endef
__FILL_MEMORY_UNIT:
LFB4889:
	.loc 4 129 9
	.cfi_startproc
	pushl	%ebp
	.cfi_def_cfa_offset 8
	.cfi_offset 5, -8
	movl	%esp, %ebp
	.cfi_def_cfa_register 5
	pushl	%edi
	pushl	%ebx
	subl	$16, %esp
	.cfi_offset 7, -12
	.cfi_offset 3, -16
	movl	8(%ebp), %eax
	movl	%eax, -12(%ebp)
	movl	12(%ebp), %eax
	movl	%eax, -16(%ebp)
	movl	16(%ebp), %eax
	movl	%eax, -20(%ebp)
LBB41:
LBB42:
	.loc 5 1463 174
	movl	-16(%ebp), %eax
	movl	-12(%ebp), %ecx
	movl	-20(%ebp), %edx
	movl	%ecx, %ebx
	movl	%ebx, %edi
	movl	%edx, %ecx
/APP
 # 1463 "C:/GNU/MINGW64/i686-8.1.0-win32-dwarf-rt_v6-rev0/mingw32/i686-w64-mingw32/include/psdk_inc/intrin-impl.h" 1
	rep stosl
 # 0 "" 2
/NO_APP
	movl	%ecx, %edx
	movl	%edi, %ebx
	movl	%ebx, -12(%ebp)
	movl	%edx, -20(%ebp)
LBE42:
LBE41:
	.loc 4 137 9
	nop
	addl	$16, %esp
	popl	%ebx
	.cfi_restore 3
	popl	%edi
	.cfi_restore 7
	popl	%ebp
	.cfi_restore 5
	.cfi_def_cfa 4, 4
	ret
	.cfi_endproc
LFE4889:
	.def	__DIVIDE_CEILING_UNIT;	.scl	3;	.type	32;	.endef
__DIVIDE_CEILING_UNIT:
LFB4893:
	.loc 4 156 9
	.cfi_startproc
	pushl	%ebp
	.cfi_def_cfa_offset 8
	.cfi_offset 5, -8
	movl	%esp, %ebp
	.cfi_def_cfa_register 5
	.loc 4 157 24
	movl	8(%ebp), %edx
	movl	12(%ebp), %eax
	addl	%edx, %eax
	.loc 4 157 28
	subl	$1, %eax
	.loc 4 157 36
	movl	$0, %edx
	divl	12(%ebp)
	.loc 4 158 9
	popl	%ebp
	.cfi_restore 5
	.cfi_def_cfa 4, 4
	ret
	.cfi_endproc
LFE4893:
	.def	__ROTATE_L_UNIT;	.scl	3;	.type	32;	.endef
__ROTATE_L_UNIT:
LFB4905:
	.loc 4 329 9
	.cfi_startproc
	pushl	%ebp
	.cfi_def_cfa_offset 8
	.cfi_offset 5, -8
	movl	%esp, %ebp
	.cfi_def_cfa_register 5
	subl	$16, %esp
	.loc 4 331 26
	movl	12(%ebp), %eax
	movl	8(%ebp), %edx
	movl	%edx, -4(%ebp)
	movl	%eax, -8(%ebp)
LBB43:
LBB44:
	.file 6 "C:/GNU/MINGW64/i686-8.1.0-win32-dwarf-rt_v6-rev0/mingw32/lib/gcc/i686-w64-mingw32/8.1.0/include/ia32intrin.h"
	.loc 6 150 7
	andl	$31, -8(%ebp)
	.loc 6 151 44
	movl	-8(%ebp), %eax
	movl	-4(%ebp), %edx
	movl	%eax, %ecx
	roll	%cl, %edx
	movl	%edx, %eax
LBE44:
LBE43:
	.loc 4 331 35
	nop
	.loc 4 337 9
	leave
	.cfi_restore 5
	.cfi_def_cfa 4, 4
	ret
	.cfi_endproc
LFE4905:
	.def	__LZCNT_ALT_UNIT;	.scl	3;	.type	32;	.endef
__LZCNT_ALT_UNIT:
LFB4913:
	.loc 4 454 9
	.cfi_startproc
	pushl	%ebp
	.cfi_def_cfa_offset 8
	.cfi_offset 5, -8
	movl	%esp, %ebp
	.cfi_def_cfa_register 5
	subl	$16, %esp
	.loc 4 455 13
	cmpl	$0, 8(%ebp)
	jne	L64
	.loc 4 456 38
	movl	$32, %eax
	jmp	L65
L64:
	.loc 4 462 57
/APP
 # 462 "../pmc_inline_func.h" 1
	bsrl 8(%ebp), %eax
 # 0 "" 2
/NO_APP
	movl	%eax, -4(%ebp)
	.loc 4 479 39
	movl	$31, %eax
	subl	-4(%ebp), %eax
L65:
	.loc 4 480 9
	leave
	.cfi_restore 5
	.cfi_def_cfa 4, 4
	ret
	.cfi_endproc
LFE4913:
	.def	__TZCNT_ALT_UNIT;	.scl	3;	.type	32;	.endef
__TZCNT_ALT_UNIT:
LFB4916:
	.loc 4 505 9
	.cfi_startproc
	pushl	%ebp
	.cfi_def_cfa_offset 8
	.cfi_offset 5, -8
	movl	%esp, %ebp
	.cfi_def_cfa_register 5
	subl	$16, %esp
	.loc 4 506 13
	cmpl	$0, 8(%ebp)
	jne	L67
	.loc 4 507 38
	movl	$32, %eax
	jmp	L69
L67:
	.loc 4 513 57
/APP
 # 513 "../pmc_inline_func.h" 1
	bsfl 8(%ebp), %eax
 # 0 "" 2
/NO_APP
	movl	%eax, -4(%ebp)
	.loc 4 530 24
	movl	-4(%ebp), %eax
L69:
	.loc 4 531 9 discriminator 1
	leave
	.cfi_restore 5
	.cfi_def_cfa 4, 4
	ret
	.cfi_endproc
LFE4916:
	.globl	__ZN8Palmtree4Math4Core8Internal10hLocalHeapE
	.bss
	.align 4
__ZN8Palmtree4Math4Core8Internal10hLocalHeapE:
	.space 4
	.globl	__ZN8Palmtree4Math4Core8Internal11number_zeroE
	.align 32
__ZN8Palmtree4Math4Core8Internal11number_zeroE:
	.space 44
	.globl	__ZN8Palmtree4Math4Core8Internal10number_oneE
	.align 32
__ZN8Palmtree4Math4Core8Internal10number_oneE:
	.space 44
	.globl	__ZN8Palmtree4Math4Core8Internal3mcsE
	.align 4
__ZN8Palmtree4Math4Core8Internal3mcsE:
	.space 24
	.text
	.def	__ZN8Palmtree4Math4Core8InternalL17CalculateHashCodeEPjj;	.scl	3;	.type	32;	.endef
__ZN8Palmtree4Math4Core8InternalL17CalculateHashCodeEPjj:
LFB4921:
	.file 7 "../pmc_memory.cpp"
	.loc 7 59 5
	.cfi_startproc
	pushl	%ebp
	.cfi_def_cfa_offset 8
	.cfi_offset 5, -8
	movl	%esp, %ebp
	.cfi_def_cfa_register 5
	subl	$24, %esp
	.loc 7 60 21
	movl	$-2071690108, -8(%ebp)
	.loc 7 62 21
	movl	12(%ebp), %eax
	shrl	$5, %eax
	movl	%eax, -4(%ebp)
L72:
	.loc 7 63 22
	cmpl	$0, -4(%ebp)
	je	L71
	.loc 7 65 34
	movl	-8(%ebp), %eax
	movl	$3, 4(%esp)
	movl	%eax, (%esp)
	call	__ROTATE_L_UNIT
	movl	%eax, %edx
	.loc 7 65 49
	movl	8(%ebp), %eax
	movl	(%eax), %eax
	.loc 7 65 44
	xorl	%edx, %eax
	.loc 7 65 18
	movl	%eax, -8(%ebp)
	.loc 7 66 34
	movl	-8(%ebp), %eax
	movl	$3, 4(%esp)
	movl	%eax, (%esp)
	call	__ROTATE_L_UNIT
	movl	%eax, %edx
	.loc 7 66 49
	movl	8(%ebp), %eax
	addl	$4, %eax
	movl	(%eax), %eax
	.loc 7 66 44
	xorl	%edx, %eax
	.loc 7 66 18
	movl	%eax, -8(%ebp)
	.loc 7 67 34
	movl	-8(%ebp), %eax
	movl	$3, 4(%esp)
	movl	%eax, (%esp)
	call	__ROTATE_L_UNIT
	movl	%eax, %edx
	.loc 7 67 49
	movl	8(%ebp), %eax
	addl	$8, %eax
	movl	(%eax), %eax
	.loc 7 67 44
	xorl	%edx, %eax
	.loc 7 67 18
	movl	%eax, -8(%ebp)
	.loc 7 68 34
	movl	-8(%ebp), %eax
	movl	$3, 4(%esp)
	movl	%eax, (%esp)
	call	__ROTATE_L_UNIT
	movl	%eax, %edx
	.loc 7 68 49
	movl	8(%ebp), %eax
	addl	$12, %eax
	movl	(%eax), %eax
	.loc 7 68 44
	xorl	%edx, %eax
	.loc 7 68 18
	movl	%eax, -8(%ebp)
	.loc 7 69 34
	movl	-8(%ebp), %eax
	movl	$3, 4(%esp)
	movl	%eax, (%esp)
	call	__ROTATE_L_UNIT
	movl	%eax, %edx
	.loc 7 69 49
	movl	8(%ebp), %eax
	addl	$16, %eax
	movl	(%eax), %eax
	.loc 7 69 44
	xorl	%edx, %eax
	.loc 7 69 18
	movl	%eax, -8(%ebp)
	.loc 7 70 34
	movl	-8(%ebp), %eax
	movl	$3, 4(%esp)
	movl	%eax, (%esp)
	call	__ROTATE_L_UNIT
	movl	%eax, %edx
	.loc 7 70 49
	movl	8(%ebp), %eax
	addl	$20, %eax
	movl	(%eax), %eax
	.loc 7 70 44
	xorl	%edx, %eax
	.loc 7 70 18
	movl	%eax, -8(%ebp)
	.loc 7 71 34
	movl	-8(%ebp), %eax
	movl	$3, 4(%esp)
	movl	%eax, (%esp)
	call	__ROTATE_L_UNIT
	movl	%eax, %edx
	.loc 7 71 49
	movl	8(%ebp), %eax
	addl	$24, %eax
	movl	(%eax), %eax
	.loc 7 71 44
	xorl	%edx, %eax
	.loc 7 71 18
	movl	%eax, -8(%ebp)
	.loc 7 72 34
	movl	-8(%ebp), %eax
	movl	$3, 4(%esp)
	movl	%eax, (%esp)
	call	__ROTATE_L_UNIT
	movl	%eax, %edx
	.loc 7 72 49
	movl	8(%ebp), %eax
	addl	$28, %eax
	movl	(%eax), %eax
	.loc 7 72 44
	xorl	%edx, %eax
	.loc 7 72 18
	movl	%eax, -8(%ebp)
	.loc 7 73 34
	movl	-8(%ebp), %eax
	movl	$3, 4(%esp)
	movl	%eax, (%esp)
	call	__ROTATE_L_UNIT
	movl	%eax, %edx
	.loc 7 73 49
	movl	8(%ebp), %eax
	addl	$32, %eax
	movl	(%eax), %eax
	.loc 7 73 44
	xorl	%edx, %eax
	.loc 7 73 18
	movl	%eax, -8(%ebp)
	.loc 7 74 34
	movl	-8(%ebp), %eax
	movl	$3, 4(%esp)
	movl	%eax, (%esp)
	call	__ROTATE_L_UNIT
	movl	%eax, %edx
	.loc 7 74 49
	movl	8(%ebp), %eax
	addl	$36, %eax
	movl	(%eax), %eax
	.loc 7 74 44
	xorl	%edx, %eax
	.loc 7 74 18
	movl	%eax, -8(%ebp)
	.loc 7 75 34
	movl	-8(%ebp), %eax
	movl	$3, 4(%esp)
	movl	%eax, (%esp)
	call	__ROTATE_L_UNIT
	movl	%eax, %edx
	.loc 7 75 50
	movl	8(%ebp), %eax
	addl	$40, %eax
	movl	(%eax), %eax
	.loc 7 75 44
	xorl	%edx, %eax
	.loc 7 75 18
	movl	%eax, -8(%ebp)
	.loc 7 76 34
	movl	-8(%ebp), %eax
	movl	$3, 4(%esp)
	movl	%eax, (%esp)
	call	__ROTATE_L_UNIT
	movl	%eax, %edx
	.loc 7 76 50
	movl	8(%ebp), %eax
	addl	$44, %eax
	movl	(%eax), %eax
	.loc 7 76 44
	xorl	%edx, %eax
	.loc 7 76 18
	movl	%eax, -8(%ebp)
	.loc 7 77 34
	movl	-8(%ebp), %eax
	movl	$3, 4(%esp)
	movl	%eax, (%esp)
	call	__ROTATE_L_UNIT
	movl	%eax, %edx
	.loc 7 77 50
	movl	8(%ebp), %eax
	addl	$48, %eax
	movl	(%eax), %eax
	.loc 7 77 44
	xorl	%edx, %eax
	.loc 7 77 18
	movl	%eax, -8(%ebp)
	.loc 7 78 34
	movl	-8(%ebp), %eax
	movl	$3, 4(%esp)
	movl	%eax, (%esp)
	call	__ROTATE_L_UNIT
	movl	%eax, %edx
	.loc 7 78 50
	movl	8(%ebp), %eax
	addl	$52, %eax
	movl	(%eax), %eax
	.loc 7 78 44
	xorl	%edx, %eax
	.loc 7 78 18
	movl	%eax, -8(%ebp)
	.loc 7 79 34
	movl	-8(%ebp), %eax
	movl	$3, 4(%esp)
	movl	%eax, (%esp)
	call	__ROTATE_L_UNIT
	movl	%eax, %edx
	.loc 7 79 50
	movl	8(%ebp), %eax
	addl	$56, %eax
	movl	(%eax), %eax
	.loc 7 79 44
	xorl	%edx, %eax
	.loc 7 79 18
	movl	%eax, -8(%ebp)
	.loc 7 80 34
	movl	-8(%ebp), %eax
	movl	$3, 4(%esp)
	movl	%eax, (%esp)
	call	__ROTATE_L_UNIT
	movl	%eax, %edx
	.loc 7 80 50
	movl	8(%ebp), %eax
	addl	$60, %eax
	movl	(%eax), %eax
	.loc 7 80 44
	xorl	%edx, %eax
	.loc 7 80 18
	movl	%eax, -8(%ebp)
	.loc 7 81 34
	movl	-8(%ebp), %eax
	movl	$3, 4(%esp)
	movl	%eax, (%esp)
	call	__ROTATE_L_UNIT
	movl	%eax, %edx
	.loc 7 81 50
	movl	8(%ebp), %eax
	addl	$64, %eax
	movl	(%eax), %eax
	.loc 7 81 44
	xorl	%edx, %eax
	.loc 7 81 18
	movl	%eax, -8(%ebp)
	.loc 7 82 34
	movl	-8(%ebp), %eax
	movl	$3, 4(%esp)
	movl	%eax, (%esp)
	call	__ROTATE_L_UNIT
	movl	%eax, %edx
	.loc 7 82 50
	movl	8(%ebp), %eax
	addl	$68, %eax
	movl	(%eax), %eax
	.loc 7 82 44
	xorl	%edx, %eax
	.loc 7 82 18
	movl	%eax, -8(%ebp)
	.loc 7 83 34
	movl	-8(%ebp), %eax
	movl	$3, 4(%esp)
	movl	%eax, (%esp)
	call	__ROTATE_L_UNIT
	movl	%eax, %edx
	.loc 7 83 50
	movl	8(%ebp), %eax
	addl	$72, %eax
	movl	(%eax), %eax
	.loc 7 83 44
	xorl	%edx, %eax
	.loc 7 83 18
	movl	%eax, -8(%ebp)
	.loc 7 84 34
	movl	-8(%ebp), %eax
	movl	$3, 4(%esp)
	movl	%eax, (%esp)
	call	__ROTATE_L_UNIT
	movl	%eax, %edx
	.loc 7 84 50
	movl	8(%ebp), %eax
	addl	$76, %eax
	movl	(%eax), %eax
	.loc 7 84 44
	xorl	%edx, %eax
	.loc 7 84 18
	movl	%eax, -8(%ebp)
	.loc 7 85 34
	movl	-8(%ebp), %eax
	movl	$3, 4(%esp)
	movl	%eax, (%esp)
	call	__ROTATE_L_UNIT
	movl	%eax, %edx
	.loc 7 85 50
	movl	8(%ebp), %eax
	addl	$80, %eax
	movl	(%eax), %eax
	.loc 7 85 44
	xorl	%edx, %eax
	.loc 7 85 18
	movl	%eax, -8(%ebp)
	.loc 7 86 34
	movl	-8(%ebp), %eax
	movl	$3, 4(%esp)
	movl	%eax, (%esp)
	call	__ROTATE_L_UNIT
	movl	%eax, %edx
	.loc 7 86 50
	movl	8(%ebp), %eax
	addl	$84, %eax
	movl	(%eax), %eax
	.loc 7 86 44
	xorl	%edx, %eax
	.loc 7 86 18
	movl	%eax, -8(%ebp)
	.loc 7 87 34
	movl	-8(%ebp), %eax
	movl	$3, 4(%esp)
	movl	%eax, (%esp)
	call	__ROTATE_L_UNIT
	movl	%eax, %edx
	.loc 7 87 50
	movl	8(%ebp), %eax
	addl	$88, %eax
	movl	(%eax), %eax
	.loc 7 87 44
	xorl	%edx, %eax
	.loc 7 87 18
	movl	%eax, -8(%ebp)
	.loc 7 88 34
	movl	-8(%ebp), %eax
	movl	$3, 4(%esp)
	movl	%eax, (%esp)
	call	__ROTATE_L_UNIT
	movl	%eax, %edx
	.loc 7 88 50
	movl	8(%ebp), %eax
	addl	$92, %eax
	movl	(%eax), %eax
	.loc 7 88 44
	xorl	%edx, %eax
	.loc 7 88 18
	movl	%eax, -8(%ebp)
	.loc 7 89 34
	movl	-8(%ebp), %eax
	movl	$3, 4(%esp)
	movl	%eax, (%esp)
	call	__ROTATE_L_UNIT
	movl	%eax, %edx
	.loc 7 89 50
	movl	8(%ebp), %eax
	addl	$96, %eax
	movl	(%eax), %eax
	.loc 7 89 44
	xorl	%edx, %eax
	.loc 7 89 18
	movl	%eax, -8(%ebp)
	.loc 7 90 34
	movl	-8(%ebp), %eax
	movl	$3, 4(%esp)
	movl	%eax, (%esp)
	call	__ROTATE_L_UNIT
	movl	%eax, %edx
	.loc 7 90 50
	movl	8(%ebp), %eax
	addl	$100, %eax
	movl	(%eax), %eax
	.loc 7 90 44
	xorl	%edx, %eax
	.loc 7 90 18
	movl	%eax, -8(%ebp)
	.loc 7 91 34
	movl	-8(%ebp), %eax
	movl	$3, 4(%esp)
	movl	%eax, (%esp)
	call	__ROTATE_L_UNIT
	movl	%eax, %edx
	.loc 7 91 50
	movl	8(%ebp), %eax
	addl	$104, %eax
	movl	(%eax), %eax
	.loc 7 91 44
	xorl	%edx, %eax
	.loc 7 91 18
	movl	%eax, -8(%ebp)
	.loc 7 92 34
	movl	-8(%ebp), %eax
	movl	$3, 4(%esp)
	movl	%eax, (%esp)
	call	__ROTATE_L_UNIT
	movl	%eax, %edx
	.loc 7 92 50
	movl	8(%ebp), %eax
	addl	$108, %eax
	movl	(%eax), %eax
	.loc 7 92 44
	xorl	%edx, %eax
	.loc 7 92 18
	movl	%eax, -8(%ebp)
	.loc 7 93 34
	movl	-8(%ebp), %eax
	movl	$3, 4(%esp)
	movl	%eax, (%esp)
	call	__ROTATE_L_UNIT
	movl	%eax, %edx
	.loc 7 93 50
	movl	8(%ebp), %eax
	addl	$112, %eax
	movl	(%eax), %eax
	.loc 7 93 44
	xorl	%edx, %eax
	.loc 7 93 18
	movl	%eax, -8(%ebp)
	.loc 7 94 34
	movl	-8(%ebp), %eax
	movl	$3, 4(%esp)
	movl	%eax, (%esp)
	call	__ROTATE_L_UNIT
	movl	%eax, %edx
	.loc 7 94 50
	movl	8(%ebp), %eax
	addl	$116, %eax
	movl	(%eax), %eax
	.loc 7 94 44
	xorl	%edx, %eax
	.loc 7 94 18
	movl	%eax, -8(%ebp)
	.loc 7 95 34
	movl	-8(%ebp), %eax
	movl	$3, 4(%esp)
	movl	%eax, (%esp)
	call	__ROTATE_L_UNIT
	movl	%eax, %edx
	.loc 7 95 50
	movl	8(%ebp), %eax
	addl	$120, %eax
	movl	(%eax), %eax
	.loc 7 95 44
	xorl	%edx, %eax
	.loc 7 95 18
	movl	%eax, -8(%ebp)
	.loc 7 96 34
	movl	-8(%ebp), %eax
	movl	$3, 4(%esp)
	movl	%eax, (%esp)
	call	__ROTATE_L_UNIT
	movl	%eax, %edx
	.loc 7 96 50
	movl	8(%ebp), %eax
	addl	$124, %eax
	movl	(%eax), %eax
	.loc 7 96 44
	xorl	%edx, %eax
	.loc 7 96 18
	movl	%eax, -8(%ebp)
	.loc 7 97 15
	subl	$-128, 8(%ebp)
	.loc 7 98 13
	subl	$1, -4(%ebp)
	.loc 7 63 9
	jmp	L72
L71:
	.loc 7 101 19
	movl	12(%ebp), %eax
	andl	$16, %eax
	.loc 7 101 9
	testl	%eax, %eax
	je	L73
	.loc 7 103 34
	movl	-8(%ebp), %eax
	movl	$3, 4(%esp)
	movl	%eax, (%esp)
	call	__ROTATE_L_UNIT
	movl	%eax, %edx
	.loc 7 103 49
	movl	8(%ebp), %eax
	movl	(%eax), %eax
	.loc 7 103 44
	xorl	%edx, %eax
	.loc 7 103 18
	movl	%eax, -8(%ebp)
	.loc 7 104 34
	movl	-8(%ebp), %eax
	movl	$3, 4(%esp)
	movl	%eax, (%esp)
	call	__ROTATE_L_UNIT
	movl	%eax, %edx
	.loc 7 104 49
	movl	8(%ebp), %eax
	addl	$4, %eax
	movl	(%eax), %eax
	.loc 7 104 44
	xorl	%edx, %eax
	.loc 7 104 18
	movl	%eax, -8(%ebp)
	.loc 7 105 34
	movl	-8(%ebp), %eax
	movl	$3, 4(%esp)
	movl	%eax, (%esp)
	call	__ROTATE_L_UNIT
	movl	%eax, %edx
	.loc 7 105 49
	movl	8(%ebp), %eax
	addl	$8, %eax
	movl	(%eax), %eax
	.loc 7 105 44
	xorl	%edx, %eax
	.loc 7 105 18
	movl	%eax, -8(%ebp)
	.loc 7 106 34
	movl	-8(%ebp), %eax
	movl	$3, 4(%esp)
	movl	%eax, (%esp)
	call	__ROTATE_L_UNIT
	movl	%eax, %edx
	.loc 7 106 49
	movl	8(%ebp), %eax
	addl	$12, %eax
	movl	(%eax), %eax
	.loc 7 106 44
	xorl	%edx, %eax
	.loc 7 106 18
	movl	%eax, -8(%ebp)
	.loc 7 107 34
	movl	-8(%ebp), %eax
	movl	$3, 4(%esp)
	movl	%eax, (%esp)
	call	__ROTATE_L_UNIT
	movl	%eax, %edx
	.loc 7 107 49
	movl	8(%ebp), %eax
	addl	$16, %eax
	movl	(%eax), %eax
	.loc 7 107 44
	xorl	%edx, %eax
	.loc 7 107 18
	movl	%eax, -8(%ebp)
	.loc 7 108 34
	movl	-8(%ebp), %eax
	movl	$3, 4(%esp)
	movl	%eax, (%esp)
	call	__ROTATE_L_UNIT
	movl	%eax, %edx
	.loc 7 108 49
	movl	8(%ebp), %eax
	addl	$20, %eax
	movl	(%eax), %eax
	.loc 7 108 44
	xorl	%edx, %eax
	.loc 7 108 18
	movl	%eax, -8(%ebp)
	.loc 7 109 34
	movl	-8(%ebp), %eax
	movl	$3, 4(%esp)
	movl	%eax, (%esp)
	call	__ROTATE_L_UNIT
	movl	%eax, %edx
	.loc 7 109 49
	movl	8(%ebp), %eax
	addl	$24, %eax
	movl	(%eax), %eax
	.loc 7 109 44
	xorl	%edx, %eax
	.loc 7 109 18
	movl	%eax, -8(%ebp)
	.loc 7 110 34
	movl	-8(%ebp), %eax
	movl	$3, 4(%esp)
	movl	%eax, (%esp)
	call	__ROTATE_L_UNIT
	movl	%eax, %edx
	.loc 7 110 49
	movl	8(%ebp), %eax
	addl	$28, %eax
	movl	(%eax), %eax
	.loc 7 110 44
	xorl	%edx, %eax
	.loc 7 110 18
	movl	%eax, -8(%ebp)
	.loc 7 111 34
	movl	-8(%ebp), %eax
	movl	$3, 4(%esp)
	movl	%eax, (%esp)
	call	__ROTATE_L_UNIT
	movl	%eax, %edx
	.loc 7 111 49
	movl	8(%ebp), %eax
	addl	$32, %eax
	movl	(%eax), %eax
	.loc 7 111 44
	xorl	%edx, %eax
	.loc 7 111 18
	movl	%eax, -8(%ebp)
	.loc 7 112 34
	movl	-8(%ebp), %eax
	movl	$3, 4(%esp)
	movl	%eax, (%esp)
	call	__ROTATE_L_UNIT
	movl	%eax, %edx
	.loc 7 112 49
	movl	8(%ebp), %eax
	addl	$36, %eax
	movl	(%eax), %eax
	.loc 7 112 44
	xorl	%edx, %eax
	.loc 7 112 18
	movl	%eax, -8(%ebp)
	.loc 7 113 34
	movl	-8(%ebp), %eax
	movl	$3, 4(%esp)
	movl	%eax, (%esp)
	call	__ROTATE_L_UNIT
	movl	%eax, %edx
	.loc 7 113 50
	movl	8(%ebp), %eax
	addl	$40, %eax
	movl	(%eax), %eax
	.loc 7 113 44
	xorl	%edx, %eax
	.loc 7 113 18
	movl	%eax, -8(%ebp)
	.loc 7 114 34
	movl	-8(%ebp), %eax
	movl	$3, 4(%esp)
	movl	%eax, (%esp)
	call	__ROTATE_L_UNIT
	movl	%eax, %edx
	.loc 7 114 50
	movl	8(%ebp), %eax
	addl	$44, %eax
	movl	(%eax), %eax
	.loc 7 114 44
	xorl	%edx, %eax
	.loc 7 114 18
	movl	%eax, -8(%ebp)
	.loc 7 115 34
	movl	-8(%ebp), %eax
	movl	$3, 4(%esp)
	movl	%eax, (%esp)
	call	__ROTATE_L_UNIT
	movl	%eax, %edx
	.loc 7 115 50
	movl	8(%ebp), %eax
	addl	$48, %eax
	movl	(%eax), %eax
	.loc 7 115 44
	xorl	%edx, %eax
	.loc 7 115 18
	movl	%eax, -8(%ebp)
	.loc 7 116 34
	movl	-8(%ebp), %eax
	movl	$3, 4(%esp)
	movl	%eax, (%esp)
	call	__ROTATE_L_UNIT
	movl	%eax, %edx
	.loc 7 116 50
	movl	8(%ebp), %eax
	addl	$52, %eax
	movl	(%eax), %eax
	.loc 7 116 44
	xorl	%edx, %eax
	.loc 7 116 18
	movl	%eax, -8(%ebp)
	.loc 7 117 34
	movl	-8(%ebp), %eax
	movl	$3, 4(%esp)
	movl	%eax, (%esp)
	call	__ROTATE_L_UNIT
	movl	%eax, %edx
	.loc 7 117 50
	movl	8(%ebp), %eax
	addl	$56, %eax
	movl	(%eax), %eax
	.loc 7 117 44
	xorl	%edx, %eax
	.loc 7 117 18
	movl	%eax, -8(%ebp)
	.loc 7 118 34
	movl	-8(%ebp), %eax
	movl	$3, 4(%esp)
	movl	%eax, (%esp)
	call	__ROTATE_L_UNIT
	movl	%eax, %edx
	.loc 7 118 50
	movl	8(%ebp), %eax
	addl	$60, %eax
	movl	(%eax), %eax
	.loc 7 118 44
	xorl	%edx, %eax
	.loc 7 118 18
	movl	%eax, -8(%ebp)
	.loc 7 119 15
	addl	$64, 8(%ebp)
L73:
	.loc 7 122 19
	movl	12(%ebp), %eax
	andl	$8, %eax
	.loc 7 122 9
	testl	%eax, %eax
	je	L74
	.loc 7 124 34
	movl	-8(%ebp), %eax
	movl	$3, 4(%esp)
	movl	%eax, (%esp)
	call	__ROTATE_L_UNIT
	movl	%eax, %edx
	.loc 7 124 49
	movl	8(%ebp), %eax
	movl	(%eax), %eax
	.loc 7 124 44
	xorl	%edx, %eax
	.loc 7 124 18
	movl	%eax, -8(%ebp)
	.loc 7 125 34
	movl	-8(%ebp), %eax
	movl	$3, 4(%esp)
	movl	%eax, (%esp)
	call	__ROTATE_L_UNIT
	movl	%eax, %edx
	.loc 7 125 49
	movl	8(%ebp), %eax
	addl	$4, %eax
	movl	(%eax), %eax
	.loc 7 125 44
	xorl	%edx, %eax
	.loc 7 125 18
	movl	%eax, -8(%ebp)
	.loc 7 126 34
	movl	-8(%ebp), %eax
	movl	$3, 4(%esp)
	movl	%eax, (%esp)
	call	__ROTATE_L_UNIT
	movl	%eax, %edx
	.loc 7 126 49
	movl	8(%ebp), %eax
	addl	$8, %eax
	movl	(%eax), %eax
	.loc 7 126 44
	xorl	%edx, %eax
	.loc 7 126 18
	movl	%eax, -8(%ebp)
	.loc 7 127 34
	movl	-8(%ebp), %eax
	movl	$3, 4(%esp)
	movl	%eax, (%esp)
	call	__ROTATE_L_UNIT
	movl	%eax, %edx
	.loc 7 127 49
	movl	8(%ebp), %eax
	addl	$12, %eax
	movl	(%eax), %eax
	.loc 7 127 44
	xorl	%edx, %eax
	.loc 7 127 18
	movl	%eax, -8(%ebp)
	.loc 7 128 34
	movl	-8(%ebp), %eax
	movl	$3, 4(%esp)
	movl	%eax, (%esp)
	call	__ROTATE_L_UNIT
	movl	%eax, %edx
	.loc 7 128 49
	movl	8(%ebp), %eax
	addl	$16, %eax
	movl	(%eax), %eax
	.loc 7 128 44
	xorl	%edx, %eax
	.loc 7 128 18
	movl	%eax, -8(%ebp)
	.loc 7 129 34
	movl	-8(%ebp), %eax
	movl	$3, 4(%esp)
	movl	%eax, (%esp)
	call	__ROTATE_L_UNIT
	movl	%eax, %edx
	.loc 7 129 49
	movl	8(%ebp), %eax
	addl	$20, %eax
	movl	(%eax), %eax
	.loc 7 129 44
	xorl	%edx, %eax
	.loc 7 129 18
	movl	%eax, -8(%ebp)
	.loc 7 130 34
	movl	-8(%ebp), %eax
	movl	$3, 4(%esp)
	movl	%eax, (%esp)
	call	__ROTATE_L_UNIT
	movl	%eax, %edx
	.loc 7 130 49
	movl	8(%ebp), %eax
	addl	$24, %eax
	movl	(%eax), %eax
	.loc 7 130 44
	xorl	%edx, %eax
	.loc 7 130 18
	movl	%eax, -8(%ebp)
	.loc 7 131 34
	movl	-8(%ebp), %eax
	movl	$3, 4(%esp)
	movl	%eax, (%esp)
	call	__ROTATE_L_UNIT
	movl	%eax, %edx
	.loc 7 131 49
	movl	8(%ebp), %eax
	addl	$28, %eax
	movl	(%eax), %eax
	.loc 7 131 44
	xorl	%edx, %eax
	.loc 7 131 18
	movl	%eax, -8(%ebp)
	.loc 7 132 15
	addl	$32, 8(%ebp)
L74:
	.loc 7 135 19
	movl	12(%ebp), %eax
	andl	$4, %eax
	.loc 7 135 9
	testl	%eax, %eax
	je	L75
	.loc 7 137 34
	movl	-8(%ebp), %eax
	movl	$3, 4(%esp)
	movl	%eax, (%esp)
	call	__ROTATE_L_UNIT
	movl	%eax, %edx
	.loc 7 137 49
	movl	8(%ebp), %eax
	movl	(%eax), %eax
	.loc 7 137 44
	xorl	%edx, %eax
	.loc 7 137 18
	movl	%eax, -8(%ebp)
	.loc 7 138 34
	movl	-8(%ebp), %eax
	movl	$3, 4(%esp)
	movl	%eax, (%esp)
	call	__ROTATE_L_UNIT
	movl	%eax, %edx
	.loc 7 138 49
	movl	8(%ebp), %eax
	addl	$4, %eax
	movl	(%eax), %eax
	.loc 7 138 44
	xorl	%edx, %eax
	.loc 7 138 18
	movl	%eax, -8(%ebp)
	.loc 7 139 34
	movl	-8(%ebp), %eax
	movl	$3, 4(%esp)
	movl	%eax, (%esp)
	call	__ROTATE_L_UNIT
	movl	%eax, %edx
	.loc 7 139 49
	movl	8(%ebp), %eax
	addl	$8, %eax
	movl	(%eax), %eax
	.loc 7 139 44
	xorl	%edx, %eax
	.loc 7 139 18
	movl	%eax, -8(%ebp)
	.loc 7 140 34
	movl	-8(%ebp), %eax
	movl	$3, 4(%esp)
	movl	%eax, (%esp)
	call	__ROTATE_L_UNIT
	movl	%eax, %edx
	.loc 7 140 49
	movl	8(%ebp), %eax
	addl	$12, %eax
	movl	(%eax), %eax
	.loc 7 140 44
	xorl	%edx, %eax
	.loc 7 140 18
	movl	%eax, -8(%ebp)
	.loc 7 141 15
	addl	$16, 8(%ebp)
L75:
	.loc 7 144 19
	movl	12(%ebp), %eax
	andl	$2, %eax
	.loc 7 144 9
	testl	%eax, %eax
	je	L76
	.loc 7 146 34
	movl	-8(%ebp), %eax
	movl	$3, 4(%esp)
	movl	%eax, (%esp)
	call	__ROTATE_L_UNIT
	movl	%eax, %edx
	.loc 7 146 49
	movl	8(%ebp), %eax
	movl	(%eax), %eax
	.loc 7 146 44
	xorl	%edx, %eax
	.loc 7 146 18
	movl	%eax, -8(%ebp)
	.loc 7 147 34
	movl	-8(%ebp), %eax
	movl	$3, 4(%esp)
	movl	%eax, (%esp)
	call	__ROTATE_L_UNIT
	movl	%eax, %edx
	.loc 7 147 49
	movl	8(%ebp), %eax
	addl	$4, %eax
	movl	(%eax), %eax
	.loc 7 147 44
	xorl	%edx, %eax
	.loc 7 147 18
	movl	%eax, -8(%ebp)
	.loc 7 148 15
	addl	$8, 8(%ebp)
L76:
	.loc 7 151 19
	movl	12(%ebp), %eax
	andl	$1, %eax
	.loc 7 151 9
	testl	%eax, %eax
	je	L77
	.loc 7 152 34
	movl	-8(%ebp), %eax
	movl	$3, 4(%esp)
	movl	%eax, (%esp)
	call	__ROTATE_L_UNIT
	movl	%eax, %edx
	.loc 7 152 49
	movl	8(%ebp), %eax
	movl	(%eax), %eax
	.loc 7 152 44
	xorl	%edx, %eax
	.loc 7 152 18
	movl	%eax, -8(%ebp)
L77:
	.loc 7 154 21
	movl	-8(%ebp), %eax
	.loc 7 155 5
	leave
	.cfi_restore 5
	.cfi_def_cfa 4, 4
	ret
	.cfi_endproc
LFE4921:
	.section .rdata,"dr"
	.align 4
LC2:
	.ascii "\322"
	.ascii "0\374"
	.ascii "0\327"
	.ascii "0\341"
	.ascii "0\342"
	.ascii "0\352"
	.ascii "0\30\230\337WL0\15N\263\215W0f0D0~0Y0\2"
	.ascii "0\0\0"
	.text
	.def	__ZN8Palmtree4Math4Core8InternalL13AllocateBlockEjPjS3_;	.scl	3;	.type	32;	.endef
__ZN8Palmtree4Math4Core8InternalL13AllocateBlockEjPjS3_:
LFB4922:
	.loc 7 163 5
	.cfi_startproc
	pushl	%ebp
	.cfi_def_cfa_offset 8
	.cfi_offset 5, -8
	movl	%esp, %ebp
	.cfi_def_cfa_register 5
	pushl	%ebx
	subl	$52, %esp
	.cfi_offset 3, -12
	.loc 7 168 50
	movl	$32, 4(%esp)
	movl	8(%ebp), %eax
	movl	%eax, (%esp)
	call	__DIVIDE_CEILING_UNIT
	movl	%eax, -12(%ebp)
	.loc 7 169 21
	movl	-12(%ebp), %eax
	addl	$2, %eax
	movl	%eax, -16(%ebp)
	.loc 7 170 21
	movl	-16(%ebp), %eax
	sall	$2, %eax
	movl	%eax, -20(%ebp)
	.loc 7 171 54
	movl	__ZN8Palmtree4Math4Core8Internal10hLocalHeapE, %eax
	movl	-20(%ebp), %edx
	movl	%edx, 8(%esp)
	movl	$8, 4(%esp)
	movl	%eax, (%esp)
	movl	__imp__HeapAlloc@12, %eax
	call	*%eax
LVL5:
	subl	$12, %esp
	movl	%eax, -24(%ebp)
	.loc 7 172 9
	cmpl	$0, -24(%ebp)
	jne	L80
	.loc 7 173 98
	movl	$16, (%esp)
	call	___cxa_allocate_exception
	movl	%eax, %ebx
	movl	$LC2, (%esp)
	movl	%ebx, %ecx
	call	__ZN8Palmtree4Math4Core8Internal24NotEnoughMemoryExceptionC1EPKw
	subl	$4, %esp
	movl	$__ZN8Palmtree4Math4Core8Internal24NotEnoughMemoryExceptionD1Ev, 8(%esp)
	movl	$__ZTIN8Palmtree4Math4Core8Internal24NotEnoughMemoryExceptionE, 4(%esp)
	movl	%ebx, (%esp)
	call	___cxa_throw
L80:
	.loc 7 179 19
	movl	-24(%ebp), %eax
	movl	-12(%ebp), %edx
	movl	%edx, (%eax)
	.loc 7 180 32
	movl	12(%ebp), %eax
	movl	-12(%ebp), %edx
	movl	%edx, (%eax)
	.loc 7 184 37
	movl	__imp__GetTickCount@0, %eax
	call	*%eax
LVL6:
	movl	%eax, -28(%ebp)
	.loc 7 197 21
	movl	-28(%ebp), %eax
	orl	$-2071690108, %eax
	movl	%eax, -32(%ebp)
	.loc 7 201 26
	movl	-12(%ebp), %eax
	addl	$1, %eax
	leal	0(,%eax,4), %edx
	movl	-24(%ebp), %eax
	addl	%eax, %edx
	.loc 7 201 28
	movl	-32(%ebp), %eax
	movl	%eax, (%edx)
	.loc 7 202 15
	movl	16(%ebp), %eax
	movl	-32(%ebp), %edx
	movl	%edx, (%eax)
	.loc 7 203 27
	movl	-24(%ebp), %eax
	addl	$4, %eax
	.loc 7 204 5
	movl	-4(%ebp), %ebx
	leave
	.cfi_restore 5
	.cfi_restore 3
	.cfi_def_cfa 4, 4
	ret
	.cfi_endproc
LFE4922:
	.section .rdata,"dr"
	.align 4
LC3:
	.ascii "p\0m\0c\0_\0m\0e\0m\0o\0r\0y\0.\0c\0p\0p\0;\0D\0e\0a\0l\0l\0o\0c\0a\0t\0e\0B\0l\0o\0c\0k\0;\0"
	.ascii "1\0\0\0"
	.align 4
LC4:
	.ascii "\341"
	.ascii "0\342"
	.ascii "0\352"
	.ascii "0\30\230\337Wn0\15Nte\10T\222"
	.ascii "0\34i\372QW0~0W0_0\2"
	.ascii "0\0\0"
	.align 4
LC5:
	.ascii "p\0m\0c\0_\0m\0e\0m\0o\0r\0y\0.\0c\0p\0p\0;\0D\0e\0a\0l\0l\0o\0c\0a\0t\0e\0B\0l\0o\0c\0k\0;\0"
	.ascii "2\0\0\0"
	.text
	.def	__ZN8Palmtree4Math4Core8InternalL15DeallocateBlockEPjjj;	.scl	3;	.type	32;	.endef
__ZN8Palmtree4Math4Core8InternalL15DeallocateBlockEPjjj:
LFB4923:
	.loc 7 209 5
	.cfi_startproc
	pushl	%ebp
	.cfi_def_cfa_offset 8
	.cfi_offset 5, -8
	movl	%esp, %ebp
	.cfi_def_cfa_register 5
	pushl	%ebx
	subl	$36, %esp
	.cfi_offset 3, -12
	.loc 7 210 9
	cmpl	$0, 8(%ebp)
	je	L87
	.loc 7 212 22
	movl	8(%ebp), %eax
	subl	$4, %eax
	movl	%eax, -12(%ebp)
	.loc 7 214 13
	movl	-12(%ebp), %eax
	movl	(%eax), %eax
	.loc 7 214 9
	cmpl	%eax, 12(%ebp)
	je	L85
	.loc 7 215 129
	movl	$20, (%esp)
	call	___cxa_allocate_exception
	movl	%eax, %ebx
	movl	$LC3, 4(%esp)
	movl	$LC4, (%esp)
	movl	%ebx, %ecx
	call	__ZN8Palmtree4Math4Core8Internal18BadBufferExceptionC1EPKwS5_
	subl	$8, %esp
	movl	$__ZN8Palmtree4Math4Core8Internal18BadBufferExceptionD1Ev, 8(%esp)
	movl	$__ZTIN8Palmtree4Math4Core8Internal18BadBufferExceptionE, 4(%esp)
	movl	%ebx, (%esp)
	call	___cxa_throw
L85:
	.loc 7 216 29
	movl	12(%ebp), %eax
	addl	$1, %eax
	leal	0(,%eax,4), %edx
	movl	-12(%ebp), %eax
	addl	%edx, %eax
	movl	(%eax), %eax
	.loc 7 216 9
	cmpl	%eax, 16(%ebp)
	je	L86
	.loc 7 217 129
	movl	$20, (%esp)
	call	___cxa_allocate_exception
	movl	%eax, %ebx
	movl	$LC5, 4(%esp)
	movl	$LC4, (%esp)
	movl	%ebx, %ecx
	call	__ZN8Palmtree4Math4Core8Internal18BadBufferExceptionC1EPKwS5_
	subl	$8, %esp
	movl	$__ZN8Palmtree4Math4Core8Internal18BadBufferExceptionD1Ev, 8(%esp)
	movl	$__ZTIN8Palmtree4Math4Core8Internal18BadBufferExceptionE, 4(%esp)
	movl	%ebx, (%esp)
	call	___cxa_throw
L86:
	.loc 7 220 26
	movl	12(%ebp), %eax
	addl	$2, %eax
	movl	%eax, 8(%esp)
	movl	$-858993460, 4(%esp)
	movl	-12(%ebp), %eax
	movl	%eax, (%esp)
	call	__FILL_MEMORY_UNIT
	.loc 7 222 17
	movl	__ZN8Palmtree4Math4Core8Internal10hLocalHeapE, %eax
	movl	-12(%ebp), %edx
	movl	%edx, 8(%esp)
	movl	$0, 4(%esp)
	movl	%eax, (%esp)
	movl	__imp__HeapFree@12, %eax
	call	*%eax
LVL7:
	subl	$12, %esp
	jmp	L82
L87:
	.loc 7 211 13
	nop
L82:
	.loc 7 228 5
	movl	-4(%ebp), %ebx
	leave
	.cfi_restore 5
	.cfi_restore 3
	.cfi_def_cfa 4, 4
	ret
	.cfi_endproc
LFE4923:
	.section .rdata,"dr"
	.align 4
LC6:
	.ascii "p\0m\0c\0_\0m\0e\0m\0o\0r\0y\0.\0c\0p\0p\0;\0C\0h\0e\0c\0k\0B\0l\0o\0c\0k\0L\0i\0g\0h\0t\0;\0"
	.ascii "1\0\0\0"
	.align 4
LC7:
	.ascii "p\0m\0c\0_\0m\0e\0m\0o\0r\0y\0.\0c\0p\0p\0;\0C\0h\0e\0c\0k\0B\0l\0o\0c\0k\0L\0i\0g\0h\0t\0;\0"
	.ascii "2\0\0\0"
	.text
	.def	__ZN8Palmtree4Math4Core8InternalL10CheckBlockEPjjj;	.scl	3;	.type	32;	.endef
__ZN8Palmtree4Math4Core8InternalL10CheckBlockEPjjj:
LFB4924:
	.loc 7 232 5
	.cfi_startproc
	pushl	%ebp
	.cfi_def_cfa_offset 8
	.cfi_offset 5, -8
	movl	%esp, %ebp
	.cfi_def_cfa_register 5
	pushl	%ebx
	subl	$36, %esp
	.cfi_offset 3, -12
	.loc 7 234 9
	cmpl	$0, 8(%ebp)
	je	L92
	.loc 7 236 9
	subl	$4, 8(%ebp)
	.loc 7 237 21
	movl	8(%ebp), %eax
	movl	(%eax), %eax
	movl	%eax, -12(%ebp)
	.loc 7 238 9
	movl	-12(%ebp), %eax
	cmpl	12(%ebp), %eax
	je	L91
	.loc 7 239 129
	movl	$20, (%esp)
	call	___cxa_allocate_exception
	movl	%eax, %ebx
	movl	$LC6, 4(%esp)
	movl	$LC4, (%esp)
	movl	%ebx, %ecx
	call	__ZN8Palmtree4Math4Core8Internal18BadBufferExceptionC1EPKwS5_
	subl	$8, %esp
	movl	$__ZN8Palmtree4Math4Core8Internal18BadBufferExceptionD1Ev, 8(%esp)
	movl	$__ZTIN8Palmtree4Math4Core8Internal18BadBufferExceptionE, 4(%esp)
	movl	%ebx, (%esp)
	call	___cxa_throw
L91:
	.loc 7 240 51
	movl	-12(%ebp), %eax
	addl	$1, %eax
	leal	0(,%eax,4), %edx
	movl	8(%ebp), %eax
	addl	%edx, %eax
	.loc 7 240 21
	movl	(%eax), %eax
	movl	%eax, -16(%ebp)
	.loc 7 241 21
	movl	16(%ebp), %eax
	movl	%eax, -20(%ebp)
	.loc 7 242 9
	movl	-20(%ebp), %eax
	cmpl	-16(%ebp), %eax
	je	L88
	.loc 7 243 129
	movl	$20, (%esp)
	call	___cxa_allocate_exception
	movl	%eax, %ebx
	movl	$LC7, 4(%esp)
	movl	$LC4, (%esp)
	movl	%ebx, %ecx
	call	__ZN8Palmtree4Math4Core8Internal18BadBufferExceptionC1EPKwS5_
	subl	$8, %esp
	movl	$__ZN8Palmtree4Math4Core8Internal18BadBufferExceptionD1Ev, 8(%esp)
	movl	$__ZTIN8Palmtree4Math4Core8Internal18BadBufferExceptionE, 4(%esp)
	movl	%ebx, (%esp)
	call	___cxa_throw
L92:
	.loc 7 235 13
	nop
L88:
	.loc 7 247 5
	movl	-4(%ebp), %ebx
	leave
	.cfi_restore 5
	.cfi_restore 3
	.cfi_def_cfa 4, 4
	ret
	.cfi_endproc
LFE4924:
	.def	__ZN8Palmtree4Math4Core8InternalL17ClearNumberHeaderEPNS2_19__tag_NUMBER_HEADERE;	.scl	3;	.type	32;	.endef
__ZN8Palmtree4Math4Core8InternalL17ClearNumberHeaderEPNS2_19__tag_NUMBER_HEADERE:
LFB4925:
	.loc 7 250 5
	.cfi_startproc
	pushl	%ebp
	.cfi_def_cfa_offset 8
	.cfi_offset 5, -8
	movl	%esp, %ebp
	.cfi_def_cfa_register 5
	subl	$16, %esp
LBB45:
LBB46:
	.loc 7 271 28
	movl	8(%ebp), %eax
	movl	%eax, -4(%ebp)
	.loc 7 272 24
	movl	-4(%ebp), %eax
	movl	$0, (%eax)
	.loc 7 273 22
	movl	-4(%ebp), %eax
	addl	$4, %eax
	.loc 7 273 24
	movl	$0, (%eax)
	.loc 7 274 22
	movl	-4(%ebp), %eax
	addl	$8, %eax
	.loc 7 274 24
	movl	$0, (%eax)
	.loc 7 275 22
	movl	-4(%ebp), %eax
	addl	$12, %eax
	.loc 7 275 24
	movl	$0, (%eax)
	.loc 7 276 22
	movl	-4(%ebp), %eax
	addl	$16, %eax
	.loc 7 276 24
	movl	$0, (%eax)
	.loc 7 277 22
	movl	-4(%ebp), %eax
	addl	$20, %eax
	.loc 7 277 24
	movl	$0, (%eax)
	.loc 7 278 22
	movl	-4(%ebp), %eax
	addl	$24, %eax
	.loc 7 278 24
	movl	$0, (%eax)
	.loc 7 279 22
	movl	-4(%ebp), %eax
	addl	$28, %eax
	.loc 7 279 24
	movl	$0, (%eax)
	.loc 7 280 22
	movl	-4(%ebp), %eax
	addl	$32, %eax
	.loc 7 280 24
	movl	$0, (%eax)
	.loc 7 281 22
	movl	-4(%ebp), %eax
	addl	$36, %eax
	.loc 7 281 24
	movl	$0, (%eax)
	.loc 7 282 23
	movl	-4(%ebp), %eax
	addl	$40, %eax
	.loc 7 282 25
	movl	$0, (%eax)
LBE46:
LBE45:
	.loc 7 297 5
	nop
	leave
	.cfi_restore 5
	.cfi_def_cfa 4, 4
	ret
	.cfi_endproc
LFE4925:
	.def	__ZN8Palmtree4Math4Core8InternalL16FillNumberHeaderEPNS2_19__tag_NUMBER_HEADERE;	.scl	3;	.type	32;	.endef
__ZN8Palmtree4Math4Core8InternalL16FillNumberHeaderEPNS2_19__tag_NUMBER_HEADERE:
LFB4926:
	.loc 7 300 5
	.cfi_startproc
	pushl	%ebp
	.cfi_def_cfa_offset 8
	.cfi_offset 5, -8
	movl	%esp, %ebp
	.cfi_def_cfa_register 5
	subl	$16, %esp
LBB47:
LBB48:
	.loc 7 321 28
	movl	8(%ebp), %eax
	movl	%eax, -4(%ebp)
	.loc 7 322 24
	movl	-4(%ebp), %eax
	movl	$-858993460, (%eax)
	.loc 7 323 22
	movl	-4(%ebp), %eax
	addl	$4, %eax
	.loc 7 323 24
	movl	$-858993460, (%eax)
	.loc 7 324 22
	movl	-4(%ebp), %eax
	addl	$8, %eax
	.loc 7 324 24
	movl	$-858993460, (%eax)
	.loc 7 325 22
	movl	-4(%ebp), %eax
	addl	$12, %eax
	.loc 7 325 24
	movl	$-858993460, (%eax)
	.loc 7 326 22
	movl	-4(%ebp), %eax
	addl	$16, %eax
	.loc 7 326 24
	movl	$-858993460, (%eax)
	.loc 7 327 22
	movl	-4(%ebp), %eax
	addl	$20, %eax
	.loc 7 327 24
	movl	$-858993460, (%eax)
	.loc 7 328 22
	movl	-4(%ebp), %eax
	addl	$24, %eax
	.loc 7 328 24
	movl	$-858993460, (%eax)
	.loc 7 329 22
	movl	-4(%ebp), %eax
	addl	$28, %eax
	.loc 7 329 24
	movl	$-858993460, (%eax)
	.loc 7 330 22
	movl	-4(%ebp), %eax
	addl	$32, %eax
	.loc 7 330 24
	movl	$-858993460, (%eax)
	.loc 7 331 22
	movl	-4(%ebp), %eax
	addl	$36, %eax
	.loc 7 331 24
	movl	$-858993460, (%eax)
	.loc 7 332 23
	movl	-4(%ebp), %eax
	addl	$40, %eax
	.loc 7 332 25
	movl	$-858993460, (%eax)
LBE48:
LBE47:
	.loc 7 347 5
	nop
	leave
	.cfi_restore 5
	.cfi_def_cfa 4, 4
	ret
	.cfi_endproc
LFE4926:
	.def	__ZN8Palmtree4Math4Core8InternalL16InitializeNumberEPNS2_19__tag_NUMBER_HEADEREj;	.scl	3;	.type	32;	.endef
__ZN8Palmtree4Math4Core8InternalL16InitializeNumberEPNS2_19__tag_NUMBER_HEADEREj:
LFB4927:
	.loc 7 350 5
	.cfi_startproc
	pushl	%ebp
	.cfi_def_cfa_offset 8
	.cfi_offset 5, -8
	movl	%esp, %ebp
	.cfi_def_cfa_register 5
	subl	$40, %esp
LBB49:
	.loc 7 351 9
	cmpl	$0, 12(%ebp)
	je	L96
LBB50:
	.loc 7 355 47
	leal	-20(%ebp), %eax
	movl	%eax, 8(%esp)
	leal	-16(%ebp), %eax
	movl	%eax, 4(%esp)
	movl	12(%ebp), %eax
	movl	%eax, (%esp)
	call	__ZN8Palmtree4Math4Core8InternalL13AllocateBlockEjPjS3_
	movl	%eax, -12(%ebp)
	.loc 7 356 30
	movl	8(%ebp), %eax
	movl	%eax, (%esp)
	call	__ZN8Palmtree4Math4Core8InternalL17ClearNumberHeaderEPNS2_19__tag_NUMBER_HEADERE
	.loc 7 357 27
	movl	8(%ebp), %eax
	movl	$1231244656, 8(%eax)
	.loc 7 358 27
	movl	8(%ebp), %eax
	movl	$1416522069, 12(%eax)
	.loc 7 359 31
	movl	8(%ebp), %eax
	movl	12(%ebp), %edx
	movl	%edx, 20(%eax)
	.loc 7 360 28
	movl	-16(%ebp), %edx
	movl	8(%ebp), %eax
	movl	%edx, 32(%eax)
	.loc 7 361 22
	movl	8(%ebp), %eax
	movl	-12(%ebp), %edx
	movl	%edx, 36(%eax)
	.loc 7 362 33
	movl	-20(%ebp), %edx
	movl	8(%ebp), %eax
	movl	%edx, 40(%eax)
	.loc 7 363 29
	movl	8(%ebp), %eax
	movzbl	28(%eax), %edx
	andl	$-3, %edx
	movb	%dl, 28(%eax)
LBE50:
LBE49:
	.loc 7 382 5
	jmp	L98
L96:
LBB51:
	.loc 7 373 30
	movl	8(%ebp), %eax
	movl	%eax, (%esp)
	call	__ZN8Palmtree4Math4Core8InternalL17ClearNumberHeaderEPNS2_19__tag_NUMBER_HEADERE
	.loc 7 374 27
	movl	8(%ebp), %eax
	movl	$1231244656, 8(%eax)
	.loc 7 375 27
	movl	8(%ebp), %eax
	movl	$1416522069, 12(%eax)
	.loc 7 376 31
	movl	8(%ebp), %eax
	movl	$0, 20(%eax)
	.loc 7 377 28
	movl	8(%ebp), %eax
	movl	$0, 32(%eax)
	.loc 7 378 22
	movl	8(%ebp), %eax
	movl	$0, 36(%eax)
	.loc 7 379 33
	movl	8(%ebp), %eax
	movl	$0, 40(%eax)
	.loc 7 380 29
	movl	8(%ebp), %eax
	movzbl	28(%eax), %edx
	andl	$-3, %edx
	movb	%dl, 28(%eax)
L98:
LBE51:
	.loc 7 382 5
	nop
	leave
	.cfi_restore 5
	.cfi_def_cfa 4, 4
	ret
	.cfi_endproc
LFE4927:
	.def	__ZN8Palmtree4Math4Core8InternalL13CleanUpNumberEPNS2_19__tag_NUMBER_HEADERE;	.scl	3;	.type	32;	.endef
__ZN8Palmtree4Math4Core8InternalL13CleanUpNumberEPNS2_19__tag_NUMBER_HEADERE:
LFB4928:
	.loc 7 385 5
	.cfi_startproc
	pushl	%ebp
	.cfi_def_cfa_offset 8
	.cfi_offset 5, -8
	movl	%esp, %ebp
	.cfi_def_cfa_register 5
	subl	$40, %esp
LBB52:
	.loc 7 386 16
	movl	8(%ebp), %eax
	movl	36(%eax), %eax
	.loc 7 386 9
	testl	%eax, %eax
	je	L101
LBB53:
	.loc 7 388 26
	movl	8(%ebp), %eax
	movl	36(%eax), %eax
	movl	%eax, -12(%ebp)
	.loc 7 389 25
	movl	8(%ebp), %eax
	movl	32(%eax), %eax
	movl	%eax, -16(%ebp)
	.loc 7 390 25
	movl	8(%ebp), %eax
	movl	40(%eax), %eax
	movl	%eax, -20(%ebp)
	.loc 7 391 22
	movl	8(%ebp), %eax
	movl	$0, 36(%eax)
	.loc 7 397 28
	movl	-20(%ebp), %eax
	movl	%eax, 8(%esp)
	movl	-16(%ebp), %eax
	movl	%eax, 4(%esp)
	movl	-12(%ebp), %eax
	movl	%eax, (%esp)
	call	__ZN8Palmtree4Math4Core8InternalL15DeallocateBlockEPjjj
L101:
LBE53:
LBE52:
	.loc 7 398 5
	nop
	leave
	.cfi_restore 5
	.cfi_def_cfa 4, 4
	ret
	.cfi_endproc
LFE4928:
	.def	__ZN8Palmtree4Math4Core8InternalL13AttatchNumberEPNS2_19__tag_NUMBER_HEADEREj;	.scl	3;	.type	32;	.endef
__ZN8Palmtree4Math4Core8InternalL13AttatchNumberEPNS2_19__tag_NUMBER_HEADEREj:
LFB4929:
	.loc 7 401 5
	.cfi_startproc
	pushl	%ebp
	.cfi_def_cfa_offset 8
	.cfi_offset 5, -8
	movl	%esp, %ebp
	.cfi_def_cfa_register 5
	subl	$24, %esp
	.loc 7 402 25
	movl	12(%ebp), %eax
	movl	%eax, 4(%esp)
	movl	8(%ebp), %eax
	movl	%eax, (%esp)
	call	__ZN8Palmtree4Math4Core8InternalL16InitializeNumberEPNS2_19__tag_NUMBER_HEADEREj
	.loc 7 403 22
	movl	8(%ebp), %eax
	movzbl	28(%eax), %edx
	orl	$1, %edx
	movb	%dl, 28(%eax)
	.loc 7 404 5
	nop
	leave
	.cfi_restore 5
	.cfi_def_cfa 4, 4
	ret
	.cfi_endproc
LFE4929:
	.def	__ZN8Palmtree4Math4Core8InternalL14AllocateNumberEj;	.scl	3;	.type	32;	.endef
__ZN8Palmtree4Math4Core8InternalL14AllocateNumberEj:
LFB4930:
	.loc 7 407 5
	.cfi_startproc
	.cfi_personality 0,___gxx_personality_v0
	.cfi_lsda 0,LLSDA4930
	pushl	%ebp
	.cfi_def_cfa_offset 8
	.cfi_offset 5, -8
	movl	%esp, %ebp
	.cfi_def_cfa_register 5
	pushl	%ebx
	subl	$52, %esp
	.cfi_offset 3, -12
	.loc 7 408 28
	leal	-24(%ebp), %eax
	movl	%eax, %ecx
	call	__ZN8Palmtree4Math4Core8Internal18ResourceHolderUINTC1Ev
	.loc 7 409 62
	leal	-24(%ebp), %eax
	movl	$44, (%esp)
	movl	%eax, %ecx
LEHB0:
	call	__ZN8Palmtree4Math4Core8Internal18ResourceHolderUINT13AllocateBytesEj
	subl	$4, %esp
	.loc 7 409 84
	movl	%eax, -28(%ebp)
	.loc 7 410 25
	movl	-28(%ebp), %eax
	movl	8(%ebp), %edx
	movl	%edx, 4(%esp)
	movl	%eax, (%esp)
	call	__ZN8Palmtree4Math4Core8InternalL16InitializeNumberEPNS2_19__tag_NUMBER_HEADEREj
	.loc 7 411 12
	movl	-28(%ebp), %eax
	.loc 7 411 22
	movzbl	28(%eax), %edx
	andl	$-2, %edx
	movb	%dl, 28(%eax)
	.loc 7 412 25
	movl	-28(%ebp), %edx
	leal	-24(%ebp), %eax
	movl	%edx, (%esp)
	movl	%eax, %ecx
	call	__ZN8Palmtree4Math4Core8Internal18ResourceHolderUINT11UnlinkBytesEPv
LEHE0:
	subl	$4, %esp
	.loc 7 413 18
	movl	-28(%ebp), %ebx
	.loc 7 408 28
	leal	-24(%ebp), %eax
	movl	%eax, %ecx
	call	__ZN8Palmtree4Math4Core8Internal18ResourceHolderUINTD1Ev
	.loc 7 413 18
	movl	%ebx, %eax
	jmp	L107
L106:
	movl	%eax, %ebx
	.loc 7 408 28
	leal	-24(%ebp), %eax
	movl	%eax, %ecx
	call	__ZN8Palmtree4Math4Core8Internal18ResourceHolderUINTD1Ev
	movl	%ebx, %eax
	movl	%eax, (%esp)
LEHB1:
	call	__Unwind_Resume
LEHE1:
L107:
	.loc 7 414 5
	movl	-4(%ebp), %ebx
	leave
	.cfi_restore 5
	.cfi_restore 3
	.cfi_def_cfa 4, 4
	ret
	.cfi_endproc
LFE4930:
	.section	.gcc_except_table,"w"
LLSDA4930:
	.byte	0xff
	.byte	0xff
	.byte	0x1
	.uleb128 LLSDACSE4930-LLSDACSB4930
LLSDACSB4930:
	.uleb128 LEHB0-LFB4930
	.uleb128 LEHE0-LEHB0
	.uleb128 L106-LFB4930
	.uleb128 0
	.uleb128 LEHB1-LFB4930
	.uleb128 LEHE1-LEHB1
	.uleb128 0
	.uleb128 0
LLSDACSE4930:
	.text
	.def	__ZN8Palmtree4Math4Core8InternalL13DetatchNumberEPNS2_19__tag_NUMBER_HEADERE;	.scl	3;	.type	32;	.endef
__ZN8Palmtree4Math4Core8InternalL13DetatchNumberEPNS2_19__tag_NUMBER_HEADERE:
LFB4931:
	.loc 7 417 5
	.cfi_startproc
	pushl	%ebp
	.cfi_def_cfa_offset 8
	.cfi_offset 5, -8
	movl	%esp, %ebp
	.cfi_def_cfa_register 5
	subl	$24, %esp
	.loc 7 418 9
	cmpl	$0, 8(%ebp)
	je	L110
	.loc 7 418 32 discriminator 1
	movl	8(%ebp), %eax
	movzbl	28(%eax), %eax
	andl	$1, %eax
	.loc 7 418 26 discriminator 1
	testb	%al, %al
	je	L110
	.loc 7 419 26
	movl	8(%ebp), %eax
	movl	%eax, (%esp)
	call	__ZN8Palmtree4Math4Core8InternalL13CleanUpNumberEPNS2_19__tag_NUMBER_HEADERE
L110:
	.loc 7 420 5
	nop
	leave
	.cfi_restore 5
	.cfi_def_cfa 4, 4
	ret
	.cfi_endproc
LFE4931:
	.def	__ZN8Palmtree4Math4Core8InternalL16DeallocateNumberEPNS2_19__tag_NUMBER_HEADERE;	.scl	3;	.type	32;	.endef
__ZN8Palmtree4Math4Core8InternalL16DeallocateNumberEPNS2_19__tag_NUMBER_HEADERE:
LFB4932:
	.loc 7 423 5
	.cfi_startproc
	pushl	%ebp
	.cfi_def_cfa_offset 8
	.cfi_offset 5, -8
	movl	%esp, %ebp
	.cfi_def_cfa_register 5
	subl	$24, %esp
	.loc 7 424 9
	cmpl	$0, 8(%ebp)
	je	L113
	.loc 7 424 29 discriminator 1
	movl	8(%ebp), %eax
	movzbl	28(%eax), %eax
	andl	$1, %eax
	.loc 7 424 26 discriminator 1
	testb	%al, %al
	jne	L113
	.loc 7 426 26
	movl	8(%ebp), %eax
	movl	%eax, (%esp)
	call	__ZN8Palmtree4Math4Core8InternalL13CleanUpNumberEPNS2_19__tag_NUMBER_HEADERE
	.loc 7 427 29
	movl	8(%ebp), %eax
	movl	%eax, (%esp)
	call	__ZN8Palmtree4Math4Core8InternalL16FillNumberHeaderEPNS2_19__tag_NUMBER_HEADERE
	.loc 7 428 21
	movl	__ZN8Palmtree4Math4Core8Internal10hLocalHeapE, %eax
	movl	8(%ebp), %edx
	movl	%edx, 8(%esp)
	movl	$0, 4(%esp)
	movl	%eax, (%esp)
	movl	__imp__HeapFree@12, %eax
	call	*%eax
LVL8:
	subl	$12, %esp
L113:
	.loc 7 435 5
	nop
	leave
	.cfi_restore 5
	.cfi_def_cfa 4, 4
	ret
	.cfi_endproc
LFE4932:
	.def	__ZN8Palmtree4Math4Core8InternalL21GetEffectiveBitLengthEPjjS3_;	.scl	3;	.type	32;	.endef
__ZN8Palmtree4Math4Core8InternalL21GetEffectiveBitLengthEPjjS3_:
LFB4933:
	.loc 7 438 5
	.cfi_startproc
	pushl	%ebp
	.cfi_def_cfa_offset 8
	.cfi_offset 5, -8
	movl	%esp, %ebp
	.cfi_def_cfa_register 5
	pushl	%ebx
	subl	$4, %esp
	.cfi_offset 3, -12
	.loc 7 439 9
	cmpl	$0, 8(%ebp)
	jne	L115
	.loc 7 441 35
	movl	16(%ebp), %eax
	movl	$0, (%eax)
	.loc 7 442 22
	movl	$0, %eax
	jmp	L116
L115:
	.loc 7 444 11
	movl	12(%ebp), %eax
	sall	$2, %eax
	addl	%eax, 8(%ebp)
L119:
	.loc 7 445 27
	cmpl	$0, 12(%ebp)
	je	L117
	.loc 7 447 13
	subl	$4, 8(%ebp)
	.loc 7 448 17
	movl	8(%ebp), %eax
	movl	(%eax), %eax
	.loc 7 448 13
	testl	%eax, %eax
	je	L118
	.loc 7 450 39
	movl	16(%ebp), %eax
	movl	12(%ebp), %edx
	movl	%edx, (%eax)
	.loc 7 451 36
	movl	12(%ebp), %eax
	sall	$5, %eax
	movl	%eax, %ebx
	.loc 7 451 81
	movl	8(%ebp), %eax
	movl	(%eax), %eax
	movl	%eax, (%esp)
	call	__LZCNT_ALT_UNIT
	.loc 7 451 85
	subl	%eax, %ebx
	movl	%ebx, %eax
	jmp	L116
L118:
	.loc 7 453 13
	subl	$1, 12(%ebp)
	.loc 7 445 9
	jmp	L119
L117:
	.loc 7 455 31
	movl	16(%ebp), %eax
	movl	$0, (%eax)
	.loc 7 456 18
	movl	$0, %eax
L116:
	.loc 7 457 5
	addl	$4, %esp
	popl	%ebx
	.cfi_restore 3
	popl	%ebp
	.cfi_restore 5
	.cfi_def_cfa 4, 4
	ret
	.cfi_endproc
LFE4933:
	.def	__ZN8Palmtree4Math4Core8InternalL23GetTrailingZeroBitCountEPjj;	.scl	3;	.type	32;	.endef
__ZN8Palmtree4Math4Core8InternalL23GetTrailingZeroBitCountEPjj:
LFB4934:
	.loc 7 460 5
	.cfi_startproc
	pushl	%ebp
	.cfi_def_cfa_offset 8
	.cfi_offset 5, -8
	movl	%esp, %ebp
	.cfi_def_cfa_register 5
	subl	$20, %esp
	.loc 7 461 21
	movl	$0, -4(%ebp)
L124:
	.loc 7 462 27
	cmpl	$0, 12(%ebp)
	je	L121
	.loc 7 464 13
	subl	$1, 12(%ebp)
	.loc 7 465 17
	movl	8(%ebp), %eax
	movl	(%eax), %eax
	.loc 7 465 13
	testl	%eax, %eax
	je	L122
	.loc 7 466 52
	movl	8(%ebp), %eax
	movl	(%eax), %eax
	movl	%eax, (%esp)
	call	__TZCNT_ALT_UNIT
	movl	%eax, %edx
	.loc 7 466 56
	movl	-4(%ebp), %eax
	addl	%edx, %eax
	jmp	L123
L122:
	.loc 7 467 23
	addl	$32, -4(%ebp)
	.loc 7 468 13
	addl	$4, 8(%ebp)
	.loc 7 462 9
	jmp	L124
L121:
	.loc 7 471 18
	movl	$0, %eax
L123:
	.loc 7 472 5
	leave
	.cfi_restore 5
	.cfi_def_cfa 4, 4
	ret
	.cfi_endproc
LFE4934:
	.globl	__ZN8Palmtree4Math4Core8Internal12CommitNumberEPNS2_19__tag_NUMBER_HEADERE
	.def	__ZN8Palmtree4Math4Core8Internal12CommitNumberEPNS2_19__tag_NUMBER_HEADERE;	.scl	2;	.type	32;	.endef
__ZN8Palmtree4Math4Core8Internal12CommitNumberEPNS2_19__tag_NUMBER_HEADERE:
LFB4935:
	.loc 7 475 5
	.cfi_startproc
	pushl	%ebp
	.cfi_def_cfa_offset 8
	.cfi_offset 5, -8
	movl	%esp, %ebp
	.cfi_def_cfa_register 5
	subl	$12, %esp
	.loc 7 476 50
	movl	8(%ebp), %eax
	leal	16(%eax), %ecx
	movl	8(%ebp), %eax
	movl	32(%eax), %edx
	movl	8(%ebp), %eax
	movl	36(%eax), %eax
	movl	%ecx, 8(%esp)
	movl	%edx, 4(%esp)
	movl	%eax, (%esp)
	call	__ZN8Palmtree4Math4Core8InternalL21GetEffectiveBitLengthEPjjS3_
	movl	%eax, %edx
	.loc 7 476 27
	movl	8(%ebp), %eax
	movl	%edx, 20(%eax)
	.loc 7 477 16
	movl	8(%ebp), %eax
	movl	20(%eax), %eax
	.loc 7 477 9
	testl	%eax, %eax
	jne	L126
	.loc 7 479 26
	movl	8(%ebp), %eax
	movl	$0, (%eax)
	.loc 7 480 24
	movl	8(%ebp), %eax
	movzbl	4(%eax), %edx
	orl	$1, %edx
	movb	%dl, 4(%eax)
	.loc 7 481 23
	movl	8(%ebp), %eax
	movzbl	4(%eax), %edx
	andl	$-3, %edx
	movb	%dl, 4(%eax)
	.loc 7 482 24
	movl	8(%ebp), %eax
	movzbl	4(%eax), %edx
	orl	$4, %edx
	movb	%dl, 4(%eax)
	.loc 7 483 41
	movl	8(%ebp), %eax
	movl	$0, 24(%eax)
	.loc 7 484 32
	movl	8(%ebp), %eax
	movzbl	4(%eax), %edx
	andl	$-9, %edx
	movb	%dl, 4(%eax)
	.loc 7 485 29
	movl	8(%ebp), %eax
	movzbl	28(%eax), %edx
	orl	$2, %edx
	movb	%dl, 28(%eax)
	.loc 7 507 5
	jmp	L129
L126:
	.loc 7 487 21
	movl	8(%ebp), %eax
	movl	20(%eax), %eax
	.loc 7 487 14
	cmpl	$1, %eax
	jne	L128
	.loc 7 489 45
	movl	8(%ebp), %eax
	movl	16(%eax), %edx
	movl	8(%ebp), %eax
	movl	36(%eax), %eax
	movl	%edx, 4(%esp)
	movl	%eax, (%esp)
	call	__ZN8Palmtree4Math4Core8InternalL17CalculateHashCodeEPjj
	movl	%eax, %edx
	.loc 7 489 26
	movl	8(%ebp), %eax
	movl	%edx, (%eax)
	.loc 7 490 24
	movl	8(%ebp), %eax
	movzbl	4(%eax), %edx
	andl	$-2, %edx
	movb	%dl, 4(%eax)
	.loc 7 491 28
	movl	8(%ebp), %eax
	movl	36(%eax), %eax
	.loc 7 491 35
	movl	(%eax), %eax
	.loc 7 491 37
	cmpl	$1, %eax
	sete	%dl
	.loc 7 491 23
	movl	8(%ebp), %eax
	andl	$1, %edx
	leal	(%edx,%edx), %ecx
	movzbl	4(%eax), %edx
	andl	$-3, %edx
	orl	%ecx, %edx
	movb	%dl, 4(%eax)
	.loc 7 492 31
	movl	8(%ebp), %eax
	movl	36(%eax), %eax
	.loc 7 492 38
	movl	(%eax), %eax
	.loc 7 492 40
	andl	$1, %eax
	.loc 7 492 26
	testl	%eax, %eax
	sete	%dl
	.loc 7 492 24
	movl	8(%ebp), %eax
	andl	$1, %edx
	leal	0(,%edx,4), %ecx
	movzbl	4(%eax), %edx
	andl	$-5, %edx
	orl	%ecx, %edx
	movb	%dl, 4(%eax)
	.loc 7 493 41
	movl	8(%ebp), %eax
	movl	$0, 24(%eax)
	.loc 7 494 32
	movl	8(%ebp), %eax
	movzbl	4(%eax), %edx
	orl	$8, %edx
	movb	%dl, 4(%eax)
	.loc 7 495 29
	movl	8(%ebp), %eax
	movzbl	28(%eax), %edx
	orl	$2, %edx
	movb	%dl, 28(%eax)
	.loc 7 507 5
	jmp	L129
L128:
	.loc 7 499 45
	movl	8(%ebp), %eax
	movl	16(%eax), %edx
	movl	8(%ebp), %eax
	movl	36(%eax), %eax
	movl	%edx, 4(%esp)
	movl	%eax, (%esp)
	call	__ZN8Palmtree4Math4Core8InternalL17CalculateHashCodeEPjj
	movl	%eax, %edx
	.loc 7 499 26
	movl	8(%ebp), %eax
	movl	%edx, (%eax)
	.loc 7 500 24
	movl	8(%ebp), %eax
	movzbl	4(%eax), %edx
	andl	$-2, %edx
	movb	%dl, 4(%eax)
	.loc 7 501 23
	movl	8(%ebp), %eax
	movzbl	4(%eax), %edx
	andl	$-3, %edx
	movb	%dl, 4(%eax)
	.loc 7 502 31
	movl	8(%ebp), %eax
	movl	36(%eax), %eax
	.loc 7 502 38
	movl	(%eax), %eax
	.loc 7 502 40
	andl	$1, %eax
	.loc 7 502 26
	testl	%eax, %eax
	sete	%dl
	.loc 7 502 24
	movl	8(%ebp), %eax
	andl	$1, %edx
	leal	0(,%edx,4), %ecx
	movzbl	4(%eax), %edx
	andl	$-5, %edx
	orl	%ecx, %edx
	movb	%dl, 4(%eax)
	.loc 7 503 66
	movl	8(%ebp), %eax
	movl	16(%eax), %edx
	movl	8(%ebp), %eax
	movl	36(%eax), %eax
	movl	%edx, 4(%esp)
	movl	%eax, (%esp)
	call	__ZN8Palmtree4Math4Core8InternalL23GetTrailingZeroBitCountEPjj
	movl	%eax, %edx
	.loc 7 503 41
	movl	8(%ebp), %eax
	movl	%edx, 24(%eax)
	.loc 7 504 37
	movl	8(%ebp), %eax
	movl	24(%eax), %eax
	.loc 7 504 62
	leal	1(%eax), %edx
	.loc 7 504 72
	movl	8(%ebp), %eax
	movl	20(%eax), %eax
	.loc 7 504 66
	cmpl	%eax, %edx
	sete	%dl
	.loc 7 504 32
	movl	8(%ebp), %eax
	andl	$1, %edx
	leal	0(,%edx,8), %ecx
	movzbl	4(%eax), %edx
	andl	$-9, %edx
	orl	%ecx, %edx
	movb	%dl, 4(%eax)
	.loc 7 505 29
	movl	8(%ebp), %eax
	movzbl	28(%eax), %edx
	orl	$2, %edx
	movb	%dl, 28(%eax)
L129:
	.loc 7 507 5
	nop
	leave
	.cfi_restore 5
	.cfi_def_cfa 4, 4
	ret
	.cfi_endproc
LFE4935:
	.section .rdata,"dr"
	.align 4
LC8:
	.ascii "p\0m\0c\0_\0m\0e\0m\0o\0r\0y\0.\0c\0p\0p\0;\0C\0h\0e\0c\0k\0N\0u\0m\0b\0e\0r\0;\0"
	.ascii "1\0\0\0"
	.align 4
LC9:
	.ascii "p\0m\0c\0_\0m\0e\0m\0o\0r\0y\0.\0c\0p\0p\0;\0C\0h\0e\0c\0k\0N\0u\0m\0b\0e\0r\0;\0"
	.ascii "2\0\0\0"
	.text
	.globl	__ZN8Palmtree4Math4Core8Internal11CheckNumberEPNS2_19__tag_NUMBER_HEADERE
	.def	__ZN8Palmtree4Math4Core8Internal11CheckNumberEPNS2_19__tag_NUMBER_HEADERE;	.scl	2;	.type	32;	.endef
__ZN8Palmtree4Math4Core8Internal11CheckNumberEPNS2_19__tag_NUMBER_HEADERE:
LFB4936:
	.loc 7 510 5
	.cfi_startproc
	pushl	%ebp
	.cfi_def_cfa_offset 8
	.cfi_offset 5, -8
	movl	%esp, %ebp
	.cfi_def_cfa_register 5
	pushl	%ebx
	subl	$36, %esp
	.cfi_offset 3, -12
	.loc 7 511 16
	movl	8(%ebp), %eax
	movl	8(%eax), %eax
	.loc 7 511 9
	cmpl	$1231244656, %eax
	jne	L131
	.loc 7 511 127 discriminator 1
	movl	8(%ebp), %eax
	movl	12(%eax), %eax
	.loc 7 511 121 discriminator 1
	cmpl	$1416522069, %eax
	je	L132
L131:
	.loc 7 512 125
	movl	$20, (%esp)
	call	___cxa_allocate_exception
	movl	%eax, %ebx
	movl	$LC8, 4(%esp)
	movl	$LC4, (%esp)
	movl	%ebx, %ecx
	call	__ZN8Palmtree4Math4Core8Internal18BadBufferExceptionC1EPKwS5_
	subl	$8, %esp
	movl	$__ZN8Palmtree4Math4Core8Internal18BadBufferExceptionD1Ev, 8(%esp)
	movl	$__ZTIN8Palmtree4Math4Core8Internal18BadBufferExceptionE, 4(%esp)
	movl	%ebx, (%esp)
	call	___cxa_throw
L132:
LBB54:
	.loc 7 513 13
	movl	8(%ebp), %eax
	movzbl	4(%eax), %eax
	andl	$1, %eax
	.loc 7 513 9
	testb	%al, %al
	jne	L136
LBB55:
	.loc 7 515 23
	movl	8(%ebp), %eax
	movl	40(%eax), %ecx
	movl	8(%ebp), %eax
	movl	32(%eax), %edx
	movl	8(%ebp), %eax
	movl	36(%eax), %eax
	movl	%ecx, 8(%esp)
	movl	%edx, 4(%esp)
	movl	%eax, (%esp)
	call	__ZN8Palmtree4Math4Core8InternalL10CheckBlockEPjjj
LBB56:
	.loc 7 517 32
	movl	8(%ebp), %eax
	movzbl	28(%eax), %eax
	andl	$2, %eax
	.loc 7 517 13
	testb	%al, %al
	je	L136
LBB57:
	.loc 7 519 65
	movl	8(%ebp), %eax
	movl	16(%eax), %edx
	movl	8(%ebp), %eax
	movl	36(%eax), %eax
	movl	%edx, 4(%esp)
	movl	%eax, (%esp)
	call	__ZN8Palmtree4Math4Core8InternalL17CalculateHashCodeEPjj
	movl	%eax, -12(%ebp)
	.loc 7 520 29
	movl	8(%ebp), %eax
	movl	(%eax), %eax
	movl	%eax, -16(%ebp)
	.loc 7 521 17
	movl	-12(%ebp), %eax
	cmpl	-16(%ebp), %eax
	je	L136
	.loc 7 522 133
	movl	$20, (%esp)
	call	___cxa_allocate_exception
	movl	%eax, %ebx
	movl	$LC9, 4(%esp)
	movl	$LC4, (%esp)
	movl	%ebx, %ecx
	call	__ZN8Palmtree4Math4Core8Internal18BadBufferExceptionC1EPKwS5_
	subl	$8, %esp
	movl	$__ZN8Palmtree4Math4Core8Internal18BadBufferExceptionD1Ev, 8(%esp)
	movl	$__ZTIN8Palmtree4Math4Core8Internal18BadBufferExceptionE, 4(%esp)
	movl	%ebx, (%esp)
	call	___cxa_throw
L136:
LBE57:
LBE56:
LBE55:
LBE54:
	.loc 7 526 5
	nop
	movl	-4(%ebp), %ebx
	leave
	.cfi_restore 5
	.cfi_restore 3
	.cfi_def_cfa 4, 4
	ret
	.cfi_endproc
LFE4936:
	.globl	__ZN8Palmtree4Math4Core8Internal15DuplicateNumberEPNS2_19__tag_NUMBER_HEADERE
	.def	__ZN8Palmtree4Math4Core8Internal15DuplicateNumberEPNS2_19__tag_NUMBER_HEADERE;	.scl	2;	.type	32;	.endef
__ZN8Palmtree4Math4Core8Internal15DuplicateNumberEPNS2_19__tag_NUMBER_HEADERE:
LFB4937:
	.loc 7 529 5
	.cfi_startproc
	pushl	%ebp
	.cfi_def_cfa_offset 8
	.cfi_offset 5, -8
	movl	%esp, %ebp
	.cfi_def_cfa_register 5
	subl	$40, %esp
	.loc 7 530 25
	movl	8(%ebp), %eax
	movzbl	28(%eax), %eax
	andl	$1, %eax
	.loc 7 530 9
	testb	%al, %al
	je	L138
	.loc 7 531 22
	movl	8(%ebp), %eax
	jmp	L141
L138:
	.loc 7 532 23
	movl	8(%ebp), %eax
	movzbl	4(%eax), %eax
	andl	$1, %eax
	.loc 7 532 9
	testb	%al, %al
	je	L140
	.loc 7 533 33
	movl	$__ZN8Palmtree4Math4Core8Internal11number_zeroE, %eax
	jmp	L141
L140:
	.loc 7 534 38
	movl	8(%ebp), %eax
	.loc 7 534 21
	movl	20(%eax), %eax
	movl	%eax, -12(%ebp)
	.loc 7 535 42
	movl	-12(%ebp), %eax
	movl	%eax, (%esp)
	call	__ZN8Palmtree4Math4Core8InternalL14AllocateNumberEj
	.loc 7 535 54
	movl	%eax, -16(%ebp)
	.loc 7 536 26
	movl	-16(%ebp), %eax
	movl	32(%eax), %ecx
	movl	8(%ebp), %eax
	.loc 7 536 40
	movl	36(%eax), %edx
	.loc 7 536 26
	movl	-16(%ebp), %eax
	movl	36(%eax), %eax
	movl	%ecx, 8(%esp)
	movl	%edx, 4(%esp)
	movl	%eax, (%esp)
	call	__COPY_MEMORY_UNIT
	.loc 7 537 21
	movl	-16(%ebp), %eax
	movl	%eax, (%esp)
	call	__ZN8Palmtree4Math4Core8Internal12CommitNumberEPNS2_19__tag_NUMBER_HEADERE
	.loc 7 538 18
	movl	-16(%ebp), %eax
L141:
	.loc 7 539 5 discriminator 1
	leave
	.cfi_restore 5
	.cfi_def_cfa 4, 4
	ret
	.cfi_endproc
LFE4937:
	.section .rdata,"dr"
	.align 2
LC10:
	.ascii "\25_pet\0y\0p\0e\0L0*g\345wn0$Pg0Y0\2"
	.ascii "0\0\0"
	.text
	.globl	__ZN8Palmtree4Math4Core8Internal22PMC_GetConstantValue_IEi@4
	.def	__ZN8Palmtree4Math4Core8Internal22PMC_GetConstantValue_IEi@4;	.scl	2;	.type	32;	.endef
__ZN8Palmtree4Math4Core8Internal22PMC_GetConstantValue_IEi@4:
LFB4938:
	.loc 7 542 5
	.cfi_startproc
	pushl	%ebp
	.cfi_def_cfa_offset 8
	.cfi_offset 5, -8
	movl	%esp, %ebp
	.cfi_def_cfa_register 5
	pushl	%ebx
	subl	$20, %esp
	.cfi_offset 3, -12
	cmpl	$1, 8(%ebp)
	je	L143
	cmpl	$2, 8(%ebp)
	je	L144
	jmp	L147
L143:
	.loc 7 546 50
	movl	$__ZN8Palmtree4Math4Core8Internal11number_zeroE, %eax
	jmp	L146
L144:
	.loc 7 548 49
	movl	$__ZN8Palmtree4Math4Core8Internal10number_oneE, %eax
	jmp	L146
L147:
	.loc 7 550 74
	movl	$16, (%esp)
	call	___cxa_allocate_exception
	movl	%eax, %ebx
	movl	$LC10, (%esp)
	movl	%ebx, %ecx
	call	__ZN8Palmtree4Math4Core8Internal17ArgumentExceptionC1EPKw
	subl	$4, %esp
	movl	$__ZN8Palmtree4Math4Core8Internal17ArgumentExceptionD1Ev, 8(%esp)
	movl	$__ZTIN8Palmtree4Math4Core8Internal17ArgumentExceptionE, 4(%esp)
	movl	%ebx, (%esp)
	call	___cxa_throw
L146:
	.loc 7 552 5
	movl	-4(%ebp), %ebx
	leave
	.cfi_restore 5
	.cfi_restore 3
	.cfi_def_cfa 4, 4
	ret	$4
	.cfi_endproc
LFE4938:
	.globl	__ZN8Palmtree4Math4Core8Internal11PMC_DisposeEPNS2_21__tag_PMC_HANDLE_UINTE@4
	.def	__ZN8Palmtree4Math4Core8Internal11PMC_DisposeEPNS2_21__tag_PMC_HANDLE_UINTE@4;	.scl	2;	.type	32;	.endef
__ZN8Palmtree4Math4Core8Internal11PMC_DisposeEPNS2_21__tag_PMC_HANDLE_UINTE@4:
LFB4939:
	.loc 7 555 5
	.cfi_startproc
	pushl	%ebp
	.cfi_def_cfa_offset 8
	.cfi_offset 5, -8
	movl	%esp, %ebp
	.cfi_def_cfa_register 5
	subl	$40, %esp
	.loc 7 556 24
	movl	8(%ebp), %eax
	movl	%eax, -12(%ebp)
	.loc 7 557 20
	movl	-12(%ebp), %eax
	movl	%eax, (%esp)
	call	__ZN8Palmtree4Math4Core8Internal11CheckNumberEPNS2_19__tag_NUMBER_HEADERE
	.loc 7 558 25
	movl	-12(%ebp), %eax
	movl	%eax, (%esp)
	call	__ZN8Palmtree4Math4Core8InternalL16DeallocateNumberEPNS2_19__tag_NUMBER_HEADERE
	.loc 7 559 5
	nop
	leave
	.cfi_restore 5
	.cfi_def_cfa 4, 4
	ret	$4
	.cfi_endproc
LFE4939:
	.section .rdata,"dr"
	.align 2
LC11:
	.ascii "x\0\0\0"
	.align 4
LC12:
	.ascii "\25_pek0n\0u\0l\0l\0p\0t\0r\0L0\16NH0\211"
	.ascii "0\214"
	.ascii "0f0D0~0Y0\2"
	.ascii "0\0\0"
	.text
	.globl	__ZN8Palmtree4Math4Core8Internal11PMC_Clone_XEPNS2_21__tag_PMC_HANDLE_UINTE@4
	.def	__ZN8Palmtree4Math4Core8Internal11PMC_Clone_XEPNS2_21__tag_PMC_HANDLE_UINTE@4;	.scl	2;	.type	32;	.endef
__ZN8Palmtree4Math4Core8Internal11PMC_Clone_XEPNS2_21__tag_PMC_HANDLE_UINTE@4:
LFB4940:
	.loc 7 562 5
	.cfi_startproc
	.cfi_personality 0,___gxx_personality_v0
	.cfi_lsda 0,LLSDA4940
	pushl	%ebp
	.cfi_def_cfa_offset 8
	.cfi_offset 5, -8
	movl	%esp, %ebp
	.cfi_def_cfa_register 5
	pushl	%ebx
	subl	$52, %esp
	.cfi_offset 3, -12
	.loc 7 563 9
	cmpl	$0, 8(%ebp)
	jne	L150
	.loc 7 564 96
	movl	$16, (%esp)
	call	___cxa_allocate_exception
	movl	%eax, %ebx
	movl	$LC11, 4(%esp)
	movl	$LC12, (%esp)
	movl	%ebx, %ecx
	call	__ZN8Palmtree4Math4Core8Internal21ArgumentNullExceptionC1EPKwS5_
	subl	$8, %esp
	movl	$__ZN8Palmtree4Math4Core8Internal21ArgumentNullExceptionD1Ev, 8(%esp)
	movl	$__ZTIN8Palmtree4Math4Core8Internal21ArgumentNullExceptionE, 4(%esp)
	movl	%ebx, (%esp)
LEHB2:
	call	___cxa_throw
L150:
	.loc 7 565 24
	movl	8(%ebp), %eax
	movl	%eax, -16(%ebp)
	.loc 7 566 20
	movl	-16(%ebp), %eax
	movl	%eax, (%esp)
	call	__ZN8Palmtree4Math4Core8Internal11CheckNumberEPNS2_19__tag_NUMBER_HEADERE
LEHE2:
	.loc 7 567 28
	leal	-32(%ebp), %eax
	movl	%eax, %ecx
	call	__ZN8Palmtree4Math4Core8Internal18ResourceHolderUINTC1Ev
	.loc 7 569 24
	movl	-16(%ebp), %eax
	movzbl	4(%eax), %eax
	andl	$1, %eax
	.loc 7 569 9
	testb	%al, %al
	je	L151
	.loc 7 570 16
	movl	$__ZN8Palmtree4Math4Core8Internal11number_zeroE, -12(%ebp)
	jmp	L152
L151:
	.loc 7 572 33
	movl	-16(%ebp), %eax
	movl	%eax, (%esp)
LEHB3:
	call	__ZN8Palmtree4Math4Core8Internal15DuplicateNumberEPNS2_19__tag_NUMBER_HEADERE
	movl	%eax, -12(%ebp)
L152:
	.loc 7 573 24
	leal	-32(%ebp), %eax
	movl	-12(%ebp), %edx
	movl	%edx, (%esp)
	movl	%eax, %ecx
	call	__ZN8Palmtree4Math4Core8Internal18ResourceHolderUINT10HookNumberEPNS2_19__tag_NUMBER_HEADERE
	subl	$4, %esp
	.loc 7 575 20
	movl	-12(%ebp), %eax
	movl	%eax, (%esp)
	call	__ZN8Palmtree4Math4Core8Internal11CheckNumberEPNS2_19__tag_NUMBER_HEADERE
	.loc 7 577 26
	leal	-32(%ebp), %eax
	movl	-12(%ebp), %edx
	movl	%edx, (%esp)
	movl	%eax, %ecx
	call	__ZN8Palmtree4Math4Core8Internal18ResourceHolderUINT12UnlinkNumberEPNS2_19__tag_NUMBER_HEADERE
LEHE3:
	subl	$4, %esp
	.loc 7 578 36
	movl	-12(%ebp), %ebx
	.loc 7 567 28
	leal	-32(%ebp), %eax
	movl	%eax, %ecx
	call	__ZN8Palmtree4Math4Core8Internal18ResourceHolderUINTD1Ev
	.loc 7 578 36
	movl	%ebx, %eax
	jmp	L156
L155:
	movl	%eax, %ebx
	.loc 7 567 28
	leal	-32(%ebp), %eax
	movl	%eax, %ecx
	call	__ZN8Palmtree4Math4Core8Internal18ResourceHolderUINTD1Ev
	movl	%ebx, %eax
	movl	%eax, (%esp)
LEHB4:
	call	__Unwind_Resume
LEHE4:
L156:
	.loc 7 579 5
	movl	-4(%ebp), %ebx
	leave
	.cfi_restore 5
	.cfi_restore 3
	.cfi_def_cfa 4, 4
	ret	$4
	.cfi_endproc
LFE4940:
	.section	.gcc_except_table,"w"
LLSDA4940:
	.byte	0xff
	.byte	0xff
	.byte	0x1
	.uleb128 LLSDACSE4940-LLSDACSB4940
LLSDACSB4940:
	.uleb128 LEHB2-LFB4940
	.uleb128 LEHE2-LEHB2
	.uleb128 0
	.uleb128 0
	.uleb128 LEHB3-LFB4940
	.uleb128 LEHE3-LEHB3
	.uleb128 L155-LFB4940
	.uleb128 0
	.uleb128 LEHB4-LFB4940
	.uleb128 LEHE4-LEHB4
	.uleb128 0
	.uleb128 0
LLSDACSE4940:
	.text
	.align 2
	.globl	__ZN8Palmtree4Math4Core8Internal4LockC2Ev
	.def	__ZN8Palmtree4Math4Core8Internal4LockC2Ev;	.scl	2;	.type	32;	.endef
__ZN8Palmtree4Math4Core8Internal4LockC2Ev:
LFB4942:
	.loc 7 584 5
	.cfi_startproc
	pushl	%ebp
	.cfi_def_cfa_offset 8
	.cfi_offset 5, -8
	movl	%esp, %ebp
	.cfi_def_cfa_register 5
	subl	$40, %esp
	movl	%ecx, -12(%ebp)
LBB58:
	.loc 7 586 29
	movl	$__ZN8Palmtree4Math4Core8Internal3mcsE, (%esp)
	movl	__imp__EnterCriticalSection@4, %eax
	call	*%eax
LVL9:
	subl	$4, %esp
LBE58:
	.loc 7 587 5
	nop
	leave
	.cfi_restore 5
	.cfi_def_cfa 4, 4
	ret
	.cfi_endproc
LFE4942:
	.globl	__ZN8Palmtree4Math4Core8Internal4LockC1Ev
	.def	__ZN8Palmtree4Math4Core8Internal4LockC1Ev;	.scl	2;	.type	32;	.endef
	.set	__ZN8Palmtree4Math4Core8Internal4LockC1Ev,__ZN8Palmtree4Math4Core8Internal4LockC2Ev
	.align 2
	.globl	__ZN8Palmtree4Math4Core8Internal4LockD2Ev
	.def	__ZN8Palmtree4Math4Core8Internal4LockD2Ev;	.scl	2;	.type	32;	.endef
__ZN8Palmtree4Math4Core8Internal4LockD2Ev:
LFB4945:
	.loc 7 589 5
	.cfi_startproc
	.cfi_personality 0,___gxx_personality_v0
	.cfi_lsda 0,LLSDA4945
	pushl	%ebp
	.cfi_def_cfa_offset 8
	.cfi_offset 5, -8
	movl	%esp, %ebp
	.cfi_def_cfa_register 5
	subl	$40, %esp
	movl	%ecx, -12(%ebp)
LBB59:
	.loc 7 591 29
	movl	$__ZN8Palmtree4Math4Core8Internal3mcsE, (%esp)
	movl	__imp__LeaveCriticalSection@4, %eax
	call	*%eax
LVL10:
	subl	$4, %esp
LBE59:
	.loc 7 592 5
	nop
	leave
	.cfi_restore 5
	.cfi_def_cfa 4, 4
	ret
	.cfi_endproc
LFE4945:
	.section	.gcc_except_table,"w"
LLSDA4945:
	.byte	0xff
	.byte	0xff
	.byte	0x1
	.uleb128 LLSDACSE4945-LLSDACSB4945
LLSDACSB4945:
LLSDACSE4945:
	.text
	.globl	__ZN8Palmtree4Math4Core8Internal4LockD1Ev
	.def	__ZN8Palmtree4Math4Core8Internal4LockD1Ev;	.scl	2;	.type	32;	.endef
	.set	__ZN8Palmtree4Math4Core8Internal4LockD1Ev,__ZN8Palmtree4Math4Core8Internal4LockD2Ev
	.align 2
	.globl	__ZN8Palmtree4Math4Core8Internal18ResourceHolderUINT23__GenericChainBufferTagC2EPv
	.def	__ZN8Palmtree4Math4Core8Internal18ResourceHolderUINT23__GenericChainBufferTagC2EPv;	.scl	2;	.type	32;	.endef
__ZN8Palmtree4Math4Core8Internal18ResourceHolderUINT23__GenericChainBufferTagC2EPv:
LFB4948:
	.loc 7 594 5
	.cfi_startproc
	pushl	%ebp
	.cfi_def_cfa_offset 8
	.cfi_offset 5, -8
	movl	%esp, %ebp
	.cfi_def_cfa_register 5
	subl	$24, %esp
	movl	%ecx, -12(%ebp)
LBB60:
	.loc 7 594 87
	movl	-12(%ebp), %eax
	movl	%eax, %ecx
	call	__ZN8Palmtree4Math4Core8Internal14ResourceHolder16__ChainBufferTagC2Ev
	movl	$__ZTVN8Palmtree4Math4Core8Internal18ResourceHolderUINT23__GenericChainBufferTagE+8, %edx
	movl	-12(%ebp), %eax
	movl	%edx, (%eax)
	.loc 7 596 17
	movl	-12(%ebp), %eax
	movl	8(%ebp), %edx
	movl	%edx, 12(%eax)
LBE60:
	.loc 7 597 5
	nop
	leave
	.cfi_restore 5
	.cfi_def_cfa 4, 4
	ret	$4
	.cfi_endproc
LFE4948:
	.globl	__ZN8Palmtree4Math4Core8Internal18ResourceHolderUINT23__GenericChainBufferTagC1EPv
	.def	__ZN8Palmtree4Math4Core8Internal18ResourceHolderUINT23__GenericChainBufferTagC1EPv;	.scl	2;	.type	32;	.endef
	.set	__ZN8Palmtree4Math4Core8Internal18ResourceHolderUINT23__GenericChainBufferTagC1EPv,__ZN8Palmtree4Math4Core8Internal18ResourceHolderUINT23__GenericChainBufferTagC2EPv
	.align 2
	.globl	__ZN8Palmtree4Math4Core8Internal18ResourceHolderUINT23__GenericChainBufferTagD2Ev
	.def	__ZN8Palmtree4Math4Core8Internal18ResourceHolderUINT23__GenericChainBufferTagD2Ev;	.scl	2;	.type	32;	.endef
__ZN8Palmtree4Math4Core8Internal18ResourceHolderUINT23__GenericChainBufferTagD2Ev:
LFB4951:
	.loc 7 599 5
	.cfi_startproc
	pushl	%ebp
	.cfi_def_cfa_offset 8
	.cfi_offset 5, -8
	movl	%esp, %ebp
	.cfi_def_cfa_register 5
	subl	$24, %esp
	movl	%ecx, -12(%ebp)
LBB61:
	.loc 7 599 75
	movl	$__ZTVN8Palmtree4Math4Core8Internal18ResourceHolderUINT23__GenericChainBufferTagE+8, %edx
	movl	-12(%ebp), %eax
	movl	%edx, (%eax)
	movl	-12(%ebp), %eax
	movl	%eax, %ecx
	call	__ZN8Palmtree4Math4Core8Internal14ResourceHolder16__ChainBufferTagD2Ev
LBE61:
	.loc 7 601 5
	nop
	leave
	.cfi_restore 5
	.cfi_def_cfa 4, 4
	ret
	.cfi_endproc
LFE4951:
	.globl	__ZN8Palmtree4Math4Core8Internal18ResourceHolderUINT23__GenericChainBufferTagD1Ev
	.def	__ZN8Palmtree4Math4Core8Internal18ResourceHolderUINT23__GenericChainBufferTagD1Ev;	.scl	2;	.type	32;	.endef
	.set	__ZN8Palmtree4Math4Core8Internal18ResourceHolderUINT23__GenericChainBufferTagD1Ev,__ZN8Palmtree4Math4Core8Internal18ResourceHolderUINT23__GenericChainBufferTagD2Ev
	.align 2
	.globl	__ZN8Palmtree4Math4Core8Internal18ResourceHolderUINT23__GenericChainBufferTagD0Ev
	.def	__ZN8Palmtree4Math4Core8Internal18ResourceHolderUINT23__GenericChainBufferTagD0Ev;	.scl	2;	.type	32;	.endef
__ZN8Palmtree4Math4Core8Internal18ResourceHolderUINT23__GenericChainBufferTagD0Ev:
LFB4953:
	.loc 7 599 5
	.cfi_startproc
	pushl	%ebp
	.cfi_def_cfa_offset 8
	.cfi_offset 5, -8
	movl	%esp, %ebp
	.cfi_def_cfa_register 5
	subl	$40, %esp
	movl	%ecx, -12(%ebp)
	.loc 7 601 5
	movl	-12(%ebp), %eax
	movl	%eax, %ecx
	call	__ZN8Palmtree4Math4Core8Internal18ResourceHolderUINT23__GenericChainBufferTagD1Ev
	movl	$16, 4(%esp)
	movl	-12(%ebp), %eax
	movl	%eax, (%esp)
	call	__ZdlPvj
	leave
	.cfi_restore 5
	.cfi_def_cfa 4, 4
	ret
	.cfi_endproc
LFE4953:
	.align 2
	.globl	__ZN8Palmtree4Math4Core8Internal18ResourceHolderUINT23__GenericChainBufferTag19EqualsBufferAddressEPv
	.def	__ZN8Palmtree4Math4Core8Internal18ResourceHolderUINT23__GenericChainBufferTag19EqualsBufferAddressEPv;	.scl	2;	.type	32;	.endef
__ZN8Palmtree4Math4Core8Internal18ResourceHolderUINT23__GenericChainBufferTag19EqualsBufferAddressEPv:
LFB4954:
	.loc 7 604 5
	.cfi_startproc
	pushl	%ebp
	.cfi_def_cfa_offset 8
	.cfi_offset 5, -8
	movl	%esp, %ebp
	.cfi_def_cfa_register 5
	subl	$4, %esp
	movl	%ecx, -4(%ebp)
	.loc 7 605 24
	movl	-4(%ebp), %eax
	movl	12(%eax), %eax
	.loc 7 605 32
	cmpl	%eax, 8(%ebp)
	sete	%al
	.loc 7 605 41
	movzbl	%al, %eax
	.loc 7 606 5
	leave
	.cfi_restore 5
	.cfi_def_cfa 4, 4
	ret	$4
	.cfi_endproc
LFE4954:
	.align 2
	.globl	__ZN8Palmtree4Math4Core8Internal18ResourceHolderUINT23__GenericChainBufferTag8DestructEv
	.def	__ZN8Palmtree4Math4Core8Internal18ResourceHolderUINT23__GenericChainBufferTag8DestructEv;	.scl	2;	.type	32;	.endef
__ZN8Palmtree4Math4Core8Internal18ResourceHolderUINT23__GenericChainBufferTag8DestructEv:
LFB4955:
	.loc 7 609 5
	.cfi_startproc
	pushl	%ebp
	.cfi_def_cfa_offset 8
	.cfi_offset 5, -8
	movl	%esp, %ebp
	.cfi_def_cfa_register 5
	subl	$40, %esp
	movl	%ecx, -12(%ebp)
	.loc 7 610 17
	movl	-12(%ebp), %eax
	movl	12(%eax), %edx
	movl	__ZN8Palmtree4Math4Core8Internal10hLocalHeapE, %eax
	movl	%edx, 8(%esp)
	movl	$0, 4(%esp)
	movl	%eax, (%esp)
	movl	__imp__HeapFree@12, %eax
	call	*%eax
LVL11:
	subl	$12, %esp
	.loc 7 616 5
	nop
	leave
	.cfi_restore 5
	.cfi_def_cfa 4, 4
	ret
	.cfi_endproc
LFE4955:
	.align 2
	.globl	__ZN8Palmtree4Math4Core8Internal18ResourceHolderUINT34____UNIT_TYPE_Array_ChainBufferTagC2EPjjj
	.def	__ZN8Palmtree4Math4Core8Internal18ResourceHolderUINT34____UNIT_TYPE_Array_ChainBufferTagC2EPjjj;	.scl	2;	.type	32;	.endef
__ZN8Palmtree4Math4Core8Internal18ResourceHolderUINT34____UNIT_TYPE_Array_ChainBufferTagC2EPjjj:
LFB4957:
	.loc 7 618 5
	.cfi_startproc
	pushl	%ebp
	.cfi_def_cfa_offset 8
	.cfi_offset 5, -8
	movl	%esp, %ebp
	.cfi_def_cfa_register 5
	subl	$24, %esp
	movl	%ecx, -12(%ebp)
LBB62:
	.loc 7 618 164
	movl	-12(%ebp), %eax
	movl	%eax, %ecx
	call	__ZN8Palmtree4Math4Core8Internal14ResourceHolder16__ChainBufferTagC2Ev
	movl	$__ZTVN8Palmtree4Math4Core8Internal18ResourceHolderUINT34____UNIT_TYPE_Array_ChainBufferTagE+8, %edx
	movl	-12(%ebp), %eax
	movl	%edx, (%eax)
	.loc 7 620 17
	movl	-12(%ebp), %eax
	movl	8(%ebp), %edx
	movl	%edx, 12(%eax)
	.loc 7 621 21
	movl	-12(%ebp), %eax
	movl	12(%ebp), %edx
	movl	%edx, 16(%eax)
	.loc 7 622 21
	movl	-12(%ebp), %eax
	movl	16(%ebp), %edx
	movl	%edx, 20(%eax)
LBE62:
	.loc 7 623 5
	nop
	leave
	.cfi_restore 5
	.cfi_def_cfa 4, 4
	ret	$12
	.cfi_endproc
LFE4957:
	.globl	__ZN8Palmtree4Math4Core8Internal18ResourceHolderUINT34____UNIT_TYPE_Array_ChainBufferTagC1EPjjj
	.def	__ZN8Palmtree4Math4Core8Internal18ResourceHolderUINT34____UNIT_TYPE_Array_ChainBufferTagC1EPjjj;	.scl	2;	.type	32;	.endef
	.set	__ZN8Palmtree4Math4Core8Internal18ResourceHolderUINT34____UNIT_TYPE_Array_ChainBufferTagC1EPjjj,__ZN8Palmtree4Math4Core8Internal18ResourceHolderUINT34____UNIT_TYPE_Array_ChainBufferTagC2EPjjj
	.align 2
	.globl	__ZN8Palmtree4Math4Core8Internal18ResourceHolderUINT34____UNIT_TYPE_Array_ChainBufferTagD2Ev
	.def	__ZN8Palmtree4Math4Core8Internal18ResourceHolderUINT34____UNIT_TYPE_Array_ChainBufferTagD2Ev;	.scl	2;	.type	32;	.endef
__ZN8Palmtree4Math4Core8Internal18ResourceHolderUINT34____UNIT_TYPE_Array_ChainBufferTagD2Ev:
LFB4960:
	.loc 7 625 5
	.cfi_startproc
	pushl	%ebp
	.cfi_def_cfa_offset 8
	.cfi_offset 5, -8
	movl	%esp, %ebp
	.cfi_def_cfa_register 5
	subl	$24, %esp
	movl	%ecx, -12(%ebp)
LBB63:
	.loc 7 625 97
	movl	$__ZTVN8Palmtree4Math4Core8Internal18ResourceHolderUINT34____UNIT_TYPE_Array_ChainBufferTagE+8, %edx
	movl	-12(%ebp), %eax
	movl	%edx, (%eax)
	movl	-12(%ebp), %eax
	movl	%eax, %ecx
	call	__ZN8Palmtree4Math4Core8Internal14ResourceHolder16__ChainBufferTagD2Ev
LBE63:
	.loc 7 627 5
	nop
	leave
	.cfi_restore 5
	.cfi_def_cfa 4, 4
	ret
	.cfi_endproc
LFE4960:
	.globl	__ZN8Palmtree4Math4Core8Internal18ResourceHolderUINT34____UNIT_TYPE_Array_ChainBufferTagD1Ev
	.def	__ZN8Palmtree4Math4Core8Internal18ResourceHolderUINT34____UNIT_TYPE_Array_ChainBufferTagD1Ev;	.scl	2;	.type	32;	.endef
	.set	__ZN8Palmtree4Math4Core8Internal18ResourceHolderUINT34____UNIT_TYPE_Array_ChainBufferTagD1Ev,__ZN8Palmtree4Math4Core8Internal18ResourceHolderUINT34____UNIT_TYPE_Array_ChainBufferTagD2Ev
	.align 2
	.globl	__ZN8Palmtree4Math4Core8Internal18ResourceHolderUINT34____UNIT_TYPE_Array_ChainBufferTagD0Ev
	.def	__ZN8Palmtree4Math4Core8Internal18ResourceHolderUINT34____UNIT_TYPE_Array_ChainBufferTagD0Ev;	.scl	2;	.type	32;	.endef
__ZN8Palmtree4Math4Core8Internal18ResourceHolderUINT34____UNIT_TYPE_Array_ChainBufferTagD0Ev:
LFB4962:
	.loc 7 625 5
	.cfi_startproc
	pushl	%ebp
	.cfi_def_cfa_offset 8
	.cfi_offset 5, -8
	movl	%esp, %ebp
	.cfi_def_cfa_register 5
	subl	$40, %esp
	movl	%ecx, -12(%ebp)
	.loc 7 627 5
	movl	-12(%ebp), %eax
	movl	%eax, %ecx
	call	__ZN8Palmtree4Math4Core8Internal18ResourceHolderUINT34____UNIT_TYPE_Array_ChainBufferTagD1Ev
	movl	$24, 4(%esp)
	movl	-12(%ebp), %eax
	movl	%eax, (%esp)
	call	__ZdlPvj
	leave
	.cfi_restore 5
	.cfi_def_cfa 4, 4
	ret
	.cfi_endproc
LFE4962:
	.align 2
	.globl	__ZN8Palmtree4Math4Core8Internal18ResourceHolderUINT34____UNIT_TYPE_Array_ChainBufferTag19EqualsBufferAddressEPv
	.def	__ZN8Palmtree4Math4Core8Internal18ResourceHolderUINT34____UNIT_TYPE_Array_ChainBufferTag19EqualsBufferAddressEPv;	.scl	2;	.type	32;	.endef
__ZN8Palmtree4Math4Core8Internal18ResourceHolderUINT34____UNIT_TYPE_Array_ChainBufferTag19EqualsBufferAddressEPv:
LFB4963:
	.loc 7 630 5
	.cfi_startproc
	pushl	%ebp
	.cfi_def_cfa_offset 8
	.cfi_offset 5, -8
	movl	%esp, %ebp
	.cfi_def_cfa_register 5
	subl	$4, %esp
	movl	%ecx, -4(%ebp)
	.loc 7 631 24
	movl	-4(%ebp), %eax
	movl	12(%eax), %eax
	.loc 7 631 32
	cmpl	%eax, 8(%ebp)
	sete	%al
	.loc 7 631 41
	movzbl	%al, %eax
	.loc 7 632 5
	leave
	.cfi_restore 5
	.cfi_def_cfa 4, 4
	ret	$4
	.cfi_endproc
LFE4963:
	.align 2
	.globl	__ZN8Palmtree4Math4Core8Internal18ResourceHolderUINT34____UNIT_TYPE_Array_ChainBufferTag5ClearEv
	.def	__ZN8Palmtree4Math4Core8Internal18ResourceHolderUINT34____UNIT_TYPE_Array_ChainBufferTag5ClearEv;	.scl	2;	.type	32;	.endef
__ZN8Palmtree4Math4Core8Internal18ResourceHolderUINT34____UNIT_TYPE_Array_ChainBufferTag5ClearEv:
LFB4964:
	.loc 7 635 5
	.cfi_startproc
	pushl	%ebp
	.cfi_def_cfa_offset 8
	.cfi_offset 5, -8
	movl	%esp, %ebp
	.cfi_def_cfa_register 5
	subl	$12, %esp
	movl	%ecx, -4(%ebp)
	.loc 7 636 26
	movl	-4(%ebp), %eax
	movl	16(%eax), %edx
	movl	-4(%ebp), %eax
	movl	12(%eax), %eax
	movl	%edx, 4(%esp)
	movl	%eax, (%esp)
	call	__ZERO_MEMORY_UNIT
	.loc 7 637 5
	nop
	leave
	.cfi_restore 5
	.cfi_def_cfa 4, 4
	ret
	.cfi_endproc
LFE4964:
	.align 2
	.globl	__ZN8Palmtree4Math4Core8Internal18ResourceHolderUINT34____UNIT_TYPE_Array_ChainBufferTag5CheckEv
	.def	__ZN8Palmtree4Math4Core8Internal18ResourceHolderUINT34____UNIT_TYPE_Array_ChainBufferTag5CheckEv;	.scl	2;	.type	32;	.endef
__ZN8Palmtree4Math4Core8Internal18ResourceHolderUINT34____UNIT_TYPE_Array_ChainBufferTag5CheckEv:
LFB4965:
	.loc 7 640 5
	.cfi_startproc
	pushl	%ebp
	.cfi_def_cfa_offset 8
	.cfi_offset 5, -8
	movl	%esp, %ebp
	.cfi_def_cfa_register 5
	subl	$40, %esp
	movl	%ecx, -12(%ebp)
	.loc 7 641 51
	movl	-12(%ebp), %eax
	movl	20(%eax), %ecx
	movl	-12(%ebp), %eax
	movl	16(%eax), %edx
	movl	-12(%ebp), %eax
	movl	12(%eax), %eax
	movl	%ecx, 8(%esp)
	movl	%edx, 4(%esp)
	movl	%eax, (%esp)
	call	__ZN8Palmtree4Math4Core8InternalL10CheckBlockEPjjj
	.loc 7 642 5
	nop
	leave
	.cfi_restore 5
	.cfi_def_cfa 4, 4
	ret
	.cfi_endproc
LFE4965:
	.align 2
	.globl	__ZN8Palmtree4Math4Core8Internal18ResourceHolderUINT34____UNIT_TYPE_Array_ChainBufferTag8DestructEv
	.def	__ZN8Palmtree4Math4Core8Internal18ResourceHolderUINT34____UNIT_TYPE_Array_ChainBufferTag8DestructEv;	.scl	2;	.type	32;	.endef
__ZN8Palmtree4Math4Core8Internal18ResourceHolderUINT34____UNIT_TYPE_Array_ChainBufferTag8DestructEv:
LFB4966:
	.loc 7 645 5
	.cfi_startproc
	pushl	%ebp
	.cfi_def_cfa_offset 8
	.cfi_offset 5, -8
	movl	%esp, %ebp
	.cfi_def_cfa_register 5
	subl	$40, %esp
	movl	%ecx, -12(%ebp)
	.loc 7 646 56
	movl	-12(%ebp), %eax
	movl	20(%eax), %ecx
	movl	-12(%ebp), %eax
	movl	16(%eax), %edx
	movl	-12(%ebp), %eax
	movl	12(%eax), %eax
	movl	%ecx, 8(%esp)
	movl	%edx, 4(%esp)
	movl	%eax, (%esp)
	call	__ZN8Palmtree4Math4Core8InternalL15DeallocateBlockEPjjj
	.loc 7 647 5
	nop
	leave
	.cfi_restore 5
	.cfi_def_cfa 4, 4
	ret
	.cfi_endproc
LFE4966:
	.align 2
	.globl	__ZN8Palmtree4Math4Core8Internal18ResourceHolderUINT22__StringChainBufferTagC2EPjjj
	.def	__ZN8Palmtree4Math4Core8Internal18ResourceHolderUINT22__StringChainBufferTagC2EPjjj;	.scl	2;	.type	32;	.endef
__ZN8Palmtree4Math4Core8Internal18ResourceHolderUINT22__StringChainBufferTagC2EPjjj:
LFB4968:
	.loc 7 649 5
	.cfi_startproc
	pushl	%ebp
	.cfi_def_cfa_offset 8
	.cfi_offset 5, -8
	movl	%esp, %ebp
	.cfi_def_cfa_register 5
	subl	$24, %esp
	movl	%ecx, -12(%ebp)
LBB64:
	.loc 7 649 140
	movl	-12(%ebp), %eax
	movl	%eax, %ecx
	call	__ZN8Palmtree4Math4Core8Internal14ResourceHolder16__ChainBufferTagC2Ev
	movl	$__ZTVN8Palmtree4Math4Core8Internal18ResourceHolderUINT22__StringChainBufferTagE+8, %edx
	movl	-12(%ebp), %eax
	movl	%edx, (%eax)
	.loc 7 651 17
	movl	-12(%ebp), %eax
	movl	8(%ebp), %edx
	movl	%edx, 12(%eax)
	.loc 7 652 21
	movl	-12(%ebp), %eax
	movl	12(%ebp), %edx
	movl	%edx, 16(%eax)
	.loc 7 653 21
	movl	-12(%ebp), %eax
	movl	16(%ebp), %edx
	movl	%edx, 20(%eax)
LBE64:
	.loc 7 654 5
	nop
	leave
	.cfi_restore 5
	.cfi_def_cfa 4, 4
	ret	$12
	.cfi_endproc
LFE4968:
	.globl	__ZN8Palmtree4Math4Core8Internal18ResourceHolderUINT22__StringChainBufferTagC1EPjjj
	.def	__ZN8Palmtree4Math4Core8Internal18ResourceHolderUINT22__StringChainBufferTagC1EPjjj;	.scl	2;	.type	32;	.endef
	.set	__ZN8Palmtree4Math4Core8Internal18ResourceHolderUINT22__StringChainBufferTagC1EPjjj,__ZN8Palmtree4Math4Core8Internal18ResourceHolderUINT22__StringChainBufferTagC2EPjjj
	.align 2
	.globl	__ZN8Palmtree4Math4Core8Internal18ResourceHolderUINT22__StringChainBufferTagD2Ev
	.def	__ZN8Palmtree4Math4Core8Internal18ResourceHolderUINT22__StringChainBufferTagD2Ev;	.scl	2;	.type	32;	.endef
__ZN8Palmtree4Math4Core8Internal18ResourceHolderUINT22__StringChainBufferTagD2Ev:
LFB4971:
	.loc 7 656 5
	.cfi_startproc
	pushl	%ebp
	.cfi_def_cfa_offset 8
	.cfi_offset 5, -8
	movl	%esp, %ebp
	.cfi_def_cfa_register 5
	subl	$24, %esp
	movl	%ecx, -12(%ebp)
LBB65:
	.loc 7 656 73
	movl	$__ZTVN8Palmtree4Math4Core8Internal18ResourceHolderUINT22__StringChainBufferTagE+8, %edx
	movl	-12(%ebp), %eax
	movl	%edx, (%eax)
	movl	-12(%ebp), %eax
	movl	%eax, %ecx
	call	__ZN8Palmtree4Math4Core8Internal14ResourceHolder16__ChainBufferTagD2Ev
LBE65:
	.loc 7 658 5
	nop
	leave
	.cfi_restore 5
	.cfi_def_cfa 4, 4
	ret
	.cfi_endproc
LFE4971:
	.globl	__ZN8Palmtree4Math4Core8Internal18ResourceHolderUINT22__StringChainBufferTagD1Ev
	.def	__ZN8Palmtree4Math4Core8Internal18ResourceHolderUINT22__StringChainBufferTagD1Ev;	.scl	2;	.type	32;	.endef
	.set	__ZN8Palmtree4Math4Core8Internal18ResourceHolderUINT22__StringChainBufferTagD1Ev,__ZN8Palmtree4Math4Core8Internal18ResourceHolderUINT22__StringChainBufferTagD2Ev
	.align 2
	.globl	__ZN8Palmtree4Math4Core8Internal18ResourceHolderUINT22__StringChainBufferTagD0Ev
	.def	__ZN8Palmtree4Math4Core8Internal18ResourceHolderUINT22__StringChainBufferTagD0Ev;	.scl	2;	.type	32;	.endef
__ZN8Palmtree4Math4Core8Internal18ResourceHolderUINT22__StringChainBufferTagD0Ev:
LFB4973:
	.loc 7 656 5
	.cfi_startproc
	pushl	%ebp
	.cfi_def_cfa_offset 8
	.cfi_offset 5, -8
	movl	%esp, %ebp
	.cfi_def_cfa_register 5
	subl	$40, %esp
	movl	%ecx, -12(%ebp)
	.loc 7 658 5
	movl	-12(%ebp), %eax
	movl	%eax, %ecx
	call	__ZN8Palmtree4Math4Core8Internal18ResourceHolderUINT22__StringChainBufferTagD1Ev
	movl	$24, 4(%esp)
	movl	-12(%ebp), %eax
	movl	%eax, (%esp)
	call	__ZdlPvj
	leave
	.cfi_restore 5
	.cfi_def_cfa 4, 4
	ret
	.cfi_endproc
LFE4973:
	.align 2
	.globl	__ZN8Palmtree4Math4Core8Internal18ResourceHolderUINT22__StringChainBufferTag19EqualsBufferAddressEPv
	.def	__ZN8Palmtree4Math4Core8Internal18ResourceHolderUINT22__StringChainBufferTag19EqualsBufferAddressEPv;	.scl	2;	.type	32;	.endef
__ZN8Palmtree4Math4Core8Internal18ResourceHolderUINT22__StringChainBufferTag19EqualsBufferAddressEPv:
LFB4974:
	.loc 7 661 5
	.cfi_startproc
	pushl	%ebp
	.cfi_def_cfa_offset 8
	.cfi_offset 5, -8
	movl	%esp, %ebp
	.cfi_def_cfa_register 5
	subl	$4, %esp
	movl	%ecx, -4(%ebp)
	.loc 7 662 24
	movl	-4(%ebp), %eax
	movl	12(%eax), %eax
	.loc 7 662 32
	cmpl	%eax, 8(%ebp)
	sete	%al
	.loc 7 662 41
	movzbl	%al, %eax
	.loc 7 663 5
	leave
	.cfi_restore 5
	.cfi_def_cfa 4, 4
	ret	$4
	.cfi_endproc
LFE4974:
	.align 2
	.globl	__ZN8Palmtree4Math4Core8Internal18ResourceHolderUINT22__StringChainBufferTag5ClearEv
	.def	__ZN8Palmtree4Math4Core8Internal18ResourceHolderUINT22__StringChainBufferTag5ClearEv;	.scl	2;	.type	32;	.endef
__ZN8Palmtree4Math4Core8Internal18ResourceHolderUINT22__StringChainBufferTag5ClearEv:
LFB4975:
	.loc 7 666 5
	.cfi_startproc
	pushl	%ebp
	.cfi_def_cfa_offset 8
	.cfi_offset 5, -8
	movl	%esp, %ebp
	.cfi_def_cfa_register 5
	subl	$12, %esp
	movl	%ecx, -4(%ebp)
	.loc 7 667 26
	movl	-4(%ebp), %eax
	movl	16(%eax), %edx
	movl	-4(%ebp), %eax
	movl	12(%eax), %eax
	movl	%edx, 4(%esp)
	movl	%eax, (%esp)
	call	__ZERO_MEMORY_UNIT
	.loc 7 668 5
	nop
	leave
	.cfi_restore 5
	.cfi_def_cfa 4, 4
	ret
	.cfi_endproc
LFE4975:
	.align 2
	.globl	__ZN8Palmtree4Math4Core8Internal18ResourceHolderUINT22__StringChainBufferTag5CheckEv
	.def	__ZN8Palmtree4Math4Core8Internal18ResourceHolderUINT22__StringChainBufferTag5CheckEv;	.scl	2;	.type	32;	.endef
__ZN8Palmtree4Math4Core8Internal18ResourceHolderUINT22__StringChainBufferTag5CheckEv:
LFB4976:
	.loc 7 671 5
	.cfi_startproc
	pushl	%ebp
	.cfi_def_cfa_offset 8
	.cfi_offset 5, -8
	movl	%esp, %ebp
	.cfi_def_cfa_register 5
	subl	$40, %esp
	movl	%ecx, -12(%ebp)
	.loc 7 672 51
	movl	-12(%ebp), %eax
	movl	20(%eax), %ecx
	movl	-12(%ebp), %eax
	movl	16(%eax), %edx
	movl	-12(%ebp), %eax
	movl	12(%eax), %eax
	movl	%ecx, 8(%esp)
	movl	%edx, 4(%esp)
	movl	%eax, (%esp)
	call	__ZN8Palmtree4Math4Core8InternalL10CheckBlockEPjjj
	.loc 7 673 5
	nop
	leave
	.cfi_restore 5
	.cfi_def_cfa 4, 4
	ret
	.cfi_endproc
LFE4976:
	.align 2
	.globl	__ZN8Palmtree4Math4Core8Internal18ResourceHolderUINT22__StringChainBufferTag8DestructEv
	.def	__ZN8Palmtree4Math4Core8Internal18ResourceHolderUINT22__StringChainBufferTag8DestructEv;	.scl	2;	.type	32;	.endef
__ZN8Palmtree4Math4Core8Internal18ResourceHolderUINT22__StringChainBufferTag8DestructEv:
LFB4977:
	.loc 7 676 5
	.cfi_startproc
	pushl	%ebp
	.cfi_def_cfa_offset 8
	.cfi_offset 5, -8
	movl	%esp, %ebp
	.cfi_def_cfa_register 5
	subl	$40, %esp
	movl	%ecx, -12(%ebp)
	.loc 7 677 56
	movl	-12(%ebp), %eax
	movl	20(%eax), %ecx
	movl	-12(%ebp), %eax
	movl	16(%eax), %edx
	movl	-12(%ebp), %eax
	movl	12(%eax), %eax
	movl	%ecx, 8(%esp)
	movl	%edx, 4(%esp)
	movl	%eax, (%esp)
	call	__ZN8Palmtree4Math4Core8InternalL15DeallocateBlockEPjjj
	.loc 7 678 5
	nop
	leave
	.cfi_restore 5
	.cfi_def_cfa 4, 4
	ret
	.cfi_endproc
LFE4977:
	.align 2
	.globl	__ZN8Palmtree4Math4Core8Internal18ResourceHolderUINT29__DynamicNumberChainBufferTagC2EPNS2_19__tag_NUMBER_HEADERE
	.def	__ZN8Palmtree4Math4Core8Internal18ResourceHolderUINT29__DynamicNumberChainBufferTagC2EPNS2_19__tag_NUMBER_HEADERE;	.scl	2;	.type	32;	.endef
__ZN8Palmtree4Math4Core8Internal18ResourceHolderUINT29__DynamicNumberChainBufferTagC2EPNS2_19__tag_NUMBER_HEADERE:
LFB4979:
	.loc 7 680 5
	.cfi_startproc
	pushl	%ebp
	.cfi_def_cfa_offset 8
	.cfi_offset 5, -8
	movl	%esp, %ebp
	.cfi_def_cfa_register 5
	subl	$24, %esp
	movl	%ecx, -12(%ebp)
LBB66:
	.loc 7 680 108
	movl	-12(%ebp), %eax
	movl	%eax, %ecx
	call	__ZN8Palmtree4Math4Core8Internal14ResourceHolder16__ChainBufferTagC2Ev
	movl	$__ZTVN8Palmtree4Math4Core8Internal18ResourceHolderUINT29__DynamicNumberChainBufferTagE+8, %edx
	movl	-12(%ebp), %eax
	movl	%edx, (%eax)
	.loc 7 682 17
	movl	-12(%ebp), %eax
	movl	8(%ebp), %edx
	movl	%edx, 12(%eax)
LBE66:
	.loc 7 683 5
	nop
	leave
	.cfi_restore 5
	.cfi_def_cfa 4, 4
	ret	$4
	.cfi_endproc
LFE4979:
	.globl	__ZN8Palmtree4Math4Core8Internal18ResourceHolderUINT29__DynamicNumberChainBufferTagC1EPNS2_19__tag_NUMBER_HEADERE
	.def	__ZN8Palmtree4Math4Core8Internal18ResourceHolderUINT29__DynamicNumberChainBufferTagC1EPNS2_19__tag_NUMBER_HEADERE;	.scl	2;	.type	32;	.endef
	.set	__ZN8Palmtree4Math4Core8Internal18ResourceHolderUINT29__DynamicNumberChainBufferTagC1EPNS2_19__tag_NUMBER_HEADERE,__ZN8Palmtree4Math4Core8Internal18ResourceHolderUINT29__DynamicNumberChainBufferTagC2EPNS2_19__tag_NUMBER_HEADERE
	.align 2
	.globl	__ZN8Palmtree4Math4Core8Internal18ResourceHolderUINT29__DynamicNumberChainBufferTagD2Ev
	.def	__ZN8Palmtree4Math4Core8Internal18ResourceHolderUINT29__DynamicNumberChainBufferTagD2Ev;	.scl	2;	.type	32;	.endef
__ZN8Palmtree4Math4Core8Internal18ResourceHolderUINT29__DynamicNumberChainBufferTagD2Ev:
LFB4982:
	.loc 7 685 5
	.cfi_startproc
	pushl	%ebp
	.cfi_def_cfa_offset 8
	.cfi_offset 5, -8
	movl	%esp, %ebp
	.cfi_def_cfa_register 5
	subl	$24, %esp
	movl	%ecx, -12(%ebp)
LBB67:
	.loc 7 685 87
	movl	$__ZTVN8Palmtree4Math4Core8Internal18ResourceHolderUINT29__DynamicNumberChainBufferTagE+8, %edx
	movl	-12(%ebp), %eax
	movl	%edx, (%eax)
	movl	-12(%ebp), %eax
	movl	%eax, %ecx
	call	__ZN8Palmtree4Math4Core8Internal14ResourceHolder16__ChainBufferTagD2Ev
LBE67:
	.loc 7 687 5
	nop
	leave
	.cfi_restore 5
	.cfi_def_cfa 4, 4
	ret
	.cfi_endproc
LFE4982:
	.globl	__ZN8Palmtree4Math4Core8Internal18ResourceHolderUINT29__DynamicNumberChainBufferTagD1Ev
	.def	__ZN8Palmtree4Math4Core8Internal18ResourceHolderUINT29__DynamicNumberChainBufferTagD1Ev;	.scl	2;	.type	32;	.endef
	.set	__ZN8Palmtree4Math4Core8Internal18ResourceHolderUINT29__DynamicNumberChainBufferTagD1Ev,__ZN8Palmtree4Math4Core8Internal18ResourceHolderUINT29__DynamicNumberChainBufferTagD2Ev
	.align 2
	.globl	__ZN8Palmtree4Math4Core8Internal18ResourceHolderUINT29__DynamicNumberChainBufferTagD0Ev
	.def	__ZN8Palmtree4Math4Core8Internal18ResourceHolderUINT29__DynamicNumberChainBufferTagD0Ev;	.scl	2;	.type	32;	.endef
__ZN8Palmtree4Math4Core8Internal18ResourceHolderUINT29__DynamicNumberChainBufferTagD0Ev:
LFB4984:
	.loc 7 685 5
	.cfi_startproc
	pushl	%ebp
	.cfi_def_cfa_offset 8
	.cfi_offset 5, -8
	movl	%esp, %ebp
	.cfi_def_cfa_register 5
	subl	$40, %esp
	movl	%ecx, -12(%ebp)
	.loc 7 687 5
	movl	-12(%ebp), %eax
	movl	%eax, %ecx
	call	__ZN8Palmtree4Math4Core8Internal18ResourceHolderUINT29__DynamicNumberChainBufferTagD1Ev
	movl	$16, 4(%esp)
	movl	-12(%ebp), %eax
	movl	%eax, (%esp)
	call	__ZdlPvj
	leave
	.cfi_restore 5
	.cfi_def_cfa 4, 4
	ret
	.cfi_endproc
LFE4984:
	.align 2
	.globl	__ZN8Palmtree4Math4Core8Internal18ResourceHolderUINT29__DynamicNumberChainBufferTag19EqualsBufferAddressEPv
	.def	__ZN8Palmtree4Math4Core8Internal18ResourceHolderUINT29__DynamicNumberChainBufferTag19EqualsBufferAddressEPv;	.scl	2;	.type	32;	.endef
__ZN8Palmtree4Math4Core8Internal18ResourceHolderUINT29__DynamicNumberChainBufferTag19EqualsBufferAddressEPv:
LFB4985:
	.loc 7 690 5
	.cfi_startproc
	pushl	%ebp
	.cfi_def_cfa_offset 8
	.cfi_offset 5, -8
	movl	%esp, %ebp
	.cfi_def_cfa_register 5
	subl	$4, %esp
	movl	%ecx, -4(%ebp)
	.loc 7 691 24
	movl	-4(%ebp), %eax
	movl	12(%eax), %eax
	.loc 7 691 32
	cmpl	%eax, 8(%ebp)
	sete	%al
	.loc 7 691 41
	movzbl	%al, %eax
	.loc 7 692 5
	leave
	.cfi_restore 5
	.cfi_def_cfa 4, 4
	ret	$4
	.cfi_endproc
LFE4985:
	.align 2
	.globl	__ZN8Palmtree4Math4Core8Internal18ResourceHolderUINT29__DynamicNumberChainBufferTag5CheckEv
	.def	__ZN8Palmtree4Math4Core8Internal18ResourceHolderUINT29__DynamicNumberChainBufferTag5CheckEv;	.scl	2;	.type	32;	.endef
__ZN8Palmtree4Math4Core8Internal18ResourceHolderUINT29__DynamicNumberChainBufferTag5CheckEv:
LFB4986:
	.loc 7 695 5
	.cfi_startproc
	pushl	%ebp
	.cfi_def_cfa_offset 8
	.cfi_offset 5, -8
	movl	%esp, %ebp
	.cfi_def_cfa_register 5
	subl	$40, %esp
	movl	%ecx, -12(%ebp)
	.loc 7 696 52
	movl	-12(%ebp), %eax
	movl	12(%eax), %eax
	movl	%eax, (%esp)
	call	__ZN8Palmtree4Math4Core8Internal11CheckNumberEPNS2_19__tag_NUMBER_HEADERE
	.loc 7 697 5
	nop
	leave
	.cfi_restore 5
	.cfi_def_cfa 4, 4
	ret
	.cfi_endproc
LFE4986:
	.align 2
	.globl	__ZN8Palmtree4Math4Core8Internal18ResourceHolderUINT29__DynamicNumberChainBufferTag8DestructEv
	.def	__ZN8Palmtree4Math4Core8Internal18ResourceHolderUINT29__DynamicNumberChainBufferTag8DestructEv;	.scl	2;	.type	32;	.endef
__ZN8Palmtree4Math4Core8Internal18ResourceHolderUINT29__DynamicNumberChainBufferTag8DestructEv:
LFB4987:
	.loc 7 700 5
	.cfi_startproc
	pushl	%ebp
	.cfi_def_cfa_offset 8
	.cfi_offset 5, -8
	movl	%esp, %ebp
	.cfi_def_cfa_register 5
	subl	$40, %esp
	movl	%ecx, -12(%ebp)
	.loc 7 701 57
	movl	-12(%ebp), %eax
	movl	12(%eax), %eax
	movl	%eax, (%esp)
	call	__ZN8Palmtree4Math4Core8InternalL16DeallocateNumberEPNS2_19__tag_NUMBER_HEADERE
	.loc 7 702 5
	nop
	leave
	.cfi_restore 5
	.cfi_def_cfa 4, 4
	ret
	.cfi_endproc
LFE4987:
	.align 2
	.globl	__ZN8Palmtree4Math4Core8Internal18ResourceHolderUINT35__NumberHandleHookingChainBufferTagC2EPNS2_19__tag_NUMBER_HEADERE
	.def	__ZN8Palmtree4Math4Core8Internal18ResourceHolderUINT35__NumberHandleHookingChainBufferTagC2EPNS2_19__tag_NUMBER_HEADERE;	.scl	2;	.type	32;	.endef
__ZN8Palmtree4Math4Core8Internal18ResourceHolderUINT35__NumberHandleHookingChainBufferTagC2EPNS2_19__tag_NUMBER_HEADERE:
LFB4989:
	.loc 7 704 5
	.cfi_startproc
	pushl	%ebp
	.cfi_def_cfa_offset 8
	.cfi_offset 5, -8
	movl	%esp, %ebp
	.cfi_def_cfa_register 5
	subl	$24, %esp
	movl	%ecx, -12(%ebp)
LBB68:
	.loc 7 704 120
	movl	-12(%ebp), %eax
	movl	%eax, %ecx
	call	__ZN8Palmtree4Math4Core8Internal14ResourceHolder16__ChainBufferTagC2Ev
	movl	$__ZTVN8Palmtree4Math4Core8Internal18ResourceHolderUINT35__NumberHandleHookingChainBufferTagE+8, %edx
	movl	-12(%ebp), %eax
	movl	%edx, (%eax)
	.loc 7 706 17
	movl	-12(%ebp), %eax
	movl	8(%ebp), %edx
	movl	%edx, 12(%eax)
LBE68:
	.loc 7 707 5
	nop
	leave
	.cfi_restore 5
	.cfi_def_cfa 4, 4
	ret	$4
	.cfi_endproc
LFE4989:
	.globl	__ZN8Palmtree4Math4Core8Internal18ResourceHolderUINT35__NumberHandleHookingChainBufferTagC1EPNS2_19__tag_NUMBER_HEADERE
	.def	__ZN8Palmtree4Math4Core8Internal18ResourceHolderUINT35__NumberHandleHookingChainBufferTagC1EPNS2_19__tag_NUMBER_HEADERE;	.scl	2;	.type	32;	.endef
	.set	__ZN8Palmtree4Math4Core8Internal18ResourceHolderUINT35__NumberHandleHookingChainBufferTagC1EPNS2_19__tag_NUMBER_HEADERE,__ZN8Palmtree4Math4Core8Internal18ResourceHolderUINT35__NumberHandleHookingChainBufferTagC2EPNS2_19__tag_NUMBER_HEADERE
	.align 2
	.globl	__ZN8Palmtree4Math4Core8Internal18ResourceHolderUINT35__NumberHandleHookingChainBufferTagD2Ev
	.def	__ZN8Palmtree4Math4Core8Internal18ResourceHolderUINT35__NumberHandleHookingChainBufferTagD2Ev;	.scl	2;	.type	32;	.endef
__ZN8Palmtree4Math4Core8Internal18ResourceHolderUINT35__NumberHandleHookingChainBufferTagD2Ev:
LFB4992:
	.loc 7 709 5
	.cfi_startproc
	pushl	%ebp
	.cfi_def_cfa_offset 8
	.cfi_offset 5, -8
	movl	%esp, %ebp
	.cfi_def_cfa_register 5
	subl	$24, %esp
	movl	%ecx, -12(%ebp)
LBB69:
	.loc 7 709 99
	movl	$__ZTVN8Palmtree4Math4Core8Internal18ResourceHolderUINT35__NumberHandleHookingChainBufferTagE+8, %edx
	movl	-12(%ebp), %eax
	movl	%edx, (%eax)
	movl	-12(%ebp), %eax
	movl	%eax, %ecx
	call	__ZN8Palmtree4Math4Core8Internal14ResourceHolder16__ChainBufferTagD2Ev
LBE69:
	.loc 7 711 5
	nop
	leave
	.cfi_restore 5
	.cfi_def_cfa 4, 4
	ret
	.cfi_endproc
LFE4992:
	.globl	__ZN8Palmtree4Math4Core8Internal18ResourceHolderUINT35__NumberHandleHookingChainBufferTagD1Ev
	.def	__ZN8Palmtree4Math4Core8Internal18ResourceHolderUINT35__NumberHandleHookingChainBufferTagD1Ev;	.scl	2;	.type	32;	.endef
	.set	__ZN8Palmtree4Math4Core8Internal18ResourceHolderUINT35__NumberHandleHookingChainBufferTagD1Ev,__ZN8Palmtree4Math4Core8Internal18ResourceHolderUINT35__NumberHandleHookingChainBufferTagD2Ev
	.align 2
	.globl	__ZN8Palmtree4Math4Core8Internal18ResourceHolderUINT35__NumberHandleHookingChainBufferTagD0Ev
	.def	__ZN8Palmtree4Math4Core8Internal18ResourceHolderUINT35__NumberHandleHookingChainBufferTagD0Ev;	.scl	2;	.type	32;	.endef
__ZN8Palmtree4Math4Core8Internal18ResourceHolderUINT35__NumberHandleHookingChainBufferTagD0Ev:
LFB4994:
	.loc 7 709 5
	.cfi_startproc
	pushl	%ebp
	.cfi_def_cfa_offset 8
	.cfi_offset 5, -8
	movl	%esp, %ebp
	.cfi_def_cfa_register 5
	subl	$40, %esp
	movl	%ecx, -12(%ebp)
	.loc 7 711 5
	movl	-12(%ebp), %eax
	movl	%eax, %ecx
	call	__ZN8Palmtree4Math4Core8Internal18ResourceHolderUINT35__NumberHandleHookingChainBufferTagD1Ev
	movl	$16, 4(%esp)
	movl	-12(%ebp), %eax
	movl	%eax, (%esp)
	call	__ZdlPvj
	leave
	.cfi_restore 5
	.cfi_def_cfa 4, 4
	ret
	.cfi_endproc
LFE4994:
	.align 2
	.globl	__ZN8Palmtree4Math4Core8Internal18ResourceHolderUINT35__NumberHandleHookingChainBufferTag19EqualsBufferAddressEPv
	.def	__ZN8Palmtree4Math4Core8Internal18ResourceHolderUINT35__NumberHandleHookingChainBufferTag19EqualsBufferAddressEPv;	.scl	2;	.type	32;	.endef
__ZN8Palmtree4Math4Core8Internal18ResourceHolderUINT35__NumberHandleHookingChainBufferTag19EqualsBufferAddressEPv:
LFB4995:
	.loc 7 714 5
	.cfi_startproc
	pushl	%ebp
	.cfi_def_cfa_offset 8
	.cfi_offset 5, -8
	movl	%esp, %ebp
	.cfi_def_cfa_register 5
	subl	$4, %esp
	movl	%ecx, -4(%ebp)
	.loc 7 715 24
	movl	-4(%ebp), %eax
	movl	12(%eax), %eax
	.loc 7 715 32
	cmpl	%eax, 8(%ebp)
	sete	%al
	.loc 7 715 41
	movzbl	%al, %eax
	.loc 7 716 5
	leave
	.cfi_restore 5
	.cfi_def_cfa 4, 4
	ret	$4
	.cfi_endproc
LFE4995:
	.align 2
	.globl	__ZN8Palmtree4Math4Core8Internal18ResourceHolderUINT35__NumberHandleHookingChainBufferTag5CheckEv
	.def	__ZN8Palmtree4Math4Core8Internal18ResourceHolderUINT35__NumberHandleHookingChainBufferTag5CheckEv;	.scl	2;	.type	32;	.endef
__ZN8Palmtree4Math4Core8Internal18ResourceHolderUINT35__NumberHandleHookingChainBufferTag5CheckEv:
LFB4996:
	.loc 7 719 5
	.cfi_startproc
	pushl	%ebp
	.cfi_def_cfa_offset 8
	.cfi_offset 5, -8
	movl	%esp, %ebp
	.cfi_def_cfa_register 5
	subl	$4, %esp
	movl	%ecx, -4(%ebp)
	.loc 7 720 5
	nop
	leave
	.cfi_restore 5
	.cfi_def_cfa 4, 4
	ret
	.cfi_endproc
LFE4996:
	.align 2
	.globl	__ZN8Palmtree4Math4Core8Internal18ResourceHolderUINT35__NumberHandleHookingChainBufferTag8DestructEv
	.def	__ZN8Palmtree4Math4Core8Internal18ResourceHolderUINT35__NumberHandleHookingChainBufferTag8DestructEv;	.scl	2;	.type	32;	.endef
__ZN8Palmtree4Math4Core8Internal18ResourceHolderUINT35__NumberHandleHookingChainBufferTag8DestructEv:
LFB4997:
	.loc 7 723 5
	.cfi_startproc
	pushl	%ebp
	.cfi_def_cfa_offset 8
	.cfi_offset 5, -8
	movl	%esp, %ebp
	.cfi_def_cfa_register 5
	subl	$40, %esp
	movl	%ecx, -12(%ebp)
	.loc 7 724 56
	movl	-12(%ebp), %eax
	movl	12(%eax), %eax
	movl	%eax, (%esp)
	call	__ZN8Palmtree4Math4Core8InternalL16DeallocateNumberEPNS2_19__tag_NUMBER_HEADERE
	.loc 7 725 5
	nop
	leave
	.cfi_restore 5
	.cfi_def_cfa 4, 4
	ret
	.cfi_endproc
LFE4997:
	.align 2
	.globl	__ZN8Palmtree4Math4Core8Internal18ResourceHolderUINT28__StaticNumberChainBufferTagC2EPNS2_19__tag_NUMBER_HEADERE
	.def	__ZN8Palmtree4Math4Core8Internal18ResourceHolderUINT28__StaticNumberChainBufferTagC2EPNS2_19__tag_NUMBER_HEADERE;	.scl	2;	.type	32;	.endef
__ZN8Palmtree4Math4Core8Internal18ResourceHolderUINT28__StaticNumberChainBufferTagC2EPNS2_19__tag_NUMBER_HEADERE:
LFB4999:
	.loc 7 727 5
	.cfi_startproc
	pushl	%ebp
	.cfi_def_cfa_offset 8
	.cfi_offset 5, -8
	movl	%esp, %ebp
	.cfi_def_cfa_register 5
	subl	$24, %esp
	movl	%ecx, -12(%ebp)
LBB70:
	.loc 7 727 106
	movl	-12(%ebp), %eax
	movl	%eax, %ecx
	call	__ZN8Palmtree4Math4Core8Internal14ResourceHolder16__ChainBufferTagC2Ev
	movl	$__ZTVN8Palmtree4Math4Core8Internal18ResourceHolderUINT28__StaticNumberChainBufferTagE+8, %edx
	movl	-12(%ebp), %eax
	movl	%edx, (%eax)
	.loc 7 729 17
	movl	-12(%ebp), %eax
	movl	8(%ebp), %edx
	movl	%edx, 12(%eax)
LBE70:
	.loc 7 730 5
	nop
	leave
	.cfi_restore 5
	.cfi_def_cfa 4, 4
	ret	$4
	.cfi_endproc
LFE4999:
	.globl	__ZN8Palmtree4Math4Core8Internal18ResourceHolderUINT28__StaticNumberChainBufferTagC1EPNS2_19__tag_NUMBER_HEADERE
	.def	__ZN8Palmtree4Math4Core8Internal18ResourceHolderUINT28__StaticNumberChainBufferTagC1EPNS2_19__tag_NUMBER_HEADERE;	.scl	2;	.type	32;	.endef
	.set	__ZN8Palmtree4Math4Core8Internal18ResourceHolderUINT28__StaticNumberChainBufferTagC1EPNS2_19__tag_NUMBER_HEADERE,__ZN8Palmtree4Math4Core8Internal18ResourceHolderUINT28__StaticNumberChainBufferTagC2EPNS2_19__tag_NUMBER_HEADERE
	.align 2
	.globl	__ZN8Palmtree4Math4Core8Internal18ResourceHolderUINT28__StaticNumberChainBufferTagD2Ev
	.def	__ZN8Palmtree4Math4Core8Internal18ResourceHolderUINT28__StaticNumberChainBufferTagD2Ev;	.scl	2;	.type	32;	.endef
__ZN8Palmtree4Math4Core8Internal18ResourceHolderUINT28__StaticNumberChainBufferTagD2Ev:
LFB5002:
	.loc 7 732 5
	.cfi_startproc
	pushl	%ebp
	.cfi_def_cfa_offset 8
	.cfi_offset 5, -8
	movl	%esp, %ebp
	.cfi_def_cfa_register 5
	subl	$24, %esp
	movl	%ecx, -12(%ebp)
LBB71:
	.loc 7 732 85
	movl	$__ZTVN8Palmtree4Math4Core8Internal18ResourceHolderUINT28__StaticNumberChainBufferTagE+8, %edx
	movl	-12(%ebp), %eax
	movl	%edx, (%eax)
	movl	-12(%ebp), %eax
	movl	%eax, %ecx
	call	__ZN8Palmtree4Math4Core8Internal14ResourceHolder16__ChainBufferTagD2Ev
LBE71:
	.loc 7 734 5
	nop
	leave
	.cfi_restore 5
	.cfi_def_cfa 4, 4
	ret
	.cfi_endproc
LFE5002:
	.globl	__ZN8Palmtree4Math4Core8Internal18ResourceHolderUINT28__StaticNumberChainBufferTagD1Ev
	.def	__ZN8Palmtree4Math4Core8Internal18ResourceHolderUINT28__StaticNumberChainBufferTagD1Ev;	.scl	2;	.type	32;	.endef
	.set	__ZN8Palmtree4Math4Core8Internal18ResourceHolderUINT28__StaticNumberChainBufferTagD1Ev,__ZN8Palmtree4Math4Core8Internal18ResourceHolderUINT28__StaticNumberChainBufferTagD2Ev
	.align 2
	.globl	__ZN8Palmtree4Math4Core8Internal18ResourceHolderUINT28__StaticNumberChainBufferTagD0Ev
	.def	__ZN8Palmtree4Math4Core8Internal18ResourceHolderUINT28__StaticNumberChainBufferTagD0Ev;	.scl	2;	.type	32;	.endef
__ZN8Palmtree4Math4Core8Internal18ResourceHolderUINT28__StaticNumberChainBufferTagD0Ev:
LFB5004:
	.loc 7 732 5
	.cfi_startproc
	pushl	%ebp
	.cfi_def_cfa_offset 8
	.cfi_offset 5, -8
	movl	%esp, %ebp
	.cfi_def_cfa_register 5
	subl	$40, %esp
	movl	%ecx, -12(%ebp)
	.loc 7 734 5
	movl	-12(%ebp), %eax
	movl	%eax, %ecx
	call	__ZN8Palmtree4Math4Core8Internal18ResourceHolderUINT28__StaticNumberChainBufferTagD1Ev
	movl	$16, 4(%esp)
	movl	-12(%ebp), %eax
	movl	%eax, (%esp)
	call	__ZdlPvj
	leave
	.cfi_restore 5
	.cfi_def_cfa 4, 4
	ret
	.cfi_endproc
LFE5004:
	.align 2
	.globl	__ZN8Palmtree4Math4Core8Internal18ResourceHolderUINT28__StaticNumberChainBufferTag19EqualsBufferAddressEPv
	.def	__ZN8Palmtree4Math4Core8Internal18ResourceHolderUINT28__StaticNumberChainBufferTag19EqualsBufferAddressEPv;	.scl	2;	.type	32;	.endef
__ZN8Palmtree4Math4Core8Internal18ResourceHolderUINT28__StaticNumberChainBufferTag19EqualsBufferAddressEPv:
LFB5005:
	.loc 7 737 5
	.cfi_startproc
	pushl	%ebp
	.cfi_def_cfa_offset 8
	.cfi_offset 5, -8
	movl	%esp, %ebp
	.cfi_def_cfa_register 5
	subl	$4, %esp
	movl	%ecx, -4(%ebp)
	.loc 7 738 24
	movl	-4(%ebp), %eax
	movl	12(%eax), %eax
	.loc 7 738 32
	cmpl	%eax, 8(%ebp)
	sete	%al
	.loc 7 738 41
	movzbl	%al, %eax
	.loc 7 739 5
	leave
	.cfi_restore 5
	.cfi_def_cfa 4, 4
	ret	$4
	.cfi_endproc
LFE5005:
	.align 2
	.globl	__ZN8Palmtree4Math4Core8Internal18ResourceHolderUINT28__StaticNumberChainBufferTag5CheckEv
	.def	__ZN8Palmtree4Math4Core8Internal18ResourceHolderUINT28__StaticNumberChainBufferTag5CheckEv;	.scl	2;	.type	32;	.endef
__ZN8Palmtree4Math4Core8Internal18ResourceHolderUINT28__StaticNumberChainBufferTag5CheckEv:
LFB5006:
	.loc 7 742 5
	.cfi_startproc
	pushl	%ebp
	.cfi_def_cfa_offset 8
	.cfi_offset 5, -8
	movl	%esp, %ebp
	.cfi_def_cfa_register 5
	subl	$4, %esp
	movl	%ecx, -4(%ebp)
	.loc 7 743 5
	nop
	leave
	.cfi_restore 5
	.cfi_def_cfa 4, 4
	ret
	.cfi_endproc
LFE5006:
	.align 2
	.globl	__ZN8Palmtree4Math4Core8Internal18ResourceHolderUINT28__StaticNumberChainBufferTag8DestructEv
	.def	__ZN8Palmtree4Math4Core8Internal18ResourceHolderUINT28__StaticNumberChainBufferTag8DestructEv;	.scl	2;	.type	32;	.endef
__ZN8Palmtree4Math4Core8Internal18ResourceHolderUINT28__StaticNumberChainBufferTag8DestructEv:
LFB5007:
	.loc 7 746 5
	.cfi_startproc
	pushl	%ebp
	.cfi_def_cfa_offset 8
	.cfi_offset 5, -8
	movl	%esp, %ebp
	.cfi_def_cfa_register 5
	subl	$40, %esp
	movl	%ecx, -12(%ebp)
	.loc 7 747 22
	movl	-12(%ebp), %eax
	movl	12(%eax), %eax
	movl	%eax, (%esp)
	call	__ZN8Palmtree4Math4Core8InternalL13DetatchNumberEPNS2_19__tag_NUMBER_HEADERE
	.loc 7 748 5
	nop
	leave
	.cfi_restore 5
	.cfi_def_cfa 4, 4
	ret
	.cfi_endproc
LFE5007:
	.align 2
	.globl	__ZN8Palmtree4Math4Core8Internal18ResourceHolderUINTC2Ev
	.def	__ZN8Palmtree4Math4Core8Internal18ResourceHolderUINTC2Ev;	.scl	2;	.type	32;	.endef
__ZN8Palmtree4Math4Core8Internal18ResourceHolderUINTC2Ev:
LFB5009:
	.loc 7 750 5
	.cfi_startproc
	pushl	%ebp
	.cfi_def_cfa_offset 8
	.cfi_offset 5, -8
	movl	%esp, %ebp
	.cfi_def_cfa_register 5
	subl	$24, %esp
	movl	%ecx, -12(%ebp)
LBB72:
	.loc 7 750 44
	movl	-12(%ebp), %eax
	movl	%eax, %ecx
	call	__ZN8Palmtree4Math4Core8Internal14ResourceHolderC2Ev
	movl	$__ZTVN8Palmtree4Math4Core8Internal18ResourceHolderUINTE+8, %edx
	movl	-12(%ebp), %eax
	movl	%edx, (%eax)
LBE72:
	.loc 7 752 5
	nop
	leave
	.cfi_restore 5
	.cfi_def_cfa 4, 4
	ret
	.cfi_endproc
LFE5009:
	.globl	__ZN8Palmtree4Math4Core8Internal18ResourceHolderUINTC1Ev
	.def	__ZN8Palmtree4Math4Core8Internal18ResourceHolderUINTC1Ev;	.scl	2;	.type	32;	.endef
	.set	__ZN8Palmtree4Math4Core8Internal18ResourceHolderUINTC1Ev,__ZN8Palmtree4Math4Core8Internal18ResourceHolderUINTC2Ev
	.align 2
	.globl	__ZN8Palmtree4Math4Core8Internal18ResourceHolderUINTD2Ev
	.def	__ZN8Palmtree4Math4Core8Internal18ResourceHolderUINTD2Ev;	.scl	2;	.type	32;	.endef
__ZN8Palmtree4Math4Core8Internal18ResourceHolderUINTD2Ev:
LFB5012:
	.loc 7 754 5
	.cfi_startproc
	pushl	%ebp
	.cfi_def_cfa_offset 8
	.cfi_offset 5, -8
	movl	%esp, %ebp
	.cfi_def_cfa_register 5
	subl	$24, %esp
	movl	%ecx, -12(%ebp)
LBB73:
	.loc 7 754 45
	movl	$__ZTVN8Palmtree4Math4Core8Internal18ResourceHolderUINTE+8, %edx
	movl	-12(%ebp), %eax
	movl	%edx, (%eax)
	movl	-12(%ebp), %eax
	movl	%eax, %ecx
	call	__ZN8Palmtree4Math4Core8Internal14ResourceHolderD2Ev
LBE73:
	.loc 7 756 5
	nop
	leave
	.cfi_restore 5
	.cfi_def_cfa 4, 4
	ret
	.cfi_endproc
LFE5012:
	.globl	__ZN8Palmtree4Math4Core8Internal18ResourceHolderUINTD1Ev
	.def	__ZN8Palmtree4Math4Core8Internal18ResourceHolderUINTD1Ev;	.scl	2;	.type	32;	.endef
	.set	__ZN8Palmtree4Math4Core8Internal18ResourceHolderUINTD1Ev,__ZN8Palmtree4Math4Core8Internal18ResourceHolderUINTD2Ev
	.align 2
	.globl	__ZN8Palmtree4Math4Core8Internal18ResourceHolderUINTD0Ev
	.def	__ZN8Palmtree4Math4Core8Internal18ResourceHolderUINTD0Ev;	.scl	2;	.type	32;	.endef
__ZN8Palmtree4Math4Core8Internal18ResourceHolderUINTD0Ev:
LFB5014:
	.loc 7 754 5
	.cfi_startproc
	pushl	%ebp
	.cfi_def_cfa_offset 8
	.cfi_offset 5, -8
	movl	%esp, %ebp
	.cfi_def_cfa_register 5
	subl	$40, %esp
	movl	%ecx, -12(%ebp)
	.loc 7 756 5
	movl	-12(%ebp), %eax
	movl	%eax, %ecx
	call	__ZN8Palmtree4Math4Core8Internal18ResourceHolderUINTD1Ev
	movl	$16, 4(%esp)
	movl	-12(%ebp), %eax
	movl	%eax, (%esp)
	call	__ZdlPvj
	leave
	.cfi_restore 5
	.cfi_def_cfa 4, 4
	ret
	.cfi_endproc
LFE5014:
	.align 2
	.globl	__ZN8Palmtree4Math4Core8Internal18ResourceHolderUINT13AllocateBytesEj
	.def	__ZN8Palmtree4Math4Core8Internal18ResourceHolderUINT13AllocateBytesEj;	.scl	2;	.type	32;	.endef
__ZN8Palmtree4Math4Core8Internal18ResourceHolderUINT13AllocateBytesEj:
LFB5015:
	.loc 7 759 5
	.cfi_startproc
	.cfi_personality 0,___gxx_personality_v0
	.cfi_lsda 0,LLSDA5015
	pushl	%ebp
	.cfi_def_cfa_offset 8
	.cfi_offset 5, -8
	movl	%esp, %ebp
	.cfi_def_cfa_register 5
	pushl	%ebx
	subl	$52, %esp
	.cfi_offset 3, -12
	movl	%ecx, -28(%ebp)
	.loc 7 760 14
	leal	-13(%ebp), %eax
	movl	%eax, %ecx
LEHB5:
	call	__ZN8Palmtree4Math4Core8Internal4LockC1Ev
LEHE5:
	.loc 7 761 33
	movl	__ZN8Palmtree4Math4Core8Internal10hLocalHeapE, %eax
	movl	8(%ebp), %edx
	movl	%edx, 8(%esp)
	movl	$8, 4(%esp)
	movl	%eax, (%esp)
	movl	__imp__HeapAlloc@12, %eax
LEHB6:
	call	*%eax
LVL12:
	subl	$12, %esp
	.loc 7 761 67
	movl	%eax, -20(%ebp)
	.loc 7 762 20
	movl	-20(%ebp), %eax
	.loc 7 762 9
	testl	%eax, %eax
	jne	L206
	.loc 7 763 98
	movl	$16, (%esp)
	call	___cxa_allocate_exception
	movl	%eax, %ebx
	movl	$LC2, (%esp)
	movl	%ebx, %ecx
	call	__ZN8Palmtree4Math4Core8Internal24NotEnoughMemoryExceptionC1EPKw
	subl	$4, %esp
	movl	$__ZN8Palmtree4Math4Core8Internal24NotEnoughMemoryExceptionD1Ev, 8(%esp)
	movl	$__ZTIN8Palmtree4Math4Core8Internal24NotEnoughMemoryExceptionE, 4(%esp)
	movl	%ebx, (%esp)
	call	___cxa_throw
L206:
	.loc 7 769 67
	movl	$16, (%esp)
	call	__Znwj
LEHE6:
	movl	%eax, %ebx
	movl	-20(%ebp), %eax
	movl	%eax, (%esp)
	movl	%ebx, %ecx
	call	__ZN8Palmtree4Math4Core8Internal18ResourceHolderUINT23__GenericChainBufferTagC1EPv
	subl	$4, %esp
	movl	%ebx, -12(%ebp)
	.loc 7 770 16
	movl	-28(%ebp), %eax
	movl	-12(%ebp), %edx
	movl	%edx, (%esp)
	movl	%eax, %ecx
	call	__ZN8Palmtree4Math4Core8Internal14ResourceHolder7LinkTagEPNS3_16__ChainBufferTagE
	subl	$4, %esp
	.loc 7 771 23
	movl	-20(%ebp), %ebx
	.loc 7 760 14
	leal	-13(%ebp), %eax
	movl	%eax, %ecx
	call	__ZN8Palmtree4Math4Core8Internal4LockD1Ev
	.loc 7 771 23
	movl	%ebx, %eax
	jmp	L210
L209:
	movl	%eax, %ebx
	.loc 7 760 14
	leal	-13(%ebp), %eax
	movl	%eax, %ecx
	call	__ZN8Palmtree4Math4Core8Internal4LockD1Ev
	movl	%ebx, %eax
	movl	%eax, (%esp)
LEHB7:
	call	__Unwind_Resume
LEHE7:
L210:
	.loc 7 772 5
	movl	-4(%ebp), %ebx
	leave
	.cfi_restore 5
	.cfi_restore 3
	.cfi_def_cfa 4, 4
	ret	$4
	.cfi_endproc
LFE5015:
	.section	.gcc_except_table,"w"
LLSDA5015:
	.byte	0xff
	.byte	0xff
	.byte	0x1
	.uleb128 LLSDACSE5015-LLSDACSB5015
LLSDACSB5015:
	.uleb128 LEHB5-LFB5015
	.uleb128 LEHE5-LEHB5
	.uleb128 0
	.uleb128 0
	.uleb128 LEHB6-LFB5015
	.uleb128 LEHE6-LEHB6
	.uleb128 L209-LFB5015
	.uleb128 0
	.uleb128 LEHB7-LFB5015
	.uleb128 LEHE7-LEHB7
	.uleb128 0
	.uleb128 0
LLSDACSE5015:
	.text
	.align 2
	.globl	__ZN8Palmtree4Math4Core8Internal18ResourceHolderUINT15DeallocateBytesEPv
	.def	__ZN8Palmtree4Math4Core8Internal18ResourceHolderUINT15DeallocateBytesEPv;	.scl	2;	.type	32;	.endef
__ZN8Palmtree4Math4Core8Internal18ResourceHolderUINT15DeallocateBytesEPv:
LFB5016:
	.loc 7 775 5
	.cfi_startproc
	.cfi_personality 0,___gxx_personality_v0
	.cfi_lsda 0,LLSDA5016
	pushl	%ebp
	.cfi_def_cfa_offset 8
	.cfi_offset 5, -8
	movl	%esp, %ebp
	.cfi_def_cfa_register 5
	pushl	%ebx
	subl	$52, %esp
	.cfi_offset 3, -12
	movl	%ecx, -28(%ebp)
	.loc 7 776 14
	leal	-13(%ebp), %eax
	movl	%eax, %ecx
LEHB8:
	call	__ZN8Palmtree4Math4Core8Internal4LockC1Ev
LEHE8:
	.loc 7 777 40
	movl	-28(%ebp), %eax
	movl	8(%ebp), %edx
	movl	%edx, (%esp)
	movl	%eax, %ecx
LEHB9:
	call	__ZN8Palmtree4Math4Core8Internal14ResourceHolder7FindTagEPv
	subl	$4, %esp
	movl	%eax, -12(%ebp)
	.loc 7 778 9
	cmpl	$0, -12(%ebp)
	je	L212
	.loc 7 780 24
	movl	-12(%ebp), %eax
	movl	%eax, %ecx
	call	__ZN8Palmtree4Math4Core8Internal14ResourceHolder16__ChainBufferTag6UnlinkEv
	.loc 7 781 27
	movl	-12(%ebp), %eax
	movl	(%eax), %eax
	addl	$20, %eax
	movl	(%eax), %eax
	.loc 7 781 26
	movl	-12(%ebp), %edx
	movl	%edx, %ecx
	call	*%eax
LVL13:
LEHE9:
	.loc 7 782 23
	cmpl	$0, -12(%ebp)
	je	L212
	.loc 7 782 20 discriminator 1
	movl	-12(%ebp), %eax
	movl	(%eax), %eax
	addl	$4, %eax
	movl	(%eax), %eax
	movl	-12(%ebp), %edx
	movl	%edx, %ecx
	call	*%eax
LVL14:
L212:
	.loc 7 776 14
	leal	-13(%ebp), %eax
	movl	%eax, %ecx
	call	__ZN8Palmtree4Math4Core8Internal4LockD1Ev
	.loc 7 784 5
	jmp	L215
L214:
	movl	%eax, %ebx
	.loc 7 776 14
	leal	-13(%ebp), %eax
	movl	%eax, %ecx
	call	__ZN8Palmtree4Math4Core8Internal4LockD1Ev
	movl	%ebx, %eax
	movl	%eax, (%esp)
LEHB10:
	call	__Unwind_Resume
LEHE10:
L215:
	.loc 7 784 5
	movl	-4(%ebp), %ebx
	leave
	.cfi_restore 5
	.cfi_restore 3
	.cfi_def_cfa 4, 4
	ret	$4
	.cfi_endproc
LFE5016:
	.section	.gcc_except_table,"w"
LLSDA5016:
	.byte	0xff
	.byte	0xff
	.byte	0x1
	.uleb128 LLSDACSE5016-LLSDACSB5016
LLSDACSB5016:
	.uleb128 LEHB8-LFB5016
	.uleb128 LEHE8-LEHB8
	.uleb128 0
	.uleb128 0
	.uleb128 LEHB9-LFB5016
	.uleb128 LEHE9-LEHB9
	.uleb128 L214-LFB5016
	.uleb128 0
	.uleb128 LEHB10-LFB5016
	.uleb128 LEHE10-LEHB10
	.uleb128 0
	.uleb128 0
LLSDACSE5016:
	.text
	.section .rdata,"dr"
	.align 4
LC13:
	.ascii "p\0m\0c\0_\0m\0e\0m\0o\0r\0y\0.\0c\0p\0p\0;\0R\0e\0s\0o\0u\0r\0c\0e\0H\0o\0l\0d\0e\0r\0U\0I\0N\0T\0:\0:\0U\0n\0l\0i\0n\0k\0B\0y\0t\0e\0s\0;\0"
	.ascii "1\0\0\0"
	.text
	.align 2
	.globl	__ZN8Palmtree4Math4Core8Internal18ResourceHolderUINT11UnlinkBytesEPv
	.def	__ZN8Palmtree4Math4Core8Internal18ResourceHolderUINT11UnlinkBytesEPv;	.scl	2;	.type	32;	.endef
__ZN8Palmtree4Math4Core8Internal18ResourceHolderUINT11UnlinkBytesEPv:
LFB5017:
	.loc 7 787 5
	.cfi_startproc
	.cfi_personality 0,___gxx_personality_v0
	.cfi_lsda 0,LLSDA5017
	pushl	%ebp
	.cfi_def_cfa_offset 8
	.cfi_offset 5, -8
	movl	%esp, %ebp
	.cfi_def_cfa_register 5
	pushl	%ebx
	subl	$52, %esp
	.cfi_offset 3, -12
	movl	%ecx, -28(%ebp)
	.loc 7 788 14
	leal	-13(%ebp), %eax
	movl	%eax, %ecx
LEHB11:
	call	__ZN8Palmtree4Math4Core8Internal4LockC1Ev
LEHE11:
	.loc 7 789 40
	movl	-28(%ebp), %eax
	movl	8(%ebp), %edx
	movl	%edx, (%esp)
	movl	%eax, %ecx
LEHB12:
	call	__ZN8Palmtree4Math4Core8Internal14ResourceHolder7FindTagEPv
	subl	$4, %esp
	movl	%eax, -12(%ebp)
	.loc 7 790 9
	cmpl	$0, -12(%ebp)
	jne	L217
	.loc 7 791 145
	movl	$20, (%esp)
	call	___cxa_allocate_exception
	movl	%eax, %ebx
	movl	$LC13, 4(%esp)
	movl	$LC4, (%esp)
	movl	%ebx, %ecx
	call	__ZN8Palmtree4Math4Core8Internal18BadBufferExceptionC1EPKwS5_
	subl	$8, %esp
	movl	$__ZN8Palmtree4Math4Core8Internal18BadBufferExceptionD1Ev, 8(%esp)
	movl	$__ZTIN8Palmtree4Math4Core8Internal18BadBufferExceptionE, 4(%esp)
	movl	%ebx, (%esp)
	call	___cxa_throw
LEHE12:
L217:
	.loc 7 792 20
	movl	-12(%ebp), %eax
	movl	%eax, %ecx
	call	__ZN8Palmtree4Math4Core8Internal14ResourceHolder16__ChainBufferTag6UnlinkEv
	.loc 7 788 14
	leal	-13(%ebp), %eax
	movl	%eax, %ecx
	call	__ZN8Palmtree4Math4Core8Internal4LockD1Ev
	.loc 7 793 5
	jmp	L220
L219:
	movl	%eax, %ebx
	.loc 7 788 14
	leal	-13(%ebp), %eax
	movl	%eax, %ecx
	call	__ZN8Palmtree4Math4Core8Internal4LockD1Ev
	movl	%ebx, %eax
	movl	%eax, (%esp)
LEHB13:
	call	__Unwind_Resume
LEHE13:
L220:
	.loc 7 793 5
	movl	-4(%ebp), %ebx
	leave
	.cfi_restore 5
	.cfi_restore 3
	.cfi_def_cfa 4, 4
	ret	$4
	.cfi_endproc
LFE5017:
	.section	.gcc_except_table,"w"
LLSDA5017:
	.byte	0xff
	.byte	0xff
	.byte	0x1
	.uleb128 LLSDACSE5017-LLSDACSB5017
LLSDACSB5017:
	.uleb128 LEHB11-LFB5017
	.uleb128 LEHE11-LEHB11
	.uleb128 0
	.uleb128 0
	.uleb128 LEHB12-LFB5017
	.uleb128 LEHE12-LEHB12
	.uleb128 L219-LFB5017
	.uleb128 0
	.uleb128 LEHB13-LFB5017
	.uleb128 LEHE13-LEHB13
	.uleb128 0
	.uleb128 0
LLSDACSE5017:
	.text
	.align 2
	.globl	__ZN8Palmtree4Math4Core8Internal18ResourceHolderUINT13AllocateBlockEj
	.def	__ZN8Palmtree4Math4Core8Internal18ResourceHolderUINT13AllocateBlockEj;	.scl	2;	.type	32;	.endef
__ZN8Palmtree4Math4Core8Internal18ResourceHolderUINT13AllocateBlockEj:
LFB5018:
	.loc 7 796 5
	.cfi_startproc
	.cfi_personality 0,___gxx_personality_v0
	.cfi_lsda 0,LLSDA5018
	pushl	%ebp
	.cfi_def_cfa_offset 8
	.cfi_offset 5, -8
	movl	%esp, %ebp
	.cfi_def_cfa_register 5
	pushl	%ebx
	subl	$68, %esp
	.cfi_offset 3, -12
	movl	%ecx, -44(%ebp)
	.loc 7 797 14
	leal	-13(%ebp), %eax
	movl	%eax, %ecx
LEHB14:
	call	__ZN8Palmtree4Math4Core8Internal4LockC1Ev
LEHE14:
	.loc 7 800 76
	leal	-24(%ebp), %eax
	movl	%eax, 8(%esp)
	leal	-20(%ebp), %eax
	movl	%eax, 4(%esp)
	movl	8(%ebp), %eax
	movl	%eax, (%esp)
LEHB15:
	call	__ZN8Palmtree4Math4Core8InternalL13AllocateBlockEjPjS3_
	.loc 7 800 112
	movl	%eax, -28(%ebp)
	.loc 7 801 102
	movl	$24, (%esp)
	call	__Znwj
LEHE15:
	.loc 7 801 102 is_stmt 0 discriminator 1
	movl	%eax, %ebx
	movl	-24(%ebp), %ecx
	movl	-20(%ebp), %edx
	movl	-28(%ebp), %eax
	movl	%ecx, 8(%esp)
	movl	%edx, 4(%esp)
	movl	%eax, (%esp)
	movl	%ebx, %ecx
	call	__ZN8Palmtree4Math4Core8Internal18ResourceHolderUINT34____UNIT_TYPE_Array_ChainBufferTagC1EPjjj
	subl	$12, %esp
	movl	%ebx, -12(%ebp)
	.loc 7 802 16 is_stmt 1 discriminator 1
	movl	-44(%ebp), %eax
	movl	-12(%ebp), %edx
	movl	%edx, (%esp)
	movl	%eax, %ecx
	call	__ZN8Palmtree4Math4Core8Internal14ResourceHolder7LinkTagEPNS3_16__ChainBufferTagE
	subl	$4, %esp
	.loc 7 803 23 discriminator 1
	movl	-28(%ebp), %ebx
	.loc 7 797 14 discriminator 1
	leal	-13(%ebp), %eax
	movl	%eax, %ecx
	call	__ZN8Palmtree4Math4Core8Internal4LockD1Ev
	.loc 7 803 23 discriminator 1
	movl	%ebx, %eax
	jmp	L225
L224:
	movl	%eax, %ebx
	.loc 7 797 14
	leal	-13(%ebp), %eax
	movl	%eax, %ecx
	call	__ZN8Palmtree4Math4Core8Internal4LockD1Ev
	movl	%ebx, %eax
	movl	%eax, (%esp)
LEHB16:
	call	__Unwind_Resume
LEHE16:
L225:
	.loc 7 804 5
	movl	-4(%ebp), %ebx
	leave
	.cfi_restore 5
	.cfi_restore 3
	.cfi_def_cfa 4, 4
	ret	$4
	.cfi_endproc
LFE5018:
	.section	.gcc_except_table,"w"
LLSDA5018:
	.byte	0xff
	.byte	0xff
	.byte	0x1
	.uleb128 LLSDACSE5018-LLSDACSB5018
LLSDACSB5018:
	.uleb128 LEHB14-LFB5018
	.uleb128 LEHE14-LEHB14
	.uleb128 0
	.uleb128 0
	.uleb128 LEHB15-LFB5018
	.uleb128 LEHE15-LEHB15
	.uleb128 L224-LFB5018
	.uleb128 0
	.uleb128 LEHB16-LFB5018
	.uleb128 LEHE16-LEHB16
	.uleb128 0
	.uleb128 0
LLSDACSE5018:
	.text
	.section .rdata,"dr"
	.align 4
LC14:
	.ascii "p\0m\0c\0_\0m\0e\0m\0o\0r\0y\0.\0c\0p\0p\0;\0R\0e\0s\0o\0u\0r\0c\0e\0H\0o\0l\0d\0e\0r\0U\0I\0N\0T\0:\0:\0C\0l\0e\0a\0r\0B\0l\0o\0c\0k\0;\0"
	.ascii "1\0\0\0"
	.text
	.align 2
	.globl	__ZN8Palmtree4Math4Core8Internal18ResourceHolderUINT10ClearBlockEPj
	.def	__ZN8Palmtree4Math4Core8Internal18ResourceHolderUINT10ClearBlockEPj;	.scl	2;	.type	32;	.endef
__ZN8Palmtree4Math4Core8Internal18ResourceHolderUINT10ClearBlockEPj:
LFB5019:
	.loc 7 807 5
	.cfi_startproc
	.cfi_personality 0,___gxx_personality_v0
	.cfi_lsda 0,LLSDA5019
	pushl	%ebp
	.cfi_def_cfa_offset 8
	.cfi_offset 5, -8
	movl	%esp, %ebp
	.cfi_def_cfa_register 5
	pushl	%ebx
	subl	$52, %esp
	.cfi_offset 3, -12
	movl	%ecx, -28(%ebp)
	.loc 7 808 14
	leal	-13(%ebp), %eax
	movl	%eax, %ecx
LEHB17:
	call	__ZN8Palmtree4Math4Core8Internal4LockC1Ev
LEHE17:
	.loc 7 809 40
	movl	-28(%ebp), %eax
	movl	8(%ebp), %edx
	movl	%edx, (%esp)
	movl	%eax, %ecx
LEHB18:
	call	__ZN8Palmtree4Math4Core8Internal14ResourceHolder7FindTagEPv
	subl	$4, %esp
	movl	%eax, -12(%ebp)
	.loc 7 810 9
	cmpl	$0, -12(%ebp)
	jne	L227
	.loc 7 811 144
	movl	$20, (%esp)
	call	___cxa_allocate_exception
	movl	%eax, %ebx
	movl	$LC14, 4(%esp)
	movl	$LC4, (%esp)
	movl	%ebx, %ecx
	call	__ZN8Palmtree4Math4Core8Internal18BadBufferExceptionC1EPKwS5_
	subl	$8, %esp
	movl	$__ZN8Palmtree4Math4Core8Internal18BadBufferExceptionD1Ev, 8(%esp)
	movl	$__ZTIN8Palmtree4Math4Core8Internal18BadBufferExceptionE, 4(%esp)
	movl	%ebx, (%esp)
	call	___cxa_throw
L227:
	.loc 7 812 20
	movl	-12(%ebp), %eax
	movl	(%eax), %eax
	addl	$12, %eax
	movl	(%eax), %eax
	.loc 7 812 19
	movl	-12(%ebp), %edx
	movl	%edx, %ecx
	call	*%eax
LVL15:
LEHE18:
	.loc 7 808 14
	leal	-13(%ebp), %eax
	movl	%eax, %ecx
	call	__ZN8Palmtree4Math4Core8Internal4LockD1Ev
	.loc 7 813 5
	jmp	L230
L229:
	movl	%eax, %ebx
	.loc 7 808 14
	leal	-13(%ebp), %eax
	movl	%eax, %ecx
	call	__ZN8Palmtree4Math4Core8Internal4LockD1Ev
	movl	%ebx, %eax
	movl	%eax, (%esp)
LEHB19:
	call	__Unwind_Resume
LEHE19:
L230:
	.loc 7 813 5
	movl	-4(%ebp), %ebx
	leave
	.cfi_restore 5
	.cfi_restore 3
	.cfi_def_cfa 4, 4
	ret	$4
	.cfi_endproc
LFE5019:
	.section	.gcc_except_table,"w"
LLSDA5019:
	.byte	0xff
	.byte	0xff
	.byte	0x1
	.uleb128 LLSDACSE5019-LLSDACSB5019
LLSDACSB5019:
	.uleb128 LEHB17-LFB5019
	.uleb128 LEHE17-LEHB17
	.uleb128 0
	.uleb128 0
	.uleb128 LEHB18-LFB5019
	.uleb128 LEHE18-LEHB18
	.uleb128 L229-LFB5019
	.uleb128 0
	.uleb128 LEHB19-LFB5019
	.uleb128 LEHE19-LEHB19
	.uleb128 0
	.uleb128 0
LLSDACSE5019:
	.text
	.align 2
	.globl	__ZN8Palmtree4Math4Core8Internal18ResourceHolderUINT15DeallocateBlockEPj
	.def	__ZN8Palmtree4Math4Core8Internal18ResourceHolderUINT15DeallocateBlockEPj;	.scl	2;	.type	32;	.endef
__ZN8Palmtree4Math4Core8Internal18ResourceHolderUINT15DeallocateBlockEPj:
LFB5020:
	.loc 7 816 5
	.cfi_startproc
	.cfi_personality 0,___gxx_personality_v0
	.cfi_lsda 0,LLSDA5020
	pushl	%ebp
	.cfi_def_cfa_offset 8
	.cfi_offset 5, -8
	movl	%esp, %ebp
	.cfi_def_cfa_register 5
	pushl	%ebx
	subl	$52, %esp
	.cfi_offset 3, -12
	movl	%ecx, -28(%ebp)
	.loc 7 817 14
	leal	-13(%ebp), %eax
	movl	%eax, %ecx
LEHB20:
	call	__ZN8Palmtree4Math4Core8Internal4LockC1Ev
LEHE20:
	.loc 7 818 40
	movl	-28(%ebp), %eax
	movl	8(%ebp), %edx
	movl	%edx, (%esp)
	movl	%eax, %ecx
LEHB21:
	call	__ZN8Palmtree4Math4Core8Internal14ResourceHolder7FindTagEPv
	subl	$4, %esp
	movl	%eax, -12(%ebp)
	.loc 7 819 9
	cmpl	$0, -12(%ebp)
	je	L232
	.loc 7 821 24
	movl	-12(%ebp), %eax
	movl	%eax, %ecx
	call	__ZN8Palmtree4Math4Core8Internal14ResourceHolder16__ChainBufferTag6UnlinkEv
	.loc 7 822 27
	movl	-12(%ebp), %eax
	movl	(%eax), %eax
	addl	$20, %eax
	movl	(%eax), %eax
	.loc 7 822 26
	movl	-12(%ebp), %edx
	movl	%edx, %ecx
	call	*%eax
LVL16:
LEHE21:
	.loc 7 823 23
	cmpl	$0, -12(%ebp)
	je	L232
	.loc 7 823 20 discriminator 1
	movl	-12(%ebp), %eax
	movl	(%eax), %eax
	addl	$4, %eax
	movl	(%eax), %eax
	movl	-12(%ebp), %edx
	movl	%edx, %ecx
	call	*%eax
LVL17:
L232:
	.loc 7 817 14
	leal	-13(%ebp), %eax
	movl	%eax, %ecx
	call	__ZN8Palmtree4Math4Core8Internal4LockD1Ev
	.loc 7 825 5
	jmp	L235
L234:
	movl	%eax, %ebx
	.loc 7 817 14
	leal	-13(%ebp), %eax
	movl	%eax, %ecx
	call	__ZN8Palmtree4Math4Core8Internal4LockD1Ev
	movl	%ebx, %eax
	movl	%eax, (%esp)
LEHB22:
	call	__Unwind_Resume
LEHE22:
L235:
	.loc 7 825 5
	movl	-4(%ebp), %ebx
	leave
	.cfi_restore 5
	.cfi_restore 3
	.cfi_def_cfa 4, 4
	ret	$4
	.cfi_endproc
LFE5020:
	.section	.gcc_except_table,"w"
LLSDA5020:
	.byte	0xff
	.byte	0xff
	.byte	0x1
	.uleb128 LLSDACSE5020-LLSDACSB5020
LLSDACSB5020:
	.uleb128 LEHB20-LFB5020
	.uleb128 LEHE20-LEHB20
	.uleb128 0
	.uleb128 0
	.uleb128 LEHB21-LFB5020
	.uleb128 LEHE21-LEHB21
	.uleb128 L234-LFB5020
	.uleb128 0
	.uleb128 LEHB22-LFB5020
	.uleb128 LEHE22-LEHB22
	.uleb128 0
	.uleb128 0
LLSDACSE5020:
	.text
	.section .rdata,"dr"
	.align 4
LC15:
	.ascii "p\0m\0c\0_\0m\0e\0m\0o\0r\0y\0.\0c\0p\0p\0;\0R\0e\0s\0o\0u\0r\0c\0e\0H\0o\0l\0d\0e\0r\0U\0I\0N\0T\0:\0:\0C\0h\0e\0c\0k\0B\0l\0o\0c\0k\0;\0"
	.ascii "1\0\0\0"
	.text
	.align 2
	.globl	__ZN8Palmtree4Math4Core8Internal18ResourceHolderUINT10CheckBlockEPj
	.def	__ZN8Palmtree4Math4Core8Internal18ResourceHolderUINT10CheckBlockEPj;	.scl	2;	.type	32;	.endef
__ZN8Palmtree4Math4Core8Internal18ResourceHolderUINT10CheckBlockEPj:
LFB5021:
	.loc 7 828 5
	.cfi_startproc
	.cfi_personality 0,___gxx_personality_v0
	.cfi_lsda 0,LLSDA5021
	pushl	%ebp
	.cfi_def_cfa_offset 8
	.cfi_offset 5, -8
	movl	%esp, %ebp
	.cfi_def_cfa_register 5
	pushl	%ebx
	subl	$52, %esp
	.cfi_offset 3, -12
	movl	%ecx, -28(%ebp)
	.loc 7 830 14
	leal	-13(%ebp), %eax
	movl	%eax, %ecx
LEHB23:
	call	__ZN8Palmtree4Math4Core8Internal4LockC1Ev
LEHE23:
	.loc 7 831 40
	movl	-28(%ebp), %eax
	movl	8(%ebp), %edx
	movl	%edx, (%esp)
	movl	%eax, %ecx
LEHB24:
	call	__ZN8Palmtree4Math4Core8Internal14ResourceHolder7FindTagEPv
	subl	$4, %esp
	movl	%eax, -12(%ebp)
	.loc 7 832 9
	cmpl	$0, -12(%ebp)
	jne	L237
	.loc 7 833 144
	movl	$20, (%esp)
	call	___cxa_allocate_exception
	movl	%eax, %ebx
	movl	$LC15, 4(%esp)
	movl	$LC4, (%esp)
	movl	%ebx, %ecx
	call	__ZN8Palmtree4Math4Core8Internal18BadBufferExceptionC1EPKwS5_
	subl	$8, %esp
	movl	$__ZN8Palmtree4Math4Core8Internal18BadBufferExceptionD1Ev, 8(%esp)
	movl	$__ZTIN8Palmtree4Math4Core8Internal18BadBufferExceptionE, 4(%esp)
	movl	%ebx, (%esp)
	call	___cxa_throw
L237:
	.loc 7 834 20
	movl	-12(%ebp), %eax
	movl	(%eax), %eax
	addl	$16, %eax
	movl	(%eax), %eax
	.loc 7 834 19
	movl	-12(%ebp), %edx
	movl	%edx, %ecx
	call	*%eax
LVL18:
LEHE24:
	.loc 7 830 14
	leal	-13(%ebp), %eax
	movl	%eax, %ecx
	call	__ZN8Palmtree4Math4Core8Internal4LockD1Ev
	.loc 7 836 5
	jmp	L240
L239:
	movl	%eax, %ebx
	.loc 7 830 14
	leal	-13(%ebp), %eax
	movl	%eax, %ecx
	call	__ZN8Palmtree4Math4Core8Internal4LockD1Ev
	movl	%ebx, %eax
	movl	%eax, (%esp)
LEHB25:
	call	__Unwind_Resume
LEHE25:
L240:
	.loc 7 836 5
	movl	-4(%ebp), %ebx
	leave
	.cfi_restore 5
	.cfi_restore 3
	.cfi_def_cfa 4, 4
	ret	$4
	.cfi_endproc
LFE5021:
	.section	.gcc_except_table,"w"
LLSDA5021:
	.byte	0xff
	.byte	0xff
	.byte	0x1
	.uleb128 LLSDACSE5021-LLSDACSB5021
LLSDACSB5021:
	.uleb128 LEHB23-LFB5021
	.uleb128 LEHE23-LEHB23
	.uleb128 0
	.uleb128 0
	.uleb128 LEHB24-LFB5021
	.uleb128 LEHE24-LEHB24
	.uleb128 L239-LFB5021
	.uleb128 0
	.uleb128 LEHB25-LFB5021
	.uleb128 LEHE25-LEHB25
	.uleb128 0
	.uleb128 0
LLSDACSE5021:
	.text
	.section .rdata,"dr"
	.align 4
LC16:
	.ascii "p\0m\0c\0_\0m\0e\0m\0o\0r\0y\0.\0c\0p\0p\0;\0R\0e\0s\0o\0u\0r\0c\0e\0H\0o\0l\0d\0e\0r\0U\0I\0N\0T\0:\0:\0U\0n\0l\0i\0n\0k\0B\0l\0o\0c\0k\0;\0"
	.ascii "1\0\0\0"
	.text
	.align 2
	.globl	__ZN8Palmtree4Math4Core8Internal18ResourceHolderUINT11UnlinkBlockEPj
	.def	__ZN8Palmtree4Math4Core8Internal18ResourceHolderUINT11UnlinkBlockEPj;	.scl	2;	.type	32;	.endef
__ZN8Palmtree4Math4Core8Internal18ResourceHolderUINT11UnlinkBlockEPj:
LFB5022:
	.loc 7 839 5
	.cfi_startproc
	.cfi_personality 0,___gxx_personality_v0
	.cfi_lsda 0,LLSDA5022
	pushl	%ebp
	.cfi_def_cfa_offset 8
	.cfi_offset 5, -8
	movl	%esp, %ebp
	.cfi_def_cfa_register 5
	pushl	%ebx
	subl	$52, %esp
	.cfi_offset 3, -12
	movl	%ecx, -28(%ebp)
	.loc 7 840 14
	leal	-13(%ebp), %eax
	movl	%eax, %ecx
LEHB26:
	call	__ZN8Palmtree4Math4Core8Internal4LockC1Ev
LEHE26:
	.loc 7 841 40
	movl	-28(%ebp), %eax
	movl	8(%ebp), %edx
	movl	%edx, (%esp)
	movl	%eax, %ecx
LEHB27:
	call	__ZN8Palmtree4Math4Core8Internal14ResourceHolder7FindTagEPv
	subl	$4, %esp
	movl	%eax, -12(%ebp)
	.loc 7 842 9
	cmpl	$0, -12(%ebp)
	jne	L242
	.loc 7 843 145
	movl	$20, (%esp)
	call	___cxa_allocate_exception
	movl	%eax, %ebx
	movl	$LC16, 4(%esp)
	movl	$LC4, (%esp)
	movl	%ebx, %ecx
	call	__ZN8Palmtree4Math4Core8Internal18BadBufferExceptionC1EPKwS5_
	subl	$8, %esp
	movl	$__ZN8Palmtree4Math4Core8Internal18BadBufferExceptionD1Ev, 8(%esp)
	movl	$__ZTIN8Palmtree4Math4Core8Internal18BadBufferExceptionE, 4(%esp)
	movl	%ebx, (%esp)
	call	___cxa_throw
LEHE27:
L242:
	.loc 7 844 20
	movl	-12(%ebp), %eax
	movl	%eax, %ecx
	call	__ZN8Palmtree4Math4Core8Internal14ResourceHolder16__ChainBufferTag6UnlinkEv
	.loc 7 840 14
	leal	-13(%ebp), %eax
	movl	%eax, %ecx
	call	__ZN8Palmtree4Math4Core8Internal4LockD1Ev
	.loc 7 845 5
	jmp	L245
L244:
	movl	%eax, %ebx
	.loc 7 840 14
	leal	-13(%ebp), %eax
	movl	%eax, %ecx
	call	__ZN8Palmtree4Math4Core8Internal4LockD1Ev
	movl	%ebx, %eax
	movl	%eax, (%esp)
LEHB28:
	call	__Unwind_Resume
LEHE28:
L245:
	.loc 7 845 5
	movl	-4(%ebp), %ebx
	leave
	.cfi_restore 5
	.cfi_restore 3
	.cfi_def_cfa 4, 4
	ret	$4
	.cfi_endproc
LFE5022:
	.section	.gcc_except_table,"w"
LLSDA5022:
	.byte	0xff
	.byte	0xff
	.byte	0x1
	.uleb128 LLSDACSE5022-LLSDACSB5022
LLSDACSB5022:
	.uleb128 LEHB26-LFB5022
	.uleb128 LEHE26-LEHB26
	.uleb128 0
	.uleb128 0
	.uleb128 LEHB27-LFB5022
	.uleb128 LEHE27-LEHB27
	.uleb128 L244-LFB5022
	.uleb128 0
	.uleb128 LEHB28-LFB5022
	.uleb128 LEHE28-LEHB28
	.uleb128 0
	.uleb128 0
LLSDACSE5022:
	.text
	.align 2
	.globl	__ZN8Palmtree4Math4Core8Internal18ResourceHolderUINT14AllocateStringEj
	.def	__ZN8Palmtree4Math4Core8Internal18ResourceHolderUINT14AllocateStringEj;	.scl	2;	.type	32;	.endef
__ZN8Palmtree4Math4Core8Internal18ResourceHolderUINT14AllocateStringEj:
LFB5023:
	.loc 7 848 5
	.cfi_startproc
	.cfi_personality 0,___gxx_personality_v0
	.cfi_lsda 0,LLSDA5023
	pushl	%ebp
	.cfi_def_cfa_offset 8
	.cfi_offset 5, -8
	movl	%esp, %ebp
	.cfi_def_cfa_register 5
	pushl	%ebx
	subl	$68, %esp
	.cfi_offset 3, -12
	movl	%ecx, -44(%ebp)
	.loc 7 849 14
	leal	-17(%ebp), %eax
	movl	%eax, %ecx
LEHB29:
	call	__ZN8Palmtree4Math4Core8Internal4LockC1Ev
LEHE29:
	.loc 7 852 76
	movl	8(%ebp), %eax
	sall	$5, %eax
	movl	%eax, %edx
	leal	-28(%ebp), %eax
	movl	%eax, 8(%esp)
	leal	-24(%ebp), %eax
	movl	%eax, 4(%esp)
	movl	%edx, (%esp)
LEHB30:
	call	__ZN8Palmtree4Math4Core8InternalL13AllocateBlockEjPjS3_
	movl	%eax, -12(%ebp)
	.loc 7 853 102
	movl	$24, (%esp)
	call	__Znwj
LEHE30:
	.loc 7 853 102 is_stmt 0 discriminator 1
	movl	%eax, %ebx
	movl	-28(%ebp), %edx
	movl	-24(%ebp), %eax
	movl	%edx, 8(%esp)
	movl	%eax, 4(%esp)
	movl	-12(%ebp), %eax
	movl	%eax, (%esp)
	movl	%ebx, %ecx
	call	__ZN8Palmtree4Math4Core8Internal18ResourceHolderUINT34____UNIT_TYPE_Array_ChainBufferTagC1EPjjj
	subl	$12, %esp
	movl	%ebx, -16(%ebp)
	.loc 7 854 16 is_stmt 1 discriminator 1
	movl	-44(%ebp), %eax
	movl	-16(%ebp), %edx
	movl	%edx, (%esp)
	movl	%eax, %ecx
	call	__ZN8Palmtree4Math4Core8Internal14ResourceHolder7LinkTagEPNS3_16__ChainBufferTagE
	subl	$4, %esp
	.loc 7 855 33 discriminator 1
	movl	-12(%ebp), %ebx
	.loc 7 849 14 discriminator 1
	leal	-17(%ebp), %eax
	movl	%eax, %ecx
	call	__ZN8Palmtree4Math4Core8Internal4LockD1Ev
	.loc 7 855 33 discriminator 1
	movl	%ebx, %eax
	jmp	L250
L249:
	movl	%eax, %ebx
	.loc 7 849 14
	leal	-17(%ebp), %eax
	movl	%eax, %ecx
	call	__ZN8Palmtree4Math4Core8Internal4LockD1Ev
	movl	%ebx, %eax
	movl	%eax, (%esp)
LEHB31:
	call	__Unwind_Resume
LEHE31:
L250:
	.loc 7 856 5
	movl	-4(%ebp), %ebx
	leave
	.cfi_restore 5
	.cfi_restore 3
	.cfi_def_cfa 4, 4
	ret	$4
	.cfi_endproc
LFE5023:
	.section	.gcc_except_table,"w"
LLSDA5023:
	.byte	0xff
	.byte	0xff
	.byte	0x1
	.uleb128 LLSDACSE5023-LLSDACSB5023
LLSDACSB5023:
	.uleb128 LEHB29-LFB5023
	.uleb128 LEHE29-LEHB29
	.uleb128 0
	.uleb128 0
	.uleb128 LEHB30-LFB5023
	.uleb128 LEHE30-LEHB30
	.uleb128 L249-LFB5023
	.uleb128 0
	.uleb128 LEHB31-LFB5023
	.uleb128 LEHE31-LEHB31
	.uleb128 0
	.uleb128 0
LLSDACSE5023:
	.text
	.section .rdata,"dr"
	.align 4
LC17:
	.ascii "p\0m\0c\0_\0m\0e\0m\0o\0r\0y\0.\0c\0p\0p\0;\0R\0e\0s\0o\0u\0r\0c\0e\0H\0o\0l\0d\0e\0r\0U\0I\0N\0T\0:\0:\0C\0l\0e\0a\0r\0S\0t\0r\0i\0n\0g\0;\0"
	.ascii "1\0\0\0"
	.text
	.align 2
	.globl	__ZN8Palmtree4Math4Core8Internal18ResourceHolderUINT11ClearStringEPw
	.def	__ZN8Palmtree4Math4Core8Internal18ResourceHolderUINT11ClearStringEPw;	.scl	2;	.type	32;	.endef
__ZN8Palmtree4Math4Core8Internal18ResourceHolderUINT11ClearStringEPw:
LFB5024:
	.loc 7 859 5
	.cfi_startproc
	.cfi_personality 0,___gxx_personality_v0
	.cfi_lsda 0,LLSDA5024
	pushl	%ebp
	.cfi_def_cfa_offset 8
	.cfi_offset 5, -8
	movl	%esp, %ebp
	.cfi_def_cfa_register 5
	pushl	%ebx
	subl	$52, %esp
	.cfi_offset 3, -12
	movl	%ecx, -28(%ebp)
	.loc 7 860 14
	leal	-13(%ebp), %eax
	movl	%eax, %ecx
LEHB32:
	call	__ZN8Palmtree4Math4Core8Internal4LockC1Ev
LEHE32:
	.loc 7 861 40
	movl	-28(%ebp), %eax
	movl	8(%ebp), %edx
	movl	%edx, (%esp)
	movl	%eax, %ecx
LEHB33:
	call	__ZN8Palmtree4Math4Core8Internal14ResourceHolder7FindTagEPv
	subl	$4, %esp
	movl	%eax, -12(%ebp)
	.loc 7 862 9
	cmpl	$0, -12(%ebp)
	jne	L252
	.loc 7 863 145
	movl	$20, (%esp)
	call	___cxa_allocate_exception
	movl	%eax, %ebx
	movl	$LC17, 4(%esp)
	movl	$LC4, (%esp)
	movl	%ebx, %ecx
	call	__ZN8Palmtree4Math4Core8Internal18BadBufferExceptionC1EPKwS5_
	subl	$8, %esp
	movl	$__ZN8Palmtree4Math4Core8Internal18BadBufferExceptionD1Ev, 8(%esp)
	movl	$__ZTIN8Palmtree4Math4Core8Internal18BadBufferExceptionE, 4(%esp)
	movl	%ebx, (%esp)
	call	___cxa_throw
L252:
	.loc 7 864 20
	movl	-12(%ebp), %eax
	movl	(%eax), %eax
	addl	$12, %eax
	movl	(%eax), %eax
	.loc 7 864 19
	movl	-12(%ebp), %edx
	movl	%edx, %ecx
	call	*%eax
LVL19:
LEHE33:
	.loc 7 860 14
	leal	-13(%ebp), %eax
	movl	%eax, %ecx
	call	__ZN8Palmtree4Math4Core8Internal4LockD1Ev
	.loc 7 865 5
	jmp	L255
L254:
	movl	%eax, %ebx
	.loc 7 860 14
	leal	-13(%ebp), %eax
	movl	%eax, %ecx
	call	__ZN8Palmtree4Math4Core8Internal4LockD1Ev
	movl	%ebx, %eax
	movl	%eax, (%esp)
LEHB34:
	call	__Unwind_Resume
LEHE34:
L255:
	.loc 7 865 5
	movl	-4(%ebp), %ebx
	leave
	.cfi_restore 5
	.cfi_restore 3
	.cfi_def_cfa 4, 4
	ret	$4
	.cfi_endproc
LFE5024:
	.section	.gcc_except_table,"w"
LLSDA5024:
	.byte	0xff
	.byte	0xff
	.byte	0x1
	.uleb128 LLSDACSE5024-LLSDACSB5024
LLSDACSB5024:
	.uleb128 LEHB32-LFB5024
	.uleb128 LEHE32-LEHB32
	.uleb128 0
	.uleb128 0
	.uleb128 LEHB33-LFB5024
	.uleb128 LEHE33-LEHB33
	.uleb128 L254-LFB5024
	.uleb128 0
	.uleb128 LEHB34-LFB5024
	.uleb128 LEHE34-LEHB34
	.uleb128 0
	.uleb128 0
LLSDACSE5024:
	.text
	.align 2
	.globl	__ZN8Palmtree4Math4Core8Internal18ResourceHolderUINT16DeallocateStringEPw
	.def	__ZN8Palmtree4Math4Core8Internal18ResourceHolderUINT16DeallocateStringEPw;	.scl	2;	.type	32;	.endef
__ZN8Palmtree4Math4Core8Internal18ResourceHolderUINT16DeallocateStringEPw:
LFB5025:
	.loc 7 868 5
	.cfi_startproc
	.cfi_personality 0,___gxx_personality_v0
	.cfi_lsda 0,LLSDA5025
	pushl	%ebp
	.cfi_def_cfa_offset 8
	.cfi_offset 5, -8
	movl	%esp, %ebp
	.cfi_def_cfa_register 5
	pushl	%ebx
	subl	$52, %esp
	.cfi_offset 3, -12
	movl	%ecx, -28(%ebp)
	.loc 7 869 14
	leal	-13(%ebp), %eax
	movl	%eax, %ecx
LEHB35:
	call	__ZN8Palmtree4Math4Core8Internal4LockC1Ev
LEHE35:
	.loc 7 870 40
	movl	-28(%ebp), %eax
	movl	8(%ebp), %edx
	movl	%edx, (%esp)
	movl	%eax, %ecx
LEHB36:
	call	__ZN8Palmtree4Math4Core8Internal14ResourceHolder7FindTagEPv
	subl	$4, %esp
	movl	%eax, -12(%ebp)
	.loc 7 871 9
	cmpl	$0, -12(%ebp)
	je	L257
	.loc 7 873 24
	movl	-12(%ebp), %eax
	movl	%eax, %ecx
	call	__ZN8Palmtree4Math4Core8Internal14ResourceHolder16__ChainBufferTag6UnlinkEv
	.loc 7 874 27
	movl	-12(%ebp), %eax
	movl	(%eax), %eax
	addl	$20, %eax
	movl	(%eax), %eax
	.loc 7 874 26
	movl	-12(%ebp), %edx
	movl	%edx, %ecx
	call	*%eax
LVL20:
LEHE36:
	.loc 7 875 23
	cmpl	$0, -12(%ebp)
	je	L257
	.loc 7 875 20 discriminator 1
	movl	-12(%ebp), %eax
	movl	(%eax), %eax
	addl	$4, %eax
	movl	(%eax), %eax
	movl	-12(%ebp), %edx
	movl	%edx, %ecx
	call	*%eax
LVL21:
L257:
	.loc 7 869 14
	leal	-13(%ebp), %eax
	movl	%eax, %ecx
	call	__ZN8Palmtree4Math4Core8Internal4LockD1Ev
	.loc 7 877 5
	jmp	L260
L259:
	movl	%eax, %ebx
	.loc 7 869 14
	leal	-13(%ebp), %eax
	movl	%eax, %ecx
	call	__ZN8Palmtree4Math4Core8Internal4LockD1Ev
	movl	%ebx, %eax
	movl	%eax, (%esp)
LEHB37:
	call	__Unwind_Resume
LEHE37:
L260:
	.loc 7 877 5
	movl	-4(%ebp), %ebx
	leave
	.cfi_restore 5
	.cfi_restore 3
	.cfi_def_cfa 4, 4
	ret	$4
	.cfi_endproc
LFE5025:
	.section	.gcc_except_table,"w"
LLSDA5025:
	.byte	0xff
	.byte	0xff
	.byte	0x1
	.uleb128 LLSDACSE5025-LLSDACSB5025
LLSDACSB5025:
	.uleb128 LEHB35-LFB5025
	.uleb128 LEHE35-LEHB35
	.uleb128 0
	.uleb128 0
	.uleb128 LEHB36-LFB5025
	.uleb128 LEHE36-LEHB36
	.uleb128 L259-LFB5025
	.uleb128 0
	.uleb128 LEHB37-LFB5025
	.uleb128 LEHE37-LEHB37
	.uleb128 0
	.uleb128 0
LLSDACSE5025:
	.text
	.section .rdata,"dr"
	.align 4
LC18:
	.ascii "p\0m\0c\0_\0m\0e\0m\0o\0r\0y\0.\0c\0p\0p\0;\0R\0e\0s\0o\0u\0r\0c\0e\0H\0o\0l\0d\0e\0r\0U\0I\0N\0T\0:\0:\0C\0h\0e\0c\0k\0S\0t\0r\0i\0n\0g\0;\0"
	.ascii "1\0\0\0"
	.text
	.align 2
	.globl	__ZN8Palmtree4Math4Core8Internal18ResourceHolderUINT11CheckStringEPw
	.def	__ZN8Palmtree4Math4Core8Internal18ResourceHolderUINT11CheckStringEPw;	.scl	2;	.type	32;	.endef
__ZN8Palmtree4Math4Core8Internal18ResourceHolderUINT11CheckStringEPw:
LFB5026:
	.loc 7 880 5
	.cfi_startproc
	.cfi_personality 0,___gxx_personality_v0
	.cfi_lsda 0,LLSDA5026
	pushl	%ebp
	.cfi_def_cfa_offset 8
	.cfi_offset 5, -8
	movl	%esp, %ebp
	.cfi_def_cfa_register 5
	pushl	%ebx
	subl	$52, %esp
	.cfi_offset 3, -12
	movl	%ecx, -28(%ebp)
	.loc 7 882 14
	leal	-13(%ebp), %eax
	movl	%eax, %ecx
LEHB38:
	call	__ZN8Palmtree4Math4Core8Internal4LockC1Ev
LEHE38:
	.loc 7 883 40
	movl	-28(%ebp), %eax
	movl	8(%ebp), %edx
	movl	%edx, (%esp)
	movl	%eax, %ecx
LEHB39:
	call	__ZN8Palmtree4Math4Core8Internal14ResourceHolder7FindTagEPv
	subl	$4, %esp
	movl	%eax, -12(%ebp)
	.loc 7 884 9
	cmpl	$0, -12(%ebp)
	jne	L262
	.loc 7 885 145
	movl	$20, (%esp)
	call	___cxa_allocate_exception
	movl	%eax, %ebx
	movl	$LC18, 4(%esp)
	movl	$LC4, (%esp)
	movl	%ebx, %ecx
	call	__ZN8Palmtree4Math4Core8Internal18BadBufferExceptionC1EPKwS5_
	subl	$8, %esp
	movl	$__ZN8Palmtree4Math4Core8Internal18BadBufferExceptionD1Ev, 8(%esp)
	movl	$__ZTIN8Palmtree4Math4Core8Internal18BadBufferExceptionE, 4(%esp)
	movl	%ebx, (%esp)
	call	___cxa_throw
L262:
	.loc 7 886 20
	movl	-12(%ebp), %eax
	movl	(%eax), %eax
	addl	$16, %eax
	movl	(%eax), %eax
	.loc 7 886 19
	movl	-12(%ebp), %edx
	movl	%edx, %ecx
	call	*%eax
LVL22:
LEHE39:
	.loc 7 882 14
	leal	-13(%ebp), %eax
	movl	%eax, %ecx
	call	__ZN8Palmtree4Math4Core8Internal4LockD1Ev
	.loc 7 888 5
	jmp	L265
L264:
	movl	%eax, %ebx
	.loc 7 882 14
	leal	-13(%ebp), %eax
	movl	%eax, %ecx
	call	__ZN8Palmtree4Math4Core8Internal4LockD1Ev
	movl	%ebx, %eax
	movl	%eax, (%esp)
LEHB40:
	call	__Unwind_Resume
LEHE40:
L265:
	.loc 7 888 5
	movl	-4(%ebp), %ebx
	leave
	.cfi_restore 5
	.cfi_restore 3
	.cfi_def_cfa 4, 4
	ret	$4
	.cfi_endproc
LFE5026:
	.section	.gcc_except_table,"w"
LLSDA5026:
	.byte	0xff
	.byte	0xff
	.byte	0x1
	.uleb128 LLSDACSE5026-LLSDACSB5026
LLSDACSB5026:
	.uleb128 LEHB38-LFB5026
	.uleb128 LEHE38-LEHB38
	.uleb128 0
	.uleb128 0
	.uleb128 LEHB39-LFB5026
	.uleb128 LEHE39-LEHB39
	.uleb128 L264-LFB5026
	.uleb128 0
	.uleb128 LEHB40-LFB5026
	.uleb128 LEHE40-LEHB40
	.uleb128 0
	.uleb128 0
LLSDACSE5026:
	.text
	.align 2
	.globl	__ZN8Palmtree4Math4Core8Internal18ResourceHolderUINT12UnlinkStringEPw
	.def	__ZN8Palmtree4Math4Core8Internal18ResourceHolderUINT12UnlinkStringEPw;	.scl	2;	.type	32;	.endef
__ZN8Palmtree4Math4Core8Internal18ResourceHolderUINT12UnlinkStringEPw:
LFB5027:
	.loc 7 891 5
	.cfi_startproc
	.cfi_personality 0,___gxx_personality_v0
	.cfi_lsda 0,LLSDA5027
	pushl	%ebp
	.cfi_def_cfa_offset 8
	.cfi_offset 5, -8
	movl	%esp, %ebp
	.cfi_def_cfa_register 5
	pushl	%ebx
	subl	$52, %esp
	.cfi_offset 3, -12
	movl	%ecx, -28(%ebp)
	.loc 7 892 14
	leal	-13(%ebp), %eax
	movl	%eax, %ecx
LEHB41:
	call	__ZN8Palmtree4Math4Core8Internal4LockC1Ev
LEHE41:
	.loc 7 893 40
	movl	-28(%ebp), %eax
	movl	8(%ebp), %edx
	movl	%edx, (%esp)
	movl	%eax, %ecx
LEHB42:
	call	__ZN8Palmtree4Math4Core8Internal14ResourceHolder7FindTagEPv
	subl	$4, %esp
	movl	%eax, -12(%ebp)
	.loc 7 894 9
	cmpl	$0, -12(%ebp)
	jne	L267
	.loc 7 895 145
	movl	$20, (%esp)
	call	___cxa_allocate_exception
	movl	%eax, %ebx
	movl	$LC16, 4(%esp)
	movl	$LC4, (%esp)
	movl	%ebx, %ecx
	call	__ZN8Palmtree4Math4Core8Internal18BadBufferExceptionC1EPKwS5_
	subl	$8, %esp
	movl	$__ZN8Palmtree4Math4Core8Internal18BadBufferExceptionD1Ev, 8(%esp)
	movl	$__ZTIN8Palmtree4Math4Core8Internal18BadBufferExceptionE, 4(%esp)
	movl	%ebx, (%esp)
	call	___cxa_throw
LEHE42:
L267:
	.loc 7 896 20
	movl	-12(%ebp), %eax
	movl	%eax, %ecx
	call	__ZN8Palmtree4Math4Core8Internal14ResourceHolder16__ChainBufferTag6UnlinkEv
	.loc 7 892 14
	leal	-13(%ebp), %eax
	movl	%eax, %ecx
	call	__ZN8Palmtree4Math4Core8Internal4LockD1Ev
	.loc 7 897 5
	jmp	L270
L269:
	movl	%eax, %ebx
	.loc 7 892 14
	leal	-13(%ebp), %eax
	movl	%eax, %ecx
	call	__ZN8Palmtree4Math4Core8Internal4LockD1Ev
	movl	%ebx, %eax
	movl	%eax, (%esp)
LEHB43:
	call	__Unwind_Resume
LEHE43:
L270:
	.loc 7 897 5
	movl	-4(%ebp), %ebx
	leave
	.cfi_restore 5
	.cfi_restore 3
	.cfi_def_cfa 4, 4
	ret	$4
	.cfi_endproc
LFE5027:
	.section	.gcc_except_table,"w"
LLSDA5027:
	.byte	0xff
	.byte	0xff
	.byte	0x1
	.uleb128 LLSDACSE5027-LLSDACSB5027
LLSDACSB5027:
	.uleb128 LEHB41-LFB5027
	.uleb128 LEHE41-LEHB41
	.uleb128 0
	.uleb128 0
	.uleb128 LEHB42-LFB5027
	.uleb128 LEHE42-LEHB42
	.uleb128 L269-LFB5027
	.uleb128 0
	.uleb128 LEHB43-LFB5027
	.uleb128 LEHE43-LEHB43
	.uleb128 0
	.uleb128 0
LLSDACSE5027:
	.text
	.align 2
	.globl	__ZN8Palmtree4Math4Core8Internal18ResourceHolderUINT14AllocateNumberEj
	.def	__ZN8Palmtree4Math4Core8Internal18ResourceHolderUINT14AllocateNumberEj;	.scl	2;	.type	32;	.endef
__ZN8Palmtree4Math4Core8Internal18ResourceHolderUINT14AllocateNumberEj:
LFB5028:
	.loc 7 900 5
	.cfi_startproc
	.cfi_personality 0,___gxx_personality_v0
	.cfi_lsda 0,LLSDA5028
	pushl	%ebp
	.cfi_def_cfa_offset 8
	.cfi_offset 5, -8
	movl	%esp, %ebp
	.cfi_def_cfa_register 5
	pushl	%ebx
	subl	$52, %esp
	.cfi_offset 3, -12
	movl	%ecx, -28(%ebp)
	.loc 7 901 14
	leal	-13(%ebp), %eax
	movl	%eax, %ecx
LEHB44:
	call	__ZN8Palmtree4Math4Core8Internal4LockC1Ev
LEHE44:
	.loc 7 902 79
	movl	8(%ebp), %eax
	movl	%eax, (%esp)
LEHB45:
	call	__ZN8Palmtree4Math4Core8InternalL14AllocateNumberEj
	.loc 7 902 89
	movl	%eax, -20(%ebp)
	.loc 7 903 73
	movl	$16, (%esp)
	call	__Znwj
LEHE45:
	.loc 7 903 73 is_stmt 0 discriminator 1
	movl	%eax, %ebx
	movl	-20(%ebp), %eax
	movl	%eax, (%esp)
	movl	%ebx, %ecx
	call	__ZN8Palmtree4Math4Core8Internal18ResourceHolderUINT29__DynamicNumberChainBufferTagC1EPNS2_19__tag_NUMBER_HEADERE
	subl	$4, %esp
	movl	%ebx, -12(%ebp)
	.loc 7 904 16 is_stmt 1 discriminator 1
	movl	-28(%ebp), %eax
	movl	-12(%ebp), %edx
	movl	%edx, (%esp)
	movl	%eax, %ecx
	call	__ZN8Palmtree4Math4Core8Internal14ResourceHolder7LinkTagEPNS3_16__ChainBufferTagE
	subl	$4, %esp
	.loc 7 905 23 discriminator 1
	movl	-20(%ebp), %ebx
	.loc 7 901 14 discriminator 1
	leal	-13(%ebp), %eax
	movl	%eax, %ecx
	call	__ZN8Palmtree4Math4Core8Internal4LockD1Ev
	.loc 7 905 23 discriminator 1
	movl	%ebx, %eax
	jmp	L275
L274:
	movl	%eax, %ebx
	.loc 7 901 14
	leal	-13(%ebp), %eax
	movl	%eax, %ecx
	call	__ZN8Palmtree4Math4Core8Internal4LockD1Ev
	movl	%ebx, %eax
	movl	%eax, (%esp)
LEHB46:
	call	__Unwind_Resume
LEHE46:
L275:
	.loc 7 906 5
	movl	-4(%ebp), %ebx
	leave
	.cfi_restore 5
	.cfi_restore 3
	.cfi_def_cfa 4, 4
	ret	$4
	.cfi_endproc
LFE5028:
	.section	.gcc_except_table,"w"
LLSDA5028:
	.byte	0xff
	.byte	0xff
	.byte	0x1
	.uleb128 LLSDACSE5028-LLSDACSB5028
LLSDACSB5028:
	.uleb128 LEHB44-LFB5028
	.uleb128 LEHE44-LEHB44
	.uleb128 0
	.uleb128 0
	.uleb128 LEHB45-LFB5028
	.uleb128 LEHE45-LEHB45
	.uleb128 L274-LFB5028
	.uleb128 0
	.uleb128 LEHB46-LFB5028
	.uleb128 LEHE46-LEHB46
	.uleb128 0
	.uleb128 0
LLSDACSE5028:
	.text
	.align 2
	.globl	__ZN8Palmtree4Math4Core8Internal18ResourceHolderUINT10HookNumberEPNS2_19__tag_NUMBER_HEADERE
	.def	__ZN8Palmtree4Math4Core8Internal18ResourceHolderUINT10HookNumberEPNS2_19__tag_NUMBER_HEADERE;	.scl	2;	.type	32;	.endef
__ZN8Palmtree4Math4Core8Internal18ResourceHolderUINT10HookNumberEPNS2_19__tag_NUMBER_HEADERE:
LFB5029:
	.loc 7 909 5
	.cfi_startproc
	.cfi_personality 0,___gxx_personality_v0
	.cfi_lsda 0,LLSDA5029
	pushl	%ebp
	.cfi_def_cfa_offset 8
	.cfi_offset 5, -8
	movl	%esp, %ebp
	.cfi_def_cfa_register 5
	pushl	%ebx
	subl	$52, %esp
	.cfi_offset 3, -12
	movl	%ecx, -28(%ebp)
	.loc 7 910 14
	leal	-13(%ebp), %eax
	movl	%eax, %ecx
LEHB47:
	call	__ZN8Palmtree4Math4Core8Internal4LockC1Ev
LEHE47:
	.loc 7 911 79
	movl	$16, (%esp)
LEHB48:
	call	__Znwj
LEHE48:
	movl	%eax, %ebx
	movl	8(%ebp), %eax
	movl	%eax, (%esp)
	movl	%ebx, %ecx
	call	__ZN8Palmtree4Math4Core8Internal18ResourceHolderUINT35__NumberHandleHookingChainBufferTagC1EPNS2_19__tag_NUMBER_HEADERE
	subl	$4, %esp
	movl	%ebx, -12(%ebp)
	.loc 7 912 16
	movl	-28(%ebp), %eax
	movl	-12(%ebp), %edx
	movl	%edx, (%esp)
	movl	%eax, %ecx
	call	__ZN8Palmtree4Math4Core8Internal14ResourceHolder7LinkTagEPNS3_16__ChainBufferTagE
	subl	$4, %esp
	.loc 7 910 14
	leal	-13(%ebp), %eax
	movl	%eax, %ecx
	call	__ZN8Palmtree4Math4Core8Internal4LockD1Ev
	.loc 7 913 5
	jmp	L279
L278:
	movl	%eax, %ebx
	.loc 7 910 14
	leal	-13(%ebp), %eax
	movl	%eax, %ecx
	call	__ZN8Palmtree4Math4Core8Internal4LockD1Ev
	movl	%ebx, %eax
	movl	%eax, (%esp)
LEHB49:
	call	__Unwind_Resume
LEHE49:
L279:
	.loc 7 913 5
	movl	-4(%ebp), %ebx
	leave
	.cfi_restore 5
	.cfi_restore 3
	.cfi_def_cfa 4, 4
	ret	$4
	.cfi_endproc
LFE5029:
	.section	.gcc_except_table,"w"
LLSDA5029:
	.byte	0xff
	.byte	0xff
	.byte	0x1
	.uleb128 LLSDACSE5029-LLSDACSB5029
LLSDACSB5029:
	.uleb128 LEHB47-LFB5029
	.uleb128 LEHE47-LEHB47
	.uleb128 0
	.uleb128 0
	.uleb128 LEHB48-LFB5029
	.uleb128 LEHE48-LEHB48
	.uleb128 L278-LFB5029
	.uleb128 0
	.uleb128 LEHB49-LFB5029
	.uleb128 LEHE49-LEHB49
	.uleb128 0
	.uleb128 0
LLSDACSE5029:
	.text
	.align 2
	.globl	__ZN8Palmtree4Math4Core8Internal18ResourceHolderUINT16DeallocateNumberEPNS2_19__tag_NUMBER_HEADERE
	.def	__ZN8Palmtree4Math4Core8Internal18ResourceHolderUINT16DeallocateNumberEPNS2_19__tag_NUMBER_HEADERE;	.scl	2;	.type	32;	.endef
__ZN8Palmtree4Math4Core8Internal18ResourceHolderUINT16DeallocateNumberEPNS2_19__tag_NUMBER_HEADERE:
LFB5030:
	.loc 7 916 5
	.cfi_startproc
	.cfi_personality 0,___gxx_personality_v0
	.cfi_lsda 0,LLSDA5030
	pushl	%ebp
	.cfi_def_cfa_offset 8
	.cfi_offset 5, -8
	movl	%esp, %ebp
	.cfi_def_cfa_register 5
	pushl	%ebx
	subl	$52, %esp
	.cfi_offset 3, -12
	movl	%ecx, -28(%ebp)
	.loc 7 917 14
	leal	-13(%ebp), %eax
	movl	%eax, %ecx
LEHB50:
	call	__ZN8Palmtree4Math4Core8Internal4LockC1Ev
LEHE50:
	.loc 7 918 40
	movl	-28(%ebp), %eax
	movl	8(%ebp), %edx
	movl	%edx, (%esp)
	movl	%eax, %ecx
LEHB51:
	call	__ZN8Palmtree4Math4Core8Internal14ResourceHolder7FindTagEPv
	subl	$4, %esp
	movl	%eax, -12(%ebp)
	.loc 7 919 9
	cmpl	$0, -12(%ebp)
	je	L281
	.loc 7 921 24
	movl	-12(%ebp), %eax
	movl	%eax, %ecx
	call	__ZN8Palmtree4Math4Core8Internal14ResourceHolder16__ChainBufferTag6UnlinkEv
	.loc 7 922 27
	movl	-12(%ebp), %eax
	movl	(%eax), %eax
	addl	$20, %eax
	movl	(%eax), %eax
	.loc 7 922 26
	movl	-12(%ebp), %edx
	movl	%edx, %ecx
	call	*%eax
LVL23:
LEHE51:
	.loc 7 923 23
	cmpl	$0, -12(%ebp)
	je	L281
	.loc 7 923 20 discriminator 1
	movl	-12(%ebp), %eax
	movl	(%eax), %eax
	addl	$4, %eax
	movl	(%eax), %eax
	movl	-12(%ebp), %edx
	movl	%edx, %ecx
	call	*%eax
LVL24:
L281:
	.loc 7 917 14
	leal	-13(%ebp), %eax
	movl	%eax, %ecx
	call	__ZN8Palmtree4Math4Core8Internal4LockD1Ev
	.loc 7 925 5
	jmp	L284
L283:
	movl	%eax, %ebx
	.loc 7 917 14
	leal	-13(%ebp), %eax
	movl	%eax, %ecx
	call	__ZN8Palmtree4Math4Core8Internal4LockD1Ev
	movl	%ebx, %eax
	movl	%eax, (%esp)
LEHB52:
	call	__Unwind_Resume
LEHE52:
L284:
	.loc 7 925 5
	movl	-4(%ebp), %ebx
	leave
	.cfi_restore 5
	.cfi_restore 3
	.cfi_def_cfa 4, 4
	ret	$4
	.cfi_endproc
LFE5030:
	.section	.gcc_except_table,"w"
LLSDA5030:
	.byte	0xff
	.byte	0xff
	.byte	0x1
	.uleb128 LLSDACSE5030-LLSDACSB5030
LLSDACSB5030:
	.uleb128 LEHB50-LFB5030
	.uleb128 LEHE50-LEHB50
	.uleb128 0
	.uleb128 0
	.uleb128 LEHB51-LFB5030
	.uleb128 LEHE51-LEHB51
	.uleb128 L283-LFB5030
	.uleb128 0
	.uleb128 LEHB52-LFB5030
	.uleb128 LEHE52-LEHB52
	.uleb128 0
	.uleb128 0
LLSDACSE5030:
	.text
	.section .rdata,"dr"
	.align 4
LC19:
	.ascii "p\0m\0c\0_\0m\0e\0m\0o\0r\0y\0.\0c\0p\0p\0;\0R\0e\0s\0o\0u\0r\0c\0e\0H\0o\0l\0d\0e\0r\0U\0I\0N\0T\0:\0:\0C\0h\0e\0c\0k\0N\0u\0m\0b\0e\0r\0;\0"
	.ascii "1\0\0\0"
	.text
	.align 2
	.globl	__ZN8Palmtree4Math4Core8Internal18ResourceHolderUINT11CheckNumberEPNS2_19__tag_NUMBER_HEADERE
	.def	__ZN8Palmtree4Math4Core8Internal18ResourceHolderUINT11CheckNumberEPNS2_19__tag_NUMBER_HEADERE;	.scl	2;	.type	32;	.endef
__ZN8Palmtree4Math4Core8Internal18ResourceHolderUINT11CheckNumberEPNS2_19__tag_NUMBER_HEADERE:
LFB5031:
	.loc 7 928 5
	.cfi_startproc
	.cfi_personality 0,___gxx_personality_v0
	.cfi_lsda 0,LLSDA5031
	pushl	%ebp
	.cfi_def_cfa_offset 8
	.cfi_offset 5, -8
	movl	%esp, %ebp
	.cfi_def_cfa_register 5
	pushl	%ebx
	subl	$52, %esp
	.cfi_offset 3, -12
	movl	%ecx, -28(%ebp)
	.loc 7 930 14
	leal	-13(%ebp), %eax
	movl	%eax, %ecx
LEHB53:
	call	__ZN8Palmtree4Math4Core8Internal4LockC1Ev
LEHE53:
	.loc 7 931 40
	movl	-28(%ebp), %eax
	movl	8(%ebp), %edx
	movl	%edx, (%esp)
	movl	%eax, %ecx
LEHB54:
	call	__ZN8Palmtree4Math4Core8Internal14ResourceHolder7FindTagEPv
	subl	$4, %esp
	movl	%eax, -12(%ebp)
	.loc 7 932 9
	cmpl	$0, -12(%ebp)
	jne	L286
	.loc 7 933 145
	movl	$20, (%esp)
	call	___cxa_allocate_exception
	movl	%eax, %ebx
	movl	$LC19, 4(%esp)
	movl	$LC4, (%esp)
	movl	%ebx, %ecx
	call	__ZN8Palmtree4Math4Core8Internal18BadBufferExceptionC1EPKwS5_
	subl	$8, %esp
	movl	$__ZN8Palmtree4Math4Core8Internal18BadBufferExceptionD1Ev, 8(%esp)
	movl	$__ZTIN8Palmtree4Math4Core8Internal18BadBufferExceptionE, 4(%esp)
	movl	%ebx, (%esp)
	call	___cxa_throw
L286:
	.loc 7 934 20
	movl	-12(%ebp), %eax
	movl	(%eax), %eax
	addl	$16, %eax
	movl	(%eax), %eax
	.loc 7 934 19
	movl	-12(%ebp), %edx
	movl	%edx, %ecx
	call	*%eax
LVL25:
LEHE54:
	.loc 7 930 14
	leal	-13(%ebp), %eax
	movl	%eax, %ecx
	call	__ZN8Palmtree4Math4Core8Internal4LockD1Ev
	.loc 7 936 5
	jmp	L289
L288:
	movl	%eax, %ebx
	.loc 7 930 14
	leal	-13(%ebp), %eax
	movl	%eax, %ecx
	call	__ZN8Palmtree4Math4Core8Internal4LockD1Ev
	movl	%ebx, %eax
	movl	%eax, (%esp)
LEHB55:
	call	__Unwind_Resume
LEHE55:
L289:
	.loc 7 936 5
	movl	-4(%ebp), %ebx
	leave
	.cfi_restore 5
	.cfi_restore 3
	.cfi_def_cfa 4, 4
	ret	$4
	.cfi_endproc
LFE5031:
	.section	.gcc_except_table,"w"
LLSDA5031:
	.byte	0xff
	.byte	0xff
	.byte	0x1
	.uleb128 LLSDACSE5031-LLSDACSB5031
LLSDACSB5031:
	.uleb128 LEHB53-LFB5031
	.uleb128 LEHE53-LEHB53
	.uleb128 0
	.uleb128 0
	.uleb128 LEHB54-LFB5031
	.uleb128 LEHE54-LEHB54
	.uleb128 L288-LFB5031
	.uleb128 0
	.uleb128 LEHB55-LFB5031
	.uleb128 LEHE55-LEHB55
	.uleb128 0
	.uleb128 0
LLSDACSE5031:
	.text
	.section .rdata,"dr"
	.align 4
LC20:
	.ascii "p\0m\0c\0_\0m\0e\0m\0o\0r\0y\0.\0c\0p\0p\0;\0R\0e\0s\0o\0u\0r\0c\0e\0H\0o\0l\0d\0e\0r\0U\0I\0N\0T\0:\0:\0U\0n\0l\0i\0n\0k\0N\0u\0m\0b\0e\0r\0;\0"
	.ascii "1\0\0\0"
	.text
	.align 2
	.globl	__ZN8Palmtree4Math4Core8Internal18ResourceHolderUINT12UnlinkNumberEPNS2_19__tag_NUMBER_HEADERE
	.def	__ZN8Palmtree4Math4Core8Internal18ResourceHolderUINT12UnlinkNumberEPNS2_19__tag_NUMBER_HEADERE;	.scl	2;	.type	32;	.endef
__ZN8Palmtree4Math4Core8Internal18ResourceHolderUINT12UnlinkNumberEPNS2_19__tag_NUMBER_HEADERE:
LFB5032:
	.loc 7 939 5
	.cfi_startproc
	.cfi_personality 0,___gxx_personality_v0
	.cfi_lsda 0,LLSDA5032
	pushl	%ebp
	.cfi_def_cfa_offset 8
	.cfi_offset 5, -8
	movl	%esp, %ebp
	.cfi_def_cfa_register 5
	pushl	%ebx
	subl	$52, %esp
	.cfi_offset 3, -12
	movl	%ecx, -28(%ebp)
	.loc 7 940 14
	leal	-13(%ebp), %eax
	movl	%eax, %ecx
LEHB56:
	call	__ZN8Palmtree4Math4Core8Internal4LockC1Ev
LEHE56:
	.loc 7 941 40
	movl	-28(%ebp), %eax
	movl	8(%ebp), %edx
	movl	%edx, (%esp)
	movl	%eax, %ecx
LEHB57:
	call	__ZN8Palmtree4Math4Core8Internal14ResourceHolder7FindTagEPv
	subl	$4, %esp
	movl	%eax, -12(%ebp)
	.loc 7 942 9
	cmpl	$0, -12(%ebp)
	jne	L291
	.loc 7 943 146
	movl	$20, (%esp)
	call	___cxa_allocate_exception
	movl	%eax, %ebx
	movl	$LC20, 4(%esp)
	movl	$LC4, (%esp)
	movl	%ebx, %ecx
	call	__ZN8Palmtree4Math4Core8Internal18BadBufferExceptionC1EPKwS5_
	subl	$8, %esp
	movl	$__ZN8Palmtree4Math4Core8Internal18BadBufferExceptionD1Ev, 8(%esp)
	movl	$__ZTIN8Palmtree4Math4Core8Internal18BadBufferExceptionE, 4(%esp)
	movl	%ebx, (%esp)
	call	___cxa_throw
LEHE57:
L291:
	.loc 7 944 20
	movl	-12(%ebp), %eax
	movl	%eax, %ecx
	call	__ZN8Palmtree4Math4Core8Internal14ResourceHolder16__ChainBufferTag6UnlinkEv
	.loc 7 940 14
	leal	-13(%ebp), %eax
	movl	%eax, %ecx
	call	__ZN8Palmtree4Math4Core8Internal4LockD1Ev
	.loc 7 945 5
	jmp	L294
L293:
	movl	%eax, %ebx
	.loc 7 940 14
	leal	-13(%ebp), %eax
	movl	%eax, %ecx
	call	__ZN8Palmtree4Math4Core8Internal4LockD1Ev
	movl	%ebx, %eax
	movl	%eax, (%esp)
LEHB58:
	call	__Unwind_Resume
LEHE58:
L294:
	.loc 7 945 5
	movl	-4(%ebp), %ebx
	leave
	.cfi_restore 5
	.cfi_restore 3
	.cfi_def_cfa 4, 4
	ret	$4
	.cfi_endproc
LFE5032:
	.section	.gcc_except_table,"w"
LLSDA5032:
	.byte	0xff
	.byte	0xff
	.byte	0x1
	.uleb128 LLSDACSE5032-LLSDACSB5032
LLSDACSB5032:
	.uleb128 LEHB56-LFB5032
	.uleb128 LEHE56-LEHB56
	.uleb128 0
	.uleb128 0
	.uleb128 LEHB57-LFB5032
	.uleb128 LEHE57-LEHB57
	.uleb128 L293-LFB5032
	.uleb128 0
	.uleb128 LEHB58-LFB5032
	.uleb128 LEHE58-LEHB58
	.uleb128 0
	.uleb128 0
LLSDACSE5032:
	.text
	.align 2
	.globl	__ZN8Palmtree4Math4Core8Internal18ResourceHolderUINT19AttatchStaticNumberEPNS2_19__tag_NUMBER_HEADEREj
	.def	__ZN8Palmtree4Math4Core8Internal18ResourceHolderUINT19AttatchStaticNumberEPNS2_19__tag_NUMBER_HEADEREj;	.scl	2;	.type	32;	.endef
__ZN8Palmtree4Math4Core8Internal18ResourceHolderUINT19AttatchStaticNumberEPNS2_19__tag_NUMBER_HEADEREj:
LFB5033:
	.loc 7 948 5
	.cfi_startproc
	.cfi_personality 0,___gxx_personality_v0
	.cfi_lsda 0,LLSDA5033
	pushl	%ebp
	.cfi_def_cfa_offset 8
	.cfi_offset 5, -8
	movl	%esp, %ebp
	.cfi_def_cfa_register 5
	pushl	%ebx
	subl	$52, %esp
	.cfi_offset 3, -12
	movl	%ecx, -28(%ebp)
	.loc 7 949 14
	leal	-13(%ebp), %eax
	movl	%eax, %ecx
LEHB59:
	call	__ZN8Palmtree4Math4Core8Internal4LockC1Ev
LEHE59:
	.loc 7 950 54
	movl	12(%ebp), %eax
	movl	%eax, 4(%esp)
	movl	8(%ebp), %eax
	movl	%eax, (%esp)
LEHB60:
	call	__ZN8Palmtree4Math4Core8InternalL13AttatchNumberEPNS2_19__tag_NUMBER_HEADEREj
	.loc 7 951 67
	movl	$16, (%esp)
	call	__Znwj
LEHE60:
	movl	%eax, %ebx
	movl	8(%ebp), %eax
	movl	%eax, (%esp)
	movl	%ebx, %ecx
	call	__ZN8Palmtree4Math4Core8Internal18ResourceHolderUINT28__StaticNumberChainBufferTagC1EPNS2_19__tag_NUMBER_HEADERE
	subl	$4, %esp
	movl	%ebx, -12(%ebp)
	.loc 7 952 16
	movl	-28(%ebp), %eax
	movl	-12(%ebp), %edx
	movl	%edx, (%esp)
	movl	%eax, %ecx
	call	__ZN8Palmtree4Math4Core8Internal14ResourceHolder7LinkTagEPNS3_16__ChainBufferTagE
	subl	$4, %esp
	.loc 7 949 14
	leal	-13(%ebp), %eax
	movl	%eax, %ecx
	call	__ZN8Palmtree4Math4Core8Internal4LockD1Ev
	.loc 7 953 5
	jmp	L298
L297:
	movl	%eax, %ebx
	.loc 7 949 14
	leal	-13(%ebp), %eax
	movl	%eax, %ecx
	call	__ZN8Palmtree4Math4Core8Internal4LockD1Ev
	movl	%ebx, %eax
	movl	%eax, (%esp)
LEHB61:
	call	__Unwind_Resume
LEHE61:
L298:
	.loc 7 953 5
	movl	-4(%ebp), %ebx
	leave
	.cfi_restore 5
	.cfi_restore 3
	.cfi_def_cfa 4, 4
	ret	$8
	.cfi_endproc
LFE5033:
	.section	.gcc_except_table,"w"
LLSDA5033:
	.byte	0xff
	.byte	0xff
	.byte	0x1
	.uleb128 LLSDACSE5033-LLSDACSB5033
LLSDACSB5033:
	.uleb128 LEHB59-LFB5033
	.uleb128 LEHE59-LEHB59
	.uleb128 0
	.uleb128 0
	.uleb128 LEHB60-LFB5033
	.uleb128 LEHE60-LEHB60
	.uleb128 L297-LFB5033
	.uleb128 0
	.uleb128 LEHB61-LFB5033
	.uleb128 LEHE61-LEHB61
	.uleb128 0
	.uleb128 0
LLSDACSE5033:
	.text
	.align 2
	.globl	__ZN8Palmtree4Math4Core8Internal18ResourceHolderUINT19DetatchStaticNumberEPNS2_19__tag_NUMBER_HEADERE
	.def	__ZN8Palmtree4Math4Core8Internal18ResourceHolderUINT19DetatchStaticNumberEPNS2_19__tag_NUMBER_HEADERE;	.scl	2;	.type	32;	.endef
__ZN8Palmtree4Math4Core8Internal18ResourceHolderUINT19DetatchStaticNumberEPNS2_19__tag_NUMBER_HEADERE:
LFB5034:
	.loc 7 956 5
	.cfi_startproc
	.cfi_personality 0,___gxx_personality_v0
	.cfi_lsda 0,LLSDA5034
	pushl	%ebp
	.cfi_def_cfa_offset 8
	.cfi_offset 5, -8
	movl	%esp, %ebp
	.cfi_def_cfa_register 5
	pushl	%ebx
	subl	$52, %esp
	.cfi_offset 3, -12
	movl	%ecx, -28(%ebp)
	.loc 7 957 14
	leal	-13(%ebp), %eax
	movl	%eax, %ecx
LEHB62:
	call	__ZN8Palmtree4Math4Core8Internal4LockC1Ev
LEHE62:
	.loc 7 958 40
	movl	-28(%ebp), %eax
	movl	8(%ebp), %edx
	movl	%edx, (%esp)
	movl	%eax, %ecx
LEHB63:
	call	__ZN8Palmtree4Math4Core8Internal14ResourceHolder7FindTagEPv
	subl	$4, %esp
	movl	%eax, -12(%ebp)
	.loc 7 959 9
	cmpl	$0, -12(%ebp)
	je	L300
	.loc 7 961 24
	movl	-12(%ebp), %eax
	movl	%eax, %ecx
	call	__ZN8Palmtree4Math4Core8Internal14ResourceHolder16__ChainBufferTag6UnlinkEv
	.loc 7 962 27
	movl	-12(%ebp), %eax
	movl	(%eax), %eax
	addl	$20, %eax
	movl	(%eax), %eax
	.loc 7 962 26
	movl	-12(%ebp), %edx
	movl	%edx, %ecx
	call	*%eax
LVL26:
LEHE63:
	.loc 7 963 23
	cmpl	$0, -12(%ebp)
	je	L300
	.loc 7 963 20 discriminator 1
	movl	-12(%ebp), %eax
	movl	(%eax), %eax
	addl	$4, %eax
	movl	(%eax), %eax
	movl	-12(%ebp), %edx
	movl	%edx, %ecx
	call	*%eax
LVL27:
L300:
	.loc 7 957 14
	leal	-13(%ebp), %eax
	movl	%eax, %ecx
	call	__ZN8Palmtree4Math4Core8Internal4LockD1Ev
	.loc 7 965 5
	jmp	L303
L302:
	movl	%eax, %ebx
	.loc 7 957 14
	leal	-13(%ebp), %eax
	movl	%eax, %ecx
	call	__ZN8Palmtree4Math4Core8Internal4LockD1Ev
	movl	%ebx, %eax
	movl	%eax, (%esp)
LEHB64:
	call	__Unwind_Resume
LEHE64:
L303:
	.loc 7 965 5
	movl	-4(%ebp), %ebx
	leave
	.cfi_restore 5
	.cfi_restore 3
	.cfi_def_cfa 4, 4
	ret	$4
	.cfi_endproc
LFE5034:
	.section	.gcc_except_table,"w"
LLSDA5034:
	.byte	0xff
	.byte	0xff
	.byte	0x1
	.uleb128 LLSDACSE5034-LLSDACSB5034
LLSDACSB5034:
	.uleb128 LEHB62-LFB5034
	.uleb128 LEHE62-LEHB62
	.uleb128 0
	.uleb128 0
	.uleb128 LEHB63-LFB5034
	.uleb128 LEHE63-LEHB63
	.uleb128 L302-LFB5034
	.uleb128 0
	.uleb128 LEHB64-LFB5034
	.uleb128 LEHE64-LEHB64
	.uleb128 0
	.uleb128 0
LLSDACSE5034:
	.text
	.section .rdata,"dr"
	.align 4
LC21:
	.ascii "p\0m\0c\0_\0m\0e\0m\0o\0r\0y\0.\0c\0p\0p\0;\0R\0e\0s\0o\0u\0r\0c\0e\0H\0o\0l\0d\0e\0r\0U\0I\0N\0T\0:\0:\0U\0n\0l\0i\0n\0k\0S\0t\0a\0t\0i\0c\0k\0N\0u\0m\0b\0e\0r\0;\0"
	.ascii "1\0\0\0"
	.text
	.align 2
	.globl	__ZN8Palmtree4Math4Core8Internal18ResourceHolderUINT19UnlinkStatickNumberEPNS2_19__tag_NUMBER_HEADERE
	.def	__ZN8Palmtree4Math4Core8Internal18ResourceHolderUINT19UnlinkStatickNumberEPNS2_19__tag_NUMBER_HEADERE;	.scl	2;	.type	32;	.endef
__ZN8Palmtree4Math4Core8Internal18ResourceHolderUINT19UnlinkStatickNumberEPNS2_19__tag_NUMBER_HEADERE:
LFB5035:
	.loc 7 968 5
	.cfi_startproc
	.cfi_personality 0,___gxx_personality_v0
	.cfi_lsda 0,LLSDA5035
	pushl	%ebp
	.cfi_def_cfa_offset 8
	.cfi_offset 5, -8
	movl	%esp, %ebp
	.cfi_def_cfa_register 5
	pushl	%ebx
	subl	$52, %esp
	.cfi_offset 3, -12
	movl	%ecx, -28(%ebp)
	.loc 7 969 14
	leal	-13(%ebp), %eax
	movl	%eax, %ecx
LEHB65:
	call	__ZN8Palmtree4Math4Core8Internal4LockC1Ev
LEHE65:
	.loc 7 970 40
	movl	-28(%ebp), %eax
	movl	8(%ebp), %edx
	movl	%edx, (%esp)
	movl	%eax, %ecx
LEHB66:
	call	__ZN8Palmtree4Math4Core8Internal14ResourceHolder7FindTagEPv
	subl	$4, %esp
	movl	%eax, -12(%ebp)
	.loc 7 971 9
	cmpl	$0, -12(%ebp)
	jne	L305
	.loc 7 972 153
	movl	$20, (%esp)
	call	___cxa_allocate_exception
	movl	%eax, %ebx
	movl	$LC21, 4(%esp)
	movl	$LC4, (%esp)
	movl	%ebx, %ecx
	call	__ZN8Palmtree4Math4Core8Internal18BadBufferExceptionC1EPKwS5_
	subl	$8, %esp
	movl	$__ZN8Palmtree4Math4Core8Internal18BadBufferExceptionD1Ev, 8(%esp)
	movl	$__ZTIN8Palmtree4Math4Core8Internal18BadBufferExceptionE, 4(%esp)
	movl	%ebx, (%esp)
	call	___cxa_throw
LEHE66:
L305:
	.loc 7 973 20
	movl	-12(%ebp), %eax
	movl	%eax, %ecx
	call	__ZN8Palmtree4Math4Core8Internal14ResourceHolder16__ChainBufferTag6UnlinkEv
	.loc 7 969 14
	leal	-13(%ebp), %eax
	movl	%eax, %ecx
	call	__ZN8Palmtree4Math4Core8Internal4LockD1Ev
	.loc 7 974 5
	jmp	L308
L307:
	movl	%eax, %ebx
	.loc 7 969 14
	leal	-13(%ebp), %eax
	movl	%eax, %ecx
	call	__ZN8Palmtree4Math4Core8Internal4LockD1Ev
	movl	%ebx, %eax
	movl	%eax, (%esp)
LEHB67:
	call	__Unwind_Resume
LEHE67:
L308:
	.loc 7 974 5
	movl	-4(%ebp), %ebx
	leave
	.cfi_restore 5
	.cfi_restore 3
	.cfi_def_cfa 4, 4
	ret	$4
	.cfi_endproc
LFE5035:
	.section	.gcc_except_table,"w"
LLSDA5035:
	.byte	0xff
	.byte	0xff
	.byte	0x1
	.uleb128 LLSDACSE5035-LLSDACSB5035
LLSDACSB5035:
	.uleb128 LEHB65-LFB5035
	.uleb128 LEHE65-LEHB65
	.uleb128 0
	.uleb128 0
	.uleb128 LEHB66-LFB5035
	.uleb128 LEHE66-LEHB66
	.uleb128 L307-LFB5035
	.uleb128 0
	.uleb128 LEHB67-LFB5035
	.uleb128 LEHE67-LEHB67
	.uleb128 0
	.uleb128 0
LLSDACSE5035:
	.text
	.def	__ZN8Palmtree4Math4Core8InternalL26GetAllocatedMemorySize_ImpEPy;	.scl	3;	.type	32;	.endef
__ZN8Palmtree4Math4Core8InternalL26GetAllocatedMemorySize_ImpEPy:
LFB5036:
	.loc 7 980 5
	.cfi_startproc
	pushl	%ebp
	.cfi_def_cfa_offset 8
	.cfi_offset 5, -8
	movl	%esp, %ebp
	.cfi_def_cfa_register 5
	pushl	%ebx
	subl	$68, %esp
	.cfi_offset 3, -12
	.loc 7 981 15
	movl	8(%ebp), %eax
	movl	$0, (%eax)
	movl	$0, 4(%eax)
	.loc 7 984 22
	movl	$0, -44(%ebp)
L314:
	.loc 7 985 24
	movl	__ZN8Palmtree4Math4Core8Internal10hLocalHeapE, %eax
	leal	-44(%ebp), %edx
	movl	%edx, 4(%esp)
	movl	%eax, (%esp)
	movl	__imp__HeapWalk@8, %eax
	call	*%eax
LVL28:
	subl	$8, %esp
	.loc 7 985 43
	testl	%eax, %eax
	setne	%al
	testb	%al, %al
	je	L310
LBB74:
	.loc 7 987 18
	movl	$0, -12(%ebp)
	.loc 7 988 24
	movzwl	-34(%ebp), %eax
	.loc 7 988 31
	movzwl	%ax, %eax
	andl	$4, %eax
	.loc 7 988 13
	testl	%eax, %eax
	je	L311
	.loc 7 991 30
	movl	$1, -12(%ebp)
	jmp	L312
L311:
	.loc 7 1003 29
	movzwl	-34(%ebp), %eax
	.loc 7 1003 36
	movzwl	%ax, %eax
	andl	$1, %eax
	.loc 7 1003 18
	testl	%eax, %eax
L312:
	.loc 7 1028 13
	cmpl	$0, -12(%ebp)
	je	L314
	.loc 7 1029 23
	movl	8(%ebp), %eax
	movl	4(%eax), %edx
	movl	(%eax), %eax
	.loc 7 1029 32
	movl	-40(%ebp), %ecx
	movl	$0, %ebx
	.loc 7 1029 23
	addl	%ecx, %eax
	adcl	%ebx, %edx
	movl	8(%ebp), %ecx
	movl	%eax, (%ecx)
	movl	%edx, 4(%ecx)
LBE74:
	.loc 7 985 9
	jmp	L314
L310:
	.loc 7 1031 33
	movl	__imp__GetLastError@0, %eax
	call	*%eax
LVL29:
	movl	%eax, -16(%ebp)
	.loc 7 1032 9
	cmpl	$259, -16(%ebp)
	je	L315
	.loc 7 1035 25
	movl	$0, %eax
	jmp	L317
L315:
	.loc 7 1037 20
	movl	$1, %eax
L317:
	.loc 7 1038 5 discriminator 2
	movl	-4(%ebp), %ebx
	leave
	.cfi_restore 5
	.cfi_restore 3
	.cfi_def_cfa 4, 4
	ret
	.cfi_endproc
LFE5036:
	.section .rdata,"dr"
	.align 4
LC22:
	.ascii "p\0m\0c\0_\0m\0e\0m\0o\0r\0y\0.\0c\0p\0p\0;\0G\0e\0t\0A\0l\0l\0o\0c\0a\0t\0e\0d\0M\0e\0m\0o\0r\0y\0S\0i\0z\0e\0;\0"
	.ascii "1\0\0\0"
	.align 2
LC23:
	.ascii "\205Q\350\220\250"
	.ascii "0\351"
	.ascii "0\374"
	.ascii "0L0zv\37uW0~0W0_0\2"
	.ascii "0\0\0"
	.align 4
LC24:
	.ascii "p\0m\0c\0_\0m\0e\0m\0o\0r\0y\0.\0c\0p\0p\0;\0G\0e\0t\0A\0l\0l\0o\0c\0a\0t\0e\0d\0M\0e\0m\0o\0r\0y\0S\0i\0z\0e\0;\0"
	.ascii "2\0\0\0"
	.align 4
LC25:
	.ascii "p\0m\0c\0_\0m\0e\0m\0o\0r\0y\0.\0c\0p\0p\0;\0G\0e\0t\0A\0l\0l\0o\0c\0a\0t\0e\0d\0M\0e\0m\0o\0r\0y\0S\0i\0z\0e\0;\0"
	.ascii "3\0\0\0"
	.text
	.globl	__ZN8Palmtree4Math4Core8Internal26PMC_GetAllocatedMemorySizeEv@0
	.def	__ZN8Palmtree4Math4Core8Internal26PMC_GetAllocatedMemorySizeEv@0;	.scl	2;	.type	32;	.endef
__ZN8Palmtree4Math4Core8Internal26PMC_GetAllocatedMemorySizeEv@0:
LFB5037:
	.loc 7 1041 5
	.cfi_startproc
	pushl	%ebp
	.cfi_def_cfa_offset 8
	.cfi_offset 5, -8
	movl	%esp, %ebp
	.cfi_def_cfa_register 5
	pushl	%ebx
	subl	$36, %esp
	.cfi_offset 3, -12
	.loc 7 1042 22
	movl	__ZN8Palmtree4Math4Core8Internal10hLocalHeapE, %eax
	movl	%eax, (%esp)
	movl	__imp__HeapLock@4, %eax
	call	*%eax
LVL30:
	subl	$4, %esp
	.loc 7 1042 13
	testl	%eax, %eax
	sete	%al
	.loc 7 1042 9
	testb	%al, %al
	je	L319
	.loc 7 1043 128
	movl	$16, (%esp)
	call	___cxa_allocate_exception
	movl	%eax, %ebx
	movl	$LC22, 4(%esp)
	movl	$LC23, (%esp)
	movl	%ebx, %ecx
	call	__ZN8Palmtree4Math4Core8Internal22InternalErrorExceptionC1EPKwS5_
	subl	$8, %esp
	movl	$__ZN8Palmtree4Math4Core8Internal22InternalErrorExceptionD1Ev, 8(%esp)
	movl	$__ZTIN8Palmtree4Math4Core8Internal22InternalErrorExceptionE, 4(%esp)
	movl	%ebx, (%esp)
	call	___cxa_throw
L319:
	.loc 7 1045 49
	leal	-24(%ebp), %eax
	movl	%eax, (%esp)
	call	__ZN8Palmtree4Math4Core8InternalL26GetAllocatedMemorySize_ImpEPy
	movl	%eax, -12(%ebp)
	.loc 7 1046 24
	movl	__ZN8Palmtree4Math4Core8Internal10hLocalHeapE, %eax
	movl	%eax, (%esp)
	movl	__imp__HeapUnlock@4, %eax
	call	*%eax
LVL31:
	subl	$4, %esp
	.loc 7 1046 13
	testl	%eax, %eax
	sete	%al
	.loc 7 1046 9
	testb	%al, %al
	je	L320
	.loc 7 1047 128
	movl	$16, (%esp)
	call	___cxa_allocate_exception
	movl	%eax, %ebx
	movl	$LC24, 4(%esp)
	movl	$LC23, (%esp)
	movl	%ebx, %ecx
	call	__ZN8Palmtree4Math4Core8Internal22InternalErrorExceptionC1EPKwS5_
	subl	$8, %esp
	movl	$__ZN8Palmtree4Math4Core8Internal22InternalErrorExceptionD1Ev, 8(%esp)
	movl	$__ZTIN8Palmtree4Math4Core8Internal22InternalErrorExceptionE, 4(%esp)
	movl	%ebx, (%esp)
	call	___cxa_throw
L320:
	.loc 7 1048 9
	cmpl	$0, -12(%ebp)
	jne	L321
	.loc 7 1049 128
	movl	$16, (%esp)
	call	___cxa_allocate_exception
	movl	%eax, %ebx
	movl	$LC25, 4(%esp)
	movl	$LC23, (%esp)
	movl	%ebx, %ecx
	call	__ZN8Palmtree4Math4Core8Internal22InternalErrorExceptionC1EPKwS5_
	subl	$8, %esp
	movl	$__ZN8Palmtree4Math4Core8Internal22InternalErrorExceptionD1Ev, 8(%esp)
	movl	$__ZTIN8Palmtree4Math4Core8Internal22InternalErrorExceptionE, 4(%esp)
	movl	%ebx, (%esp)
	call	___cxa_throw
L321:
	.loc 7 1050 21
	movl	-24(%ebp), %eax
	movl	-20(%ebp), %edx
	.loc 7 1051 5
	movl	-4(%ebp), %ebx
	leave
	.cfi_restore 5
	.cfi_restore 3
	.cfi_def_cfa 4, 4
	ret
	.cfi_endproc
LFE5037:
	.globl	__ZN8Palmtree4Math4Core8Internal17Initialize_MemoryEPNS2_23_tag_PROCESSOR_FEATURESE
	.def	__ZN8Palmtree4Math4Core8Internal17Initialize_MemoryEPNS2_23_tag_PROCESSOR_FEATURESE;	.scl	2;	.type	32;	.endef
__ZN8Palmtree4Math4Core8Internal17Initialize_MemoryEPNS2_23_tag_PROCESSOR_FEATURESE:
LFB5038:
	.loc 7 1056 5
	.cfi_startproc
	.cfi_personality 0,___gxx_personality_v0
	.cfi_lsda 0,LLSDA5038
	pushl	%ebp
	.cfi_def_cfa_offset 8
	.cfi_offset 5, -8
	movl	%esp, %ebp
	.cfi_def_cfa_register 5
	pushl	%ebx
	subl	$52, %esp
	.cfi_offset 3, -12
	.loc 7 1057 34
	movl	$__ZN8Palmtree4Math4Core8Internal3mcsE, (%esp)
	movl	__imp__InitializeCriticalSection@4, %eax
LEHB68:
	call	*%eax
LVL32:
LEHE68:
	subl	$4, %esp
	.loc 7 1059 28
	leal	-28(%ebp), %eax
	movl	%eax, %ecx
	call	__ZN8Palmtree4Math4Core8Internal18ResourceHolderUINTC1Ev
	.loc 7 1063 37
	leal	-28(%ebp), %eax
	movl	$0, 4(%esp)
	movl	$__ZN8Palmtree4Math4Core8Internal11number_zeroE, (%esp)
	movl	%eax, %ecx
LEHB69:
	call	__ZN8Palmtree4Math4Core8Internal18ResourceHolderUINT19AttatchStaticNumberEPNS2_19__tag_NUMBER_HEADEREj
	subl	$8, %esp
	.loc 7 1064 25
	movl	$__ZN8Palmtree4Math4Core8Internal11number_zeroE, (%esp)
	call	__ZN8Palmtree4Math4Core8Internal12CommitNumberEPNS2_19__tag_NUMBER_HEADERE
	.loc 7 1066 37
	leal	-28(%ebp), %eax
	movl	$1, 4(%esp)
	movl	$__ZN8Palmtree4Math4Core8Internal10number_oneE, (%esp)
	movl	%eax, %ecx
	call	__ZN8Palmtree4Math4Core8Internal18ResourceHolderUINT19AttatchStaticNumberEPNS2_19__tag_NUMBER_HEADEREj
	subl	$8, %esp
	.loc 7 1067 24
	movl	__ZN8Palmtree4Math4Core8Internal10number_oneE+36, %eax
	.loc 7 1067 33
	movl	$1, (%eax)
	.loc 7 1068 25
	movl	$__ZN8Palmtree4Math4Core8Internal10number_oneE, (%esp)
	call	__ZN8Palmtree4Math4Core8Internal12CommitNumberEPNS2_19__tag_NUMBER_HEADERE
	.loc 7 1070 37
	leal	-28(%ebp), %eax
	movl	$__ZN8Palmtree4Math4Core8Internal11number_zeroE, (%esp)
	movl	%eax, %ecx
	call	__ZN8Palmtree4Math4Core8Internal18ResourceHolderUINT19UnlinkStatickNumberEPNS2_19__tag_NUMBER_HEADERE
	subl	$4, %esp
	.loc 7 1071 37
	leal	-28(%ebp), %eax
	movl	$__ZN8Palmtree4Math4Core8Internal10number_oneE, (%esp)
	movl	%eax, %ecx
	call	__ZN8Palmtree4Math4Core8Internal18ResourceHolderUINT19UnlinkStatickNumberEPNS2_19__tag_NUMBER_HEADERE
LEHE69:
	subl	$4, %esp
	.loc 7 1072 24
	movl	$0, %ebx
L327:
	.loc 7 1059 28
	leal	-28(%ebp), %eax
	movl	%eax, %ecx
	call	__ZN8Palmtree4Math4Core8Internal18ResourceHolderUINTD1Ev
	movl	%ebx, %eax
	jmp	L329
L328:
	cmpl	$1, %edx
	je	L326
	movl	%eax, %ebx
	leal	-28(%ebp), %eax
	movl	%eax, %ecx
	call	__ZN8Palmtree4Math4Core8Internal18ResourceHolderUINTD1Ev
	movl	%ebx, %eax
	movl	%eax, (%esp)
LEHB70:
	call	__Unwind_Resume
LEHE70:
L326:
LBB75:
	.loc 7 1074 33
	movl	%eax, (%esp)
	call	___cxa_begin_catch
	movl	%eax, -12(%ebp)
	.loc 7 1076 37
	movl	-12(%ebp), %eax
	movl	%eax, %ecx
	call	__ZNK8Palmtree4Math4Core8Internal9Exception13GetStatusCodeEv
	movl	%eax, %ebx
	.loc 7 1076 39
	nop
	.loc 7 1074 33
	call	___cxa_end_catch
	jmp	L327
L329:
LBE75:
	.loc 7 1078 5
	movl	-4(%ebp), %ebx
	leave
	.cfi_restore 5
	.cfi_restore 3
	.cfi_def_cfa 4, 4
	ret
	.cfi_endproc
LFE5038:
	.section	.gcc_except_table,"w"
	.align 4
LLSDA5038:
	.byte	0xff
	.byte	0
	.uleb128 LLSDATT5038-LLSDATTD5038
LLSDATTD5038:
	.byte	0x1
	.uleb128 LLSDACSE5038-LLSDACSB5038
LLSDACSB5038:
	.uleb128 LEHB68-LFB5038
	.uleb128 LEHE68-LEHB68
	.uleb128 0
	.uleb128 0
	.uleb128 LEHB69-LFB5038
	.uleb128 LEHE69-LEHB69
	.uleb128 L328-LFB5038
	.uleb128 0x3
	.uleb128 LEHB70-LFB5038
	.uleb128 LEHE70-LEHB70
	.uleb128 0
	.uleb128 0
LLSDACSE5038:
	.byte	0
	.byte	0
	.byte	0x1
	.byte	0x7d
	.align 4
	.long	__ZTIN8Palmtree4Math4Core8Internal9ExceptionE
LLSDATT5038:
	.text
	.globl	__ZN8Palmtree4Math4Core8Internal16AllocateHeapAreaEv
	.def	__ZN8Palmtree4Math4Core8Internal16AllocateHeapAreaEv;	.scl	2;	.type	32;	.endef
__ZN8Palmtree4Math4Core8Internal16AllocateHeapAreaEv:
LFB5039:
	.loc 7 1081 5
	.cfi_startproc
	.cfi_personality 0,___gxx_personality_v0
	.cfi_lsda 0,LLSDA5039
	pushl	%ebp
	.cfi_def_cfa_offset 8
	.cfi_offset 5, -8
	movl	%esp, %ebp
	.cfi_def_cfa_register 5
	subl	$24, %esp
	.loc 7 1082 32
	movl	$0, 8(%esp)
	movl	$4096, 4(%esp)
	movl	$0, (%esp)
	movl	__imp__HeapCreate@12, %eax
	call	*%eax
LVL33:
	subl	$12, %esp
	.loc 7 1082 20
	movl	%eax, __ZN8Palmtree4Math4Core8Internal10hLocalHeapE
	.loc 7 1083 24
	movl	__ZN8Palmtree4Math4Core8Internal10hLocalHeapE, %eax
	.loc 7 1083 9
	testl	%eax, %eax
	jne	L331
	.loc 7 1084 25
	movl	$0, %eax
	jmp	L332
L331:
	.loc 7 1085 20
	movl	$1, %eax
L332:
	.loc 7 1086 5
	leave
	.cfi_restore 5
	.cfi_def_cfa 4, 4
	ret
	.cfi_endproc
LFE5039:
	.section	.gcc_except_table,"w"
LLSDA5039:
	.byte	0xff
	.byte	0xff
	.byte	0x1
	.uleb128 LLSDACSE5039-LLSDACSB5039
LLSDACSB5039:
LLSDACSE5039:
	.text
	.globl	__ZN8Palmtree4Math4Core8Internal18DeallocateHeapAreaEv
	.def	__ZN8Palmtree4Math4Core8Internal18DeallocateHeapAreaEv;	.scl	2;	.type	32;	.endef
__ZN8Palmtree4Math4Core8Internal18DeallocateHeapAreaEv:
LFB5040:
	.loc 7 1089 5
	.cfi_startproc
	.cfi_personality 0,___gxx_personality_v0
	.cfi_lsda 0,LLSDA5040
	pushl	%ebp
	.cfi_def_cfa_offset 8
	.cfi_offset 5, -8
	movl	%esp, %ebp
	.cfi_def_cfa_register 5
	subl	$24, %esp
	.loc 7 1090 24
	movl	__ZN8Palmtree4Math4Core8Internal10hLocalHeapE, %eax
	.loc 7 1090 9
	testl	%eax, %eax
	je	L335
	.loc 7 1092 24
	movl	__ZN8Palmtree4Math4Core8Internal10hLocalHeapE, %eax
	movl	%eax, (%esp)
	movl	__imp__HeapDestroy@4, %eax
	call	*%eax
LVL34:
	subl	$4, %esp
	.loc 7 1093 24
	movl	$0, __ZN8Palmtree4Math4Core8Internal10hLocalHeapE
L335:
	.loc 7 1095 5
	nop
	leave
	.cfi_restore 5
	.cfi_def_cfa 4, 4
	ret
	.cfi_endproc
LFE5040:
	.section	.gcc_except_table,"w"
LLSDA5040:
	.byte	0xff
	.byte	0xff
	.byte	0x1
	.uleb128 LLSDACSE5040-LLSDACSB5040
LLSDACSB5040:
LLSDACSE5040:
	.text
	.globl	__ZTVN8Palmtree4Math4Core8Internal18ResourceHolderUINTE
	.section	.rdata$_ZTVN8Palmtree4Math4Core8Internal18ResourceHolderUINTE,"dr"
	.linkonce same_size
	.align 4
__ZTVN8Palmtree4Math4Core8Internal18ResourceHolderUINTE:
	.long	0
	.long	__ZTIN8Palmtree4Math4Core8Internal18ResourceHolderUINTE
	.long	__ZN8Palmtree4Math4Core8Internal18ResourceHolderUINTD1Ev
	.long	__ZN8Palmtree4Math4Core8Internal18ResourceHolderUINTD0Ev
	.globl	__ZTVN8Palmtree4Math4Core8Internal18ResourceHolderUINT28__StaticNumberChainBufferTagE
	.section	.rdata$_ZTVN8Palmtree4Math4Core8Internal18ResourceHolderUINT28__StaticNumberChainBufferTagE,"dr"
	.linkonce same_size
	.align 4
__ZTVN8Palmtree4Math4Core8Internal18ResourceHolderUINT28__StaticNumberChainBufferTagE:
	.long	0
	.long	__ZTIN8Palmtree4Math4Core8Internal18ResourceHolderUINT28__StaticNumberChainBufferTagE
	.long	__ZN8Palmtree4Math4Core8Internal18ResourceHolderUINT28__StaticNumberChainBufferTagD1Ev
	.long	__ZN8Palmtree4Math4Core8Internal18ResourceHolderUINT28__StaticNumberChainBufferTagD0Ev
	.long	__ZN8Palmtree4Math4Core8Internal18ResourceHolderUINT28__StaticNumberChainBufferTag19EqualsBufferAddressEPv
	.long	__ZN8Palmtree4Math4Core8Internal14ResourceHolder16__ChainBufferTag5ClearEv
	.long	__ZN8Palmtree4Math4Core8Internal18ResourceHolderUINT28__StaticNumberChainBufferTag5CheckEv
	.long	__ZN8Palmtree4Math4Core8Internal18ResourceHolderUINT28__StaticNumberChainBufferTag8DestructEv
	.globl	__ZTVN8Palmtree4Math4Core8Internal18ResourceHolderUINT35__NumberHandleHookingChainBufferTagE
	.section	.rdata$_ZTVN8Palmtree4Math4Core8Internal18ResourceHolderUINT35__NumberHandleHookingChainBufferTagE,"dr"
	.linkonce same_size
	.align 4
__ZTVN8Palmtree4Math4Core8Internal18ResourceHolderUINT35__NumberHandleHookingChainBufferTagE:
	.long	0
	.long	__ZTIN8Palmtree4Math4Core8Internal18ResourceHolderUINT35__NumberHandleHookingChainBufferTagE
	.long	__ZN8Palmtree4Math4Core8Internal18ResourceHolderUINT35__NumberHandleHookingChainBufferTagD1Ev
	.long	__ZN8Palmtree4Math4Core8Internal18ResourceHolderUINT35__NumberHandleHookingChainBufferTagD0Ev
	.long	__ZN8Palmtree4Math4Core8Internal18ResourceHolderUINT35__NumberHandleHookingChainBufferTag19EqualsBufferAddressEPv
	.long	__ZN8Palmtree4Math4Core8Internal14ResourceHolder16__ChainBufferTag5ClearEv
	.long	__ZN8Palmtree4Math4Core8Internal18ResourceHolderUINT35__NumberHandleHookingChainBufferTag5CheckEv
	.long	__ZN8Palmtree4Math4Core8Internal18ResourceHolderUINT35__NumberHandleHookingChainBufferTag8DestructEv
	.globl	__ZTVN8Palmtree4Math4Core8Internal18ResourceHolderUINT29__DynamicNumberChainBufferTagE
	.section	.rdata$_ZTVN8Palmtree4Math4Core8Internal18ResourceHolderUINT29__DynamicNumberChainBufferTagE,"dr"
	.linkonce same_size
	.align 4
__ZTVN8Palmtree4Math4Core8Internal18ResourceHolderUINT29__DynamicNumberChainBufferTagE:
	.long	0
	.long	__ZTIN8Palmtree4Math4Core8Internal18ResourceHolderUINT29__DynamicNumberChainBufferTagE
	.long	__ZN8Palmtree4Math4Core8Internal18ResourceHolderUINT29__DynamicNumberChainBufferTagD1Ev
	.long	__ZN8Palmtree4Math4Core8Internal18ResourceHolderUINT29__DynamicNumberChainBufferTagD0Ev
	.long	__ZN8Palmtree4Math4Core8Internal18ResourceHolderUINT29__DynamicNumberChainBufferTag19EqualsBufferAddressEPv
	.long	__ZN8Palmtree4Math4Core8Internal14ResourceHolder16__ChainBufferTag5ClearEv
	.long	__ZN8Palmtree4Math4Core8Internal18ResourceHolderUINT29__DynamicNumberChainBufferTag5CheckEv
	.long	__ZN8Palmtree4Math4Core8Internal18ResourceHolderUINT29__DynamicNumberChainBufferTag8DestructEv
	.globl	__ZTVN8Palmtree4Math4Core8Internal18ResourceHolderUINT22__StringChainBufferTagE
	.section	.rdata$_ZTVN8Palmtree4Math4Core8Internal18ResourceHolderUINT22__StringChainBufferTagE,"dr"
	.linkonce same_size
	.align 4
__ZTVN8Palmtree4Math4Core8Internal18ResourceHolderUINT22__StringChainBufferTagE:
	.long	0
	.long	__ZTIN8Palmtree4Math4Core8Internal18ResourceHolderUINT22__StringChainBufferTagE
	.long	__ZN8Palmtree4Math4Core8Internal18ResourceHolderUINT22__StringChainBufferTagD1Ev
	.long	__ZN8Palmtree4Math4Core8Internal18ResourceHolderUINT22__StringChainBufferTagD0Ev
	.long	__ZN8Palmtree4Math4Core8Internal18ResourceHolderUINT22__StringChainBufferTag19EqualsBufferAddressEPv
	.long	__ZN8Palmtree4Math4Core8Internal18ResourceHolderUINT22__StringChainBufferTag5ClearEv
	.long	__ZN8Palmtree4Math4Core8Internal18ResourceHolderUINT22__StringChainBufferTag5CheckEv
	.long	__ZN8Palmtree4Math4Core8Internal18ResourceHolderUINT22__StringChainBufferTag8DestructEv
	.globl	__ZTVN8Palmtree4Math4Core8Internal18ResourceHolderUINT34____UNIT_TYPE_Array_ChainBufferTagE
	.section	.rdata$_ZTVN8Palmtree4Math4Core8Internal18ResourceHolderUINT34____UNIT_TYPE_Array_ChainBufferTagE,"dr"
	.linkonce same_size
	.align 4
__ZTVN8Palmtree4Math4Core8Internal18ResourceHolderUINT34____UNIT_TYPE_Array_ChainBufferTagE:
	.long	0
	.long	__ZTIN8Palmtree4Math4Core8Internal18ResourceHolderUINT34____UNIT_TYPE_Array_ChainBufferTagE
	.long	__ZN8Palmtree4Math4Core8Internal18ResourceHolderUINT34____UNIT_TYPE_Array_ChainBufferTagD1Ev
	.long	__ZN8Palmtree4Math4Core8Internal18ResourceHolderUINT34____UNIT_TYPE_Array_ChainBufferTagD0Ev
	.long	__ZN8Palmtree4Math4Core8Internal18ResourceHolderUINT34____UNIT_TYPE_Array_ChainBufferTag19EqualsBufferAddressEPv
	.long	__ZN8Palmtree4Math4Core8Internal18ResourceHolderUINT34____UNIT_TYPE_Array_ChainBufferTag5ClearEv
	.long	__ZN8Palmtree4Math4Core8Internal18ResourceHolderUINT34____UNIT_TYPE_Array_ChainBufferTag5CheckEv
	.long	__ZN8Palmtree4Math4Core8Internal18ResourceHolderUINT34____UNIT_TYPE_Array_ChainBufferTag8DestructEv
	.globl	__ZTVN8Palmtree4Math4Core8Internal18ResourceHolderUINT23__GenericChainBufferTagE
	.section	.rdata$_ZTVN8Palmtree4Math4Core8Internal18ResourceHolderUINT23__GenericChainBufferTagE,"dr"
	.linkonce same_size
	.align 4
__ZTVN8Palmtree4Math4Core8Internal18ResourceHolderUINT23__GenericChainBufferTagE:
	.long	0
	.long	__ZTIN8Palmtree4Math4Core8Internal18ResourceHolderUINT23__GenericChainBufferTagE
	.long	__ZN8Palmtree4Math4Core8Internal18ResourceHolderUINT23__GenericChainBufferTagD1Ev
	.long	__ZN8Palmtree4Math4Core8Internal18ResourceHolderUINT23__GenericChainBufferTagD0Ev
	.long	__ZN8Palmtree4Math4Core8Internal18ResourceHolderUINT23__GenericChainBufferTag19EqualsBufferAddressEPv
	.long	__ZN8Palmtree4Math4Core8Internal14ResourceHolder16__ChainBufferTag5ClearEv
	.long	__ZN8Palmtree4Math4Core8Internal14ResourceHolder16__ChainBufferTag5CheckEv
	.long	__ZN8Palmtree4Math4Core8Internal18ResourceHolderUINT23__GenericChainBufferTag8DestructEv
	.globl	__ZTVN8Palmtree4Math4Core8Internal14ResourceHolderE
	.section	.rdata$_ZTVN8Palmtree4Math4Core8Internal14ResourceHolderE,"dr"
	.linkonce same_size
	.align 4
__ZTVN8Palmtree4Math4Core8Internal14ResourceHolderE:
	.long	0
	.long	__ZTIN8Palmtree4Math4Core8Internal14ResourceHolderE
	.long	__ZN8Palmtree4Math4Core8Internal14ResourceHolderD1Ev
	.long	__ZN8Palmtree4Math4Core8Internal14ResourceHolderD0Ev
	.globl	__ZTVN8Palmtree4Math4Core8Internal14ResourceHolder9__RootTagE
	.section	.rdata$_ZTVN8Palmtree4Math4Core8Internal14ResourceHolder9__RootTagE,"dr"
	.linkonce same_size
	.align 4
__ZTVN8Palmtree4Math4Core8Internal14ResourceHolder9__RootTagE:
	.long	0
	.long	__ZTIN8Palmtree4Math4Core8Internal14ResourceHolder9__RootTagE
	.long	__ZN8Palmtree4Math4Core8Internal14ResourceHolder9__RootTagD1Ev
	.long	__ZN8Palmtree4Math4Core8Internal14ResourceHolder9__RootTagD0Ev
	.long	__ZN8Palmtree4Math4Core8Internal14ResourceHolder9__RootTag19EqualsBufferAddressEPv
	.long	__ZN8Palmtree4Math4Core8Internal14ResourceHolder16__ChainBufferTag5ClearEv
	.long	__ZN8Palmtree4Math4Core8Internal14ResourceHolder16__ChainBufferTag5CheckEv
	.long	__ZN8Palmtree4Math4Core8Internal14ResourceHolder9__RootTag8DestructEv
	.globl	__ZTVN8Palmtree4Math4Core8Internal14ResourceHolder16__ChainBufferTagE
	.section	.rdata$_ZTVN8Palmtree4Math4Core8Internal14ResourceHolder16__ChainBufferTagE,"dr"
	.linkonce same_size
	.align 4
__ZTVN8Palmtree4Math4Core8Internal14ResourceHolder16__ChainBufferTagE:
	.long	0
	.long	__ZTIN8Palmtree4Math4Core8Internal14ResourceHolder16__ChainBufferTagE
	.long	0
	.long	0
	.long	___cxa_pure_virtual
	.long	__ZN8Palmtree4Math4Core8Internal14ResourceHolder16__ChainBufferTag5ClearEv
	.long	__ZN8Palmtree4Math4Core8Internal14ResourceHolder16__ChainBufferTag5CheckEv
	.long	___cxa_pure_virtual
	.globl	__ZTVN8Palmtree4Math4Core8Internal18BadBufferExceptionE
	.section	.rdata$_ZTVN8Palmtree4Math4Core8Internal18BadBufferExceptionE,"dr"
	.linkonce same_size
	.align 4
__ZTVN8Palmtree4Math4Core8Internal18BadBufferExceptionE:
	.long	0
	.long	__ZTIN8Palmtree4Math4Core8Internal18BadBufferExceptionE
	.long	__ZN8Palmtree4Math4Core8Internal18BadBufferExceptionD1Ev
	.long	__ZN8Palmtree4Math4Core8Internal18BadBufferExceptionD0Ev
	.long	__ZNKSt9exception4whatEv
	.globl	__ZTVN8Palmtree4Math4Core8Internal22InternalErrorExceptionE
	.section	.rdata$_ZTVN8Palmtree4Math4Core8Internal22InternalErrorExceptionE,"dr"
	.linkonce same_size
	.align 4
__ZTVN8Palmtree4Math4Core8Internal22InternalErrorExceptionE:
	.long	0
	.long	__ZTIN8Palmtree4Math4Core8Internal22InternalErrorExceptionE
	.long	__ZN8Palmtree4Math4Core8Internal22InternalErrorExceptionD1Ev
	.long	__ZN8Palmtree4Math4Core8Internal22InternalErrorExceptionD0Ev
	.long	__ZNKSt9exception4whatEv
	.globl	__ZTVN8Palmtree4Math4Core8Internal24NotEnoughMemoryExceptionE
	.section	.rdata$_ZTVN8Palmtree4Math4Core8Internal24NotEnoughMemoryExceptionE,"dr"
	.linkonce same_size
	.align 4
__ZTVN8Palmtree4Math4Core8Internal24NotEnoughMemoryExceptionE:
	.long	0
	.long	__ZTIN8Palmtree4Math4Core8Internal24NotEnoughMemoryExceptionE
	.long	__ZN8Palmtree4Math4Core8Internal24NotEnoughMemoryExceptionD1Ev
	.long	__ZN8Palmtree4Math4Core8Internal24NotEnoughMemoryExceptionD0Ev
	.long	__ZNKSt9exception4whatEv
	.globl	__ZTVN8Palmtree4Math4Core8Internal21ArgumentNullExceptionE
	.section	.rdata$_ZTVN8Palmtree4Math4Core8Internal21ArgumentNullExceptionE,"dr"
	.linkonce same_size
	.align 4
__ZTVN8Palmtree4Math4Core8Internal21ArgumentNullExceptionE:
	.long	0
	.long	__ZTIN8Palmtree4Math4Core8Internal21ArgumentNullExceptionE
	.long	__ZN8Palmtree4Math4Core8Internal21ArgumentNullExceptionD1Ev
	.long	__ZN8Palmtree4Math4Core8Internal21ArgumentNullExceptionD0Ev
	.long	__ZNKSt9exception4whatEv
	.globl	__ZTVN8Palmtree4Math4Core8Internal17ArgumentExceptionE
	.section	.rdata$_ZTVN8Palmtree4Math4Core8Internal17ArgumentExceptionE,"dr"
	.linkonce same_size
	.align 4
__ZTVN8Palmtree4Math4Core8Internal17ArgumentExceptionE:
	.long	0
	.long	__ZTIN8Palmtree4Math4Core8Internal17ArgumentExceptionE
	.long	__ZN8Palmtree4Math4Core8Internal17ArgumentExceptionD1Ev
	.long	__ZN8Palmtree4Math4Core8Internal17ArgumentExceptionD0Ev
	.long	__ZNKSt9exception4whatEv
	.globl	__ZTVN8Palmtree4Math4Core8Internal9ExceptionE
	.section	.rdata$_ZTVN8Palmtree4Math4Core8Internal9ExceptionE,"dr"
	.linkonce same_size
	.align 4
__ZTVN8Palmtree4Math4Core8Internal9ExceptionE:
	.long	0
	.long	__ZTIN8Palmtree4Math4Core8Internal9ExceptionE
	.long	__ZN8Palmtree4Math4Core8Internal9ExceptionD1Ev
	.long	__ZN8Palmtree4Math4Core8Internal9ExceptionD0Ev
	.long	__ZNKSt9exception4whatEv
	.globl	__ZTIN8Palmtree4Math4Core8Internal18ResourceHolderUINTE
	.section	.rdata$_ZTIN8Palmtree4Math4Core8Internal18ResourceHolderUINTE,"dr"
	.linkonce same_size
	.align 4
__ZTIN8Palmtree4Math4Core8Internal18ResourceHolderUINTE:
	.long	__ZTVN10__cxxabiv121__vmi_class_type_infoE+8
	.long	__ZTSN8Palmtree4Math4Core8Internal18ResourceHolderUINTE
	.long	0
	.long	1
	.long	__ZTIN8Palmtree4Math4Core8Internal14ResourceHolderE
	.long	0
	.globl	__ZTSN8Palmtree4Math4Core8Internal18ResourceHolderUINTE
	.section	.rdata$_ZTSN8Palmtree4Math4Core8Internal18ResourceHolderUINTE,"dr"
	.linkonce same_size
	.align 32
__ZTSN8Palmtree4Math4Core8Internal18ResourceHolderUINTE:
	.ascii "N8Palmtree4Math4Core8Internal18ResourceHolderUINTE\0"
	.globl	__ZTIN8Palmtree4Math4Core8Internal18ResourceHolderUINT28__StaticNumberChainBufferTagE
	.section	.rdata$_ZTIN8Palmtree4Math4Core8Internal18ResourceHolderUINT28__StaticNumberChainBufferTagE,"dr"
	.linkonce same_size
	.align 4
__ZTIN8Palmtree4Math4Core8Internal18ResourceHolderUINT28__StaticNumberChainBufferTagE:
	.long	__ZTVN10__cxxabiv120__si_class_type_infoE+8
	.long	__ZTSN8Palmtree4Math4Core8Internal18ResourceHolderUINT28__StaticNumberChainBufferTagE
	.long	__ZTIN8Palmtree4Math4Core8Internal14ResourceHolder16__ChainBufferTagE
	.globl	__ZTSN8Palmtree4Math4Core8Internal18ResourceHolderUINT28__StaticNumberChainBufferTagE
	.section	.rdata$_ZTSN8Palmtree4Math4Core8Internal18ResourceHolderUINT28__StaticNumberChainBufferTagE,"dr"
	.linkonce same_size
	.align 32
__ZTSN8Palmtree4Math4Core8Internal18ResourceHolderUINT28__StaticNumberChainBufferTagE:
	.ascii "N8Palmtree4Math4Core8Internal18ResourceHolderUINT28__StaticNumberChainBufferTagE\0"
	.globl	__ZTIN8Palmtree4Math4Core8Internal18ResourceHolderUINT35__NumberHandleHookingChainBufferTagE
	.section	.rdata$_ZTIN8Palmtree4Math4Core8Internal18ResourceHolderUINT35__NumberHandleHookingChainBufferTagE,"dr"
	.linkonce same_size
	.align 4
__ZTIN8Palmtree4Math4Core8Internal18ResourceHolderUINT35__NumberHandleHookingChainBufferTagE:
	.long	__ZTVN10__cxxabiv120__si_class_type_infoE+8
	.long	__ZTSN8Palmtree4Math4Core8Internal18ResourceHolderUINT35__NumberHandleHookingChainBufferTagE
	.long	__ZTIN8Palmtree4Math4Core8Internal14ResourceHolder16__ChainBufferTagE
	.globl	__ZTSN8Palmtree4Math4Core8Internal18ResourceHolderUINT35__NumberHandleHookingChainBufferTagE
	.section	.rdata$_ZTSN8Palmtree4Math4Core8Internal18ResourceHolderUINT35__NumberHandleHookingChainBufferTagE,"dr"
	.linkonce same_size
	.align 32
__ZTSN8Palmtree4Math4Core8Internal18ResourceHolderUINT35__NumberHandleHookingChainBufferTagE:
	.ascii "N8Palmtree4Math4Core8Internal18ResourceHolderUINT35__NumberHandleHookingChainBufferTagE\0"
	.globl	__ZTIN8Palmtree4Math4Core8Internal18ResourceHolderUINT29__DynamicNumberChainBufferTagE
	.section	.rdata$_ZTIN8Palmtree4Math4Core8Internal18ResourceHolderUINT29__DynamicNumberChainBufferTagE,"dr"
	.linkonce same_size
	.align 4
__ZTIN8Palmtree4Math4Core8Internal18ResourceHolderUINT29__DynamicNumberChainBufferTagE:
	.long	__ZTVN10__cxxabiv120__si_class_type_infoE+8
	.long	__ZTSN8Palmtree4Math4Core8Internal18ResourceHolderUINT29__DynamicNumberChainBufferTagE
	.long	__ZTIN8Palmtree4Math4Core8Internal14ResourceHolder16__ChainBufferTagE
	.globl	__ZTSN8Palmtree4Math4Core8Internal18ResourceHolderUINT29__DynamicNumberChainBufferTagE
	.section	.rdata$_ZTSN8Palmtree4Math4Core8Internal18ResourceHolderUINT29__DynamicNumberChainBufferTagE,"dr"
	.linkonce same_size
	.align 32
__ZTSN8Palmtree4Math4Core8Internal18ResourceHolderUINT29__DynamicNumberChainBufferTagE:
	.ascii "N8Palmtree4Math4Core8Internal18ResourceHolderUINT29__DynamicNumberChainBufferTagE\0"
	.globl	__ZTIN8Palmtree4Math4Core8Internal18ResourceHolderUINT22__StringChainBufferTagE
	.section	.rdata$_ZTIN8Palmtree4Math4Core8Internal18ResourceHolderUINT22__StringChainBufferTagE,"dr"
	.linkonce same_size
	.align 4
__ZTIN8Palmtree4Math4Core8Internal18ResourceHolderUINT22__StringChainBufferTagE:
	.long	__ZTVN10__cxxabiv120__si_class_type_infoE+8
	.long	__ZTSN8Palmtree4Math4Core8Internal18ResourceHolderUINT22__StringChainBufferTagE
	.long	__ZTIN8Palmtree4Math4Core8Internal14ResourceHolder16__ChainBufferTagE
	.globl	__ZTSN8Palmtree4Math4Core8Internal18ResourceHolderUINT22__StringChainBufferTagE
	.section	.rdata$_ZTSN8Palmtree4Math4Core8Internal18ResourceHolderUINT22__StringChainBufferTagE,"dr"
	.linkonce same_size
	.align 32
__ZTSN8Palmtree4Math4Core8Internal18ResourceHolderUINT22__StringChainBufferTagE:
	.ascii "N8Palmtree4Math4Core8Internal18ResourceHolderUINT22__StringChainBufferTagE\0"
	.globl	__ZTIN8Palmtree4Math4Core8Internal18ResourceHolderUINT34____UNIT_TYPE_Array_ChainBufferTagE
	.section	.rdata$_ZTIN8Palmtree4Math4Core8Internal18ResourceHolderUINT34____UNIT_TYPE_Array_ChainBufferTagE,"dr"
	.linkonce same_size
	.align 4
__ZTIN8Palmtree4Math4Core8Internal18ResourceHolderUINT34____UNIT_TYPE_Array_ChainBufferTagE:
	.long	__ZTVN10__cxxabiv120__si_class_type_infoE+8
	.long	__ZTSN8Palmtree4Math4Core8Internal18ResourceHolderUINT34____UNIT_TYPE_Array_ChainBufferTagE
	.long	__ZTIN8Palmtree4Math4Core8Internal14ResourceHolder16__ChainBufferTagE
	.globl	__ZTSN8Palmtree4Math4Core8Internal18ResourceHolderUINT34____UNIT_TYPE_Array_ChainBufferTagE
	.section	.rdata$_ZTSN8Palmtree4Math4Core8Internal18ResourceHolderUINT34____UNIT_TYPE_Array_ChainBufferTagE,"dr"
	.linkonce same_size
	.align 32
__ZTSN8Palmtree4Math4Core8Internal18ResourceHolderUINT34____UNIT_TYPE_Array_ChainBufferTagE:
	.ascii "N8Palmtree4Math4Core8Internal18ResourceHolderUINT34____UNIT_TYPE_Array_ChainBufferTagE\0"
	.globl	__ZTIN8Palmtree4Math4Core8Internal18ResourceHolderUINT23__GenericChainBufferTagE
	.section	.rdata$_ZTIN8Palmtree4Math4Core8Internal18ResourceHolderUINT23__GenericChainBufferTagE,"dr"
	.linkonce same_size
	.align 4
__ZTIN8Palmtree4Math4Core8Internal18ResourceHolderUINT23__GenericChainBufferTagE:
	.long	__ZTVN10__cxxabiv120__si_class_type_infoE+8
	.long	__ZTSN8Palmtree4Math4Core8Internal18ResourceHolderUINT23__GenericChainBufferTagE
	.long	__ZTIN8Palmtree4Math4Core8Internal14ResourceHolder16__ChainBufferTagE
	.globl	__ZTSN8Palmtree4Math4Core8Internal18ResourceHolderUINT23__GenericChainBufferTagE
	.section	.rdata$_ZTSN8Palmtree4Math4Core8Internal18ResourceHolderUINT23__GenericChainBufferTagE,"dr"
	.linkonce same_size
	.align 32
__ZTSN8Palmtree4Math4Core8Internal18ResourceHolderUINT23__GenericChainBufferTagE:
	.ascii "N8Palmtree4Math4Core8Internal18ResourceHolderUINT23__GenericChainBufferTagE\0"
	.globl	__ZTIN8Palmtree4Math4Core8Internal14ResourceHolderE
	.section	.rdata$_ZTIN8Palmtree4Math4Core8Internal14ResourceHolderE,"dr"
	.linkonce same_size
	.align 4
__ZTIN8Palmtree4Math4Core8Internal14ResourceHolderE:
	.long	__ZTVN10__cxxabiv117__class_type_infoE+8
	.long	__ZTSN8Palmtree4Math4Core8Internal14ResourceHolderE
	.globl	__ZTSN8Palmtree4Math4Core8Internal14ResourceHolderE
	.section	.rdata$_ZTSN8Palmtree4Math4Core8Internal14ResourceHolderE,"dr"
	.linkonce same_size
	.align 32
__ZTSN8Palmtree4Math4Core8Internal14ResourceHolderE:
	.ascii "N8Palmtree4Math4Core8Internal14ResourceHolderE\0"
	.globl	__ZTIN8Palmtree4Math4Core8Internal14ResourceHolder9__RootTagE
	.section	.rdata$_ZTIN8Palmtree4Math4Core8Internal14ResourceHolder9__RootTagE,"dr"
	.linkonce same_size
	.align 4
__ZTIN8Palmtree4Math4Core8Internal14ResourceHolder9__RootTagE:
	.long	__ZTVN10__cxxabiv120__si_class_type_infoE+8
	.long	__ZTSN8Palmtree4Math4Core8Internal14ResourceHolder9__RootTagE
	.long	__ZTIN8Palmtree4Math4Core8Internal14ResourceHolder16__ChainBufferTagE
	.globl	__ZTSN8Palmtree4Math4Core8Internal14ResourceHolder9__RootTagE
	.section	.rdata$_ZTSN8Palmtree4Math4Core8Internal14ResourceHolder9__RootTagE,"dr"
	.linkonce same_size
	.align 32
__ZTSN8Palmtree4Math4Core8Internal14ResourceHolder9__RootTagE:
	.ascii "N8Palmtree4Math4Core8Internal14ResourceHolder9__RootTagE\0"
	.globl	__ZTIN8Palmtree4Math4Core8Internal14ResourceHolder16__ChainBufferTagE
	.section	.rdata$_ZTIN8Palmtree4Math4Core8Internal14ResourceHolder16__ChainBufferTagE,"dr"
	.linkonce same_size
	.align 4
__ZTIN8Palmtree4Math4Core8Internal14ResourceHolder16__ChainBufferTagE:
	.long	__ZTVN10__cxxabiv117__class_type_infoE+8
	.long	__ZTSN8Palmtree4Math4Core8Internal14ResourceHolder16__ChainBufferTagE
	.globl	__ZTSN8Palmtree4Math4Core8Internal14ResourceHolder16__ChainBufferTagE
	.section	.rdata$_ZTSN8Palmtree4Math4Core8Internal14ResourceHolder16__ChainBufferTagE,"dr"
	.linkonce same_size
	.align 32
__ZTSN8Palmtree4Math4Core8Internal14ResourceHolder16__ChainBufferTagE:
	.ascii "N8Palmtree4Math4Core8Internal14ResourceHolder16__ChainBufferTagE\0"
	.globl	__ZTIN8Palmtree4Math4Core8Internal18BadBufferExceptionE
	.section	.rdata$_ZTIN8Palmtree4Math4Core8Internal18BadBufferExceptionE,"dr"
	.linkonce same_size
	.align 4
__ZTIN8Palmtree4Math4Core8Internal18BadBufferExceptionE:
	.long	__ZTVN10__cxxabiv120__si_class_type_infoE+8
	.long	__ZTSN8Palmtree4Math4Core8Internal18BadBufferExceptionE
	.long	__ZTIN8Palmtree4Math4Core8Internal9ExceptionE
	.globl	__ZTSN8Palmtree4Math4Core8Internal18BadBufferExceptionE
	.section	.rdata$_ZTSN8Palmtree4Math4Core8Internal18BadBufferExceptionE,"dr"
	.linkonce same_size
	.align 32
__ZTSN8Palmtree4Math4Core8Internal18BadBufferExceptionE:
	.ascii "N8Palmtree4Math4Core8Internal18BadBufferExceptionE\0"
	.globl	__ZTIN8Palmtree4Math4Core8Internal22InternalErrorExceptionE
	.section	.rdata$_ZTIN8Palmtree4Math4Core8Internal22InternalErrorExceptionE,"dr"
	.linkonce same_size
	.align 4
__ZTIN8Palmtree4Math4Core8Internal22InternalErrorExceptionE:
	.long	__ZTVN10__cxxabiv120__si_class_type_infoE+8
	.long	__ZTSN8Palmtree4Math4Core8Internal22InternalErrorExceptionE
	.long	__ZTIN8Palmtree4Math4Core8Internal9ExceptionE
	.globl	__ZTSN8Palmtree4Math4Core8Internal22InternalErrorExceptionE
	.section	.rdata$_ZTSN8Palmtree4Math4Core8Internal22InternalErrorExceptionE,"dr"
	.linkonce same_size
	.align 32
__ZTSN8Palmtree4Math4Core8Internal22InternalErrorExceptionE:
	.ascii "N8Palmtree4Math4Core8Internal22InternalErrorExceptionE\0"
	.globl	__ZTIN8Palmtree4Math4Core8Internal24NotEnoughMemoryExceptionE
	.section	.rdata$_ZTIN8Palmtree4Math4Core8Internal24NotEnoughMemoryExceptionE,"dr"
	.linkonce same_size
	.align 4
__ZTIN8Palmtree4Math4Core8Internal24NotEnoughMemoryExceptionE:
	.long	__ZTVN10__cxxabiv120__si_class_type_infoE+8
	.long	__ZTSN8Palmtree4Math4Core8Internal24NotEnoughMemoryExceptionE
	.long	__ZTIN8Palmtree4Math4Core8Internal9ExceptionE
	.globl	__ZTSN8Palmtree4Math4Core8Internal24NotEnoughMemoryExceptionE
	.section	.rdata$_ZTSN8Palmtree4Math4Core8Internal24NotEnoughMemoryExceptionE,"dr"
	.linkonce same_size
	.align 32
__ZTSN8Palmtree4Math4Core8Internal24NotEnoughMemoryExceptionE:
	.ascii "N8Palmtree4Math4Core8Internal24NotEnoughMemoryExceptionE\0"
	.globl	__ZTIN8Palmtree4Math4Core8Internal21ArgumentNullExceptionE
	.section	.rdata$_ZTIN8Palmtree4Math4Core8Internal21ArgumentNullExceptionE,"dr"
	.linkonce same_size
	.align 4
__ZTIN8Palmtree4Math4Core8Internal21ArgumentNullExceptionE:
	.long	__ZTVN10__cxxabiv120__si_class_type_infoE+8
	.long	__ZTSN8Palmtree4Math4Core8Internal21ArgumentNullExceptionE
	.long	__ZTIN8Palmtree4Math4Core8Internal9ExceptionE
	.globl	__ZTSN8Palmtree4Math4Core8Internal21ArgumentNullExceptionE
	.section	.rdata$_ZTSN8Palmtree4Math4Core8Internal21ArgumentNullExceptionE,"dr"
	.linkonce same_size
	.align 32
__ZTSN8Palmtree4Math4Core8Internal21ArgumentNullExceptionE:
	.ascii "N8Palmtree4Math4Core8Internal21ArgumentNullExceptionE\0"
	.globl	__ZTIN8Palmtree4Math4Core8Internal17ArgumentExceptionE
	.section	.rdata$_ZTIN8Palmtree4Math4Core8Internal17ArgumentExceptionE,"dr"
	.linkonce same_size
	.align 4
__ZTIN8Palmtree4Math4Core8Internal17ArgumentExceptionE:
	.long	__ZTVN10__cxxabiv120__si_class_type_infoE+8
	.long	__ZTSN8Palmtree4Math4Core8Internal17ArgumentExceptionE
	.long	__ZTIN8Palmtree4Math4Core8Internal9ExceptionE
	.globl	__ZTSN8Palmtree4Math4Core8Internal17ArgumentExceptionE
	.section	.rdata$_ZTSN8Palmtree4Math4Core8Internal17ArgumentExceptionE,"dr"
	.linkonce same_size
	.align 32
__ZTSN8Palmtree4Math4Core8Internal17ArgumentExceptionE:
	.ascii "N8Palmtree4Math4Core8Internal17ArgumentExceptionE\0"
	.globl	__ZTIN8Palmtree4Math4Core8Internal9ExceptionE
	.section	.rdata$_ZTIN8Palmtree4Math4Core8Internal9ExceptionE,"dr"
	.linkonce same_size
	.align 4
__ZTIN8Palmtree4Math4Core8Internal9ExceptionE:
	.long	__ZTVN10__cxxabiv121__vmi_class_type_infoE+8
	.long	__ZTSN8Palmtree4Math4Core8Internal9ExceptionE
	.long	0
	.long	1
	.long	__ZTISt9exception
	.long	0
	.globl	__ZTSN8Palmtree4Math4Core8Internal9ExceptionE
	.section	.rdata$_ZTSN8Palmtree4Math4Core8Internal9ExceptionE,"dr"
	.linkonce same_size
	.align 32
__ZTSN8Palmtree4Math4Core8Internal9ExceptionE:
	.ascii "N8Palmtree4Math4Core8Internal9ExceptionE\0"
	.globl	__ZTISt9exception
	.section	.rdata$_ZTISt9exception,"dr"
	.linkonce same_size
	.align 4
__ZTISt9exception:
	.long	__ZTVN10__cxxabiv117__class_type_infoE+8
	.long	__ZTSSt9exception
	.globl	__ZTSSt9exception
	.section	.rdata$_ZTSSt9exception,"dr"
	.linkonce same_size
	.align 4
__ZTSSt9exception:
	.ascii "St9exception\0"
	.text
Letext0:
	.file 8 "C:/GNU/MINGW64/i686-8.1.0-win32-dwarf-rt_v6-rev0/mingw32/i686-w64-mingw32/include/crtdefs.h"
	.file 9 "C:/GNU/MINGW64/i686-8.1.0-win32-dwarf-rt_v6-rev0/mingw32/i686-w64-mingw32/include/excpt.h"
	.file 10 "C:/GNU/MINGW64/i686-8.1.0-win32-dwarf-rt_v6-rev0/mingw32/i686-w64-mingw32/include/minwindef.h"
	.file 11 "C:/GNU/MINGW64/i686-8.1.0-win32-dwarf-rt_v6-rev0/mingw32/i686-w64-mingw32/include/ctype.h"
	.file 12 "C:/GNU/MINGW64/i686-8.1.0-win32-dwarf-rt_v6-rev0/mingw32/i686-w64-mingw32/include/basetsd.h"
	.file 13 "C:/GNU/MINGW64/i686-8.1.0-win32-dwarf-rt_v6-rev0/mingw32/i686-w64-mingw32/include/winnt.h"
	.file 14 "C:/GNU/MINGW64/i686-8.1.0-win32-dwarf-rt_v6-rev0/mingw32/i686-w64-mingw32/include/guiddef.h"
	.file 15 "C:/GNU/MINGW64/i686-8.1.0-win32-dwarf-rt_v6-rev0/mingw32/i686-w64-mingw32/include/minwinbase.h"
	.file 16 "C:/GNU/MINGW64/i686-8.1.0-win32-dwarf-rt_v6-rev0/mingw32/i686-w64-mingw32/include/rpcdce.h"
	.file 17 "C:/GNU/MINGW64/i686-8.1.0-win32-dwarf-rt_v6-rev0/mingw32/lib/gcc/i686-w64-mingw32/8.1.0/include/c++/cstdlib"
	.file 18 "C:/GNU/MINGW64/i686-8.1.0-win32-dwarf-rt_v6-rev0/mingw32/lib/gcc/i686-w64-mingw32/8.1.0/include/c++/bits/std_abs.h"
	.file 19 "C:/GNU/MINGW64/i686-8.1.0-win32-dwarf-rt_v6-rev0/mingw32/lib/gcc/i686-w64-mingw32/8.1.0/include/c++/bits/exception_ptr.h"
	.file 20 "C:/GNU/MINGW64/i686-8.1.0-win32-dwarf-rt_v6-rev0/mingw32/lib/gcc/i686-w64-mingw32/8.1.0/include/c++/new"
	.file 21 "C:/GNU/MINGW64/i686-8.1.0-win32-dwarf-rt_v6-rev0/mingw32/lib/gcc/i686-w64-mingw32/8.1.0/include/c++/i686-w64-mingw32/bits/c++config.h"
	.file 22 "C:/GNU/MINGW64/i686-8.1.0-win32-dwarf-rt_v6-rev0/mingw32/lib/gcc/i686-w64-mingw32/8.1.0/include/c++/type_traits"
	.file 23 "C:/GNU/MINGW64/i686-8.1.0-win32-dwarf-rt_v6-rev0/mingw32/i686-w64-mingw32/include/stdlib.h"
	.file 24 "C:/GNU/MINGW64/i686-8.1.0-win32-dwarf-rt_v6-rev0/mingw32/i686-w64-mingw32/include/malloc.h"
	.file 25 "C:/GNU/MINGW64/i686-8.1.0-win32-dwarf-rt_v6-rev0/mingw32/lib/gcc/i686-w64-mingw32/8.1.0/include/c++/stdlib.h"
	.file 26 "C:/GNU/MINGW64/i686-8.1.0-win32-dwarf-rt_v6-rev0/mingw32/i686-w64-mingw32/include/wtypesbase.h"
	.file 27 "C:/GNU/MINGW64/i686-8.1.0-win32-dwarf-rt_v6-rev0/mingw32/i686-w64-mingw32/include/unknwnbase.h"
	.file 28 "C:/GNU/MINGW64/i686-8.1.0-win32-dwarf-rt_v6-rev0/mingw32/i686-w64-mingw32/include/objidlbase.h"
	.file 29 "C:/GNU/MINGW64/i686-8.1.0-win32-dwarf-rt_v6-rev0/mingw32/i686-w64-mingw32/include/cguid.h"
	.file 30 "C:/GNU/MINGW64/i686-8.1.0-win32-dwarf-rt_v6-rev0/mingw32/i686-w64-mingw32/include/wtypes.h"
	.file 31 "C:/GNU/MINGW64/i686-8.1.0-win32-dwarf-rt_v6-rev0/mingw32/i686-w64-mingw32/include/objidl.h"
	.file 32 "C:/GNU/MINGW64/i686-8.1.0-win32-dwarf-rt_v6-rev0/mingw32/i686-w64-mingw32/include/oleidl.h"
	.file 33 "C:/GNU/MINGW64/i686-8.1.0-win32-dwarf-rt_v6-rev0/mingw32/i686-w64-mingw32/include/servprov.h"
	.file 34 "C:/GNU/MINGW64/i686-8.1.0-win32-dwarf-rt_v6-rev0/mingw32/i686-w64-mingw32/include/oaidl.h"
	.file 35 "C:/GNU/MINGW64/i686-8.1.0-win32-dwarf-rt_v6-rev0/mingw32/i686-w64-mingw32/include/msxml.h"
	.file 36 "C:/GNU/MINGW64/i686-8.1.0-win32-dwarf-rt_v6-rev0/mingw32/i686-w64-mingw32/include/urlmon.h"
	.file 37 "C:/GNU/MINGW64/i686-8.1.0-win32-dwarf-rt_v6-rev0/mingw32/i686-w64-mingw32/include/propidl.h"
	.file 38 "C:/GNU/MINGW64/i686-8.1.0-win32-dwarf-rt_v6-rev0/mingw32/i686-w64-mingw32/include/oleauto.h"
	.file 39 "C:/GNU/MINGW64/i686-8.1.0-win32-dwarf-rt_v6-rev0/mingw32/i686-w64-mingw32/include/winioctl.h"
	.file 40 "C:/GNU/MINGW64/i686-8.1.0-win32-dwarf-rt_v6-rev0/mingw32/i686-w64-mingw32/include/winsmcrd.h"
	.file 41 "C:/GNU/MINGW64/i686-8.1.0-win32-dwarf-rt_v6-rev0/mingw32/i686-w64-mingw32/include/winscard.h"
	.file 42 "C:/GNU/MINGW64/i686-8.1.0-win32-dwarf-rt_v6-rev0/mingw32/i686-w64-mingw32/include/commdlg.h"
	.file 43 "C:/GNU/MINGW64/i686-8.1.0-win32-dwarf-rt_v6-rev0/mingw32/i686-w64-mingw32/include/wchar.h"
	.file 44 "C:/GNU/MINGW64/i686-8.1.0-win32-dwarf-rt_v6-rev0/mingw32/i686-w64-mingw32/include/stdint.h"
	.file 45 "../pmc.h"
	.file 46 "<built-in>"
	.file 47 "../pmc_uint.h"
	.file 48 "../pmc_cpuid.h"
	.file 49 "../pmc_uint_internal.h"
	.file 50 "../pmc_internal.h"
	.file 51 "../pmc_resourceholder_uint.h"
	.file 52 "C:/GNU/MINGW64/i686-8.1.0-win32-dwarf-rt_v6-rev0/mingw32/i686-w64-mingw32/include/heapapi.h"
	.file 53 "C:/GNU/MINGW64/i686-8.1.0-win32-dwarf-rt_v6-rev0/mingw32/i686-w64-mingw32/include/synchapi.h"
	.file 54 "C:/GNU/MINGW64/i686-8.1.0-win32-dwarf-rt_v6-rev0/mingw32/i686-w64-mingw32/include/errhandlingapi.h"
	.file 55 "C:/GNU/MINGW64/i686-8.1.0-win32-dwarf-rt_v6-rev0/mingw32/i686-w64-mingw32/include/sysinfoapi.h"