	.file	"pmc_tostring.cpp"
	.text
Ltext0:
	.section	.text$_ZNSt9exceptionC2Ev,"x"
	.linkonce discard
	.align 2
	.globl	__ZNSt9exceptionC2Ev
	.def	__ZNSt9exceptionC2Ev;	.scl	2;	.type	32;	.endef
__ZNSt9exceptionC2Ev:
LFB734:
	.file 1 "C:/GNU/MINGW64/i686-8.1.0-win32-dwarf-rt_v6-rev0/mingw32/lib/gcc/i686-w64-mingw32/8.1.0/include/c++/bits/exception.h"
	.loc 1 63 5
	.cfi_startproc
	pushl	%ebp
	.cfi_def_cfa_offset 8
	.cfi_offset 5, -8
	movl	%esp, %ebp
	.cfi_def_cfa_register 5
	subl	$4, %esp
	movl	%ecx, -4(%ebp)
LBB12:
	.loc 1 63 26
	movl	$__ZTVSt9exception+8, %edx
	movl	-4(%ebp), %eax
	movl	%edx, (%eax)
LBE12:
	.loc 1 63 28
	nop
	leave
	.cfi_restore 5
	.cfi_def_cfa 4, 4
	ret
	.cfi_endproc
LFE734:
	.section	.text$_ZN8Palmtree4Math4Core8Internal9ExceptionC2EiPKw,"x"
	.linkonce discard
	.align 2
	.globl	__ZN8Palmtree4Math4Core8Internal9ExceptionC2EiPKw
	.def	__ZN8Palmtree4Math4Core8Internal9ExceptionC2EiPKw;	.scl	2;	.type	32;	.endef
__ZN8Palmtree4Math4Core8Internal9ExceptionC2EiPKw:
LFB803:
	.file 2 "../pmc_exception.h"
	.loc 2 47 9
	.cfi_startproc
	pushl	%ebp
	.cfi_def_cfa_offset 8
	.cfi_offset 5, -8
	movl	%esp, %ebp
	.cfi_def_cfa_register 5
	subl	$24, %esp
	movl	%ecx, -12(%ebp)
LBB13:
	.loc 2 48 9
	movl	-12(%ebp), %eax
	movl	%eax, %ecx
	call	__ZNSt9exceptionC2Ev
	movl	$__ZTVN8Palmtree4Math4Core8Internal9ExceptionE+8, %edx
	movl	-12(%ebp), %eax
	movl	%edx, (%eax)
	.loc 2 49 19
	movl	-12(%ebp), %eax
	movl	8(%ebp), %edx
	movl	%edx, 4(%eax)
	.loc 2 50 22
	movl	-12(%ebp), %eax
	movl	12(%ebp), %edx
	movl	%edx, 8(%eax)
	.loc 2 51 19
	movl	-12(%ebp), %eax
	movl	$0, 12(%eax)
LBE13:
	.loc 2 52 9
	nop
	leave
	.cfi_restore 5
	.cfi_def_cfa 4, 4
	ret	$8
	.cfi_endproc
LFE803:
	.section	.text$_ZN8Palmtree4Math4Core8Internal9ExceptionC2EiPKwS5_,"x"
	.linkonce discard
	.align 2
	.globl	__ZN8Palmtree4Math4Core8Internal9ExceptionC2EiPKwS5_
	.def	__ZN8Palmtree4Math4Core8Internal9ExceptionC2EiPKwS5_;	.scl	2;	.type	32;	.endef
__ZN8Palmtree4Math4Core8Internal9ExceptionC2EiPKwS5_:
LFB806:
	.loc 2 54 9
	.cfi_startproc
	pushl	%ebp
	.cfi_def_cfa_offset 8
	.cfi_offset 5, -8
	movl	%esp, %ebp
	.cfi_def_cfa_register 5
	subl	$24, %esp
	movl	%ecx, -12(%ebp)
LBB14:
	.loc 2 55 9
	movl	-12(%ebp), %eax
	movl	%eax, %ecx
	call	__ZNSt9exceptionC2Ev
	movl	$__ZTVN8Palmtree4Math4Core8Internal9ExceptionE+8, %edx
	movl	-12(%ebp), %eax
	movl	%edx, (%eax)
	.loc 2 56 19
	movl	-12(%ebp), %eax
	movl	8(%ebp), %edx
	movl	%edx, 4(%eax)
	.loc 2 57 22
	movl	-12(%ebp), %eax
	movl	12(%ebp), %edx
	movl	%edx, 8(%eax)
	.loc 2 58 19
	movl	-12(%ebp), %eax
	movl	16(%ebp), %edx
	movl	%edx, 12(%eax)
LBE14:
	.loc 2 59 9
	nop
	leave
	.cfi_restore 5
	.cfi_def_cfa 4, 4
	ret	$12
	.cfi_endproc
LFE806:
	.section	.text$_ZN8Palmtree4Math4Core8Internal9ExceptionD2Ev,"x"
	.linkonce discard
	.align 2
	.globl	__ZN8Palmtree4Math4Core8Internal9ExceptionD2Ev
	.def	__ZN8Palmtree4Math4Core8Internal9ExceptionD2Ev;	.scl	2;	.type	32;	.endef
__ZN8Palmtree4Math4Core8Internal9ExceptionD2Ev:
LFB812:
	.loc 2 69 17
	.cfi_startproc
	pushl	%ebp
	.cfi_def_cfa_offset 8
	.cfi_offset 5, -8
	movl	%esp, %ebp
	.cfi_def_cfa_register 5
	subl	$24, %esp
	movl	%ecx, -12(%ebp)
LBB15:
	.loc 2 70 9
	movl	$__ZTVN8Palmtree4Math4Core8Internal9ExceptionE+8, %edx
	movl	-12(%ebp), %eax
	movl	%edx, (%eax)
	movl	-12(%ebp), %eax
	movl	%eax, %ecx
	call	__ZNSt9exceptionD2Ev
LBE15:
	.loc 2 71 9
	nop
	leave
	.cfi_restore 5
	.cfi_def_cfa 4, 4
	ret
	.cfi_endproc
LFE812:
	.section	.text$_ZN8Palmtree4Math4Core8Internal9ExceptionD1Ev,"x"
	.linkonce discard
	.align 2
	.globl	__ZN8Palmtree4Math4Core8Internal9ExceptionD1Ev
	.def	__ZN8Palmtree4Math4Core8Internal9ExceptionD1Ev;	.scl	2;	.type	32;	.endef
__ZN8Palmtree4Math4Core8Internal9ExceptionD1Ev:
LFB813:
	.loc 2 69 17
	.cfi_startproc
	pushl	%ebp
	.cfi_def_cfa_offset 8
	.cfi_offset 5, -8
	movl	%esp, %ebp
	.cfi_def_cfa_register 5
	subl	$24, %esp
	movl	%ecx, -12(%ebp)
LBB16:
	.loc 2 70 9
	movl	$__ZTVN8Palmtree4Math4Core8Internal9ExceptionE+8, %edx
	movl	-12(%ebp), %eax
	movl	%edx, (%eax)
	movl	-12(%ebp), %eax
	movl	%eax, %ecx
	call	__ZNSt9exceptionD2Ev
LBE16:
	.loc 2 71 9
	nop
	leave
	.cfi_restore 5
	.cfi_def_cfa 4, 4
	ret
	.cfi_endproc
LFE813:
	.section	.text$_ZN8Palmtree4Math4Core8Internal9ExceptionD0Ev,"x"
	.linkonce discard
	.align 2
	.globl	__ZN8Palmtree4Math4Core8Internal9ExceptionD0Ev
	.def	__ZN8Palmtree4Math4Core8Internal9ExceptionD0Ev;	.scl	2;	.type	32;	.endef
__ZN8Palmtree4Math4Core8Internal9ExceptionD0Ev:
LFB814:
	.loc 2 69 17
	.cfi_startproc
	pushl	%ebp
	.cfi_def_cfa_offset 8
	.cfi_offset 5, -8
	movl	%esp, %ebp
	.cfi_def_cfa_register 5
	subl	$40, %esp
	movl	%ecx, -12(%ebp)
	.loc 2 71 9
	movl	-12(%ebp), %eax
	movl	%eax, %ecx
	call	__ZN8Palmtree4Math4Core8Internal9ExceptionD1Ev
	movl	$16, 4(%esp)
	movl	-12(%ebp), %eax
	movl	%eax, (%esp)
	call	__ZdlPvj
	leave
	.cfi_restore 5
	.cfi_def_cfa 4, 4
	ret
	.cfi_endproc
LFE814:
	.section	.text$_ZN8Palmtree4Math4Core8Internal21ArgumentNullExceptionC1EPKwS5_,"x"
	.linkonce discard
	.align 2
	.globl	__ZN8Palmtree4Math4Core8Internal21ArgumentNullExceptionC1EPKwS5_
	.def	__ZN8Palmtree4Math4Core8Internal21ArgumentNullExceptionC1EPKwS5_;	.scl	2;	.type	32;	.endef
__ZN8Palmtree4Math4Core8Internal21ArgumentNullExceptionC1EPKwS5_:
LFB830:
	.loc 2 113 9
	.cfi_startproc
	pushl	%ebp
	.cfi_def_cfa_offset 8
	.cfi_offset 5, -8
	movl	%esp, %ebp
	.cfi_def_cfa_register 5
	subl	$40, %esp
	movl	%ecx, -12(%ebp)
LBB17:
	.loc 2 114 50
	movl	-12(%ebp), %eax
	movl	12(%ebp), %edx
	movl	%edx, 8(%esp)
	movl	8(%ebp), %edx
	movl	%edx, 4(%esp)
	movl	$-2, (%esp)
	movl	%eax, %ecx
	call	__ZN8Palmtree4Math4Core8Internal9ExceptionC2EiPKwS5_
	subl	$12, %esp
	movl	$__ZTVN8Palmtree4Math4Core8Internal21ArgumentNullExceptionE+8, %edx
	movl	-12(%ebp), %eax
	movl	%edx, (%eax)
LBE17:
	.loc 2 116 9
	nop
	leave
	.cfi_restore 5
	.cfi_def_cfa 4, 4
	ret	$8
	.cfi_endproc
LFE830:
	.section	.text$_ZN8Palmtree4Math4Core8Internal21ArgumentNullExceptionD1Ev,"x"
	.linkonce discard
	.align 2
	.globl	__ZN8Palmtree4Math4Core8Internal21ArgumentNullExceptionD1Ev
	.def	__ZN8Palmtree4Math4Core8Internal21ArgumentNullExceptionD1Ev;	.scl	2;	.type	32;	.endef
__ZN8Palmtree4Math4Core8Internal21ArgumentNullExceptionD1Ev:
LFB836:
	.loc 2 123 17
	.cfi_startproc
	pushl	%ebp
	.cfi_def_cfa_offset 8
	.cfi_offset 5, -8
	movl	%esp, %ebp
	.cfi_def_cfa_register 5
	subl	$24, %esp
	movl	%ecx, -12(%ebp)
LBB18:
	.loc 2 124 9
	movl	$__ZTVN8Palmtree4Math4Core8Internal21ArgumentNullExceptionE+8, %edx
	movl	-12(%ebp), %eax
	movl	%edx, (%eax)
	movl	-12(%ebp), %eax
	movl	%eax, %ecx
	call	__ZN8Palmtree4Math4Core8Internal9ExceptionD2Ev
LBE18:
	.loc 2 125 9
	nop
	leave
	.cfi_restore 5
	.cfi_def_cfa 4, 4
	ret
	.cfi_endproc
LFE836:
	.section	.text$_ZN8Palmtree4Math4Core8Internal21ArgumentNullExceptionD0Ev,"x"
	.linkonce discard
	.align 2
	.globl	__ZN8Palmtree4Math4Core8Internal21ArgumentNullExceptionD0Ev
	.def	__ZN8Palmtree4Math4Core8Internal21ArgumentNullExceptionD0Ev;	.scl	2;	.type	32;	.endef
__ZN8Palmtree4Math4Core8Internal21ArgumentNullExceptionD0Ev:
LFB837:
	.loc 2 123 17
	.cfi_startproc
	pushl	%ebp
	.cfi_def_cfa_offset 8
	.cfi_offset 5, -8
	movl	%esp, %ebp
	.cfi_def_cfa_register 5
	subl	$40, %esp
	movl	%ecx, -12(%ebp)
	.loc 2 125 9
	movl	-12(%ebp), %eax
	movl	%eax, %ecx
	call	__ZN8Palmtree4Math4Core8Internal21ArgumentNullExceptionD1Ev
	movl	$16, 4(%esp)
	movl	-12(%ebp), %eax
	movl	%eax, (%esp)
	call	__ZdlPvj
	leave
	.cfi_restore 5
	.cfi_def_cfa 4, 4
	ret
	.cfi_endproc
LFE837:
	.section	.text$_ZN8Palmtree4Math4Core8Internal15FormatExceptionC1EPKw,"x"
	.linkonce discard
	.align 2
	.globl	__ZN8Palmtree4Math4Core8Internal15FormatExceptionC1EPKw
	.def	__ZN8Palmtree4Math4Core8Internal15FormatExceptionC1EPKw;	.scl	2;	.type	32;	.endef
__ZN8Palmtree4Math4Core8Internal15FormatExceptionC1EPKw:
LFB880:
	.loc 2 208 9
	.cfi_startproc
	pushl	%ebp
	.cfi_def_cfa_offset 8
	.cfi_offset 5, -8
	movl	%esp, %ebp
	.cfi_def_cfa_register 5
	subl	$40, %esp
	movl	%ecx, -12(%ebp)
LBB19:
	.loc 2 209 38
	movl	-12(%ebp), %eax
	movl	8(%ebp), %edx
	movl	%edx, 4(%esp)
	movl	$-7, (%esp)
	movl	%eax, %ecx
	call	__ZN8Palmtree4Math4Core8Internal9ExceptionC2EiPKw
	subl	$8, %esp
	movl	$__ZTVN8Palmtree4Math4Core8Internal15FormatExceptionE+8, %edx
	movl	-12(%ebp), %eax
	movl	%edx, (%eax)
LBE19:
	.loc 2 211 9
	nop
	leave
	.cfi_restore 5
	.cfi_def_cfa 4, 4
	ret	$4
	.cfi_endproc
LFE880:
	.section	.text$_ZN8Palmtree4Math4Core8Internal15FormatExceptionD1Ev,"x"
	.linkonce discard
	.align 2
	.globl	__ZN8Palmtree4Math4Core8Internal15FormatExceptionD1Ev
	.def	__ZN8Palmtree4Math4Core8Internal15FormatExceptionD1Ev;	.scl	2;	.type	32;	.endef
__ZN8Palmtree4Math4Core8Internal15FormatExceptionD1Ev:
LFB886:
	.loc 2 218 17
	.cfi_startproc
	pushl	%ebp
	.cfi_def_cfa_offset 8
	.cfi_offset 5, -8
	movl	%esp, %ebp
	.cfi_def_cfa_register 5
	subl	$24, %esp
	movl	%ecx, -12(%ebp)
LBB20:
	.loc 2 219 9
	movl	$__ZTVN8Palmtree4Math4Core8Internal15FormatExceptionE+8, %edx
	movl	-12(%ebp), %eax
	movl	%edx, (%eax)
	movl	-12(%ebp), %eax
	movl	%eax, %ecx
	call	__ZN8Palmtree4Math4Core8Internal9ExceptionD2Ev
LBE20:
	.loc 2 220 9
	nop
	leave
	.cfi_restore 5
	.cfi_def_cfa 4, 4
	ret
	.cfi_endproc
LFE886:
	.section	.text$_ZN8Palmtree4Math4Core8Internal15FormatExceptionD0Ev,"x"
	.linkonce discard
	.align 2
	.globl	__ZN8Palmtree4Math4Core8Internal15FormatExceptionD0Ev
	.def	__ZN8Palmtree4Math4Core8Internal15FormatExceptionD0Ev;	.scl	2;	.type	32;	.endef
__ZN8Palmtree4Math4Core8Internal15FormatExceptionD0Ev:
LFB887:
	.loc 2 218 17
	.cfi_startproc
	pushl	%ebp
	.cfi_def_cfa_offset 8
	.cfi_offset 5, -8
	movl	%esp, %ebp
	.cfi_def_cfa_register 5
	subl	$40, %esp
	movl	%ecx, -12(%ebp)
	.loc 2 220 9
	movl	-12(%ebp), %eax
	movl	%eax, %ecx
	call	__ZN8Palmtree4Math4Core8Internal15FormatExceptionD1Ev
	movl	$16, 4(%esp)
	movl	-12(%ebp), %eax
	movl	%eax, (%esp)
	call	__ZdlPvj
	leave
	.cfi_restore 5
	.cfi_def_cfa 4, 4
	ret
	.cfi_endproc
LFE887:
	.section	.text$_ZN8Palmtree4Math4Core8Internal27InsufficientBufferExceptionC1EPKw,"x"
	.linkonce discard
	.align 2
	.globl	__ZN8Palmtree4Math4Core8Internal27InsufficientBufferExceptionC1EPKw
	.def	__ZN8Palmtree4Math4Core8Internal27InsufficientBufferExceptionC1EPKw;	.scl	2;	.type	32;	.endef
__ZN8Palmtree4Math4Core8Internal27InsufficientBufferExceptionC1EPKw:
LFB890:
	.loc 2 227 9
	.cfi_startproc
	pushl	%ebp
	.cfi_def_cfa_offset 8
	.cfi_offset 5, -8
	movl	%esp, %ebp
	.cfi_def_cfa_register 5
	subl	$40, %esp
	movl	%ecx, -12(%ebp)
LBB21:
	.loc 2 228 38
	movl	-12(%ebp), %eax
	movl	8(%ebp), %edx
	movl	%edx, 4(%esp)
	movl	$-8, (%esp)
	movl	%eax, %ecx
	call	__ZN8Palmtree4Math4Core8Internal9ExceptionC2EiPKw
	subl	$8, %esp
	movl	$__ZTVN8Palmtree4Math4Core8Internal27InsufficientBufferExceptionE+8, %edx
	movl	-12(%ebp), %eax
	movl	%edx, (%eax)
LBE21:
	.loc 2 230 9
	nop
	leave
	.cfi_restore 5
	.cfi_def_cfa 4, 4
	ret	$4
	.cfi_endproc
LFE890:
	.section	.text$_ZN8Palmtree4Math4Core8Internal27InsufficientBufferExceptionD1Ev,"x"
	.linkonce discard
	.align 2
	.globl	__ZN8Palmtree4Math4Core8Internal27InsufficientBufferExceptionD1Ev
	.def	__ZN8Palmtree4Math4Core8Internal27InsufficientBufferExceptionD1Ev;	.scl	2;	.type	32;	.endef
__ZN8Palmtree4Math4Core8Internal27InsufficientBufferExceptionD1Ev:
LFB896:
	.loc 2 237 17
	.cfi_startproc
	pushl	%ebp
	.cfi_def_cfa_offset 8
	.cfi_offset 5, -8
	movl	%esp, %ebp
	.cfi_def_cfa_register 5
	subl	$24, %esp
	movl	%ecx, -12(%ebp)
LBB22:
	.loc 2 238 9
	movl	$__ZTVN8Palmtree4Math4Core8Internal27InsufficientBufferExceptionE+8, %edx
	movl	-12(%ebp), %eax
	movl	%edx, (%eax)
	movl	-12(%ebp), %eax
	movl	%eax, %ecx
	call	__ZN8Palmtree4Math4Core8Internal9ExceptionD2Ev
LBE22:
	.loc 2 239 9
	nop
	leave
	.cfi_restore 5
	.cfi_def_cfa 4, 4
	ret
	.cfi_endproc
LFE896:
	.section	.text$_ZN8Palmtree4Math4Core8Internal27InsufficientBufferExceptionD0Ev,"x"
	.linkonce discard
	.align 2
	.globl	__ZN8Palmtree4Math4Core8Internal27InsufficientBufferExceptionD0Ev
	.def	__ZN8Palmtree4Math4Core8Internal27InsufficientBufferExceptionD0Ev;	.scl	2;	.type	32;	.endef
__ZN8Palmtree4Math4Core8Internal27InsufficientBufferExceptionD0Ev:
LFB897:
	.loc 2 237 17
	.cfi_startproc
	pushl	%ebp
	.cfi_def_cfa_offset 8
	.cfi_offset 5, -8
	movl	%esp, %ebp
	.cfi_def_cfa_register 5
	subl	$40, %esp
	movl	%ecx, -12(%ebp)
	.loc 2 239 9
	movl	-12(%ebp), %eax
	movl	%eax, %ecx
	call	__ZN8Palmtree4Math4Core8Internal27InsufficientBufferExceptionD1Ev
	movl	$16, 4(%esp)
	movl	-12(%ebp), %eax
	movl	%eax, (%esp)
	call	__ZdlPvj
	leave
	.cfi_restore 5
	.cfi_def_cfa 4, 4
	ret
	.cfi_endproc
LFE897:
	.section	.text$_ZN8Palmtree4Math4Core8Internal21NotSupportedExceptionC1EPKw,"x"
	.linkonce discard
	.align 2
	.globl	__ZN8Palmtree4Math4Core8Internal21NotSupportedExceptionC1EPKw
	.def	__ZN8Palmtree4Math4Core8Internal21NotSupportedExceptionC1EPKw;	.scl	2;	.type	32;	.endef
__ZN8Palmtree4Math4Core8Internal21NotSupportedExceptionC1EPKw:
LFB910:
	.loc 2 265 9
	.cfi_startproc
	pushl	%ebp
	.cfi_def_cfa_offset 8
	.cfi_offset 5, -8
	movl	%esp, %ebp
	.cfi_def_cfa_register 5
	subl	$40, %esp
	movl	%ecx, -12(%ebp)
LBB23:
	.loc 2 266 39
	movl	-12(%ebp), %eax
	movl	8(%ebp), %edx
	movl	%edx, 4(%esp)
	movl	$-10, (%esp)
	movl	%eax, %ecx
	call	__ZN8Palmtree4Math4Core8Internal9ExceptionC2EiPKw
	subl	$8, %esp
	movl	$__ZTVN8Palmtree4Math4Core8Internal21NotSupportedExceptionE+8, %edx
	movl	-12(%ebp), %eax
	movl	%edx, (%eax)
LBE23:
	.loc 2 268 9
	nop
	leave
	.cfi_restore 5
	.cfi_def_cfa 4, 4
	ret	$4
	.cfi_endproc
LFE910:
	.section	.text$_ZN8Palmtree4Math4Core8Internal21NotSupportedExceptionD1Ev,"x"
	.linkonce discard
	.align 2
	.globl	__ZN8Palmtree4Math4Core8Internal21NotSupportedExceptionD1Ev
	.def	__ZN8Palmtree4Math4Core8Internal21NotSupportedExceptionD1Ev;	.scl	2;	.type	32;	.endef
__ZN8Palmtree4Math4Core8Internal21NotSupportedExceptionD1Ev:
LFB916:
	.loc 2 275 17
	.cfi_startproc
	pushl	%ebp
	.cfi_def_cfa_offset 8
	.cfi_offset 5, -8
	movl	%esp, %ebp
	.cfi_def_cfa_register 5
	subl	$24, %esp
	movl	%ecx, -12(%ebp)
LBB24:
	.loc 2 276 9
	movl	$__ZTVN8Palmtree4Math4Core8Internal21NotSupportedExceptionE+8, %edx
	movl	-12(%ebp), %eax
	movl	%edx, (%eax)
	movl	-12(%ebp), %eax
	movl	%eax, %ecx
	call	__ZN8Palmtree4Math4Core8Internal9ExceptionD2Ev
LBE24:
	.loc 2 277 9
	nop
	leave
	.cfi_restore 5
	.cfi_def_cfa 4, 4
	ret
	.cfi_endproc
LFE916:
	.section	.text$_ZN8Palmtree4Math4Core8Internal21NotSupportedExceptionD0Ev,"x"
	.linkonce discard
	.align 2
	.globl	__ZN8Palmtree4Math4Core8Internal21NotSupportedExceptionD0Ev
	.def	__ZN8Palmtree4Math4Core8Internal21NotSupportedExceptionD0Ev;	.scl	2;	.type	32;	.endef
__ZN8Palmtree4Math4Core8Internal21NotSupportedExceptionD0Ev:
LFB917:
	.loc 2 275 17
	.cfi_startproc
	pushl	%ebp
	.cfi_def_cfa_offset 8
	.cfi_offset 5, -8
	movl	%esp, %ebp
	.cfi_def_cfa_register 5
	subl	$40, %esp
	movl	%ecx, -12(%ebp)
	.loc 2 277 9
	movl	-12(%ebp), %eax
	movl	%eax, %ecx
	call	__ZN8Palmtree4Math4Core8Internal21NotSupportedExceptionD1Ev
	movl	$16, 4(%esp)
	movl	-12(%ebp), %eax
	movl	%eax, (%esp)
	call	__ZdlPvj
	leave
	.cfi_restore 5
	.cfi_def_cfa 4, 4
	ret
	.cfi_endproc
LFE917:
	.section	.text$_ZN8Palmtree4Math4Core8Internal22InternalErrorExceptionC1EPKwS5_,"x"
	.linkonce discard
	.align 2
	.globl	__ZN8Palmtree4Math4Core8Internal22InternalErrorExceptionC1EPKwS5_
	.def	__ZN8Palmtree4Math4Core8Internal22InternalErrorExceptionC1EPKwS5_;	.scl	2;	.type	32;	.endef
__ZN8Palmtree4Math4Core8Internal22InternalErrorExceptionC1EPKwS5_:
LFB920:
	.loc 2 284 9
	.cfi_startproc
	pushl	%ebp
	.cfi_def_cfa_offset 8
	.cfi_offset 5, -8
	movl	%esp, %ebp
	.cfi_def_cfa_register 5
	subl	$40, %esp
	movl	%ecx, -12(%ebp)
LBB25:
	.loc 2 285 46
	movl	-12(%ebp), %eax
	movl	12(%ebp), %edx
	movl	%edx, 8(%esp)
	movl	8(%ebp), %edx
	movl	%edx, 4(%esp)
	movl	$-256, (%esp)
	movl	%eax, %ecx
	call	__ZN8Palmtree4Math4Core8Internal9ExceptionC2EiPKwS5_
	subl	$12, %esp
	movl	$__ZTVN8Palmtree4Math4Core8Internal22InternalErrorExceptionE+8, %edx
	movl	-12(%ebp), %eax
	movl	%edx, (%eax)
LBE25:
	.loc 2 287 9
	nop
	leave
	.cfi_restore 5
	.cfi_def_cfa 4, 4
	ret	$8
	.cfi_endproc
LFE920:
	.section	.text$_ZN8Palmtree4Math4Core8Internal22InternalErrorExceptionD1Ev,"x"
	.linkonce discard
	.align 2
	.globl	__ZN8Palmtree4Math4Core8Internal22InternalErrorExceptionD1Ev
	.def	__ZN8Palmtree4Math4Core8Internal22InternalErrorExceptionD1Ev;	.scl	2;	.type	32;	.endef
__ZN8Palmtree4Math4Core8Internal22InternalErrorExceptionD1Ev:
LFB926:
	.loc 2 294 17
	.cfi_startproc
	pushl	%ebp
	.cfi_def_cfa_offset 8
	.cfi_offset 5, -8
	movl	%esp, %ebp
	.cfi_def_cfa_register 5
	subl	$24, %esp
	movl	%ecx, -12(%ebp)
LBB26:
	.loc 2 295 9
	movl	$__ZTVN8Palmtree4Math4Core8Internal22InternalErrorExceptionE+8, %edx
	movl	-12(%ebp), %eax
	movl	%edx, (%eax)
	movl	-12(%ebp), %eax
	movl	%eax, %ecx
	call	__ZN8Palmtree4Math4Core8Internal9ExceptionD2Ev
LBE26:
	.loc 2 296 9
	nop
	leave
	.cfi_restore 5
	.cfi_def_cfa 4, 4
	ret
	.cfi_endproc
LFE926:
	.section	.text$_ZN8Palmtree4Math4Core8Internal22InternalErrorExceptionD0Ev,"x"
	.linkonce discard
	.align 2
	.globl	__ZN8Palmtree4Math4Core8Internal22InternalErrorExceptionD0Ev
	.def	__ZN8Palmtree4Math4Core8Internal22InternalErrorExceptionD0Ev;	.scl	2;	.type	32;	.endef
__ZN8Palmtree4Math4Core8Internal22InternalErrorExceptionD0Ev:
LFB927:
	.loc 2 294 17
	.cfi_startproc
	pushl	%ebp
	.cfi_def_cfa_offset 8
	.cfi_offset 5, -8
	movl	%esp, %ebp
	.cfi_def_cfa_register 5
	subl	$40, %esp
	movl	%ecx, -12(%ebp)
	.loc 2 296 9
	movl	-12(%ebp), %eax
	movl	%eax, %ecx
	call	__ZN8Palmtree4Math4Core8Internal22InternalErrorExceptionD1Ev
	movl	$16, 4(%esp)
	movl	-12(%ebp), %eax
	movl	%eax, (%esp)
	call	__ZdlPvj
	leave
	.cfi_restore 5
	.cfi_def_cfa 4, 4
	ret
	.cfi_endproc
LFE927:
	.section	.text$_ZN8Palmtree4Math4Core8Internal12StringReaderC2EPKw,"x"
	.linkonce discard
	.align 2
	.globl	__ZN8Palmtree4Math4Core8Internal12StringReaderC2EPKw
	.def	__ZN8Palmtree4Math4Core8Internal12StringReaderC2EPKw;	.scl	2;	.type	32;	.endef
__ZN8Palmtree4Math4Core8Internal12StringReaderC2EPKw:
LFB952:
	.file 3 "../pmc_stringio.h"
	.loc 3 50 9
	.cfi_startproc
	pushl	%ebp
	.cfi_def_cfa_offset 8
	.cfi_offset 5, -8
	movl	%esp, %ebp
	.cfi_def_cfa_register 5
	subl	$4, %esp
	movl	%ecx, -4(%ebp)
LBB27:
	.loc 3 51 9
	movl	$__ZTVN8Palmtree4Math4Core8Internal12StringReaderE+8, %edx
	movl	-4(%ebp), %eax
	movl	%edx, (%eax)
	.loc 3 52 16
	movl	-4(%ebp), %eax
	movl	8(%ebp), %edx
	movl	%edx, 4(%eax)
LBE27:
	.loc 3 53 9
	nop
	leave
	.cfi_restore 5
	.cfi_def_cfa 4, 4
	ret	$4
	.cfi_endproc
LFE952:
	.section	.text$_ZN8Palmtree4Math4Core8Internal12StringReaderC1EPKw,"x"
	.linkonce discard
	.align 2
	.globl	__ZN8Palmtree4Math4Core8Internal12StringReaderC1EPKw
	.def	__ZN8Palmtree4Math4Core8Internal12StringReaderC1EPKw;	.scl	2;	.type	32;	.endef
__ZN8Palmtree4Math4Core8Internal12StringReaderC1EPKw:
LFB953:
	.loc 3 50 9
	.cfi_startproc
	pushl	%ebp
	.cfi_def_cfa_offset 8
	.cfi_offset 5, -8
	movl	%esp, %ebp
	.cfi_def_cfa_register 5
	subl	$4, %esp
	movl	%ecx, -4(%ebp)
LBB28:
	.loc 3 51 9
	movl	$__ZTVN8Palmtree4Math4Core8Internal12StringReaderE+8, %edx
	movl	-4(%ebp), %eax
	movl	%edx, (%eax)
	.loc 3 52 16
	movl	-4(%ebp), %eax
	movl	8(%ebp), %edx
	movl	%edx, 4(%eax)
LBE28:
	.loc 3 53 9
	nop
	leave
	.cfi_restore 5
	.cfi_def_cfa 4, 4
	ret	$4
	.cfi_endproc
LFE953:
	.section	.text$_ZN8Palmtree4Math4Core8Internal12StringReader8ReadCharEv,"x"
	.linkonce discard
	.align 2
	.globl	__ZN8Palmtree4Math4Core8Internal12StringReader8ReadCharEv
	.def	__ZN8Palmtree4Math4Core8Internal12StringReader8ReadCharEv;	.scl	2;	.type	32;	.endef
__ZN8Palmtree4Math4Core8Internal12StringReader8ReadCharEv:
LFB954:
	.loc 3 55 17
	.cfi_startproc
	pushl	%ebp
	.cfi_def_cfa_offset 8
	.cfi_offset 5, -8
	movl	%esp, %ebp
	.cfi_def_cfa_register 5
	subl	$40, %esp
	movl	%ecx, -28(%ebp)
	.loc 3 57 34
	movl	-28(%ebp), %eax
	movl	(%eax), %eax
	movl	(%eax), %eax
	.loc 3 57 33
	movl	-28(%ebp), %edx
	movl	%edx, %ecx
	call	*%eax
LVL0:
	.loc 3 57 34
	movw	%ax, -10(%ebp)
	.loc 3 58 22
	movl	-28(%ebp), %eax
	movl	(%eax), %eax
	addl	$4, %eax
	movl	(%eax), %eax
	.loc 3 58 21
	movl	-28(%ebp), %edx
	movl	%edx, %ecx
	call	*%eax
LVL1:
	.loc 3 59 22
	movzwl	-10(%ebp), %eax
	.loc 3 60 9
	leave
	.cfi_restore 5
	.cfi_def_cfa 4, 4
	ret
	.cfi_endproc
LFE954:
	.section	.text$_ZN8Palmtree4Math4Core8Internal12StringReader8ReadCharEw,"x"
	.linkonce discard
	.align 2
	.globl	__ZN8Palmtree4Math4Core8Internal12StringReader8ReadCharEw
	.def	__ZN8Palmtree4Math4Core8Internal12StringReader8ReadCharEw;	.scl	2;	.type	32;	.endef
__ZN8Palmtree4Math4Core8Internal12StringReader8ReadCharEw:
LFB955:
	.loc 3 62 17
	.cfi_startproc
	pushl	%ebp
	.cfi_def_cfa_offset 8
	.cfi_offset 5, -8
	movl	%esp, %ebp
	.cfi_def_cfa_register 5
	subl	$40, %esp
	movl	%ecx, -28(%ebp)
	movl	8(%ebp), %eax
	movw	%ax, -32(%ebp)
	.loc 3 64 34
	movl	-28(%ebp), %eax
	movl	(%eax), %eax
	movl	(%eax), %eax
	.loc 3 64 33
	movl	-28(%ebp), %edx
	movl	%edx, %ecx
	call	*%eax
LVL2:
	.loc 3 64 34
	movw	%ax, -10(%ebp)
	.loc 3 65 19
	movzwl	-10(%ebp), %eax
	.loc 3 65 13
	testw	%ax, %ax
	jne	L27
	.loc 3 66 37
	movzwl	-32(%ebp), %eax
	jmp	L29
L27:
	.loc 3 67 22
	movl	-28(%ebp), %eax
	movl	(%eax), %eax
	addl	$4, %eax
	movl	(%eax), %eax
	.loc 3 67 21
	movl	-28(%ebp), %edx
	movl	%edx, %ecx
	call	*%eax
LVL3:
	.loc 3 68 22
	movzwl	-10(%ebp), %eax
L29:
	.loc 3 69 9 discriminator 1
	leave
	.cfi_restore 5
	.cfi_def_cfa 4, 4
	ret	$4
	.cfi_endproc
LFE955:
	.section	.text$_ZN8Palmtree4Math4Core8Internal12StringReader8PeekCharEv,"x"
	.linkonce discard
	.align 2
	.globl	__ZN8Palmtree4Math4Core8Internal12StringReader8PeekCharEv
	.def	__ZN8Palmtree4Math4Core8Internal12StringReader8PeekCharEv;	.scl	2;	.type	32;	.endef
__ZN8Palmtree4Math4Core8Internal12StringReader8PeekCharEv:
LFB956:
	.loc 3 71 25
	.cfi_startproc
	pushl	%ebp
	.cfi_def_cfa_offset 8
	.cfi_offset 5, -8
	movl	%esp, %ebp
	.cfi_def_cfa_register 5
	subl	$4, %esp
	movl	%ecx, -4(%ebp)
	.loc 3 73 22
	movl	-4(%ebp), %eax
	movl	4(%eax), %eax
	.loc 3 73 24
	movzwl	(%eax), %eax
	.loc 3 74 9
	leave
	.cfi_restore 5
	.cfi_def_cfa 4, 4
	ret
	.cfi_endproc
LFE956:
	.section .rdata,"dr"
	.align 4
LC0:
	.ascii "p\0m\0c\0_\0s\0t\0r\0i\0n\0g\0i\0o\0.\0h\0;\0S\0t\0r\0i\0n\0g\0R\0e\0a\0d\0e\0r\0:\0:\0P\0r\0o\0g\0r\0e\0s\0s\0;\0"
	.ascii "1\0\0\0"
	.align 2
LC1:
	.ascii "\205Q\350\220\250"
	.ascii "0\351"
	.ascii "0\374"
	.ascii "0L0zv\37uW0~0W0_0\2"
	.ascii "0\0\0"
	.section	.text$_ZN8Palmtree4Math4Core8Internal12StringReader8ProgressEv,"x"
	.linkonce discard
	.align 2
	.globl	__ZN8Palmtree4Math4Core8Internal12StringReader8ProgressEv
	.def	__ZN8Palmtree4Math4Core8Internal12StringReader8ProgressEv;	.scl	2;	.type	32;	.endef
__ZN8Palmtree4Math4Core8Internal12StringReader8ProgressEv:
LFB957:
	.loc 3 76 22
	.cfi_startproc
	pushl	%ebp
	.cfi_def_cfa_offset 8
	.cfi_offset 5, -8
	movl	%esp, %ebp
	.cfi_def_cfa_register 5
	pushl	%ebx
	subl	$36, %esp
	.cfi_offset 3, -12
	movl	%ecx, -12(%ebp)
	.loc 3 78 18
	movl	-12(%ebp), %eax
	movl	4(%eax), %eax
	.loc 3 78 17
	movzwl	(%eax), %eax
	.loc 3 78 13
	testw	%ax, %ax
	jne	L33
	.loc 3 79 132
	movl	$16, (%esp)
	call	___cxa_allocate_exception
	movl	%eax, %ebx
	movl	$LC0, 4(%esp)
	movl	$LC1, (%esp)
	movl	%ebx, %ecx
	call	__ZN8Palmtree4Math4Core8Internal22InternalErrorExceptionC1EPKwS5_
	subl	$8, %esp
	movl	$__ZN8Palmtree4Math4Core8Internal22InternalErrorExceptionD1Ev, 8(%esp)
	movl	$__ZTIN8Palmtree4Math4Core8Internal22InternalErrorExceptionE, 4(%esp)
	movl	%ebx, (%esp)
	call	___cxa_throw
L33:
	.loc 3 80 15
	movl	-12(%ebp), %eax
	movl	4(%eax), %eax
	.loc 3 80 13
	leal	2(%eax), %edx
	movl	-12(%ebp), %eax
	movl	%edx, 4(%eax)
	.loc 3 81 9
	nop
	movl	-4(%ebp), %ebx
	leave
	.cfi_restore 5
	.cfi_restore 3
	.cfi_def_cfa 4, 4
	ret
	.cfi_endproc
LFE957:
	.section	.text$_ZN8Palmtree4Math4Core8Internal12StringReader10StartsWithEPKw,"x"
	.linkonce discard
	.align 2
	.globl	__ZN8Palmtree4Math4Core8Internal12StringReader10StartsWithEPKw
	.def	__ZN8Palmtree4Math4Core8Internal12StringReader10StartsWithEPKw;	.scl	2;	.type	32;	.endef
__ZN8Palmtree4Math4Core8Internal12StringReader10StartsWithEPKw:
LFB958:
	.loc 3 83 21
	.cfi_startproc
	pushl	%ebp
	.cfi_def_cfa_offset 8
	.cfi_offset 5, -8
	movl	%esp, %ebp
	.cfi_def_cfa_register 5
	subl	$40, %esp
	movl	%ecx, -12(%ebp)
	.loc 3 85 31
	movl	-12(%ebp), %eax
	movl	4(%eax), %eax
	movl	8(%ebp), %edx
	movl	%edx, 4(%esp)
	movl	%eax, (%esp)
	call	__ZN8Palmtree4Math4Core8Internal12StringReader10StartsWithEPKwS5_
	.loc 3 86 9
	leave
	.cfi_restore 5
	.cfi_def_cfa 4, 4
	ret	$4
	.cfi_endproc
LFE958:
	.section .rdata,"dr"
	.align 4
LC2:
	.ascii "p\0m\0c\0_\0s\0t\0r\0i\0n\0g\0i\0o\0.\0h\0;\0S\0t\0r\0i\0n\0g\0R\0e\0a\0d\0e\0r\0:\0:\0S\0k\0i\0p\0S\0t\0r\0i\0n\0g\0;\0"
	.ascii "1\0\0\0"
	.section	.text$_ZN8Palmtree4Math4Core8Internal12StringReader10SkipStringEPKw,"x"
	.linkonce discard
	.align 2
	.globl	__ZN8Palmtree4Math4Core8Internal12StringReader10SkipStringEPKw
	.def	__ZN8Palmtree4Math4Core8Internal12StringReader10SkipStringEPKw;	.scl	2;	.type	32;	.endef
__ZN8Palmtree4Math4Core8Internal12StringReader10SkipStringEPKw:
LFB960:
	.loc 3 108 22
	.cfi_startproc
	pushl	%ebp
	.cfi_def_cfa_offset 8
	.cfi_offset 5, -8
	movl	%esp, %ebp
	.cfi_def_cfa_register 5
	pushl	%ebx
	subl	$36, %esp
	.cfi_offset 3, -12
	movl	%ecx, -12(%ebp)
	.loc 3 110 28
	movl	-12(%ebp), %eax
	movl	4(%eax), %eax
	movl	8(%ebp), %edx
	movl	%edx, 4(%esp)
	movl	%eax, (%esp)
	call	__ZN8Palmtree4Math4Core8Internal12StringReader10StartsWithEPKwS5_
	.loc 3 110 17
	testl	%eax, %eax
	sete	%al
	.loc 3 110 13
	testb	%al, %al
	je	L37
	.loc 3 113 134
	movl	$16, (%esp)
	call	___cxa_allocate_exception
	movl	%eax, %ebx
	movl	$LC2, 4(%esp)
	movl	$LC1, (%esp)
	movl	%ebx, %ecx
	call	__ZN8Palmtree4Math4Core8Internal22InternalErrorExceptionC1EPKwS5_
	subl	$8, %esp
	movl	$__ZN8Palmtree4Math4Core8Internal22InternalErrorExceptionD1Ev, 8(%esp)
	movl	$__ZTIN8Palmtree4Math4Core8Internal22InternalErrorExceptionE, 4(%esp)
	movl	%ebx, (%esp)
	call	___cxa_throw
L37:
	.loc 3 115 27
	movl	8(%ebp), %eax
	movl	%eax, (%esp)
	movl	__imp__lstrlenW@4, %eax
	call	*%eax
LVL4:
	subl	$4, %esp
	movl	%eax, %edx
	.loc 3 115 16
	movl	-12(%ebp), %eax
	movl	4(%eax), %eax
	addl	%edx, %edx
	addl	%eax, %edx
	movl	-12(%ebp), %eax
	movl	%edx, 4(%eax)
	.loc 3 116 9
	nop
	movl	-4(%ebp), %ebx
	leave
	.cfi_restore 5
	.cfi_restore 3
	.cfi_def_cfa 4, 4
	ret	$4
	.cfi_endproc
LFE960:
	.section	.text$_ZN8Palmtree4Math4Core8Internal12StringReader10StartsWithEPKwS5_,"x"
	.linkonce discard
	.globl	__ZN8Palmtree4Math4Core8Internal12StringReader10StartsWithEPKwS5_
	.def	__ZN8Palmtree4Math4Core8Internal12StringReader10StartsWithEPKwS5_;	.scl	2;	.type	32;	.endef
__ZN8Palmtree4Math4Core8Internal12StringReader10StartsWithEPKwS5_:
LFB961:
	.loc 3 119 20
	.cfi_startproc
	pushl	%ebp
	.cfi_def_cfa_offset 8
	.cfi_offset 5, -8
	movl	%esp, %ebp
	.cfi_def_cfa_register 5
L42:
	.loc 3 121 20
	movl	12(%ebp), %eax
	movzwl	(%eax), %eax
	.loc 3 121 23
	testw	%ax, %ax
	je	L39
	.loc 3 123 21
	movl	8(%ebp), %eax
	movzwl	(%eax), %edx
	.loc 3 123 27
	movl	12(%ebp), %eax
	movzwl	(%eax), %eax
	.loc 3 123 17
	cmpw	%ax, %dx
	je	L40
	.loc 3 124 30
	movl	$0, %eax
	jmp	L41
L40:
	.loc 3 125 17
	addl	$2, 8(%ebp)
	.loc 3 126 17
	addl	$2, 12(%ebp)
	.loc 3 121 13
	jmp	L42
L39:
	.loc 3 128 22
	movl	$1, %eax
L41:
	.loc 3 129 9
	popl	%ebp
	.cfi_restore 5
	.cfi_def_cfa 4, 4
	ret
	.cfi_endproc
LFE961:
	.section	.text$_ZN8Palmtree4Math4Core8Internal19ReverseStringReaderC1EPKw,"x"
	.linkonce discard
	.align 2
	.globl	__ZN8Palmtree4Math4Core8Internal19ReverseStringReaderC1EPKw
	.def	__ZN8Palmtree4Math4Core8Internal19ReverseStringReaderC1EPKw;	.scl	2;	.type	32;	.endef
__ZN8Palmtree4Math4Core8Internal19ReverseStringReaderC1EPKw:
LFB964:
	.loc 3 140 9
	.cfi_startproc
	pushl	%ebp
	.cfi_def_cfa_offset 8
	.cfi_offset 5, -8
	movl	%esp, %ebp
	.cfi_def_cfa_register 5
	subl	$40, %esp
	movl	%ecx, -12(%ebp)
LBB29:
	.loc 3 141 35
	movl	-12(%ebp), %eax
	movl	$0, (%esp)
	movl	%eax, %ecx
	call	__ZN8Palmtree4Math4Core8Internal12StringReaderC2EPKw
	subl	$4, %esp
	movl	$__ZTVN8Palmtree4Math4Core8Internal19ReverseStringReaderE+8, %edx
	movl	-12(%ebp), %eax
	movl	%edx, (%eax)
	.loc 3 143 20
	movl	-12(%ebp), %eax
	movl	8(%ebp), %edx
	movl	%edx, 8(%eax)
	.loc 3 144 30
	movl	8(%ebp), %eax
	movl	%eax, (%esp)
	movl	__imp__lstrlenW@4, %eax
	call	*%eax
LVL5:
	subl	$4, %esp
	.loc 3 144 34
	addl	$2147483647, %eax
	leal	(%eax,%eax), %edx
	movl	8(%ebp), %eax
	addl	%eax, %edx
	.loc 3 144 16
	movl	-12(%ebp), %eax
	movl	%edx, 4(%eax)
LBE29:
	.loc 3 145 9
	nop
	leave
	.cfi_restore 5
	.cfi_def_cfa 4, 4
	ret	$4
	.cfi_endproc
LFE964:
	.section	.text$_ZN8Palmtree4Math4Core8Internal19ReverseStringReader8PeekCharEv,"x"
	.linkonce discard
	.align 2
	.globl	__ZN8Palmtree4Math4Core8Internal19ReverseStringReader8PeekCharEv
	.def	__ZN8Palmtree4Math4Core8Internal19ReverseStringReader8PeekCharEv;	.scl	2;	.type	32;	.endef
__ZN8Palmtree4Math4Core8Internal19ReverseStringReader8PeekCharEv:
LFB965:
	.loc 3 147 25
	.cfi_startproc
	pushl	%ebp
	.cfi_def_cfa_offset 8
	.cfi_offset 5, -8
	movl	%esp, %ebp
	.cfi_def_cfa_register 5
	subl	$4, %esp
	movl	%ecx, -4(%ebp)
	.loc 3 149 17
	movl	-4(%ebp), %eax
	movl	4(%eax), %edx
	.loc 3 149 22
	movl	-4(%ebp), %eax
	movl	8(%eax), %eax
	.loc 3 149 13
	cmpl	%eax, %edx
	jnb	L45
	.loc 3 150 30
	movl	$0, %eax
	jmp	L46
L45:
	.loc 3 151 22
	movl	-4(%ebp), %eax
	movl	4(%eax), %eax
	.loc 3 151 24
	movzwl	(%eax), %eax
L46:
	.loc 3 152 9
	leave
	.cfi_restore 5
	.cfi_def_cfa 4, 4
	ret
	.cfi_endproc
LFE965:
	.section .rdata,"dr"
	.align 4
LC3:
	.ascii "p\0m\0c\0_\0s\0t\0r\0i\0n\0g\0i\0o\0.\0h\0;\0R\0e\0v\0e\0r\0s\0e\0S\0t\0r\0i\0n\0g\0R\0e\0a\0d\0e\0r\0:\0:\0P\0r\0o\0g\0r\0e\0s\0s\0;\0"
	.ascii "1\0\0\0"
	.section	.text$_ZN8Palmtree4Math4Core8Internal19ReverseStringReader8ProgressEv,"x"
	.linkonce discard
	.align 2
	.globl	__ZN8Palmtree4Math4Core8Internal19ReverseStringReader8ProgressEv
	.def	__ZN8Palmtree4Math4Core8Internal19ReverseStringReader8ProgressEv;	.scl	2;	.type	32;	.endef
__ZN8Palmtree4Math4Core8Internal19ReverseStringReader8ProgressEv:
LFB966:
	.loc 3 154 22
	.cfi_startproc
	pushl	%ebp
	.cfi_def_cfa_offset 8
	.cfi_offset 5, -8
	movl	%esp, %ebp
	.cfi_def_cfa_register 5
	pushl	%ebx
	subl	$36, %esp
	.cfi_offset 3, -12
	movl	%ecx, -12(%ebp)
	.loc 3 156 17
	movl	-12(%ebp), %eax
	movl	4(%eax), %edx
	.loc 3 156 22
	movl	-12(%ebp), %eax
	movl	8(%eax), %eax
	.loc 3 156 13
	cmpl	%eax, %edx
	jnb	L48
	.loc 3 157 139
	movl	$16, (%esp)
	call	___cxa_allocate_exception
	movl	%eax, %ebx
	movl	$LC3, 4(%esp)
	movl	$LC1, (%esp)
	movl	%ebx, %ecx
	call	__ZN8Palmtree4Math4Core8Internal22InternalErrorExceptionC1EPKwS5_
	subl	$8, %esp
	movl	$__ZN8Palmtree4Math4Core8Internal22InternalErrorExceptionD1Ev, 8(%esp)
	movl	$__ZTIN8Palmtree4Math4Core8Internal22InternalErrorExceptionE, 4(%esp)
	movl	%ebx, (%esp)
	call	___cxa_throw
L48:
	.loc 3 158 15
	movl	-12(%ebp), %eax
	movl	4(%eax), %eax
	.loc 3 158 13
	leal	-2(%eax), %edx
	movl	-12(%ebp), %eax
	movl	%edx, 4(%eax)
	.loc 3 159 9
	nop
	movl	-4(%ebp), %ebx
	leave
	.cfi_restore 5
	.cfi_restore 3
	.cfi_def_cfa 4, 4
	ret
	.cfi_endproc
LFE966:
	.section	.text$_ZN8Palmtree4Math4Core8Internal19ReverseStringReader10StartsWithEPKw,"x"
	.linkonce discard
	.align 2
	.globl	__ZN8Palmtree4Math4Core8Internal19ReverseStringReader10StartsWithEPKw
	.def	__ZN8Palmtree4Math4Core8Internal19ReverseStringReader10StartsWithEPKw;	.scl	2;	.type	32;	.endef
__ZN8Palmtree4Math4Core8Internal19ReverseStringReader10StartsWithEPKw:
LFB967:
	.loc 3 161 21
	.cfi_startproc
	pushl	%ebp
	.cfi_def_cfa_offset 8
	.cfi_offset 5, -8
	movl	%esp, %ebp
	.cfi_def_cfa_register 5
	subl	$40, %esp
	movl	%ecx, -12(%ebp)
	.loc 3 163 31
	movl	-12(%ebp), %eax
	movl	8(%eax), %edx
	movl	-12(%ebp), %eax
	movl	4(%eax), %eax
	movl	8(%ebp), %ecx
	movl	%ecx, 8(%esp)
	movl	%edx, 4(%esp)
	movl	%eax, (%esp)
	call	__ZN8Palmtree4Math4Core8Internal19ReverseStringReader10StartsWithEPKwS5_S5_
	.loc 3 164 9
	leave
	.cfi_restore 5
	.cfi_def_cfa 4, 4
	ret	$4
	.cfi_endproc
LFE967:
	.section .rdata,"dr"
	.align 4
LC4:
	.ascii "p\0m\0c\0_\0s\0t\0r\0i\0n\0g\0i\0o\0.\0h\0;\0R\0e\0v\0e\0r\0s\0e\0S\0t\0r\0i\0n\0g\0R\0e\0a\0d\0e\0r\0:\0:\0S\0k\0i\0p\0S\0t\0r\0i\0n\0g\0;\0"
	.ascii "1\0\0\0"
	.section	.text$_ZN8Palmtree4Math4Core8Internal19ReverseStringReader10SkipStringEPKw,"x"
	.linkonce discard
	.align 2
	.globl	__ZN8Palmtree4Math4Core8Internal19ReverseStringReader10SkipStringEPKw
	.def	__ZN8Palmtree4Math4Core8Internal19ReverseStringReader10SkipStringEPKw;	.scl	2;	.type	32;	.endef
__ZN8Palmtree4Math4Core8Internal19ReverseStringReader10SkipStringEPKw:
LFB968:
	.loc 3 166 22
	.cfi_startproc
	pushl	%ebp
	.cfi_def_cfa_offset 8
	.cfi_offset 5, -8
	movl	%esp, %ebp
	.cfi_def_cfa_register 5
	pushl	%ebx
	subl	$36, %esp
	.cfi_offset 3, -12
	movl	%ecx, -12(%ebp)
	.loc 3 168 28
	movl	-12(%ebp), %eax
	movl	8(%eax), %edx
	movl	-12(%ebp), %eax
	movl	4(%eax), %eax
	movl	8(%ebp), %ecx
	movl	%ecx, 8(%esp)
	movl	%edx, 4(%esp)
	movl	%eax, (%esp)
	call	__ZN8Palmtree4Math4Core8Internal19ReverseStringReader10StartsWithEPKwS5_S5_
	.loc 3 168 17
	testl	%eax, %eax
	sete	%al
	.loc 3 168 13
	testb	%al, %al
	je	L52
	.loc 3 171 141
	movl	$16, (%esp)
	call	___cxa_allocate_exception
	movl	%eax, %ebx
	movl	$LC4, 4(%esp)
	movl	$LC1, (%esp)
	movl	%ebx, %ecx
	call	__ZN8Palmtree4Math4Core8Internal22InternalErrorExceptionC1EPKwS5_
	subl	$8, %esp
	movl	$__ZN8Palmtree4Math4Core8Internal22InternalErrorExceptionD1Ev, 8(%esp)
	movl	$__ZTIN8Palmtree4Math4Core8Internal22InternalErrorExceptionE, 4(%esp)
	movl	%ebx, (%esp)
	call	___cxa_throw
L52:
	.loc 3 173 27
	movl	8(%ebp), %eax
	movl	%eax, (%esp)
	movl	__imp__lstrlenW@4, %eax
	call	*%eax
LVL6:
	subl	$4, %esp
	movl	%eax, %edx
	.loc 3 173 16
	movl	-12(%ebp), %eax
	movl	4(%eax), %eax
	addl	%edx, %edx
	negl	%edx
	addl	%eax, %edx
	movl	-12(%ebp), %eax
	movl	%edx, 4(%eax)
	.loc 3 174 9
	nop
	movl	-4(%ebp), %ebx
	leave
	.cfi_restore 5
	.cfi_restore 3
	.cfi_def_cfa 4, 4
	ret	$4
	.cfi_endproc
LFE968:
	.section	.text$_ZN8Palmtree4Math4Core8Internal19ReverseStringReader10StartsWithEPKwS5_S5_,"x"
	.linkonce discard
	.globl	__ZN8Palmtree4Math4Core8Internal19ReverseStringReader10StartsWithEPKwS5_S5_
	.def	__ZN8Palmtree4Math4Core8Internal19ReverseStringReader10StartsWithEPKwS5_S5_;	.scl	2;	.type	32;	.endef
__ZN8Palmtree4Math4Core8Internal19ReverseStringReader10StartsWithEPKwS5_S5_:
LFB969:
	.loc 3 177 20
	.cfi_startproc
	pushl	%ebp
	.cfi_def_cfa_offset 8
	.cfi_offset 5, -8
	movl	%esp, %ebp
	.cfi_def_cfa_register 5
L58:
	.loc 3 179 20
	movl	16(%ebp), %eax
	movzwl	(%eax), %eax
	.loc 3 179 23
	testw	%ax, %ax
	je	L54
	.loc 3 181 17
	movl	8(%ebp), %eax
	cmpl	12(%ebp), %eax
	jb	L55
	.loc 3 181 32 discriminator 1
	movl	8(%ebp), %eax
	movzwl	(%eax), %edx
	.loc 3 181 38 discriminator 1
	movl	16(%ebp), %eax
	movzwl	(%eax), %eax
	.loc 3 181 29 discriminator 1
	cmpw	%ax, %dx
	je	L56
L55:
	.loc 3 182 30
	movl	$0, %eax
	jmp	L57
L56:
	.loc 3 183 17
	subl	$2, 8(%ebp)
	.loc 3 184 17
	addl	$2, 16(%ebp)
	.loc 3 179 13
	jmp	L58
L54:
	.loc 3 186 22
	movl	$1, %eax
L57:
	.loc 3 187 9
	popl	%ebp
	.cfi_restore 5
	.cfi_def_cfa 4, 4
	ret
	.cfi_endproc
LFE969:
	.section	.text$_ZN8Palmtree4Math4Core8Internal12StringWriterC2EPwS4_S4_,"x"
	.linkonce discard
	.align 2
	.globl	__ZN8Palmtree4Math4Core8Internal12StringWriterC2EPwS4_S4_
	.def	__ZN8Palmtree4Math4Core8Internal12StringWriterC2EPwS4_S4_;	.scl	2;	.type	32;	.endef
__ZN8Palmtree4Math4Core8Internal12StringWriterC2EPwS4_S4_:
LFB971:
	.loc 3 199 9
	.cfi_startproc
	pushl	%ebp
	.cfi_def_cfa_offset 8
	.cfi_offset 5, -8
	movl	%esp, %ebp
	.cfi_def_cfa_register 5
	subl	$4, %esp
	movl	%ecx, -4(%ebp)
LBB30:
	.loc 3 200 9
	movl	$__ZTVN8Palmtree4Math4Core8Internal12StringWriterE+8, %edx
	movl	-4(%ebp), %eax
	movl	%edx, (%eax)
	.loc 3 201 16
	movl	-4(%ebp), %eax
	movl	8(%ebp), %edx
	movl	%edx, 4(%eax)
	.loc 3 202 18
	movl	-4(%ebp), %eax
	movl	12(%ebp), %edx
	movl	%edx, 8(%eax)
	.loc 3 203 18
	movl	-4(%ebp), %eax
	movl	16(%ebp), %edx
	movl	%edx, 12(%eax)
	.loc 3 204 22
	movl	-4(%ebp), %eax
	movl	$0, 16(%eax)
LBE30:
	.loc 3 205 9
	nop
	leave
	.cfi_restore 5
	.cfi_def_cfa 4, 4
	ret	$12
	.cfi_endproc
LFE971:
	.section	.text$_ZN8Palmtree4Math4Core8Internal12StringWriterC1EPwS4_S4_,"x"
	.linkonce discard
	.align 2
	.globl	__ZN8Palmtree4Math4Core8Internal12StringWriterC1EPwS4_S4_
	.def	__ZN8Palmtree4Math4Core8Internal12StringWriterC1EPwS4_S4_;	.scl	2;	.type	32;	.endef
__ZN8Palmtree4Math4Core8Internal12StringWriterC1EPwS4_S4_:
LFB972:
	.loc 3 199 9
	.cfi_startproc
	pushl	%ebp
	.cfi_def_cfa_offset 8
	.cfi_offset 5, -8
	movl	%esp, %ebp
	.cfi_def_cfa_register 5
	subl	$4, %esp
	movl	%ecx, -4(%ebp)
LBB31:
	.loc 3 200 9
	movl	$__ZTVN8Palmtree4Math4Core8Internal12StringWriterE+8, %edx
	movl	-4(%ebp), %eax
	movl	%edx, (%eax)
	.loc 3 201 16
	movl	-4(%ebp), %eax
	movl	8(%ebp), %edx
	movl	%edx, 4(%eax)
	.loc 3 202 18
	movl	-4(%ebp), %eax
	movl	12(%ebp), %edx
	movl	%edx, 8(%eax)
	.loc 3 203 18
	movl	-4(%ebp), %eax
	movl	16(%ebp), %edx
	movl	%edx, 12(%eax)
	.loc 3 204 22
	movl	-4(%ebp), %eax
	movl	$0, 16(%eax)
LBE31:
	.loc 3 205 9
	nop
	leave
	.cfi_restore 5
	.cfi_def_cfa 4, 4
	ret	$12
	.cfi_endproc
LFE972:
	.section	.text$_ZN8Palmtree4Math4Core8Internal12StringWriterC1EPwj,"x"
	.linkonce discard
	.align 2
	.globl	__ZN8Palmtree4Math4Core8Internal12StringWriterC1EPwj
	.def	__ZN8Palmtree4Math4Core8Internal12StringWriterC1EPwj;	.scl	2;	.type	32;	.endef
__ZN8Palmtree4Math4Core8Internal12StringWriterC1EPwj:
LFB975:
	.loc 3 208 9
	.cfi_startproc
	pushl	%ebp
	.cfi_def_cfa_offset 8
	.cfi_offset 5, -8
	movl	%esp, %ebp
	.cfi_def_cfa_register 5
	subl	$40, %esp
	movl	%ecx, -12(%ebp)
LBB32:
	.loc 3 209 87
	cmpl	$0, 8(%ebp)
	je	L62
	.loc 3 209 71 discriminator 1
	movl	12(%ebp), %eax
	leal	(%eax,%eax), %edx
	.loc 3 209 87 discriminator 1
	movl	8(%ebp), %eax
	addl	%eax, %edx
	jmp	L63
L62:
	.loc 3 209 87 is_stmt 0 discriminator 2
	movl	$0, %edx
L63:
	.loc 3 209 87 discriminator 4
	movl	-12(%ebp), %eax
	movl	%edx, 8(%esp)
	movl	8(%ebp), %edx
	movl	%edx, 4(%esp)
	movl	8(%ebp), %edx
	movl	%edx, (%esp)
	movl	%eax, %ecx
	call	__ZN8Palmtree4Math4Core8Internal12StringWriterC1EPwS4_S4_
	subl	$12, %esp
LBE32:
	.loc 3 211 9 is_stmt 1 discriminator 4
	nop
	leave
	.cfi_restore 5
	.cfi_def_cfa 4, 4
	ret	$8
	.cfi_endproc
LFE975:
	.section .rdata,"dr"
	.align 4
LC5:
	.ascii "\370fM0\274\217\177"
	.ascii "0HQ\320"
	.ascii "0\303"
	.ascii "0\325"
	.ascii "0\241"
	.ascii "0n0\265"
	.ascii "0\244"
	.ascii "0\272"
	.ascii "0L0\15N\263\215W0f0D0~0Y0\2"
	.ascii "0\0\0"
	.section	.text$_ZN8Palmtree4Math4Core8Internal12StringWriter5WriteEw,"x"
	.linkonce discard
	.align 2
	.globl	__ZN8Palmtree4Math4Core8Internal12StringWriter5WriteEw
	.def	__ZN8Palmtree4Math4Core8Internal12StringWriter5WriteEw;	.scl	2;	.type	32;	.endef
__ZN8Palmtree4Math4Core8Internal12StringWriter5WriteEw:
LFB976:
	.loc 3 213 22
	.cfi_startproc
	pushl	%ebp
	.cfi_def_cfa_offset 8
	.cfi_offset 5, -8
	movl	%esp, %ebp
	.cfi_def_cfa_register 5
	pushl	%ebx
	subl	$36, %esp
	.cfi_offset 3, -12
	movl	%ecx, -12(%ebp)
	movl	8(%ebp), %eax
	movw	%ax, -16(%ebp)
	.loc 3 215 17
	movl	-12(%ebp), %eax
	movl	4(%eax), %eax
	.loc 3 215 13
	testl	%eax, %eax
	je	L65
	.loc 3 217 21
	movl	-12(%ebp), %eax
	movl	4(%eax), %eax
	.loc 3 217 24
	leal	2(%eax), %edx
	.loc 3 217 31
	movl	-12(%ebp), %eax
	movl	12(%eax), %eax
	.loc 3 217 17
	cmpl	%eax, %edx
	jb	L66
	.loc 3 218 124
	movl	$16, (%esp)
	call	___cxa_allocate_exception
	movl	%eax, %ebx
	movl	$LC5, (%esp)
	movl	%ebx, %ecx
	call	__ZN8Palmtree4Math4Core8Internal27InsufficientBufferExceptionC1EPKw
	subl	$4, %esp
	movl	$__ZN8Palmtree4Math4Core8Internal27InsufficientBufferExceptionD1Ev, 8(%esp)
	movl	$__ZTIN8Palmtree4Math4Core8Internal27InsufficientBufferExceptionE, 4(%esp)
	movl	%ebx, (%esp)
	call	___cxa_throw
L66:
	.loc 3 219 18
	movl	-12(%ebp), %eax
	movl	4(%eax), %eax
	.loc 3 219 20
	leal	2(%eax), %ecx
	movl	-12(%ebp), %edx
	movl	%ecx, 4(%edx)
	.loc 3 219 23
	movzwl	-16(%ebp), %edx
	movw	%dx, (%eax)
	.loc 3 220 18
	movl	-12(%ebp), %eax
	movl	4(%eax), %eax
	.loc 3 220 21
	movw	$0, (%eax)
L65:
	.loc 3 222 15
	movl	-12(%ebp), %eax
	movl	16(%eax), %eax
	.loc 3 222 13
	leal	1(%eax), %edx
	movl	-12(%ebp), %eax
	movl	%edx, 16(%eax)
	.loc 3 223 9
	nop
	movl	-4(%ebp), %ebx
	leave
	.cfi_restore 5
	.cfi_restore 3
	.cfi_def_cfa 4, 4
	ret	$4
	.cfi_endproc
LFE976:
	.section	.text$_ZN8Palmtree4Math4Core8Internal12StringWriter5WriteEwj,"x"
	.linkonce discard
	.align 2
	.globl	__ZN8Palmtree4Math4Core8Internal12StringWriter5WriteEwj
	.def	__ZN8Palmtree4Math4Core8Internal12StringWriter5WriteEwj;	.scl	2;	.type	32;	.endef
__ZN8Palmtree4Math4Core8Internal12StringWriter5WriteEwj:
LFB977:
	.loc 3 225 14
	.cfi_startproc
	pushl	%ebp
	.cfi_def_cfa_offset 8
	.cfi_offset 5, -8
	movl	%esp, %ebp
	.cfi_def_cfa_register 5
	subl	$40, %esp
	movl	%ecx, -12(%ebp)
	movl	8(%ebp), %eax
	movw	%ax, -16(%ebp)
L69:
	.loc 3 227 26
	cmpl	$0, 12(%ebp)
	je	L70
	.loc 3 229 24
	movl	-12(%ebp), %eax
	movl	(%eax), %eax
	movl	(%eax), %eax
	.loc 3 229 22
	movzwl	-16(%ebp), %ecx
	movl	-12(%ebp), %edx
	movl	%ecx, (%esp)
	movl	%edx, %ecx
	call	*%eax
LVL7:
	subl	$4, %esp
	.loc 3 230 17
	subl	$1, 12(%ebp)
	.loc 3 227 13
	jmp	L69
L70:
	.loc 3 232 9
	nop
	leave
	.cfi_restore 5
	.cfi_def_cfa 4, 4
	ret	$8
	.cfi_endproc
LFE977:
	.section	.text$_ZN8Palmtree4Math4Core8Internal12StringWriter5WriteEPKw,"x"
	.linkonce discard
	.align 2
	.globl	__ZN8Palmtree4Math4Core8Internal12StringWriter5WriteEPKw
	.def	__ZN8Palmtree4Math4Core8Internal12StringWriter5WriteEPKw;	.scl	2;	.type	32;	.endef
__ZN8Palmtree4Math4Core8Internal12StringWriter5WriteEPKw:
LFB978:
	.loc 3 234 22
	.cfi_startproc
	pushl	%ebp
	.cfi_def_cfa_offset 8
	.cfi_offset 5, -8
	movl	%esp, %ebp
	.cfi_def_cfa_register 5
	subl	$40, %esp
	movl	%ecx, -12(%ebp)
L73:
	.loc 3 236 20
	movl	8(%ebp), %eax
	movzwl	(%eax), %eax
	.loc 3 236 25
	testw	%ax, %ax
	je	L74
	.loc 3 238 27
	movl	-12(%ebp), %eax
	movl	(%eax), %eax
	movl	(%eax), %eax
	.loc 3 238 23
	movl	8(%ebp), %edx
	movzwl	(%edx), %edx
	.loc 3 238 22
	movzwl	%dx, %ecx
	movl	-12(%ebp), %edx
	movl	%ecx, (%esp)
	movl	%edx, %ecx
	call	*%eax
LVL8:
	subl	$4, %esp
	.loc 3 239 17
	addl	$2, 8(%ebp)
	.loc 3 236 13
	jmp	L73
L74:
	.loc 3 241 9
	nop
	leave
	.cfi_restore 5
	.cfi_def_cfa 4, 4
	ret	$4
	.cfi_endproc
LFE978:
	.section	.text$_ZN8Palmtree4Math4Core8Internal12StringWriter9GetStringEv,"x"
	.linkonce discard
	.align 2
	.globl	__ZN8Palmtree4Math4Core8Internal12StringWriter9GetStringEv
	.def	__ZN8Palmtree4Math4Core8Internal12StringWriter9GetStringEv;	.scl	2;	.type	32;	.endef
__ZN8Palmtree4Math4Core8Internal12StringWriter9GetStringEv:
LFB979:
	.loc 3 243 26
	.cfi_startproc
	pushl	%ebp
	.cfi_def_cfa_offset 8
	.cfi_offset 5, -8
	movl	%esp, %ebp
	.cfi_def_cfa_register 5
	subl	$4, %esp
	movl	%ecx, -4(%ebp)
	.loc 3 245 25
	movl	-4(%ebp), %eax
	movl	8(%eax), %eax
	.loc 3 246 9
	leave
	.cfi_restore 5
	.cfi_def_cfa 4, 4
	ret
	.cfi_endproc
LFE979:
	.section	.text$_ZN8Palmtree4Math4Core8Internal12StringWriter9GetLengthEv,"x"
	.linkonce discard
	.align 2
	.globl	__ZN8Palmtree4Math4Core8Internal12StringWriter9GetLengthEv
	.def	__ZN8Palmtree4Math4Core8Internal12StringWriter9GetLengthEv;	.scl	2;	.type	32;	.endef
__ZN8Palmtree4Math4Core8Internal12StringWriter9GetLengthEv:
LFB980:
	.loc 3 248 16
	.cfi_startproc
	pushl	%ebp
	.cfi_def_cfa_offset 8
	.cfi_offset 5, -8
	movl	%esp, %ebp
	.cfi_def_cfa_register 5
	subl	$4, %esp
	movl	%ecx, -4(%ebp)
	.loc 3 250 29
	movl	-4(%ebp), %eax
	movl	16(%eax), %eax
	.loc 3 251 9
	leave
	.cfi_restore 5
	.cfi_def_cfa 4, 4
	ret
	.cfi_endproc
LFE980:
	.section	.text$_ZN8Palmtree4Math4Core8Internal19ReverseStringWriterC1EPwj,"x"
	.linkonce discard
	.align 2
	.globl	__ZN8Palmtree4Math4Core8Internal19ReverseStringWriterC1EPwj
	.def	__ZN8Palmtree4Math4Core8Internal19ReverseStringWriterC1EPwj;	.scl	2;	.type	32;	.endef
__ZN8Palmtree4Math4Core8Internal19ReverseStringWriterC1EPwj:
LFB984:
	.loc 3 263 9
	.cfi_startproc
	pushl	%ebp
	.cfi_def_cfa_offset 8
	.cfi_offset 5, -8
	movl	%esp, %ebp
	.cfi_def_cfa_register 5
	pushl	%ebx
	subl	$36, %esp
	.cfi_offset 3, -12
	movl	%ecx, -12(%ebp)
LBB33:
	.loc 3 264 124
	movl	-12(%ebp), %eax
	cmpl	$0, 8(%ebp)
	je	L80
	.loc 3 264 108 discriminator 1
	movl	12(%ebp), %edx
	leal	(%edx,%edx), %ecx
	.loc 3 264 124 discriminator 1
	movl	8(%ebp), %edx
	addl	%edx, %ecx
	jmp	L81
L80:
	.loc 3 264 124 is_stmt 0 discriminator 2
	movl	$0, %ecx
L81:
	.loc 3 264 124 discriminator 4
	cmpl	$0, 8(%ebp)
	je	L82
	.loc 3 264 55 is_stmt 1 discriminator 5
	movl	12(%ebp), %edx
	leal	(%edx,%edx), %ebx
	.loc 3 264 124 discriminator 5
	movl	8(%ebp), %edx
	addl	%ebx, %edx
	jmp	L83
L82:
	.loc 3 264 124 is_stmt 0 discriminator 6
	movl	$0, %edx
L83:
	.loc 3 264 124 discriminator 8
	movl	%ecx, 8(%esp)
	movl	8(%ebp), %ecx
	movl	%ecx, 4(%esp)
	movl	%edx, (%esp)
	movl	%eax, %ecx
	call	__ZN8Palmtree4Math4Core8Internal12StringWriterC2EPwS4_S4_
	subl	$12, %esp
	movl	$__ZTVN8Palmtree4Math4Core8Internal19ReverseStringWriterE+8, %edx
	movl	-12(%ebp), %eax
	movl	%edx, (%eax)
	.loc 3 266 18 is_stmt 1 discriminator 8
	movl	-12(%ebp), %eax
	movl	$0, (%esp)
	movl	%eax, %ecx
	call	__ZN8Palmtree4Math4Core8Internal19ReverseStringWriter5WriteEw
	subl	$4, %esp
LBE33:
	.loc 3 267 9 discriminator 8
	nop
	movl	-4(%ebp), %ebx
	leave
	.cfi_restore 5
	.cfi_restore 3
	.cfi_def_cfa 4, 4
	ret	$8
	.cfi_endproc
LFE984:
	.section	.text$_ZN8Palmtree4Math4Core8Internal19ReverseStringWriter5WriteEw,"x"
	.linkonce discard
	.align 2
	.globl	__ZN8Palmtree4Math4Core8Internal19ReverseStringWriter5WriteEw
	.def	__ZN8Palmtree4Math4Core8Internal19ReverseStringWriter5WriteEw;	.scl	2;	.type	32;	.endef
__ZN8Palmtree4Math4Core8Internal19ReverseStringWriter5WriteEw:
LFB985:
	.loc 3 269 22
	.cfi_startproc
	pushl	%ebp
	.cfi_def_cfa_offset 8
	.cfi_offset 5, -8
	movl	%esp, %ebp
	.cfi_def_cfa_register 5
	pushl	%ebx
	subl	$36, %esp
	.cfi_offset 3, -12
	movl	%ecx, -12(%ebp)
	movl	8(%ebp), %eax
	movw	%ax, -16(%ebp)
	.loc 3 271 17
	movl	-12(%ebp), %eax
	movl	4(%eax), %edx
	.loc 3 271 23
	movl	-12(%ebp), %eax
	movl	8(%eax), %eax
	.loc 3 271 13
	cmpl	%eax, %edx
	ja	L85
	.loc 3 272 120
	movl	$16, (%esp)
	call	___cxa_allocate_exception
	movl	%eax, %ebx
	movl	$LC5, (%esp)
	movl	%ebx, %ecx
	call	__ZN8Palmtree4Math4Core8Internal27InsufficientBufferExceptionC1EPKw
	subl	$4, %esp
	movl	$__ZN8Palmtree4Math4Core8Internal27InsufficientBufferExceptionD1Ev, 8(%esp)
	movl	$__ZTIN8Palmtree4Math4Core8Internal27InsufficientBufferExceptionE, 4(%esp)
	movl	%ebx, (%esp)
	call	___cxa_throw
L85:
	.loc 3 273 15
	movl	-12(%ebp), %eax
	movl	4(%eax), %eax
	.loc 3 273 13
	leal	-2(%eax), %edx
	movl	-12(%ebp), %eax
	movl	%edx, 4(%eax)
	.loc 3 274 14
	movl	-12(%ebp), %eax
	movl	4(%eax), %eax
	.loc 3 274 17
	movzwl	-16(%ebp), %edx
	movw	%dx, (%eax)
	.loc 3 275 15
	movl	-12(%ebp), %eax
	movl	16(%eax), %eax
	.loc 3 275 13
	leal	1(%eax), %edx
	movl	-12(%ebp), %eax
	movl	%edx, 16(%eax)
	.loc 3 276 9
	nop
	movl	-4(%ebp), %ebx
	leave
	.cfi_restore 5
	.cfi_restore 3
	.cfi_def_cfa 4, 4
	ret	$4
	.cfi_endproc
LFE985:
	.section	.text$_ZN8Palmtree4Math4Core8Internal19ReverseStringWriter5WriteEPKw,"x"
	.linkonce discard
	.align 2
	.globl	__ZN8Palmtree4Math4Core8Internal19ReverseStringWriter5WriteEPKw
	.def	__ZN8Palmtree4Math4Core8Internal19ReverseStringWriter5WriteEPKw;	.scl	2;	.type	32;	.endef
__ZN8Palmtree4Math4Core8Internal19ReverseStringWriter5WriteEPKw:
LFB986:
	.loc 3 278 22
	.cfi_startproc
	pushl	%ebp
	.cfi_def_cfa_offset 8
	.cfi_offset 5, -8
	movl	%esp, %ebp
	.cfi_def_cfa_register 5
	subl	$56, %esp
	movl	%ecx, -28(%ebp)
	.loc 3 280 46
	movl	8(%ebp), %eax
	movl	%eax, (%esp)
	movl	__imp__lstrlenW@4, %eax
	call	*%eax
LVL9:
	subl	$4, %esp
	.loc 3 280 36
	leal	(%eax,%eax), %edx
	.loc 3 280 50
	movl	8(%ebp), %eax
	addl	%edx, %eax
	movl	%eax, -12(%ebp)
L88:
	.loc 3 281 22
	movl	-12(%ebp), %eax
	cmpl	8(%ebp), %eax
	jbe	L89
	.loc 3 283 17
	subl	$2, -12(%ebp)
	.loc 3 284 25
	movl	-28(%ebp), %eax
	movl	(%eax), %eax
	movl	(%eax), %eax
	.loc 3 284 23
	movl	-12(%ebp), %edx
	movzwl	(%edx), %edx
	.loc 3 284 22
	movzwl	%dx, %ecx
	movl	-28(%ebp), %edx
	movl	%ecx, (%esp)
	movl	%edx, %ecx
	call	*%eax
LVL10:
	subl	$4, %esp
	.loc 3 281 13
	jmp	L88
L89:
	.loc 3 286 9
	nop
	leave
	.cfi_restore 5
	.cfi_def_cfa 4, 4
	ret	$4
	.cfi_endproc
LFE986:
	.section	.text$_ZN8Palmtree4Math4Core8Internal19ReverseStringWriter9GetStringEv,"x"
	.linkonce discard
	.align 2
	.globl	__ZN8Palmtree4Math4Core8Internal19ReverseStringWriter9GetStringEv
	.def	__ZN8Palmtree4Math4Core8Internal19ReverseStringWriter9GetStringEv;	.scl	2;	.type	32;	.endef
__ZN8Palmtree4Math4Core8Internal19ReverseStringWriter9GetStringEv:
LFB987:
	.loc 3 288 26
	.cfi_startproc
	pushl	%ebp
	.cfi_def_cfa_offset 8
	.cfi_offset 5, -8
	movl	%esp, %ebp
	.cfi_def_cfa_register 5
	subl	$4, %esp
	movl	%ecx, -4(%ebp)
	.loc 3 290 23
	movl	-4(%ebp), %eax
	movl	4(%eax), %eax
	.loc 3 291 9
	leave
	.cfi_restore 5
	.cfi_def_cfa 4, 4
	ret
	.cfi_endproc
LFE987:
	.text
	.def	__ZN8Palmtree4Math4Core8InternalL21IncrementDIV32CounterEv;	.scl	3;	.type	32;	.endef
__ZN8Palmtree4Math4Core8InternalL21IncrementDIV32CounterEv:
LFB988:
	.file 4 "../pmc_uint_internal.h"
	.loc 4 318 5
	.cfi_startproc
	pushl	%ebp
	.cfi_def_cfa_offset 8
	.cfi_offset 5, -8
	movl	%esp, %ebp
	.cfi_def_cfa_register 5
	subl	$16, %esp
	movl	$__ZN8Palmtree4Math4Core8Internal15statistics_infoE+12, -4(%ebp)
LBB34:
LBB35:
	.file 5 "C:/GNU/MINGW64/i686-8.1.0-win32-dwarf-rt_v6-rev0/mingw32/i686-w64-mingw32/include/psdk_inc/intrin-impl.h"
	.loc 5 1343 41
	movl	-4(%ebp), %eax
	movl	$1, %edx
	lock xaddl	%edx, (%eax)
LBE35:
LBE34:
	.loc 4 320 5
	nop
	leave
	.cfi_restore 5
	.cfi_def_cfa 4, 4
	ret
	.cfi_endproc
LFE988:
	.def	__ZN8Palmtree4Math4Core8InternalL17AddToDIV32CounterEi;	.scl	3;	.type	32;	.endef
__ZN8Palmtree4Math4Core8InternalL17AddToDIV32CounterEi:
LFB992:
	.loc 4 341 5
	.cfi_startproc
	pushl	%ebp
	.cfi_def_cfa_offset 8
	.cfi_offset 5, -8
	movl	%esp, %ebp
	.cfi_def_cfa_register 5
	subl	$16, %esp
	movl	$__ZN8Palmtree4Math4Core8Internal15statistics_infoE+12, -4(%ebp)
	movl	8(%ebp), %eax
	movl	%eax, -8(%ebp)
LBB36:
LBB37:
	.loc 5 1321 46
	movl	-8(%ebp), %edx
	movl	-4(%ebp), %eax
	lock xaddl	%edx, (%eax)
LBE37:
LBE36:
	.loc 4 343 5
	nop
	leave
	.cfi_restore 5
	.cfi_def_cfa 4, 4
	ret
	.cfi_endproc
LFE992:
	.def	__COPY_MEMORY_UNIT;	.scl	3;	.type	32;	.endef
__COPY_MEMORY_UNIT:
LFB5140:
	.file 6 "../pmc_inline_func.h"
	.loc 6 63 9
	.cfi_startproc
	pushl	%ebp
	.cfi_def_cfa_offset 8
	.cfi_offset 5, -8
	movl	%esp, %ebp
	.cfi_def_cfa_register 5
	pushl	%edi
	pushl	%esi
	pushl	%ebx
	subl	$16, %esp
	.cfi_offset 7, -12
	.cfi_offset 6, -16
	.cfi_offset 3, -20
	movl	8(%ebp), %eax
	movl	%eax, -16(%ebp)
	movl	12(%ebp), %eax
	movl	%eax, -20(%ebp)
	movl	16(%ebp), %eax
	movl	%eax, -24(%ebp)
LBB38:
LBB39:
	.loc 5 1773 233
	movl	-16(%ebp), %ecx
	movl	-20(%ebp), %edx
	movl	-24(%ebp), %eax
	movl	%ecx, %ebx
	movl	%ebx, %edi
	movl	%edx, %esi
	movl	%eax, %ecx
/APP
 # 1773 "C:/GNU/MINGW64/i686-8.1.0-win32-dwarf-rt_v6-rev0/mingw32/i686-w64-mingw32/include/psdk_inc/intrin-impl.h" 1
	rep movsd
 # 0 "" 2
/NO_APP
	movl	%ecx, %eax
	movl	%esi, %edx
	movl	%edi, %ebx
	movl	%ebx, -16(%ebp)
	movl	%edx, -20(%ebp)
	movl	%eax, -24(%ebp)
LBE39:
LBE38:
	.loc 6 71 9
	nop
	addl	$16, %esp
	popl	%ebx
	.cfi_restore 3
	popl	%esi
	.cfi_restore 6
	popl	%edi
	.cfi_restore 7
	popl	%ebp
	.cfi_restore 5
	.cfi_def_cfa 4, 4
	ret
	.cfi_endproc
LFE5140:
	.def	__DIVIDE_CEILING_UNIT;	.scl	3;	.type	32;	.endef
__DIVIDE_CEILING_UNIT:
LFB5152:
	.loc 6 156 9
	.cfi_startproc
	pushl	%ebp
	.cfi_def_cfa_offset 8
	.cfi_offset 5, -8
	movl	%esp, %ebp
	.cfi_def_cfa_register 5
	.loc 6 157 24
	movl	8(%ebp), %edx
	movl	12(%ebp), %eax
	addl	%edx, %eax
	.loc 6 157 28
	subl	$1, %eax
	.loc 6 157 36
	movl	$0, %edx
	divl	12(%ebp)
	.loc 6 158 9
	popl	%ebp
	.cfi_restore 5
	.cfi_def_cfa 4, 4
	ret
	.cfi_endproc
LFE5152:
	.def	__ADD_UNIT;	.scl	3;	.type	32;	.endef
__ADD_UNIT:
LFB5156:
	.loc 6 176 9
	.cfi_startproc
	pushl	%ebp
	.cfi_def_cfa_offset 8
	.cfi_offset 5, -8
	movl	%esp, %ebp
	.cfi_def_cfa_register 5
	pushl	%ebx
	subl	$20, %esp
	.cfi_offset 3, -12
	movl	8(%ebp), %eax
	movb	%al, -24(%ebp)
	.loc 6 178 35
	movzbl	-24(%ebp), %eax
	.loc 6 178 34
	movzbl	%al, %eax
	movb	%al, -5(%ebp)
	movl	12(%ebp), %eax
	movl	%eax, -12(%ebp)
	movl	16(%ebp), %eax
	movl	%eax, -16(%ebp)
	movl	20(%ebp), %eax
	movl	%eax, -20(%ebp)
LBB40:
LBB41:
	.file 7 "C:/GNU/MINGW64/i686-8.1.0-win32-dwarf-rt_v6-rev0/mingw32/lib/gcc/i686-w64-mingw32/8.1.0/include/adxintrin.h"
	.loc 7 44 39
	movzbl	-5(%ebp), %eax
	movl	%eax, %ebx
	movl	-12(%ebp), %ecx
	movl	-16(%ebp), %eax
	movl	-20(%ebp), %edx
	addb	$-1, %bl
	adcl	%ecx, %eax
	setc	%cl
	movl	%eax, (%edx)
LBE41:
LBE40:
	.loc 6 178 50
	movl	%ecx, %eax
	.loc 6 184 9
	addl	$20, %esp
	popl	%ebx
	.cfi_restore 3
	popl	%ebp
	.cfi_restore 5
	.cfi_def_cfa 4, 4
	ret
	.cfi_endproc
LFE5156:
	.def	__DIVREM_UNIT;	.scl	3;	.type	32;	.endef
__DIVREM_UNIT:
LFB5161:
	.loc 6 271 9
	.cfi_startproc
	pushl	%ebp
	.cfi_def_cfa_offset 8
	.cfi_offset 5, -8
	movl	%esp, %ebp
	.cfi_def_cfa_register 5
	subl	$16, %esp
	.loc 6 274 85
	movl	12(%ebp), %eax
	movl	8(%ebp), %edx
/APP
 # 274 "../pmc_inline_func.h" 1
	divl 16(%ebp)
 # 0 "" 2
/NO_APP
	movl	%eax, -4(%ebp)
	movl	20(%ebp), %eax
	movl	%edx, (%eax)
	.loc 6 280 22
	movl	-4(%ebp), %eax
	.loc 6 281 9
	leave
	.cfi_restore 5
	.cfi_def_cfa 4, 4
	ret
	.cfi_endproc
LFE5161:
	.def	__ROTATE_L_UNIT;	.scl	3;	.type	32;	.endef
__ROTATE_L_UNIT:
LFB5164:
	.loc 6 329 9
	.cfi_startproc
	pushl	%ebp
	.cfi_def_cfa_offset 8
	.cfi_offset 5, -8
	movl	%esp, %ebp
	.cfi_def_cfa_register 5
	subl	$16, %esp
	.loc 6 331 26
	movl	12(%ebp), %eax
	movl	8(%ebp), %edx
	movl	%edx, -4(%ebp)
	movl	%eax, -8(%ebp)
LBB42:
LBB43:
	.file 8 "C:/GNU/MINGW64/i686-8.1.0-win32-dwarf-rt_v6-rev0/mingw32/lib/gcc/i686-w64-mingw32/8.1.0/include/ia32intrin.h"
	.loc 8 150 7
	andl	$31, -8(%ebp)
	.loc 8 151 44
	movl	-8(%ebp), %eax
	movl	-4(%ebp), %edx
	movl	%eax, %ecx
	roll	%cl, %edx
	movl	%edx, %eax
LBE43:
LBE42:
	.loc 6 331 35
	nop
	.loc 6 337 9
	leave
	.cfi_restore 5
	.cfi_def_cfa 4, 4
	ret
	.cfi_endproc
LFE5164:
.lcomm __ZN8Palmtree4Math4Core8InternalL28default_number_format_optionE,484,32
	.section	.text$_ZN8Palmtree4Math4Core8Internal16DecimalFromatter29ThousandSeparatedStringWriterC1EPNS2_12StringWriterEwPKNS2_28__tag_PMC_NUMBER_FORMAT_INFOE,"x"
	.linkonce discard
	.align 2
	.globl	__ZN8Palmtree4Math4Core8Internal16DecimalFromatter29ThousandSeparatedStringWriterC1EPNS2_12StringWriterEwPKNS2_28__tag_PMC_NUMBER_FORMAT_INFOE
	.def	__ZN8Palmtree4Math4Core8Internal16DecimalFromatter29ThousandSeparatedStringWriterC1EPNS2_12StringWriterEwPKNS2_28__tag_PMC_NUMBER_FORMAT_INFOE;	.scl	2;	.type	32;	.endef
__ZN8Palmtree4Math4Core8Internal16DecimalFromatter29ThousandSeparatedStringWriterC1EPNS2_12StringWriterEwPKNS2_28__tag_PMC_NUMBER_FORMAT_INFOE:
LFB5182:
	.file 9 "../pmc_tostring.cpp"
	.loc 9 55 13
	.cfi_startproc
	pushl	%ebp
	.cfi_def_cfa_offset 8
	.cfi_offset 5, -8
	movl	%esp, %ebp
	.cfi_def_cfa_register 5
	subl	$56, %esp
	movl	%ecx, -28(%ebp)
	movl	12(%ebp), %eax
	movw	%ax, -32(%ebp)
LBB44:
	.loc 9 56 57
	movl	-28(%ebp), %eax
	movl	$0, 8(%esp)
	movl	$0, 4(%esp)
	movl	$0, (%esp)
	movl	%eax, %ecx
	call	__ZN8Palmtree4Math4Core8Internal12StringWriterC2EPwS4_S4_
	subl	$12, %esp
	movl	$__ZTVN8Palmtree4Math4Core8Internal16DecimalFromatter29ThousandSeparatedStringWriterE+8, %edx
	movl	-28(%ebp), %eax
	movl	%edx, (%eax)
LBB45:
	.loc 9 58 32
	movl	-28(%ebp), %eax
	movl	8(%ebp), %edx
	movl	%edx, 20(%eax)
	.loc 9 60 17
	cmpw	$67, -32(%ebp)
	jne	L108
	.loc 9 62 34
	movl	16(%ebp), %eax
	movl	%eax, -12(%ebp)
	.loc 9 63 44
	movl	-28(%ebp), %eax
	movzbl	24(%eax), %edx
	orl	$1, %edx
	movb	%dl, 24(%eax)
	jmp	L109
L108:
	.loc 9 65 22
	cmpw	$80, -32(%ebp)
	jne	L110
	.loc 9 67 34
	movl	16(%ebp), %eax
	addl	$208, %eax
	movl	%eax, -12(%ebp)
	.loc 9 68 44
	movl	-28(%ebp), %eax
	movzbl	24(%eax), %edx
	orl	$1, %edx
	movb	%dl, 24(%eax)
	jmp	L109
L110:
	.loc 9 70 22
	cmpw	$78, -32(%ebp)
	jne	L111
	.loc 9 72 34
	movl	16(%ebp), %eax
	addl	$104, %eax
	movl	%eax, -12(%ebp)
	.loc 9 73 44
	movl	-28(%ebp), %eax
	movzbl	24(%eax), %edx
	orl	$1, %edx
	movb	%dl, 24(%eax)
	jmp	L109
L111:
	.loc 9 77 34
	movl	16(%ebp), %eax
	addl	$104, %eax
	movl	%eax, -12(%ebp)
	.loc 9 78 44
	movl	-28(%ebp), %eax
	movzbl	24(%eax), %edx
	andl	$-2, %edx
	movb	%dl, 24(%eax)
L109:
	.loc 9 81 32
	movl	-12(%ebp), %eax
	addl	$38, %eax
	movl	%eax, -16(%ebp)
	.loc 9 83 34
	movl	-12(%ebp), %eax
	leal	72(%eax), %edx
	.loc 9 83 32
	movl	-28(%ebp), %eax
	movl	%edx, 32(%eax)
	.loc 9 84 50
	movl	-12(%ebp), %eax
	leal	38(%eax), %edx
	.loc 9 84 34
	movl	-28(%ebp), %eax
	movl	%edx, 28(%eax)
	.loc 9 85 40
	movl	-28(%ebp), %eax
	movl	32(%eax), %eax
	.loc 9 85 39
	movzwl	(%eax), %eax
	movzwl	%ax, %eax
	.loc 9 85 55
	leal	-48(%eax), %edx
	.loc 9 85 37
	movl	-28(%ebp), %eax
	movl	%edx, 36(%eax)
	.loc 9 86 38
	movl	-28(%ebp), %eax
	movl	$0, 40(%eax)
LBE45:
LBE44:
	.loc 9 87 13
	nop
	leave
	.cfi_restore 5
	.cfi_def_cfa 4, 4
	ret	$12
	.cfi_endproc
LFE5182:
	.section	.text$_ZN8Palmtree4Math4Core8Internal16DecimalFromatter29ThousandSeparatedStringWriter5WriteEw,"x"
	.linkonce discard
	.align 2
	.globl	__ZN8Palmtree4Math4Core8Internal16DecimalFromatter29ThousandSeparatedStringWriter5WriteEw
	.def	__ZN8Palmtree4Math4Core8Internal16DecimalFromatter29ThousandSeparatedStringWriter5WriteEw;	.scl	2;	.type	32;	.endef
__ZN8Palmtree4Math4Core8Internal16DecimalFromatter29ThousandSeparatedStringWriter5WriteEw:
LFB5183:
	.loc 9 89 26
	.cfi_startproc
	pushl	%ebp
	.cfi_def_cfa_offset 8
	.cfi_offset 5, -8
	movl	%esp, %ebp
	.cfi_def_cfa_register 5
	subl	$40, %esp
	movl	%ecx, -12(%ebp)
	movl	8(%ebp), %eax
	movw	%ax, -16(%ebp)
	.loc 9 91 52
	movl	-12(%ebp), %eax
	movzbl	24(%eax), %eax
	andl	$1, %eax
	.loc 9 91 17
	testb	%al, %al
	je	L113
	.loc 9 91 44 discriminator 1
	cmpw	$47, -16(%ebp)
	jbe	L113
	.loc 9 91 57 discriminator 2
	cmpw	$57, -16(%ebp)
	ja	L113
	.loc 9 94 25
	movl	-12(%ebp), %eax
	movl	36(%eax), %eax
	.loc 9 94 21
	testl	%eax, %eax
	jle	L114
	.loc 9 94 52 discriminator 1
	movl	-12(%ebp), %eax
	movl	40(%eax), %edx
	.loc 9 94 76 discriminator 1
	movl	-12(%ebp), %eax
	movl	36(%eax), %eax
	.loc 9 94 49 discriminator 1
	cmpl	%eax, %edx
	jl	L114
	.loc 9 99 25
	movl	-12(%ebp), %eax
	movl	20(%eax), %edx
	movl	-12(%ebp), %eax
	movl	20(%eax), %eax
	.loc 9 99 63
	movl	(%eax), %eax
	addl	$4, %eax
	movl	(%eax), %eax
	.loc 9 99 46
	movl	-12(%ebp), %ecx
	movl	28(%ecx), %ecx
	movl	%ecx, (%esp)
	movl	%edx, %ecx
	call	*%eax
LVL11:
	subl	$4, %esp
	.loc 9 100 25
	movl	-12(%ebp), %eax
	movl	20(%eax), %edx
	movl	-12(%ebp), %eax
	movl	20(%eax), %eax
	.loc 9 100 48
	movl	(%eax), %eax
	movl	(%eax), %eax
	.loc 9 100 46
	movzwl	-16(%ebp), %ecx
	movl	%ecx, (%esp)
	movl	%edx, %ecx
	call	*%eax
LVL12:
	subl	$4, %esp
	.loc 9 101 46
	movl	-12(%ebp), %eax
	movl	$1, 40(%eax)
	.loc 9 104 29
	movl	-12(%ebp), %eax
	movl	32(%eax), %eax
	.loc 9 104 45
	addl	$2, %eax
	movzwl	(%eax), %eax
	.loc 9 104 25
	testw	%ax, %ax
	je	L116
	.loc 9 106 44
	movl	-12(%ebp), %eax
	movl	32(%eax), %eax
	leal	2(%eax), %edx
	movl	-12(%ebp), %eax
	movl	%edx, 32(%eax)
	.loc 9 107 51
	movl	-12(%ebp), %eax
	movl	32(%eax), %eax
	.loc 9 107 67
	movzwl	(%eax), %eax
	movzwl	%ax, %eax
	.loc 9 107 69
	leal	-48(%eax), %edx
	.loc 9 107 49
	movl	-12(%ebp), %eax
	movl	%edx, 36(%eax)
	.loc 9 104 25
	jmp	L116
L114:
	.loc 9 113 25
	movl	-12(%ebp), %eax
	movl	20(%eax), %edx
	movl	-12(%ebp), %eax
	movl	20(%eax), %eax
	.loc 9 113 48
	movl	(%eax), %eax
	movl	(%eax), %eax
	.loc 9 113 46
	movzwl	-16(%ebp), %ecx
	movl	%ecx, (%esp)
	movl	%edx, %ecx
	call	*%eax
LVL13:
	subl	$4, %esp
	.loc 9 114 46
	movl	-12(%ebp), %eax
	movl	40(%eax), %eax
	leal	1(%eax), %edx
	movl	-12(%ebp), %eax
	movl	%edx, 40(%eax)
	.loc 9 94 21
	jmp	L117
L116:
	.loc 9 94 21 is_stmt 0 discriminator 1
	jmp	L117
L113:
	.loc 9 121 21 is_stmt 1
	movl	-12(%ebp), %eax
	movl	20(%eax), %edx
	movl	-12(%ebp), %eax
	movl	20(%eax), %eax
	.loc 9 121 44
	movl	(%eax), %eax
	movl	(%eax), %eax
	.loc 9 121 42
	movzwl	-16(%ebp), %ecx
	movl	%ecx, (%esp)
	movl	%edx, %ecx
	call	*%eax
LVL14:
	subl	$4, %esp
L117:
	.loc 9 123 13
	nop
	leave
	.cfi_restore 5
	.cfi_def_cfa 4, 4
	ret	$4
	.cfi_endproc
LFE5183:
	.section	.text$_ZN8Palmtree4Math4Core8Internal16DecimalFromatter29ThousandSeparatedStringWriter5WriteEPKw,"x"
	.linkonce discard
	.align 2
	.globl	__ZN8Palmtree4Math4Core8Internal16DecimalFromatter29ThousandSeparatedStringWriter5WriteEPKw
	.def	__ZN8Palmtree4Math4Core8Internal16DecimalFromatter29ThousandSeparatedStringWriter5WriteEPKw;	.scl	2;	.type	32;	.endef
__ZN8Palmtree4Math4Core8Internal16DecimalFromatter29ThousandSeparatedStringWriter5WriteEPKw:
LFB5184:
	.loc 9 125 26
	.cfi_startproc
	pushl	%ebp
	.cfi_def_cfa_offset 8
	.cfi_offset 5, -8
	movl	%esp, %ebp
	.cfi_def_cfa_register 5
	subl	$40, %esp
	movl	%ecx, -12(%ebp)
L120:
	.loc 9 127 24
	movl	8(%ebp), %eax
	movzwl	(%eax), %eax
	.loc 9 127 29
	testw	%ax, %ax
	je	L121
	.loc 9 128 33
	movl	-12(%ebp), %eax
	movl	(%eax), %eax
	movl	(%eax), %edx
	.loc 9 128 31
	movl	8(%ebp), %eax
	leal	2(%eax), %ecx
	movl	%ecx, 8(%ebp)
	.loc 9 128 27
	movzwl	(%eax), %eax
	.loc 9 128 26
	movzwl	%ax, %ecx
	movl	-12(%ebp), %eax
	movl	%ecx, (%esp)
	movl	%eax, %ecx
	call	*%edx
LVL15:
	subl	$4, %esp
	.loc 9 127 17
	jmp	L120
L121:
	.loc 9 129 13
	nop
	leave
	.cfi_restore 5
	.cfi_def_cfa 4, 4
	ret	$4
	.cfi_endproc
LFE5184:
	.section	.text$_ZN8Palmtree4Math4Core8Internal16DecimalFromatter29ThousandSeparatedStringWriter9GetStringEv,"x"
	.linkonce discard
	.align 2
	.globl	__ZN8Palmtree4Math4Core8Internal16DecimalFromatter29ThousandSeparatedStringWriter9GetStringEv
	.def	__ZN8Palmtree4Math4Core8Internal16DecimalFromatter29ThousandSeparatedStringWriter9GetStringEv;	.scl	2;	.type	32;	.endef
__ZN8Palmtree4Math4Core8Internal16DecimalFromatter29ThousandSeparatedStringWriter9GetStringEv:
LFB5185:
	.loc 9 131 30
	.cfi_startproc
	pushl	%ebp
	.cfi_def_cfa_offset 8
	.cfi_offset 5, -8
	movl	%esp, %ebp
	.cfi_def_cfa_register 5
	subl	$24, %esp
	movl	%ecx, -12(%ebp)
	.loc 9 133 25
	movl	-12(%ebp), %eax
	movl	20(%eax), %edx
	movl	-12(%ebp), %eax
	movl	20(%eax), %eax
	.loc 9 133 51
	movl	(%eax), %eax
	addl	$8, %eax
	movl	(%eax), %eax
	.loc 9 133 50
	movl	%edx, %ecx
	call	*%eax
LVL16:
	.loc 9 134 13
	leave
	.cfi_restore 5
	.cfi_def_cfa 4, 4
	ret
	.cfi_endproc
LFE5185:
	.section	.text$_ZN8Palmtree4Math4Core8Internal16DecimalFromatter9FormatterC2EwiPKNS2_28__tag_PMC_NUMBER_FORMAT_INFOE,"x"
	.linkonce discard
	.align 2
	.globl	__ZN8Palmtree4Math4Core8Internal16DecimalFromatter9FormatterC2EwiPKNS2_28__tag_PMC_NUMBER_FORMAT_INFOE
	.def	__ZN8Palmtree4Math4Core8Internal16DecimalFromatter9FormatterC2EwiPKNS2_28__tag_PMC_NUMBER_FORMAT_INFOE;	.scl	2;	.type	32;	.endef
__ZN8Palmtree4Math4Core8Internal16DecimalFromatter9FormatterC2EwiPKNS2_28__tag_PMC_NUMBER_FORMAT_INFOE:
LFB5187:
	.loc 9 156 13
	.cfi_startproc
	pushl	%ebp
	.cfi_def_cfa_offset 8
	.cfi_offset 5, -8
	movl	%esp, %ebp
	.cfi_def_cfa_register 5
	subl	$8, %esp
	movl	%ecx, -4(%ebp)
	movl	8(%ebp), %eax
	movw	%ax, -8(%ebp)
LBB46:
	.loc 9 157 13
	movl	$__ZTVN8Palmtree4Math4Core8Internal16DecimalFromatter9FormatterE+8, %edx
	movl	-4(%ebp), %eax
	movl	%edx, (%eax)
	movl	-4(%ebp), %eax
	movl	$1000000000, 4(%eax)
	movl	-4(%ebp), %eax
	movl	$9, 8(%eax)
	.loc 9 158 30
	movl	-4(%ebp), %eax
	movzwl	-8(%ebp), %edx
	movw	%dx, 12(%eax)
	.loc 9 159 28
	movl	-4(%ebp), %eax
	movl	12(%ebp), %edx
	movl	%edx, 16(%eax)
	.loc 9 160 37
	movl	-4(%ebp), %eax
	movl	16(%ebp), %edx
	movl	%edx, 20(%eax)
LBE46:
	.loc 9 161 13
	nop
	leave
	.cfi_restore 5
	.cfi_def_cfa 4, 4
	ret	$12
	.cfi_endproc
LFE5187:
	.section .rdata,"dr"
	.align 4
LC6:
	.ascii "p\0m\0c\0_\0t\0o\0s\0t\0r\0i\0n\0g\0.\0c\0p\0p\0;\0F\0o\0r\0m\0a\0t\0t\0e\0r\0:\0:\0F\0o\0r\0m\0a\0t\0;\0"
	.ascii "1\0\0\0"
	.section	.text$_ZN8Palmtree4Math4Core8Internal16DecimalFromatter9Formatter6FormatEcPNS2_19__tag_NUMBER_HEADEREPNS2_12StringWriterE,"x"
	.linkonce discard
	.align 2
	.globl	__ZN8Palmtree4Math4Core8Internal16DecimalFromatter9Formatter6FormatEcPNS2_19__tag_NUMBER_HEADEREPNS2_12StringWriterE
	.def	__ZN8Palmtree4Math4Core8Internal16DecimalFromatter9Formatter6FormatEcPNS2_19__tag_NUMBER_HEADEREPNS2_12StringWriterE;	.scl	2;	.type	32;	.endef
__ZN8Palmtree4Math4Core8Internal16DecimalFromatter9Formatter6FormatEcPNS2_19__tag_NUMBER_HEADEREPNS2_12StringWriterE:
LFB5189:
	.loc 9 164 18
	.cfi_startproc
	pushl	%ebp
	.cfi_def_cfa_offset 8
	.cfi_offset 5, -8
	movl	%esp, %ebp
	.cfi_def_cfa_register 5
	pushl	%ebx
	subl	$36, %esp
	.cfi_offset 3, -12
	movl	%ecx, -12(%ebp)
	movl	8(%ebp), %eax
	movb	%al, -16(%ebp)
	.loc 9 166 21
	movl	-12(%ebp), %eax
	movl	16(%eax), %eax
	.loc 9 166 17
	testl	%eax, %eax
	jns	L126
	.loc 9 167 59
	movl	-12(%ebp), %eax
	movl	(%eax), %eax
	movl	(%eax), %eax
	.loc 9 167 58
	movl	-12(%ebp), %edx
	movl	%edx, %ecx
	call	*%eax
LVL17:
	movl	%eax, %edx
	.loc 9 167 32
	movl	-12(%ebp), %eax
	movl	%edx, 16(%eax)
L126:
	.loc 9 168 35
	movl	12(%ebp), %eax
	movzbl	4(%eax), %eax
	andl	$1, %eax
	.loc 9 168 17
	testb	%al, %al
	je	L127
	.loc 9 171 21
	cmpb	$0, -16(%ebp)
	je	L128
	.loc 9 172 137
	movl	$16, (%esp)
	call	___cxa_allocate_exception
	movl	%eax, %ebx
	movl	$LC6, 4(%esp)
	movl	$LC1, (%esp)
	movl	%ebx, %ecx
	call	__ZN8Palmtree4Math4Core8Internal22InternalErrorExceptionC1EPKwS5_
	subl	$8, %esp
	movl	$__ZN8Palmtree4Math4Core8Internal22InternalErrorExceptionD1Ev, 8(%esp)
	movl	$__ZTIN8Palmtree4Math4Core8Internal22InternalErrorExceptionE, 4(%esp)
	movl	%ebx, (%esp)
	call	___cxa_throw
L128:
	.loc 9 173 47
	movl	-12(%ebp), %eax
	movl	(%eax), %eax
	addl	$12, %eax
	movl	(%eax), %eax
	.loc 9 173 32
	movsbl	-16(%ebp), %ecx
	movl	-12(%ebp), %edx
	movl	16(%ebp), %ebx
	movl	%ebx, 4(%esp)
	movl	%ecx, (%esp)
	movl	%edx, %ecx
	call	*%eax
LVL18:
	subl	$8, %esp
	.loc 9 174 42
	movl	-12(%ebp), %eax
	movl	(%eax), %eax
	addl	$8, %eax
	movl	(%eax), %eax
	.loc 9 174 35
	movl	-12(%ebp), %edx
	movl	16(%ebp), %ecx
	movl	%ecx, (%esp)
	movl	%edx, %ecx
	call	*%eax
LVL19:
	subl	$4, %esp
	.loc 9 175 47
	movl	-12(%ebp), %eax
	movl	(%eax), %eax
	addl	$20, %eax
	movl	(%eax), %eax
	.loc 9 175 32
	movsbl	-16(%ebp), %ecx
	movl	-12(%ebp), %edx
	movl	16(%ebp), %ebx
	movl	%ebx, 4(%esp)
	movl	%ecx, (%esp)
	movl	%edx, %ecx
	call	*%eax
LVL20:
	subl	$8, %esp
	.loc 9 187 13
	jmp	L131
L127:
	.loc 9 180 21
	cmpb	$0, -16(%ebp)
	jne	L130
	.loc 9 181 137
	movl	$16, (%esp)
	call	___cxa_allocate_exception
	movl	%eax, %ebx
	movl	$LC6, 4(%esp)
	movl	$LC1, (%esp)
	movl	%ebx, %ecx
	call	__ZN8Palmtree4Math4Core8Internal22InternalErrorExceptionC1EPKwS5_
	subl	$8, %esp
	movl	$__ZN8Palmtree4Math4Core8Internal22InternalErrorExceptionD1Ev, 8(%esp)
	movl	$__ZTIN8Palmtree4Math4Core8Internal22InternalErrorExceptionE, 4(%esp)
	movl	%ebx, (%esp)
	call	___cxa_throw
L130:
	.loc 9 183 47
	movl	-12(%ebp), %eax
	movl	(%eax), %eax
	addl	$12, %eax
	movl	(%eax), %eax
	.loc 9 183 32
	movsbl	-16(%ebp), %ecx
	movl	-12(%ebp), %edx
	movl	16(%ebp), %ebx
	movl	%ebx, 4(%esp)
	movl	%ecx, (%esp)
	movl	%edx, %ecx
	call	*%eax
LVL21:
	subl	$8, %esp
	.loc 9 184 51
	movl	-12(%ebp), %eax
	movl	(%eax), %eax
	addl	$4, %eax
	movl	(%eax), %eax
	.loc 9 184 37
	movl	-12(%ebp), %edx
	movl	16(%ebp), %ecx
	movl	%ecx, 4(%esp)
	movl	12(%ebp), %ecx
	movl	%ecx, (%esp)
	movl	%edx, %ecx
	call	*%eax
LVL22:
	subl	$8, %esp
	.loc 9 185 47
	movl	-12(%ebp), %eax
	movl	(%eax), %eax
	addl	$20, %eax
	movl	(%eax), %eax
	.loc 9 185 32
	movsbl	-16(%ebp), %ecx
	movl	-12(%ebp), %edx
	movl	16(%ebp), %ebx
	movl	%ebx, 4(%esp)
	movl	%ecx, (%esp)
	movl	%edx, %ecx
	call	*%eax
LVL23:
	subl	$8, %esp
L131:
	.loc 9 187 13
	nop
	movl	-4(%ebp), %ebx
	leave
	.cfi_restore 5
	.cfi_restore 3
	.cfi_def_cfa 4, 4
	ret	$12
	.cfi_endproc
LFE5189:
	.section	.text$_ZN8Palmtree4Math4Core8Internal16DecimalFromatter9Formatter16FormatInternallyEPNS2_19__tag_NUMBER_HEADEREPNS2_12StringWriterE,"x"
	.linkonce discard
	.align 2
	.globl	__ZN8Palmtree4Math4Core8Internal16DecimalFromatter9Formatter16FormatInternallyEPNS2_19__tag_NUMBER_HEADEREPNS2_12StringWriterE
	.def	__ZN8Palmtree4Math4Core8Internal16DecimalFromatter9Formatter16FormatInternallyEPNS2_19__tag_NUMBER_HEADEREPNS2_12StringWriterE;	.scl	2;	.type	32;	.endef
__ZN8Palmtree4Math4Core8Internal16DecimalFromatter9Formatter16FormatInternallyEPNS2_19__tag_NUMBER_HEADEREPNS2_12StringWriterE:
LFB5190:
	.loc 9 199 26
	.cfi_startproc
	.cfi_personality 0,___gxx_personality_v0
	.cfi_lsda 0,LLSDA5190
	pushl	%ebp
	.cfi_def_cfa_offset 8
	.cfi_offset 5, -8
	movl	%esp, %ebp
	.cfi_def_cfa_register 5
	pushl	%ebx
	subl	$84, %esp
	.cfi_offset 3, -12
	movl	%ecx, -60(%ebp)
	.loc 9 201 36
	leal	-48(%ebp), %eax
	movl	%eax, %ecx
LEHB0:
	call	__ZN8Palmtree4Math4Core8Internal18ResourceHolderUINTC1Ev
LEHE0:
	.loc 9 202 66
	movl	8(%ebp), %eax
	movl	20(%eax), %ebx
	.loc 9 202 103
	movl	8(%ebp), %eax
	movl	20(%eax), %eax
	movl	$8, 4(%esp)
	movl	%eax, (%esp)
	call	__DIVIDE_CEILING_UNIT
	.loc 9 202 128
	addl	%ebx, %eax
	movl	%eax, -12(%ebp)
	.loc 9 203 72
	leal	-48(%ebp), %eax
	movl	-12(%ebp), %edx
	movl	%edx, (%esp)
	movl	%eax, %ecx
LEHB1:
	call	__ZN8Palmtree4Math4Core8Internal18ResourceHolderUINT13AllocateBlockEj
	subl	$4, %esp
	movl	%eax, -16(%ebp)
	.loc 9 204 82
	movl	-60(%ebp), %eax
	movl	-16(%ebp), %edx
	movl	%edx, 4(%esp)
	movl	8(%ebp), %edx
	movl	%edx, (%esp)
	movl	%eax, %ecx
	call	__ZN8Palmtree4Math4Core8Internal16DecimalFromatter9Formatter23ConvertAs10nBasedNumberEPNS2_19__tag_NUMBER_HEADEREPj
	.loc 9 204 82 is_stmt 0 discriminator 1
	subl	$8, %esp
	movl	%eax, -20(%ebp)
	.loc 9 205 63 is_stmt 1 discriminator 1
	movl	-60(%ebp), %eax
	movl	8(%eax), %eax
	.loc 9 205 83 discriminator 1
	imull	-20(%ebp), %eax
	.loc 9 205 29 discriminator 1
	addl	$1, %eax
	movl	%eax, -24(%ebp)
	.loc 9 206 70 discriminator 1
	leal	-48(%ebp), %eax
	movl	-24(%ebp), %edx
	movl	%edx, (%esp)
	movl	%eax, %ecx
	call	__ZN8Palmtree4Math4Core8Internal18ResourceHolderUINT14AllocateStringEj
	subl	$4, %esp
	movl	%eax, -28(%ebp)
	.loc 9 207 87 discriminator 1
	movl	-60(%ebp), %eax
	movl	-24(%ebp), %edx
	movl	%edx, 12(%esp)
	movl	-28(%ebp), %edx
	movl	%edx, 8(%esp)
	movl	-20(%ebp), %edx
	movl	%edx, 4(%esp)
	movl	-16(%ebp), %edx
	movl	%edx, (%esp)
	movl	%eax, %ecx
	call	__ZN8Palmtree4Math4Core8Internal16DecimalFromatter9Formatter29ConstructSimpleNumberSequenceEPjjPwj
	subl	$16, %esp
	movl	%eax, -32(%ebp)
	.loc 9 208 37 discriminator 1
	leal	-48(%ebp), %eax
	movl	-16(%ebp), %edx
	movl	%edx, (%esp)
	movl	%eax, %ecx
	call	__ZN8Palmtree4Math4Core8Internal18ResourceHolderUINT15DeallocateBlockEPj
	subl	$4, %esp
	.loc 9 209 75 discriminator 1
	movl	-60(%ebp), %eax
	movl	(%eax), %eax
	addl	$16, %eax
	movl	(%eax), %eax
	.loc 9 209 37 discriminator 1
	movl	-60(%ebp), %edx
	movl	12(%ebp), %ecx
	movl	%ecx, 4(%esp)
	movl	-32(%ebp), %ecx
	movl	%ecx, (%esp)
	movl	%edx, %ecx
	call	*%eax
LVL24:
	.loc 9 209 37 is_stmt 0
	subl	$8, %esp
	.loc 9 210 38 is_stmt 1
	leal	-48(%ebp), %eax
	movl	-28(%ebp), %edx
	movl	%edx, (%esp)
	movl	%eax, %ecx
	call	__ZN8Palmtree4Math4Core8Internal18ResourceHolderUINT16DeallocateStringEPw
LEHE1:
	subl	$4, %esp
	.loc 9 201 36
	leal	-48(%ebp), %eax
	movl	%eax, %ecx
	call	__ZN8Palmtree4Math4Core8Internal18ResourceHolderUINTD1Ev
	.loc 9 211 13
	jmp	L135
L134:
	movl	%eax, %ebx
	.loc 9 201 36
	leal	-48(%ebp), %eax
	movl	%eax, %ecx
	call	__ZN8Palmtree4Math4Core8Internal18ResourceHolderUINTD1Ev
	movl	%ebx, %eax
	movl	%eax, (%esp)
LEHB2:
	call	__Unwind_Resume
LEHE2:
L135:
	.loc 9 211 13
	movl	-4(%ebp), %ebx
	leave
	.cfi_restore 5
	.cfi_restore 3
	.cfi_def_cfa 4, 4
	ret	$8
	.cfi_endproc
LFE5190:
	.def	___gxx_personality_v0;	.scl	2;	.type	32;	.endef
	.section	.gcc_except_table,"w"
LLSDA5190:
	.byte	0xff
	.byte	0xff
	.byte	0x1
	.uleb128 LLSDACSE5190-LLSDACSB5190
LLSDACSB5190:
	.uleb128 LEHB0-LFB5190
	.uleb128 LEHE0-LEHB0
	.uleb128 0
	.uleb128 0
	.uleb128 LEHB1-LFB5190
	.uleb128 LEHE1-LEHB1
	.uleb128 L134-LFB5190
	.uleb128 0
	.uleb128 LEHB2-LFB5190
	.uleb128 LEHE2-LEHB2
	.uleb128 0
	.uleb128 0
LLSDACSE5190:
	.section	.text$_ZN8Palmtree4Math4Core8Internal16DecimalFromatter9Formatter16FormatInternallyEPNS2_19__tag_NUMBER_HEADEREPNS2_12StringWriterE,"x"
	.linkonce discard
	.section	.text$_ZN8Palmtree4Math4Core8Internal16DecimalFromatter9Formatter23ConvertAs10nBasedNumberEPNS2_19__tag_NUMBER_HEADEREPj,"x"
	.linkonce discard
	.align 2
	.globl	__ZN8Palmtree4Math4Core8Internal16DecimalFromatter9Formatter23ConvertAs10nBasedNumberEPNS2_19__tag_NUMBER_HEADEREPj
	.def	__ZN8Palmtree4Math4Core8Internal16DecimalFromatter9Formatter23ConvertAs10nBasedNumberEPNS2_19__tag_NUMBER_HEADEREPj;	.scl	2;	.type	32;	.endef
__ZN8Palmtree4Math4Core8Internal16DecimalFromatter9Formatter23ConvertAs10nBasedNumberEPNS2_19__tag_NUMBER_HEADEREPj:
LFB5191:
	.loc 9 226 25
	.cfi_startproc
	.cfi_personality 0,___gxx_personality_v0
	.cfi_lsda 0,LLSDA5191
	pushl	%ebp
	.cfi_def_cfa_offset 8
	.cfi_offset 5, -8
	movl	%esp, %ebp
	.cfi_def_cfa_register 5
	pushl	%ebx
	subl	$100, %esp
	.cfi_offset 3, -12
	movl	%ecx, -60(%ebp)
	.loc 9 228 36
	leal	-48(%ebp), %eax
	movl	%eax, %ecx
LEHB3:
	call	__ZN8Palmtree4Math4Core8Internal18ResourceHolderUINTC1Ev
LEHE3:
	.loc 9 229 49
	movl	8(%ebp), %eax
	movl	20(%eax), %eax
	.loc 9 229 29
	addl	$32, %eax
	movl	%eax, -28(%ebp)
	.loc 9 230 56
	leal	-48(%ebp), %eax
	movl	-28(%ebp), %edx
	movl	%edx, (%esp)
	movl	%eax, %ecx
LEHB4:
	call	__ZN8Palmtree4Math4Core8Internal18ResourceHolderUINT13AllocateBlockEj
	subl	$4, %esp
	movl	%eax, -12(%ebp)
	.loc 9 231 56
	leal	-48(%ebp), %eax
	movl	-28(%ebp), %edx
	movl	%edx, (%esp)
	movl	%eax, %ecx
	call	__ZN8Palmtree4Math4Core8Internal18ResourceHolderUINT13AllocateBlockEj
	.loc 9 231 56 is_stmt 0 discriminator 1
	subl	$4, %esp
	movl	%eax, -16(%ebp)
	.loc 9 232 34 is_stmt 1 discriminator 1
	movl	8(%ebp), %eax
	movl	32(%eax), %edx
	.loc 9 232 45 discriminator 1
	movl	8(%ebp), %eax
	movl	36(%eax), %eax
	.loc 9 232 34 discriminator 1
	movl	%edx, 8(%esp)
	movl	%eax, 4(%esp)
	movl	-12(%ebp), %eax
	movl	%eax, (%esp)
	call	__COPY_MEMORY_UNIT
	.loc 9 233 30 discriminator 1
	movl	12(%ebp), %eax
	movl	%eax, -20(%ebp)
	.loc 9 234 64 discriminator 1
	movl	$32, 4(%esp)
	movl	-28(%ebp), %eax
	movl	%eax, (%esp)
	call	__DIVIDE_CEILING_UNIT
	movl	%eax, -24(%ebp)
L140:
	.loc 9 235 37
	cmpl	$0, -24(%ebp)
	je	L137
LBB47:
	.loc 9 237 36
	leal	-48(%ebp), %eax
	movl	-16(%ebp), %edx
	movl	%edx, (%esp)
	movl	%eax, %ecx
	call	__ZN8Palmtree4Math4Core8Internal18ResourceHolderUINT10ClearBlockEPj
	subl	$4, %esp
	.loc 9 239 54
	movl	-60(%ebp), %eax
	movl	4(%eax), %eax
	.loc 9 239 32
	leal	-52(%ebp), %edx
	movl	%edx, 16(%esp)
	movl	-16(%ebp), %edx
	movl	%edx, 12(%esp)
	movl	%eax, 8(%esp)
	movl	-24(%ebp), %eax
	movl	%eax, 4(%esp)
	movl	-12(%ebp), %eax
	movl	%eax, (%esp)
	call	__ZN8Palmtree4Math4Core8Internal11DivRem_X_1WEPjjjS3_S3_
	.loc 9 240 36
	leal	-48(%ebp), %eax
	movl	-16(%ebp), %edx
	movl	%edx, (%esp)
	movl	%eax, %ecx
	call	__ZN8Palmtree4Math4Core8Internal18ResourceHolderUINT10CheckBlockEPj
LEHE4:
	subl	$4, %esp
	.loc 9 241 27
	movl	-20(%ebp), %eax
	leal	4(%eax), %edx
	movl	%edx, -20(%ebp)
	.loc 9 241 30
	movl	-52(%ebp), %edx
	movl	%edx, (%eax)
	.loc 9 242 34
	movl	-12(%ebp), %eax
	movl	%eax, -32(%ebp)
	.loc 9 243 27
	movl	-16(%ebp), %eax
	movl	%eax, -12(%ebp)
	.loc 9 244 27
	movl	-32(%ebp), %eax
	movl	%eax, -16(%ebp)
L139:
	.loc 9 245 45
	cmpl	$0, -24(%ebp)
	je	L140
	.loc 9 245 70 discriminator 1
	movl	-24(%ebp), %eax
	addl	$1073741823, %eax
	leal	0(,%eax,4), %edx
	movl	-12(%ebp), %eax
	addl	%edx, %eax
	movl	(%eax), %eax
	.loc 9 245 45 discriminator 1
	testl	%eax, %eax
	jne	L140
	.loc 9 246 25
	subl	$1, -24(%ebp)
	.loc 9 245 21
	jmp	L139
L137:
LBE47:
	.loc 9 248 31
	movl	-20(%ebp), %eax
	subl	12(%ebp), %eax
	sarl	$2, %eax
	.loc 9 248 38
	movl	%eax, %ebx
	.loc 9 228 36
	leal	-48(%ebp), %eax
	movl	%eax, %ecx
	call	__ZN8Palmtree4Math4Core8Internal18ResourceHolderUINTD1Ev
	.loc 9 248 38
	movl	%ebx, %eax
	jmp	L144
L143:
	movl	%eax, %ebx
	.loc 9 228 36
	leal	-48(%ebp), %eax
	movl	%eax, %ecx
	call	__ZN8Palmtree4Math4Core8Internal18ResourceHolderUINTD1Ev
	movl	%ebx, %eax
	movl	%eax, (%esp)
LEHB5:
	call	__Unwind_Resume
LEHE5:
L144:
	.loc 9 249 13
	movl	-4(%ebp), %ebx
	leave
	.cfi_restore 5
	.cfi_restore 3
	.cfi_def_cfa 4, 4
	ret	$8
	.cfi_endproc
LFE5191:
	.section	.gcc_except_table,"w"
LLSDA5191:
	.byte	0xff
	.byte	0xff
	.byte	0x1
	.uleb128 LLSDACSE5191-LLSDACSB5191
LLSDACSB5191:
	.uleb128 LEHB3-LFB5191
	.uleb128 LEHE3-LEHB3
	.uleb128 0
	.uleb128 0
	.uleb128 LEHB4-LFB5191
	.uleb128 LEHE4-LEHB4
	.uleb128 L143-LFB5191
	.uleb128 0
	.uleb128 LEHB5-LFB5191
	.uleb128 LEHE5-LEHB5
	.uleb128 0
	.uleb128 0
LLSDACSE5191:
	.section	.text$_ZN8Palmtree4Math4Core8Internal16DecimalFromatter9Formatter23ConvertAs10nBasedNumberEPNS2_19__tag_NUMBER_HEADEREPj,"x"
	.linkonce discard
	.section	.text$_ZN8Palmtree4Math4Core8Internal16DecimalFromatter9Formatter29ConstructSimpleNumberSequenceEPjjPwj,"x"
	.linkonce discard
	.align 2
	.globl	__ZN8Palmtree4Math4Core8Internal16DecimalFromatter9Formatter29ConstructSimpleNumberSequenceEPjjPwj
	.def	__ZN8Palmtree4Math4Core8Internal16DecimalFromatter9Formatter29ConstructSimpleNumberSequenceEPjjPwj;	.scl	2;	.type	32;	.endef
__ZN8Palmtree4Math4Core8Internal16DecimalFromatter9Formatter29ConstructSimpleNumberSequenceEPjjPwj:
LFB5192:
	.loc 9 251 22
	.cfi_startproc
	pushl	%ebp
	.cfi_def_cfa_offset 8
	.cfi_offset 5, -8
	movl	%esp, %ebp
	.cfi_def_cfa_register 5
	subl	$72, %esp
	movl	%ecx, -44(%ebp)
	.loc 9 253 89
	leal	-36(%ebp), %eax
	movl	20(%ebp), %edx
	movl	%edx, 4(%esp)
	movl	16(%ebp), %edx
	movl	%edx, (%esp)
	movl	%eax, %ecx
	call	__ZN8Palmtree4Math4Core8Internal19ReverseStringWriterC1EPwj
	subl	$8, %esp
	.loc 9 255 30
	movl	8(%ebp), %eax
	movl	%eax, -12(%ebp)
	.loc 9 256 29
	movl	12(%ebp), %eax
	subl	$1, %eax
	movl	%eax, -16(%ebp)
L147:
	.loc 9 257 33
	cmpl	$0, -16(%ebp)
	je	L146
	.loc 9 259 38
	movl	-12(%ebp), %eax
	movl	(%eax), %edx
	movl	-44(%ebp), %eax
	movl	%edx, 4(%esp)
	leal	-36(%ebp), %edx
	movl	%edx, (%esp)
	movl	%eax, %ecx
	call	__ZN8Palmtree4Math4Core8Internal16DecimalFromatter9Formatter17WriteTrailingWordEPNS2_12StringWriterEj
	subl	$8, %esp
	.loc 9 260 21
	addl	$4, -12(%ebp)
	.loc 9 261 21
	subl	$1, -16(%ebp)
	.loc 9 257 17
	jmp	L147
L146:
	.loc 9 263 36
	movl	-12(%ebp), %eax
	movl	(%eax), %edx
	movl	-44(%ebp), %eax
	movl	%edx, 4(%esp)
	leal	-36(%ebp), %edx
	movl	%edx, (%esp)
	movl	%eax, %ecx
	call	__ZN8Palmtree4Math4Core8Internal16DecimalFromatter9Formatter19WriteLeadingOneWordEPNS2_12StringWriterEj
	subl	$8, %esp
	.loc 9 264 64
	leal	-36(%ebp), %eax
	movl	%eax, %ecx
	call	__ZN8Palmtree4Math4Core8Internal19ReverseStringWriter9GetStringEv
	.loc 9 264 66
	nop
	.loc 9 265 13
	leave
	.cfi_restore 5
	.cfi_def_cfa 4, 4
	ret	$16
	.cfi_endproc
LFE5192:
	.section	.text$_ZN8Palmtree4Math4Core8Internal16DecimalFromatter9Formatter19WriteLeadingOneWordEPNS2_12StringWriterEj,"x"
	.linkonce discard
	.align 2
	.globl	__ZN8Palmtree4Math4Core8Internal16DecimalFromatter9Formatter19WriteLeadingOneWordEPNS2_12StringWriterEj
	.def	__ZN8Palmtree4Math4Core8Internal16DecimalFromatter9Formatter19WriteLeadingOneWordEPNS2_12StringWriterEj;	.scl	2;	.type	32;	.endef
__ZN8Palmtree4Math4Core8Internal16DecimalFromatter9Formatter19WriteLeadingOneWordEPNS2_12StringWriterEj:
LFB5193:
	.loc 9 268 18
	.cfi_startproc
	pushl	%ebp
	.cfi_def_cfa_offset 8
	.cfi_offset 5, -8
	movl	%esp, %ebp
	.cfi_def_cfa_register 5
	subl	$56, %esp
	movl	%ecx, -28(%ebp)
L151:
	.loc 9 273 37
	leal	-12(%ebp), %eax
	movl	%eax, 12(%esp)
	movl	$10, 8(%esp)
	movl	12(%ebp), %eax
	movl	%eax, 4(%esp)
	movl	$0, (%esp)
	call	__DIVREM_UNIT
	movl	%eax, 12(%ebp)
	.loc 9 274 31
	movl	-12(%ebp), %edx
	movl	-28(%ebp), %eax
	movl	%edx, 4(%esp)
	movl	8(%ebp), %edx
	movl	%edx, (%esp)
	movl	%eax, %ecx
	call	__ZN8Palmtree4Math4Core8Internal16DecimalFromatter9Formatter10WriteDigitEPNS2_12StringWriterEj
	subl	$8, %esp
	.loc 9 279 46
	call	__ZN8Palmtree4Math4Core8InternalL21IncrementDIV32CounterEv
	.loc 9 281 28
	cmpl	$0, 12(%ebp)
	je	L152
	.loc 9 271 17
	jmp	L151
L152:
	.loc 9 282 13
	nop
	leave
	.cfi_restore 5
	.cfi_def_cfa 4, 4
	ret	$8
	.cfi_endproc
LFE5193:
	.section	.text$_ZN8Palmtree4Math4Core8Internal16DecimalFromatter9Formatter17WriteTrailingWordEPNS2_12StringWriterEj,"x"
	.linkonce discard
	.align 2
	.globl	__ZN8Palmtree4Math4Core8Internal16DecimalFromatter9Formatter17WriteTrailingWordEPNS2_12StringWriterEj
	.def	__ZN8Palmtree4Math4Core8Internal16DecimalFromatter9Formatter17WriteTrailingWordEPNS2_12StringWriterEj;	.scl	2;	.type	32;	.endef
__ZN8Palmtree4Math4Core8Internal16DecimalFromatter9Formatter17WriteTrailingWordEPNS2_12StringWriterEj:
LFB5194:
	.loc 9 285 18
	.cfi_startproc
	pushl	%ebp
	.cfi_def_cfa_offset 8
	.cfi_offset 5, -8
	movl	%esp, %ebp
	.cfi_def_cfa_register 5
	subl	$56, %esp
	movl	%ecx, -28(%ebp)
	.loc 9 309 37
	leal	-12(%ebp), %eax
	movl	%eax, 12(%esp)
	movl	$10, 8(%esp)
	movl	12(%ebp), %eax
	movl	%eax, 4(%esp)
	movl	$0, (%esp)
	call	__DIVREM_UNIT
	movl	%eax, 12(%ebp)
	.loc 9 309 63
	movl	-12(%ebp), %edx
	movl	-28(%ebp), %eax
	movl	%edx, 4(%esp)
	movl	8(%ebp), %edx
	movl	%edx, (%esp)
	movl	%eax, %ecx
	call	__ZN8Palmtree4Math4Core8Internal16DecimalFromatter9Formatter10WriteDigitEPNS2_12StringWriterEj
	subl	$8, %esp
	.loc 9 310 37
	leal	-12(%ebp), %eax
	movl	%eax, 12(%esp)
	movl	$10, 8(%esp)
	movl	12(%ebp), %eax
	movl	%eax, 4(%esp)
	movl	$0, (%esp)
	call	__DIVREM_UNIT
	movl	%eax, 12(%ebp)
	.loc 9 310 63
	movl	-12(%ebp), %edx
	movl	-28(%ebp), %eax
	movl	%edx, 4(%esp)
	movl	8(%ebp), %edx
	movl	%edx, (%esp)
	movl	%eax, %ecx
	call	__ZN8Palmtree4Math4Core8Internal16DecimalFromatter9Formatter10WriteDigitEPNS2_12StringWriterEj
	subl	$8, %esp
	.loc 9 311 37
	leal	-12(%ebp), %eax
	movl	%eax, 12(%esp)
	movl	$10, 8(%esp)
	movl	12(%ebp), %eax
	movl	%eax, 4(%esp)
	movl	$0, (%esp)
	call	__DIVREM_UNIT
	movl	%eax, 12(%ebp)
	.loc 9 311 63
	movl	-12(%ebp), %edx
	movl	-28(%ebp), %eax
	movl	%edx, 4(%esp)
	movl	8(%ebp), %edx
	movl	%edx, (%esp)
	movl	%eax, %ecx
	call	__ZN8Palmtree4Math4Core8Internal16DecimalFromatter9Formatter10WriteDigitEPNS2_12StringWriterEj
	subl	$8, %esp
	.loc 9 312 37
	leal	-12(%ebp), %eax
	movl	%eax, 12(%esp)
	movl	$10, 8(%esp)
	movl	12(%ebp), %eax
	movl	%eax, 4(%esp)
	movl	$0, (%esp)
	call	__DIVREM_UNIT
	movl	%eax, 12(%ebp)
	.loc 9 312 63
	movl	-12(%ebp), %edx
	movl	-28(%ebp), %eax
	movl	%edx, 4(%esp)
	movl	8(%ebp), %edx
	movl	%edx, (%esp)
	movl	%eax, %ecx
	call	__ZN8Palmtree4Math4Core8Internal16DecimalFromatter9Formatter10WriteDigitEPNS2_12StringWriterEj
	subl	$8, %esp
	.loc 9 313 37
	leal	-12(%ebp), %eax
	movl	%eax, 12(%esp)
	movl	$10, 8(%esp)
	movl	12(%ebp), %eax
	movl	%eax, 4(%esp)
	movl	$0, (%esp)
	call	__DIVREM_UNIT
	movl	%eax, 12(%ebp)
	.loc 9 313 63
	movl	-12(%ebp), %edx
	movl	-28(%ebp), %eax
	movl	%edx, 4(%esp)
	movl	8(%ebp), %edx
	movl	%edx, (%esp)
	movl	%eax, %ecx
	call	__ZN8Palmtree4Math4Core8Internal16DecimalFromatter9Formatter10WriteDigitEPNS2_12StringWriterEj
	subl	$8, %esp
	.loc 9 318 42
	movl	$5, (%esp)
	call	__ZN8Palmtree4Math4Core8InternalL17AddToDIV32CounterEi
	.loc 9 323 37
	leal	-12(%ebp), %eax
	movl	%eax, 12(%esp)
	movl	$10, 8(%esp)
	movl	12(%ebp), %eax
	movl	%eax, 4(%esp)
	movl	$0, (%esp)
	call	__DIVREM_UNIT
	movl	%eax, 12(%ebp)
	.loc 9 323 63
	movl	-12(%ebp), %edx
	movl	-28(%ebp), %eax
	movl	%edx, 4(%esp)
	movl	8(%ebp), %edx
	movl	%edx, (%esp)
	movl	%eax, %ecx
	call	__ZN8Palmtree4Math4Core8Internal16DecimalFromatter9Formatter10WriteDigitEPNS2_12StringWriterEj
	subl	$8, %esp
	.loc 9 324 37
	leal	-12(%ebp), %eax
	movl	%eax, 12(%esp)
	movl	$10, 8(%esp)
	movl	12(%ebp), %eax
	movl	%eax, 4(%esp)
	movl	$0, (%esp)
	call	__DIVREM_UNIT
	movl	%eax, 12(%ebp)
	.loc 9 324 63
	movl	-12(%ebp), %edx
	movl	-28(%ebp), %eax
	movl	%edx, 4(%esp)
	movl	8(%ebp), %edx
	movl	%edx, (%esp)
	movl	%eax, %ecx
	call	__ZN8Palmtree4Math4Core8Internal16DecimalFromatter9Formatter10WriteDigitEPNS2_12StringWriterEj
	subl	$8, %esp
	.loc 9 329 42
	movl	$2, (%esp)
	call	__ZN8Palmtree4Math4Core8InternalL17AddToDIV32CounterEi
	.loc 9 334 37
	leal	-12(%ebp), %eax
	movl	%eax, 12(%esp)
	movl	$10, 8(%esp)
	movl	12(%ebp), %eax
	movl	%eax, 4(%esp)
	movl	$0, (%esp)
	call	__DIVREM_UNIT
	movl	%eax, 12(%ebp)
	.loc 9 334 63
	movl	-12(%ebp), %edx
	movl	-28(%ebp), %eax
	movl	%edx, 4(%esp)
	movl	8(%ebp), %edx
	movl	%edx, (%esp)
	movl	%eax, %ecx
	call	__ZN8Palmtree4Math4Core8Internal16DecimalFromatter9Formatter10WriteDigitEPNS2_12StringWriterEj
	subl	$8, %esp
	.loc 9 335 31
	movl	-28(%ebp), %eax
	movl	12(%ebp), %edx
	movl	%edx, 4(%esp)
	movl	8(%ebp), %edx
	movl	%edx, (%esp)
	movl	%eax, %ecx
	call	__ZN8Palmtree4Math4Core8Internal16DecimalFromatter9Formatter10WriteDigitEPNS2_12StringWriterEj
	subl	$8, %esp
	.loc 9 340 46
	call	__ZN8Palmtree4Math4Core8InternalL21IncrementDIV32CounterEv
	.loc 9 343 13
	nop
	leave
	.cfi_restore 5
	.cfi_def_cfa 4, 4
	ret	$8
	.cfi_endproc
LFE5194:
	.section	.text$_ZN8Palmtree4Math4Core8Internal16DecimalFromatter9Formatter10WriteDigitEPNS2_12StringWriterEj,"x"
	.linkonce discard
	.align 2
	.globl	__ZN8Palmtree4Math4Core8Internal16DecimalFromatter9Formatter10WriteDigitEPNS2_12StringWriterEj
	.def	__ZN8Palmtree4Math4Core8Internal16DecimalFromatter9Formatter10WriteDigitEPNS2_12StringWriterEj;	.scl	2;	.type	32;	.endef
__ZN8Palmtree4Math4Core8Internal16DecimalFromatter9Formatter10WriteDigitEPNS2_12StringWriterEj:
LFB5195:
	.loc 9 345 18
	.cfi_startproc
	pushl	%ebp
	.cfi_def_cfa_offset 8
	.cfi_offset 5, -8
	movl	%esp, %ebp
	.cfi_def_cfa_register 5
	subl	$40, %esp
	movl	%ecx, -12(%ebp)
	.loc 9 347 39
	movl	8(%ebp), %eax
	movl	(%eax), %eax
	movl	(%eax), %eax
	.loc 9 347 36
	movl	12(%ebp), %edx
	addl	$48, %edx
	.loc 9 347 30
	movzwl	%dx, %edx
	movl	%edx, (%esp)
	movl	8(%ebp), %ecx
	call	*%eax
LVL25:
	subl	$4, %esp
	.loc 9 348 13
	nop
	leave
	.cfi_restore 5
	.cfi_def_cfa 4, 4
	ret	$8
	.cfi_endproc
LFE5195:
	.section	.text$_ZN8Palmtree4Math4Core8Internal16DecimalFromatter14FormatterTypeCC1EiPKNS2_28__tag_PMC_NUMBER_FORMAT_INFOE,"x"
	.linkonce discard
	.align 2
	.globl	__ZN8Palmtree4Math4Core8Internal16DecimalFromatter14FormatterTypeCC1EiPKNS2_28__tag_PMC_NUMBER_FORMAT_INFOE
	.def	__ZN8Palmtree4Math4Core8Internal16DecimalFromatter14FormatterTypeCC1EiPKNS2_28__tag_PMC_NUMBER_FORMAT_INFOE;	.scl	2;	.type	32;	.endef
__ZN8Palmtree4Math4Core8Internal16DecimalFromatter14FormatterTypeCC1EiPKNS2_28__tag_PMC_NUMBER_FORMAT_INFOE:
LFB5198:
	.loc 9 356 13
	.cfi_startproc
	pushl	%ebp
	.cfi_def_cfa_offset 8
	.cfi_offset 5, -8
	movl	%esp, %ebp
	.cfi_def_cfa_register 5
	subl	$40, %esp
	movl	%ecx, -12(%ebp)
LBB48:
	.loc 9 357 64
	movl	-12(%ebp), %eax
	movl	12(%ebp), %edx
	movl	%edx, 8(%esp)
	movl	8(%ebp), %edx
	movl	%edx, 4(%esp)
	movl	$67, (%esp)
	movl	%eax, %ecx
	call	__ZN8Palmtree4Math4Core8Internal16DecimalFromatter9FormatterC2EwiPKNS2_28__tag_PMC_NUMBER_FORMAT_INFOE
	subl	$12, %esp
	movl	$__ZTVN8Palmtree4Math4Core8Internal16DecimalFromatter14FormatterTypeCE+8, %edx
	movl	-12(%ebp), %eax
	movl	%edx, (%eax)
LBE48:
	.loc 9 359 13
	nop
	leave
	.cfi_restore 5
	.cfi_def_cfa 4, 4
	ret	$8
	.cfi_endproc
LFE5198:
	.section	.text$_ZN8Palmtree4Math4Core8Internal16DecimalFromatter14FormatterTypeC24GetDefaultPrecisionValueEv,"x"
	.linkonce discard
	.align 2
	.globl	__ZN8Palmtree4Math4Core8Internal16DecimalFromatter14FormatterTypeC24GetDefaultPrecisionValueEv
	.def	__ZN8Palmtree4Math4Core8Internal16DecimalFromatter14FormatterTypeC24GetDefaultPrecisionValueEv;	.scl	2;	.type	32;	.endef
__ZN8Palmtree4Math4Core8Internal16DecimalFromatter14FormatterTypeC24GetDefaultPrecisionValueEv:
LFB5199:
	.loc 9 362 25
	.cfi_startproc
	pushl	%ebp
	.cfi_def_cfa_offset 8
	.cfi_offset 5, -8
	movl	%esp, %ebp
	.cfi_def_cfa_register 5
	subl	$4, %esp
	movl	%ecx, -4(%ebp)
	.loc 9 364 25
	movl	-4(%ebp), %eax
	movl	20(%eax), %eax
	.loc 9 364 68
	movl	(%eax), %eax
	.loc 9 365 13
	leave
	.cfi_restore 5
	.cfi_def_cfa 4, 4
	ret
	.cfi_endproc
LFE5199:
	.section	.text$_ZN8Palmtree4Math4Core8Internal16DecimalFromatter14FormatterTypeC14WriteZeroValueEPNS2_12StringWriterE,"x"
	.linkonce discard
	.align 2
	.globl	__ZN8Palmtree4Math4Core8Internal16DecimalFromatter14FormatterTypeC14WriteZeroValueEPNS2_12StringWriterE
	.def	__ZN8Palmtree4Math4Core8Internal16DecimalFromatter14FormatterTypeC14WriteZeroValueEPNS2_12StringWriterE;	.scl	2;	.type	32;	.endef
__ZN8Palmtree4Math4Core8Internal16DecimalFromatter14FormatterTypeC14WriteZeroValueEPNS2_12StringWriterE:
LFB5200:
	.loc 9 367 26
	.cfi_startproc
	pushl	%ebp
	.cfi_def_cfa_offset 8
	.cfi_offset 5, -8
	movl	%esp, %ebp
	.cfi_def_cfa_register 5
	subl	$40, %esp
	movl	%ecx, -12(%ebp)
	.loc 9 369 35
	movl	8(%ebp), %eax
	movl	(%eax), %eax
	movl	(%eax), %eax
	.loc 9 369 30
	movl	$48, (%esp)
	movl	8(%ebp), %ecx
	call	*%eax
LVL26:
	subl	$4, %esp
	.loc 9 370 21
	movl	-12(%ebp), %eax
	movl	16(%eax), %eax
	.loc 9 370 17
	testl	%eax, %eax
	jle	L160
	.loc 9 372 81
	movl	8(%ebp), %eax
	movl	(%eax), %eax
	addl	$4, %eax
	movl	(%eax), %eax
	.loc 9 372 35
	movl	-12(%ebp), %edx
	movl	20(%edx), %edx
	.loc 9 372 65
	addl	$4, %edx
	.loc 9 372 34
	movl	%edx, (%esp)
	movl	8(%ebp), %ecx
	call	*%eax
LVL27:
	subl	$4, %esp
	.loc 9 373 41
	movl	-12(%ebp), %eax
	movl	16(%eax), %eax
	.loc 9 373 34
	movl	%eax, 4(%esp)
	movl	$48, (%esp)
	movl	8(%ebp), %ecx
	call	__ZN8Palmtree4Math4Core8Internal12StringWriter5WriteEwj
	subl	$8, %esp
L160:
	.loc 9 375 13
	nop
	leave
	.cfi_restore 5
	.cfi_def_cfa 4, 4
	ret	$4
	.cfi_endproc
LFE5200:
	.section	.text$_ZN8Palmtree4Math4Core8Internal16DecimalFromatter14FormatterTypeC11WritePrefixEcPNS2_12StringWriterE,"x"
	.linkonce discard
	.align 2
	.globl	__ZN8Palmtree4Math4Core8Internal16DecimalFromatter14FormatterTypeC11WritePrefixEcPNS2_12StringWriterE
	.def	__ZN8Palmtree4Math4Core8Internal16DecimalFromatter14FormatterTypeC11WritePrefixEcPNS2_12StringWriterE;	.scl	2;	.type	32;	.endef
__ZN8Palmtree4Math4Core8Internal16DecimalFromatter14FormatterTypeC11WritePrefixEcPNS2_12StringWriterE:
LFB5201:
	.loc 9 377 26
	.cfi_startproc
	pushl	%ebp
	.cfi_def_cfa_offset 8
	.cfi_offset 5, -8
	movl	%esp, %ebp
	.cfi_def_cfa_register 5
	subl	$40, %esp
	movl	%ecx, -12(%ebp)
	movl	8(%ebp), %eax
	movb	%al, -16(%ebp)
	.loc 9 379 17
	cmpb	$0, -16(%ebp)
	js	L162
	.loc 9 381 29
	movl	-12(%ebp), %eax
	movl	20(%eax), %eax
	.loc 9 381 59
	movl	100(%eax), %eax
	cmpl	$2, %eax
	je	L163
	cmpl	$3, %eax
	je	L185
	cmpl	$1, %eax
	je	L186
	.loc 9 385 74
	movl	12(%ebp), %eax
	movl	(%eax), %eax
	addl	$4, %eax
	movl	(%eax), %eax
	.loc 9 385 39
	movl	-12(%ebp), %edx
	movl	20(%edx), %edx
	.loc 9 385 60
	leal	312(%edx), %ecx
	.loc 9 385 38
	movl	12(%ebp), %edx
	movl	%ecx, (%esp)
	movl	%edx, %ecx
	call	*%eax
LVL28:
	subl	$4, %esp
	.loc 9 386 25
	jmp	L167
L163:
	.loc 9 390 74
	movl	12(%ebp), %eax
	movl	(%eax), %eax
	addl	$4, %eax
	movl	(%eax), %eax
	.loc 9 390 39
	movl	-12(%ebp), %edx
	movl	20(%edx), %edx
	.loc 9 390 60
	leal	312(%edx), %ecx
	.loc 9 390 38
	movl	12(%ebp), %edx
	movl	%ecx, (%esp)
	movl	%edx, %ecx
	call	*%eax
LVL29:
	subl	$4, %esp
	.loc 9 391 43
	movl	12(%ebp), %eax
	movl	(%eax), %eax
	movl	(%eax), %eax
	.loc 9 391 38
	movl	12(%ebp), %edx
	movl	$32, (%esp)
	movl	%edx, %ecx
	call	*%eax
LVL30:
	subl	$4, %esp
	.loc 9 392 25
	jmp	L167
L162:
	.loc 9 399 29
	movl	-12(%ebp), %eax
	movl	20(%eax), %eax
	.loc 9 399 59
	movl	96(%eax), %eax
	.loc 9 399 21
	cmpl	$15, %eax
	ja	L168
	movl	L170(,%eax,4), %eax
	jmp	*%eax
	.section .rdata,"dr"
	.align 4
L170:
	.long	L168
	.long	L184
	.long	L183
	.long	L182
	.long	L181
	.long	L180
	.long	L187
	.long	L187
	.long	L177
	.long	L176
	.long	L187
	.long	L174
	.long	L173
	.long	L187
	.long	L171
	.long	L169
	.section	.text$_ZN8Palmtree4Math4Core8Internal16DecimalFromatter14FormatterTypeC11WritePrefixEcPNS2_12StringWriterE,"x"
	.linkonce discard
L168:
	.loc 9 403 43
	movl	12(%ebp), %eax
	movl	(%eax), %eax
	movl	(%eax), %eax
	.loc 9 403 38
	movl	12(%ebp), %edx
	movl	$40, (%esp)
	movl	%edx, %ecx
	call	*%eax
LVL31:
	subl	$4, %esp
	.loc 9 404 74
	movl	12(%ebp), %eax
	movl	(%eax), %eax
	addl	$4, %eax
	movl	(%eax), %eax
	.loc 9 404 39
	movl	-12(%ebp), %edx
	movl	20(%edx), %edx
	.loc 9 404 60
	leal	312(%edx), %ecx
	.loc 9 404 38
	movl	12(%ebp), %edx
	movl	%ecx, (%esp)
	movl	%edx, %ecx
	call	*%eax
LVL32:
	subl	$4, %esp
	.loc 9 405 25
	jmp	L167
L184:
	.loc 9 407 72
	movl	12(%ebp), %eax
	movl	(%eax), %eax
	addl	$4, %eax
	movl	(%eax), %eax
	.loc 9 407 39
	movl	-12(%ebp), %edx
	movl	20(%edx), %edx
	.loc 9 407 60
	leal	346(%edx), %ecx
	.loc 9 407 38
	movl	12(%ebp), %edx
	movl	%ecx, (%esp)
	movl	%edx, %ecx
	call	*%eax
LVL33:
	subl	$4, %esp
	.loc 9 408 74
	movl	12(%ebp), %eax
	movl	(%eax), %eax
	addl	$4, %eax
	movl	(%eax), %eax
	.loc 9 408 39
	movl	-12(%ebp), %edx
	movl	20(%edx), %edx
	.loc 9 408 60
	leal	312(%edx), %ecx
	.loc 9 408 38
	movl	12(%ebp), %edx
	movl	%ecx, (%esp)
	movl	%edx, %ecx
	call	*%eax
LVL34:
	subl	$4, %esp
	.loc 9 409 25
	jmp	L167
L183:
	.loc 9 411 74
	movl	12(%ebp), %eax
	movl	(%eax), %eax
	addl	$4, %eax
	movl	(%eax), %eax
	.loc 9 411 39
	movl	-12(%ebp), %edx
	movl	20(%edx), %edx
	.loc 9 411 60
	leal	312(%edx), %ecx
	.loc 9 411 38
	movl	12(%ebp), %edx
	movl	%ecx, (%esp)
	movl	%edx, %ecx
	call	*%eax
LVL35:
	subl	$4, %esp
	.loc 9 412 72
	movl	12(%ebp), %eax
	movl	(%eax), %eax
	addl	$4, %eax
	movl	(%eax), %eax
	.loc 9 412 39
	movl	-12(%ebp), %edx
	movl	20(%edx), %edx
	.loc 9 412 60
	leal	346(%edx), %ecx
	.loc 9 412 38
	movl	12(%ebp), %edx
	movl	%ecx, (%esp)
	movl	%edx, %ecx
	call	*%eax
LVL36:
	subl	$4, %esp
	.loc 9 413 25
	jmp	L167
L182:
	.loc 9 415 72
	movl	12(%ebp), %eax
	movl	(%eax), %eax
	addl	$4, %eax
	movl	(%eax), %eax
	.loc 9 415 39
	movl	-12(%ebp), %edx
	movl	20(%edx), %edx
	.loc 9 415 60
	leal	346(%edx), %ecx
	.loc 9 415 38
	movl	12(%ebp), %edx
	movl	%ecx, (%esp)
	movl	%edx, %ecx
	call	*%eax
LVL37:
	subl	$4, %esp
	.loc 9 416 25
	jmp	L167
L181:
	.loc 9 418 43
	movl	12(%ebp), %eax
	movl	(%eax), %eax
	movl	(%eax), %eax
	.loc 9 418 38
	movl	12(%ebp), %edx
	movl	$40, (%esp)
	movl	%edx, %ecx
	call	*%eax
LVL38:
	subl	$4, %esp
	.loc 9 419 25
	jmp	L167
L180:
	.loc 9 421 72
	movl	12(%ebp), %eax
	movl	(%eax), %eax
	addl	$4, %eax
	movl	(%eax), %eax
	.loc 9 421 39
	movl	-12(%ebp), %edx
	movl	20(%edx), %edx
	.loc 9 421 60
	leal	346(%edx), %ecx
	.loc 9 421 38
	movl	12(%ebp), %edx
	movl	%ecx, (%esp)
	movl	%edx, %ecx
	call	*%eax
LVL39:
	subl	$4, %esp
	.loc 9 422 25
	jmp	L167
L177:
	.loc 9 428 72
	movl	12(%ebp), %eax
	movl	(%eax), %eax
	addl	$4, %eax
	movl	(%eax), %eax
	.loc 9 428 39
	movl	-12(%ebp), %edx
	movl	20(%edx), %edx
	.loc 9 428 60
	leal	346(%edx), %ecx
	.loc 9 428 38
	movl	12(%ebp), %edx
	movl	%ecx, (%esp)
	movl	%edx, %ecx
	call	*%eax
LVL40:
	subl	$4, %esp
	.loc 9 429 25
	jmp	L167
L176:
	.loc 9 431 72
	movl	12(%ebp), %eax
	movl	(%eax), %eax
	addl	$4, %eax
	movl	(%eax), %eax
	.loc 9 431 39
	movl	-12(%ebp), %edx
	movl	20(%edx), %edx
	.loc 9 431 60
	leal	346(%edx), %ecx
	.loc 9 431 38
	movl	12(%ebp), %edx
	movl	%ecx, (%esp)
	movl	%edx, %ecx
	call	*%eax
LVL41:
	subl	$4, %esp
	.loc 9 432 74
	movl	12(%ebp), %eax
	movl	(%eax), %eax
	addl	$4, %eax
	movl	(%eax), %eax
	.loc 9 432 39
	movl	-12(%ebp), %edx
	movl	20(%edx), %edx
	.loc 9 432 60
	leal	312(%edx), %ecx
	.loc 9 432 38
	movl	12(%ebp), %edx
	movl	%ecx, (%esp)
	movl	%edx, %ecx
	call	*%eax
LVL42:
	subl	$4, %esp
	.loc 9 433 43
	movl	12(%ebp), %eax
	movl	(%eax), %eax
	movl	(%eax), %eax
	.loc 9 433 38
	movl	12(%ebp), %edx
	movl	$32, (%esp)
	movl	%edx, %ecx
	call	*%eax
LVL43:
	subl	$4, %esp
	.loc 9 434 25
	jmp	L167
L174:
	.loc 9 438 74
	movl	12(%ebp), %eax
	movl	(%eax), %eax
	addl	$4, %eax
	movl	(%eax), %eax
	.loc 9 438 39
	movl	-12(%ebp), %edx
	movl	20(%edx), %edx
	.loc 9 438 60
	leal	312(%edx), %ecx
	.loc 9 438 38
	movl	12(%ebp), %edx
	movl	%ecx, (%esp)
	movl	%edx, %ecx
	call	*%eax
LVL44:
	subl	$4, %esp
	.loc 9 439 43
	movl	12(%ebp), %eax
	movl	(%eax), %eax
	movl	(%eax), %eax
	.loc 9 439 38
	movl	12(%ebp), %edx
	movl	$32, (%esp)
	movl	%edx, %ecx
	call	*%eax
LVL45:
	subl	$4, %esp
	.loc 9 440 25
	jmp	L167
L173:
	.loc 9 442 74
	movl	12(%ebp), %eax
	movl	(%eax), %eax
	addl	$4, %eax
	movl	(%eax), %eax
	.loc 9 442 39
	movl	-12(%ebp), %edx
	movl	20(%edx), %edx
	.loc 9 442 60
	leal	312(%edx), %ecx
	.loc 9 442 38
	movl	12(%ebp), %edx
	movl	%ecx, (%esp)
	movl	%edx, %ecx
	call	*%eax
LVL46:
	subl	$4, %esp
	.loc 9 443 43
	movl	12(%ebp), %eax
	movl	(%eax), %eax
	movl	(%eax), %eax
	.loc 9 443 38
	movl	12(%ebp), %edx
	movl	$32, (%esp)
	movl	%edx, %ecx
	call	*%eax
LVL47:
	subl	$4, %esp
	.loc 9 444 72
	movl	12(%ebp), %eax
	movl	(%eax), %eax
	addl	$4, %eax
	movl	(%eax), %eax
	.loc 9 444 39
	movl	-12(%ebp), %edx
	movl	20(%edx), %edx
	.loc 9 444 60
	leal	346(%edx), %ecx
	.loc 9 444 38
	movl	12(%ebp), %edx
	movl	%ecx, (%esp)
	movl	%edx, %ecx
	call	*%eax
LVL48:
	subl	$4, %esp
	.loc 9 445 25
	jmp	L167
L171:
	.loc 9 449 43
	movl	12(%ebp), %eax
	movl	(%eax), %eax
	movl	(%eax), %eax
	.loc 9 449 38
	movl	12(%ebp), %edx
	movl	$40, (%esp)
	movl	%edx, %ecx
	call	*%eax
LVL49:
	subl	$4, %esp
	.loc 9 450 74
	movl	12(%ebp), %eax
	movl	(%eax), %eax
	addl	$4, %eax
	movl	(%eax), %eax
	.loc 9 450 39
	movl	-12(%ebp), %edx
	movl	20(%edx), %edx
	.loc 9 450 60
	leal	312(%edx), %ecx
	.loc 9 450 38
	movl	12(%ebp), %edx
	movl	%ecx, (%esp)
	movl	%edx, %ecx
	call	*%eax
LVL50:
	subl	$4, %esp
	.loc 9 451 43
	movl	12(%ebp), %eax
	movl	(%eax), %eax
	movl	(%eax), %eax
	.loc 9 451 38
	movl	12(%ebp), %edx
	movl	$32, (%esp)
	movl	%edx, %ecx
	call	*%eax
LVL51:
	subl	$4, %esp
	.loc 9 452 25
	jmp	L167
L169:
	.loc 9 454 43
	movl	12(%ebp), %eax
	movl	(%eax), %eax
	movl	(%eax), %eax
	.loc 9 454 38
	movl	12(%ebp), %edx
	movl	$40, (%esp)
	movl	%edx, %ecx
	call	*%eax
LVL52:
	subl	$4, %esp
	.loc 9 455 25
	jmp	L167
L185:
	.loc 9 394 25
	nop
	jmp	L167
L186:
	.loc 9 388 25
	nop
	jmp	L167
L187:
	.loc 9 424 25
	nop
L167:
	.loc 9 458 13
	nop
	leave
	.cfi_restore 5
	.cfi_def_cfa 4, 4
	ret	$8
	.cfi_endproc
LFE5201:
	.section	.text$_ZN8Palmtree4Math4Core8Internal16DecimalFromatter14FormatterTypeC20FormatNumberSequenceEPKwPNS2_12StringWriterE,"x"
	.linkonce discard
	.align 2
	.globl	__ZN8Palmtree4Math4Core8Internal16DecimalFromatter14FormatterTypeC20FormatNumberSequenceEPKwPNS2_12StringWriterE
	.def	__ZN8Palmtree4Math4Core8Internal16DecimalFromatter14FormatterTypeC20FormatNumberSequenceEPKwPNS2_12StringWriterE;	.scl	2;	.type	32;	.endef
__ZN8Palmtree4Math4Core8Internal16DecimalFromatter14FormatterTypeC20FormatNumberSequenceEPKwPNS2_12StringWriterE:
LFB5202:
	.loc 9 460 26
	.cfi_startproc
	.cfi_personality 0,___gxx_personality_v0
	.cfi_lsda 0,LLSDA5202
	pushl	%ebp
	.cfi_def_cfa_offset 8
	.cfi_offset 5, -8
	movl	%esp, %ebp
	.cfi_def_cfa_register 5
	pushl	%ebx
	subl	$148, %esp
	.cfi_offset 3, -12
	movl	%ecx, -124(%ebp)
	.loc 9 462 36
	leal	-32(%ebp), %eax
	movl	%eax, %ecx
LEHB6:
	call	__ZN8Palmtree4Math4Core8Internal18ResourceHolderUINTC1Ev
LEHE6:
	.loc 9 463 65
	leal	-44(%ebp), %eax
	movl	8(%ebp), %edx
	movl	%edx, (%esp)
	movl	%eax, %ecx
LEHB7:
	call	__ZN8Palmtree4Math4Core8Internal19ReverseStringReaderC1EPKw
	subl	$4, %esp
	.loc 9 464 47
	movl	8(%ebp), %eax
	movl	%eax, (%esp)
	movl	__imp__lstrlenW@4, %eax
	call	*%eax
LVL53:
	subl	$4, %esp
	.loc 9 464 69
	addl	%eax, %eax
	.loc 9 464 73
	leal	1(%eax), %edx
	.loc 9 464 79
	movl	-124(%ebp), %eax
	movl	16(%eax), %eax
	.loc 9 464 77
	addl	%edx, %eax
	.loc 9 464 90
	addl	$1, %eax
	.loc 9 464 92
	movl	%eax, -12(%ebp)
	.loc 9 465 56
	leal	-32(%ebp), %eax
	movl	-12(%ebp), %edx
	movl	%edx, (%esp)
	movl	%eax, %ecx
	call	__ZN8Palmtree4Math4Core8Internal18ResourceHolderUINT14AllocateStringEj
	.loc 9 465 56 is_stmt 0 discriminator 1
	subl	$4, %esp
	movl	%eax, -16(%ebp)
	.loc 9 466 68 is_stmt 1 discriminator 1
	leal	-64(%ebp), %eax
	movl	-12(%ebp), %edx
	movl	%edx, 4(%esp)
	movl	-16(%ebp), %edx
	movl	%edx, (%esp)
	movl	%eax, %ecx
	call	__ZN8Palmtree4Math4Core8Internal19ReverseStringWriterC1EPwj
	subl	$8, %esp
	.loc 9 467 100 discriminator 1
	movl	-124(%ebp), %eax
	movl	20(%eax), %ecx
	.loc 9 467 67 discriminator 1
	movl	-124(%ebp), %eax
	movzwl	12(%eax), %eax
	.loc 9 467 100 discriminator 1
	movzwl	%ax, %edx
	leal	-108(%ebp), %eax
	movl	%ecx, 8(%esp)
	movl	%edx, 4(%esp)
	leal	-64(%ebp), %edx
	movl	%edx, (%esp)
	movl	%eax, %ecx
	call	__ZN8Palmtree4Math4Core8Internal16DecimalFromatter29ThousandSeparatedStringWriterC1EPNS2_12StringWriterEwPKNS2_28__tag_PMC_NUMBER_FORMAT_INFOE
	subl	$12, %esp
L190:
	.loc 9 468 41
	leal	-44(%ebp), %eax
	movl	%eax, %ecx
	call	__ZN8Palmtree4Math4Core8Internal19ReverseStringReader8PeekCharEv
	.loc 9 468 44
	testw	%ax, %ax
	setne	%al
	testb	%al, %al
	je	L189
	.loc 9 469 53
	leal	-44(%ebp), %eax
	movl	%eax, %ecx
	call	__ZN8Palmtree4Math4Core8Internal12StringReader8ReadCharEv
	.loc 9 469 35
	movzwl	%ax, %edx
	leal	-108(%ebp), %eax
	movl	%edx, (%esp)
	movl	%eax, %ecx
	call	__ZN8Palmtree4Math4Core8Internal16DecimalFromatter29ThousandSeparatedStringWriter5WriteEw
	.loc 9 469 35 is_stmt 0 discriminator 1
	subl	$4, %esp
	.loc 9 468 17 is_stmt 1 discriminator 1
	jmp	L190
L189:
	.loc 9 470 51
	movl	12(%ebp), %eax
	movl	(%eax), %eax
	addl	$4, %eax
	movl	(%eax), %ebx
	.loc 9 470 49
	leal	-108(%ebp), %eax
	movl	%eax, %ecx
	call	__ZN8Palmtree4Math4Core8Internal16DecimalFromatter29ThousandSeparatedStringWriter9GetStringEv
	movl	%eax, %edx
	.loc 9 470 30
	movl	12(%ebp), %eax
	movl	%edx, (%esp)
	movl	%eax, %ecx
	call	*%ebx
LVL54:
	.loc 9 470 30 is_stmt 0 discriminator 1
	subl	$4, %esp
	.loc 9 471 21 is_stmt 1 discriminator 1
	movl	-124(%ebp), %eax
	movl	16(%eax), %eax
	.loc 9 471 17 discriminator 1
	testl	%eax, %eax
	jle	L191
	.loc 9 473 81
	movl	12(%ebp), %eax
	movl	(%eax), %eax
	addl	$4, %eax
	movl	(%eax), %eax
	.loc 9 473 35
	movl	-124(%ebp), %edx
	movl	20(%edx), %edx
	.loc 9 473 65
	leal	4(%edx), %ecx
	.loc 9 473 34
	movl	12(%ebp), %edx
	movl	%ecx, (%esp)
	movl	%edx, %ecx
	call	*%eax
LVL55:
	subl	$4, %esp
	.loc 9 474 41
	movl	-124(%ebp), %eax
	movl	16(%eax), %eax
	.loc 9 474 34
	movl	%eax, %edx
	movl	12(%ebp), %eax
	movl	%edx, 4(%esp)
	movl	$48, (%esp)
	movl	%eax, %ecx
	call	__ZN8Palmtree4Math4Core8Internal12StringWriter5WriteEwj
LEHE7:
	subl	$8, %esp
L191:
	.loc 9 462 36
	leal	-32(%ebp), %eax
	movl	%eax, %ecx
	call	__ZN8Palmtree4Math4Core8Internal18ResourceHolderUINTD1Ev
	.loc 9 476 13
	jmp	L194
L193:
	movl	%eax, %ebx
	.loc 9 462 36
	leal	-32(%ebp), %eax
	movl	%eax, %ecx
	call	__ZN8Palmtree4Math4Core8Internal18ResourceHolderUINTD1Ev
	movl	%ebx, %eax
	movl	%eax, (%esp)
LEHB8:
	call	__Unwind_Resume
LEHE8:
L194:
	.loc 9 476 13
	movl	-4(%ebp), %ebx
	leave
	.cfi_restore 5
	.cfi_restore 3
	.cfi_def_cfa 4, 4
	ret	$8
	.cfi_endproc
LFE5202:
	.section	.gcc_except_table,"w"
LLSDA5202:
	.byte	0xff
	.byte	0xff
	.byte	0x1
	.uleb128 LLSDACSE5202-LLSDACSB5202
LLSDACSB5202:
	.uleb128 LEHB6-LFB5202
	.uleb128 LEHE6-LEHB6
	.uleb128 0
	.uleb128 0
	.uleb128 LEHB7-LFB5202
	.uleb128 LEHE7-LEHB7
	.uleb128 L193-LFB5202
	.uleb128 0
	.uleb128 LEHB8-LFB5202
	.uleb128 LEHE8-LEHB8
	.uleb128 0
	.uleb128 0
LLSDACSE5202:
	.section	.text$_ZN8Palmtree4Math4Core8Internal16DecimalFromatter14FormatterTypeC20FormatNumberSequenceEPKwPNS2_12StringWriterE,"x"
	.linkonce discard
	.section	.text$_ZN8Palmtree4Math4Core8Internal16DecimalFromatter14FormatterTypeC11WriteSuffixEcPNS2_12StringWriterE,"x"
	.linkonce discard
	.align 2
	.globl	__ZN8Palmtree4Math4Core8Internal16DecimalFromatter14FormatterTypeC11WriteSuffixEcPNS2_12StringWriterE
	.def	__ZN8Palmtree4Math4Core8Internal16DecimalFromatter14FormatterTypeC11WriteSuffixEcPNS2_12StringWriterE;	.scl	2;	.type	32;	.endef
__ZN8Palmtree4Math4Core8Internal16DecimalFromatter14FormatterTypeC11WriteSuffixEcPNS2_12StringWriterE:
LFB5203:
	.loc 9 478 26
	.cfi_startproc
	pushl	%ebp
	.cfi_def_cfa_offset 8
	.cfi_offset 5, -8
	movl	%esp, %ebp
	.cfi_def_cfa_register 5
	subl	$40, %esp
	movl	%ecx, -12(%ebp)
	movl	8(%ebp), %eax
	movb	%al, -16(%ebp)
	.loc 9 480 17
	cmpb	$0, -16(%ebp)
	js	L196
	.loc 9 482 29
	movl	-12(%ebp), %eax
	movl	20(%eax), %eax
	.loc 9 482 59
	movl	100(%eax), %eax
	cmpl	$2, %eax
	je	L219
	cmpl	$3, %eax
	je	L198
	cmpl	$1, %eax
	jne	L220
	.loc 9 488 74
	movl	12(%ebp), %eax
	movl	(%eax), %eax
	addl	$4, %eax
	movl	(%eax), %eax
	.loc 9 488 39
	movl	-12(%ebp), %edx
	movl	20(%edx), %edx
	.loc 9 488 60
	leal	312(%edx), %ecx
	.loc 9 488 38
	movl	12(%ebp), %edx
	movl	%ecx, (%esp)
	movl	%edx, %ecx
	call	*%eax
LVL56:
	subl	$4, %esp
	.loc 9 489 25
	jmp	L201
L198:
	.loc 9 493 43
	movl	12(%ebp), %eax
	movl	(%eax), %eax
	movl	(%eax), %eax
	.loc 9 493 38
	movl	12(%ebp), %edx
	movl	$32, (%esp)
	movl	%edx, %ecx
	call	*%eax
LVL57:
	subl	$4, %esp
	.loc 9 494 74
	movl	12(%ebp), %eax
	movl	(%eax), %eax
	addl	$4, %eax
	movl	(%eax), %eax
	.loc 9 494 39
	movl	-12(%ebp), %edx
	movl	20(%edx), %edx
	.loc 9 494 60
	leal	312(%edx), %ecx
	.loc 9 494 38
	movl	12(%ebp), %edx
	movl	%ecx, (%esp)
	movl	%edx, %ecx
	call	*%eax
LVL58:
	subl	$4, %esp
	.loc 9 495 25
	nop
	jmp	L201
L196:
	.loc 9 500 29
	movl	-12(%ebp), %eax
	movl	20(%eax), %eax
	.loc 9 500 59
	movl	96(%eax), %eax
	.loc 9 500 21
	cmpl	$15, %eax
	ja	L202
	movl	L204(,%eax,4), %eax
	jmp	*%eax
	.section .rdata,"dr"
	.align 4
L204:
	.long	L202
	.long	L221
	.long	L221
	.long	L216
	.long	L215
	.long	L214
	.long	L213
	.long	L212
	.long	L211
	.long	L221
	.long	L209
	.long	L208
	.long	L221
	.long	L206
	.long	L205
	.long	L203
	.section	.text$_ZN8Palmtree4Math4Core8Internal16DecimalFromatter14FormatterTypeC11WriteSuffixEcPNS2_12StringWriterE,"x"
	.linkonce discard
L202:
	.loc 9 504 43
	movl	12(%ebp), %eax
	movl	(%eax), %eax
	movl	(%eax), %eax
	.loc 9 504 38
	movl	12(%ebp), %edx
	movl	$41, (%esp)
	movl	%edx, %ecx
	call	*%eax
LVL59:
	subl	$4, %esp
	.loc 9 505 25
	jmp	L201
L216:
	.loc 9 511 72
	movl	12(%ebp), %eax
	movl	(%eax), %eax
	addl	$4, %eax
	movl	(%eax), %eax
	.loc 9 511 39
	movl	-12(%ebp), %edx
	movl	20(%edx), %edx
	.loc 9 511 60
	leal	346(%edx), %ecx
	.loc 9 511 38
	movl	12(%ebp), %edx
	movl	%ecx, (%esp)
	movl	%edx, %ecx
	call	*%eax
LVL60:
	subl	$4, %esp
	.loc 9 512 25
	jmp	L201
L215:
	.loc 9 514 74
	movl	12(%ebp), %eax
	movl	(%eax), %eax
	addl	$4, %eax
	movl	(%eax), %eax
	.loc 9 514 39
	movl	-12(%ebp), %edx
	movl	20(%edx), %edx
	.loc 9 514 60
	leal	312(%edx), %ecx
	.loc 9 514 38
	movl	12(%ebp), %edx
	movl	%ecx, (%esp)
	movl	%edx, %ecx
	call	*%eax
LVL61:
	subl	$4, %esp
	.loc 9 515 43
	movl	12(%ebp), %eax
	movl	(%eax), %eax
	movl	(%eax), %eax
	.loc 9 515 38
	movl	12(%ebp), %edx
	movl	$41, (%esp)
	movl	%edx, %ecx
	call	*%eax
LVL62:
	subl	$4, %esp
	.loc 9 516 25
	jmp	L201
L214:
	.loc 9 518 74
	movl	12(%ebp), %eax
	movl	(%eax), %eax
	addl	$4, %eax
	movl	(%eax), %eax
	.loc 9 518 39
	movl	-12(%ebp), %edx
	movl	20(%edx), %edx
	.loc 9 518 60
	leal	312(%edx), %ecx
	.loc 9 518 38
	movl	12(%ebp), %edx
	movl	%ecx, (%esp)
	movl	%edx, %ecx
	call	*%eax
LVL63:
	subl	$4, %esp
	.loc 9 519 25
	jmp	L201
L213:
	.loc 9 521 72
	movl	12(%ebp), %eax
	movl	(%eax), %eax
	addl	$4, %eax
	movl	(%eax), %eax
	.loc 9 521 39
	movl	-12(%ebp), %edx
	movl	20(%edx), %edx
	.loc 9 521 60
	leal	346(%edx), %ecx
	.loc 9 521 38
	movl	12(%ebp), %edx
	movl	%ecx, (%esp)
	movl	%edx, %ecx
	call	*%eax
LVL64:
	subl	$4, %esp
	.loc 9 522 74
	movl	12(%ebp), %eax
	movl	(%eax), %eax
	addl	$4, %eax
	movl	(%eax), %eax
	.loc 9 522 39
	movl	-12(%ebp), %edx
	movl	20(%edx), %edx
	.loc 9 522 60
	leal	312(%edx), %ecx
	.loc 9 522 38
	movl	12(%ebp), %edx
	movl	%ecx, (%esp)
	movl	%edx, %ecx
	call	*%eax
LVL65:
	subl	$4, %esp
	.loc 9 523 25
	jmp	L201
L212:
	.loc 9 525 74
	movl	12(%ebp), %eax
	movl	(%eax), %eax
	addl	$4, %eax
	movl	(%eax), %eax
	.loc 9 525 39
	movl	-12(%ebp), %edx
	movl	20(%edx), %edx
	.loc 9 525 60
	leal	312(%edx), %ecx
	.loc 9 525 38
	movl	12(%ebp), %edx
	movl	%ecx, (%esp)
	movl	%edx, %ecx
	call	*%eax
LVL66:
	subl	$4, %esp
	.loc 9 526 72
	movl	12(%ebp), %eax
	movl	(%eax), %eax
	addl	$4, %eax
	movl	(%eax), %eax
	.loc 9 526 39
	movl	-12(%ebp), %edx
	movl	20(%edx), %edx
	.loc 9 526 60
	leal	346(%edx), %ecx
	.loc 9 526 38
	movl	12(%ebp), %edx
	movl	%ecx, (%esp)
	movl	%edx, %ecx
	call	*%eax
LVL67:
	subl	$4, %esp
	.loc 9 527 25
	jmp	L201
L211:
	.loc 9 529 43
	movl	12(%ebp), %eax
	movl	(%eax), %eax
	movl	(%eax), %eax
	.loc 9 529 38
	movl	12(%ebp), %edx
	movl	$32, (%esp)
	movl	%edx, %ecx
	call	*%eax
LVL68:
	subl	$4, %esp
	.loc 9 530 74
	movl	12(%ebp), %eax
	movl	(%eax), %eax
	addl	$4, %eax
	movl	(%eax), %eax
	.loc 9 530 39
	movl	-12(%ebp), %edx
	movl	20(%edx), %edx
	.loc 9 530 60
	leal	312(%edx), %ecx
	.loc 9 530 38
	movl	12(%ebp), %edx
	movl	%ecx, (%esp)
	movl	%edx, %ecx
	call	*%eax
LVL69:
	subl	$4, %esp
	.loc 9 531 25
	jmp	L201
L209:
	.loc 9 535 43
	movl	12(%ebp), %eax
	movl	(%eax), %eax
	movl	(%eax), %eax
	.loc 9 535 38
	movl	12(%ebp), %edx
	movl	$32, (%esp)
	movl	%edx, %ecx
	call	*%eax
LVL70:
	subl	$4, %esp
	.loc 9 536 74
	movl	12(%ebp), %eax
	movl	(%eax), %eax
	addl	$4, %eax
	movl	(%eax), %eax
	.loc 9 536 39
	movl	-12(%ebp), %edx
	movl	20(%edx), %edx
	.loc 9 536 60
	leal	312(%edx), %ecx
	.loc 9 536 38
	movl	12(%ebp), %edx
	movl	%ecx, (%esp)
	movl	%edx, %ecx
	call	*%eax
LVL71:
	subl	$4, %esp
	.loc 9 537 72
	movl	12(%ebp), %eax
	movl	(%eax), %eax
	addl	$4, %eax
	movl	(%eax), %eax
	.loc 9 537 39
	movl	-12(%ebp), %edx
	movl	20(%edx), %edx
	.loc 9 537 60
	leal	346(%edx), %ecx
	.loc 9 537 38
	movl	12(%ebp), %edx
	movl	%ecx, (%esp)
	movl	%edx, %ecx
	call	*%eax
LVL72:
	subl	$4, %esp
	.loc 9 538 25
	jmp	L201
L208:
	.loc 9 540 72
	movl	12(%ebp), %eax
	movl	(%eax), %eax
	addl	$4, %eax
	movl	(%eax), %eax
	.loc 9 540 39
	movl	-12(%ebp), %edx
	movl	20(%edx), %edx
	.loc 9 540 60
	leal	346(%edx), %ecx
	.loc 9 540 38
	movl	12(%ebp), %edx
	movl	%ecx, (%esp)
	movl	%edx, %ecx
	call	*%eax
LVL73:
	subl	$4, %esp
	.loc 9 541 25
	jmp	L201
L206:
	.loc 9 545 72
	movl	12(%ebp), %eax
	movl	(%eax), %eax
	addl	$4, %eax
	movl	(%eax), %eax
	.loc 9 545 39
	movl	-12(%ebp), %edx
	movl	20(%edx), %edx
	.loc 9 545 60
	leal	346(%edx), %ecx
	.loc 9 545 38
	movl	12(%ebp), %edx
	movl	%ecx, (%esp)
	movl	%edx, %ecx
	call	*%eax
LVL74:
	subl	$4, %esp
	.loc 9 546 43
	movl	12(%ebp), %eax
	movl	(%eax), %eax
	movl	(%eax), %eax
	.loc 9 546 38
	movl	12(%ebp), %edx
	movl	$32, (%esp)
	movl	%edx, %ecx
	call	*%eax
LVL75:
	subl	$4, %esp
	.loc 9 547 74
	movl	12(%ebp), %eax
	movl	(%eax), %eax
	addl	$4, %eax
	movl	(%eax), %eax
	.loc 9 547 39
	movl	-12(%ebp), %edx
	movl	20(%edx), %edx
	.loc 9 547 60
	leal	312(%edx), %ecx
	.loc 9 547 38
	movl	12(%ebp), %edx
	movl	%ecx, (%esp)
	movl	%edx, %ecx
	call	*%eax
LVL76:
	subl	$4, %esp
	.loc 9 548 25
	jmp	L201
L205:
	.loc 9 550 43
	movl	12(%ebp), %eax
	movl	(%eax), %eax
	movl	(%eax), %eax
	.loc 9 550 38
	movl	12(%ebp), %edx
	movl	$41, (%esp)
	movl	%edx, %ecx
	call	*%eax
LVL77:
	subl	$4, %esp
	.loc 9 551 25
	jmp	L201
L203:
	.loc 9 553 43
	movl	12(%ebp), %eax
	movl	(%eax), %eax
	movl	(%eax), %eax
	.loc 9 553 38
	movl	12(%ebp), %edx
	movl	$32, (%esp)
	movl	%edx, %ecx
	call	*%eax
LVL78:
	subl	$4, %esp
	.loc 9 554 74
	movl	12(%ebp), %eax
	movl	(%eax), %eax
	addl	$4, %eax
	movl	(%eax), %eax
	.loc 9 554 39
	movl	-12(%ebp), %edx
	movl	20(%edx), %edx
	.loc 9 554 60
	leal	312(%edx), %ecx
	.loc 9 554 38
	movl	12(%ebp), %edx
	movl	%ecx, (%esp)
	movl	%edx, %ecx
	call	*%eax
LVL79:
	subl	$4, %esp
	.loc 9 555 43
	movl	12(%ebp), %eax
	movl	(%eax), %eax
	movl	(%eax), %eax
	.loc 9 555 38
	movl	12(%ebp), %edx
	movl	$41, (%esp)
	movl	%edx, %ecx
	call	*%eax
LVL80:
	subl	$4, %esp
	.loc 9 556 25
	jmp	L201
L219:
	.loc 9 491 25
	nop
	jmp	L201
L220:
	.loc 9 486 25
	nop
	jmp	L201
L221:
	.loc 9 507 25
	nop
L201:
	.loc 9 559 13
	nop
	leave
	.cfi_restore 5
	.cfi_def_cfa 4, 4
	ret	$8
	.cfi_endproc
LFE5203:
	.section	.text$_ZN8Palmtree4Math4Core8Internal16DecimalFromatter14FormatterTypeDC1EiPKNS2_28__tag_PMC_NUMBER_FORMAT_INFOE,"x"
	.linkonce discard
	.align 2
	.globl	__ZN8Palmtree4Math4Core8Internal16DecimalFromatter14FormatterTypeDC1EiPKNS2_28__tag_PMC_NUMBER_FORMAT_INFOE
	.def	__ZN8Palmtree4Math4Core8Internal16DecimalFromatter14FormatterTypeDC1EiPKNS2_28__tag_PMC_NUMBER_FORMAT_INFOE;	.scl	2;	.type	32;	.endef
__ZN8Palmtree4Math4Core8Internal16DecimalFromatter14FormatterTypeDC1EiPKNS2_28__tag_PMC_NUMBER_FORMAT_INFOE:
LFB5206:
	.loc 9 566 13
	.cfi_startproc
	pushl	%ebp
	.cfi_def_cfa_offset 8
	.cfi_offset 5, -8
	movl	%esp, %ebp
	.cfi_def_cfa_register 5
	subl	$40, %esp
	movl	%ecx, -12(%ebp)
LBB49:
	.loc 9 567 64
	movl	-12(%ebp), %eax
	movl	12(%ebp), %edx
	movl	%edx, 8(%esp)
	movl	8(%ebp), %edx
	movl	%edx, 4(%esp)
	movl	$68, (%esp)
	movl	%eax, %ecx
	call	__ZN8Palmtree4Math4Core8Internal16DecimalFromatter9FormatterC2EwiPKNS2_28__tag_PMC_NUMBER_FORMAT_INFOE
	subl	$12, %esp
	movl	$__ZTVN8Palmtree4Math4Core8Internal16DecimalFromatter14FormatterTypeDE+8, %edx
	movl	-12(%ebp), %eax
	movl	%edx, (%eax)
LBE49:
	.loc 9 569 13
	nop
	leave
	.cfi_restore 5
	.cfi_def_cfa 4, 4
	ret	$8
	.cfi_endproc
LFE5206:
	.section	.text$_ZN8Palmtree4Math4Core8Internal16DecimalFromatter14FormatterTypeD24GetDefaultPrecisionValueEv,"x"
	.linkonce discard
	.align 2
	.globl	__ZN8Palmtree4Math4Core8Internal16DecimalFromatter14FormatterTypeD24GetDefaultPrecisionValueEv
	.def	__ZN8Palmtree4Math4Core8Internal16DecimalFromatter14FormatterTypeD24GetDefaultPrecisionValueEv;	.scl	2;	.type	32;	.endef
__ZN8Palmtree4Math4Core8Internal16DecimalFromatter14FormatterTypeD24GetDefaultPrecisionValueEv:
LFB5207:
	.loc 9 572 25
	.cfi_startproc
	pushl	%ebp
	.cfi_def_cfa_offset 8
	.cfi_offset 5, -8
	movl	%esp, %ebp
	.cfi_def_cfa_register 5
	subl	$4, %esp
	movl	%ecx, -4(%ebp)
	.loc 9 574 26
	movl	$0, %eax
	.loc 9 575 13
	leave
	.cfi_restore 5
	.cfi_def_cfa 4, 4
	ret
	.cfi_endproc
LFE5207:
	.section	.text$_ZN8Palmtree4Math4Core8Internal16DecimalFromatter14FormatterTypeD14WriteZeroValueEPNS2_12StringWriterE,"x"
	.linkonce discard
	.align 2
	.globl	__ZN8Palmtree4Math4Core8Internal16DecimalFromatter14FormatterTypeD14WriteZeroValueEPNS2_12StringWriterE
	.def	__ZN8Palmtree4Math4Core8Internal16DecimalFromatter14FormatterTypeD14WriteZeroValueEPNS2_12StringWriterE;	.scl	2;	.type	32;	.endef
__ZN8Palmtree4Math4Core8Internal16DecimalFromatter14FormatterTypeD14WriteZeroValueEPNS2_12StringWriterE:
LFB5208:
	.loc 9 577 26
	.cfi_startproc
	pushl	%ebp
	.cfi_def_cfa_offset 8
	.cfi_offset 5, -8
	movl	%esp, %ebp
	.cfi_def_cfa_register 5
	subl	$40, %esp
	movl	%ecx, -12(%ebp)
	.loc 9 579 37
	movl	-12(%ebp), %eax
	movl	16(%eax), %eax
	.loc 9 579 52
	movl	$1, %edx
	testl	%eax, %eax
	cmovle	%edx, %eax
	.loc 9 579 30
	movl	%eax, 4(%esp)
	movl	$48, (%esp)
	movl	8(%ebp), %ecx
	call	__ZN8Palmtree4Math4Core8Internal12StringWriter5WriteEwj
	subl	$8, %esp
	.loc 9 580 13
	nop
	leave
	.cfi_restore 5
	.cfi_def_cfa 4, 4
	ret	$4
	.cfi_endproc
LFE5208:
	.section	.text$_ZN8Palmtree4Math4Core8Internal16DecimalFromatter14FormatterTypeD11WritePrefixEcPNS2_12StringWriterE,"x"
	.linkonce discard
	.align 2
	.globl	__ZN8Palmtree4Math4Core8Internal16DecimalFromatter14FormatterTypeD11WritePrefixEcPNS2_12StringWriterE
	.def	__ZN8Palmtree4Math4Core8Internal16DecimalFromatter14FormatterTypeD11WritePrefixEcPNS2_12StringWriterE;	.scl	2;	.type	32;	.endef
__ZN8Palmtree4Math4Core8Internal16DecimalFromatter14FormatterTypeD11WritePrefixEcPNS2_12StringWriterE:
LFB5209:
	.loc 9 582 26
	.cfi_startproc
	pushl	%ebp
	.cfi_def_cfa_offset 8
	.cfi_offset 5, -8
	movl	%esp, %ebp
	.cfi_def_cfa_register 5
	subl	$40, %esp
	movl	%ecx, -12(%ebp)
	movl	8(%ebp), %eax
	movb	%al, -16(%ebp)
	.loc 9 584 17
	cmpb	$0, -16(%ebp)
	jns	L228
	.loc 9 585 68
	movl	12(%ebp), %eax
	movl	(%eax), %eax
	addl	$4, %eax
	movl	(%eax), %eax
	.loc 9 585 35
	movl	-12(%ebp), %edx
	movl	20(%edx), %edx
	.loc 9 585 56
	leal	346(%edx), %ecx
	.loc 9 585 34
	movl	12(%ebp), %edx
	movl	%ecx, (%esp)
	movl	%edx, %ecx
	call	*%eax
LVL81:
	subl	$4, %esp
L228:
	.loc 9 586 13
	nop
	leave
	.cfi_restore 5
	.cfi_def_cfa 4, 4
	ret	$8
	.cfi_endproc
LFE5209:
	.section	.text$_ZN8Palmtree4Math4Core8Internal16DecimalFromatter14FormatterTypeD20FormatNumberSequenceEPKwPNS2_12StringWriterE,"x"
	.linkonce discard
	.align 2
	.globl	__ZN8Palmtree4Math4Core8Internal16DecimalFromatter14FormatterTypeD20FormatNumberSequenceEPKwPNS2_12StringWriterE
	.def	__ZN8Palmtree4Math4Core8Internal16DecimalFromatter14FormatterTypeD20FormatNumberSequenceEPKwPNS2_12StringWriterE;	.scl	2;	.type	32;	.endef
__ZN8Palmtree4Math4Core8Internal16DecimalFromatter14FormatterTypeD20FormatNumberSequenceEPKwPNS2_12StringWriterE:
LFB5210:
	.loc 9 588 26
	.cfi_startproc
	pushl	%ebp
	.cfi_def_cfa_offset 8
	.cfi_offset 5, -8
	movl	%esp, %ebp
	.cfi_def_cfa_register 5
	pushl	%ebx
	subl	$36, %esp
	.cfi_offset 3, -12
	movl	%ecx, -12(%ebp)
	.loc 9 590 37
	movl	-12(%ebp), %eax
	movl	16(%eax), %ebx
	.loc 9 590 58
	movl	8(%ebp), %eax
	movl	%eax, (%esp)
	movl	__imp__lstrlenW@4, %eax
	call	*%eax
LVL82:
	subl	$4, %esp
	.loc 9 590 30
	cmpl	%eax, %ebx
	jle	L230
	.loc 9 590 82 discriminator 1
	movl	-12(%ebp), %eax
	movl	16(%eax), %ebx
	.loc 9 590 103 discriminator 1
	movl	8(%ebp), %eax
	movl	%eax, (%esp)
	movl	__imp__lstrlenW@4, %eax
	call	*%eax
LVL83:
	subl	$4, %esp
	.loc 9 590 93 discriminator 1
	subl	%eax, %ebx
	movl	%ebx, %eax
	.loc 9 590 30 discriminator 1
	movl	%eax, %edx
	jmp	L231
L230:
	.loc 9 590 30 is_stmt 0 discriminator 2
	movl	$0, %edx
L231:
	.loc 9 590 30 discriminator 4
	movl	12(%ebp), %eax
	movl	%edx, 4(%esp)
	movl	$48, (%esp)
	movl	%eax, %ecx
	call	__ZN8Palmtree4Math4Core8Internal12StringWriter5WriteEwj
	subl	$8, %esp
	.loc 9 591 50 is_stmt 1 discriminator 4
	movl	12(%ebp), %eax
	movl	(%eax), %eax
	addl	$4, %eax
	movl	(%eax), %eax
	.loc 9 591 30 discriminator 4
	movl	12(%ebp), %edx
	movl	8(%ebp), %ecx
	movl	%ecx, (%esp)
	movl	%edx, %ecx
	call	*%eax
LVL84:
	subl	$4, %esp
	.loc 9 592 13 discriminator 4
	nop
	movl	-4(%ebp), %ebx
	leave
	.cfi_restore 5
	.cfi_restore 3
	.cfi_def_cfa 4, 4
	ret	$8
	.cfi_endproc
LFE5210:
	.section	.text$_ZN8Palmtree4Math4Core8Internal16DecimalFromatter14FormatterTypeD11WriteSuffixEcPNS2_12StringWriterE,"x"
	.linkonce discard
	.align 2
	.globl	__ZN8Palmtree4Math4Core8Internal16DecimalFromatter14FormatterTypeD11WriteSuffixEcPNS2_12StringWriterE
	.def	__ZN8Palmtree4Math4Core8Internal16DecimalFromatter14FormatterTypeD11WriteSuffixEcPNS2_12StringWriterE;	.scl	2;	.type	32;	.endef
__ZN8Palmtree4Math4Core8Internal16DecimalFromatter14FormatterTypeD11WriteSuffixEcPNS2_12StringWriterE:
LFB5211:
	.loc 9 594 26
	.cfi_startproc
	pushl	%ebp
	.cfi_def_cfa_offset 8
	.cfi_offset 5, -8
	movl	%esp, %ebp
	.cfi_def_cfa_register 5
	subl	$8, %esp
	movl	%ecx, -4(%ebp)
	movl	8(%ebp), %eax
	movb	%al, -8(%ebp)
	.loc 9 596 13
	nop
	leave
	.cfi_restore 5
	.cfi_def_cfa 4, 4
	ret	$8
	.cfi_endproc
LFE5211:
	.section	.text$_ZN8Palmtree4Math4Core8Internal16DecimalFromatter14FormatterTypeEC1EwiPKNS2_28__tag_PMC_NUMBER_FORMAT_INFOE,"x"
	.linkonce discard
	.align 2
	.globl	__ZN8Palmtree4Math4Core8Internal16DecimalFromatter14FormatterTypeEC1EwiPKNS2_28__tag_PMC_NUMBER_FORMAT_INFOE
	.def	__ZN8Palmtree4Math4Core8Internal16DecimalFromatter14FormatterTypeEC1EwiPKNS2_28__tag_PMC_NUMBER_FORMAT_INFOE;	.scl	2;	.type	32;	.endef
__ZN8Palmtree4Math4Core8Internal16DecimalFromatter14FormatterTypeEC1EwiPKNS2_28__tag_PMC_NUMBER_FORMAT_INFOE:
LFB5214:
	.loc 9 603 13
	.cfi_startproc
	pushl	%ebp
	.cfi_def_cfa_offset 8
	.cfi_offset 5, -8
	movl	%esp, %ebp
	.cfi_def_cfa_register 5
	subl	$40, %esp
	movl	%ecx, -12(%ebp)
	movl	8(%ebp), %eax
	movw	%ax, -16(%ebp)
LBB50:
	.loc 9 604 71
	movl	-12(%ebp), %eax
	movzwl	-16(%ebp), %edx
	movl	16(%ebp), %ecx
	movl	%ecx, 8(%esp)
	movl	12(%ebp), %ecx
	movl	%ecx, 4(%esp)
	movl	%edx, (%esp)
	movl	%eax, %ecx
	call	__ZN8Palmtree4Math4Core8Internal16DecimalFromatter9FormatterC2EwiPKNS2_28__tag_PMC_NUMBER_FORMAT_INFOE
	subl	$12, %esp
	movl	$__ZTVN8Palmtree4Math4Core8Internal16DecimalFromatter14FormatterTypeEE+8, %edx
	movl	-12(%ebp), %eax
	movl	%edx, (%eax)
LBE50:
	.loc 9 606 13
	nop
	leave
	.cfi_restore 5
	.cfi_def_cfa 4, 4
	ret	$12
	.cfi_endproc
LFE5214:
	.section	.text$_ZN8Palmtree4Math4Core8Internal16DecimalFromatter14FormatterTypeE24GetDefaultPrecisionValueEv,"x"
	.linkonce discard
	.align 2
	.globl	__ZN8Palmtree4Math4Core8Internal16DecimalFromatter14FormatterTypeE24GetDefaultPrecisionValueEv
	.def	__ZN8Palmtree4Math4Core8Internal16DecimalFromatter14FormatterTypeE24GetDefaultPrecisionValueEv;	.scl	2;	.type	32;	.endef
__ZN8Palmtree4Math4Core8Internal16DecimalFromatter14FormatterTypeE24GetDefaultPrecisionValueEv:
LFB5215:
	.loc 9 609 25
	.cfi_startproc
	pushl	%ebp
	.cfi_def_cfa_offset 8
	.cfi_offset 5, -8
	movl	%esp, %ebp
	.cfi_def_cfa_register 5
	subl	$4, %esp
	movl	%ecx, -4(%ebp)
	.loc 9 611 26
	movl	$6, %eax
	.loc 9 612 13
	leave
	.cfi_restore 5
	.cfi_def_cfa 4, 4
	ret
	.cfi_endproc
LFE5215:
	.section .rdata,"dr"
	.align 2
LC7:
	.ascii "+\0"
	.ascii "0\0"
	.ascii "0\0"
	.ascii "0\0\0\0"
	.section	.text$_ZN8Palmtree4Math4Core8Internal16DecimalFromatter14FormatterTypeE14WriteZeroValueEPNS2_12StringWriterE,"x"
	.linkonce discard
	.align 2
	.globl	__ZN8Palmtree4Math4Core8Internal16DecimalFromatter14FormatterTypeE14WriteZeroValueEPNS2_12StringWriterE
	.def	__ZN8Palmtree4Math4Core8Internal16DecimalFromatter14FormatterTypeE14WriteZeroValueEPNS2_12StringWriterE;	.scl	2;	.type	32;	.endef
__ZN8Palmtree4Math4Core8Internal16DecimalFromatter14FormatterTypeE14WriteZeroValueEPNS2_12StringWriterE:
LFB5216:
	.loc 9 614 26
	.cfi_startproc
	pushl	%ebp
	.cfi_def_cfa_offset 8
	.cfi_offset 5, -8
	movl	%esp, %ebp
	.cfi_def_cfa_register 5
	subl	$40, %esp
	movl	%ecx, -12(%ebp)
	.loc 9 616 35
	movl	8(%ebp), %eax
	movl	(%eax), %eax
	movl	(%eax), %eax
	.loc 9 616 30
	movl	$48, (%esp)
	movl	8(%ebp), %ecx
	call	*%eax
LVL85:
	subl	$4, %esp
	.loc 9 617 21
	movl	-12(%ebp), %eax
	movl	16(%eax), %eax
	.loc 9 617 17
	testl	%eax, %eax
	jle	L237
	.loc 9 619 79
	movl	8(%ebp), %eax
	movl	(%eax), %eax
	addl	$4, %eax
	movl	(%eax), %eax
	.loc 9 619 35
	movl	-12(%ebp), %edx
	movl	20(%edx), %edx
	.loc 9 619 63
	addl	$108, %edx
	.loc 9 619 34
	movl	%edx, (%esp)
	movl	8(%ebp), %ecx
	call	*%eax
LVL86:
	subl	$4, %esp
	.loc 9 620 41
	movl	-12(%ebp), %eax
	movl	16(%eax), %eax
	.loc 9 620 34
	movl	%eax, 4(%esp)
	movl	$48, (%esp)
	movl	8(%ebp), %ecx
	call	__ZN8Palmtree4Math4Core8Internal12StringWriter5WriteEwj
	subl	$8, %esp
L237:
	.loc 9 622 43
	movl	8(%ebp), %eax
	movl	(%eax), %eax
	movl	(%eax), %eax
	.loc 9 622 31
	movl	-12(%ebp), %edx
	movzwl	12(%edx), %edx
	.loc 9 622 30
	movzwl	%dx, %edx
	movl	%edx, (%esp)
	movl	8(%ebp), %ecx
	call	*%eax
LVL87:
	subl	$4, %esp
	.loc 9 623 38
	movl	8(%ebp), %eax
	movl	(%eax), %eax
	addl	$4, %eax
	movl	(%eax), %eax
	.loc 9 623 30
	movl	$LC7, (%esp)
	movl	8(%ebp), %ecx
	call	*%eax
LVL88:
	subl	$4, %esp
	.loc 9 624 13
	nop
	leave
	.cfi_restore 5
	.cfi_def_cfa 4, 4
	ret	$4
	.cfi_endproc
LFE5216:
	.section	.text$_ZN8Palmtree4Math4Core8Internal16DecimalFromatter14FormatterTypeE16FormatInternallyEPNS2_19__tag_NUMBER_HEADEREPNS2_12StringWriterE,"x"
	.linkonce discard
	.align 2
	.globl	__ZN8Palmtree4Math4Core8Internal16DecimalFromatter14FormatterTypeE16FormatInternallyEPNS2_19__tag_NUMBER_HEADEREPNS2_12StringWriterE
	.def	__ZN8Palmtree4Math4Core8Internal16DecimalFromatter14FormatterTypeE16FormatInternallyEPNS2_19__tag_NUMBER_HEADEREPNS2_12StringWriterE;	.scl	2;	.type	32;	.endef
__ZN8Palmtree4Math4Core8Internal16DecimalFromatter14FormatterTypeE16FormatInternallyEPNS2_19__tag_NUMBER_HEADEREPNS2_12StringWriterE:
LFB5217:
	.loc 9 626 26
	.cfi_startproc
	.cfi_personality 0,___gxx_personality_v0
	.cfi_lsda 0,LLSDA5217
	pushl	%ebp
	.cfi_def_cfa_offset 8
	.cfi_offset 5, -8
	movl	%esp, %ebp
	.cfi_def_cfa_register 5
	pushl	%ebx
	subl	$68, %esp
	.cfi_offset 3, -12
	movl	%ecx, -44(%ebp)
	.loc 9 628 36
	leal	-36(%ebp), %eax
	movl	%eax, %ecx
LEHB9:
	call	__ZN8Palmtree4Math4Core8Internal18ResourceHolderUINTC1Ev
LEHE9:
	.loc 9 629 51
	movl	8(%ebp), %eax
	movl	%eax, (%esp)
LEHB10:
	call	__ZN8Palmtree4Math4Core8Internal19PMC_Floor_Log10_ImpEPNS2_19__tag_NUMBER_HEADERE
	movl	%eax, (%esp)
	call	__ZSt5floorIjEN9__gnu_cxx11__enable_ifIXsrSt12__is_integerIT_E7__valueEdE6__typeES3_
	.loc 9 629 38
	fnstcw	-46(%ebp)
	movzwl	-46(%ebp), %eax
	orb	$12, %ah
	movw	%ax, -48(%ebp)
	fldcw	-48(%ebp)
	fistpq	-56(%ebp)
	fldcw	-46(%ebp)
	movl	-56(%ebp), %eax
	movl	-52(%ebp), %edx
	.loc 9 629 82
	addl	$1, %eax
	movl	%eax, -12(%ebp)
LBB51:
	.loc 9 630 45
	movl	-44(%ebp), %eax
	movl	16(%eax), %eax
	.loc 9 630 56
	addl	$2, %eax
	.loc 9 630 17
	cmpl	%eax, -12(%ebp)
	jb	L239
LBB52:
	.loc 9 632 99
	movl	-44(%ebp), %eax
	movl	16(%eax), %eax
	movl	%eax, %edx
	.loc 9 632 97
	movl	-12(%ebp), %eax
	subl	%edx, %eax
	.loc 9 632 81
	subl	$2, %eax
	movl	%eax, 4(%esp)
	movl	$5, (%esp)
	call	__ZN8Palmtree4Math4Core8Internal27PMC_TimesOfExponentOf10_ImpEjj
	movl	%eax, -16(%ebp)
	.loc 9 633 36
	leal	-36(%ebp), %eax
	movl	-16(%ebp), %edx
	movl	%edx, (%esp)
	movl	%eax, %ecx
	call	__ZN8Palmtree4Math4Core8Internal18ResourceHolderUINT10HookNumberEPNS2_19__tag_NUMBER_HEADERE
	.loc 9 633 36 is_stmt 0 discriminator 1
	subl	$4, %esp
	.loc 9 634 56 is_stmt 1 discriminator 1
	movl	-16(%ebp), %eax
	movl	%eax, 4(%esp)
	movl	8(%ebp), %eax
	movl	%eax, (%esp)
	call	__ZN8Palmtree4Math4Core8Internal15PMC_Add_X_X_ImpEPNS2_19__tag_NUMBER_HEADERES4_
	.loc 9 634 56 is_stmt 0
	movl	%eax, -20(%ebp)
	.loc 9 635 36 is_stmt 1
	leal	-36(%ebp), %eax
	movl	-20(%ebp), %edx
	movl	%edx, (%esp)
	movl	%eax, %ecx
	call	__ZN8Palmtree4Math4Core8Internal18ResourceHolderUINT10HookNumberEPNS2_19__tag_NUMBER_HEADERE
	.loc 9 635 36 is_stmt 0 discriminator 1
	subl	$4, %esp
	.loc 9 636 48 is_stmt 1 discriminator 1
	movl	-44(%ebp), %eax
	movl	12(%ebp), %edx
	movl	%edx, 4(%esp)
	movl	-20(%ebp), %edx
	movl	%edx, (%esp)
	movl	%eax, %ecx
	call	__ZN8Palmtree4Math4Core8Internal16DecimalFromatter9Formatter16FormatInternallyEPNS2_19__tag_NUMBER_HEADEREPNS2_12StringWriterE
	.loc 9 636 48 is_stmt 0
	subl	$8, %esp
	jmp	L240
L239:
LBE52:
	.loc 9 639 48 is_stmt 1
	movl	-44(%ebp), %eax
	movl	12(%ebp), %edx
	movl	%edx, 4(%esp)
	movl	8(%ebp), %edx
	movl	%edx, (%esp)
	movl	%eax, %ecx
	call	__ZN8Palmtree4Math4Core8Internal16DecimalFromatter9Formatter16FormatInternallyEPNS2_19__tag_NUMBER_HEADEREPNS2_12StringWriterE
LEHE10:
	subl	$8, %esp
L240:
LBE51:
	.loc 9 628 36
	leal	-36(%ebp), %eax
	movl	%eax, %ecx
	call	__ZN8Palmtree4Math4Core8Internal18ResourceHolderUINTD1Ev
	.loc 9 640 13
	jmp	L244
L242:
	movl	%eax, %ebx
	.loc 9 628 36
	leal	-36(%ebp), %eax
	movl	%eax, %ecx
	call	__ZN8Palmtree4Math4Core8Internal18ResourceHolderUINTD1Ev
	movl	%ebx, %eax
	movl	%eax, (%esp)
LEHB11:
	call	__Unwind_Resume
LEHE11:
L244:
	.loc 9 640 13
	movl	-4(%ebp), %ebx
	leave
	.cfi_restore 5
	.cfi_restore 3
	.cfi_def_cfa 4, 4
	ret	$8
	.cfi_endproc
LFE5217:
	.section	.gcc_except_table,"w"
LLSDA5217:
	.byte	0xff
	.byte	0xff
	.byte	0x1
	.uleb128 LLSDACSE5217-LLSDACSB5217
LLSDACSB5217:
	.uleb128 LEHB9-LFB5217
	.uleb128 LEHE9-LEHB9
	.uleb128 0
	.uleb128 0
	.uleb128 LEHB10-LFB5217
	.uleb128 LEHE10-LEHB10
	.uleb128 L242-LFB5217
	.uleb128 0
	.uleb128 LEHB11-LFB5217
	.uleb128 LEHE11-LEHB11
	.uleb128 0
	.uleb128 0
LLSDACSE5217:
	.section	.text$_ZN8Palmtree4Math4Core8Internal16DecimalFromatter14FormatterTypeE16FormatInternallyEPNS2_19__tag_NUMBER_HEADEREPNS2_12StringWriterE,"x"
	.linkonce discard
	.section	.text$_ZN8Palmtree4Math4Core8Internal16DecimalFromatter14FormatterTypeE11WritePrefixEcPNS2_12StringWriterE,"x"
	.linkonce discard
	.align 2
	.globl	__ZN8Palmtree4Math4Core8Internal16DecimalFromatter14FormatterTypeE11WritePrefixEcPNS2_12StringWriterE
	.def	__ZN8Palmtree4Math4Core8Internal16DecimalFromatter14FormatterTypeE11WritePrefixEcPNS2_12StringWriterE;	.scl	2;	.type	32;	.endef
__ZN8Palmtree4Math4Core8Internal16DecimalFromatter14FormatterTypeE11WritePrefixEcPNS2_12StringWriterE:
LFB5218:
	.loc 9 642 26
	.cfi_startproc
	pushl	%ebp
	.cfi_def_cfa_offset 8
	.cfi_offset 5, -8
	movl	%esp, %ebp
	.cfi_def_cfa_register 5
	subl	$40, %esp
	movl	%ecx, -12(%ebp)
	movl	8(%ebp), %eax
	movb	%al, -16(%ebp)
	.loc 9 644 17
	cmpb	$0, -16(%ebp)
	jns	L247
	.loc 9 645 68
	movl	12(%ebp), %eax
	movl	(%eax), %eax
	addl	$4, %eax
	movl	(%eax), %eax
	.loc 9 645 35
	movl	-12(%ebp), %edx
	movl	20(%edx), %edx
	.loc 9 645 56
	leal	346(%edx), %ecx
	.loc 9 645 34
	movl	12(%ebp), %edx
	movl	%ecx, (%esp)
	movl	%edx, %ecx
	call	*%eax
LVL89:
	subl	$4, %esp
L247:
	.loc 9 646 13
	nop
	leave
	.cfi_restore 5
	.cfi_def_cfa 4, 4
	ret	$8
	.cfi_endproc
LFE5218:
	.section .rdata,"dr"
	.align 2
LC9:
	.ascii "%\0"
	.ascii "0\0"
	.ascii "3\0d\0\0\0"
	.section	.text$_ZN8Palmtree4Math4Core8Internal16DecimalFromatter14FormatterTypeE20FormatNumberSequenceEPKwPNS2_12StringWriterE,"x"
	.linkonce discard
	.align 2
	.globl	__ZN8Palmtree4Math4Core8Internal16DecimalFromatter14FormatterTypeE20FormatNumberSequenceEPKwPNS2_12StringWriterE
	.def	__ZN8Palmtree4Math4Core8Internal16DecimalFromatter14FormatterTypeE20FormatNumberSequenceEPKwPNS2_12StringWriterE;	.scl	2;	.type	32;	.endef
__ZN8Palmtree4Math4Core8Internal16DecimalFromatter14FormatterTypeE20FormatNumberSequenceEPKwPNS2_12StringWriterE:
LFB5219:
	.loc 9 648 26
	.cfi_startproc
	pushl	%ebp
	.cfi_def_cfa_offset 8
	.cfi_offset 5, -8
	movl	%esp, %ebp
	.cfi_def_cfa_register 5
	pushl	%ebx
	subl	$84, %esp
	.cfi_offset 3, -12
	movl	%ecx, -60(%ebp)
	.loc 9 650 56
	leal	-24(%ebp), %eax
	movl	8(%ebp), %edx
	movl	%edx, (%esp)
	movl	%eax, %ecx
	call	__ZN8Palmtree4Math4Core8Internal12StringReaderC1EPKw
	subl	$4, %esp
	.loc 9 651 52
	movl	12(%ebp), %eax
	movl	(%eax), %eax
	movl	(%eax), %ebx
	.loc 9 651 46
	leal	-24(%ebp), %eax
	movl	$48, (%esp)
	movl	%eax, %ecx
	call	__ZN8Palmtree4Math4Core8Internal12StringReader8ReadCharEw
	subl	$4, %esp
	.loc 9 651 30
	movzwl	%ax, %edx
	movl	12(%ebp), %eax
	movl	%edx, (%esp)
	movl	%eax, %ecx
	call	*%ebx
LVL90:
	subl	$4, %esp
LBB53:
	.loc 9 652 21
	movl	-60(%ebp), %eax
	movl	16(%eax), %eax
	.loc 9 652 17
	testl	%eax, %eax
	jle	L249
LBB54:
	.loc 9 654 79
	movl	12(%ebp), %eax
	movl	(%eax), %eax
	addl	$4, %eax
	movl	(%eax), %eax
	.loc 9 654 35
	movl	-60(%ebp), %edx
	movl	20(%edx), %edx
	.loc 9 654 63
	leal	108(%edx), %ecx
	.loc 9 654 34
	movl	12(%ebp), %edx
	movl	%ecx, (%esp)
	movl	%edx, %ecx
	call	*%eax
LVL91:
	subl	$4, %esp
LBB55:
	.loc 9 655 30
	movl	-60(%ebp), %eax
	movl	16(%eax), %eax
	movl	%eax, -12(%ebp)
L251:
	.loc 9 655 56 discriminator 1
	cmpl	$0, -12(%ebp)
	jle	L249
	.loc 9 656 60
	movl	12(%ebp), %eax
	movl	(%eax), %eax
	movl	(%eax), %ebx
	.loc 9 656 54
	leal	-24(%ebp), %eax
	movl	$48, (%esp)
	movl	%eax, %ecx
	call	__ZN8Palmtree4Math4Core8Internal12StringReader8ReadCharEw
	subl	$4, %esp
	.loc 9 656 38
	movzwl	%ax, %edx
	movl	12(%ebp), %eax
	movl	%edx, (%esp)
	movl	%eax, %ecx
	call	*%ebx
LVL92:
	subl	$4, %esp
	.loc 9 655 21
	subl	$1, -12(%ebp)
	jmp	L251
L249:
LBE55:
LBE54:
LBE53:
	.loc 9 658 43
	movl	12(%ebp), %eax
	movl	(%eax), %eax
	movl	(%eax), %eax
	.loc 9 658 31
	movl	-60(%ebp), %edx
	movzwl	12(%edx), %edx
	.loc 9 658 30
	movzwl	%dx, %ecx
	movl	12(%ebp), %edx
	movl	%ecx, (%esp)
	movl	%edx, %ecx
	call	*%eax
LVL93:
	subl	$4, %esp
	.loc 9 659 64
	movl	12(%ebp), %eax
	movl	(%eax), %eax
	addl	$4, %eax
	movl	(%eax), %eax
	.loc 9 659 31
	movl	-60(%ebp), %edx
	movl	20(%edx), %edx
	.loc 9 659 52
	leal	380(%edx), %ecx
	.loc 9 659 30
	movl	12(%ebp), %edx
	movl	%ecx, (%esp)
	movl	%edx, %ecx
	call	*%eax
LVL94:
	subl	$4, %esp
	.loc 9 660 51
	movl	8(%ebp), %eax
	movl	%eax, (%esp)
	movl	__imp__lstrlenW@4, %eax
	call	*%eax
LVL95:
	subl	$4, %esp
	.loc 9 660 73
	subl	$1, %eax
	.loc 9 660 75
	movl	%eax, -16(%ebp)
	.loc 9 674 26
	movl	-16(%ebp), %eax
	movl	%eax, 8(%esp)
	movl	$LC9, 4(%esp)
	leal	-46(%ebp), %eax
	movl	%eax, (%esp)
	movl	__imp__wsprintfW, %eax
	call	*%eax
LVL96:
	.loc 9 675 38
	movl	12(%ebp), %eax
	movl	(%eax), %eax
	addl	$4, %eax
	movl	(%eax), %eax
	.loc 9 675 30
	movl	12(%ebp), %edx
	leal	-46(%ebp), %ecx
	movl	%ecx, (%esp)
	movl	%edx, %ecx
	call	*%eax
LVL97:
	subl	$4, %esp
	.loc 9 676 13
	nop
	movl	-4(%ebp), %ebx
	leave
	.cfi_restore 5
	.cfi_restore 3
	.cfi_def_cfa 4, 4
	ret	$8
	.cfi_endproc
LFE5219:
	.section	.text$_ZN8Palmtree4Math4Core8Internal16DecimalFromatter14FormatterTypeE11WriteSuffixEcPNS2_12StringWriterE,"x"
	.linkonce discard
	.align 2
	.globl	__ZN8Palmtree4Math4Core8Internal16DecimalFromatter14FormatterTypeE11WriteSuffixEcPNS2_12StringWriterE
	.def	__ZN8Palmtree4Math4Core8Internal16DecimalFromatter14FormatterTypeE11WriteSuffixEcPNS2_12StringWriterE;	.scl	2;	.type	32;	.endef
__ZN8Palmtree4Math4Core8Internal16DecimalFromatter14FormatterTypeE11WriteSuffixEcPNS2_12StringWriterE:
LFB5220:
	.loc 9 678 26
	.cfi_startproc
	pushl	%ebp
	.cfi_def_cfa_offset 8
	.cfi_offset 5, -8
	movl	%esp, %ebp
	.cfi_def_cfa_register 5
	subl	$8, %esp
	movl	%ecx, -4(%ebp)
	movl	8(%ebp), %eax
	movb	%al, -8(%ebp)
	.loc 9 680 13
	nop
	leave
	.cfi_restore 5
	.cfi_def_cfa 4, 4
	ret	$8
	.cfi_endproc
LFE5220:
	.section	.text$_ZN8Palmtree4Math4Core8Internal16DecimalFromatter14FormatterTypeFC1EiPKNS2_28__tag_PMC_NUMBER_FORMAT_INFOE,"x"
	.linkonce discard
	.align 2
	.globl	__ZN8Palmtree4Math4Core8Internal16DecimalFromatter14FormatterTypeFC1EiPKNS2_28__tag_PMC_NUMBER_FORMAT_INFOE
	.def	__ZN8Palmtree4Math4Core8Internal16DecimalFromatter14FormatterTypeFC1EiPKNS2_28__tag_PMC_NUMBER_FORMAT_INFOE;	.scl	2;	.type	32;	.endef
__ZN8Palmtree4Math4Core8Internal16DecimalFromatter14FormatterTypeFC1EiPKNS2_28__tag_PMC_NUMBER_FORMAT_INFOE:
LFB5223:
	.loc 9 687 13
	.cfi_startproc
	pushl	%ebp
	.cfi_def_cfa_offset 8
	.cfi_offset 5, -8
	movl	%esp, %ebp
	.cfi_def_cfa_register 5
	subl	$40, %esp
	movl	%ecx, -12(%ebp)
LBB56:
	.loc 9 688 64
	movl	-12(%ebp), %eax
	movl	12(%ebp), %edx
	movl	%edx, 8(%esp)
	movl	8(%ebp), %edx
	movl	%edx, 4(%esp)
	movl	$70, (%esp)
	movl	%eax, %ecx
	call	__ZN8Palmtree4Math4Core8Internal16DecimalFromatter9FormatterC2EwiPKNS2_28__tag_PMC_NUMBER_FORMAT_INFOE
	subl	$12, %esp
	movl	$__ZTVN8Palmtree4Math4Core8Internal16DecimalFromatter14FormatterTypeFE+8, %edx
	movl	-12(%ebp), %eax
	movl	%edx, (%eax)
LBE56:
	.loc 9 690 13
	nop
	leave
	.cfi_restore 5
	.cfi_def_cfa 4, 4
	ret	$8
	.cfi_endproc
LFE5223:
	.section	.text$_ZN8Palmtree4Math4Core8Internal16DecimalFromatter14FormatterTypeF24GetDefaultPrecisionValueEv,"x"
	.linkonce discard
	.align 2
	.globl	__ZN8Palmtree4Math4Core8Internal16DecimalFromatter14FormatterTypeF24GetDefaultPrecisionValueEv
	.def	__ZN8Palmtree4Math4Core8Internal16DecimalFromatter14FormatterTypeF24GetDefaultPrecisionValueEv;	.scl	2;	.type	32;	.endef
__ZN8Palmtree4Math4Core8Internal16DecimalFromatter14FormatterTypeF24GetDefaultPrecisionValueEv:
LFB5224:
	.loc 9 693 25
	.cfi_startproc
	pushl	%ebp
	.cfi_def_cfa_offset 8
	.cfi_offset 5, -8
	movl	%esp, %ebp
	.cfi_def_cfa_register 5
	subl	$4, %esp
	movl	%ecx, -4(%ebp)
	.loc 9 695 25
	movl	-4(%ebp), %eax
	movl	20(%eax), %eax
	.loc 9 695 66
	movl	104(%eax), %eax
	.loc 9 696 13
	leave
	.cfi_restore 5
	.cfi_def_cfa 4, 4
	ret
	.cfi_endproc
LFE5224:
	.section	.text$_ZN8Palmtree4Math4Core8Internal16DecimalFromatter14FormatterTypeF14WriteZeroValueEPNS2_12StringWriterE,"x"
	.linkonce discard
	.align 2
	.globl	__ZN8Palmtree4Math4Core8Internal16DecimalFromatter14FormatterTypeF14WriteZeroValueEPNS2_12StringWriterE
	.def	__ZN8Palmtree4Math4Core8Internal16DecimalFromatter14FormatterTypeF14WriteZeroValueEPNS2_12StringWriterE;	.scl	2;	.type	32;	.endef
__ZN8Palmtree4Math4Core8Internal16DecimalFromatter14FormatterTypeF14WriteZeroValueEPNS2_12StringWriterE:
LFB5225:
	.loc 9 698 26
	.cfi_startproc
	pushl	%ebp
	.cfi_def_cfa_offset 8
	.cfi_offset 5, -8
	movl	%esp, %ebp
	.cfi_def_cfa_register 5
	subl	$40, %esp
	movl	%ecx, -12(%ebp)
	.loc 9 700 35
	movl	8(%ebp), %eax
	movl	(%eax), %eax
	movl	(%eax), %eax
	.loc 9 700 30
	movl	$48, (%esp)
	movl	8(%ebp), %ecx
	call	*%eax
LVL98:
	subl	$4, %esp
	.loc 9 701 21
	movl	-12(%ebp), %eax
	movl	16(%eax), %eax
	.loc 9 701 17
	testl	%eax, %eax
	jle	L258
	.loc 9 703 79
	movl	8(%ebp), %eax
	movl	(%eax), %eax
	addl	$4, %eax
	movl	(%eax), %eax
	.loc 9 703 35
	movl	-12(%ebp), %edx
	movl	20(%edx), %edx
	.loc 9 703 63
	addl	$108, %edx
	.loc 9 703 34
	movl	%edx, (%esp)
	movl	8(%ebp), %ecx
	call	*%eax
LVL99:
	subl	$4, %esp
	.loc 9 704 41
	movl	-12(%ebp), %eax
	movl	16(%eax), %eax
	.loc 9 704 34
	movl	%eax, 4(%esp)
	movl	$48, (%esp)
	movl	8(%ebp), %ecx
	call	__ZN8Palmtree4Math4Core8Internal12StringWriter5WriteEwj
	subl	$8, %esp
L258:
	.loc 9 706 13
	nop
	leave
	.cfi_restore 5
	.cfi_def_cfa 4, 4
	ret	$4
	.cfi_endproc
LFE5225:
	.section	.text$_ZN8Palmtree4Math4Core8Internal16DecimalFromatter14FormatterTypeF11WritePrefixEcPNS2_12StringWriterE,"x"
	.linkonce discard
	.align 2
	.globl	__ZN8Palmtree4Math4Core8Internal16DecimalFromatter14FormatterTypeF11WritePrefixEcPNS2_12StringWriterE
	.def	__ZN8Palmtree4Math4Core8Internal16DecimalFromatter14FormatterTypeF11WritePrefixEcPNS2_12StringWriterE;	.scl	2;	.type	32;	.endef
__ZN8Palmtree4Math4Core8Internal16DecimalFromatter14FormatterTypeF11WritePrefixEcPNS2_12StringWriterE:
LFB5226:
	.loc 9 708 26
	.cfi_startproc
	pushl	%ebp
	.cfi_def_cfa_offset 8
	.cfi_offset 5, -8
	movl	%esp, %ebp
	.cfi_def_cfa_register 5
	subl	$40, %esp
	movl	%ecx, -12(%ebp)
	movl	8(%ebp), %eax
	movb	%al, -16(%ebp)
	.loc 9 710 17
	cmpb	$0, -16(%ebp)
	jns	L261
	.loc 9 711 68
	movl	12(%ebp), %eax
	movl	(%eax), %eax
	addl	$4, %eax
	movl	(%eax), %eax
	.loc 9 711 35
	movl	-12(%ebp), %edx
	movl	20(%edx), %edx
	.loc 9 711 56
	leal	346(%edx), %ecx
	.loc 9 711 34
	movl	12(%ebp), %edx
	movl	%ecx, (%esp)
	movl	%edx, %ecx
	call	*%eax
LVL100:
	subl	$4, %esp
L261:
	.loc 9 712 13
	nop
	leave
	.cfi_restore 5
	.cfi_def_cfa 4, 4
	ret	$8
	.cfi_endproc
LFE5226:
	.section	.text$_ZN8Palmtree4Math4Core8Internal16DecimalFromatter14FormatterTypeF20FormatNumberSequenceEPKwPNS2_12StringWriterE,"x"
	.linkonce discard
	.align 2
	.globl	__ZN8Palmtree4Math4Core8Internal16DecimalFromatter14FormatterTypeF20FormatNumberSequenceEPKwPNS2_12StringWriterE
	.def	__ZN8Palmtree4Math4Core8Internal16DecimalFromatter14FormatterTypeF20FormatNumberSequenceEPKwPNS2_12StringWriterE;	.scl	2;	.type	32;	.endef
__ZN8Palmtree4Math4Core8Internal16DecimalFromatter14FormatterTypeF20FormatNumberSequenceEPKwPNS2_12StringWriterE:
LFB5227:
	.loc 9 714 26
	.cfi_startproc
	pushl	%ebp
	.cfi_def_cfa_offset 8
	.cfi_offset 5, -8
	movl	%esp, %ebp
	.cfi_def_cfa_register 5
	subl	$40, %esp
	movl	%ecx, -12(%ebp)
	.loc 9 716 50
	movl	12(%ebp), %eax
	movl	(%eax), %eax
	addl	$4, %eax
	movl	(%eax), %eax
	.loc 9 716 30
	movl	12(%ebp), %edx
	movl	8(%ebp), %ecx
	movl	%ecx, (%esp)
	movl	%edx, %ecx
	call	*%eax
LVL101:
	subl	$4, %esp
	.loc 9 717 21
	movl	-12(%ebp), %eax
	movl	16(%eax), %eax
	.loc 9 717 17
	testl	%eax, %eax
	jle	L264
	.loc 9 719 79
	movl	12(%ebp), %eax
	movl	(%eax), %eax
	addl	$4, %eax
	movl	(%eax), %eax
	.loc 9 719 35
	movl	-12(%ebp), %edx
	movl	20(%edx), %edx
	.loc 9 719 63
	leal	108(%edx), %ecx
	.loc 9 719 34
	movl	12(%ebp), %edx
	movl	%ecx, (%esp)
	movl	%edx, %ecx
	call	*%eax
LVL102:
	subl	$4, %esp
	.loc 9 720 41
	movl	-12(%ebp), %eax
	movl	16(%eax), %eax
	.loc 9 720 34
	movl	%eax, %edx
	movl	12(%ebp), %eax
	movl	%edx, 4(%esp)
	movl	$48, (%esp)
	movl	%eax, %ecx
	call	__ZN8Palmtree4Math4Core8Internal12StringWriter5WriteEwj
	subl	$8, %esp
L264:
	.loc 9 722 13
	nop
	leave
	.cfi_restore 5
	.cfi_def_cfa 4, 4
	ret	$8
	.cfi_endproc
LFE5227:
	.section	.text$_ZN8Palmtree4Math4Core8Internal16DecimalFromatter14FormatterTypeF11WriteSuffixEcPNS2_12StringWriterE,"x"
	.linkonce discard
	.align 2
	.globl	__ZN8Palmtree4Math4Core8Internal16DecimalFromatter14FormatterTypeF11WriteSuffixEcPNS2_12StringWriterE
	.def	__ZN8Palmtree4Math4Core8Internal16DecimalFromatter14FormatterTypeF11WriteSuffixEcPNS2_12StringWriterE;	.scl	2;	.type	32;	.endef
__ZN8Palmtree4Math4Core8Internal16DecimalFromatter14FormatterTypeF11WriteSuffixEcPNS2_12StringWriterE:
LFB5228:
	.loc 9 724 26
	.cfi_startproc
	pushl	%ebp
	.cfi_def_cfa_offset 8
	.cfi_offset 5, -8
	movl	%esp, %ebp
	.cfi_def_cfa_register 5
	subl	$8, %esp
	movl	%ecx, -4(%ebp)
	movl	8(%ebp), %eax
	movb	%al, -8(%ebp)
	.loc 9 726 13
	nop
	leave
	.cfi_restore 5
	.cfi_def_cfa 4, 4
	ret	$8
	.cfi_endproc
LFE5228:
	.section	.text$_ZN8Palmtree4Math4Core8Internal16DecimalFromatter14FormatterTypeNC1EiPKNS2_28__tag_PMC_NUMBER_FORMAT_INFOE,"x"
	.linkonce discard
	.align 2
	.globl	__ZN8Palmtree4Math4Core8Internal16DecimalFromatter14FormatterTypeNC1EiPKNS2_28__tag_PMC_NUMBER_FORMAT_INFOE
	.def	__ZN8Palmtree4Math4Core8Internal16DecimalFromatter14FormatterTypeNC1EiPKNS2_28__tag_PMC_NUMBER_FORMAT_INFOE;	.scl	2;	.type	32;	.endef
__ZN8Palmtree4Math4Core8Internal16DecimalFromatter14FormatterTypeNC1EiPKNS2_28__tag_PMC_NUMBER_FORMAT_INFOE:
LFB5231:
	.loc 9 733 13
	.cfi_startproc
	pushl	%ebp
	.cfi_def_cfa_offset 8
	.cfi_offset 5, -8
	movl	%esp, %ebp
	.cfi_def_cfa_register 5
	subl	$40, %esp
	movl	%ecx, -12(%ebp)
LBB57:
	.loc 9 734 64
	movl	-12(%ebp), %eax
	movl	12(%ebp), %edx
	movl	%edx, 8(%esp)
	movl	8(%ebp), %edx
	movl	%edx, 4(%esp)
	movl	$78, (%esp)
	movl	%eax, %ecx
	call	__ZN8Palmtree4Math4Core8Internal16DecimalFromatter9FormatterC2EwiPKNS2_28__tag_PMC_NUMBER_FORMAT_INFOE
	subl	$12, %esp
	movl	$__ZTVN8Palmtree4Math4Core8Internal16DecimalFromatter14FormatterTypeNE+8, %edx
	movl	-12(%ebp), %eax
	movl	%edx, (%eax)
LBE57:
	.loc 9 736 13
	nop
	leave
	.cfi_restore 5
	.cfi_def_cfa 4, 4
	ret	$8
	.cfi_endproc
LFE5231:
	.section	.text$_ZN8Palmtree4Math4Core8Internal16DecimalFromatter14FormatterTypeN24GetDefaultPrecisionValueEv,"x"
	.linkonce discard
	.align 2
	.globl	__ZN8Palmtree4Math4Core8Internal16DecimalFromatter14FormatterTypeN24GetDefaultPrecisionValueEv
	.def	__ZN8Palmtree4Math4Core8Internal16DecimalFromatter14FormatterTypeN24GetDefaultPrecisionValueEv;	.scl	2;	.type	32;	.endef
__ZN8Palmtree4Math4Core8Internal16DecimalFromatter14FormatterTypeN24GetDefaultPrecisionValueEv:
LFB5232:
	.loc 9 739 25
	.cfi_startproc
	pushl	%ebp
	.cfi_def_cfa_offset 8
	.cfi_offset 5, -8
	movl	%esp, %ebp
	.cfi_def_cfa_register 5
	subl	$4, %esp
	movl	%ecx, -4(%ebp)
	.loc 9 741 25
	movl	-4(%ebp), %eax
	movl	20(%eax), %eax
	.loc 9 741 66
	movl	104(%eax), %eax
	.loc 9 742 13
	leave
	.cfi_restore 5
	.cfi_def_cfa 4, 4
	ret
	.cfi_endproc
LFE5232:
	.section	.text$_ZN8Palmtree4Math4Core8Internal16DecimalFromatter14FormatterTypeN14WriteZeroValueEPNS2_12StringWriterE,"x"
	.linkonce discard
	.align 2
	.globl	__ZN8Palmtree4Math4Core8Internal16DecimalFromatter14FormatterTypeN14WriteZeroValueEPNS2_12StringWriterE
	.def	__ZN8Palmtree4Math4Core8Internal16DecimalFromatter14FormatterTypeN14WriteZeroValueEPNS2_12StringWriterE;	.scl	2;	.type	32;	.endef
__ZN8Palmtree4Math4Core8Internal16DecimalFromatter14FormatterTypeN14WriteZeroValueEPNS2_12StringWriterE:
LFB5233:
	.loc 9 744 26
	.cfi_startproc
	pushl	%ebp
	.cfi_def_cfa_offset 8
	.cfi_offset 5, -8
	movl	%esp, %ebp
	.cfi_def_cfa_register 5
	subl	$40, %esp
	movl	%ecx, -12(%ebp)
	.loc 9 746 35
	movl	8(%ebp), %eax
	movl	(%eax), %eax
	movl	(%eax), %eax
	.loc 9 746 30
	movl	$48, (%esp)
	movl	8(%ebp), %ecx
	call	*%eax
LVL103:
	subl	$4, %esp
	.loc 9 747 21
	movl	-12(%ebp), %eax
	movl	16(%eax), %eax
	.loc 9 747 17
	testl	%eax, %eax
	jle	L271
	.loc 9 749 79
	movl	8(%ebp), %eax
	movl	(%eax), %eax
	addl	$4, %eax
	movl	(%eax), %eax
	.loc 9 749 35
	movl	-12(%ebp), %edx
	movl	20(%edx), %edx
	.loc 9 749 63
	addl	$108, %edx
	.loc 9 749 34
	movl	%edx, (%esp)
	movl	8(%ebp), %ecx
	call	*%eax
LVL104:
	subl	$4, %esp
	.loc 9 750 41
	movl	-12(%ebp), %eax
	movl	16(%eax), %eax
	.loc 9 750 34
	movl	%eax, 4(%esp)
	movl	$48, (%esp)
	movl	8(%ebp), %ecx
	call	__ZN8Palmtree4Math4Core8Internal12StringWriter5WriteEwj
	subl	$8, %esp
L271:
	.loc 9 752 13
	nop
	leave
	.cfi_restore 5
	.cfi_def_cfa 4, 4
	ret	$4
	.cfi_endproc
LFE5233:
	.section	.text$_ZN8Palmtree4Math4Core8Internal16DecimalFromatter14FormatterTypeN11WritePrefixEcPNS2_12StringWriterE,"x"
	.linkonce discard
	.align 2
	.globl	__ZN8Palmtree4Math4Core8Internal16DecimalFromatter14FormatterTypeN11WritePrefixEcPNS2_12StringWriterE
	.def	__ZN8Palmtree4Math4Core8Internal16DecimalFromatter14FormatterTypeN11WritePrefixEcPNS2_12StringWriterE;	.scl	2;	.type	32;	.endef
__ZN8Palmtree4Math4Core8Internal16DecimalFromatter14FormatterTypeN11WritePrefixEcPNS2_12StringWriterE:
LFB5234:
	.loc 9 754 26
	.cfi_startproc
	pushl	%ebp
	.cfi_def_cfa_offset 8
	.cfi_offset 5, -8
	movl	%esp, %ebp
	.cfi_def_cfa_register 5
	subl	$40, %esp
	movl	%ecx, -12(%ebp)
	movl	8(%ebp), %eax
	movb	%al, -16(%ebp)
	.loc 9 756 17
	cmpb	$0, -16(%ebp)
	jns	L280
	.loc 9 761 29
	movl	-12(%ebp), %eax
	movl	20(%eax), %eax
	.loc 9 761 57
	movl	200(%eax), %eax
	cmpl	$2, %eax
	je	L274
	cmpl	$2, %eax
	jg	L275
	testl	%eax, %eax
	je	L276
	jmp	L277
L275:
	cmpl	$3, %eax
	je	L281
	cmpl	$4, %eax
	je	L282
	jmp	L277
L276:
	.loc 9 764 43
	movl	12(%ebp), %eax
	movl	(%eax), %eax
	movl	(%eax), %eax
	.loc 9 764 38
	movl	12(%ebp), %edx
	movl	$40, (%esp)
	movl	%edx, %ecx
	call	*%eax
LVL105:
	subl	$4, %esp
	.loc 9 765 25
	jmp	L273
L277:
	.loc 9 768 72
	movl	12(%ebp), %eax
	movl	(%eax), %eax
	addl	$4, %eax
	movl	(%eax), %eax
	.loc 9 768 39
	movl	-12(%ebp), %edx
	movl	20(%edx), %edx
	.loc 9 768 60
	leal	346(%edx), %ecx
	.loc 9 768 38
	movl	12(%ebp), %edx
	movl	%ecx, (%esp)
	movl	%edx, %ecx
	call	*%eax
LVL106:
	subl	$4, %esp
	.loc 9 769 25
	jmp	L273
L274:
	.loc 9 771 72
	movl	12(%ebp), %eax
	movl	(%eax), %eax
	addl	$4, %eax
	movl	(%eax), %eax
	.loc 9 771 39
	movl	-12(%ebp), %edx
	movl	20(%edx), %edx
	.loc 9 771 60
	leal	346(%edx), %ecx
	.loc 9 771 38
	movl	12(%ebp), %edx
	movl	%ecx, (%esp)
	movl	%edx, %ecx
	call	*%eax
LVL107:
	subl	$4, %esp
	.loc 9 772 43
	movl	12(%ebp), %eax
	movl	(%eax), %eax
	movl	(%eax), %eax
	.loc 9 772 38
	movl	12(%ebp), %edx
	movl	$32, (%esp)
	movl	%edx, %ecx
	call	*%eax
LVL108:
	subl	$4, %esp
	.loc 9 773 25
	jmp	L273
L281:
	.loc 9 775 25
	nop
	jmp	L280
L282:
	.loc 9 777 25
	nop
L273:
L280:
	.loc 9 780 13
	nop
	leave
	.cfi_restore 5
	.cfi_def_cfa 4, 4
	ret	$8
	.cfi_endproc
LFE5234:
	.section	.text$_ZN8Palmtree4Math4Core8Internal16DecimalFromatter14FormatterTypeN20FormatNumberSequenceEPKwPNS2_12StringWriterE,"x"
	.linkonce discard
	.align 2
	.globl	__ZN8Palmtree4Math4Core8Internal16DecimalFromatter14FormatterTypeN20FormatNumberSequenceEPKwPNS2_12StringWriterE
	.def	__ZN8Palmtree4Math4Core8Internal16DecimalFromatter14FormatterTypeN20FormatNumberSequenceEPKwPNS2_12StringWriterE;	.scl	2;	.type	32;	.endef
__ZN8Palmtree4Math4Core8Internal16DecimalFromatter14FormatterTypeN20FormatNumberSequenceEPKwPNS2_12StringWriterE:
LFB5235:
	.loc 9 782 26
	.cfi_startproc
	.cfi_personality 0,___gxx_personality_v0
	.cfi_lsda 0,LLSDA5235
	pushl	%ebp
	.cfi_def_cfa_offset 8
	.cfi_offset 5, -8
	movl	%esp, %ebp
	.cfi_def_cfa_register 5
	pushl	%ebx
	subl	$148, %esp
	.cfi_offset 3, -12
	movl	%ecx, -124(%ebp)
	.loc 9 784 36
	leal	-32(%ebp), %eax
	movl	%eax, %ecx
LEHB12:
	call	__ZN8Palmtree4Math4Core8Internal18ResourceHolderUINTC1Ev
LEHE12:
	.loc 9 785 65
	leal	-44(%ebp), %eax
	movl	8(%ebp), %edx
	movl	%edx, (%esp)
	movl	%eax, %ecx
LEHB13:
	call	__ZN8Palmtree4Math4Core8Internal19ReverseStringReaderC1EPKw
	subl	$4, %esp
	.loc 9 786 47
	movl	8(%ebp), %eax
	movl	%eax, (%esp)
	movl	__imp__lstrlenW@4, %eax
	call	*%eax
LVL109:
	subl	$4, %esp
	.loc 9 786 69
	addl	%eax, %eax
	.loc 9 786 73
	leal	1(%eax), %edx
	.loc 9 786 79
	movl	-124(%ebp), %eax
	movl	16(%eax), %eax
	.loc 9 786 77
	addl	%edx, %eax
	.loc 9 786 90
	addl	$1, %eax
	.loc 9 786 92
	movl	%eax, -12(%ebp)
	.loc 9 787 56
	leal	-32(%ebp), %eax
	movl	-12(%ebp), %edx
	movl	%edx, (%esp)
	movl	%eax, %ecx
	call	__ZN8Palmtree4Math4Core8Internal18ResourceHolderUINT14AllocateStringEj
	.loc 9 787 56 is_stmt 0 discriminator 1
	subl	$4, %esp
	movl	%eax, -16(%ebp)
	.loc 9 788 68 is_stmt 1 discriminator 1
	leal	-64(%ebp), %eax
	movl	-12(%ebp), %edx
	movl	%edx, 4(%esp)
	movl	-16(%ebp), %edx
	movl	%edx, (%esp)
	movl	%eax, %ecx
	call	__ZN8Palmtree4Math4Core8Internal19ReverseStringWriterC1EPwj
	subl	$8, %esp
	.loc 9 789 100 discriminator 1
	movl	-124(%ebp), %eax
	movl	20(%eax), %ecx
	.loc 9 789 67 discriminator 1
	movl	-124(%ebp), %eax
	movzwl	12(%eax), %eax
	.loc 9 789 100 discriminator 1
	movzwl	%ax, %edx
	leal	-108(%ebp), %eax
	movl	%ecx, 8(%esp)
	movl	%edx, 4(%esp)
	leal	-64(%ebp), %edx
	movl	%edx, (%esp)
	movl	%eax, %ecx
	call	__ZN8Palmtree4Math4Core8Internal16DecimalFromatter29ThousandSeparatedStringWriterC1EPNS2_12StringWriterEwPKNS2_28__tag_PMC_NUMBER_FORMAT_INFOE
	subl	$12, %esp
L285:
	.loc 9 790 41
	leal	-44(%ebp), %eax
	movl	%eax, %ecx
	call	__ZN8Palmtree4Math4Core8Internal19ReverseStringReader8PeekCharEv
	.loc 9 790 44
	testw	%ax, %ax
	setne	%al
	testb	%al, %al
	je	L284
	.loc 9 791 53
	leal	-44(%ebp), %eax
	movl	%eax, %ecx
	call	__ZN8Palmtree4Math4Core8Internal12StringReader8ReadCharEv
	.loc 9 791 35
	movzwl	%ax, %edx
	leal	-108(%ebp), %eax
	movl	%edx, (%esp)
	movl	%eax, %ecx
	call	__ZN8Palmtree4Math4Core8Internal16DecimalFromatter29ThousandSeparatedStringWriter5WriteEw
	.loc 9 791 35 is_stmt 0 discriminator 1
	subl	$4, %esp
	.loc 9 790 17 is_stmt 1 discriminator 1
	jmp	L285
L284:
	.loc 9 792 51
	movl	12(%ebp), %eax
	movl	(%eax), %eax
	addl	$4, %eax
	movl	(%eax), %ebx
	.loc 9 792 49
	leal	-108(%ebp), %eax
	movl	%eax, %ecx
	call	__ZN8Palmtree4Math4Core8Internal16DecimalFromatter29ThousandSeparatedStringWriter9GetStringEv
	movl	%eax, %edx
	.loc 9 792 30
	movl	12(%ebp), %eax
	movl	%edx, (%esp)
	movl	%eax, %ecx
	call	*%ebx
LVL110:
	.loc 9 792 30 is_stmt 0 discriminator 1
	subl	$4, %esp
	.loc 9 793 21 is_stmt 1 discriminator 1
	movl	-124(%ebp), %eax
	movl	16(%eax), %eax
	.loc 9 793 17 discriminator 1
	testl	%eax, %eax
	jle	L286
	.loc 9 795 79
	movl	12(%ebp), %eax
	movl	(%eax), %eax
	addl	$4, %eax
	movl	(%eax), %eax
	.loc 9 795 35
	movl	-124(%ebp), %edx
	movl	20(%edx), %edx
	.loc 9 795 63
	leal	108(%edx), %ecx
	.loc 9 795 34
	movl	12(%ebp), %edx
	movl	%ecx, (%esp)
	movl	%edx, %ecx
	call	*%eax
LVL111:
	subl	$4, %esp
	.loc 9 796 41
	movl	-124(%ebp), %eax
	movl	16(%eax), %eax
	.loc 9 796 34
	movl	%eax, %edx
	movl	12(%ebp), %eax
	movl	%edx, 4(%esp)
	movl	$48, (%esp)
	movl	%eax, %ecx
	call	__ZN8Palmtree4Math4Core8Internal12StringWriter5WriteEwj
LEHE13:
	subl	$8, %esp
L286:
	.loc 9 784 36
	leal	-32(%ebp), %eax
	movl	%eax, %ecx
	call	__ZN8Palmtree4Math4Core8Internal18ResourceHolderUINTD1Ev
	.loc 9 798 13
	jmp	L289
L288:
	movl	%eax, %ebx
	.loc 9 784 36
	leal	-32(%ebp), %eax
	movl	%eax, %ecx
	call	__ZN8Palmtree4Math4Core8Internal18ResourceHolderUINTD1Ev
	movl	%ebx, %eax
	movl	%eax, (%esp)
LEHB14:
	call	__Unwind_Resume
LEHE14:
L289:
	.loc 9 798 13
	movl	-4(%ebp), %ebx
	leave
	.cfi_restore 5
	.cfi_restore 3
	.cfi_def_cfa 4, 4
	ret	$8
	.cfi_endproc
LFE5235:
	.section	.gcc_except_table,"w"
LLSDA5235:
	.byte	0xff
	.byte	0xff
	.byte	0x1
	.uleb128 LLSDACSE5235-LLSDACSB5235
LLSDACSB5235:
	.uleb128 LEHB12-LFB5235
	.uleb128 LEHE12-LEHB12
	.uleb128 0
	.uleb128 0
	.uleb128 LEHB13-LFB5235
	.uleb128 LEHE13-LEHB13
	.uleb128 L288-LFB5235
	.uleb128 0
	.uleb128 LEHB14-LFB5235
	.uleb128 LEHE14-LEHB14
	.uleb128 0
	.uleb128 0
LLSDACSE5235:
	.section	.text$_ZN8Palmtree4Math4Core8Internal16DecimalFromatter14FormatterTypeN20FormatNumberSequenceEPKwPNS2_12StringWriterE,"x"
	.linkonce discard
	.section	.text$_ZN8Palmtree4Math4Core8Internal16DecimalFromatter14FormatterTypeN11WriteSuffixEcPNS2_12StringWriterE,"x"
	.linkonce discard
	.align 2
	.globl	__ZN8Palmtree4Math4Core8Internal16DecimalFromatter14FormatterTypeN11WriteSuffixEcPNS2_12StringWriterE
	.def	__ZN8Palmtree4Math4Core8Internal16DecimalFromatter14FormatterTypeN11WriteSuffixEcPNS2_12StringWriterE;	.scl	2;	.type	32;	.endef
__ZN8Palmtree4Math4Core8Internal16DecimalFromatter14FormatterTypeN11WriteSuffixEcPNS2_12StringWriterE:
LFB5236:
	.loc 9 800 26
	.cfi_startproc
	pushl	%ebp
	.cfi_def_cfa_offset 8
	.cfi_offset 5, -8
	movl	%esp, %ebp
	.cfi_def_cfa_register 5
	subl	$40, %esp
	movl	%ecx, -12(%ebp)
	movl	8(%ebp), %eax
	movb	%al, -16(%ebp)
	.loc 9 802 17
	cmpb	$0, -16(%ebp)
	jns	L298
	.loc 9 807 29
	movl	-12(%ebp), %eax
	movl	20(%eax), %eax
	.loc 9 807 59
	movl	96(%eax), %eax
	cmpl	$2, %eax
	je	L299
	cmpl	$2, %eax
	jg	L293
	testl	%eax, %eax
	je	L294
	.loc 9 814 25
	jmp	L291
L293:
	cmpl	$3, %eax
	je	L296
	cmpl	$4, %eax
	je	L297
	jmp	L291
L294:
	.loc 9 810 43
	movl	12(%ebp), %eax
	movl	(%eax), %eax
	movl	(%eax), %eax
	.loc 9 810 38
	movl	12(%ebp), %edx
	movl	$41, (%esp)
	movl	%edx, %ecx
	call	*%eax
LVL112:
	subl	$4, %esp
	.loc 9 811 25
	jmp	L291
L296:
	.loc 9 818 72
	movl	12(%ebp), %eax
	movl	(%eax), %eax
	addl	$4, %eax
	movl	(%eax), %eax
	.loc 9 818 39
	movl	-12(%ebp), %edx
	movl	20(%edx), %edx
	.loc 9 818 60
	leal	346(%edx), %ecx
	.loc 9 818 38
	movl	12(%ebp), %edx
	movl	%ecx, (%esp)
	movl	%edx, %ecx
	call	*%eax
LVL113:
	subl	$4, %esp
	.loc 9 819 25
	jmp	L291
L297:
	.loc 9 821 43
	movl	12(%ebp), %eax
	movl	(%eax), %eax
	movl	(%eax), %eax
	.loc 9 821 38
	movl	12(%ebp), %edx
	movl	$32, (%esp)
	movl	%edx, %ecx
	call	*%eax
LVL114:
	subl	$4, %esp
	.loc 9 822 72
	movl	12(%ebp), %eax
	movl	(%eax), %eax
	addl	$4, %eax
	movl	(%eax), %eax
	.loc 9 822 39
	movl	-12(%ebp), %edx
	movl	20(%edx), %edx
	.loc 9 822 60
	leal	346(%edx), %ecx
	.loc 9 822 38
	movl	12(%ebp), %edx
	movl	%ecx, (%esp)
	movl	%edx, %ecx
	call	*%eax
LVL115:
	subl	$4, %esp
	.loc 9 823 25
	jmp	L291
L299:
	.loc 9 816 25
	nop
L291:
L298:
	.loc 9 826 13
	nop
	leave
	.cfi_restore 5
	.cfi_def_cfa 4, 4
	ret	$8
	.cfi_endproc
LFE5236:
	.section	.text$_ZN8Palmtree4Math4Core8Internal16DecimalFromatter14FormatterTypePC1EiPKNS2_28__tag_PMC_NUMBER_FORMAT_INFOE,"x"
	.linkonce discard
	.align 2
	.globl	__ZN8Palmtree4Math4Core8Internal16DecimalFromatter14FormatterTypePC1EiPKNS2_28__tag_PMC_NUMBER_FORMAT_INFOE
	.def	__ZN8Palmtree4Math4Core8Internal16DecimalFromatter14FormatterTypePC1EiPKNS2_28__tag_PMC_NUMBER_FORMAT_INFOE;	.scl	2;	.type	32;	.endef
__ZN8Palmtree4Math4Core8Internal16DecimalFromatter14FormatterTypePC1EiPKNS2_28__tag_PMC_NUMBER_FORMAT_INFOE:
LFB5239:
	.loc 9 833 13
	.cfi_startproc
	pushl	%ebp
	.cfi_def_cfa_offset 8
	.cfi_offset 5, -8
	movl	%esp, %ebp
	.cfi_def_cfa_register 5
	subl	$40, %esp
	movl	%ecx, -12(%ebp)
LBB58:
	.loc 9 834 64
	movl	-12(%ebp), %eax
	movl	12(%ebp), %edx
	movl	%edx, 8(%esp)
	movl	8(%ebp), %edx
	movl	%edx, 4(%esp)
	movl	$80, (%esp)
	movl	%eax, %ecx
	call	__ZN8Palmtree4Math4Core8Internal16DecimalFromatter9FormatterC2EwiPKNS2_28__tag_PMC_NUMBER_FORMAT_INFOE
	subl	$12, %esp
	movl	$__ZTVN8Palmtree4Math4Core8Internal16DecimalFromatter14FormatterTypePE+8, %edx
	movl	-12(%ebp), %eax
	movl	%edx, (%eax)
LBE58:
	.loc 9 836 13
	nop
	leave
	.cfi_restore 5
	.cfi_def_cfa 4, 4
	ret	$8
	.cfi_endproc
LFE5239:
	.section	.text$_ZN8Palmtree4Math4Core8Internal16DecimalFromatter14FormatterTypeP24GetDefaultPrecisionValueEv,"x"
	.linkonce discard
	.align 2
	.globl	__ZN8Palmtree4Math4Core8Internal16DecimalFromatter14FormatterTypeP24GetDefaultPrecisionValueEv
	.def	__ZN8Palmtree4Math4Core8Internal16DecimalFromatter14FormatterTypeP24GetDefaultPrecisionValueEv;	.scl	2;	.type	32;	.endef
__ZN8Palmtree4Math4Core8Internal16DecimalFromatter14FormatterTypeP24GetDefaultPrecisionValueEv:
LFB5240:
	.loc 9 839 25
	.cfi_startproc
	pushl	%ebp
	.cfi_def_cfa_offset 8
	.cfi_offset 5, -8
	movl	%esp, %ebp
	.cfi_def_cfa_register 5
	subl	$4, %esp
	movl	%ecx, -4(%ebp)
	.loc 9 841 25
	movl	-4(%ebp), %eax
	movl	20(%eax), %eax
	.loc 9 841 68
	movl	(%eax), %eax
	.loc 9 842 13
	leave
	.cfi_restore 5
	.cfi_def_cfa 4, 4
	ret
	.cfi_endproc
LFE5240:
	.section	.text$_ZN8Palmtree4Math4Core8Internal16DecimalFromatter14FormatterTypeP14WriteZeroValueEPNS2_12StringWriterE,"x"
	.linkonce discard
	.align 2
	.globl	__ZN8Palmtree4Math4Core8Internal16DecimalFromatter14FormatterTypeP14WriteZeroValueEPNS2_12StringWriterE
	.def	__ZN8Palmtree4Math4Core8Internal16DecimalFromatter14FormatterTypeP14WriteZeroValueEPNS2_12StringWriterE;	.scl	2;	.type	32;	.endef
__ZN8Palmtree4Math4Core8Internal16DecimalFromatter14FormatterTypeP14WriteZeroValueEPNS2_12StringWriterE:
LFB5241:
	.loc 9 844 26
	.cfi_startproc
	pushl	%ebp
	.cfi_def_cfa_offset 8
	.cfi_offset 5, -8
	movl	%esp, %ebp
	.cfi_def_cfa_register 5
	subl	$40, %esp
	movl	%ecx, -12(%ebp)
	.loc 9 846 35
	movl	8(%ebp), %eax
	movl	(%eax), %eax
	movl	(%eax), %eax
	.loc 9 846 30
	movl	$48, (%esp)
	movl	8(%ebp), %ecx
	call	*%eax
LVL116:
	subl	$4, %esp
	.loc 9 847 21
	movl	-12(%ebp), %eax
	movl	16(%eax), %eax
	.loc 9 847 17
	testl	%eax, %eax
	jle	L305
	.loc 9 849 81
	movl	8(%ebp), %eax
	movl	(%eax), %eax
	addl	$4, %eax
	movl	(%eax), %eax
	.loc 9 849 35
	movl	-12(%ebp), %edx
	movl	20(%edx), %edx
	.loc 9 849 65
	addl	$4, %edx
	.loc 9 849 34
	movl	%edx, (%esp)
	movl	8(%ebp), %ecx
	call	*%eax
LVL117:
	subl	$4, %esp
	.loc 9 850 41
	movl	-12(%ebp), %eax
	movl	16(%eax), %eax
	.loc 9 850 34
	movl	%eax, 4(%esp)
	movl	$48, (%esp)
	movl	8(%ebp), %ecx
	call	__ZN8Palmtree4Math4Core8Internal12StringWriter5WriteEwj
	subl	$8, %esp
L305:
	.loc 9 852 13
	nop
	leave
	.cfi_restore 5
	.cfi_def_cfa 4, 4
	ret	$4
	.cfi_endproc
LFE5241:
	.section	.text$_ZN8Palmtree4Math4Core8Internal16DecimalFromatter14FormatterTypeP16FormatInternallyEPNS2_19__tag_NUMBER_HEADEREPNS2_12StringWriterE,"x"
	.linkonce discard
	.align 2
	.globl	__ZN8Palmtree4Math4Core8Internal16DecimalFromatter14FormatterTypeP16FormatInternallyEPNS2_19__tag_NUMBER_HEADEREPNS2_12StringWriterE
	.def	__ZN8Palmtree4Math4Core8Internal16DecimalFromatter14FormatterTypeP16FormatInternallyEPNS2_19__tag_NUMBER_HEADEREPNS2_12StringWriterE;	.scl	2;	.type	32;	.endef
__ZN8Palmtree4Math4Core8Internal16DecimalFromatter14FormatterTypeP16FormatInternallyEPNS2_19__tag_NUMBER_HEADEREPNS2_12StringWriterE:
LFB5242:
	.loc 9 854 26
	.cfi_startproc
	.cfi_personality 0,___gxx_personality_v0
	.cfi_lsda 0,LLSDA5242
	pushl	%ebp
	.cfi_def_cfa_offset 8
	.cfi_offset 5, -8
	movl	%esp, %ebp
	.cfi_def_cfa_register 5
	pushl	%ebx
	subl	$68, %esp
	.cfi_offset 3, -12
	movl	%ecx, -44(%ebp)
	.loc 9 856 36
	leal	-28(%ebp), %eax
	movl	%eax, %ecx
LEHB15:
	call	__ZN8Palmtree4Math4Core8Internal18ResourceHolderUINTC1Ev
LEHE15:
	.loc 9 857 61
	movl	$100, 4(%esp)
	movl	8(%ebp), %eax
	movl	%eax, (%esp)
LEHB16:
	call	__ZN8Palmtree4Math4Core8Internal20PMC_Multiply_X_I_ImpEPNS2_19__tag_NUMBER_HEADEREj
	movl	%eax, -12(%ebp)
	.loc 9 858 32
	leal	-28(%ebp), %eax
	movl	-12(%ebp), %edx
	movl	%edx, (%esp)
	movl	%eax, %ecx
	call	__ZN8Palmtree4Math4Core8Internal18ResourceHolderUINT10HookNumberEPNS2_19__tag_NUMBER_HEADERE
	.loc 9 858 32 is_stmt 0 discriminator 1
	subl	$4, %esp
	.loc 9 859 44 is_stmt 1 discriminator 1
	movl	-44(%ebp), %eax
	movl	12(%ebp), %edx
	movl	%edx, 4(%esp)
	movl	-12(%ebp), %edx
	movl	%edx, (%esp)
	movl	%eax, %ecx
	call	__ZN8Palmtree4Math4Core8Internal16DecimalFromatter9Formatter16FormatInternallyEPNS2_19__tag_NUMBER_HEADEREPNS2_12StringWriterE
LEHE16:
	.loc 9 859 44 is_stmt 0
	subl	$8, %esp
	.loc 9 856 36 is_stmt 1
	leal	-28(%ebp), %eax
	movl	%eax, %ecx
	call	__ZN8Palmtree4Math4Core8Internal18ResourceHolderUINTD1Ev
	.loc 9 860 13
	jmp	L309
L308:
	movl	%eax, %ebx
	.loc 9 856 36
	leal	-28(%ebp), %eax
	movl	%eax, %ecx
	call	__ZN8Palmtree4Math4Core8Internal18ResourceHolderUINTD1Ev
	movl	%ebx, %eax
	movl	%eax, (%esp)
LEHB17:
	call	__Unwind_Resume
LEHE17:
L309:
	.loc 9 860 13
	movl	-4(%ebp), %ebx
	leave
	.cfi_restore 5
	.cfi_restore 3
	.cfi_def_cfa 4, 4
	ret	$8
	.cfi_endproc
LFE5242:
	.section	.gcc_except_table,"w"
LLSDA5242:
	.byte	0xff
	.byte	0xff
	.byte	0x1
	.uleb128 LLSDACSE5242-LLSDACSB5242
LLSDACSB5242:
	.uleb128 LEHB15-LFB5242
	.uleb128 LEHE15-LEHB15
	.uleb128 0
	.uleb128 0
	.uleb128 LEHB16-LFB5242
	.uleb128 LEHE16-LEHB16
	.uleb128 L308-LFB5242
	.uleb128 0
	.uleb128 LEHB17-LFB5242
	.uleb128 LEHE17-LEHB17
	.uleb128 0
	.uleb128 0
LLSDACSE5242:
	.section	.text$_ZN8Palmtree4Math4Core8Internal16DecimalFromatter14FormatterTypeP16FormatInternallyEPNS2_19__tag_NUMBER_HEADEREPNS2_12StringWriterE,"x"
	.linkonce discard
	.section	.text$_ZN8Palmtree4Math4Core8Internal16DecimalFromatter14FormatterTypeP11WritePrefixEcPNS2_12StringWriterE,"x"
	.linkonce discard
	.align 2
	.globl	__ZN8Palmtree4Math4Core8Internal16DecimalFromatter14FormatterTypeP11WritePrefixEcPNS2_12StringWriterE
	.def	__ZN8Palmtree4Math4Core8Internal16DecimalFromatter14FormatterTypeP11WritePrefixEcPNS2_12StringWriterE;	.scl	2;	.type	32;	.endef
__ZN8Palmtree4Math4Core8Internal16DecimalFromatter14FormatterTypeP11WritePrefixEcPNS2_12StringWriterE:
LFB5243:
	.loc 9 862 26
	.cfi_startproc
	pushl	%ebp
	.cfi_def_cfa_offset 8
	.cfi_offset 5, -8
	movl	%esp, %ebp
	.cfi_def_cfa_register 5
	subl	$40, %esp
	movl	%ecx, -12(%ebp)
	movl	8(%ebp), %eax
	movb	%al, -16(%ebp)
	.loc 9 864 17
	cmpb	$0, -16(%ebp)
	js	L311
	.loc 9 866 29
	movl	-12(%ebp), %eax
	movl	20(%eax), %eax
	.loc 9 866 58
	movl	308(%eax), %eax
	cmpl	$2, %eax
	je	L312
	cmpl	$3, %eax
	je	L313
	cmpl	$1, %eax
	.loc 9 872 25
	jmp	L316
L312:
	.loc 9 874 73
	movl	12(%ebp), %eax
	movl	(%eax), %eax
	addl	$4, %eax
	movl	(%eax), %eax
	.loc 9 874 39
	movl	-12(%ebp), %edx
	movl	20(%edx), %edx
	.loc 9 874 60
	leal	414(%edx), %ecx
	.loc 9 874 38
	movl	12(%ebp), %edx
	movl	%ecx, (%esp)
	movl	%edx, %ecx
	call	*%eax
LVL118:
	subl	$4, %esp
	.loc 9 875 25
	jmp	L316
L313:
	.loc 9 877 73
	movl	12(%ebp), %eax
	movl	(%eax), %eax
	addl	$4, %eax
	movl	(%eax), %eax
	.loc 9 877 39
	movl	-12(%ebp), %edx
	movl	20(%edx), %edx
	.loc 9 877 60
	leal	414(%edx), %ecx
	.loc 9 877 38
	movl	12(%ebp), %edx
	movl	%ecx, (%esp)
	movl	%edx, %ecx
	call	*%eax
LVL119:
	subl	$4, %esp
	.loc 9 878 43
	movl	12(%ebp), %eax
	movl	(%eax), %eax
	movl	(%eax), %eax
	.loc 9 878 38
	movl	12(%ebp), %edx
	movl	$32, (%esp)
	movl	%edx, %ecx
	call	*%eax
LVL120:
	subl	$4, %esp
	.loc 9 879 25
	nop
	jmp	L316
L311:
	.loc 9 884 29
	movl	-12(%ebp), %eax
	movl	20(%eax), %eax
	.loc 9 884 58
	movl	304(%eax), %eax
	.loc 9 884 21
	cmpl	$11, %eax
	ja	L317
	movl	L319(,%eax,4), %eax
	jmp	*%eax
	.section .rdata,"dr"
	.align 4
L319:
	.long	L317
	.long	L329
	.long	L328
	.long	L327
	.long	L326
	.long	L330
	.long	L330
	.long	L323
	.long	L330
	.long	L321
	.long	L320
	.long	L330
	.section	.text$_ZN8Palmtree4Math4Core8Internal16DecimalFromatter14FormatterTypeP11WritePrefixEcPNS2_12StringWriterE,"x"
	.linkonce discard
L317:
	.loc 9 888 72
	movl	12(%ebp), %eax
	movl	(%eax), %eax
	addl	$4, %eax
	movl	(%eax), %eax
	.loc 9 888 39
	movl	-12(%ebp), %edx
	movl	20(%edx), %edx
	.loc 9 888 60
	leal	346(%edx), %ecx
	.loc 9 888 38
	movl	12(%ebp), %edx
	movl	%ecx, (%esp)
	movl	%edx, %ecx
	call	*%eax
LVL121:
	subl	$4, %esp
	.loc 9 889 25
	jmp	L316
L329:
	.loc 9 891 72
	movl	12(%ebp), %eax
	movl	(%eax), %eax
	addl	$4, %eax
	movl	(%eax), %eax
	.loc 9 891 39
	movl	-12(%ebp), %edx
	movl	20(%edx), %edx
	.loc 9 891 60
	leal	346(%edx), %ecx
	.loc 9 891 38
	movl	12(%ebp), %edx
	movl	%ecx, (%esp)
	movl	%edx, %ecx
	call	*%eax
LVL122:
	subl	$4, %esp
	.loc 9 892 25
	jmp	L316
L328:
	.loc 9 894 72
	movl	12(%ebp), %eax
	movl	(%eax), %eax
	addl	$4, %eax
	movl	(%eax), %eax
	.loc 9 894 39
	movl	-12(%ebp), %edx
	movl	20(%edx), %edx
	.loc 9 894 60
	leal	346(%edx), %ecx
	.loc 9 894 38
	movl	12(%ebp), %edx
	movl	%ecx, (%esp)
	movl	%edx, %ecx
	call	*%eax
LVL123:
	subl	$4, %esp
	.loc 9 895 73
	movl	12(%ebp), %eax
	movl	(%eax), %eax
	addl	$4, %eax
	movl	(%eax), %eax
	.loc 9 895 39
	movl	-12(%ebp), %edx
	movl	20(%edx), %edx
	.loc 9 895 60
	leal	414(%edx), %ecx
	.loc 9 895 38
	movl	12(%ebp), %edx
	movl	%ecx, (%esp)
	movl	%edx, %ecx
	call	*%eax
LVL124:
	subl	$4, %esp
	.loc 9 896 25
	jmp	L316
L327:
	.loc 9 898 73
	movl	12(%ebp), %eax
	movl	(%eax), %eax
	addl	$4, %eax
	movl	(%eax), %eax
	.loc 9 898 39
	movl	-12(%ebp), %edx
	movl	20(%edx), %edx
	.loc 9 898 60
	leal	414(%edx), %ecx
	.loc 9 898 38
	movl	12(%ebp), %edx
	movl	%ecx, (%esp)
	movl	%edx, %ecx
	call	*%eax
LVL125:
	subl	$4, %esp
	.loc 9 899 72
	movl	12(%ebp), %eax
	movl	(%eax), %eax
	addl	$4, %eax
	movl	(%eax), %eax
	.loc 9 899 39
	movl	-12(%ebp), %edx
	movl	20(%edx), %edx
	.loc 9 899 60
	leal	346(%edx), %ecx
	.loc 9 899 38
	movl	12(%ebp), %edx
	movl	%ecx, (%esp)
	movl	%edx, %ecx
	call	*%eax
LVL126:
	subl	$4, %esp
	.loc 9 900 25
	jmp	L316
L326:
	.loc 9 902 73
	movl	12(%ebp), %eax
	movl	(%eax), %eax
	addl	$4, %eax
	movl	(%eax), %eax
	.loc 9 902 39
	movl	-12(%ebp), %edx
	movl	20(%edx), %edx
	.loc 9 902 60
	leal	414(%edx), %ecx
	.loc 9 902 38
	movl	12(%ebp), %edx
	movl	%ecx, (%esp)
	movl	%edx, %ecx
	call	*%eax
LVL127:
	subl	$4, %esp
	.loc 9 903 25
	jmp	L316
L323:
	.loc 9 909 72
	movl	12(%ebp), %eax
	movl	(%eax), %eax
	addl	$4, %eax
	movl	(%eax), %eax
	.loc 9 909 39
	movl	-12(%ebp), %edx
	movl	20(%edx), %edx
	.loc 9 909 60
	leal	346(%edx), %ecx
	.loc 9 909 38
	movl	12(%ebp), %edx
	movl	%ecx, (%esp)
	movl	%edx, %ecx
	call	*%eax
LVL128:
	subl	$4, %esp
	.loc 9 910 73
	movl	12(%ebp), %eax
	movl	(%eax), %eax
	addl	$4, %eax
	movl	(%eax), %eax
	.loc 9 910 39
	movl	-12(%ebp), %edx
	movl	20(%edx), %edx
	.loc 9 910 60
	leal	414(%edx), %ecx
	.loc 9 910 38
	movl	12(%ebp), %edx
	movl	%ecx, (%esp)
	movl	%edx, %ecx
	call	*%eax
LVL129:
	subl	$4, %esp
	.loc 9 911 43
	movl	12(%ebp), %eax
	movl	(%eax), %eax
	movl	(%eax), %eax
	.loc 9 911 38
	movl	12(%ebp), %edx
	movl	$32, (%esp)
	movl	%edx, %ecx
	call	*%eax
LVL130:
	subl	$4, %esp
	.loc 9 912 25
	jmp	L316
L321:
	.loc 9 916 73
	movl	12(%ebp), %eax
	movl	(%eax), %eax
	addl	$4, %eax
	movl	(%eax), %eax
	.loc 9 916 39
	movl	-12(%ebp), %edx
	movl	20(%edx), %edx
	.loc 9 916 60
	leal	414(%edx), %ecx
	.loc 9 916 38
	movl	12(%ebp), %edx
	movl	%ecx, (%esp)
	movl	%edx, %ecx
	call	*%eax
LVL131:
	subl	$4, %esp
	.loc 9 917 43
	movl	12(%ebp), %eax
	movl	(%eax), %eax
	movl	(%eax), %eax
	.loc 9 917 38
	movl	12(%ebp), %edx
	movl	$32, (%esp)
	movl	%edx, %ecx
	call	*%eax
LVL132:
	subl	$4, %esp
	.loc 9 918 25
	jmp	L316
L320:
	.loc 9 920 73
	movl	12(%ebp), %eax
	movl	(%eax), %eax
	addl	$4, %eax
	movl	(%eax), %eax
	.loc 9 920 39
	movl	-12(%ebp), %edx
	movl	20(%edx), %edx
	.loc 9 920 60
	leal	414(%edx), %ecx
	.loc 9 920 38
	movl	12(%ebp), %edx
	movl	%ecx, (%esp)
	movl	%edx, %ecx
	call	*%eax
LVL133:
	subl	$4, %esp
	.loc 9 921 43
	movl	12(%ebp), %eax
	movl	(%eax), %eax
	movl	(%eax), %eax
	.loc 9 921 38
	movl	12(%ebp), %edx
	movl	$32, (%esp)
	movl	%edx, %ecx
	call	*%eax
LVL134:
	subl	$4, %esp
	.loc 9 922 72
	movl	12(%ebp), %eax
	movl	(%eax), %eax
	addl	$4, %eax
	movl	(%eax), %eax
	.loc 9 922 39
	movl	-12(%ebp), %edx
	movl	20(%edx), %edx
	.loc 9 922 60
	leal	346(%edx), %ecx
	.loc 9 922 38
	movl	12(%ebp), %edx
	movl	%ecx, (%esp)
	movl	%edx, %ecx
	call	*%eax
LVL135:
	subl	$4, %esp
	.loc 9 923 25
	jmp	L316
L330:
	.loc 9 905 25
	nop
L316:
	.loc 9 928 13
	nop
	leave
	.cfi_restore 5
	.cfi_def_cfa 4, 4
	ret	$8
	.cfi_endproc
LFE5243:
	.section	.text$_ZN8Palmtree4Math4Core8Internal16DecimalFromatter14FormatterTypeP20FormatNumberSequenceEPKwPNS2_12StringWriterE,"x"
	.linkonce discard
	.align 2
	.globl	__ZN8Palmtree4Math4Core8Internal16DecimalFromatter14FormatterTypeP20FormatNumberSequenceEPKwPNS2_12StringWriterE
	.def	__ZN8Palmtree4Math4Core8Internal16DecimalFromatter14FormatterTypeP20FormatNumberSequenceEPKwPNS2_12StringWriterE;	.scl	2;	.type	32;	.endef
__ZN8Palmtree4Math4Core8Internal16DecimalFromatter14FormatterTypeP20FormatNumberSequenceEPKwPNS2_12StringWriterE:
LFB5244:
	.loc 9 930 26
	.cfi_startproc
	.cfi_personality 0,___gxx_personality_v0
	.cfi_lsda 0,LLSDA5244
	pushl	%ebp
	.cfi_def_cfa_offset 8
	.cfi_offset 5, -8
	movl	%esp, %ebp
	.cfi_def_cfa_register 5
	pushl	%ebx
	subl	$148, %esp
	.cfi_offset 3, -12
	movl	%ecx, -124(%ebp)
	.loc 9 932 36
	leal	-32(%ebp), %eax
	movl	%eax, %ecx
LEHB18:
	call	__ZN8Palmtree4Math4Core8Internal18ResourceHolderUINTC1Ev
LEHE18:
	.loc 9 933 65
	leal	-44(%ebp), %eax
	movl	8(%ebp), %edx
	movl	%edx, (%esp)
	movl	%eax, %ecx
LEHB19:
	call	__ZN8Palmtree4Math4Core8Internal19ReverseStringReaderC1EPKw
	subl	$4, %esp
	.loc 9 934 47
	movl	8(%ebp), %eax
	movl	%eax, (%esp)
	movl	__imp__lstrlenW@4, %eax
	call	*%eax
LVL136:
	subl	$4, %esp
	.loc 9 934 69
	addl	%eax, %eax
	.loc 9 934 73
	leal	1(%eax), %edx
	.loc 9 934 79
	movl	-124(%ebp), %eax
	movl	16(%eax), %eax
	.loc 9 934 77
	addl	%edx, %eax
	.loc 9 934 90
	addl	$1, %eax
	.loc 9 934 92
	movl	%eax, -12(%ebp)
	.loc 9 935 56
	leal	-32(%ebp), %eax
	movl	-12(%ebp), %edx
	movl	%edx, (%esp)
	movl	%eax, %ecx
	call	__ZN8Palmtree4Math4Core8Internal18ResourceHolderUINT14AllocateStringEj
	.loc 9 935 56 is_stmt 0 discriminator 1
	subl	$4, %esp
	movl	%eax, -16(%ebp)
	.loc 9 936 68 is_stmt 1 discriminator 1
	leal	-64(%ebp), %eax
	movl	-12(%ebp), %edx
	movl	%edx, 4(%esp)
	movl	-16(%ebp), %edx
	movl	%edx, (%esp)
	movl	%eax, %ecx
	call	__ZN8Palmtree4Math4Core8Internal19ReverseStringWriterC1EPwj
	subl	$8, %esp
	.loc 9 937 100 discriminator 1
	movl	-124(%ebp), %eax
	movl	20(%eax), %ecx
	.loc 9 937 67 discriminator 1
	movl	-124(%ebp), %eax
	movzwl	12(%eax), %eax
	.loc 9 937 100 discriminator 1
	movzwl	%ax, %edx
	leal	-108(%ebp), %eax
	movl	%ecx, 8(%esp)
	movl	%edx, 4(%esp)
	leal	-64(%ebp), %edx
	movl	%edx, (%esp)
	movl	%eax, %ecx
	call	__ZN8Palmtree4Math4Core8Internal16DecimalFromatter29ThousandSeparatedStringWriterC1EPNS2_12StringWriterEwPKNS2_28__tag_PMC_NUMBER_FORMAT_INFOE
	subl	$12, %esp
L333:
	.loc 9 938 41
	leal	-44(%ebp), %eax
	movl	%eax, %ecx
	call	__ZN8Palmtree4Math4Core8Internal19ReverseStringReader8PeekCharEv
	.loc 9 938 44
	testw	%ax, %ax
	setne	%al
	testb	%al, %al
	je	L332
	.loc 9 939 53
	leal	-44(%ebp), %eax
	movl	%eax, %ecx
	call	__ZN8Palmtree4Math4Core8Internal12StringReader8ReadCharEv
	.loc 9 939 35
	movzwl	%ax, %edx
	leal	-108(%ebp), %eax
	movl	%edx, (%esp)
	movl	%eax, %ecx
	call	__ZN8Palmtree4Math4Core8Internal16DecimalFromatter29ThousandSeparatedStringWriter5WriteEw
	.loc 9 939 35 is_stmt 0 discriminator 1
	subl	$4, %esp
	.loc 9 938 17 is_stmt 1 discriminator 1
	jmp	L333
L332:
	.loc 9 940 51
	movl	12(%ebp), %eax
	movl	(%eax), %eax
	addl	$4, %eax
	movl	(%eax), %ebx
	.loc 9 940 49
	leal	-108(%ebp), %eax
	movl	%eax, %ecx
	call	__ZN8Palmtree4Math4Core8Internal16DecimalFromatter29ThousandSeparatedStringWriter9GetStringEv
	movl	%eax, %edx
	.loc 9 940 30
	movl	12(%ebp), %eax
	movl	%edx, (%esp)
	movl	%eax, %ecx
	call	*%ebx
LVL137:
	.loc 9 940 30 is_stmt 0 discriminator 1
	subl	$4, %esp
	.loc 9 941 21 is_stmt 1 discriminator 1
	movl	-124(%ebp), %eax
	movl	16(%eax), %eax
	.loc 9 941 17 discriminator 1
	testl	%eax, %eax
	jle	L334
	.loc 9 943 81
	movl	12(%ebp), %eax
	movl	(%eax), %eax
	addl	$4, %eax
	movl	(%eax), %eax
	.loc 9 943 35
	movl	-124(%ebp), %edx
	movl	20(%edx), %edx
	.loc 9 943 65
	leal	4(%edx), %ecx
	.loc 9 943 34
	movl	12(%ebp), %edx
	movl	%ecx, (%esp)
	movl	%edx, %ecx
	call	*%eax
LVL138:
	subl	$4, %esp
	.loc 9 944 41
	movl	-124(%ebp), %eax
	movl	16(%eax), %eax
	.loc 9 944 34
	movl	%eax, %edx
	movl	12(%ebp), %eax
	movl	%edx, 4(%esp)
	movl	$48, (%esp)
	movl	%eax, %ecx
	call	__ZN8Palmtree4Math4Core8Internal12StringWriter5WriteEwj
LEHE19:
	subl	$8, %esp
L334:
	.loc 9 932 36
	leal	-32(%ebp), %eax
	movl	%eax, %ecx
	call	__ZN8Palmtree4Math4Core8Internal18ResourceHolderUINTD1Ev
	.loc 9 946 13
	jmp	L337
L336:
	movl	%eax, %ebx
	.loc 9 932 36
	leal	-32(%ebp), %eax
	movl	%eax, %ecx
	call	__ZN8Palmtree4Math4Core8Internal18ResourceHolderUINTD1Ev
	movl	%ebx, %eax
	movl	%eax, (%esp)
LEHB20:
	call	__Unwind_Resume
LEHE20:
L337:
	.loc 9 946 13
	movl	-4(%ebp), %ebx
	leave
	.cfi_restore 5
	.cfi_restore 3
	.cfi_def_cfa 4, 4
	ret	$8
	.cfi_endproc
LFE5244:
	.section	.gcc_except_table,"w"
LLSDA5244:
	.byte	0xff
	.byte	0xff
	.byte	0x1
	.uleb128 LLSDACSE5244-LLSDACSB5244
LLSDACSB5244:
	.uleb128 LEHB18-LFB5244
	.uleb128 LEHE18-LEHB18
	.uleb128 0
	.uleb128 0
	.uleb128 LEHB19-LFB5244
	.uleb128 LEHE19-LEHB19
	.uleb128 L336-LFB5244
	.uleb128 0
	.uleb128 LEHB20-LFB5244
	.uleb128 LEHE20-LEHB20
	.uleb128 0
	.uleb128 0
LLSDACSE5244:
	.section	.text$_ZN8Palmtree4Math4Core8Internal16DecimalFromatter14FormatterTypeP20FormatNumberSequenceEPKwPNS2_12StringWriterE,"x"
	.linkonce discard
	.section	.text$_ZN8Palmtree4Math4Core8Internal16DecimalFromatter14FormatterTypeP11WriteSuffixEcPNS2_12StringWriterE,"x"
	.linkonce discard
	.align 2
	.globl	__ZN8Palmtree4Math4Core8Internal16DecimalFromatter14FormatterTypeP11WriteSuffixEcPNS2_12StringWriterE
	.def	__ZN8Palmtree4Math4Core8Internal16DecimalFromatter14FormatterTypeP11WriteSuffixEcPNS2_12StringWriterE;	.scl	2;	.type	32;	.endef
__ZN8Palmtree4Math4Core8Internal16DecimalFromatter14FormatterTypeP11WriteSuffixEcPNS2_12StringWriterE:
LFB5245:
	.loc 9 948 26
	.cfi_startproc
	pushl	%ebp
	.cfi_def_cfa_offset 8
	.cfi_offset 5, -8
	movl	%esp, %ebp
	.cfi_def_cfa_register 5
	subl	$40, %esp
	movl	%ecx, -12(%ebp)
	movl	8(%ebp), %eax
	movb	%al, -16(%ebp)
	.loc 9 950 17
	cmpb	$0, -16(%ebp)
	js	L339
	.loc 9 952 29
	movl	-12(%ebp), %eax
	movl	20(%eax), %eax
	.loc 9 952 58
	movl	308(%eax), %eax
	cmpl	$2, %eax
	je	L358
	cmpl	$3, %eax
	je	L359
	cmpl	$1, %eax
	je	L342
	.loc 9 956 43
	movl	12(%ebp), %eax
	movl	(%eax), %eax
	movl	(%eax), %eax
	.loc 9 956 38
	movl	12(%ebp), %edx
	movl	$32, (%esp)
	movl	%edx, %ecx
	call	*%eax
LVL139:
	subl	$4, %esp
	.loc 9 957 73
	movl	12(%ebp), %eax
	movl	(%eax), %eax
	addl	$4, %eax
	movl	(%eax), %eax
	.loc 9 957 39
	movl	-12(%ebp), %edx
	movl	20(%edx), %edx
	.loc 9 957 60
	leal	414(%edx), %ecx
	.loc 9 957 38
	movl	12(%ebp), %edx
	movl	%ecx, (%esp)
	movl	%edx, %ecx
	call	*%eax
LVL140:
	subl	$4, %esp
	.loc 9 958 25
	jmp	L344
L342:
	.loc 9 960 73
	movl	12(%ebp), %eax
	movl	(%eax), %eax
	addl	$4, %eax
	movl	(%eax), %eax
	.loc 9 960 39
	movl	-12(%ebp), %edx
	movl	20(%edx), %edx
	.loc 9 960 60
	leal	414(%edx), %ecx
	.loc 9 960 38
	movl	12(%ebp), %edx
	movl	%ecx, (%esp)
	movl	%edx, %ecx
	call	*%eax
LVL141:
	subl	$4, %esp
	.loc 9 961 25
	jmp	L344
L339:
	.loc 9 970 29
	movl	-12(%ebp), %eax
	movl	20(%eax), %eax
	.loc 9 970 58
	movl	304(%eax), %eax
	.loc 9 970 21
	cmpl	$11, %eax
	ja	L345
	movl	L347(,%eax,4), %eax
	jmp	*%eax
	.section .rdata,"dr"
	.align 4
L347:
	.long	L345
	.long	L357
	.long	L360
	.long	L360
	.long	L354
	.long	L353
	.long	L352
	.long	L360
	.long	L350
	.long	L349
	.long	L360
	.long	L346
	.section	.text$_ZN8Palmtree4Math4Core8Internal16DecimalFromatter14FormatterTypeP11WriteSuffixEcPNS2_12StringWriterE,"x"
	.linkonce discard
L345:
	.loc 9 974 43
	movl	12(%ebp), %eax
	movl	(%eax), %eax
	movl	(%eax), %eax
	.loc 9 974 38
	movl	12(%ebp), %edx
	movl	$32, (%esp)
	movl	%edx, %ecx
	call	*%eax
LVL142:
	subl	$4, %esp
	.loc 9 975 73
	movl	12(%ebp), %eax
	movl	(%eax), %eax
	addl	$4, %eax
	movl	(%eax), %eax
	.loc 9 975 39
	movl	-12(%ebp), %edx
	movl	20(%edx), %edx
	.loc 9 975 60
	leal	414(%edx), %ecx
	.loc 9 975 38
	movl	12(%ebp), %edx
	movl	%ecx, (%esp)
	movl	%edx, %ecx
	call	*%eax
LVL143:
	subl	$4, %esp
	.loc 9 976 25
	jmp	L344
L357:
	.loc 9 978 73
	movl	12(%ebp), %eax
	movl	(%eax), %eax
	addl	$4, %eax
	movl	(%eax), %eax
	.loc 9 978 39
	movl	-12(%ebp), %edx
	movl	20(%edx), %edx
	.loc 9 978 60
	leal	414(%edx), %ecx
	.loc 9 978 38
	movl	12(%ebp), %edx
	movl	%ecx, (%esp)
	movl	%edx, %ecx
	call	*%eax
LVL144:
	subl	$4, %esp
	.loc 9 979 25
	jmp	L344
L354:
	.loc 9 985 72
	movl	12(%ebp), %eax
	movl	(%eax), %eax
	addl	$4, %eax
	movl	(%eax), %eax
	.loc 9 985 39
	movl	-12(%ebp), %edx
	movl	20(%edx), %edx
	.loc 9 985 60
	leal	346(%edx), %ecx
	.loc 9 985 38
	movl	12(%ebp), %edx
	movl	%ecx, (%esp)
	movl	%edx, %ecx
	call	*%eax
LVL145:
	subl	$4, %esp
	.loc 9 986 25
	jmp	L344
L353:
	.loc 9 988 72
	movl	12(%ebp), %eax
	movl	(%eax), %eax
	addl	$4, %eax
	movl	(%eax), %eax
	.loc 9 988 39
	movl	-12(%ebp), %edx
	movl	20(%edx), %edx
	.loc 9 988 60
	leal	346(%edx), %ecx
	.loc 9 988 38
	movl	12(%ebp), %edx
	movl	%ecx, (%esp)
	movl	%edx, %ecx
	call	*%eax
LVL146:
	subl	$4, %esp
	.loc 9 989 73
	movl	12(%ebp), %eax
	movl	(%eax), %eax
	addl	$4, %eax
	movl	(%eax), %eax
	.loc 9 989 39
	movl	-12(%ebp), %edx
	movl	20(%edx), %edx
	.loc 9 989 60
	leal	414(%edx), %ecx
	.loc 9 989 38
	movl	12(%ebp), %edx
	movl	%ecx, (%esp)
	movl	%edx, %ecx
	call	*%eax
LVL147:
	subl	$4, %esp
	.loc 9 990 25
	jmp	L344
L352:
	.loc 9 992 73
	movl	12(%ebp), %eax
	movl	(%eax), %eax
	addl	$4, %eax
	movl	(%eax), %eax
	.loc 9 992 39
	movl	-12(%ebp), %edx
	movl	20(%edx), %edx
	.loc 9 992 60
	leal	414(%edx), %ecx
	.loc 9 992 38
	movl	12(%ebp), %edx
	movl	%ecx, (%esp)
	movl	%edx, %ecx
	call	*%eax
LVL148:
	subl	$4, %esp
	.loc 9 993 72
	movl	12(%ebp), %eax
	movl	(%eax), %eax
	addl	$4, %eax
	movl	(%eax), %eax
	.loc 9 993 39
	movl	-12(%ebp), %edx
	movl	20(%edx), %edx
	.loc 9 993 60
	leal	346(%edx), %ecx
	.loc 9 993 38
	movl	12(%ebp), %edx
	movl	%ecx, (%esp)
	movl	%edx, %ecx
	call	*%eax
LVL149:
	subl	$4, %esp
	.loc 9 994 25
	jmp	L344
L350:
	.loc 9 998 43
	movl	12(%ebp), %eax
	movl	(%eax), %eax
	movl	(%eax), %eax
	.loc 9 998 38
	movl	12(%ebp), %edx
	movl	$32, (%esp)
	movl	%edx, %ecx
	call	*%eax
LVL150:
	subl	$4, %esp
	.loc 9 999 73
	movl	12(%ebp), %eax
	movl	(%eax), %eax
	addl	$4, %eax
	movl	(%eax), %eax
	.loc 9 999 39
	movl	-12(%ebp), %edx
	movl	20(%edx), %edx
	.loc 9 999 60
	leal	414(%edx), %ecx
	.loc 9 999 38
	movl	12(%ebp), %edx
	movl	%ecx, (%esp)
	movl	%edx, %ecx
	call	*%eax
LVL151:
	subl	$4, %esp
	.loc 9 1000 72
	movl	12(%ebp), %eax
	movl	(%eax), %eax
	addl	$4, %eax
	movl	(%eax), %eax
	.loc 9 1000 39
	movl	-12(%ebp), %edx
	movl	20(%edx), %edx
	.loc 9 1000 60
	leal	346(%edx), %ecx
	.loc 9 1000 38
	movl	12(%ebp), %edx
	movl	%ecx, (%esp)
	movl	%edx, %ecx
	call	*%eax
LVL152:
	subl	$4, %esp
	.loc 9 1001 25
	jmp	L344
L349:
	.loc 9 1003 72
	movl	12(%ebp), %eax
	movl	(%eax), %eax
	addl	$4, %eax
	movl	(%eax), %eax
	.loc 9 1003 39
	movl	-12(%ebp), %edx
	movl	20(%edx), %edx
	.loc 9 1003 60
	leal	346(%edx), %ecx
	.loc 9 1003 38
	movl	12(%ebp), %edx
	movl	%ecx, (%esp)
	movl	%edx, %ecx
	call	*%eax
LVL153:
	subl	$4, %esp
	.loc 9 1004 25
	jmp	L344
L346:
	.loc 9 1008 72
	movl	12(%ebp), %eax
	movl	(%eax), %eax
	addl	$4, %eax
	movl	(%eax), %eax
	.loc 9 1008 39
	movl	-12(%ebp), %edx
	movl	20(%edx), %edx
	.loc 9 1008 60
	leal	346(%edx), %ecx
	.loc 9 1008 38
	movl	12(%ebp), %edx
	movl	%ecx, (%esp)
	movl	%edx, %ecx
	call	*%eax
LVL154:
	subl	$4, %esp
	.loc 9 1009 43
	movl	12(%ebp), %eax
	movl	(%eax), %eax
	movl	(%eax), %eax
	.loc 9 1009 38
	movl	12(%ebp), %edx
	movl	$32, (%esp)
	movl	%edx, %ecx
	call	*%eax
LVL155:
	subl	$4, %esp
	.loc 9 1010 73
	movl	12(%ebp), %eax
	movl	(%eax), %eax
	addl	$4, %eax
	movl	(%eax), %eax
	.loc 9 1010 39
	movl	-12(%ebp), %edx
	movl	20(%edx), %edx
	.loc 9 1010 60
	leal	414(%edx), %ecx
	.loc 9 1010 38
	movl	12(%ebp), %edx
	movl	%ecx, (%esp)
	movl	%edx, %ecx
	call	*%eax
LVL156:
	subl	$4, %esp
	.loc 9 1011 25
	jmp	L344
L358:
	.loc 9 963 25
	nop
	jmp	L344
L359:
	.loc 9 965 25
	nop
	jmp	L344
L360:
	.loc 9 981 25
	nop
L344:
	.loc 9 1014 13
	nop
	leave
	.cfi_restore 5
	.cfi_def_cfa 4, 4
	ret	$8
	.cfi_endproc
LFE5245:
	.text
	.def	__ZN8Palmtree4Math4Core8Internal16DecimalFromatterL9ToStringCEcPNS2_19__tag_NUMBER_HEADEREwiPKNS2_28__tag_PMC_NUMBER_FORMAT_INFOEPwj;	.scl	3;	.type	32;	.endef
__ZN8Palmtree4Math4Core8Internal16DecimalFromatterL9ToStringCEcPNS2_19__tag_NUMBER_HEADEREwiPKNS2_28__tag_PMC_NUMBER_FORMAT_INFOEPwj:
LFB5246:
	.loc 9 1018 9
	.cfi_startproc
	pushl	%ebp
	.cfi_def_cfa_offset 8
	.cfi_offset 5, -8
	movl	%esp, %ebp
	.cfi_def_cfa_register 5
	subl	$88, %esp
	movl	8(%ebp), %edx
	movl	16(%ebp), %eax
	movb	%dl, -60(%ebp)
	movw	%ax, -64(%ebp)
	.loc 9 1019 52
	leal	-28(%ebp), %eax
	movl	32(%ebp), %edx
	movl	%edx, 4(%esp)
	movl	28(%ebp), %edx
	movl	%edx, (%esp)
	movl	%eax, %ecx
	call	__ZN8Palmtree4Math4Core8Internal12StringWriterC1EPwj
	subl	$8, %esp
	.loc 9 1020 62
	leal	-52(%ebp), %eax
	movl	24(%ebp), %edx
	movl	%edx, 4(%esp)
	movl	20(%ebp), %edx
	movl	%edx, (%esp)
	movl	%eax, %ecx
	call	__ZN8Palmtree4Math4Core8Internal16DecimalFromatter14FormatterTypeCC1EiPKNS2_28__tag_PMC_NUMBER_FORMAT_INFOE
	subl	$8, %esp
	.loc 9 1021 29
	movsbl	-60(%ebp), %edx
	leal	-52(%ebp), %eax
	leal	-28(%ebp), %ecx
	movl	%ecx, 8(%esp)
	movl	12(%ebp), %ecx
	movl	%ecx, 4(%esp)
	movl	%edx, (%esp)
	movl	%eax, %ecx
	call	__ZN8Palmtree4Math4Core8Internal16DecimalFromatter9Formatter6FormatEcPNS2_19__tag_NUMBER_HEADEREPNS2_12StringWriterE
	subl	$12, %esp
	.loc 9 1022 37
	leal	-28(%ebp), %eax
	movl	%eax, %ecx
	call	__ZN8Palmtree4Math4Core8Internal12StringWriter9GetLengthEv
	.loc 9 1022 39
	nop
	.loc 9 1023 9
	leave
	.cfi_restore 5
	.cfi_def_cfa 4, 4
	ret
	.cfi_endproc
LFE5246:
	.def	__ZN8Palmtree4Math4Core8Internal16DecimalFromatterL9ToStringDEcPNS2_19__tag_NUMBER_HEADEREwiPKNS2_28__tag_PMC_NUMBER_FORMAT_INFOEPwj;	.scl	3;	.type	32;	.endef
__ZN8Palmtree4Math4Core8Internal16DecimalFromatterL9ToStringDEcPNS2_19__tag_NUMBER_HEADEREwiPKNS2_28__tag_PMC_NUMBER_FORMAT_INFOEPwj:
LFB5247:
	.loc 9 1026 9
	.cfi_startproc
	pushl	%ebp
	.cfi_def_cfa_offset 8
	.cfi_offset 5, -8
	movl	%esp, %ebp
	.cfi_def_cfa_register 5
	subl	$88, %esp
	movl	8(%ebp), %edx
	movl	16(%ebp), %eax
	movb	%dl, -60(%ebp)
	movw	%ax, -64(%ebp)
	.loc 9 1027 52
	leal	-28(%ebp), %eax
	movl	32(%ebp), %edx
	movl	%edx, 4(%esp)
	movl	28(%ebp), %edx
	movl	%edx, (%esp)
	movl	%eax, %ecx
	call	__ZN8Palmtree4Math4Core8Internal12StringWriterC1EPwj
	subl	$8, %esp
	.loc 9 1028 62
	leal	-52(%ebp), %eax
	movl	24(%ebp), %edx
	movl	%edx, 4(%esp)
	movl	20(%ebp), %edx
	movl	%edx, (%esp)
	movl	%eax, %ecx
	call	__ZN8Palmtree4Math4Core8Internal16DecimalFromatter14FormatterTypeDC1EiPKNS2_28__tag_PMC_NUMBER_FORMAT_INFOE
	subl	$8, %esp
	.loc 9 1029 29
	movsbl	-60(%ebp), %edx
	leal	-52(%ebp), %eax
	leal	-28(%ebp), %ecx
	movl	%ecx, 8(%esp)
	movl	12(%ebp), %ecx
	movl	%ecx, 4(%esp)
	movl	%edx, (%esp)
	movl	%eax, %ecx
	call	__ZN8Palmtree4Math4Core8Internal16DecimalFromatter9Formatter6FormatEcPNS2_19__tag_NUMBER_HEADEREPNS2_12StringWriterE
	subl	$12, %esp
	.loc 9 1030 37
	leal	-28(%ebp), %eax
	movl	%eax, %ecx
	call	__ZN8Palmtree4Math4Core8Internal12StringWriter9GetLengthEv
	.loc 9 1030 39
	nop
	.loc 9 1031 9
	leave
	.cfi_restore 5
	.cfi_def_cfa 4, 4
	ret
	.cfi_endproc
LFE5247:
	.def	__ZN8Palmtree4Math4Core8Internal16DecimalFromatterL9ToStringEEcPNS2_19__tag_NUMBER_HEADEREwiPKNS2_28__tag_PMC_NUMBER_FORMAT_INFOEPwj;	.scl	3;	.type	32;	.endef
__ZN8Palmtree4Math4Core8Internal16DecimalFromatterL9ToStringEEcPNS2_19__tag_NUMBER_HEADEREwiPKNS2_28__tag_PMC_NUMBER_FORMAT_INFOEPwj:
LFB5248:
	.loc 9 1034 9
	.cfi_startproc
	pushl	%ebp
	.cfi_def_cfa_offset 8
	.cfi_offset 5, -8
	movl	%esp, %ebp
	.cfi_def_cfa_register 5
	subl	$88, %esp
	movl	8(%ebp), %edx
	movl	16(%ebp), %eax
	movb	%dl, -60(%ebp)
	movw	%ax, -64(%ebp)
	.loc 9 1035 52
	leal	-28(%ebp), %eax
	movl	32(%ebp), %edx
	movl	%edx, 4(%esp)
	movl	28(%ebp), %edx
	movl	%edx, (%esp)
	movl	%eax, %ecx
	call	__ZN8Palmtree4Math4Core8Internal12StringWriterC1EPwj
	subl	$8, %esp
	.loc 9 1036 75
	movzwl	-64(%ebp), %edx
	leal	-52(%ebp), %eax
	movl	24(%ebp), %ecx
	movl	%ecx, 8(%esp)
	movl	20(%ebp), %ecx
	movl	%ecx, 4(%esp)
	movl	%edx, (%esp)
	movl	%eax, %ecx
	call	__ZN8Palmtree4Math4Core8Internal16DecimalFromatter14FormatterTypeEC1EwiPKNS2_28__tag_PMC_NUMBER_FORMAT_INFOE
	subl	$12, %esp
	.loc 9 1037 29
	movsbl	-60(%ebp), %edx
	leal	-52(%ebp), %eax
	leal	-28(%ebp), %ecx
	movl	%ecx, 8(%esp)
	movl	12(%ebp), %ecx
	movl	%ecx, 4(%esp)
	movl	%edx, (%esp)
	movl	%eax, %ecx
	call	__ZN8Palmtree4Math4Core8Internal16DecimalFromatter9Formatter6FormatEcPNS2_19__tag_NUMBER_HEADEREPNS2_12StringWriterE
	subl	$12, %esp
	.loc 9 1038 37
	leal	-28(%ebp), %eax
	movl	%eax, %ecx
	call	__ZN8Palmtree4Math4Core8Internal12StringWriter9GetLengthEv
	.loc 9 1038 39
	nop
	.loc 9 1039 9
	leave
	.cfi_restore 5
	.cfi_def_cfa 4, 4
	ret
	.cfi_endproc
LFE5248:
	.def	__ZN8Palmtree4Math4Core8Internal16DecimalFromatterL9ToStringFEcPNS2_19__tag_NUMBER_HEADEREwiPKNS2_28__tag_PMC_NUMBER_FORMAT_INFOEPwj;	.scl	3;	.type	32;	.endef
__ZN8Palmtree4Math4Core8Internal16DecimalFromatterL9ToStringFEcPNS2_19__tag_NUMBER_HEADEREwiPKNS2_28__tag_PMC_NUMBER_FORMAT_INFOEPwj:
LFB5249:
	.loc 9 1042 9
	.cfi_startproc
	pushl	%ebp
	.cfi_def_cfa_offset 8
	.cfi_offset 5, -8
	movl	%esp, %ebp
	.cfi_def_cfa_register 5
	subl	$88, %esp
	movl	8(%ebp), %edx
	movl	16(%ebp), %eax
	movb	%dl, -60(%ebp)
	movw	%ax, -64(%ebp)
	.loc 9 1043 52
	leal	-28(%ebp), %eax
	movl	32(%ebp), %edx
	movl	%edx, 4(%esp)
	movl	28(%ebp), %edx
	movl	%edx, (%esp)
	movl	%eax, %ecx
	call	__ZN8Palmtree4Math4Core8Internal12StringWriterC1EPwj
	subl	$8, %esp
	.loc 9 1044 62
	leal	-52(%ebp), %eax
	movl	24(%ebp), %edx
	movl	%edx, 4(%esp)
	movl	20(%ebp), %edx
	movl	%edx, (%esp)
	movl	%eax, %ecx
	call	__ZN8Palmtree4Math4Core8Internal16DecimalFromatter14FormatterTypeFC1EiPKNS2_28__tag_PMC_NUMBER_FORMAT_INFOE
	subl	$8, %esp
	.loc 9 1045 29
	movsbl	-60(%ebp), %edx
	leal	-52(%ebp), %eax
	leal	-28(%ebp), %ecx
	movl	%ecx, 8(%esp)
	movl	12(%ebp), %ecx
	movl	%ecx, 4(%esp)
	movl	%edx, (%esp)
	movl	%eax, %ecx
	call	__ZN8Palmtree4Math4Core8Internal16DecimalFromatter9Formatter6FormatEcPNS2_19__tag_NUMBER_HEADEREPNS2_12StringWriterE
	subl	$12, %esp
	.loc 9 1046 37
	leal	-28(%ebp), %eax
	movl	%eax, %ecx
	call	__ZN8Palmtree4Math4Core8Internal12StringWriter9GetLengthEv
	.loc 9 1046 39
	nop
	.loc 9 1047 9
	leave
	.cfi_restore 5
	.cfi_def_cfa 4, 4
	ret
	.cfi_endproc
LFE5249:
	.def	__ZN8Palmtree4Math4Core8Internal16DecimalFromatterL9ToStringNEcPNS2_19__tag_NUMBER_HEADEREwiPKNS2_28__tag_PMC_NUMBER_FORMAT_INFOEPwj;	.scl	3;	.type	32;	.endef
__ZN8Palmtree4Math4Core8Internal16DecimalFromatterL9ToStringNEcPNS2_19__tag_NUMBER_HEADEREwiPKNS2_28__tag_PMC_NUMBER_FORMAT_INFOEPwj:
LFB5250:
	.loc 9 1050 9
	.cfi_startproc
	pushl	%ebp
	.cfi_def_cfa_offset 8
	.cfi_offset 5, -8
	movl	%esp, %ebp
	.cfi_def_cfa_register 5
	subl	$88, %esp
	movl	8(%ebp), %edx
	movl	16(%ebp), %eax
	movb	%dl, -60(%ebp)
	movw	%ax, -64(%ebp)
	.loc 9 1051 52
	leal	-28(%ebp), %eax
	movl	32(%ebp), %edx
	movl	%edx, 4(%esp)
	movl	28(%ebp), %edx
	movl	%edx, (%esp)
	movl	%eax, %ecx
	call	__ZN8Palmtree4Math4Core8Internal12StringWriterC1EPwj
	subl	$8, %esp
	.loc 9 1052 62
	leal	-52(%ebp), %eax
	movl	24(%ebp), %edx
	movl	%edx, 4(%esp)
	movl	20(%ebp), %edx
	movl	%edx, (%esp)
	movl	%eax, %ecx
	call	__ZN8Palmtree4Math4Core8Internal16DecimalFromatter14FormatterTypeNC1EiPKNS2_28__tag_PMC_NUMBER_FORMAT_INFOE
	subl	$8, %esp
	.loc 9 1053 29
	movsbl	-60(%ebp), %edx
	leal	-52(%ebp), %eax
	leal	-28(%ebp), %ecx
	movl	%ecx, 8(%esp)
	movl	12(%ebp), %ecx
	movl	%ecx, 4(%esp)
	movl	%edx, (%esp)
	movl	%eax, %ecx
	call	__ZN8Palmtree4Math4Core8Internal16DecimalFromatter9Formatter6FormatEcPNS2_19__tag_NUMBER_HEADEREPNS2_12StringWriterE
	subl	$12, %esp
	.loc 9 1054 37
	leal	-28(%ebp), %eax
	movl	%eax, %ecx
	call	__ZN8Palmtree4Math4Core8Internal12StringWriter9GetLengthEv
	.loc 9 1054 39
	nop
	.loc 9 1055 9
	leave
	.cfi_restore 5
	.cfi_def_cfa 4, 4
	ret
	.cfi_endproc
LFE5250:
	.def	__ZN8Palmtree4Math4Core8Internal16DecimalFromatterL9ToStringPEcPNS2_19__tag_NUMBER_HEADEREwiPKNS2_28__tag_PMC_NUMBER_FORMAT_INFOEPwj;	.scl	3;	.type	32;	.endef
__ZN8Palmtree4Math4Core8Internal16DecimalFromatterL9ToStringPEcPNS2_19__tag_NUMBER_HEADEREwiPKNS2_28__tag_PMC_NUMBER_FORMAT_INFOEPwj:
LFB5251:
	.loc 9 1059 9
	.cfi_startproc
	pushl	%ebp
	.cfi_def_cfa_offset 8
	.cfi_offset 5, -8
	movl	%esp, %ebp
	.cfi_def_cfa_register 5
	subl	$88, %esp
	movl	8(%ebp), %edx
	movl	16(%ebp), %eax
	movb	%dl, -60(%ebp)
	movw	%ax, -64(%ebp)
	.loc 9 1060 52
	leal	-28(%ebp), %eax
	movl	32(%ebp), %edx
	movl	%edx, 4(%esp)
	movl	28(%ebp), %edx
	movl	%edx, (%esp)
	movl	%eax, %ecx
	call	__ZN8Palmtree4Math4Core8Internal12StringWriterC1EPwj
	subl	$8, %esp
	.loc 9 1061 62
	leal	-52(%ebp), %eax
	movl	24(%ebp), %edx
	movl	%edx, 4(%esp)
	movl	20(%ebp), %edx
	movl	%edx, (%esp)
	movl	%eax, %ecx
	call	__ZN8Palmtree4Math4Core8Internal16DecimalFromatter14FormatterTypePC1EiPKNS2_28__tag_PMC_NUMBER_FORMAT_INFOE
	subl	$8, %esp
	.loc 9 1062 29
	movsbl	-60(%ebp), %edx
	leal	-52(%ebp), %eax
	leal	-28(%ebp), %ecx
	movl	%ecx, 8(%esp)
	movl	12(%ebp), %ecx
	movl	%ecx, 4(%esp)
	movl	%edx, (%esp)
	movl	%eax, %ecx
	call	__ZN8Palmtree4Math4Core8Internal16DecimalFromatter9Formatter6FormatEcPNS2_19__tag_NUMBER_HEADEREPNS2_12StringWriterE
	subl	$12, %esp
	.loc 9 1063 37
	leal	-28(%ebp), %eax
	movl	%eax, %ecx
	call	__ZN8Palmtree4Math4Core8Internal12StringWriter9GetLengthEv
	.loc 9 1063 39
	nop
	.loc 9 1064 9
	leave
	.cfi_restore 5
	.cfi_def_cfa 4, 4
	ret
	.cfi_endproc
LFE5251:
	.data
	.align 32
__ZN8Palmtree4Math4Core8Internal20HexaDecimalFormatterL24hexadecimal_lower_digitsE:
	.ascii "0\0"
	.ascii "1\0"
	.ascii "2\0"
	.ascii "3\0"
	.ascii "4\0"
	.ascii "5\0"
	.ascii "6\0"
	.ascii "7\0"
	.ascii "8\0"
	.ascii "9\0a\0b\0c\0d\0e\0f\0\0\0"
	.align 32
__ZN8Palmtree4Math4Core8Internal20HexaDecimalFormatterL24hexadecimal_upper_digitsE:
	.ascii "0\0"
	.ascii "1\0"
	.ascii "2\0"
	.ascii "3\0"
	.ascii "4\0"
	.ascii "5\0"
	.ascii "6\0"
	.ascii "7\0"
	.ascii "8\0"
	.ascii "9\0A\0B\0C\0D\0E\0F\0\0\0"
	.text
	.def	__ZN8Palmtree4Math4Core8Internal20HexaDecimalFormatterL30OutputHexNumberSequenceOneWordEjjPwPNS2_12StringWriterE;	.scl	3;	.type	32;	.endef
__ZN8Palmtree4Math4Core8Internal20HexaDecimalFormatterL30OutputHexNumberSequenceOneWordEjjPwPNS2_12StringWriterE:
LFB5252:
	.loc 9 1075 9
	.cfi_startproc
	pushl	%ebp
	.cfi_def_cfa_offset 8
	.cfi_offset 5, -8
	movl	%esp, %ebp
	.cfi_def_cfa_register 5
	subl	$40, %esp
	.loc 9 1082 26
	movl	$8, -12(%ebp)
	.loc 9 1083 13
	cmpl	$0, 12(%ebp)
	je	L374
	.loc 9 1085 41
	movl	12(%ebp), %eax
	sall	$2, %eax
	.loc 9 1085 35
	movl	%eax, 4(%esp)
	movl	8(%ebp), %eax
	movl	%eax, (%esp)
	call	__ROTATE_L_UNIT
	movl	%eax, 8(%ebp)
	.loc 9 1086 23
	movl	12(%ebp), %eax
	subl	%eax, -12(%ebp)
L374:
	.loc 9 1088 23
	movl	-12(%ebp), %eax
	andl	$16, %eax
	.loc 9 1088 13
	testl	%eax, %eax
	je	L375
	.loc 9 1090 35
	movl	$4, 4(%esp)
	movl	8(%ebp), %eax
	movl	%eax, (%esp)
	call	__ROTATE_L_UNIT
	movl	%eax, 8(%ebp)
	.loc 9 1090 78
	movl	20(%ebp), %eax
	movl	(%eax), %eax
	movl	(%eax), %eax
	.loc 9 1090 71
	movl	8(%ebp), %edx
	andl	$15, %edx
	.loc 9 1090 77
	leal	(%edx,%edx), %ecx
	movl	16(%ebp), %edx
	addl	%ecx, %edx
	movzwl	(%edx), %edx
	.loc 9 1090 56
	movzwl	%dx, %ecx
	movl	20(%ebp), %edx
	movl	%ecx, (%esp)
	movl	%edx, %ecx
	call	*%eax
LVL157:
	subl	$4, %esp
	.loc 9 1091 35
	movl	$4, 4(%esp)
	movl	8(%ebp), %eax
	movl	%eax, (%esp)
	call	__ROTATE_L_UNIT
	movl	%eax, 8(%ebp)
	.loc 9 1091 78
	movl	20(%ebp), %eax
	movl	(%eax), %eax
	movl	(%eax), %eax
	.loc 9 1091 71
	movl	8(%ebp), %edx
	andl	$15, %edx
	.loc 9 1091 77
	leal	(%edx,%edx), %ecx
	movl	16(%ebp), %edx
	addl	%ecx, %edx
	movzwl	(%edx), %edx
	.loc 9 1091 56
	movzwl	%dx, %ecx
	movl	20(%ebp), %edx
	movl	%ecx, (%esp)
	movl	%edx, %ecx
	call	*%eax
LVL158:
	subl	$4, %esp
	.loc 9 1092 35
	movl	$4, 4(%esp)
	movl	8(%ebp), %eax
	movl	%eax, (%esp)
	call	__ROTATE_L_UNIT
	movl	%eax, 8(%ebp)
	.loc 9 1092 78
	movl	20(%ebp), %eax
	movl	(%eax), %eax
	movl	(%eax), %eax
	.loc 9 1092 71
	movl	8(%ebp), %edx
	andl	$15, %edx
	.loc 9 1092 77
	leal	(%edx,%edx), %ecx
	movl	16(%ebp), %edx
	addl	%ecx, %edx
	movzwl	(%edx), %edx
	.loc 9 1092 56
	movzwl	%dx, %ecx
	movl	20(%ebp), %edx
	movl	%ecx, (%esp)
	movl	%edx, %ecx
	call	*%eax
LVL159:
	subl	$4, %esp
	.loc 9 1093 35
	movl	$4, 4(%esp)
	movl	8(%ebp), %eax
	movl	%eax, (%esp)
	call	__ROTATE_L_UNIT
	movl	%eax, 8(%ebp)
	.loc 9 1093 78
	movl	20(%ebp), %eax
	movl	(%eax), %eax
	movl	(%eax), %eax
	.loc 9 1093 71
	movl	8(%ebp), %edx
	andl	$15, %edx
	.loc 9 1093 77
	leal	(%edx,%edx), %ecx
	movl	16(%ebp), %edx
	addl	%ecx, %edx
	movzwl	(%edx), %edx
	.loc 9 1093 56
	movzwl	%dx, %ecx
	movl	20(%ebp), %edx
	movl	%ecx, (%esp)
	movl	%edx, %ecx
	call	*%eax
LVL160:
	subl	$4, %esp
	.loc 9 1094 35
	movl	$4, 4(%esp)
	movl	8(%ebp), %eax
	movl	%eax, (%esp)
	call	__ROTATE_L_UNIT
	movl	%eax, 8(%ebp)
	.loc 9 1094 78
	movl	20(%ebp), %eax
	movl	(%eax), %eax
	movl	(%eax), %eax
	.loc 9 1094 71
	movl	8(%ebp), %edx
	andl	$15, %edx
	.loc 9 1094 77
	leal	(%edx,%edx), %ecx
	movl	16(%ebp), %edx
	addl	%ecx, %edx
	movzwl	(%edx), %edx
	.loc 9 1094 56
	movzwl	%dx, %ecx
	movl	20(%ebp), %edx
	movl	%ecx, (%esp)
	movl	%edx, %ecx
	call	*%eax
LVL161:
	subl	$4, %esp
	.loc 9 1095 35
	movl	$4, 4(%esp)
	movl	8(%ebp), %eax
	movl	%eax, (%esp)
	call	__ROTATE_L_UNIT
	movl	%eax, 8(%ebp)
	.loc 9 1095 78
	movl	20(%ebp), %eax
	movl	(%eax), %eax
	movl	(%eax), %eax
	.loc 9 1095 71
	movl	8(%ebp), %edx
	andl	$15, %edx
	.loc 9 1095 77
	leal	(%edx,%edx), %ecx
	movl	16(%ebp), %edx
	addl	%ecx, %edx
	movzwl	(%edx), %edx
	.loc 9 1095 56
	movzwl	%dx, %ecx
	movl	20(%ebp), %edx
	movl	%ecx, (%esp)
	movl	%edx, %ecx
	call	*%eax
LVL162:
	subl	$4, %esp
	.loc 9 1096 35
	movl	$4, 4(%esp)
	movl	8(%ebp), %eax
	movl	%eax, (%esp)
	call	__ROTATE_L_UNIT
	movl	%eax, 8(%ebp)
	.loc 9 1096 78
	movl	20(%ebp), %eax
	movl	(%eax), %eax
	movl	(%eax), %eax
	.loc 9 1096 71
	movl	8(%ebp), %edx
	andl	$15, %edx
	.loc 9 1096 77
	leal	(%edx,%edx), %ecx
	movl	16(%ebp), %edx
	addl	%ecx, %edx
	movzwl	(%edx), %edx
	.loc 9 1096 56
	movzwl	%dx, %ecx
	movl	20(%ebp), %edx
	movl	%ecx, (%esp)
	movl	%edx, %ecx
	call	*%eax
LVL163:
	subl	$4, %esp
	.loc 9 1097 35
	movl	$4, 4(%esp)
	movl	8(%ebp), %eax
	movl	%eax, (%esp)
	call	__ROTATE_L_UNIT
	movl	%eax, 8(%ebp)
	.loc 9 1097 78
	movl	20(%ebp), %eax
	movl	(%eax), %eax
	movl	(%eax), %eax
	.loc 9 1097 71
	movl	8(%ebp), %edx
	andl	$15, %edx
	.loc 9 1097 77
	leal	(%edx,%edx), %ecx
	movl	16(%ebp), %edx
	addl	%ecx, %edx
	movzwl	(%edx), %edx
	.loc 9 1097 56
	movzwl	%dx, %ecx
	movl	20(%ebp), %edx
	movl	%ecx, (%esp)
	movl	%edx, %ecx
	call	*%eax
LVL164:
	subl	$4, %esp
	.loc 9 1098 35
	movl	$4, 4(%esp)
	movl	8(%ebp), %eax
	movl	%eax, (%esp)
	call	__ROTATE_L_UNIT
	movl	%eax, 8(%ebp)
	.loc 9 1098 78
	movl	20(%ebp), %eax
	movl	(%eax), %eax
	movl	(%eax), %eax
	.loc 9 1098 71
	movl	8(%ebp), %edx
	andl	$15, %edx
	.loc 9 1098 77
	leal	(%edx,%edx), %ecx
	movl	16(%ebp), %edx
	addl	%ecx, %edx
	movzwl	(%edx), %edx
	.loc 9 1098 56
	movzwl	%dx, %ecx
	movl	20(%ebp), %edx
	movl	%ecx, (%esp)
	movl	%edx, %ecx
	call	*%eax
LVL165:
	subl	$4, %esp
	.loc 9 1099 35
	movl	$4, 4(%esp)
	movl	8(%ebp), %eax
	movl	%eax, (%esp)
	call	__ROTATE_L_UNIT
	movl	%eax, 8(%ebp)
	.loc 9 1099 78
	movl	20(%ebp), %eax
	movl	(%eax), %eax
	movl	(%eax), %eax
	.loc 9 1099 71
	movl	8(%ebp), %edx
	andl	$15, %edx
	.loc 9 1099 77
	leal	(%edx,%edx), %ecx
	movl	16(%ebp), %edx
	addl	%ecx, %edx
	movzwl	(%edx), %edx
	.loc 9 1099 56
	movzwl	%dx, %ecx
	movl	20(%ebp), %edx
	movl	%ecx, (%esp)
	movl	%edx, %ecx
	call	*%eax
LVL166:
	subl	$4, %esp
	.loc 9 1100 35
	movl	$4, 4(%esp)
	movl	8(%ebp), %eax
	movl	%eax, (%esp)
	call	__ROTATE_L_UNIT
	movl	%eax, 8(%ebp)
	.loc 9 1100 78
	movl	20(%ebp), %eax
	movl	(%eax), %eax
	movl	(%eax), %eax
	.loc 9 1100 71
	movl	8(%ebp), %edx
	andl	$15, %edx
	.loc 9 1100 77
	leal	(%edx,%edx), %ecx
	movl	16(%ebp), %edx
	addl	%ecx, %edx
	movzwl	(%edx), %edx
	.loc 9 1100 56
	movzwl	%dx, %ecx
	movl	20(%ebp), %edx
	movl	%ecx, (%esp)
	movl	%edx, %ecx
	call	*%eax
LVL167:
	subl	$4, %esp
	.loc 9 1101 35
	movl	$4, 4(%esp)
	movl	8(%ebp), %eax
	movl	%eax, (%esp)
	call	__ROTATE_L_UNIT
	movl	%eax, 8(%ebp)
	.loc 9 1101 78
	movl	20(%ebp), %eax
	movl	(%eax), %eax
	movl	(%eax), %eax
	.loc 9 1101 71
	movl	8(%ebp), %edx
	andl	$15, %edx
	.loc 9 1101 77
	leal	(%edx,%edx), %ecx
	movl	16(%ebp), %edx
	addl	%ecx, %edx
	movzwl	(%edx), %edx
	.loc 9 1101 56
	movzwl	%dx, %ecx
	movl	20(%ebp), %edx
	movl	%ecx, (%esp)
	movl	%edx, %ecx
	call	*%eax
LVL168:
	subl	$4, %esp
	.loc 9 1102 35
	movl	$4, 4(%esp)
	movl	8(%ebp), %eax
	movl	%eax, (%esp)
	call	__ROTATE_L_UNIT
	movl	%eax, 8(%ebp)
	.loc 9 1102 78
	movl	20(%ebp), %eax
	movl	(%eax), %eax
	movl	(%eax), %eax
	.loc 9 1102 71
	movl	8(%ebp), %edx
	andl	$15, %edx
	.loc 9 1102 77
	leal	(%edx,%edx), %ecx
	movl	16(%ebp), %edx
	addl	%ecx, %edx
	movzwl	(%edx), %edx
	.loc 9 1102 56
	movzwl	%dx, %ecx
	movl	20(%ebp), %edx
	movl	%ecx, (%esp)
	movl	%edx, %ecx
	call	*%eax
LVL169:
	subl	$4, %esp
	.loc 9 1103 35
	movl	$4, 4(%esp)
	movl	8(%ebp), %eax
	movl	%eax, (%esp)
	call	__ROTATE_L_UNIT
	movl	%eax, 8(%ebp)
	.loc 9 1103 78
	movl	20(%ebp), %eax
	movl	(%eax), %eax
	movl	(%eax), %eax
	.loc 9 1103 71
	movl	8(%ebp), %edx
	andl	$15, %edx
	.loc 9 1103 77
	leal	(%edx,%edx), %ecx
	movl	16(%ebp), %edx
	addl	%ecx, %edx
	movzwl	(%edx), %edx
	.loc 9 1103 56
	movzwl	%dx, %ecx
	movl	20(%ebp), %edx
	movl	%ecx, (%esp)
	movl	%edx, %ecx
	call	*%eax
LVL170:
	subl	$4, %esp
	.loc 9 1104 35
	movl	$4, 4(%esp)
	movl	8(%ebp), %eax
	movl	%eax, (%esp)
	call	__ROTATE_L_UNIT
	movl	%eax, 8(%ebp)
	.loc 9 1104 78
	movl	20(%ebp), %eax
	movl	(%eax), %eax
	movl	(%eax), %eax
	.loc 9 1104 71
	movl	8(%ebp), %edx
	andl	$15, %edx
	.loc 9 1104 77
	leal	(%edx,%edx), %ecx
	movl	16(%ebp), %edx
	addl	%ecx, %edx
	movzwl	(%edx), %edx
	.loc 9 1104 56
	movzwl	%dx, %ecx
	movl	20(%ebp), %edx
	movl	%ecx, (%esp)
	movl	%edx, %ecx
	call	*%eax
LVL171:
	subl	$4, %esp
L375:
	.loc 9 1106 23
	movl	-12(%ebp), %eax
	andl	$8, %eax
	.loc 9 1106 13
	testl	%eax, %eax
	je	L376
	.loc 9 1108 35
	movl	$4, 4(%esp)
	movl	8(%ebp), %eax
	movl	%eax, (%esp)
	call	__ROTATE_L_UNIT
	movl	%eax, 8(%ebp)
	.loc 9 1108 78
	movl	20(%ebp), %eax
	movl	(%eax), %eax
	movl	(%eax), %eax
	.loc 9 1108 71
	movl	8(%ebp), %edx
	andl	$15, %edx
	.loc 9 1108 77
	leal	(%edx,%edx), %ecx
	movl	16(%ebp), %edx
	addl	%ecx, %edx
	movzwl	(%edx), %edx
	.loc 9 1108 56
	movzwl	%dx, %ecx
	movl	20(%ebp), %edx
	movl	%ecx, (%esp)
	movl	%edx, %ecx
	call	*%eax
LVL172:
	subl	$4, %esp
	.loc 9 1109 35
	movl	$4, 4(%esp)
	movl	8(%ebp), %eax
	movl	%eax, (%esp)
	call	__ROTATE_L_UNIT
	movl	%eax, 8(%ebp)
	.loc 9 1109 78
	movl	20(%ebp), %eax
	movl	(%eax), %eax
	movl	(%eax), %eax
	.loc 9 1109 71
	movl	8(%ebp), %edx
	andl	$15, %edx
	.loc 9 1109 77
	leal	(%edx,%edx), %ecx
	movl	16(%ebp), %edx
	addl	%ecx, %edx
	movzwl	(%edx), %edx
	.loc 9 1109 56
	movzwl	%dx, %ecx
	movl	20(%ebp), %edx
	movl	%ecx, (%esp)
	movl	%edx, %ecx
	call	*%eax
LVL173:
	subl	$4, %esp
	.loc 9 1110 35
	movl	$4, 4(%esp)
	movl	8(%ebp), %eax
	movl	%eax, (%esp)
	call	__ROTATE_L_UNIT
	movl	%eax, 8(%ebp)
	.loc 9 1110 78
	movl	20(%ebp), %eax
	movl	(%eax), %eax
	movl	(%eax), %eax
	.loc 9 1110 71
	movl	8(%ebp), %edx
	andl	$15, %edx
	.loc 9 1110 77
	leal	(%edx,%edx), %ecx
	movl	16(%ebp), %edx
	addl	%ecx, %edx
	movzwl	(%edx), %edx
	.loc 9 1110 56
	movzwl	%dx, %ecx
	movl	20(%ebp), %edx
	movl	%ecx, (%esp)
	movl	%edx, %ecx
	call	*%eax
LVL174:
	subl	$4, %esp
	.loc 9 1111 35
	movl	$4, 4(%esp)
	movl	8(%ebp), %eax
	movl	%eax, (%esp)
	call	__ROTATE_L_UNIT
	movl	%eax, 8(%ebp)
	.loc 9 1111 78
	movl	20(%ebp), %eax
	movl	(%eax), %eax
	movl	(%eax), %eax
	.loc 9 1111 71
	movl	8(%ebp), %edx
	andl	$15, %edx
	.loc 9 1111 77
	leal	(%edx,%edx), %ecx
	movl	16(%ebp), %edx
	addl	%ecx, %edx
	movzwl	(%edx), %edx
	.loc 9 1111 56
	movzwl	%dx, %ecx
	movl	20(%ebp), %edx
	movl	%ecx, (%esp)
	movl	%edx, %ecx
	call	*%eax
LVL175:
	subl	$4, %esp
	.loc 9 1112 35
	movl	$4, 4(%esp)
	movl	8(%ebp), %eax
	movl	%eax, (%esp)
	call	__ROTATE_L_UNIT
	movl	%eax, 8(%ebp)
	.loc 9 1112 78
	movl	20(%ebp), %eax
	movl	(%eax), %eax
	movl	(%eax), %eax
	.loc 9 1112 71
	movl	8(%ebp), %edx
	andl	$15, %edx
	.loc 9 1112 77
	leal	(%edx,%edx), %ecx
	movl	16(%ebp), %edx
	addl	%ecx, %edx
	movzwl	(%edx), %edx
	.loc 9 1112 56
	movzwl	%dx, %ecx
	movl	20(%ebp), %edx
	movl	%ecx, (%esp)
	movl	%edx, %ecx
	call	*%eax
LVL176:
	subl	$4, %esp
	.loc 9 1113 35
	movl	$4, 4(%esp)
	movl	8(%ebp), %eax
	movl	%eax, (%esp)
	call	__ROTATE_L_UNIT
	movl	%eax, 8(%ebp)
	.loc 9 1113 78
	movl	20(%ebp), %eax
	movl	(%eax), %eax
	movl	(%eax), %eax
	.loc 9 1113 71
	movl	8(%ebp), %edx
	andl	$15, %edx
	.loc 9 1113 77
	leal	(%edx,%edx), %ecx
	movl	16(%ebp), %edx
	addl	%ecx, %edx
	movzwl	(%edx), %edx
	.loc 9 1113 56
	movzwl	%dx, %ecx
	movl	20(%ebp), %edx
	movl	%ecx, (%esp)
	movl	%edx, %ecx
	call	*%eax
LVL177:
	subl	$4, %esp
	.loc 9 1114 35
	movl	$4, 4(%esp)
	movl	8(%ebp), %eax
	movl	%eax, (%esp)
	call	__ROTATE_L_UNIT
	movl	%eax, 8(%ebp)
	.loc 9 1114 78
	movl	20(%ebp), %eax
	movl	(%eax), %eax
	movl	(%eax), %eax
	.loc 9 1114 71
	movl	8(%ebp), %edx
	andl	$15, %edx
	.loc 9 1114 77
	leal	(%edx,%edx), %ecx
	movl	16(%ebp), %edx
	addl	%ecx, %edx
	movzwl	(%edx), %edx
	.loc 9 1114 56
	movzwl	%dx, %ecx
	movl	20(%ebp), %edx
	movl	%ecx, (%esp)
	movl	%edx, %ecx
	call	*%eax
LVL178:
	subl	$4, %esp
	.loc 9 1115 35
	movl	$4, 4(%esp)
	movl	8(%ebp), %eax
	movl	%eax, (%esp)
	call	__ROTATE_L_UNIT
	movl	%eax, 8(%ebp)
	.loc 9 1115 78
	movl	20(%ebp), %eax
	movl	(%eax), %eax
	movl	(%eax), %eax
	.loc 9 1115 71
	movl	8(%ebp), %edx
	andl	$15, %edx
	.loc 9 1115 77
	leal	(%edx,%edx), %ecx
	movl	16(%ebp), %edx
	addl	%ecx, %edx
	movzwl	(%edx), %edx
	.loc 9 1115 56
	movzwl	%dx, %ecx
	movl	20(%ebp), %edx
	movl	%ecx, (%esp)
	movl	%edx, %ecx
	call	*%eax
LVL179:
	subl	$4, %esp
L376:
	.loc 9 1117 23
	movl	-12(%ebp), %eax
	andl	$4, %eax
	.loc 9 1117 13
	testl	%eax, %eax
	je	L377
	.loc 9 1119 35
	movl	$4, 4(%esp)
	movl	8(%ebp), %eax
	movl	%eax, (%esp)
	call	__ROTATE_L_UNIT
	movl	%eax, 8(%ebp)
	.loc 9 1119 78
	movl	20(%ebp), %eax
	movl	(%eax), %eax
	movl	(%eax), %eax
	.loc 9 1119 71
	movl	8(%ebp), %edx
	andl	$15, %edx
	.loc 9 1119 77
	leal	(%edx,%edx), %ecx
	movl	16(%ebp), %edx
	addl	%ecx, %edx
	movzwl	(%edx), %edx
	.loc 9 1119 56
	movzwl	%dx, %ecx
	movl	20(%ebp), %edx
	movl	%ecx, (%esp)
	movl	%edx, %ecx
	call	*%eax
LVL180:
	subl	$4, %esp
	.loc 9 1120 35
	movl	$4, 4(%esp)
	movl	8(%ebp), %eax
	movl	%eax, (%esp)
	call	__ROTATE_L_UNIT
	movl	%eax, 8(%ebp)
	.loc 9 1120 78
	movl	20(%ebp), %eax
	movl	(%eax), %eax
	movl	(%eax), %eax
	.loc 9 1120 71
	movl	8(%ebp), %edx
	andl	$15, %edx
	.loc 9 1120 77
	leal	(%edx,%edx), %ecx
	movl	16(%ebp), %edx
	addl	%ecx, %edx
	movzwl	(%edx), %edx
	.loc 9 1120 56
	movzwl	%dx, %ecx
	movl	20(%ebp), %edx
	movl	%ecx, (%esp)
	movl	%edx, %ecx
	call	*%eax
LVL181:
	subl	$4, %esp
	.loc 9 1121 35
	movl	$4, 4(%esp)
	movl	8(%ebp), %eax
	movl	%eax, (%esp)
	call	__ROTATE_L_UNIT
	movl	%eax, 8(%ebp)
	.loc 9 1121 78
	movl	20(%ebp), %eax
	movl	(%eax), %eax
	movl	(%eax), %eax
	.loc 9 1121 71
	movl	8(%ebp), %edx
	andl	$15, %edx
	.loc 9 1121 77
	leal	(%edx,%edx), %ecx
	movl	16(%ebp), %edx
	addl	%ecx, %edx
	movzwl	(%edx), %edx
	.loc 9 1121 56
	movzwl	%dx, %ecx
	movl	20(%ebp), %edx
	movl	%ecx, (%esp)
	movl	%edx, %ecx
	call	*%eax
LVL182:
	subl	$4, %esp
	.loc 9 1122 35
	movl	$4, 4(%esp)
	movl	8(%ebp), %eax
	movl	%eax, (%esp)
	call	__ROTATE_L_UNIT
	movl	%eax, 8(%ebp)
	.loc 9 1122 78
	movl	20(%ebp), %eax
	movl	(%eax), %eax
	movl	(%eax), %eax
	.loc 9 1122 71
	movl	8(%ebp), %edx
	andl	$15, %edx
	.loc 9 1122 77
	leal	(%edx,%edx), %ecx
	movl	16(%ebp), %edx
	addl	%ecx, %edx
	movzwl	(%edx), %edx
	.loc 9 1122 56
	movzwl	%dx, %ecx
	movl	20(%ebp), %edx
	movl	%ecx, (%esp)
	movl	%edx, %ecx
	call	*%eax
LVL183:
	subl	$4, %esp
L377:
	.loc 9 1124 23
	movl	-12(%ebp), %eax
	andl	$2, %eax
	.loc 9 1124 13
	testl	%eax, %eax
	je	L378
	.loc 9 1126 35
	movl	$4, 4(%esp)
	movl	8(%ebp), %eax
	movl	%eax, (%esp)
	call	__ROTATE_L_UNIT
	movl	%eax, 8(%ebp)
	.loc 9 1126 78
	movl	20(%ebp), %eax
	movl	(%eax), %eax
	movl	(%eax), %eax
	.loc 9 1126 71
	movl	8(%ebp), %edx
	andl	$15, %edx
	.loc 9 1126 77
	leal	(%edx,%edx), %ecx
	movl	16(%ebp), %edx
	addl	%ecx, %edx
	movzwl	(%edx), %edx
	.loc 9 1126 56
	movzwl	%dx, %ecx
	movl	20(%ebp), %edx
	movl	%ecx, (%esp)
	movl	%edx, %ecx
	call	*%eax
LVL184:
	subl	$4, %esp
	.loc 9 1127 35
	movl	$4, 4(%esp)
	movl	8(%ebp), %eax
	movl	%eax, (%esp)
	call	__ROTATE_L_UNIT
	movl	%eax, 8(%ebp)
	.loc 9 1127 78
	movl	20(%ebp), %eax
	movl	(%eax), %eax
	movl	(%eax), %eax
	.loc 9 1127 71
	movl	8(%ebp), %edx
	andl	$15, %edx
	.loc 9 1127 77
	leal	(%edx,%edx), %ecx
	movl	16(%ebp), %edx
	addl	%ecx, %edx
	movzwl	(%edx), %edx
	.loc 9 1127 56
	movzwl	%dx, %ecx
	movl	20(%ebp), %edx
	movl	%ecx, (%esp)
	movl	%edx, %ecx
	call	*%eax
LVL185:
	subl	$4, %esp
L378:
	.loc 9 1129 23
	movl	-12(%ebp), %eax
	andl	$1, %eax
	.loc 9 1129 13
	testl	%eax, %eax
	je	L380
	.loc 9 1131 35
	movl	$4, 4(%esp)
	movl	8(%ebp), %eax
	movl	%eax, (%esp)
	call	__ROTATE_L_UNIT
	movl	%eax, 8(%ebp)
	.loc 9 1131 78
	movl	20(%ebp), %eax
	movl	(%eax), %eax
	movl	(%eax), %eax
	.loc 9 1131 71
	movl	8(%ebp), %edx
	andl	$15, %edx
	.loc 9 1131 77
	leal	(%edx,%edx), %ecx
	movl	16(%ebp), %edx
	addl	%ecx, %edx
	movzwl	(%edx), %edx
	.loc 9 1131 56
	movzwl	%dx, %ecx
	movl	20(%ebp), %edx
	movl	%ecx, (%esp)
	movl	%edx, %ecx
	call	*%eax
LVL186:
	subl	$4, %esp
L380:
	.loc 9 1133 9
	nop
	leave
	.cfi_restore 5
	.cfi_def_cfa 4, 4
	ret
	.cfi_endproc
LFE5252:
	.def	__ZN8Palmtree4Math4Core8Internal20HexaDecimalFormatterL9ToStringXEcPNS2_19__tag_NUMBER_HEADEREwiPKNS2_28__tag_PMC_NUMBER_FORMAT_INFOEPwj;	.scl	3;	.type	32;	.endef
__ZN8Palmtree4Math4Core8Internal20HexaDecimalFormatterL9ToStringXEcPNS2_19__tag_NUMBER_HEADEREwiPKNS2_28__tag_PMC_NUMBER_FORMAT_INFOEPwj:
LFB5253:
	.loc 9 1136 9
	.cfi_startproc
	.cfi_personality 0,___gxx_personality_v0
	.cfi_lsda 0,LLSDA5253
	pushl	%ebp
	.cfi_def_cfa_offset 8
	.cfi_offset 5, -8
	movl	%esp, %ebp
	.cfi_def_cfa_register 5
	pushl	%ebx
	subl	$148, %esp
	.cfi_offset 3, -12
	movl	8(%ebp), %edx
	movl	16(%ebp), %eax
	movb	%dl, -124(%ebp)
	movw	%ax, -128(%ebp)
	.loc 9 1137 13
	cmpl	$0, 20(%ebp)
	jg	L382
	.loc 9 1138 27
	movl	$1, 20(%ebp)
L382:
	.loc 9 1140 52
	leal	-92(%ebp), %eax
	movl	32(%ebp), %edx
	movl	%edx, 4(%esp)
	movl	28(%ebp), %edx
	movl	%edx, (%esp)
	movl	%eax, %ecx
	call	__ZN8Palmtree4Math4Core8Internal12StringWriterC1EPwj
	subl	$8, %esp
LBB59:
	.loc 9 1141 31
	movl	12(%ebp), %eax
	movzbl	4(%eax), %eax
	andl	$1, %eax
	.loc 9 1141 13
	testb	%al, %al
	je	L383
	.loc 9 1146 29
	movl	20(%ebp), %edx
	leal	-92(%ebp), %eax
	movl	%edx, 4(%esp)
	movl	$48, (%esp)
	movl	%eax, %ecx
LEHB21:
	call	__ZN8Palmtree4Math4Core8Internal12StringWriter5WriteEwj
	subl	$8, %esp
	.loc 9 1147 41
	leal	-92(%ebp), %eax
	movl	%eax, %ecx
	call	__ZN8Palmtree4Math4Core8Internal12StringWriter9GetLengthEv
	movl	%eax, %ebx
	.loc 9 1147 43
	jmp	L403
L383:
LBB60:
	.loc 9 1152 36
	leal	-108(%ebp), %eax
	movl	%eax, %ecx
	call	__ZN8Palmtree4Math4Core8Internal18ResourceHolderUINTC1Ev
LEHE21:
	.loc 9 1153 57
	movl	12(%ebp), %eax
	movl	20(%eax), %eax
	.loc 9 1153 29
	addl	$4, %eax
	movl	%eax, -52(%ebp)
	.loc 9 1154 59
	leal	-108(%ebp), %eax
	movl	-52(%ebp), %edx
	movl	%edx, (%esp)
	movl	%eax, %ecx
LEHB22:
	call	__ZN8Palmtree4Math4Core8Internal18ResourceHolderUINT13AllocateBlockEj
	subl	$4, %esp
	movl	%eax, -56(%ebp)
LBB61:
	.loc 9 1157 17
	cmpb	$0, -124(%ebp)
	js	L385
LBB62:
	.loc 9 1161 38
	movl	12(%ebp), %eax
	movl	16(%eax), %edx
	.loc 9 1161 56
	movl	12(%ebp), %eax
	movl	36(%eax), %eax
	.loc 9 1161 38
	movl	%edx, 8(%esp)
	movl	%eax, 4(%esp)
	movl	-56(%ebp), %eax
	movl	%eax, (%esp)
	call	__COPY_MEMORY_UNIT
	.loc 9 1162 75
	movl	$32, 4(%esp)
	movl	-52(%ebp), %eax
	movl	%eax, (%esp)
	call	__DIVIDE_CEILING_UNIT
	movl	%eax, -60(%ebp)
	.loc 9 1163 32
	movl	-60(%ebp), %eax
	sall	$3, %eax
	movl	%eax, -12(%ebp)
	.loc 9 1164 87
	movl	-60(%ebp), %eax
	leal	0(,%eax,4), %edx
	.loc 9 1164 58
	movl	-56(%ebp), %eax
	addl	%edx, %eax
	.loc 9 1164 36
	subl	$1, %eax
	movl	%eax, -20(%ebp)
L388:
	.loc 9 1165 32
	movl	-20(%ebp), %eax
	cmpl	-56(%ebp), %eax
	jb	L386
	.loc 9 1167 35
	movl	-20(%ebp), %eax
	movzbl	(%eax), %eax
	movzbl	%al, %eax
	.loc 9 1167 37
	sarl	$4, %eax
	.loc 9 1167 25
	testl	%eax, %eax
	jne	L386
	.loc 9 1167 57 discriminator 1
	movl	-20(%ebp), %eax
	movzbl	(%eax), %eax
	.loc 9 1167 59 discriminator 1
	movzbl	%al, %eax
	.loc 9 1167 66 discriminator 1
	andl	$8, %eax
	.loc 9 1167 48 discriminator 1
	testl	%eax, %eax
	jne	L386
	.loc 9 1171 25
	subl	$1, -12(%ebp)
	.loc 9 1173 29
	movl	-20(%ebp), %eax
	subl	$1, %eax
	.loc 9 1173 25
	cmpl	%eax, -56(%ebp)
	ja	L407
	.loc 9 1176 34
	movl	-20(%ebp), %eax
	movzbl	(%eax), %eax
	.loc 9 1176 25
	testb	%al, %al
	jne	L386
	.loc 9 1176 51 discriminator 1
	movl	-20(%ebp), %eax
	subl	$1, %eax
	movzbl	(%eax), %eax
	movzbl	%al, %eax
	.loc 9 1176 53 discriminator 1
	sarl	$4, %eax
	.loc 9 1176 41 discriminator 1
	cmpl	$7, %eax
	jg	L386
	.loc 9 1180 25
	subl	$1, -12(%ebp)
	.loc 9 1182 25
	subl	$1, -20(%ebp)
	.loc 9 1165 21
	jmp	L388
L407:
	.loc 9 1174 29
	nop
L386:
	.loc 9 1184 34
	movw	$48, -14(%ebp)
LBE62:
	jmp	L389
L385:
LBB63:
	.loc 9 1190 34
	movl	12(%ebp), %eax
	movl	36(%eax), %eax
	movl	%eax, -24(%ebp)
	.loc 9 1191 34
	movl	-56(%ebp), %eax
	movl	%eax, -28(%ebp)
	.loc 9 1192 33
	movl	12(%ebp), %eax
	movl	16(%eax), %eax
	movl	%eax, -32(%ebp)
	.loc 9 1193 26
	movb	$1, -33(%ebp)
L391:
	.loc 9 1194 34
	cmpl	$0, -32(%ebp)
	je	L390
	.loc 9 1196 51
	movl	-24(%ebp), %eax
	movl	(%eax), %eax
	.loc 9 1196 42
	notl	%eax
	movl	%eax, %ecx
	movsbl	-33(%ebp), %eax
	movl	-28(%ebp), %edx
	movl	%edx, 12(%esp)
	movl	$0, 8(%esp)
	movl	%ecx, 4(%esp)
	movl	%eax, (%esp)
	call	__ADD_UNIT
	movb	%al, -33(%ebp)
	.loc 9 1197 25
	addl	$4, -24(%ebp)
	.loc 9 1198 25
	addl	$4, -28(%ebp)
	.loc 9 1199 25
	subl	$1, -32(%ebp)
	.loc 9 1194 21
	jmp	L391
L390:
	.loc 9 1201 41
	movl	12(%ebp), %eax
	movl	16(%eax), %eax
	.loc 9 1201 32
	sall	$3, %eax
	movl	%eax, -12(%ebp)
	.loc 9 1202 75
	movl	12(%ebp), %eax
	movl	16(%eax), %eax
	.loc 9 1202 90
	leal	0(,%eax,4), %edx
	.loc 9 1202 58
	movl	-56(%ebp), %eax
	addl	%edx, %eax
	.loc 9 1202 36
	subl	$1, %eax
	movl	%eax, -40(%ebp)
L394:
	.loc 9 1203 32
	movl	-40(%ebp), %eax
	cmpl	-56(%ebp), %eax
	jb	L392
	.loc 9 1205 35
	movl	-40(%ebp), %eax
	movzbl	(%eax), %eax
	movzbl	%al, %eax
	.loc 9 1205 37
	sarl	$4, %eax
	.loc 9 1205 25
	cmpl	$15, %eax
	jne	L392
	.loc 9 1205 59 discriminator 1
	movl	-40(%ebp), %eax
	movzbl	(%eax), %eax
	.loc 9 1205 61 discriminator 1
	movzbl	%al, %eax
	.loc 9 1205 68 discriminator 1
	andl	$8, %eax
	.loc 9 1205 50 discriminator 1
	testl	%eax, %eax
	je	L392
	.loc 9 1209 30
	movl	-40(%ebp), %eax
	movzbl	(%eax), %eax
	andl	$15, %eax
	movl	%eax, %edx
	movl	-40(%ebp), %eax
	movb	%dl, (%eax)
	.loc 9 1210 25
	subl	$1, -12(%ebp)
	.loc 9 1212 29
	movl	-40(%ebp), %eax
	subl	$1, %eax
	.loc 9 1212 25
	cmpl	%eax, -56(%ebp)
	ja	L408
	.loc 9 1215 34
	movl	-40(%ebp), %eax
	movzbl	(%eax), %eax
	.loc 9 1215 25
	cmpb	$15, %al
	je	L392
	.loc 9 1215 53 discriminator 1
	movl	-40(%ebp), %eax
	subl	$1, %eax
	movzbl	(%eax), %eax
	movzbl	%al, %eax
	.loc 9 1215 55 discriminator 1
	sarl	$4, %eax
	.loc 9 1215 43 discriminator 1
	cmpl	$7, %eax
	jle	L392
	.loc 9 1219 30
	movl	-40(%ebp), %eax
	movb	$0, (%eax)
	.loc 9 1220 25
	subl	$1, -12(%ebp)
	.loc 9 1222 25
	subl	$1, -40(%ebp)
	.loc 9 1203 21
	jmp	L394
L408:
	.loc 9 1213 29
	nop
L392:
	.loc 9 1224 56
	cmpw	$88, -128(%ebp)
	jne	L395
	.loc 9 1224 56 is_stmt 0 discriminator 1
	movl	$70, %eax
	jmp	L396
L395:
	.loc 9 1224 56 discriminator 2
	movl	$102, %eax
L396:
	.loc 9 1224 34 is_stmt 1 discriminator 4
	movw	%ax, -14(%ebp)
L389:
LBE63:
LBE61:
	.loc 9 1226 32
	leal	-108(%ebp), %eax
	movl	-56(%ebp), %edx
	movl	%edx, (%esp)
	movl	%eax, %ecx
	call	__ZN8Palmtree4Math4Core8Internal18ResourceHolderUINT10CheckBlockEPj
	subl	$4, %esp
	.loc 9 1232 92
	movl	$8, 4(%esp)
	movl	-12(%ebp), %eax
	movl	%eax, (%esp)
	call	__DIVIDE_CEILING_UNIT
	.loc 9 1232 136
	sall	$3, %eax
	.loc 9 1232 182
	subl	-12(%ebp), %eax
	movl	%eax, -64(%ebp)
	.loc 9 1237 34
	movl	20(%ebp), %eax
	.loc 9 1237 17
	cmpl	%eax, -12(%ebp)
	jnb	L397
	.loc 9 1239 51
	movl	20(%ebp), %eax
	.loc 9 1239 39
	subl	-12(%ebp), %eax
	movl	%eax, -44(%ebp)
	.loc 9 1240 34
	movl	20(%ebp), %eax
	movl	%eax, -68(%ebp)
	jmp	L398
L397:
	.loc 9 1244 39
	movl	$0, -44(%ebp)
	.loc 9 1245 34
	movl	-12(%ebp), %eax
	movl	%eax, -68(%ebp)
L398:
	.loc 9 1247 29
	movzwl	-14(%ebp), %edx
	leal	-92(%ebp), %eax
	movl	-44(%ebp), %ecx
	movl	%ecx, 4(%esp)
	movl	%edx, (%esp)
	movl	%eax, %ecx
	call	__ZN8Palmtree4Math4Core8Internal12StringWriter5WriteEwj
	subl	$8, %esp
	.loc 9 1249 68
	movl	$8, 4(%esp)
	movl	-12(%ebp), %eax
	movl	%eax, (%esp)
	call	__DIVIDE_CEILING_UNIT
	.loc 9 1249 38
	addl	$1073741823, %eax
	leal	0(,%eax,4), %edx
	.loc 9 1249 115
	movl	-56(%ebp), %eax
	addl	%edx, %eax
	movl	%eax, -48(%ebp)
	.loc 9 1250 26
	cmpw	$88, -128(%ebp)
	jne	L399
	.loc 9 1250 26 is_stmt 0 discriminator 1
	movl	$__ZN8Palmtree4Math4Core8Internal20HexaDecimalFormatterL24hexadecimal_upper_digitsE, %eax
	jmp	L400
L399:
	.loc 9 1250 26 discriminator 2
	movl	$__ZN8Palmtree4Math4Core8Internal20HexaDecimalFormatterL24hexadecimal_lower_digitsE, %eax
L400:
	.loc 9 1250 26 discriminator 4
	movl	%eax, -72(%ebp)
	.loc 9 1251 47 is_stmt 1 discriminator 4
	movl	-48(%ebp), %eax
	movl	(%eax), %eax
	leal	-92(%ebp), %edx
	movl	%edx, 12(%esp)
	movl	-72(%ebp), %edx
	movl	%edx, 8(%esp)
	movl	-64(%ebp), %edx
	movl	%edx, 4(%esp)
	movl	%eax, (%esp)
	call	__ZN8Palmtree4Math4Core8Internal20HexaDecimalFormatterL30OutputHexNumberSequenceOneWordEjjPwPNS2_12StringWriterE
	.loc 9 1252 17
	subl	$4, -48(%ebp)
L402:
	.loc 9 1253 30
	movl	-48(%ebp), %eax
	cmpl	-56(%ebp), %eax
	jb	L401
	.loc 9 1255 51
	movl	-48(%ebp), %eax
	movl	(%eax), %eax
	leal	-92(%ebp), %edx
	movl	%edx, 12(%esp)
	movl	-72(%ebp), %edx
	movl	%edx, 8(%esp)
	movl	$0, 4(%esp)
	movl	%eax, (%esp)
	call	__ZN8Palmtree4Math4Core8Internal20HexaDecimalFormatterL30OutputHexNumberSequenceOneWordEjjPwPNS2_12StringWriterE
LEHE22:
	.loc 9 1256 21
	subl	$4, -48(%ebp)
	.loc 9 1253 17
	jmp	L402
L401:
	.loc 9 1258 41
	leal	-92(%ebp), %eax
	movl	%eax, %ecx
	call	__ZN8Palmtree4Math4Core8Internal12StringWriter9GetLengthEv
	movl	%eax, %ebx
	.loc 9 1258 43
	nop
	.loc 9 1152 36
	leal	-108(%ebp), %eax
	movl	%eax, %ecx
	call	__ZN8Palmtree4Math4Core8Internal18ResourceHolderUINTD1Ev
L403:
	movl	%ebx, %eax
	jmp	L406
L405:
	movl	%eax, %ebx
	leal	-108(%ebp), %eax
	movl	%eax, %ecx
	call	__ZN8Palmtree4Math4Core8Internal18ResourceHolderUINTD1Ev
	movl	%ebx, %eax
	movl	%eax, (%esp)
LEHB23:
	call	__Unwind_Resume
LEHE23:
L406:
LBE60:
LBE59:
	.loc 9 1260 9
	movl	-4(%ebp), %ebx
	leave
	.cfi_restore 5
	.cfi_restore 3
	.cfi_def_cfa 4, 4
	ret
	.cfi_endproc
LFE5253:
	.section	.gcc_except_table,"w"
LLSDA5253:
	.byte	0xff
	.byte	0xff
	.byte	0x1
	.uleb128 LLSDACSE5253-LLSDACSB5253
LLSDACSB5253:
	.uleb128 LEHB21-LFB5253
	.uleb128 LEHE21-LEHB21
	.uleb128 0
	.uleb128 0
	.uleb128 LEHB22-LFB5253
	.uleb128 LEHE22-LEHB22
	.uleb128 L405-LFB5253
	.uleb128 0
	.uleb128 LEHB23-LFB5253
	.uleb128 LEHE23-LEHB23
	.uleb128 0
	.uleb128 0
LLSDACSE5253:
	.text
	.section .rdata,"dr"
	.align 4
LC10:
	.ascii "\253"
	.ascii "0\271"
	.ascii "0\277"
	.ascii "0\340"
	.ascii "0\370f\17_k0\210"
	.ascii "0\213"
	.ascii "0T\0o\0S\0t\0r\0i\0n\0g\0o0\265"
	.ascii "0\335"
	.ascii "0\374"
	.ascii "0\310"
	.ascii "0U0\214"
	.ascii "0f0D0~0[0\223"
	.ascii "0\2"
	.ascii "0\0\0"
	.text
	.def	__ZN8Palmtree4Math4Core8Internal15CustomFormatterL14ToStringCustomEcPNS2_19__tag_NUMBER_HEADEREPKwPKNS2_28__tag_PMC_NUMBER_FORMAT_INFOEPwj;	.scl	3;	.type	32;	.endef
__ZN8Palmtree4Math4Core8Internal15CustomFormatterL14ToStringCustomEcPNS2_19__tag_NUMBER_HEADEREPKwPKNS2_28__tag_PMC_NUMBER_FORMAT_INFOEPwj:
LFB5254:
	.loc 9 1267 9
	.cfi_startproc
	pushl	%ebp
	.cfi_def_cfa_offset 8
	.cfi_offset 5, -8
	movl	%esp, %ebp
	.cfi_def_cfa_register 5
	pushl	%ebx
	subl	$36, %esp
	.cfi_offset 3, -12
	movl	8(%ebp), %eax
	movb	%al, -12(%ebp)
	.loc 9 1285 118
	movl	$16, (%esp)
	call	___cxa_allocate_exception
	movl	%eax, %ebx
	movl	$LC10, (%esp)
	movl	%ebx, %ecx
	call	__ZN8Palmtree4Math4Core8Internal21NotSupportedExceptionC1EPKw
	subl	$4, %esp
	movl	$__ZN8Palmtree4Math4Core8Internal21NotSupportedExceptionD1Ev, 8(%esp)
	movl	$__ZTIN8Palmtree4Math4Core8Internal21NotSupportedExceptionE, 4(%esp)
	movl	%ebx, (%esp)
	call	___cxa_throw
	.cfi_endproc
LFE5254:
	.def	__ZN8Palmtree4Math4Core8InternalL10__IS_ALPHAEw;	.scl	3;	.type	32;	.endef
__ZN8Palmtree4Math4Core8InternalL10__IS_ALPHAEw:
LFB5255:
	.loc 9 1291 5
	.cfi_startproc
	pushl	%ebp
	.cfi_def_cfa_offset 8
	.cfi_offset 5, -8
	movl	%esp, %ebp
	.cfi_def_cfa_register 5
	subl	$4, %esp
	movl	8(%ebp), %eax
	movw	%ax, -4(%ebp)
	.loc 9 1292 9
	cmpw	$64, -4(%ebp)
	jbe	L411
	.loc 9 1292 23 discriminator 1
	cmpw	$90, -4(%ebp)
	ja	L411
	.loc 9 1293 24
	movl	$1, %eax
	jmp	L412
L411:
	.loc 9 1294 9
	cmpw	$96, -4(%ebp)
	jbe	L413
	.loc 9 1294 23 discriminator 1
	cmpw	$122, -4(%ebp)
	ja	L413
	.loc 9 1295 24
	movl	$1, %eax
	jmp	L412
L413:
	.loc 9 1296 21
	movl	$0, %eax
L412:
	.loc 9 1297 5
	leave
	.cfi_restore 5
	.cfi_def_cfa 4, 4
	ret
	.cfi_endproc
LFE5255:
	.def	__ZN8Palmtree4Math4Core8InternalL10__IS_DIGITEw;	.scl	3;	.type	32;	.endef
__ZN8Palmtree4Math4Core8InternalL10__IS_DIGITEw:
LFB5256:
	.loc 9 1300 5
	.cfi_startproc
	pushl	%ebp
	.cfi_def_cfa_offset 8
	.cfi_offset 5, -8
	movl	%esp, %ebp
	.cfi_def_cfa_register 5
	subl	$4, %esp
	movl	8(%ebp), %eax
	movw	%ax, -4(%ebp)
	.loc 9 1301 9
	cmpw	$47, -4(%ebp)
	jbe	L415
	.loc 9 1301 23 discriminator 1
	cmpw	$57, -4(%ebp)
	ja	L415
	.loc 9 1302 24
	movl	$1, %eax
	jmp	L416
L415:
	.loc 9 1303 21
	movl	$0, %eax
L416:
	.loc 9 1304 5
	leave
	.cfi_restore 5
	.cfi_def_cfa 4, 4
	ret
	.cfi_endproc
LFE5256:
	.def	__ZN8Palmtree4Math4Core8InternalL19ParseStandardFormatEPKwPwPi;	.scl	3;	.type	32;	.endef
__ZN8Palmtree4Math4Core8InternalL19ParseStandardFormatEPKwPwPi:
LFB5257:
	.loc 9 1307 5
	.cfi_startproc
	pushl	%ebp
	.cfi_def_cfa_offset 8
	.cfi_offset 5, -8
	movl	%esp, %ebp
	.cfi_def_cfa_register 5
	subl	$4, %esp
	.loc 9 1308 9
	cmpl	$0, 8(%ebp)
	jne	L418
	.loc 9 1310 26
	movl	12(%ebp), %eax
	movw	$68, (%eax)
	.loc 9 1311 24
	movl	16(%ebp), %eax
	movl	$-1, (%eax)
	.loc 9 1312 24
	movl	$1, %eax
	jmp	L419
L418:
	.loc 9 1314 26
	movl	8(%ebp), %eax
	movzwl	(%eax), %eax
	.loc 9 1314 14
	testw	%ax, %ax
	jne	L420
	.loc 9 1316 26
	movl	12(%ebp), %eax
	movw	$68, (%eax)
	.loc 9 1317 24
	movl	16(%ebp), %eax
	movl	$-1, (%eax)
	.loc 9 1318 24
	movl	$1, %eax
	jmp	L419
L420:
	.loc 9 1320 37
	movl	8(%ebp), %eax
	movzwl	(%eax), %eax
	.loc 9 1320 28
	movzwl	%ax, %eax
	movl	%eax, (%esp)
	call	__ZN8Palmtree4Math4Core8InternalL10__IS_ALPHAEw
	.loc 9 1320 40
	testl	%eax, %eax
	je	L421
	.loc 9 1320 51 discriminator 1
	movl	8(%ebp), %eax
	addl	$2, %eax
	movzwl	(%eax), %eax
	.loc 9 1320 40 discriminator 1
	testw	%ax, %ax
	jne	L421
	.loc 9 1320 40 is_stmt 0 discriminator 3
	movl	$1, %eax
	jmp	L422
L421:
	.loc 9 1320 40 discriminator 4
	movl	$0, %eax
L422:
	.loc 9 1320 14 is_stmt 1 discriminator 6
	testb	%al, %al
	je	L423
	.loc 9 1322 36
	movl	8(%ebp), %eax
	movzwl	(%eax), %edx
	.loc 9 1322 26
	movl	12(%ebp), %eax
	movw	%dx, (%eax)
	.loc 9 1323 24
	movl	16(%ebp), %eax
	movl	$-1, (%eax)
	.loc 9 1324 24
	movl	$1, %eax
	jmp	L419
L423:
	.loc 9 1326 37
	movl	8(%ebp), %eax
	movzwl	(%eax), %eax
	.loc 9 1326 28
	movzwl	%ax, %eax
	movl	%eax, (%esp)
	call	__ZN8Palmtree4Math4Core8InternalL10__IS_ALPHAEw
	.loc 9 1326 65
	testl	%eax, %eax
	je	L424
	.loc 9 1326 62 discriminator 1
	movl	8(%ebp), %eax
	addl	$2, %eax
	movzwl	(%eax), %eax
	.loc 9 1326 53 discriminator 1
	movzwl	%ax, %eax
	movl	%eax, (%esp)
	call	__ZN8Palmtree4Math4Core8InternalL10__IS_DIGITEw
	.loc 9 1326 40 discriminator 1
	testl	%eax, %eax
	je	L424
	.loc 9 1326 76 discriminator 3
	movl	8(%ebp), %eax
	addl	$4, %eax
	movzwl	(%eax), %eax
	.loc 9 1326 65 discriminator 3
	testw	%ax, %ax
	jne	L424
	.loc 9 1326 65 is_stmt 0 discriminator 5
	movl	$1, %eax
	jmp	L425
L424:
	.loc 9 1326 65 discriminator 6
	movl	$0, %eax
L425:
	.loc 9 1326 14 is_stmt 1 discriminator 8
	testb	%al, %al
	je	L426
	.loc 9 1328 36
	movl	8(%ebp), %eax
	movzwl	(%eax), %edx
	.loc 9 1328 26
	movl	12(%ebp), %eax
	movw	%dx, (%eax)
	.loc 9 1329 34
	movl	8(%ebp), %eax
	addl	$2, %eax
	movzwl	(%eax), %eax
	movzwl	%ax, %eax
	.loc 9 1329 36
	leal	-48(%eax), %edx
	.loc 9 1329 24
	movl	16(%ebp), %eax
	movl	%edx, (%eax)
	.loc 9 1330 24
	movl	$1, %eax
	jmp	L419
L426:
	.loc 9 1332 37
	movl	8(%ebp), %eax
	movzwl	(%eax), %eax
	.loc 9 1332 28
	movzwl	%ax, %eax
	movl	%eax, (%esp)
	call	__ZN8Palmtree4Math4Core8InternalL10__IS_ALPHAEw
	.loc 9 1332 90
	testl	%eax, %eax
	je	L427
	.loc 9 1332 62 discriminator 1
	movl	8(%ebp), %eax
	addl	$2, %eax
	movzwl	(%eax), %eax
	.loc 9 1332 53 discriminator 1
	movzwl	%ax, %eax
	movl	%eax, (%esp)
	call	__ZN8Palmtree4Math4Core8InternalL10__IS_DIGITEw
	.loc 9 1332 40 discriminator 1
	testl	%eax, %eax
	je	L427
	.loc 9 1332 87 discriminator 3
	movl	8(%ebp), %eax
	addl	$4, %eax
	movzwl	(%eax), %eax
	.loc 9 1332 78 discriminator 3
	movzwl	%ax, %eax
	movl	%eax, (%esp)
	call	__ZN8Palmtree4Math4Core8InternalL10__IS_DIGITEw
	.loc 9 1332 65 discriminator 3
	testl	%eax, %eax
	je	L427
	.loc 9 1332 101 discriminator 5
	movl	8(%ebp), %eax
	addl	$6, %eax
	movzwl	(%eax), %eax
	.loc 9 1332 90 discriminator 5
	testw	%ax, %ax
	jne	L427
	.loc 9 1332 90 is_stmt 0 discriminator 7
	movl	$1, %eax
	jmp	L428
L427:
	.loc 9 1332 90 discriminator 8
	movl	$0, %eax
L428:
	.loc 9 1332 14 is_stmt 1 discriminator 10
	testb	%al, %al
	je	L429
	.loc 9 1334 36
	movl	8(%ebp), %eax
	movzwl	(%eax), %edx
	.loc 9 1334 26
	movl	12(%ebp), %eax
	movw	%dx, (%eax)
	.loc 9 1335 35
	movl	8(%ebp), %eax
	addl	$2, %eax
	movzwl	(%eax), %eax
	movzwl	%ax, %eax
	.loc 9 1335 37
	leal	-48(%eax), %edx
	.loc 9 1335 45
	movl	%edx, %eax
	sall	$2, %eax
	addl	%edx, %eax
	addl	%eax, %eax
	movl	%eax, %edx
	.loc 9 1335 61
	movl	8(%ebp), %eax
	addl	$4, %eax
	movzwl	(%eax), %eax
	movzwl	%ax, %eax
	.loc 9 1335 63
	subl	$48, %eax
	.loc 9 1335 50
	addl	%eax, %edx
	.loc 9 1335 24
	movl	16(%ebp), %eax
	movl	%edx, (%eax)
	.loc 9 1336 24
	movl	$1, %eax
	jmp	L419
L429:
	.loc 9 1339 25
	movl	$0, %eax
L419:
	.loc 9 1340 5
	leave
	.cfi_restore 5
	.cfi_def_cfa 4, 4
	ret
	.cfi_endproc
LFE5257:
	.section .rdata,"dr"
	.align 2
LC11:
	.ascii "*g\345wn0\370f\17_\7c\232[P[g0Y0\2"
	.ascii "0\0\0"
	.text
	.def	__ZN8Palmtree4Math4Core8InternalL12ToString_ImpEcPNS2_19__tag_NUMBER_HEADEREPKwPKNS2_28__tag_PMC_NUMBER_FORMAT_INFOEPwj;	.scl	3;	.type	32;	.endef
__ZN8Palmtree4Math4Core8InternalL12ToString_ImpEcPNS2_19__tag_NUMBER_HEADEREPKwPKNS2_28__tag_PMC_NUMBER_FORMAT_INFOEPwj:
LFB5258:
	.loc 9 1343 5
	.cfi_startproc
	pushl	%ebp
	.cfi_def_cfa_offset 8
	.cfi_offset 5, -8
	movl	%esp, %ebp
	.cfi_def_cfa_register 5
	pushl	%ebx
	subl	$68, %esp
	.cfi_offset 3, -12
	movl	8(%ebp), %eax
	movb	%al, -28(%ebp)
	.loc 9 1346 33
	leal	-16(%ebp), %eax
	movl	%eax, 8(%esp)
	leal	-10(%ebp), %eax
	movl	%eax, 4(%esp)
	movl	16(%ebp), %eax
	movl	%eax, (%esp)
	call	__ZN8Palmtree4Math4Core8InternalL19ParseStandardFormatEPKwPwPi
	.loc 9 1346 13
	testl	%eax, %eax
	sete	%al
	.loc 9 1346 9
	testb	%al, %al
	je	L431
	.loc 9 1347 52
	movsbl	-28(%ebp), %eax
	movl	28(%ebp), %edx
	movl	%edx, 20(%esp)
	movl	24(%ebp), %edx
	movl	%edx, 16(%esp)
	movl	20(%ebp), %edx
	movl	%edx, 12(%esp)
	movl	16(%ebp), %edx
	movl	%edx, 8(%esp)
	movl	12(%ebp), %edx
	movl	%edx, 4(%esp)
	movl	%eax, (%esp)
	call	__ZN8Palmtree4Math4Core8Internal15CustomFormatterL14ToStringCustomEcPNS2_19__tag_NUMBER_HEADEREPKwPKNS2_28__tag_PMC_NUMBER_FORMAT_INFOEPwj
	.loc 9 1347 111
	jmp	L444
L431:
	.loc 9 1350 13
	movzwl	-10(%ebp), %eax
	movzwl	%ax, %eax
	subl	$67, %eax
	cmpl	$53, %eax
	ja	L433
	movl	L435(,%eax,4), %eax
	jmp	*%eax
	.section .rdata,"dr"
	.align 4
L435:
	.long	L443
	.long	L442
	.long	L441
	.long	L440
	.long	L439
	.long	L433
	.long	L433
	.long	L433
	.long	L433
	.long	L433
	.long	L433
	.long	L438
	.long	L433
	.long	L437
	.long	L433
	.long	L436
	.long	L433
	.long	L433
	.long	L433
	.long	L433
	.long	L433
	.long	L434
	.long	L433
	.long	L433
	.long	L433
	.long	L433
	.long	L433
	.long	L433
	.long	L433
	.long	L433
	.long	L433
	.long	L433
	.long	L443
	.long	L442
	.long	L441
	.long	L440
	.long	L439
	.long	L433
	.long	L433
	.long	L433
	.long	L433
	.long	L433
	.long	L433
	.long	L438
	.long	L433
	.long	L437
	.long	L433
	.long	L436
	.long	L433
	.long	L433
	.long	L433
	.long	L433
	.long	L433
	.long	L434
	.text
L443:
	.loc 9 1354 52
	movl	-16(%ebp), %edx
	movsbl	-28(%ebp), %eax
	movl	28(%ebp), %ecx
	movl	%ecx, 24(%esp)
	movl	24(%ebp), %ecx
	movl	%ecx, 20(%esp)
	movl	20(%ebp), %ecx
	movl	%ecx, 16(%esp)
	movl	%edx, 12(%esp)
	movl	$67, 8(%esp)
	movl	12(%ebp), %edx
	movl	%edx, 4(%esp)
	movl	%eax, (%esp)
	call	__ZN8Palmtree4Math4Core8Internal16DecimalFromatterL9ToStringCEcPNS2_19__tag_NUMBER_HEADEREwiPKNS2_28__tag_PMC_NUMBER_FORMAT_INFOEPwj
	.loc 9 1354 120
	jmp	L444
L442:
	.loc 9 1357 52
	movl	-16(%ebp), %edx
	movsbl	-28(%ebp), %eax
	movl	28(%ebp), %ecx
	movl	%ecx, 24(%esp)
	movl	24(%ebp), %ecx
	movl	%ecx, 20(%esp)
	movl	20(%ebp), %ecx
	movl	%ecx, 16(%esp)
	movl	%edx, 12(%esp)
	movl	$68, 8(%esp)
	movl	12(%ebp), %edx
	movl	%edx, 4(%esp)
	movl	%eax, (%esp)
	call	__ZN8Palmtree4Math4Core8Internal16DecimalFromatterL9ToStringDEcPNS2_19__tag_NUMBER_HEADEREwiPKNS2_28__tag_PMC_NUMBER_FORMAT_INFOEPwj
	.loc 9 1357 120
	jmp	L444
L441:
	.loc 9 1360 52
	movl	-16(%ebp), %ecx
	movzwl	-10(%ebp), %eax
	movzwl	%ax, %edx
	movsbl	-28(%ebp), %eax
	movl	28(%ebp), %ebx
	movl	%ebx, 24(%esp)
	movl	24(%ebp), %ebx
	movl	%ebx, 20(%esp)
	movl	20(%ebp), %ebx
	movl	%ebx, 16(%esp)
	movl	%ecx, 12(%esp)
	movl	%edx, 8(%esp)
	movl	12(%ebp), %edx
	movl	%edx, 4(%esp)
	movl	%eax, (%esp)
	call	__ZN8Palmtree4Math4Core8Internal16DecimalFromatterL9ToStringEEcPNS2_19__tag_NUMBER_HEADEREwiPKNS2_28__tag_PMC_NUMBER_FORMAT_INFOEPwj
	.loc 9 1360 127
	jmp	L444
L440:
	.loc 9 1363 52
	movl	-16(%ebp), %edx
	movsbl	-28(%ebp), %eax
	movl	28(%ebp), %ecx
	movl	%ecx, 24(%esp)
	movl	24(%ebp), %ecx
	movl	%ecx, 20(%esp)
	movl	20(%ebp), %ecx
	movl	%ecx, 16(%esp)
	movl	%edx, 12(%esp)
	movl	$70, 8(%esp)
	movl	12(%ebp), %edx
	movl	%edx, 4(%esp)
	movl	%eax, (%esp)
	call	__ZN8Palmtree4Math4Core8Internal16DecimalFromatterL9ToStringFEcPNS2_19__tag_NUMBER_HEADEREwiPKNS2_28__tag_PMC_NUMBER_FORMAT_INFOEPwj
	.loc 9 1363 120
	jmp	L444
L439:
	.loc 9 1366 52
	movl	-16(%ebp), %edx
	movsbl	-28(%ebp), %eax
	movl	28(%ebp), %ecx
	movl	%ecx, 24(%esp)
	movl	24(%ebp), %ecx
	movl	%ecx, 20(%esp)
	movl	20(%ebp), %ecx
	movl	%ecx, 16(%esp)
	movl	%edx, 12(%esp)
	movl	$68, 8(%esp)
	movl	12(%ebp), %edx
	movl	%edx, 4(%esp)
	movl	%eax, (%esp)
	call	__ZN8Palmtree4Math4Core8Internal16DecimalFromatterL9ToStringDEcPNS2_19__tag_NUMBER_HEADEREwiPKNS2_28__tag_PMC_NUMBER_FORMAT_INFOEPwj
	.loc 9 1366 120
	jmp	L444
L438:
	.loc 9 1369 52
	movl	-16(%ebp), %edx
	movsbl	-28(%ebp), %eax
	movl	28(%ebp), %ecx
	movl	%ecx, 24(%esp)
	movl	24(%ebp), %ecx
	movl	%ecx, 20(%esp)
	movl	20(%ebp), %ecx
	movl	%ecx, 16(%esp)
	movl	%edx, 12(%esp)
	movl	$78, 8(%esp)
	movl	12(%ebp), %edx
	movl	%edx, 4(%esp)
	movl	%eax, (%esp)
	call	__ZN8Palmtree4Math4Core8Internal16DecimalFromatterL9ToStringNEcPNS2_19__tag_NUMBER_HEADEREwiPKNS2_28__tag_PMC_NUMBER_FORMAT_INFOEPwj
	.loc 9 1369 120
	jmp	L444
L437:
	.loc 9 1372 52
	movl	-16(%ebp), %edx
	movsbl	-28(%ebp), %eax
	movl	28(%ebp), %ecx
	movl	%ecx, 24(%esp)
	movl	24(%ebp), %ecx
	movl	%ecx, 20(%esp)
	movl	20(%ebp), %ecx
	movl	%ecx, 16(%esp)
	movl	%edx, 12(%esp)
	movl	$80, 8(%esp)
	movl	12(%ebp), %edx
	movl	%edx, 4(%esp)
	movl	%eax, (%esp)
	call	__ZN8Palmtree4Math4Core8Internal16DecimalFromatterL9ToStringPEcPNS2_19__tag_NUMBER_HEADEREwiPKNS2_28__tag_PMC_NUMBER_FORMAT_INFOEPwj
	.loc 9 1372 120
	jmp	L444
L436:
	.loc 9 1375 52
	movsbl	-28(%ebp), %eax
	movl	28(%ebp), %edx
	movl	%edx, 24(%esp)
	movl	24(%ebp), %edx
	movl	%edx, 20(%esp)
	movl	20(%ebp), %edx
	movl	%edx, 16(%esp)
	movl	$0, 12(%esp)
	movl	$68, 8(%esp)
	movl	12(%ebp), %edx
	movl	%edx, 4(%esp)
	movl	%eax, (%esp)
	call	__ZN8Palmtree4Math4Core8Internal16DecimalFromatterL9ToStringDEcPNS2_19__tag_NUMBER_HEADEREwiPKNS2_28__tag_PMC_NUMBER_FORMAT_INFOEPwj
	.loc 9 1375 112
	jmp	L444
L434:
	.loc 9 1378 56
	movl	-16(%ebp), %ecx
	movzwl	-10(%ebp), %eax
	movzwl	%ax, %edx
	movsbl	-28(%ebp), %eax
	movl	28(%ebp), %ebx
	movl	%ebx, 24(%esp)
	movl	24(%ebp), %ebx
	movl	%ebx, 20(%esp)
	movl	20(%ebp), %ebx
	movl	%ebx, 16(%esp)
	movl	%ecx, 12(%esp)
	movl	%edx, 8(%esp)
	movl	12(%ebp), %edx
	movl	%edx, 4(%esp)
	movl	%eax, (%esp)
	call	__ZN8Palmtree4Math4Core8Internal20HexaDecimalFormatterL9ToStringXEcPNS2_19__tag_NUMBER_HEADEREwiPKNS2_28__tag_PMC_NUMBER_FORMAT_INFOEPwj
	.loc 9 1378 131
	jmp	L444
L433:
	.loc 9 1380 75
	movl	$16, (%esp)
	call	___cxa_allocate_exception
	movl	%eax, %ebx
	movl	$LC11, (%esp)
	movl	%ebx, %ecx
	call	__ZN8Palmtree4Math4Core8Internal15FormatExceptionC1EPKw
	subl	$4, %esp
	movl	$__ZN8Palmtree4Math4Core8Internal15FormatExceptionD1Ev, 8(%esp)
	movl	$__ZTIN8Palmtree4Math4Core8Internal15FormatExceptionE, 4(%esp)
	movl	%ebx, (%esp)
	call	___cxa_throw
L444:
	.loc 9 1383 5 discriminator 1
	movl	-4(%ebp), %ebx
	leave
	.cfi_restore 5
	.cfi_restore 3
	.cfi_def_cfa 4, 4
	ret
	.cfi_endproc
LFE5258:
	.section .rdata,"dr"
	.align 2
LC12:
	.ascii "x\0\0\0"
	.align 4
LC13:
	.ascii "\25_pek0n\0u\0l\0l\0p\0t\0r\0L0\16NH0\211"
	.ascii "0\214"
	.ascii "0f0D0~0Y0\2"
	.ascii "0\0\0"
	.text
	.globl	__ZN8Palmtree4Math4Core8Internal12PMC_ToStringEPNS2_21__tag_PMC_HANDLE_UINTEPKwPKNS2_28__tag_PMC_NUMBER_FORMAT_INFOEPwj@20
	.def	__ZN8Palmtree4Math4Core8Internal12PMC_ToStringEPNS2_21__tag_PMC_HANDLE_UINTEPKwPKNS2_28__tag_PMC_NUMBER_FORMAT_INFOEPwj@20;	.scl	2;	.type	32;	.endef
__ZN8Palmtree4Math4Core8Internal12PMC_ToStringEPNS2_21__tag_PMC_HANDLE_UINTEPKwPKNS2_28__tag_PMC_NUMBER_FORMAT_INFOEPwj@20:
LFB5259:
	.loc 9 1386 5
	.cfi_startproc
	pushl	%ebp
	.cfi_def_cfa_offset 8
	.cfi_offset 5, -8
	movl	%esp, %ebp
	.cfi_def_cfa_register 5
	pushl	%ebx
	subl	$52, %esp
	.cfi_offset 3, -12
	.loc 9 1387 9
	cmpl	$0, 8(%ebp)
	jne	L446
	.loc 9 1388 96
	movl	$16, (%esp)
	call	___cxa_allocate_exception
	movl	%eax, %ebx
	movl	$LC12, 4(%esp)
	movl	$LC13, (%esp)
	movl	%ebx, %ecx
	call	__ZN8Palmtree4Math4Core8Internal21ArgumentNullExceptionC1EPKwS5_
	subl	$8, %esp
	movl	$__ZN8Palmtree4Math4Core8Internal21ArgumentNullExceptionD1Ev, 8(%esp)
	movl	$__ZTIN8Palmtree4Math4Core8Internal21ArgumentNullExceptionE, 4(%esp)
	movl	%ebx, (%esp)
	call	___cxa_throw
L446:
	.loc 9 1389 9
	cmpl	$0, 16(%ebp)
	jne	L447
	.loc 9 1390 27
	movl	$__ZN8Palmtree4Math4Core8InternalL28default_number_format_optionE, 16(%ebp)
L447:
	.loc 9 1391 24
	movl	8(%ebp), %eax
	movl	%eax, -12(%ebp)
	.loc 9 1392 20
	movl	-12(%ebp), %eax
	movl	%eax, (%esp)
	call	__ZN8Palmtree4Math4Core8Internal11CheckNumberEPNS2_19__tag_NUMBER_HEADERE
	.loc 9 1393 48
	movl	-12(%ebp), %eax
	movzbl	4(%eax), %eax
	.loc 9 1393 42
	andl	$1, %eax
	testb	%al, %al
	sete	%al
	.loc 9 1393 29
	movsbl	%al, %eax
	movl	24(%ebp), %edx
	movl	%edx, 20(%esp)
	movl	20(%ebp), %edx
	movl	%edx, 16(%esp)
	movl	16(%ebp), %edx
	movl	%edx, 12(%esp)
	movl	12(%ebp), %edx
	movl	%edx, 8(%esp)
	movl	-12(%ebp), %edx
	movl	%edx, 4(%esp)
	movl	%eax, (%esp)
	call	__ZN8Palmtree4Math4Core8InternalL12ToString_ImpEcPNS2_19__tag_NUMBER_HEADEREPKwPKNS2_28__tag_PMC_NUMBER_FORMAT_INFOEPwj
	.loc 9 1394 5
	movl	-4(%ebp), %ebx
	leave
	.cfi_restore 5
	.cfi_restore 3
	.cfi_def_cfa 4, 4
	ret	$20
	.cfi_endproc
LFE5259:
	.section .rdata,"dr"
	.align 2
LC14:
	.ascii ".\0\0\0"
	.align 2
LC15:
	.ascii ",\0\0\0"
	.align 2
LC16:
	.ascii "3\0\0\0"
	.align 2
LC17:
	.ascii "\244\0\0\0"
	.align 2
LC18:
	.ascii "-\0\0\0"
	.align 2
LC19:
	.ascii "%\0\0\0"
	.align 2
LC20:
	.ascii "0 \0\0"
	.align 2
LC21:
	.ascii "+\0\0\0"
	.text
	.globl	__ZN8Palmtree4Math4Core8Internal27InitializeNumberFormatoInfoEPNS2_28__tag_PMC_NUMBER_FORMAT_INFOE
	.def	__ZN8Palmtree4Math4Core8Internal27InitializeNumberFormatoInfoEPNS2_28__tag_PMC_NUMBER_FORMAT_INFOE;	.scl	2;	.type	32;	.endef
__ZN8Palmtree4Math4Core8Internal27InitializeNumberFormatoInfoEPNS2_28__tag_PMC_NUMBER_FORMAT_INFOE:
LFB5260:
	.loc 9 1397 5
	.cfi_startproc
	pushl	%ebp
	.cfi_def_cfa_offset 8
	.cfi_offset 5, -8
	movl	%esp, %ebp
	.cfi_def_cfa_register 5
	subl	$24, %esp
	.loc 9 1398 38
	movl	8(%ebp), %eax
	movl	$2, (%eax)
	.loc 9 1399 33
	movl	8(%ebp), %eax
	addl	$4, %eax
	.loc 9 1399 17
	movl	$LC14, 4(%esp)
	movl	%eax, (%esp)
	movl	__imp__lstrcpyW@8, %eax
	call	*%eax
LVL187:
	subl	$8, %esp
	.loc 9 1400 33
	movl	8(%ebp), %eax
	addl	$38, %eax
	.loc 9 1400 17
	movl	$LC15, 4(%esp)
	movl	%eax, (%esp)
	movl	__imp__lstrcpyW@8, %eax
	call	*%eax
LVL188:
	subl	$8, %esp
	.loc 9 1401 33
	movl	8(%ebp), %eax
	addl	$72, %eax
	.loc 9 1401 17
	movl	$LC16, 4(%esp)
	movl	%eax, (%esp)
	movl	__imp__lstrcpyW@8, %eax
	call	*%eax
LVL189:
	subl	$8, %esp
	.loc 9 1402 40
	movl	8(%ebp), %eax
	movl	$0, 96(%eax)
	.loc 9 1403 40
	movl	8(%ebp), %eax
	movl	$0, 100(%eax)
	.loc 9 1405 36
	movl	8(%ebp), %eax
	movl	$2, 104(%eax)
	.loc 9 1406 31
	movl	8(%ebp), %eax
	addl	$108, %eax
	.loc 9 1406 17
	movl	$LC14, 4(%esp)
	movl	%eax, (%esp)
	movl	__imp__lstrcpyW@8, %eax
	call	*%eax
LVL190:
	subl	$8, %esp
	.loc 9 1407 31
	movl	8(%ebp), %eax
	addl	$142, %eax
	.loc 9 1407 17
	movl	$LC15, 4(%esp)
	movl	%eax, (%esp)
	movl	__imp__lstrcpyW@8, %eax
	call	*%eax
LVL191:
	subl	$8, %esp
	.loc 9 1408 31
	movl	8(%ebp), %eax
	addl	$176, %eax
	.loc 9 1408 17
	movl	$LC16, 4(%esp)
	movl	%eax, (%esp)
	movl	__imp__lstrcpyW@8, %eax
	call	*%eax
LVL192:
	subl	$8, %esp
	.loc 9 1409 38
	movl	8(%ebp), %eax
	movl	$1, 200(%eax)
	.loc 9 1410 38
	movl	8(%ebp), %eax
	movl	$-1, 204(%eax)
	.loc 9 1412 37
	movl	8(%ebp), %eax
	movl	$2, 208(%eax)
	.loc 9 1413 32
	movl	8(%ebp), %eax
	addl	$212, %eax
	.loc 9 1413 17
	movl	$LC14, 4(%esp)
	movl	%eax, (%esp)
	movl	__imp__lstrcpyW@8, %eax
	call	*%eax
LVL193:
	subl	$8, %esp
	.loc 9 1414 32
	movl	8(%ebp), %eax
	addl	$246, %eax
	.loc 9 1414 17
	movl	$LC15, 4(%esp)
	movl	%eax, (%esp)
	movl	__imp__lstrcpyW@8, %eax
	call	*%eax
LVL194:
	subl	$8, %esp
	.loc 9 1415 32
	movl	8(%ebp), %eax
	addl	$280, %eax
	.loc 9 1415 17
	movl	$LC16, 4(%esp)
	movl	%eax, (%esp)
	movl	__imp__lstrcpyW@8, %eax
	call	*%eax
LVL195:
	subl	$8, %esp
	.loc 9 1416 39
	movl	8(%ebp), %eax
	movl	$0, 304(%eax)
	.loc 9 1417 39
	movl	8(%ebp), %eax
	movl	$0, 308(%eax)
	.loc 9 1419 24
	movl	8(%ebp), %eax
	addl	$312, %eax
	.loc 9 1419 17
	movl	$LC17, 4(%esp)
	movl	%eax, (%esp)
	movl	__imp__lstrcpyW@8, %eax
	call	*%eax
LVL196:
	subl	$8, %esp
	.loc 9 1420 24
	movl	8(%ebp), %eax
	addl	$346, %eax
	.loc 9 1420 17
	movl	$LC18, 4(%esp)
	movl	%eax, (%esp)
	movl	__imp__lstrcpyW@8, %eax
	call	*%eax
LVL197:
	subl	$8, %esp
	.loc 9 1421 24
	movl	8(%ebp), %eax
	addl	$414, %eax
	.loc 9 1421 17
	movl	$LC19, 4(%esp)
	movl	%eax, (%esp)
	movl	__imp__lstrcpyW@8, %eax
	call	*%eax
LVL198:
	subl	$8, %esp
	.loc 9 1422 24
	movl	8(%ebp), %eax
	addl	$448, %eax
	.loc 9 1422 17
	movl	$LC20, 4(%esp)
	movl	%eax, (%esp)
	movl	__imp__lstrcpyW@8, %eax
	call	*%eax
LVL199:
	subl	$8, %esp
	.loc 9 1423 24
	movl	8(%ebp), %eax
	addl	$380, %eax
	.loc 9 1423 17
	movl	$LC21, 4(%esp)
	movl	%eax, (%esp)
	movl	__imp__lstrcpyW@8, %eax
	call	*%eax
LVL200:
	subl	$8, %esp
	.loc 9 1424 5
	nop
	leave
	.cfi_restore 5
	.cfi_def_cfa 4, 4
	ret
	.cfi_endproc
LFE5260:
	.globl	__ZN8Palmtree4Math4Core8Internal30PMC_InitializeNumberFormatInfoEPNS2_28__tag_PMC_NUMBER_FORMAT_INFOE@4
	.def	__ZN8Palmtree4Math4Core8Internal30PMC_InitializeNumberFormatInfoEPNS2_28__tag_PMC_NUMBER_FORMAT_INFOE@4;	.scl	2;	.type	32;	.endef
__ZN8Palmtree4Math4Core8Internal30PMC_InitializeNumberFormatInfoEPNS2_28__tag_PMC_NUMBER_FORMAT_INFOE@4:
LFB5261:
	.loc 9 1427 5
	.cfi_startproc
	pushl	%ebp
	.cfi_def_cfa_offset 8
	.cfi_offset 5, -8
	movl	%esp, %ebp
	.cfi_def_cfa_register 5
	subl	$24, %esp
	.loc 9 1428 36
	movl	8(%ebp), %eax
	movl	%eax, (%esp)
	call	__ZN8Palmtree4Math4Core8Internal27InitializeNumberFormatoInfoEPNS2_28__tag_PMC_NUMBER_FORMAT_INFOE
	.loc 9 1429 5
	nop
	leave
	.cfi_restore 5
	.cfi_def_cfa 4, 4
	ret	$4
	.cfi_endproc
LFE5261:
	.globl	__ZN8Palmtree4Math4Core8Internal19Initialize_ToStringEPNS2_23_tag_PROCESSOR_FEATURESE
	.def	__ZN8Palmtree4Math4Core8Internal19Initialize_ToStringEPNS2_23_tag_PROCESSOR_FEATURESE;	.scl	2;	.type	32;	.endef
__ZN8Palmtree4Math4Core8Internal19Initialize_ToStringEPNS2_23_tag_PROCESSOR_FEATURESE:
LFB5262:
	.loc 9 1432 5
	.cfi_startproc
	pushl	%ebp
	.cfi_def_cfa_offset 8
	.cfi_offset 5, -8
	movl	%esp, %ebp
	.cfi_def_cfa_register 5
	subl	$24, %esp
	.loc 9 1433 36
	movl	$__ZN8Palmtree4Math4Core8InternalL28default_number_format_optionE, (%esp)
	call	__ZN8Palmtree4Math4Core8Internal27InitializeNumberFormatoInfoEPNS2_28__tag_PMC_NUMBER_FORMAT_INFOE
	.loc 9 1435 20
	movl	$0, %eax
	.loc 9 1436 5
	leave
	.cfi_restore 5
	.cfi_def_cfa 4, 4
	ret
	.cfi_endproc
LFE5262:
	.section	.text$_ZSt5floorIjEN9__gnu_cxx11__enable_ifIXsrSt12__is_integerIT_E7__valueEdE6__typeES3_,"x"
	.linkonce discard
	.globl	__ZSt5floorIjEN9__gnu_cxx11__enable_ifIXsrSt12__is_integerIT_E7__valueEdE6__typeES3_
	.def	__ZSt5floorIjEN9__gnu_cxx11__enable_ifIXsrSt12__is_integerIT_E7__valueEdE6__typeES3_;	.scl	2;	.type	32;	.endef
__ZSt5floorIjEN9__gnu_cxx11__enable_ifIXsrSt12__is_integerIT_E7__valueEdE6__typeES3_:
LFB5263:
	.file 10 "C:/GNU/MINGW64/i686-8.1.0-win32-dwarf-rt_v6-rev0/mingw32/lib/gcc/i686-w64-mingw32/8.1.0/include/c++/cmath"
	.loc 10 272 5
	.cfi_startproc
	pushl	%ebp
	.cfi_def_cfa_offset 8
	.cfi_offset 5, -8
	movl	%esp, %ebp
	.cfi_def_cfa_register 5
	subl	$16, %esp
	.loc 10 273 29
	movl	8(%ebp), %eax
	movl	$0, %edx
	movl	%eax, -16(%ebp)
	movl	%edx, -12(%ebp)
	fildq	-16(%ebp)
	fstpl	-8(%ebp)
	fldl	-8(%ebp)
	.loc 10 273 36
	leave
	.cfi_restore 5
	.cfi_def_cfa 4, 4
	ret
	.cfi_endproc
LFE5263:
	.globl	__ZTVN8Palmtree4Math4Core8Internal16DecimalFromatter14FormatterTypePE
	.section	.rdata$_ZTVN8Palmtree4Math4Core8Internal16DecimalFromatter14FormatterTypePE,"dr"
	.linkonce same_size
	.align 4
__ZTVN8Palmtree4Math4Core8Internal16DecimalFromatter14FormatterTypePE:
	.long	0
	.long	__ZTIN8Palmtree4Math4Core8Internal16DecimalFromatter14FormatterTypePE
	.long	__ZN8Palmtree4Math4Core8Internal16DecimalFromatter14FormatterTypeP24GetDefaultPrecisionValueEv
	.long	__ZN8Palmtree4Math4Core8Internal16DecimalFromatter14FormatterTypeP16FormatInternallyEPNS2_19__tag_NUMBER_HEADEREPNS2_12StringWriterE
	.long	__ZN8Palmtree4Math4Core8Internal16DecimalFromatter14FormatterTypeP14WriteZeroValueEPNS2_12StringWriterE
	.long	__ZN8Palmtree4Math4Core8Internal16DecimalFromatter14FormatterTypeP11WritePrefixEcPNS2_12StringWriterE
	.long	__ZN8Palmtree4Math4Core8Internal16DecimalFromatter14FormatterTypeP20FormatNumberSequenceEPKwPNS2_12StringWriterE
	.long	__ZN8Palmtree4Math4Core8Internal16DecimalFromatter14FormatterTypeP11WriteSuffixEcPNS2_12StringWriterE
	.globl	__ZTVN8Palmtree4Math4Core8Internal16DecimalFromatter14FormatterTypeNE
	.section	.rdata$_ZTVN8Palmtree4Math4Core8Internal16DecimalFromatter14FormatterTypeNE,"dr"
	.linkonce same_size
	.align 4
__ZTVN8Palmtree4Math4Core8Internal16DecimalFromatter14FormatterTypeNE:
	.long	0
	.long	__ZTIN8Palmtree4Math4Core8Internal16DecimalFromatter14FormatterTypeNE
	.long	__ZN8Palmtree4Math4Core8Internal16DecimalFromatter14FormatterTypeN24GetDefaultPrecisionValueEv
	.long	__ZN8Palmtree4Math4Core8Internal16DecimalFromatter9Formatter16FormatInternallyEPNS2_19__tag_NUMBER_HEADEREPNS2_12StringWriterE
	.long	__ZN8Palmtree4Math4Core8Internal16DecimalFromatter14FormatterTypeN14WriteZeroValueEPNS2_12StringWriterE
	.long	__ZN8Palmtree4Math4Core8Internal16DecimalFromatter14FormatterTypeN11WritePrefixEcPNS2_12StringWriterE
	.long	__ZN8Palmtree4Math4Core8Internal16DecimalFromatter14FormatterTypeN20FormatNumberSequenceEPKwPNS2_12StringWriterE
	.long	__ZN8Palmtree4Math4Core8Internal16DecimalFromatter14FormatterTypeN11WriteSuffixEcPNS2_12StringWriterE
	.globl	__ZTVN8Palmtree4Math4Core8Internal16DecimalFromatter14FormatterTypeFE
	.section	.rdata$_ZTVN8Palmtree4Math4Core8Internal16DecimalFromatter14FormatterTypeFE,"dr"
	.linkonce same_size
	.align 4
__ZTVN8Palmtree4Math4Core8Internal16DecimalFromatter14FormatterTypeFE:
	.long	0
	.long	__ZTIN8Palmtree4Math4Core8Internal16DecimalFromatter14FormatterTypeFE
	.long	__ZN8Palmtree4Math4Core8Internal16DecimalFromatter14FormatterTypeF24GetDefaultPrecisionValueEv
	.long	__ZN8Palmtree4Math4Core8Internal16DecimalFromatter9Formatter16FormatInternallyEPNS2_19__tag_NUMBER_HEADEREPNS2_12StringWriterE
	.long	__ZN8Palmtree4Math4Core8Internal16DecimalFromatter14FormatterTypeF14WriteZeroValueEPNS2_12StringWriterE
	.long	__ZN8Palmtree4Math4Core8Internal16DecimalFromatter14FormatterTypeF11WritePrefixEcPNS2_12StringWriterE
	.long	__ZN8Palmtree4Math4Core8Internal16DecimalFromatter14FormatterTypeF20FormatNumberSequenceEPKwPNS2_12StringWriterE
	.long	__ZN8Palmtree4Math4Core8Internal16DecimalFromatter14FormatterTypeF11WriteSuffixEcPNS2_12StringWriterE
	.globl	__ZTVN8Palmtree4Math4Core8Internal16DecimalFromatter14FormatterTypeEE
	.section	.rdata$_ZTVN8Palmtree4Math4Core8Internal16DecimalFromatter14FormatterTypeEE,"dr"
	.linkonce same_size
	.align 4
__ZTVN8Palmtree4Math4Core8Internal16DecimalFromatter14FormatterTypeEE:
	.long	0
	.long	__ZTIN8Palmtree4Math4Core8Internal16DecimalFromatter14FormatterTypeEE
	.long	__ZN8Palmtree4Math4Core8Internal16DecimalFromatter14FormatterTypeE24GetDefaultPrecisionValueEv
	.long	__ZN8Palmtree4Math4Core8Internal16DecimalFromatter14FormatterTypeE16FormatInternallyEPNS2_19__tag_NUMBER_HEADEREPNS2_12StringWriterE
	.long	__ZN8Palmtree4Math4Core8Internal16DecimalFromatter14FormatterTypeE14WriteZeroValueEPNS2_12StringWriterE
	.long	__ZN8Palmtree4Math4Core8Internal16DecimalFromatter14FormatterTypeE11WritePrefixEcPNS2_12StringWriterE
	.long	__ZN8Palmtree4Math4Core8Internal16DecimalFromatter14FormatterTypeE20FormatNumberSequenceEPKwPNS2_12StringWriterE
	.long	__ZN8Palmtree4Math4Core8Internal16DecimalFromatter14FormatterTypeE11WriteSuffixEcPNS2_12StringWriterE
	.globl	__ZTVN8Palmtree4Math4Core8Internal16DecimalFromatter14FormatterTypeDE
	.section	.rdata$_ZTVN8Palmtree4Math4Core8Internal16DecimalFromatter14FormatterTypeDE,"dr"
	.linkonce same_size
	.align 4
__ZTVN8Palmtree4Math4Core8Internal16DecimalFromatter14FormatterTypeDE:
	.long	0
	.long	__ZTIN8Palmtree4Math4Core8Internal16DecimalFromatter14FormatterTypeDE
	.long	__ZN8Palmtree4Math4Core8Internal16DecimalFromatter14FormatterTypeD24GetDefaultPrecisionValueEv
	.long	__ZN8Palmtree4Math4Core8Internal16DecimalFromatter9Formatter16FormatInternallyEPNS2_19__tag_NUMBER_HEADEREPNS2_12StringWriterE
	.long	__ZN8Palmtree4Math4Core8Internal16DecimalFromatter14FormatterTypeD14WriteZeroValueEPNS2_12StringWriterE
	.long	__ZN8Palmtree4Math4Core8Internal16DecimalFromatter14FormatterTypeD11WritePrefixEcPNS2_12StringWriterE
	.long	__ZN8Palmtree4Math4Core8Internal16DecimalFromatter14FormatterTypeD20FormatNumberSequenceEPKwPNS2_12StringWriterE
	.long	__ZN8Palmtree4Math4Core8Internal16DecimalFromatter14FormatterTypeD11WriteSuffixEcPNS2_12StringWriterE
	.globl	__ZTVN8Palmtree4Math4Core8Internal16DecimalFromatter14FormatterTypeCE
	.section	.rdata$_ZTVN8Palmtree4Math4Core8Internal16DecimalFromatter14FormatterTypeCE,"dr"
	.linkonce same_size
	.align 4
__ZTVN8Palmtree4Math4Core8Internal16DecimalFromatter14FormatterTypeCE:
	.long	0
	.long	__ZTIN8Palmtree4Math4Core8Internal16DecimalFromatter14FormatterTypeCE
	.long	__ZN8Palmtree4Math4Core8Internal16DecimalFromatter14FormatterTypeC24GetDefaultPrecisionValueEv
	.long	__ZN8Palmtree4Math4Core8Internal16DecimalFromatter9Formatter16FormatInternallyEPNS2_19__tag_NUMBER_HEADEREPNS2_12StringWriterE
	.long	__ZN8Palmtree4Math4Core8Internal16DecimalFromatter14FormatterTypeC14WriteZeroValueEPNS2_12StringWriterE
	.long	__ZN8Palmtree4Math4Core8Internal16DecimalFromatter14FormatterTypeC11WritePrefixEcPNS2_12StringWriterE
	.long	__ZN8Palmtree4Math4Core8Internal16DecimalFromatter14FormatterTypeC20FormatNumberSequenceEPKwPNS2_12StringWriterE
	.long	__ZN8Palmtree4Math4Core8Internal16DecimalFromatter14FormatterTypeC11WriteSuffixEcPNS2_12StringWriterE
	.globl	__ZTVN8Palmtree4Math4Core8Internal16DecimalFromatter9FormatterE
	.section	.rdata$_ZTVN8Palmtree4Math4Core8Internal16DecimalFromatter9FormatterE,"dr"
	.linkonce same_size
	.align 4
__ZTVN8Palmtree4Math4Core8Internal16DecimalFromatter9FormatterE:
	.long	0
	.long	__ZTIN8Palmtree4Math4Core8Internal16DecimalFromatter9FormatterE
	.long	___cxa_pure_virtual
	.long	__ZN8Palmtree4Math4Core8Internal16DecimalFromatter9Formatter16FormatInternallyEPNS2_19__tag_NUMBER_HEADEREPNS2_12StringWriterE
	.long	___cxa_pure_virtual
	.long	___cxa_pure_virtual
	.long	___cxa_pure_virtual
	.long	___cxa_pure_virtual
	.globl	__ZTVN8Palmtree4Math4Core8Internal16DecimalFromatter29ThousandSeparatedStringWriterE
	.section	.rdata$_ZTVN8Palmtree4Math4Core8Internal16DecimalFromatter29ThousandSeparatedStringWriterE,"dr"
	.linkonce same_size
	.align 4
__ZTVN8Palmtree4Math4Core8Internal16DecimalFromatter29ThousandSeparatedStringWriterE:
	.long	0
	.long	__ZTIN8Palmtree4Math4Core8Internal16DecimalFromatter29ThousandSeparatedStringWriterE
	.long	__ZN8Palmtree4Math4Core8Internal16DecimalFromatter29ThousandSeparatedStringWriter5WriteEw
	.long	__ZN8Palmtree4Math4Core8Internal16DecimalFromatter29ThousandSeparatedStringWriter5WriteEPKw
	.long	__ZN8Palmtree4Math4Core8Internal16DecimalFromatter29ThousandSeparatedStringWriter9GetStringEv
	.globl	__ZTVN8Palmtree4Math4Core8Internal19ReverseStringWriterE
	.section	.rdata$_ZTVN8Palmtree4Math4Core8Internal19ReverseStringWriterE,"dr"
	.linkonce same_size
	.align 4
__ZTVN8Palmtree4Math4Core8Internal19ReverseStringWriterE:
	.long	0
	.long	__ZTIN8Palmtree4Math4Core8Internal19ReverseStringWriterE
	.long	__ZN8Palmtree4Math4Core8Internal19ReverseStringWriter5WriteEw
	.long	__ZN8Palmtree4Math4Core8Internal19ReverseStringWriter5WriteEPKw
	.long	__ZN8Palmtree4Math4Core8Internal19ReverseStringWriter9GetStringEv
	.globl	__ZTVN8Palmtree4Math4Core8Internal12StringWriterE
	.section	.rdata$_ZTVN8Palmtree4Math4Core8Internal12StringWriterE,"dr"
	.linkonce same_size
	.align 4
__ZTVN8Palmtree4Math4Core8Internal12StringWriterE:
	.long	0
	.long	__ZTIN8Palmtree4Math4Core8Internal12StringWriterE
	.long	__ZN8Palmtree4Math4Core8Internal12StringWriter5WriteEw
	.long	__ZN8Palmtree4Math4Core8Internal12StringWriter5WriteEPKw
	.long	__ZN8Palmtree4Math4Core8Internal12StringWriter9GetStringEv
	.globl	__ZTVN8Palmtree4Math4Core8Internal19ReverseStringReaderE
	.section	.rdata$_ZTVN8Palmtree4Math4Core8Internal19ReverseStringReaderE,"dr"
	.linkonce same_size
	.align 4
__ZTVN8Palmtree4Math4Core8Internal19ReverseStringReaderE:
	.long	0
	.long	__ZTIN8Palmtree4Math4Core8Internal19ReverseStringReaderE
	.long	__ZN8Palmtree4Math4Core8Internal19ReverseStringReader8PeekCharEv
	.long	__ZN8Palmtree4Math4Core8Internal19ReverseStringReader8ProgressEv
	.long	__ZN8Palmtree4Math4Core8Internal19ReverseStringReader10StartsWithEPKw
	.long	__ZN8Palmtree4Math4Core8Internal19ReverseStringReader10SkipStringEPKw
	.globl	__ZTVN8Palmtree4Math4Core8Internal12StringReaderE
	.section	.rdata$_ZTVN8Palmtree4Math4Core8Internal12StringReaderE,"dr"
	.linkonce same_size
	.align 4
__ZTVN8Palmtree4Math4Core8Internal12StringReaderE:
	.long	0
	.long	__ZTIN8Palmtree4Math4Core8Internal12StringReaderE
	.long	__ZN8Palmtree4Math4Core8Internal12StringReader8PeekCharEv
	.long	__ZN8Palmtree4Math4Core8Internal12StringReader8ProgressEv
	.long	__ZN8Palmtree4Math4Core8Internal12StringReader10StartsWithEPKw
	.long	__ZN8Palmtree4Math4Core8Internal12StringReader10SkipStringEPKw
	.globl	__ZTVN8Palmtree4Math4Core8Internal22InternalErrorExceptionE
	.section	.rdata$_ZTVN8Palmtree4Math4Core8Internal22InternalErrorExceptionE,"dr"
	.linkonce same_size
	.align 4
__ZTVN8Palmtree4Math4Core8Internal22InternalErrorExceptionE:
	.long	0
	.long	__ZTIN8Palmtree4Math4Core8Internal22InternalErrorExceptionE
	.long	__ZN8Palmtree4Math4Core8Internal22InternalErrorExceptionD1Ev
	.long	__ZN8Palmtree4Math4Core8Internal22InternalErrorExceptionD0Ev
	.long	__ZNKSt9exception4whatEv
	.globl	__ZTVN8Palmtree4Math4Core8Internal21NotSupportedExceptionE
	.section	.rdata$_ZTVN8Palmtree4Math4Core8Internal21NotSupportedExceptionE,"dr"
	.linkonce same_size
	.align 4
__ZTVN8Palmtree4Math4Core8Internal21NotSupportedExceptionE:
	.long	0
	.long	__ZTIN8Palmtree4Math4Core8Internal21NotSupportedExceptionE
	.long	__ZN8Palmtree4Math4Core8Internal21NotSupportedExceptionD1Ev
	.long	__ZN8Palmtree4Math4Core8Internal21NotSupportedExceptionD0Ev
	.long	__ZNKSt9exception4whatEv
	.globl	__ZTVN8Palmtree4Math4Core8Internal27InsufficientBufferExceptionE
	.section	.rdata$_ZTVN8Palmtree4Math4Core8Internal27InsufficientBufferExceptionE,"dr"
	.linkonce same_size
	.align 4
__ZTVN8Palmtree4Math4Core8Internal27InsufficientBufferExceptionE:
	.long	0
	.long	__ZTIN8Palmtree4Math4Core8Internal27InsufficientBufferExceptionE
	.long	__ZN8Palmtree4Math4Core8Internal27InsufficientBufferExceptionD1Ev
	.long	__ZN8Palmtree4Math4Core8Internal27InsufficientBufferExceptionD0Ev
	.long	__ZNKSt9exception4whatEv
	.globl	__ZTVN8Palmtree4Math4Core8Internal15FormatExceptionE
	.section	.rdata$_ZTVN8Palmtree4Math4Core8Internal15FormatExceptionE,"dr"
	.linkonce same_size
	.align 4
__ZTVN8Palmtree4Math4Core8Internal15FormatExceptionE:
	.long	0
	.long	__ZTIN8Palmtree4Math4Core8Internal15FormatExceptionE
	.long	__ZN8Palmtree4Math4Core8Internal15FormatExceptionD1Ev
	.long	__ZN8Palmtree4Math4Core8Internal15FormatExceptionD0Ev
	.long	__ZNKSt9exception4whatEv
	.globl	__ZTVN8Palmtree4Math4Core8Internal21ArgumentNullExceptionE
	.section	.rdata$_ZTVN8Palmtree4Math4Core8Internal21ArgumentNullExceptionE,"dr"
	.linkonce same_size
	.align 4
__ZTVN8Palmtree4Math4Core8Internal21ArgumentNullExceptionE:
	.long	0
	.long	__ZTIN8Palmtree4Math4Core8Internal21ArgumentNullExceptionE
	.long	__ZN8Palmtree4Math4Core8Internal21ArgumentNullExceptionD1Ev
	.long	__ZN8Palmtree4Math4Core8Internal21ArgumentNullExceptionD0Ev
	.long	__ZNKSt9exception4whatEv
	.globl	__ZTVN8Palmtree4Math4Core8Internal9ExceptionE
	.section	.rdata$_ZTVN8Palmtree4Math4Core8Internal9ExceptionE,"dr"
	.linkonce same_size
	.align 4
__ZTVN8Palmtree4Math4Core8Internal9ExceptionE:
	.long	0
	.long	__ZTIN8Palmtree4Math4Core8Internal9ExceptionE
	.long	__ZN8Palmtree4Math4Core8Internal9ExceptionD1Ev
	.long	__ZN8Palmtree4Math4Core8Internal9ExceptionD0Ev
	.long	__ZNKSt9exception4whatEv
	.globl	__ZTIN8Palmtree4Math4Core8Internal16DecimalFromatter14FormatterTypePE
	.section	.rdata$_ZTIN8Palmtree4Math4Core8Internal16DecimalFromatter14FormatterTypePE,"dr"
	.linkonce same_size
	.align 4
__ZTIN8Palmtree4Math4Core8Internal16DecimalFromatter14FormatterTypePE:
	.long	__ZTVN10__cxxabiv120__si_class_type_infoE+8
	.long	__ZTSN8Palmtree4Math4Core8Internal16DecimalFromatter14FormatterTypePE
	.long	__ZTIN8Palmtree4Math4Core8Internal16DecimalFromatter9FormatterE
	.globl	__ZTSN8Palmtree4Math4Core8Internal16DecimalFromatter14FormatterTypePE
	.section	.rdata$_ZTSN8Palmtree4Math4Core8Internal16DecimalFromatter14FormatterTypePE,"dr"
	.linkonce same_size
	.align 32
__ZTSN8Palmtree4Math4Core8Internal16DecimalFromatter14FormatterTypePE:
	.ascii "N8Palmtree4Math4Core8Internal16DecimalFromatter14FormatterTypePE\0"
	.globl	__ZTIN8Palmtree4Math4Core8Internal16DecimalFromatter14FormatterTypeNE
	.section	.rdata$_ZTIN8Palmtree4Math4Core8Internal16DecimalFromatter14FormatterTypeNE,"dr"
	.linkonce same_size
	.align 4
__ZTIN8Palmtree4Math4Core8Internal16DecimalFromatter14FormatterTypeNE:
	.long	__ZTVN10__cxxabiv120__si_class_type_infoE+8
	.long	__ZTSN8Palmtree4Math4Core8Internal16DecimalFromatter14FormatterTypeNE
	.long	__ZTIN8Palmtree4Math4Core8Internal16DecimalFromatter9FormatterE
	.globl	__ZTSN8Palmtree4Math4Core8Internal16DecimalFromatter14FormatterTypeNE
	.section	.rdata$_ZTSN8Palmtree4Math4Core8Internal16DecimalFromatter14FormatterTypeNE,"dr"
	.linkonce same_size
	.align 32
__ZTSN8Palmtree4Math4Core8Internal16DecimalFromatter14FormatterTypeNE:
	.ascii "N8Palmtree4Math4Core8Internal16DecimalFromatter14FormatterTypeNE\0"
	.globl	__ZTIN8Palmtree4Math4Core8Internal16DecimalFromatter14FormatterTypeFE
	.section	.rdata$_ZTIN8Palmtree4Math4Core8Internal16DecimalFromatter14FormatterTypeFE,"dr"
	.linkonce same_size
	.align 4
__ZTIN8Palmtree4Math4Core8Internal16DecimalFromatter14FormatterTypeFE:
	.long	__ZTVN10__cxxabiv120__si_class_type_infoE+8
	.long	__ZTSN8Palmtree4Math4Core8Internal16DecimalFromatter14FormatterTypeFE
	.long	__ZTIN8Palmtree4Math4Core8Internal16DecimalFromatter9FormatterE
	.globl	__ZTSN8Palmtree4Math4Core8Internal16DecimalFromatter14FormatterTypeFE
	.section	.rdata$_ZTSN8Palmtree4Math4Core8Internal16DecimalFromatter14FormatterTypeFE,"dr"
	.linkonce same_size
	.align 32
__ZTSN8Palmtree4Math4Core8Internal16DecimalFromatter14FormatterTypeFE:
	.ascii "N8Palmtree4Math4Core8Internal16DecimalFromatter14FormatterTypeFE\0"
	.globl	__ZTIN8Palmtree4Math4Core8Internal16DecimalFromatter14FormatterTypeEE
	.section	.rdata$_ZTIN8Palmtree4Math4Core8Internal16DecimalFromatter14FormatterTypeEE,"dr"
	.linkonce same_size
	.align 4
__ZTIN8Palmtree4Math4Core8Internal16DecimalFromatter14FormatterTypeEE:
	.long	__ZTVN10__cxxabiv120__si_class_type_infoE+8
	.long	__ZTSN8Palmtree4Math4Core8Internal16DecimalFromatter14FormatterTypeEE
	.long	__ZTIN8Palmtree4Math4Core8Internal16DecimalFromatter9FormatterE
	.globl	__ZTSN8Palmtree4Math4Core8Internal16DecimalFromatter14FormatterTypeEE
	.section	.rdata$_ZTSN8Palmtree4Math4Core8Internal16DecimalFromatter14FormatterTypeEE,"dr"
	.linkonce same_size
	.align 32
__ZTSN8Palmtree4Math4Core8Internal16DecimalFromatter14FormatterTypeEE:
	.ascii "N8Palmtree4Math4Core8Internal16DecimalFromatter14FormatterTypeEE\0"
	.globl	__ZTIN8Palmtree4Math4Core8Internal16DecimalFromatter14FormatterTypeDE
	.section	.rdata$_ZTIN8Palmtree4Math4Core8Internal16DecimalFromatter14FormatterTypeDE,"dr"
	.linkonce same_size
	.align 4
__ZTIN8Palmtree4Math4Core8Internal16DecimalFromatter14FormatterTypeDE:
	.long	__ZTVN10__cxxabiv120__si_class_type_infoE+8
