	.file	"pmc_modpow.cpp"
	.text
Ltext0:
	.section	.text$_ZNSt9exceptionC2Ev,"x"
	.linkonce discard
	.align 2
	.globl	__ZNSt9exceptionC2Ev
	.def	__ZNSt9exceptionC2Ev;	.scl	2;	.type	32;	.endef
__ZNSt9exceptionC2Ev:
LFB515:
	.file 1 "C:/GNU/MINGW64/i686-8.1.0-win32-dwarf-rt_v6-rev0/mingw32/lib/gcc/i686-w64-mingw32/8.1.0/include/c++/bits/exception.h"
	.loc 1 63 5
	.cfi_startproc
	pushl	%ebp
	.cfi_def_cfa_offset 8
	.cfi_offset 5, -8
	movl	%esp, %ebp
	.cfi_def_cfa_register 5
	subl	$4, %esp
	movl	%ecx, -4(%ebp)
LBB4:
	.loc 1 63 26
	movl	$__ZTVSt9exception+8, %edx
	movl	-4(%ebp), %eax
	movl	%edx, (%eax)
LBE4:
	.loc 1 63 28
	nop
	leave
	.cfi_restore 5
	.cfi_def_cfa 4, 4
	ret
	.cfi_endproc
LFE515:
	.section	.text$_ZN8Palmtree4Math4Core8Internal9ExceptionC2EiPKw,"x"
	.linkonce discard
	.align 2
	.globl	__ZN8Palmtree4Math4Core8Internal9ExceptionC2EiPKw
	.def	__ZN8Palmtree4Math4Core8Internal9ExceptionC2EiPKw;	.scl	2;	.type	32;	.endef
__ZN8Palmtree4Math4Core8Internal9ExceptionC2EiPKw:
LFB584:
	.file 2 "../pmc_exception.h"
	.loc 2 47 9
	.cfi_startproc
	pushl	%ebp
	.cfi_def_cfa_offset 8
	.cfi_offset 5, -8
	movl	%esp, %ebp
	.cfi_def_cfa_register 5
	subl	$24, %esp
	movl	%ecx, -12(%ebp)
LBB5:
	.loc 2 48 9
	movl	-12(%ebp), %eax
	movl	%eax, %ecx
	call	__ZNSt9exceptionC2Ev
	movl	$__ZTVN8Palmtree4Math4Core8Internal9ExceptionE+8, %edx
	movl	-12(%ebp), %eax
	movl	%edx, (%eax)
	.loc 2 49 19
	movl	-12(%ebp), %eax
	movl	8(%ebp), %edx
	movl	%edx, 4(%eax)
	.loc 2 50 22
	movl	-12(%ebp), %eax
	movl	12(%ebp), %edx
	movl	%edx, 8(%eax)
	.loc 2 51 19
	movl	-12(%ebp), %eax
	movl	$0, 12(%eax)
LBE5:
	.loc 2 52 9
	nop
	leave
	.cfi_restore 5
	.cfi_def_cfa 4, 4
	ret	$8
	.cfi_endproc
LFE584:
	.section	.text$_ZN8Palmtree4Math4Core8Internal9ExceptionC2EiPKwS5_,"x"
	.linkonce discard
	.align 2
	.globl	__ZN8Palmtree4Math4Core8Internal9ExceptionC2EiPKwS5_
	.def	__ZN8Palmtree4Math4Core8Internal9ExceptionC2EiPKwS5_;	.scl	2;	.type	32;	.endef
__ZN8Palmtree4Math4Core8Internal9ExceptionC2EiPKwS5_:
LFB587:
	.loc 2 54 9
	.cfi_startproc
	pushl	%ebp
	.cfi_def_cfa_offset 8
	.cfi_offset 5, -8
	movl	%esp, %ebp
	.cfi_def_cfa_register 5
	subl	$24, %esp
	movl	%ecx, -12(%ebp)
LBB6:
	.loc 2 55 9
	movl	-12(%ebp), %eax
	movl	%eax, %ecx
	call	__ZNSt9exceptionC2Ev
	movl	$__ZTVN8Palmtree4Math4Core8Internal9ExceptionE+8, %edx
	movl	-12(%ebp), %eax
	movl	%edx, (%eax)
	.loc 2 56 19
	movl	-12(%ebp), %eax
	movl	8(%ebp), %edx
	movl	%edx, 4(%eax)
	.loc 2 57 22
	movl	-12(%ebp), %eax
	movl	12(%ebp), %edx
	movl	%edx, 8(%eax)
	.loc 2 58 19
	movl	-12(%ebp), %eax
	movl	16(%ebp), %edx
	movl	%edx, 12(%eax)
LBE6:
	.loc 2 59 9
	nop
	leave
	.cfi_restore 5
	.cfi_def_cfa 4, 4
	ret	$12
	.cfi_endproc
LFE587:
	.section	.text$_ZN8Palmtree4Math4Core8Internal9ExceptionD2Ev,"x"
	.linkonce discard
	.align 2
	.globl	__ZN8Palmtree4Math4Core8Internal9ExceptionD2Ev
	.def	__ZN8Palmtree4Math4Core8Internal9ExceptionD2Ev;	.scl	2;	.type	32;	.endef
__ZN8Palmtree4Math4Core8Internal9ExceptionD2Ev:
LFB593:
	.loc 2 69 17
	.cfi_startproc
	pushl	%ebp
	.cfi_def_cfa_offset 8
	.cfi_offset 5, -8
	movl	%esp, %ebp
	.cfi_def_cfa_register 5
	subl	$24, %esp
	movl	%ecx, -12(%ebp)
LBB7:
	.loc 2 70 9
	movl	$__ZTVN8Palmtree4Math4Core8Internal9ExceptionE+8, %edx
	movl	-12(%ebp), %eax
	movl	%edx, (%eax)
	movl	-12(%ebp), %eax
	movl	%eax, %ecx
	call	__ZNSt9exceptionD2Ev
LBE7:
	.loc 2 71 9
	nop
	leave
	.cfi_restore 5
	.cfi_def_cfa 4, 4
	ret
	.cfi_endproc
LFE593:
	.section	.text$_ZN8Palmtree4Math4Core8Internal9ExceptionD1Ev,"x"
	.linkonce discard
	.align 2
	.globl	__ZN8Palmtree4Math4Core8Internal9ExceptionD1Ev
	.def	__ZN8Palmtree4Math4Core8Internal9ExceptionD1Ev;	.scl	2;	.type	32;	.endef
__ZN8Palmtree4Math4Core8Internal9ExceptionD1Ev:
LFB594:
	.loc 2 69 17
	.cfi_startproc
	pushl	%ebp
	.cfi_def_cfa_offset 8
	.cfi_offset 5, -8
	movl	%esp, %ebp
	.cfi_def_cfa_register 5
	subl	$24, %esp
	movl	%ecx, -12(%ebp)
LBB8:
	.loc 2 70 9
	movl	$__ZTVN8Palmtree4Math4Core8Internal9ExceptionE+8, %edx
	movl	-12(%ebp), %eax
	movl	%edx, (%eax)
	movl	-12(%ebp), %eax
	movl	%eax, %ecx
	call	__ZNSt9exceptionD2Ev
LBE8:
	.loc 2 71 9
	nop
	leave
	.cfi_restore 5
	.cfi_def_cfa 4, 4
	ret
	.cfi_endproc
LFE594:
	.section	.text$_ZN8Palmtree4Math4Core8Internal9ExceptionD0Ev,"x"
	.linkonce discard
	.align 2
	.globl	__ZN8Palmtree4Math4Core8Internal9ExceptionD0Ev
	.def	__ZN8Palmtree4Math4Core8Internal9ExceptionD0Ev;	.scl	2;	.type	32;	.endef
__ZN8Palmtree4Math4Core8Internal9ExceptionD0Ev:
LFB595:
	.loc 2 69 17
	.cfi_startproc
	pushl	%ebp
	.cfi_def_cfa_offset 8
	.cfi_offset 5, -8
	movl	%esp, %ebp
	.cfi_def_cfa_register 5
	subl	$40, %esp
	movl	%ecx, -12(%ebp)
	.loc 2 71 9
	movl	-12(%ebp), %eax
	movl	%eax, %ecx
	call	__ZN8Palmtree4Math4Core8Internal9ExceptionD1Ev
	movl	$16, 4(%esp)
	movl	-12(%ebp), %eax
	movl	%eax, (%esp)
	call	__ZdlPvj
	leave
	.cfi_restore 5
	.cfi_def_cfa 4, 4
	ret
	.cfi_endproc
LFE595:
	.section	.text$_ZN8Palmtree4Math4Core8Internal21ArgumentNullExceptionC1EPKwS5_,"x"
	.linkonce discard
	.align 2
	.globl	__ZN8Palmtree4Math4Core8Internal21ArgumentNullExceptionC1EPKwS5_
	.def	__ZN8Palmtree4Math4Core8Internal21ArgumentNullExceptionC1EPKwS5_;	.scl	2;	.type	32;	.endef
__ZN8Palmtree4Math4Core8Internal21ArgumentNullExceptionC1EPKwS5_:
LFB611:
	.loc 2 113 9
	.cfi_startproc
	pushl	%ebp
	.cfi_def_cfa_offset 8
	.cfi_offset 5, -8
	movl	%esp, %ebp
	.cfi_def_cfa_register 5
	subl	$40, %esp
	movl	%ecx, -12(%ebp)
LBB9:
	.loc 2 114 50
	movl	-12(%ebp), %eax
	movl	12(%ebp), %edx
	movl	%edx, 8(%esp)
	movl	8(%ebp), %edx
	movl	%edx, 4(%esp)
	movl	$-2, (%esp)
	movl	%eax, %ecx
	call	__ZN8Palmtree4Math4Core8Internal9ExceptionC2EiPKwS5_
	subl	$12, %esp
	movl	$__ZTVN8Palmtree4Math4Core8Internal21ArgumentNullExceptionE+8, %edx
	movl	-12(%ebp), %eax
	movl	%edx, (%eax)
LBE9:
	.loc 2 116 9
	nop
	leave
	.cfi_restore 5
	.cfi_def_cfa 4, 4
	ret	$8
	.cfi_endproc
LFE611:
	.section	.text$_ZN8Palmtree4Math4Core8Internal21ArgumentNullExceptionD1Ev,"x"
	.linkonce discard
	.align 2
	.globl	__ZN8Palmtree4Math4Core8Internal21ArgumentNullExceptionD1Ev
	.def	__ZN8Palmtree4Math4Core8Internal21ArgumentNullExceptionD1Ev;	.scl	2;	.type	32;	.endef
__ZN8Palmtree4Math4Core8Internal21ArgumentNullExceptionD1Ev:
LFB617:
	.loc 2 123 17
	.cfi_startproc
	pushl	%ebp
	.cfi_def_cfa_offset 8
	.cfi_offset 5, -8
	movl	%esp, %ebp
	.cfi_def_cfa_register 5
	subl	$24, %esp
	movl	%ecx, -12(%ebp)
LBB10:
	.loc 2 124 9
	movl	$__ZTVN8Palmtree4Math4Core8Internal21ArgumentNullExceptionE+8, %edx
	movl	-12(%ebp), %eax
	movl	%edx, (%eax)
	movl	-12(%ebp), %eax
	movl	%eax, %ecx
	call	__ZN8Palmtree4Math4Core8Internal9ExceptionD2Ev
LBE10:
	.loc 2 125 9
	nop
	leave
	.cfi_restore 5
	.cfi_def_cfa 4, 4
	ret
	.cfi_endproc
LFE617:
	.section	.text$_ZN8Palmtree4Math4Core8Internal21ArgumentNullExceptionD0Ev,"x"
	.linkonce discard
	.align 2
	.globl	__ZN8Palmtree4Math4Core8Internal21ArgumentNullExceptionD0Ev
	.def	__ZN8Palmtree4Math4Core8Internal21ArgumentNullExceptionD0Ev;	.scl	2;	.type	32;	.endef
__ZN8Palmtree4Math4Core8Internal21ArgumentNullExceptionD0Ev:
LFB618:
	.loc 2 123 17
	.cfi_startproc
	pushl	%ebp
	.cfi_def_cfa_offset 8
	.cfi_offset 5, -8
	movl	%esp, %ebp
	.cfi_def_cfa_register 5
	subl	$40, %esp
	movl	%ecx, -12(%ebp)
	.loc 2 125 9
	movl	-12(%ebp), %eax
	movl	%eax, %ecx
	call	__ZN8Palmtree4Math4Core8Internal21ArgumentNullExceptionD1Ev
	movl	$16, 4(%esp)
	movl	-12(%ebp), %eax
	movl	%eax, (%esp)
	call	__ZdlPvj
	leave
	.cfi_restore 5
	.cfi_def_cfa 4, 4
	ret
	.cfi_endproc
LFE618:
	.section	.text$_ZN8Palmtree4Math4Core8Internal23DivisionByZeroExceptionC1EPKw,"x"
	.linkonce discard
	.align 2
	.globl	__ZN8Palmtree4Math4Core8Internal23DivisionByZeroExceptionC1EPKw
	.def	__ZN8Palmtree4Math4Core8Internal23DivisionByZeroExceptionC1EPKw;	.scl	2;	.type	32;	.endef
__ZN8Palmtree4Math4Core8Internal23DivisionByZeroExceptionC1EPKw:
LFB641:
	.loc 2 170 9
	.cfi_startproc
	pushl	%ebp
	.cfi_def_cfa_offset 8
	.cfi_offset 5, -8
	movl	%esp, %ebp
	.cfi_def_cfa_register 5
	subl	$40, %esp
	movl	%ecx, -12(%ebp)
LBB11:
	.loc 2 171 38
	movl	-12(%ebp), %eax
	movl	8(%ebp), %edx
	movl	%edx, 4(%esp)
	movl	$-5, (%esp)
	movl	%eax, %ecx
	call	__ZN8Palmtree4Math4Core8Internal9ExceptionC2EiPKw
	subl	$8, %esp
	movl	$__ZTVN8Palmtree4Math4Core8Internal23DivisionByZeroExceptionE+8, %edx
	movl	-12(%ebp), %eax
	movl	%edx, (%eax)
LBE11:
	.loc 2 173 9
	nop
	leave
	.cfi_restore 5
	.cfi_def_cfa 4, 4
	ret	$4
	.cfi_endproc
LFE641:
	.section	.text$_ZN8Palmtree4Math4Core8Internal23DivisionByZeroExceptionD1Ev,"x"
	.linkonce discard
	.align 2
	.globl	__ZN8Palmtree4Math4Core8Internal23DivisionByZeroExceptionD1Ev
	.def	__ZN8Palmtree4Math4Core8Internal23DivisionByZeroExceptionD1Ev;	.scl	2;	.type	32;	.endef
__ZN8Palmtree4Math4Core8Internal23DivisionByZeroExceptionD1Ev:
LFB647:
	.loc 2 180 17
	.cfi_startproc
	pushl	%ebp
	.cfi_def_cfa_offset 8
	.cfi_offset 5, -8
	movl	%esp, %ebp
	.cfi_def_cfa_register 5
	subl	$24, %esp
	movl	%ecx, -12(%ebp)
LBB12:
	.loc 2 181 9
	movl	$__ZTVN8Palmtree4Math4Core8Internal23DivisionByZeroExceptionE+8, %edx
	movl	-12(%ebp), %eax
	movl	%edx, (%eax)
	movl	-12(%ebp), %eax
	movl	%eax, %ecx
	call	__ZN8Palmtree4Math4Core8Internal9ExceptionD2Ev
LBE12:
	.loc 2 182 9
	nop
	leave
	.cfi_restore 5
	.cfi_def_cfa 4, 4
	ret
	.cfi_endproc
LFE647:
	.section	.text$_ZN8Palmtree4Math4Core8Internal23DivisionByZeroExceptionD0Ev,"x"
	.linkonce discard
	.align 2
	.globl	__ZN8Palmtree4Math4Core8Internal23DivisionByZeroExceptionD0Ev
	.def	__ZN8Palmtree4Math4Core8Internal23DivisionByZeroExceptionD0Ev;	.scl	2;	.type	32;	.endef
__ZN8Palmtree4Math4Core8Internal23DivisionByZeroExceptionD0Ev:
LFB648:
	.loc 2 180 17
	.cfi_startproc
	pushl	%ebp
	.cfi_def_cfa_offset 8
	.cfi_offset 5, -8
	movl	%esp, %ebp
	.cfi_def_cfa_register 5
	subl	$40, %esp
	movl	%ecx, -12(%ebp)
	.loc 2 182 9
	movl	-12(%ebp), %eax
	movl	%eax, %ecx
	call	__ZN8Palmtree4Math4Core8Internal23DivisionByZeroExceptionD1Ev
	movl	$16, 4(%esp)
	movl	-12(%ebp), %eax
	movl	%eax, (%esp)
	call	__ZdlPvj
	leave
	.cfi_restore 5
	.cfi_def_cfa 4, 4
	ret
	.cfi_endproc
LFE648:
	.section	.text$_ZN8Palmtree4Math4Core8Internal19ArithmeticExceptionC1EPKw,"x"
	.linkonce discard
	.align 2
	.globl	__ZN8Palmtree4Math4Core8Internal19ArithmeticExceptionC1EPKw
	.def	__ZN8Palmtree4Math4Core8Internal19ArithmeticExceptionC1EPKw;	.scl	2;	.type	32;	.endef
__ZN8Palmtree4Math4Core8Internal19ArithmeticExceptionC1EPKw:
LFB651:
	.loc 2 189 9
	.cfi_startproc
	pushl	%ebp
	.cfi_def_cfa_offset 8
	.cfi_offset 5, -8
	movl	%esp, %ebp
	.cfi_def_cfa_register 5
	subl	$40, %esp
	movl	%ecx, -12(%ebp)
LBB13:
	.loc 2 190 38
	movl	-12(%ebp), %eax
	movl	8(%ebp), %edx
	movl	%edx, 4(%esp)
	movl	$-6, (%esp)
	movl	%eax, %ecx
	call	__ZN8Palmtree4Math4Core8Internal9ExceptionC2EiPKw
	subl	$8, %esp
	movl	$__ZTVN8Palmtree4Math4Core8Internal19ArithmeticExceptionE+8, %edx
	movl	-12(%ebp), %eax
	movl	%edx, (%eax)
LBE13:
	.loc 2 192 9
	nop
	leave
	.cfi_restore 5
	.cfi_def_cfa 4, 4
	ret	$4
	.cfi_endproc
LFE651:
	.section	.text$_ZN8Palmtree4Math4Core8Internal19ArithmeticExceptionD1Ev,"x"
	.linkonce discard
	.align 2
	.globl	__ZN8Palmtree4Math4Core8Internal19ArithmeticExceptionD1Ev
	.def	__ZN8Palmtree4Math4Core8Internal19ArithmeticExceptionD1Ev;	.scl	2;	.type	32;	.endef
__ZN8Palmtree4Math4Core8Internal19ArithmeticExceptionD1Ev:
LFB657:
	.loc 2 199 17
	.cfi_startproc
	pushl	%ebp
	.cfi_def_cfa_offset 8
	.cfi_offset 5, -8
	movl	%esp, %ebp
	.cfi_def_cfa_register 5
	subl	$24, %esp
	movl	%ecx, -12(%ebp)
LBB14:
	.loc 2 200 9
	movl	$__ZTVN8Palmtree4Math4Core8Internal19ArithmeticExceptionE+8, %edx
	movl	-12(%ebp), %eax
	movl	%edx, (%eax)
	movl	-12(%ebp), %eax
	movl	%eax, %ecx
	call	__ZN8Palmtree4Math4Core8Internal9ExceptionD2Ev
LBE14:
	.loc 2 201 9
	nop
	leave
	.cfi_restore 5
	.cfi_def_cfa 4, 4
	ret
	.cfi_endproc
LFE657:
	.section	.text$_ZN8Palmtree4Math4Core8Internal19ArithmeticExceptionD0Ev,"x"
	.linkonce discard
	.align 2
	.globl	__ZN8Palmtree4Math4Core8Internal19ArithmeticExceptionD0Ev
	.def	__ZN8Palmtree4Math4Core8Internal19ArithmeticExceptionD0Ev;	.scl	2;	.type	32;	.endef
__ZN8Palmtree4Math4Core8Internal19ArithmeticExceptionD0Ev:
LFB658:
	.loc 2 199 17
	.cfi_startproc
	pushl	%ebp
	.cfi_def_cfa_offset 8
	.cfi_offset 5, -8
	movl	%esp, %ebp
	.cfi_def_cfa_register 5
	subl	$40, %esp
	movl	%ecx, -12(%ebp)
	.loc 2 201 9
	movl	-12(%ebp), %eax
	movl	%eax, %ecx
	call	__ZN8Palmtree4Math4Core8Internal19ArithmeticExceptionD1Ev
	movl	$16, 4(%esp)
	movl	-12(%ebp), %eax
	movl	%eax, (%esp)
	call	__ZdlPvj
	leave
	.cfi_restore 5
	.cfi_def_cfa 4, 4
	ret
	.cfi_endproc
LFE658:
	.text
	.def	__COPY_MEMORY_UNIT;	.scl	3;	.type	32;	.endef
__COPY_MEMORY_UNIT:
LFB4881:
	.file 3 "../pmc_inline_func.h"
	.loc 3 63 9
	.cfi_startproc
	pushl	%ebp
	.cfi_def_cfa_offset 8
	.cfi_offset 5, -8
	movl	%esp, %ebp
	.cfi_def_cfa_register 5
	pushl	%edi
	pushl	%esi
	pushl	%ebx
	subl	$16, %esp
	.cfi_offset 7, -12
	.cfi_offset 6, -16
	.cfi_offset 3, -20
	movl	8(%ebp), %eax
	movl	%eax, -16(%ebp)
	movl	12(%ebp), %eax
	movl	%eax, -20(%ebp)
	movl	16(%ebp), %eax
	movl	%eax, -24(%ebp)
LBB15:
LBB16:
	.file 4 "C:/GNU/MINGW64/i686-8.1.0-win32-dwarf-rt_v6-rev0/mingw32/i686-w64-mingw32/include/psdk_inc/intrin-impl.h"
	.loc 4 1773 233
	movl	-16(%ebp), %ecx
	movl	-20(%ebp), %edx
	movl	-24(%ebp), %eax
	movl	%ecx, %ebx
	movl	%ebx, %edi
	movl	%edx, %esi
	movl	%eax, %ecx
/APP
 # 1773 "C:/GNU/MINGW64/i686-8.1.0-win32-dwarf-rt_v6-rev0/mingw32/i686-w64-mingw32/include/psdk_inc/intrin-impl.h" 1
	rep movsd
 # 0 "" 2
/NO_APP
	movl	%ecx, %eax
	movl	%esi, %edx
	movl	%edi, %ebx
	movl	%ebx, -16(%ebp)
	movl	%edx, -20(%ebp)
	movl	%eax, -24(%ebp)
LBE16:
LBE15:
	.loc 3 71 9
	nop
	addl	$16, %esp
	popl	%ebx
	.cfi_restore 3
	popl	%esi
	.cfi_restore 6
	popl	%edi
	.cfi_restore 7
	popl	%ebp
	.cfi_restore 5
	.cfi_def_cfa 4, 4
	ret
	.cfi_endproc
LFE4881:
	.def	__LZCNT_ALT_UNIT;	.scl	3;	.type	32;	.endef
__LZCNT_ALT_UNIT:
LFB4913:
	.loc 3 454 9
	.cfi_startproc
	pushl	%ebp
	.cfi_def_cfa_offset 8
	.cfi_offset 5, -8
	movl	%esp, %ebp
	.cfi_def_cfa_register 5
	subl	$16, %esp
	.loc 3 455 13
	cmpl	$0, 8(%ebp)
	jne	L18
	.loc 3 456 38
	movl	$32, %eax
	jmp	L19
L18:
	.loc 3 462 57
/APP
 # 462 "../pmc_inline_func.h" 1
	bsrl 8(%ebp), %eax
 # 0 "" 2
/NO_APP
	movl	%eax, -4(%ebp)
	.loc 3 479 39
	movl	$31, %eax
	subl	-4(%ebp), %eax
L19:
	.loc 3 480 9
	leave
	.cfi_restore 5
	.cfi_def_cfa 4, 4
	ret
	.cfi_endproc
LFE4913:
	.def	__ZN8Palmtree4Math4Core8InternalL12Compare_EasyEPjjS3_j;	.scl	3;	.type	32;	.endef
__ZN8Palmtree4Math4Core8InternalL12Compare_EasyEPjjS3_j:
LFB4921:
	.file 5 "../pmc_modpow.cpp"
	.loc 5 40 5
	.cfi_startproc
	pushl	%ebp
	.cfi_def_cfa_offset 8
	.cfi_offset 5, -8
	movl	%esp, %ebp
	.cfi_def_cfa_register 5
	subl	$24, %esp
	.loc 5 41 9
	movl	12(%ebp), %eax
	cmpl	20(%ebp), %eax
	jbe	L21
	.loc 5 42 22
	movl	$1, %eax
	jmp	L22
L21:
	.loc 5 43 14
	movl	12(%ebp), %eax
	cmpl	20(%ebp), %eax
	jnb	L23
	.loc 5 44 23
	movl	$-1, %eax
	jmp	L22
L23:
	.loc 5 46 32
	movl	12(%ebp), %eax
	movl	%eax, 8(%esp)
	movl	16(%ebp), %eax
	movl	%eax, 4(%esp)
	movl	8(%ebp), %eax
	movl	%eax, (%esp)
	call	__ZN8Palmtree4Math4Core8Internal11Compare_ImpEPjS3_j
	.loc 5 46 47
	nop
L22:
	.loc 5 47 5
	leave
	.cfi_restore 5
	.cfi_def_cfa 4, 4
	ret
	.cfi_endproc
LFE4921:
	.def	__ZN8Palmtree4Math4Core8InternalL11SwapPointerEPPjS4_;	.scl	3;	.type	32;	.endef
__ZN8Palmtree4Math4Core8InternalL11SwapPointerEPPjS4_:
LFB4922:
	.loc 5 50 5
	.cfi_startproc
	pushl	%ebp
	.cfi_def_cfa_offset 8
	.cfi_offset 5, -8
	movl	%esp, %ebp
	.cfi_def_cfa_register 5
	subl	$16, %esp
	.loc 5 51 22
	movl	8(%ebp), %eax
	movl	(%eax), %eax
	movl	%eax, -4(%ebp)
	.loc 5 52 14
	movl	12(%ebp), %eax
	movl	(%eax), %edx
	.loc 5 52 12
	movl	8(%ebp), %eax
	movl	%edx, (%eax)
	.loc 5 53 12
	movl	12(%ebp), %eax
	movl	-4(%ebp), %edx
	movl	%edx, (%eax)
	.loc 5 54 5
	nop
	leave
	.cfi_restore 5
	.cfi_def_cfa 4, 4
	ret
	.cfi_endproc
LFE4922:
	.def	__ZN8Palmtree4Math4Core8InternalL9RemainderEPNS2_19__tag_NUMBER_HEADERES4_;	.scl	3;	.type	32;	.endef
__ZN8Palmtree4Math4Core8InternalL9RemainderEPNS2_19__tag_NUMBER_HEADERES4_:
LFB4923:
	.loc 5 57 5
	.cfi_startproc
	.cfi_personality 0,___gxx_personality_v0
	.cfi_lsda 0,LLSDA4923
	pushl	%ebp
	.cfi_def_cfa_offset 8
	.cfi_offset 5, -8
	movl	%esp, %ebp
	.cfi_def_cfa_register 5
	pushl	%esi
	pushl	%ebx
	subl	$64, %esp
	.cfi_offset 6, -12
	.cfi_offset 3, -16
LBB17:
	.loc 5 59 16
	movl	8(%ebp), %eax
	movl	20(%eax), %edx
	.loc 5 59 36
	movl	12(%ebp), %eax
	movl	20(%eax), %eax
	.loc 5 59 9
	cmpl	%eax, %edx
	jnb	L26
	.loc 5 60 36
	movl	8(%ebp), %eax
	movl	%eax, (%esp)
LEHB0:
	call	__ZN8Palmtree4Math4Core8Internal15DuplicateNumberEPNS2_19__tag_NUMBER_HEADERE
	movl	%eax, %ebx
	.loc 5 60 39
	jmp	L27
L26:
LBB18:
	.loc 5 63 32
	leal	-28(%ebp), %eax
	movl	%eax, %ecx
	call	__ZN8Palmtree4Math4Core8Internal18ResourceHolderUINTC1Ev
LEHE0:
	.loc 5 64 57
	movl	12(%ebp), %eax
	movl	20(%eax), %edx
	leal	-28(%ebp), %eax
	movl	%edx, (%esp)
	movl	%eax, %ecx
LEHB1:
	call	__ZN8Palmtree4Math4Core8Internal18ResourceHolderUINT13AllocateBlockEj
	subl	$4, %esp
	movl	%eax, -12(%ebp)
	.loc 5 65 55
	movl	8(%ebp), %eax
	movl	20(%eax), %eax
	.loc 5 65 51
	leal	32(%eax), %edx
	leal	-28(%ebp), %eax
	movl	%edx, (%esp)
	movl	%eax, %ecx
	call	__ZN8Palmtree4Math4Core8Internal18ResourceHolderUINT14AllocateNumberEj
	.loc 5 65 51 is_stmt 0 discriminator 1
	subl	$4, %esp
	.loc 5 65 97 is_stmt 1 discriminator 1
	movl	%eax, -32(%ebp)
	.loc 5 66 20 discriminator 1
	movl	8(%ebp), %eax
	movl	16(%eax), %edx
	.loc 5 66 41 discriminator 1
	movl	12(%ebp), %eax
	movl	16(%eax), %eax
	.loc 5 66 13 discriminator 1
	cmpl	%eax, %edx
	jnb	L28
	.loc 5 67 34
	movl	8(%ebp), %eax
	movl	16(%eax), %ecx
	.loc 5 67 48
	movl	8(%ebp), %eax
	movl	36(%eax), %edx
	.loc 5 67 34
	movl	-32(%ebp), %eax
	movl	36(%eax), %eax
	movl	%ecx, 8(%esp)
	movl	%edx, 4(%esp)
	movl	%eax, (%esp)
	call	__COPY_MEMORY_UNIT
	jmp	L29
L28:
	.loc 5 70 27
	movl	-32(%ebp), %eax
	movl	36(%eax), %esi
	movl	12(%ebp), %eax
	movl	16(%eax), %ebx
	movl	12(%ebp), %eax
	movl	36(%eax), %ecx
	movl	8(%ebp), %eax
	movl	16(%eax), %edx
	movl	8(%ebp), %eax
	movl	36(%eax), %eax
	movl	%esi, 24(%esp)
	movl	$0, 20(%esp)
	movl	-12(%ebp), %esi
	movl	%esi, 16(%esp)
	movl	%ebx, 12(%esp)
	movl	%ecx, 8(%esp)
	movl	%edx, 4(%esp)
	movl	%eax, (%esp)
	call	__ZN8Palmtree4Math4Core8Internal10DivRem_X_XEPjjS3_jS3_S3_S3_
	.loc 5 71 32
	leal	-28(%ebp), %eax
	movl	-12(%ebp), %edx
	movl	%edx, (%esp)
	movl	%eax, %ecx
	call	__ZN8Palmtree4Math4Core8Internal18ResourceHolderUINT10CheckBlockEPj
	subl	$4, %esp
	.loc 5 72 33
	movl	-32(%ebp), %edx
	leal	-28(%ebp), %eax
	movl	%edx, (%esp)
	movl	%eax, %ecx
	call	__ZN8Palmtree4Math4Core8Internal18ResourceHolderUINT11CheckNumberEPNS2_19__tag_NUMBER_HEADERE
	subl	$4, %esp
L29:
	.loc 5 74 33
	leal	-28(%ebp), %eax
	movl	-12(%ebp), %edx
	movl	%edx, (%esp)
	movl	%eax, %ecx
	call	__ZN8Palmtree4Math4Core8Internal18ResourceHolderUINT15DeallocateBlockEPj
	subl	$4, %esp
	.loc 5 75 25
	movl	-32(%ebp), %eax
	movl	%eax, (%esp)
	call	__ZN8Palmtree4Math4Core8Internal12CommitNumberEPNS2_19__tag_NUMBER_HEADERE
	.loc 5 76 30
	movl	-32(%ebp), %edx
	leal	-28(%ebp), %eax
	movl	%edx, (%esp)
	movl	%eax, %ecx
	call	__ZN8Palmtree4Math4Core8Internal18ResourceHolderUINT12UnlinkNumberEPNS2_19__tag_NUMBER_HEADERE
LEHE1:
	subl	$4, %esp
	.loc 5 77 22
	movl	-32(%ebp), %ebx
	.loc 5 63 32
	leal	-28(%ebp), %eax
	movl	%eax, %ecx
	call	__ZN8Palmtree4Math4Core8Internal18ResourceHolderUINTD1Ev
L27:
	movl	%ebx, %eax
	jmp	L32
L31:
	movl	%eax, %ebx
	leal	-28(%ebp), %eax
	movl	%eax, %ecx
	call	__ZN8Palmtree4Math4Core8Internal18ResourceHolderUINTD1Ev
	movl	%ebx, %eax
	movl	%eax, (%esp)
LEHB2:
	call	__Unwind_Resume
LEHE2:
L32:
LBE18:
LBE17:
	.loc 5 79 5
	leal	-8(%ebp), %esp
	popl	%ebx
	.cfi_restore 3
	popl	%esi
	.cfi_restore 6
	popl	%ebp
	.cfi_restore 5
	.cfi_def_cfa 4, 4
	ret
	.cfi_endproc
LFE4923:
	.def	___gxx_personality_v0;	.scl	2;	.type	32;	.endef
	.section	.gcc_except_table,"w"
LLSDA4923:
	.byte	0xff
	.byte	0xff
	.byte	0x1
	.uleb128 LLSDACSE4923-LLSDACSB4923
LLSDACSB4923:
	.uleb128 LEHB0-LFB4923
	.uleb128 LEHE0-LEHB0
	.uleb128 0
	.uleb128 0
	.uleb128 LEHB1-LFB4923
	.uleb128 LEHE1-LEHB1
	.uleb128 L31-LFB4923
	.uleb128 0
	.uleb128 LEHB2-LFB4923
	.uleb128 LEHE2-LEHB2
	.uleb128 0
	.uleb128 0
LLSDACSE4923:
	.text
	.globl	__ZN8Palmtree4Math4Core8Internal16exception_filterEm
	.def	__ZN8Palmtree4Math4Core8Internal16exception_filterEm;	.scl	2;	.type	32;	.endef
__ZN8Palmtree4Math4Core8Internal16exception_filterEm:
LFB4924:
	.loc 5 82 5
	.cfi_startproc
	pushl	%ebp
	.cfi_def_cfa_offset 8
	.cfi_offset 5, -8
	movl	%esp, %ebp
	.cfi_def_cfa_register 5
	.loc 5 83 9
	cmpl	$-1073741819, 8(%ebp)
	jne	L34
	.loc 5 84 45
	movl	$1, %eax
	jmp	L35
L34:
	.loc 5 86 45
	movl	$0, %eax
L35:
	.loc 5 87 5
	popl	%ebp
	.cfi_restore 5
	.cfi_def_cfa 4, 4
	ret
	.cfi_endproc
LFE4924:
	.def	__ZN8Palmtree4Math4Core8InternalL11ModulePowerEPNS2_19__tag_NUMBER_HEADERES4_S4_;	.scl	3;	.type	32;	.endef
__ZN8Palmtree4Math4Core8InternalL11ModulePowerEPNS2_19__tag_NUMBER_HEADERES4_S4_:
LFB4925:
	.loc 5 90 5
	.cfi_startproc
	.cfi_personality 0,___gxx_personality_v0
	.cfi_lsda 0,LLSDA4925
	pushl	%ebp
	.cfi_def_cfa_offset 8
	.cfi_offset 5, -8
	movl	%esp, %ebp
	.cfi_def_cfa_register 5
	pushl	%ebx
	subl	$132, %esp
	.cfi_offset 3, -12
	.loc 5 92 28
	leal	-92(%ebp), %eax
	movl	%eax, %ecx
LEHB3:
	call	__ZN8Palmtree4Math4Core8Internal18ResourceHolderUINTC1Ev
LEHE3:
	.loc 5 94 22
	movl	16(%ebp), %eax
	movl	36(%eax), %eax
	movl	%eax, -28(%ebp)
	.loc 5 95 21
	movl	16(%ebp), %eax
	movl	16(%eax), %eax
	movl	%eax, -32(%ebp)
	.loc 5 99 40
	movl	8(%ebp), %eax
	movl	16(%eax), %eax
	.loc 5 99 21
	addl	$1, %eax
	sall	$5, %eax
	movl	%eax, -36(%ebp)
	.loc 5 100 50
	leal	-92(%ebp), %eax
	movl	-36(%ebp), %edx
	movl	%edx, (%esp)
	movl	%eax, %ecx
LEHB4:
	call	__ZN8Palmtree4Math4Core8Internal18ResourceHolderUINT13AllocateBlockEj
	subl	$4, %esp
	movl	%eax, -40(%ebp)
	.loc 5 101 52
	movl	-32(%ebp), %eax
	sall	$6, %eax
	.loc 5 101 21
	addl	$32, %eax
	movl	%eax, -44(%ebp)
	.loc 5 102 53
	leal	-92(%ebp), %eax
	movl	-44(%ebp), %edx
	movl	%edx, (%esp)
	movl	%eax, %ecx
	call	__ZN8Palmtree4Math4Core8Internal18ResourceHolderUINT13AllocateBlockEj
	.loc 5 102 53 is_stmt 0 discriminator 1
	subl	$4, %esp
	movl	%eax, -48(%ebp)
	.loc 5 103 52 is_stmt 1 discriminator 1
	movl	-32(%ebp), %eax
	sall	$6, %eax
	.loc 5 103 21 discriminator 1
	addl	$32, %eax
	movl	%eax, -52(%ebp)
	.loc 5 104 53 discriminator 1
	leal	-92(%ebp), %eax
	movl	-52(%ebp), %edx
	movl	%edx, (%esp)
	movl	%eax, %ecx
	call	__ZN8Palmtree4Math4Core8Internal18ResourceHolderUINT13AllocateBlockEj
	subl	$4, %esp
	movl	%eax, -56(%ebp)
	.loc 5 105 21 discriminator 1
	movl	-32(%ebp), %eax
	sall	$5, %eax
	movl	%eax, -60(%ebp)
	.loc 5 106 53 discriminator 1
	leal	-92(%ebp), %eax
	movl	-60(%ebp), %edx
	movl	%edx, (%esp)
	movl	%eax, %ecx
	call	__ZN8Palmtree4Math4Core8Internal18ResourceHolderUINT13AllocateBlockEj
	subl	$4, %esp
	movl	%eax, -64(%ebp)
	.loc 5 107 21 discriminator 1
	movl	16(%ebp), %eax
	movl	20(%eax), %eax
	movl	%eax, -68(%ebp)
	.loc 5 108 47 discriminator 1
	leal	-92(%ebp), %eax
	movl	-68(%ebp), %edx
	movl	%edx, (%esp)
	movl	%eax, %ecx
	call	__ZN8Palmtree4Math4Core8Internal18ResourceHolderUINT14AllocateNumberEj
	subl	$4, %esp
	.loc 5 108 59 discriminator 1
	movl	%eax, -96(%ebp)
	.loc 5 111 31 discriminator 1
	movl	8(%ebp), %eax
	movl	16(%eax), %edx
	movl	8(%ebp), %eax
	movl	36(%eax), %eax
	movl	-32(%ebp), %ecx
	movl	%ecx, 12(%esp)
	movl	-28(%ebp), %ecx
	movl	%ecx, 8(%esp)
	movl	%edx, 4(%esp)
	movl	%eax, (%esp)
	call	__ZN8Palmtree4Math4Core8InternalL12Compare_EasyEPjjS3_j
	movl	%eax, -72(%ebp)
	.loc 5 112 9 discriminator 1
	cmpl	$0, -72(%ebp)
	jne	L37
	.loc 5 117 33
	movl	$__ZN8Palmtree4Math4Core8Internal11number_zeroE, %ebx
	jmp	L38
L37:
	.loc 5 119 14
	cmpl	$0, -72(%ebp)
	jle	L39
	.loc 5 125 23
	movl	8(%ebp), %eax
	movl	16(%eax), %edx
	movl	8(%ebp), %eax
	movl	36(%eax), %eax
	movl	-40(%ebp), %ecx
	movl	%ecx, 24(%esp)
	movl	$0, 20(%esp)
	movl	-64(%ebp), %ecx
	movl	%ecx, 16(%esp)
	movl	-32(%ebp), %ecx
	movl	%ecx, 12(%esp)
	movl	-28(%ebp), %ecx
	movl	%ecx, 8(%esp)
	movl	%edx, 4(%esp)
	movl	%eax, (%esp)
	call	__ZN8Palmtree4Math4Core8Internal10DivRem_X_XEPjjS3_jS3_S3_S3_
	.loc 5 126 28
	leal	-92(%ebp), %eax
	movl	-64(%ebp), %edx
	movl	%edx, (%esp)
	movl	%eax, %ecx
	call	__ZN8Palmtree4Math4Core8Internal18ResourceHolderUINT10CheckBlockEPj
	subl	$4, %esp
	.loc 5 127 28
	leal	-92(%ebp), %eax
	movl	-40(%ebp), %edx
	movl	%edx, (%esp)
	movl	%eax, %ecx
	call	__ZN8Palmtree4Math4Core8Internal18ResourceHolderUINT10CheckBlockEPj
	subl	$4, %esp
	.loc 5 128 21
	movl	-32(%ebp), %eax
	movl	%eax, -12(%ebp)
L41:
	.loc 5 129 32
	cmpl	$0, -12(%ebp)
	je	L40
	.loc 5 129 54 discriminator 1
	movl	-12(%ebp), %eax
	addl	$1073741823, %eax
	leal	0(,%eax,4), %edx
	movl	-40(%ebp), %eax
	addl	%edx, %eax
	movl	(%eax), %eax
	.loc 5 129 32 discriminator 1
	testl	%eax, %eax
	jne	L40
	.loc 5 130 17
	subl	$1, -12(%ebp)
	.loc 5 129 13
	jmp	L41
L40:
	.loc 5 132 13
	cmpl	$0, -12(%ebp)
	jne	L42
	.loc 5 135 37
	movl	$__ZN8Palmtree4Math4Core8Internal11number_zeroE, %ebx
	jmp	L38
L39:
	.loc 5 142 30
	movl	8(%ebp), %eax
	movl	16(%eax), %edx
	.loc 5 142 43
	movl	8(%ebp), %eax
	movl	36(%eax), %eax
	.loc 5 142 30
	movl	%edx, 8(%esp)
	movl	%eax, 4(%esp)
	movl	-40(%ebp), %eax
	movl	%eax, (%esp)
	call	__COPY_MEMORY_UNIT
	.loc 5 143 21
	movl	8(%ebp), %eax
	movl	16(%eax), %eax
	movl	%eax, -12(%ebp)
L42:
	.loc 5 146 21
	movl	12(%ebp), %eax
	movl	16(%eax), %eax
	movl	%eax, -16(%ebp)
	.loc 5 147 21
	movl	$-2147483648, -20(%ebp)
	.loc 5 148 47
	movl	12(%ebp), %eax
	movl	36(%eax), %eax
	.loc 5 148 64
	movl	-16(%ebp), %edx
	addl	$1073741823, %edx
	sall	$2, %edx
	addl	%edx, %eax
	.loc 5 148 43
	movl	(%eax), %eax
	movl	%eax, (%esp)
	call	__LZCNT_ALT_UNIT
	.loc 5 148 16
	movl	%eax, %ecx
	shrl	%cl, -20(%ebp)
	.loc 5 151 26
	movl	-32(%ebp), %eax
	movl	%eax, 8(%esp)
	movl	-40(%ebp), %eax
	movl	%eax, 4(%esp)
	movl	-48(%ebp), %eax
	movl	%eax, (%esp)
	call	__COPY_MEMORY_UNIT
	.loc 5 154 26
	movl	12(%ebp), %eax
	movl	36(%eax), %eax
	.loc 5 154 43
	movl	-16(%ebp), %edx
	addl	$1073741823, %edx
	sall	$2, %edx
	addl	%edx, %eax
	movl	(%eax), %eax
	.loc 5 154 21
	andl	-20(%ebp), %eax
	.loc 5 154 9
	testl	%eax, %eax
	jne	L43
	.loc 5 155 13
	movl	$0, %eax
	.loc 5 155 24
	movl	$0, (%eax)
L43:
	.loc 5 158 22
	movl	-48(%ebp), %eax
	movl	%eax, -100(%ebp)
	.loc 5 159 22
	movl	-40(%ebp), %eax
	movl	%eax, -76(%ebp)
	.loc 5 160 22
	movl	-56(%ebp), %eax
	movl	%eax, -104(%ebp)
	.loc 5 161 21
	movl	-12(%ebp), %eax
	movl	%eax, -24(%ebp)
L55:
	.loc 5 163 24
	cmpl	$0, -16(%ebp)
	je	L44
	.loc 5 168 20
	shrl	-20(%ebp)
	.loc 5 169 13
	cmpl	$0, -20(%ebp)
	jne	L45
	.loc 5 171 24
	movl	$-2147483648, -20(%ebp)
	.loc 5 172 17
	subl	$1, -16(%ebp)
L45:
	.loc 5 175 13
	cmpl	$0, -16(%ebp)
	je	L60
	.loc 5 179 28
	movl	-104(%ebp), %edx
	leal	-92(%ebp), %eax
	movl	%edx, (%esp)
	movl	%eax, %ecx
	call	__ZN8Palmtree4Math4Core8Internal18ResourceHolderUINT10ClearBlockEPj
	subl	$4, %esp
	.loc 5 183 33
	movl	-104(%ebp), %ecx
	movl	-100(%ebp), %edx
	movl	-100(%ebp), %eax
	movl	%ecx, 16(%esp)
	movl	-24(%ebp), %ecx
	movl	%ecx, 12(%esp)
	movl	%edx, 8(%esp)
	movl	-24(%ebp), %edx
	movl	%edx, 4(%esp)
	movl	%eax, (%esp)
	call	__ZN8Palmtree4Math4Core8Internal16Multiply_X_X_ImpEPjjS3_jS3_
	.loc 5 185 28
	leal	-92(%ebp), %eax
	movl	-48(%ebp), %edx
	movl	%edx, (%esp)
	movl	%eax, %ecx
	call	__ZN8Palmtree4Math4Core8Internal18ResourceHolderUINT10CheckBlockEPj
	subl	$4, %esp
	.loc 5 186 28
	leal	-92(%ebp), %eax
	movl	-56(%ebp), %edx
	movl	%edx, (%esp)
	movl	%eax, %ecx
	call	__ZN8Palmtree4Math4Core8Internal18ResourceHolderUINT10CheckBlockEPj
	subl	$4, %esp
	.loc 5 187 24
	leal	-104(%ebp), %eax
	movl	%eax, 4(%esp)
	leal	-100(%ebp), %eax
	movl	%eax, (%esp)
	call	__ZN8Palmtree4Math4Core8InternalL11SwapPointerEPPjS4_
	.loc 5 188 21
	sall	-24(%ebp)
	.loc 5 189 34
	movl	-100(%ebp), %eax
	movl	-24(%ebp), %edx
	addl	$1073741823, %edx
	sall	$2, %edx
	addl	%edx, %eax
	movl	(%eax), %eax
	.loc 5 189 13
	testl	%eax, %eax
	jne	L47
	.loc 5 190 17
	subl	$1, -24(%ebp)
L47:
	.loc 5 193 13
	movl	-24(%ebp), %eax
	cmpl	-32(%ebp), %eax
	jb	L48
	.loc 5 197 32
	leal	-92(%ebp), %eax
	movl	-64(%ebp), %edx
	movl	%edx, (%esp)
	movl	%eax, %ecx
	call	__ZN8Palmtree4Math4Core8Internal18ResourceHolderUINT10ClearBlockEPj
	subl	$4, %esp
	.loc 5 198 32
	movl	-104(%ebp), %edx
	leal	-92(%ebp), %eax
	movl	%edx, (%esp)
	movl	%eax, %ecx
	call	__ZN8Palmtree4Math4Core8Internal18ResourceHolderUINT10ClearBlockEPj
	subl	$4, %esp
	.loc 5 199 27
	movl	-104(%ebp), %edx
	movl	-100(%ebp), %eax
	movl	%edx, 24(%esp)
	movl	$0, 20(%esp)
	movl	-64(%ebp), %edx
	movl	%edx, 16(%esp)
	movl	-32(%ebp), %edx
	movl	%edx, 12(%esp)
	movl	-28(%ebp), %edx
	movl	%edx, 8(%esp)
	movl	-24(%ebp), %edx
	movl	%edx, 4(%esp)
	movl	%eax, (%esp)
	call	__ZN8Palmtree4Math4Core8Internal10DivRem_X_XEPjjS3_jS3_S3_S3_
	.loc 5 200 32
	leal	-92(%ebp), %eax
	movl	-64(%ebp), %edx
	movl	%edx, (%esp)
	movl	%eax, %ecx
	call	__ZN8Palmtree4Math4Core8Internal18ResourceHolderUINT10CheckBlockEPj
	subl	$4, %esp
	.loc 5 201 32
	leal	-92(%ebp), %eax
	movl	-48(%ebp), %edx
	movl	%edx, (%esp)
	movl	%eax, %ecx
	call	__ZN8Palmtree4Math4Core8Internal18ResourceHolderUINT10CheckBlockEPj
	subl	$4, %esp
	.loc 5 202 32
	leal	-92(%ebp), %eax
	movl	-56(%ebp), %edx
	movl	%edx, (%esp)
	movl	%eax, %ecx
	call	__ZN8Palmtree4Math4Core8Internal18ResourceHolderUINT10CheckBlockEPj
	subl	$4, %esp
	.loc 5 203 28
	leal	-104(%ebp), %eax
	movl	%eax, 4(%esp)
	leal	-100(%ebp), %eax
	movl	%eax, (%esp)
	call	__ZN8Palmtree4Math4Core8InternalL11SwapPointerEPPjS4_
	.loc 5 204 25
	movl	-32(%ebp), %eax
	movl	%eax, -24(%ebp)
L50:
	.loc 5 205 36
	cmpl	$0, -24(%ebp)
	je	L49
	.loc 5 205 56 discriminator 1
	movl	-100(%ebp), %eax
	movl	-24(%ebp), %edx
	addl	$1073741823, %edx
	sall	$2, %edx
	addl	%edx, %eax
	movl	(%eax), %eax
	.loc 5 205 36 discriminator 1
	testl	%eax, %eax
	jne	L49
	.loc 5 206 21
	subl	$1, -24(%ebp)
	.loc 5 205 17
	jmp	L50
L49:
	.loc 5 208 17
	cmpl	$0, -24(%ebp)
	jne	L48
	.loc 5 211 41
	movl	$__ZN8Palmtree4Math4Core8Internal11number_zeroE, %ebx
	jmp	L38
L48:
	.loc 5 215 29
	movl	12(%ebp), %eax
	movl	36(%eax), %eax
	.loc 5 215 46
	movl	-16(%ebp), %edx
	addl	$1073741823, %edx
	sall	$2, %edx
	addl	%edx, %eax
	movl	(%eax), %eax
	.loc 5 215 24
	andl	-20(%ebp), %eax
	.loc 5 215 13
	testl	%eax, %eax
	je	L55
	.loc 5 222 32
	movl	-104(%ebp), %edx
	leal	-92(%ebp), %eax
	movl	%edx, (%esp)
	movl	%eax, %ecx
	call	__ZN8Palmtree4Math4Core8Internal18ResourceHolderUINT10ClearBlockEPj
	subl	$4, %esp
	.loc 5 225 37
	movl	-104(%ebp), %edx
	movl	-100(%ebp), %eax
	movl	%edx, 16(%esp)
	movl	-12(%ebp), %edx
	movl	%edx, 12(%esp)
	movl	-76(%ebp), %edx
	movl	%edx, 8(%esp)
	movl	-24(%ebp), %edx
	movl	%edx, 4(%esp)
	movl	%eax, (%esp)
	call	__ZN8Palmtree4Math4Core8Internal16Multiply_X_X_ImpEPjjS3_jS3_
	.loc 5 227 32
	leal	-92(%ebp), %eax
	movl	-48(%ebp), %edx
	movl	%edx, (%esp)
	movl	%eax, %ecx
	call	__ZN8Palmtree4Math4Core8Internal18ResourceHolderUINT10CheckBlockEPj
	subl	$4, %esp
	.loc 5 228 32
	leal	-92(%ebp), %eax
	movl	-56(%ebp), %edx
	movl	%edx, (%esp)
	movl	%eax, %ecx
	call	__ZN8Palmtree4Math4Core8Internal18ResourceHolderUINT10CheckBlockEPj
	subl	$4, %esp
	.loc 5 229 28
	leal	-104(%ebp), %eax
	movl	%eax, 4(%esp)
	leal	-100(%ebp), %eax
	movl	%eax, (%esp)
	call	__ZN8Palmtree4Math4Core8InternalL11SwapPointerEPPjS4_
	.loc 5 230 25
	movl	-12(%ebp), %eax
	addl	%eax, -24(%ebp)
	.loc 5 231 38
	movl	-100(%ebp), %eax
	movl	-24(%ebp), %edx
	addl	$1073741823, %edx
	sall	$2, %edx
	addl	%edx, %eax
	movl	(%eax), %eax
	.loc 5 231 17
	testl	%eax, %eax
	jne	L52
	.loc 5 232 21
	subl	$1, -24(%ebp)
L52:
	.loc 5 235 17
	movl	-24(%ebp), %eax
	cmpl	-32(%ebp), %eax
	jb	L55
	.loc 5 237 36
	leal	-92(%ebp), %eax
	movl	-64(%ebp), %edx
	movl	%edx, (%esp)
	movl	%eax, %ecx
	call	__ZN8Palmtree4Math4Core8Internal18ResourceHolderUINT10ClearBlockEPj
	subl	$4, %esp
	.loc 5 241 40
	movl	-104(%ebp), %edx
	leal	-92(%ebp), %eax
	movl	%edx, (%esp)
	movl	%eax, %ecx
	call	__ZN8Palmtree4Math4Core8Internal18ResourceHolderUINT10ClearBlockEPj
	subl	$4, %esp
	.loc 5 246 35
	movl	-104(%ebp), %edx
	movl	-100(%ebp), %eax
	movl	%edx, 24(%esp)
	movl	$0, 20(%esp)
	movl	-64(%ebp), %edx
	movl	%edx, 16(%esp)
	movl	-32(%ebp), %edx
	movl	%edx, 12(%esp)
	movl	-28(%ebp), %edx
	movl	%edx, 8(%esp)
	movl	-24(%ebp), %edx
	movl	%edx, 4(%esp)
	movl	%eax, (%esp)
	call	__ZN8Palmtree4Math4Core8Internal10DivRem_X_XEPjjS3_jS3_S3_S3_
	.loc 5 248 36
	leal	-92(%ebp), %eax
	movl	-64(%ebp), %edx
	movl	%edx, (%esp)
	movl	%eax, %ecx
	call	__ZN8Palmtree4Math4Core8Internal18ResourceHolderUINT10CheckBlockEPj
	subl	$4, %esp
	.loc 5 249 36
	leal	-92(%ebp), %eax
	movl	-48(%ebp), %edx
	movl	%edx, (%esp)
	movl	%eax, %ecx
	call	__ZN8Palmtree4Math4Core8Internal18ResourceHolderUINT10CheckBlockEPj
	subl	$4, %esp
	.loc 5 250 36
	leal	-92(%ebp), %eax
	movl	-56(%ebp), %edx
	movl	%edx, (%esp)
	movl	%eax, %ecx
	call	__ZN8Palmtree4Math4Core8Internal18ResourceHolderUINT10CheckBlockEPj
	subl	$4, %esp
	.loc 5 251 32
	leal	-104(%ebp), %eax
	movl	%eax, 4(%esp)
	leal	-100(%ebp), %eax
	movl	%eax, (%esp)
	call	__ZN8Palmtree4Math4Core8InternalL11SwapPointerEPPjS4_
	.loc 5 252 29
	movl	-32(%ebp), %eax
	movl	%eax, -24(%ebp)
L54:
	.loc 5 253 40
	cmpl	$0, -24(%ebp)
	je	L53
	.loc 5 253 60 discriminator 1
	movl	-100(%ebp), %eax
	movl	-24(%ebp), %edx
	addl	$1073741823, %edx
	sall	$2, %edx
	addl	%edx, %eax
	movl	(%eax), %eax
	.loc 5 253 40 discriminator 1
	testl	%eax, %eax
	jne	L53
	.loc 5 254 25
	subl	$1, -24(%ebp)
	.loc 5 253 21
	jmp	L54
L53:
	.loc 5 255 21
	cmpl	$0, -24(%ebp)
	jne	L55
	.loc 5 258 45
	movl	$__ZN8Palmtree4Math4Core8Internal11number_zeroE, %ebx
	jmp	L38
L60:
	.loc 5 176 17
	nop
L44:
	.loc 5 265 26
	movl	-100(%ebp), %edx
	movl	-96(%ebp), %eax
	movl	36(%eax), %eax
	movl	-24(%ebp), %ecx
	movl	%ecx, 8(%esp)
	movl	%edx, 4(%esp)
	movl	%eax, (%esp)
	call	__COPY_MEMORY_UNIT
	.loc 5 266 25
	movl	-96(%ebp), %edx
	leal	-92(%ebp), %eax
	movl	%edx, (%esp)
	movl	%eax, %ecx
	call	__ZN8Palmtree4Math4Core8Internal18ResourceHolderUINT11CheckNumberEPNS2_19__tag_NUMBER_HEADERE
	subl	$4, %esp
	.loc 5 267 21
	movl	-96(%ebp), %eax
	movl	%eax, (%esp)
	call	__ZN8Palmtree4Math4Core8Internal12CommitNumberEPNS2_19__tag_NUMBER_HEADERE
	.loc 5 268 26
	movl	-96(%ebp), %edx
	leal	-92(%ebp), %eax
	movl	%edx, (%esp)
	movl	%eax, %ecx
	call	__ZN8Palmtree4Math4Core8Internal18ResourceHolderUINT12UnlinkNumberEPNS2_19__tag_NUMBER_HEADERE
LEHE4:
	subl	$4, %esp
	.loc 5 269 18
	movl	-96(%ebp), %ebx
L38:
	.loc 5 92 28
	leal	-92(%ebp), %eax
	movl	%eax, %ecx
	call	__ZN8Palmtree4Math4Core8Internal18ResourceHolderUINTD1Ev
	movl	%ebx, %eax
	jmp	L59
L58:
	movl	%eax, %ebx
	leal	-92(%ebp), %eax
	movl	%eax, %ecx
	call	__ZN8Palmtree4Math4Core8Internal18ResourceHolderUINTD1Ev
	movl	%ebx, %eax
	movl	%eax, (%esp)
LEHB5:
	call	__Unwind_Resume
LEHE5:
L59:
	.loc 5 270 5
	movl	-4(%ebp), %ebx
	leave
	.cfi_restore 5
	.cfi_restore 3
	.cfi_def_cfa 4, 4
	ret
	.cfi_endproc
LFE4925:
	.section	.gcc_except_table,"w"
LLSDA4925:
	.byte	0xff
	.byte	0xff
	.byte	0x1
	.uleb128 LLSDACSE4925-LLSDACSB4925
LLSDACSB4925:
	.uleb128 LEHB3-LFB4925
	.uleb128 LEHE3-LEHB3
	.uleb128 0
	.uleb128 0
	.uleb128 LEHB4-LFB4925
	.uleb128 LEHE4-LEHB4
	.uleb128 L58-LFB4925
	.uleb128 0
	.uleb128 LEHB5-LFB4925
	.uleb128 LEHE5-LEHB5
	.uleb128 0
	.uleb128 0
LLSDACSE4925:
	.text
	.section .rdata,"dr"
	.align 4
LC0:
	.ascii "0\0k0\210"
	.ascii "0\213"
	.ascii "0d\226\227{L0L\210\217"
	.ascii "0\214"
	.ascii "0\210"
	.ascii "0F0h0W0~0W0_0\2"
	.ascii "0\0\0"
	.align 2
LC1:
	.ascii "0\0n00\0WNn0$Po0*g\232[\251\177g0Y0\2"
	.ascii "0\0\0"
	.text
	.def	__ZN8Palmtree4Math4Core8InternalL20PMC_ModPow_X_X_X_ImpEPNS2_19__tag_NUMBER_HEADERES4_S4_;	.scl	3;	.type	32;	.endef
__ZN8Palmtree4Math4Core8InternalL20PMC_ModPow_X_X_X_ImpEPNS2_19__tag_NUMBER_HEADERES4_S4_:
LFB4926:
	.loc 5 273 5
	.cfi_startproc
	pushl	%ebp
	.cfi_def_cfa_offset 8
	.cfi_offset 5, -8
	movl	%esp, %ebp
	.cfi_def_cfa_register 5
	pushl	%ebx
	subl	$20, %esp
	.cfi_offset 3, -12
	.loc 5 275 23
	movl	16(%ebp), %eax
	movzbl	4(%eax), %eax
	andl	$1, %eax
	.loc 5 275 9
	testb	%al, %al
	je	L62
	.loc 5 280 98
	movl	$16, (%esp)
	call	___cxa_allocate_exception
	movl	%eax, %ebx
	movl	$LC0, (%esp)
	movl	%ebx, %ecx
	call	__ZN8Palmtree4Math4Core8Internal23DivisionByZeroExceptionC1EPKw
	subl	$4, %esp
	movl	$__ZN8Palmtree4Math4Core8Internal23DivisionByZeroExceptionD1Ev, 8(%esp)
	movl	$__ZTIN8Palmtree4Math4Core8Internal23DivisionByZeroExceptionE, 4(%esp)
	movl	%ebx, (%esp)
	call	___cxa_throw
L62:
	.loc 5 282 27
	movl	16(%ebp), %eax
	movzbl	4(%eax), %eax
	andl	$2, %eax
	.loc 5 282 14
	testb	%al, %al
	je	L63
	.loc 5 285 27
	movl	8(%ebp), %eax
	movzbl	4(%eax), %eax
	andl	$1, %eax
	.loc 5 285 13
	testb	%al, %al
	je	L64
	.loc 5 288 31
	movl	12(%ebp), %eax
	movzbl	4(%eax), %eax
	andl	$1, %eax
	.loc 5 288 17
	testb	%al, %al
	je	L65
	.loc 5 293 85
	movl	$16, (%esp)
	call	___cxa_allocate_exception
	movl	%eax, %ebx
	movl	$LC1, (%esp)
	movl	%ebx, %ecx
	call	__ZN8Palmtree4Math4Core8Internal19ArithmeticExceptionC1EPKw
	subl	$4, %esp
	movl	$__ZN8Palmtree4Math4Core8Internal19ArithmeticExceptionD1Ev, 8(%esp)
	movl	$__ZTIN8Palmtree4Math4Core8Internal19ArithmeticExceptionE, 4(%esp)
	movl	%ebx, (%esp)
	call	___cxa_throw
L65:
	.loc 5 300 41
	movl	$__ZN8Palmtree4Math4Core8Internal11number_zeroE, %eax
	jmp	L66
L64:
	.loc 5 308 37
	movl	$__ZN8Palmtree4Math4Core8Internal11number_zeroE, %eax
	jmp	L66
L63:
	.loc 5 314 27
	movl	8(%ebp), %eax
	movzbl	4(%eax), %eax
	andl	$1, %eax
	.loc 5 314 13
	testb	%al, %al
	je	L67
	.loc 5 317 31
	movl	12(%ebp), %eax
	movzbl	4(%eax), %eax
	andl	$1, %eax
	.loc 5 317 17
	testb	%al, %al
	je	L68
	.loc 5 322 85
	movl	$16, (%esp)
	call	___cxa_allocate_exception
	movl	%eax, %ebx
	movl	$LC1, (%esp)
	movl	%ebx, %ecx
	call	__ZN8Palmtree4Math4Core8Internal19ArithmeticExceptionC1EPKw
	subl	$4, %esp
	movl	$__ZN8Palmtree4Math4Core8Internal19ArithmeticExceptionD1Ev, 8(%esp)
	movl	$__ZTIN8Palmtree4Math4Core8Internal19ArithmeticExceptionE, 4(%esp)
	movl	%ebx, (%esp)
	call	___cxa_throw
L68:
	.loc 5 328 41
	movl	$__ZN8Palmtree4Math4Core8Internal11number_zeroE, %eax
	jmp	L66
L67:
	.loc 5 331 31
	movl	8(%ebp), %eax
	movzbl	4(%eax), %eax
	andl	$2, %eax
	.loc 5 331 18
	testb	%al, %al
	je	L69
	.loc 5 336 36
	movl	$__ZN8Palmtree4Math4Core8Internal10number_oneE, %eax
	jmp	L66
L69:
	.loc 5 341 31
	movl	12(%ebp), %eax
	movzbl	4(%eax), %eax
	andl	$1, %eax
	.loc 5 341 17
	testb	%al, %al
	je	L70
	.loc 5 344 40
	movl	$__ZN8Palmtree4Math4Core8Internal10number_oneE, %eax
	jmp	L66
L70:
	.loc 5 346 35
	movl	12(%ebp), %eax
	movzbl	4(%eax), %eax
	andl	$2, %eax
	.loc 5 346 22
	testb	%al, %al
	je	L71
	.loc 5 351 38
	movl	16(%ebp), %eax
	movl	%eax, 4(%esp)
	movl	8(%ebp), %eax
	movl	%eax, (%esp)
	call	__ZN8Palmtree4Math4Core8InternalL9RemainderEPNS2_19__tag_NUMBER_HEADERES4_
	.loc 5 351 44
	jmp	L66
L71:
	.loc 5 357 40
	movl	16(%ebp), %eax
	movl	%eax, 8(%esp)
	movl	12(%ebp), %eax
	movl	%eax, 4(%esp)
	movl	8(%ebp), %eax
	movl	%eax, (%esp)
	call	__ZN8Palmtree4Math4Core8InternalL11ModulePowerEPNS2_19__tag_NUMBER_HEADERES4_S4_
	.loc 5 357 49
	nop
L66:
	.loc 5 361 5
	movl	-4(%ebp), %ebx
	leave
	.cfi_restore 5
	.cfi_restore 3
	.cfi_def_cfa 4, 4
	ret
	.cfi_endproc
LFE4926:
	.section .rdata,"dr"
	.align 2
LC2:
	.ascii "v\0\0\0"
	.align 4
LC3:
	.ascii "\25_pek0n\0u\0l\0l\0p\0t\0r\0L0\16NH0\211"
	.ascii "0\214"
	.ascii "0f0D0~0Y0\2"
	.ascii "0\0\0"
	.align 2
LC4:
	.ascii "e\0\0\0"
	.align 2
LC5:
	.ascii "m\0\0\0"
	.text
	.globl	__ZN8Palmtree4Math4Core8Internal16PMC_ModPow_X_X_XEPNS2_21__tag_PMC_HANDLE_UINTES4_S4_@12
	.def	__ZN8Palmtree4Math4Core8Internal16PMC_ModPow_X_X_XEPNS2_21__tag_PMC_HANDLE_UINTES4_S4_@12;	.scl	2;	.type	32;	.endef
__ZN8Palmtree4Math4Core8Internal16PMC_ModPow_X_X_XEPNS2_21__tag_PMC_HANDLE_UINTES4_S4_@12:
LFB4930:
	.loc 5 364 5
	.cfi_startproc
	.cfi_personality 0,___gxx_personality_v0
	.cfi_lsda 0,LLSDA4930
	pushl	%ebp
	.cfi_def_cfa_offset 8
	.cfi_offset 5, -8
	movl	%esp, %ebp
	.cfi_def_cfa_register 5
	pushl	%ebx
	subl	$52, %esp
	.cfi_offset 3, -12
	.loc 5 366 9
	cmpl	$0, 8(%ebp)
	jne	L73
	.loc 5 367 96
	movl	$16, (%esp)
	call	___cxa_allocate_exception
	movl	%eax, %ebx
	movl	$LC2, 4(%esp)
	movl	$LC3, (%esp)
	movl	%ebx, %ecx
	call	__ZN8Palmtree4Math4Core8Internal21ArgumentNullExceptionC1EPKwS5_
	subl	$8, %esp
	movl	$__ZN8Palmtree4Math4Core8Internal21ArgumentNullExceptionD1Ev, 8(%esp)
	movl	$__ZTIN8Palmtree4Math4Core8Internal21ArgumentNullExceptionE, 4(%esp)
	movl	%ebx, (%esp)
LEHB6:
	call	___cxa_throw
L73:
	.loc 5 368 9
	cmpl	$0, 12(%ebp)
	jne	L74
	.loc 5 369 96
	movl	$16, (%esp)
	call	___cxa_allocate_exception
	movl	%eax, %ebx
	movl	$LC4, 4(%esp)
	movl	$LC3, (%esp)
	movl	%ebx, %ecx
	call	__ZN8Palmtree4Math4Core8Internal21ArgumentNullExceptionC1EPKwS5_
	subl	$8, %esp
	movl	$__ZN8Palmtree4Math4Core8Internal21ArgumentNullExceptionD1Ev, 8(%esp)
	movl	$__ZTIN8Palmtree4Math4Core8Internal21ArgumentNullExceptionE, 4(%esp)
	movl	%ebx, (%esp)
	call	___cxa_throw
L74:
	.loc 5 370 9
	cmpl	$0, 16(%ebp)
	jne	L75
	.loc 5 371 96
	movl	$16, (%esp)
	call	___cxa_allocate_exception
	movl	%eax, %ebx
	movl	$LC5, 4(%esp)
	movl	$LC3, (%esp)
	movl	%ebx, %ecx
	call	__ZN8Palmtree4Math4Core8Internal21ArgumentNullExceptionC1EPKwS5_
	subl	$8, %esp
	movl	$__ZN8Palmtree4Math4Core8Internal21ArgumentNullExceptionD1Ev, 8(%esp)
	movl	$__ZTIN8Palmtree4Math4Core8Internal21ArgumentNullExceptionE, 4(%esp)
	movl	%ebx, (%esp)
	call	___cxa_throw
L75:
	.loc 5 372 20
	movl	8(%ebp), %eax
	movl	%eax, (%esp)
	call	__ZN8Palmtree4Math4Core8Internal11CheckNumberEPNS2_19__tag_NUMBER_HEADERE
	.loc 5 373 20
	movl	12(%ebp), %eax
	movl	%eax, (%esp)
	call	__ZN8Palmtree4Math4Core8Internal11CheckNumberEPNS2_19__tag_NUMBER_HEADERE
	.loc 5 374 20
	movl	16(%ebp), %eax
	movl	%eax, (%esp)
	call	__ZN8Palmtree4Math4Core8Internal11CheckNumberEPNS2_19__tag_NUMBER_HEADERE
	.loc 5 375 28
	leal	-28(%ebp), %eax
	movl	%eax, %ecx
	call	__ZN8Palmtree4Math4Core8Internal18ResourceHolderUINTC1Ev
LEHE6:
	.loc 5 376 48
	movl	16(%ebp), %eax
	movl	%eax, 8(%esp)
	movl	12(%ebp), %eax
	movl	%eax, 4(%esp)
	movl	8(%ebp), %eax
	movl	%eax, (%esp)
LEHB7:
	call	__ZN8Palmtree4Math4Core8InternalL20PMC_ModPow_X_X_X_ImpEPNS2_19__tag_NUMBER_HEADERES4_S4_
	movl	%eax, -12(%ebp)
	.loc 5 377 24
	leal	-28(%ebp), %eax
	movl	-12(%ebp), %edx
	movl	%edx, (%esp)
	movl	%eax, %ecx
	call	__ZN8Palmtree4Math4Core8Internal18ResourceHolderUINT10HookNumberEPNS2_19__tag_NUMBER_HEADERE
	.loc 5 377 24 is_stmt 0 discriminator 1
	subl	$4, %esp
	.loc 5 379 20 is_stmt 1 discriminator 1
	movl	-12(%ebp), %eax
	movl	%eax, (%esp)
	call	__ZN8Palmtree4Math4Core8Internal11CheckNumberEPNS2_19__tag_NUMBER_HEADERE
	.loc 5 381 26
	leal	-28(%ebp), %eax
	movl	-12(%ebp), %edx
	movl	%edx, (%esp)
	movl	%eax, %ecx
	call	__ZN8Palmtree4Math4Core8Internal18ResourceHolderUINT12UnlinkNumberEPNS2_19__tag_NUMBER_HEADERE
LEHE7:
	subl	$4, %esp
	.loc 5 382 35
	movl	-12(%ebp), %ebx
	.loc 5 375 28
	leal	-28(%ebp), %eax
	movl	%eax, %ecx
	call	__ZN8Palmtree4Math4Core8Internal18ResourceHolderUINTD1Ev
	.loc 5 382 35
	movl	%ebx, %eax
	jmp	L79
L78:
	movl	%eax, %ebx
	.loc 5 375 28
	leal	-28(%ebp), %eax
	movl	%eax, %ecx
	call	__ZN8Palmtree4Math4Core8Internal18ResourceHolderUINTD1Ev
	movl	%ebx, %eax
	movl	%eax, (%esp)
LEHB8:
	call	__Unwind_Resume
LEHE8:
L79:
	.loc 5 383 5
	movl	-4(%ebp), %ebx
	leave
	.cfi_restore 5
	.cfi_restore 3
	.cfi_def_cfa 4, 4
	ret	$12
	.cfi_endproc
LFE4930:
	.section	.gcc_except_table,"w"
LLSDA4930:
	.byte	0xff
	.byte	0xff
	.byte	0x1
	.uleb128 LLSDACSE4930-LLSDACSB4930
LLSDACSB4930:
	.uleb128 LEHB6-LFB4930
	.uleb128 LEHE6-LEHB6
	.uleb128 0
	.uleb128 0
	.uleb128 LEHB7-LFB4930
	.uleb128 LEHE7-LEHB7
	.uleb128 L78-LFB4930
	.uleb128 0
	.uleb128 LEHB8-LFB4930
	.uleb128 LEHE8-LEHB8
	.uleb128 0
	.uleb128 0
LLSDACSE4930:
	.text
	.globl	__ZN8Palmtree4Math4Core8Internal17Initialize_ModPowEPNS2_23_tag_PROCESSOR_FEATURESE
	.def	__ZN8Palmtree4Math4Core8Internal17Initialize_ModPowEPNS2_23_tag_PROCESSOR_FEATURESE;	.scl	2;	.type	32;	.endef
__ZN8Palmtree4Math4Core8Internal17Initialize_ModPowEPNS2_23_tag_PROCESSOR_FEATURESE:
LFB4931:
	.loc 5 386 5
	.cfi_startproc
	.loc 5 387 20
	movl	$0, %eax
	.loc 5 388 5
	ret
	.cfi_endproc
LFE4931:
	.globl	__ZTVN8Palmtree4Math4Core8Internal19ArithmeticExceptionE
	.section	.rdata$_ZTVN8Palmtree4Math4Core8Internal19ArithmeticExceptionE,"dr"
	.linkonce same_size
	.align 4
__ZTVN8Palmtree4Math4Core8Internal19ArithmeticExceptionE:
	.long	0
	.long	__ZTIN8Palmtree4Math4Core8Internal19ArithmeticExceptionE
	.long	__ZN8Palmtree4Math4Core8Internal19ArithmeticExceptionD1Ev
	.long	__ZN8Palmtree4Math4Core8Internal19ArithmeticExceptionD0Ev
	.long	__ZNKSt9exception4whatEv
	.globl	__ZTVN8Palmtree4Math4Core8Internal23DivisionByZeroExceptionE
	.section	.rdata$_ZTVN8Palmtree4Math4Core8Internal23DivisionByZeroExceptionE,"dr"
	.linkonce same_size
	.align 4
__ZTVN8Palmtree4Math4Core8Internal23DivisionByZeroExceptionE:
	.long	0
	.long	__ZTIN8Palmtree4Math4Core8Internal23DivisionByZeroExceptionE
	.long	__ZN8Palmtree4Math4Core8Internal23DivisionByZeroExceptionD1Ev
	.long	__ZN8Palmtree4Math4Core8Internal23DivisionByZeroExceptionD0Ev
	.long	__ZNKSt9exception4whatEv
	.globl	__ZTVN8Palmtree4Math4Core8Internal21ArgumentNullExceptionE
	.section	.rdata$_ZTVN8Palmtree4Math4Core8Internal21ArgumentNullExceptionE,"dr"
	.linkonce same_size
	.align 4
__ZTVN8Palmtree4Math4Core8Internal21ArgumentNullExceptionE:
	.long	0
	.long	__ZTIN8Palmtree4Math4Core8Internal21ArgumentNullExceptionE
	.long	__ZN8Palmtree4Math4Core8Internal21ArgumentNullExceptionD1Ev
	.long	__ZN8Palmtree4Math4Core8Internal21ArgumentNullExceptionD0Ev
	.long	__ZNKSt9exception4whatEv
	.globl	__ZTVN8Palmtree4Math4Core8Internal9ExceptionE
	.section	.rdata$_ZTVN8Palmtree4Math4Core8Internal9ExceptionE,"dr"
	.linkonce same_size
	.align 4
__ZTVN8Palmtree4Math4Core8Internal9ExceptionE:
	.long	0
	.long	__ZTIN8Palmtree4Math4Core8Internal9ExceptionE
	.long	__ZN8Palmtree4Math4Core8Internal9ExceptionD1Ev
	.long	__ZN8Palmtree4Math4Core8Internal9ExceptionD0Ev
	.long	__ZNKSt9exception4whatEv
	.globl	__ZTIN8Palmtree4Math4Core8Internal19ArithmeticExceptionE
	.section	.rdata$_ZTIN8Palmtree4Math4Core8Internal19ArithmeticExceptionE,"dr"
	.linkonce same_size
	.align 4
__ZTIN8Palmtree4Math4Core8Internal19ArithmeticExceptionE:
	.long	__ZTVN10__cxxabiv120__si_class_type_infoE+8
	.long	__ZTSN8Palmtree4Math4Core8Internal19ArithmeticExceptionE
	.long	__ZTIN8Palmtree4Math4Core8Internal9ExceptionE
	.globl	__ZTSN8Palmtree4Math4Core8Internal19ArithmeticExceptionE
	.section	.rdata$_ZTSN8Palmtree4Math4Core8Internal19ArithmeticExceptionE,"dr"
	.linkonce same_size
	.align 32
__ZTSN8Palmtree4Math4Core8Internal19ArithmeticExceptionE:
	.ascii "N8Palmtree4Math4Core8Internal19ArithmeticExceptionE\0"
	.globl	__ZTIN8Palmtree4Math4Core8Internal23DivisionByZeroExceptionE
	.section	.rdata$_ZTIN8Palmtree4Math4Core8Internal23DivisionByZeroExceptionE,"dr"
	.linkonce same_size
	.align 4
__ZTIN8Palmtree4Math4Core8Internal23DivisionByZeroExceptionE:
	.long	__ZTVN10__cxxabiv120__si_class_type_infoE+8
	.long	__ZTSN8Palmtree4Math4Core8Internal23DivisionByZeroExceptionE
	.long	__ZTIN8Palmtree4Math4Core8Internal9ExceptionE
	.globl	__ZTSN8Palmtree4Math4Core8Internal23DivisionByZeroExceptionE
	.section	.rdata$_ZTSN8Palmtree4Math4Core8Internal23DivisionByZeroExceptionE,"dr"
	.linkonce same_size
	.align 32
__ZTSN8Palmtree4Math4Core8Internal23DivisionByZeroExceptionE:
	.ascii "N8Palmtree4Math4Core8Internal23DivisionByZeroExceptionE\0"
	.globl	__ZTIN8Palmtree4Math4Core8Internal21ArgumentNullExceptionE
	.section	.rdata$_ZTIN8Palmtree4Math4Core8Internal21ArgumentNullExceptionE,"dr"
	.linkonce same_size
	.align 4
__ZTIN8Palmtree4Math4Core8Internal21ArgumentNullExceptionE:
	.long	__ZTVN10__cxxabiv120__si_class_type_infoE+8
	.long	__ZTSN8Palmtree4Math4Core8Internal21ArgumentNullExceptionE
	.long	__ZTIN8Palmtree4Math4Core8Internal9ExceptionE
	.globl	__ZTSN8Palmtree4Math4Core8Internal21ArgumentNullExceptionE
	.section	.rdata$_ZTSN8Palmtree4Math4Core8Internal21ArgumentNullExceptionE,"dr"
	.linkonce same_size
	.align 32
__ZTSN8Palmtree4Math4Core8Internal21ArgumentNullExceptionE:
	.ascii "N8Palmtree4Math4Core8Internal21ArgumentNullExceptionE\0"
	.globl	__ZTIN8Palmtree4Math4Core8Internal9ExceptionE
	.section	.rdata$_ZTIN8Palmtree4Math4Core8Internal9ExceptionE,"dr"
	.linkonce same_size
	.align 4
__ZTIN8Palmtree4Math4Core8Internal9ExceptionE:
	.long	__ZTVN10__cxxabiv121__vmi_class_type_infoE+8
	.long	__ZTSN8Palmtree4Math4Core8Internal9ExceptionE
	.long	0
	.long	1
	.long	__ZTISt9exception
	.long	0
	.globl	__ZTSN8Palmtree4Math4Core8Internal9ExceptionE
	.section	.rdata$_ZTSN8Palmtree4Math4Core8Internal9ExceptionE,"dr"
	.linkonce same_size
	.align 32
__ZTSN8Palmtree4Math4Core8Internal9ExceptionE:
	.ascii "N8Palmtree4Math4Core8Internal9ExceptionE\0"
	.globl	__ZTISt9exception
	.section	.rdata$_ZTISt9exception,"dr"
	.linkonce same_size
	.align 4
__ZTISt9exception:
	.long	__ZTVN10__cxxabiv117__class_type_infoE+8
	.long	__ZTSSt9exception
	.globl	__ZTSSt9exception
	.section	.rdata$_ZTSSt9exception,"dr"
	.linkonce same_size
	.align 4
__ZTSSt9exception:
	.ascii "St9exception\0"
	.text
Letext0:
	.file 6 "C:/GNU/MINGW64/i686-8.1.0-win32-dwarf-rt_v6-rev0/mingw32/i686-w64-mingw32/include/crtdefs.h"
	.file 7 "C:/GNU/MINGW64/i686-8.1.0-win32-dwarf-rt_v6-rev0/mingw32/i686-w64-mingw32/include/excpt.h"
	.file 8 "C:/GNU/MINGW64/i686-8.1.0-win32-dwarf-rt_v6-rev0/mingw32/i686-w64-mingw32/include/minwindef.h"
	.file 9 "C:/GNU/MINGW64/i686-8.1.0-win32-dwarf-rt_v6-rev0/mingw32/i686-w64-mingw32/include/ctype.h"
	.file 10 "C:/GNU/MINGW64/i686-8.1.0-win32-dwarf-rt_v6-rev0/mingw32/i686-w64-mingw32/include/winnt.h"
	.file 11 "C:/GNU/MINGW64/i686-8.1.0-win32-dwarf-rt_v6-rev0/mingw32/i686-w64-mingw32/include/guiddef.h"
	.file 12 "C:/GNU/MINGW64/i686-8.1.0-win32-dwarf-rt_v6-rev0/mingw32/i686-w64-mingw32/include/rpcdce.h"
	.file 13 "C:/GNU/MINGW64/i686-8.1.0-win32-dwarf-rt_v6-rev0/mingw32/lib/gcc/i686-w64-mingw32/8.1.0/include/c++/cstdlib"
	.file 14 "C:/GNU/MINGW64/i686-8.1.0-win32-dwarf-rt_v6-rev0/mingw32/lib/gcc/i686-w64-mingw32/8.1.0/include/c++/bits/std_abs.h"
	.file 15 "C:/GNU/MINGW64/i686-8.1.0-win32-dwarf-rt_v6-rev0/mingw32/lib/gcc/i686-w64-mingw32/8.1.0/include/c++/bits/exception_ptr.h"
	.file 16 "C:/GNU/MINGW64/i686-8.1.0-win32-dwarf-rt_v6-rev0/mingw32/lib/gcc/i686-w64-mingw32/8.1.0/include/c++/new"
	.file 17 "C:/GNU/MINGW64/i686-8.1.0-win32-dwarf-rt_v6-rev0/mingw32/lib/gcc/i686-w64-mingw32/8.1.0/include/c++/i686-w64-mingw32/bits/c++config.h"
	.file 18 "C:/GNU/MINGW64/i686-8.1.0-win32-dwarf-rt_v6-rev0/mingw32/lib/gcc/i686-w64-mingw32/8.1.0/include/c++/type_traits"
	.file 19 "C:/GNU/MINGW64/i686-8.1.0-win32-dwarf-rt_v6-rev0/mingw32/i686-w64-mingw32/include/stdlib.h"
	.file 20 "C:/GNU/MINGW64/i686-8.1.0-win32-dwarf-rt_v6-rev0/mingw32/i686-w64-mingw32/include/malloc.h"
	.file 21 "C:/GNU/MINGW64/i686-8.1.0-win32-dwarf-rt_v6-rev0/mingw32/lib/gcc/i686-w64-mingw32/8.1.0/include/c++/stdlib.h"
	.file 22 "C:/GNU/MINGW64/i686-8.1.0-win32-dwarf-rt_v6-rev0/mingw32/i686-w64-mingw32/include/wtypesbase.h"
	.file 23 "C:/GNU/MINGW64/i686-8.1.0-win32-dwarf-rt_v6-rev0/mingw32/i686-w64-mingw32/include/unknwnbase.h"
	.file 24 "C:/GNU/MINGW64/i686-8.1.0-win32-dwarf-rt_v6-rev0/mingw32/i686-w64-mingw32/include/objidlbase.h"
	.file 25 "C:/GNU/MINGW64/i686-8.1.0-win32-dwarf-rt_v6-rev0/mingw32/i686-w64-mingw32/include/cguid.h"
	.file 26 "C:/GNU/MINGW64/i686-8.1.0-win32-dwarf-rt_v6-rev0/mingw32/i686-w64-mingw32/include/wtypes.h"
	.file 27 "C:/GNU/MINGW64/i686-8.1.0-win32-dwarf-rt_v6-rev0/mingw32/i686-w64-mingw32/include/objidl.h"
	.file 28 "C:/GNU/MINGW64/i686-8.1.0-win32-dwarf-rt_v6-rev0/mingw32/i686-w64-mingw32/include/oleidl.h"
	.file 29 "C:/GNU/MINGW64/i686-8.1.0-win32-dwarf-rt_v6-rev0/mingw32/i686-w64-mingw32/include/servprov.h"
	.file 30 "C:/GNU/MINGW64/i686-8.1.0-win32-dwarf-rt_v6-rev0/mingw32/i686-w64-mingw32/include/oaidl.h"
	.file 31 "C:/GNU/MINGW64/i686-8.1.0-win32-dwarf-rt_v6-rev0/mingw32/i686-w64-mingw32/include/msxml.h"
	.file 32 "C:/GNU/MINGW64/i686-8.1.0-win32-dwarf-rt_v6-rev0/mingw32/i686-w64-mingw32/include/urlmon.h"
	.file 33 "C:/GNU/MINGW64/i686-8.1.0-win32-dwarf-rt_v6-rev0/mingw32/i686-w64-mingw32/include/propidl.h"
	.file 34 "C:/GNU/MINGW64/i686-8.1.0-win32-dwarf-rt_v6-rev0/mingw32/i686-w64-mingw32/include/oleauto.h"
	.file 35 "C:/GNU/MINGW64/i686-8.1.0-win32-dwarf-rt_v6-rev0/mingw32/i686-w64-mingw32/include/winioctl.h"
	.file 36 "C:/GNU/MINGW64/i686-8.1.0-win32-dwarf-rt_v6-rev0/mingw32/i686-w64-mingw32/include/winsmcrd.h"
	.file 37 "C:/GNU/MINGW64/i686-8.1.0-win32-dwarf-rt_v6-rev0/mingw32/i686-w64-mingw32/include/winscard.h"
	.file 38 "C:/GNU/MINGW64/i686-8.1.0-win32-dwarf-rt_v6-rev0/mingw32/i686-w64-mingw32/include/commdlg.h"
	.file 39 "C:/GNU/MINGW64/i686-8.1.0-win32-dwarf-rt_v6-rev0/mingw32/i686-w64-mingw32/include/wchar.h"
	.file 40 "C:/GNU/MINGW64/i686-8.1.0-win32-dwarf-rt_v6-rev0/mingw32/i686-w64-mingw32/include/stdint.h"
	.file 41 "../pmc.h"
	.file 42 "<built-in>"
	.file 43 "../pmc_uint.h"
	.file 44 "../pmc_cpuid.h"
	.file 45 "../pmc_uint_internal.h"
	.file 46 "../pmc_internal.h"