	.file	"pmc_parse.c"
	.text
Ltext0:
	.def	_IncrementMULTI32Counter;	.scl	3;	.type	32;	.endef
_IncrementMULTI32Counter:
LFB73:
	.file 1 "../pmc_uint_internal.h"
	.loc 1 360 5
	.cfi_startproc
	pushl	%ebp
	.cfi_def_cfa_offset 8
	.cfi_offset 5, -8
	movl	%esp, %ebp
	.cfi_def_cfa_register 5
	subl	$16, %esp
	movl	$_statistics_info+4, -4(%ebp)
LBB12:
LBB13:
	.file 2 "C:/GNU/MINGW64/i686-8.1.0-win32-dwarf-rt_v6-rev0/mingw32/i686-w64-mingw32/include/psdk_inc/intrin-impl.h"
	.loc 2 1343 11
	movl	-4(%ebp), %eax
	movl	$1, %edx
	lock xaddl	%edx, (%eax)
LBE13:
LBE12:
	.loc 1 362 5
	nop
	leave
	.cfi_restore 5
	.cfi_def_cfa 4, 4
	ret
	.cfi_endproc
LFE73:
	.def	_AddToMULTI32Counter;	.scl	3;	.type	32;	.endef
_AddToMULTI32Counter:
LFB77:
	.loc 1 383 5
	.cfi_startproc
	pushl	%ebp
	.cfi_def_cfa_offset 8
	.cfi_offset 5, -8
	movl	%esp, %ebp
	.cfi_def_cfa_register 5
	subl	$16, %esp
	movl	$_statistics_info+4, -4(%ebp)
	movl	8(%ebp), %eax
	movl	%eax, -8(%ebp)
LBB14:
LBB15:
	.loc 2 1321 12
	movl	-8(%ebp), %edx
	movl	-4(%ebp), %eax
	lock xaddl	%edx, (%eax)
LBE15:
LBE14:
	.loc 1 385 5
	nop
	leave
	.cfi_restore 5
	.cfi_def_cfa 4, 4
	ret
	.cfi_endproc
LFE77:
	.def	__COPY_MEMORY_UNIT;	.scl	3;	.type	32;	.endef
__COPY_MEMORY_UNIT:
LFB4195:
	.file 3 "../pmc_inline_func.h"
	.loc 3 60 5
	.cfi_startproc
	pushl	%ebp
	.cfi_def_cfa_offset 8
	.cfi_offset 5, -8
	movl	%esp, %ebp
	.cfi_def_cfa_register 5
	pushl	%edi
	pushl	%esi
	pushl	%ebx
	subl	$16, %esp
	.cfi_offset 7, -12
	.cfi_offset 6, -16
	.cfi_offset 3, -20
	movl	8(%ebp), %eax
	movl	%eax, -16(%ebp)
	movl	12(%ebp), %eax
	movl	%eax, -20(%ebp)
	movl	16(%ebp), %eax
	movl	%eax, -24(%ebp)
LBB16:
LBB17:
	.loc 2 1773 87
	movl	-16(%ebp), %ecx
	movl	-20(%ebp), %edx
	movl	-24(%ebp), %eax
	movl	%ecx, %ebx
	movl	%ebx, %edi
	movl	%edx, %esi
	movl	%eax, %ecx
/APP
 # 1773 "C:/GNU/MINGW64/i686-8.1.0-win32-dwarf-rt_v6-rev0/mingw32/i686-w64-mingw32/include/psdk_inc/intrin-impl.h" 1
	rep movsd
 # 0 "" 2
/NO_APP
	movl	%ecx, %eax
	movl	%esi, %edx
	movl	%edi, %ebx
	movl	%ebx, -16(%ebp)
	movl	%edx, -20(%ebp)
	movl	%eax, -24(%ebp)
LBE17:
LBE16:
	.loc 3 68 5
	nop
	addl	$16, %esp
	popl	%ebx
	.cfi_restore 3
	popl	%esi
	.cfi_restore 6
	popl	%edi
	.cfi_restore 7
	popl	%ebp
	.cfi_restore 5
	.cfi_def_cfa 4, 4
	ret
	.cfi_endproc
LFE4195:
	.def	__DIVIDE_CEILING_UNIT;	.scl	3;	.type	32;	.endef
__DIVIDE_CEILING_UNIT:
LFB4209:
	.loc 3 187 5
	.cfi_startproc
	pushl	%ebp
	.cfi_def_cfa_offset 8
	.cfi_offset 5, -8
	movl	%esp, %ebp
	.cfi_def_cfa_register 5
	.loc 3 188 20
	movl	8(%ebp), %edx
	movl	12(%ebp), %eax
	addl	%edx, %eax
	.loc 3 188 24
	subl	$1, %eax
	.loc 3 188 29
	movl	$0, %edx
	divl	12(%ebp)
	.loc 3 189 5
	popl	%ebp
	.cfi_restore 5
	.cfi_def_cfa 4, 4
	ret
	.cfi_endproc
LFE4209:
	.def	__DIVIDE_CEILING_SIZE;	.scl	3;	.type	32;	.endef
__DIVIDE_CEILING_SIZE:
LFB4210:
	.loc 3 192 5
	.cfi_startproc
	pushl	%ebp
	.cfi_def_cfa_offset 8
	.cfi_offset 5, -8
	movl	%esp, %ebp
	.cfi_def_cfa_register 5
	.loc 3 193 20
	movl	8(%ebp), %edx
	movl	12(%ebp), %eax
	addl	%edx, %eax
	.loc 3 193 24
	subl	$1, %eax
	.loc 3 193 29
	movl	$0, %edx
	divl	12(%ebp)
	.loc 3 194 5
	popl	%ebp
	.cfi_restore 5
	.cfi_def_cfa 4, 4
	ret
	.cfi_endproc
LFE4210:
	.def	__ADD_UNIT;	.scl	3;	.type	32;	.endef
__ADD_UNIT:
LFB4213:
	.loc 3 207 5
	.cfi_startproc
	pushl	%ebp
	.cfi_def_cfa_offset 8
	.cfi_offset 5, -8
	movl	%esp, %ebp
	.cfi_def_cfa_register 5
	pushl	%ebx
	subl	$20, %esp
	.cfi_offset 3, -12
	movl	8(%ebp), %eax
	movb	%al, -24(%ebp)
	.loc 3 209 17
	movzbl	-24(%ebp), %eax
	movzbl	%al, %eax
	movb	%al, -5(%ebp)
	movl	12(%ebp), %eax
	movl	%eax, -12(%ebp)
	movl	16(%ebp), %eax
	movl	%eax, -16(%ebp)
	movl	20(%ebp), %eax
	movl	%eax, -20(%ebp)
LBB18:
LBB19:
	.file 4 "C:/GNU/MINGW64/i686-8.1.0-win32-dwarf-rt_v6-rev0/mingw32/lib/gcc/i686-w64-mingw32/8.1.0/include/adxintrin.h"
	.loc 4 44 10
	movzbl	-5(%ebp), %eax
	movl	%eax, %ebx
	movl	-12(%ebp), %ecx
	movl	-16(%ebp), %eax
	movl	-20(%ebp), %edx
	addb	$-1, %bl
	adcl	%ecx, %eax
	setc	%cl
	movl	%eax, (%edx)
LBE19:
LBE18:
	.loc 3 209 17
	movl	%ecx, %eax
	.loc 3 215 5
	addl	$20, %esp
	popl	%ebx
	.cfi_restore 3
	popl	%ebp
	.cfi_restore 5
	.cfi_def_cfa 4, 4
	ret
	.cfi_endproc
LFE4213:
	.def	__ADDX_UNIT;	.scl	3;	.type	32;	.endef
__ADDX_UNIT:
LFB4215:
	.loc 3 235 5
	.cfi_startproc
	pushl	%ebp
	.cfi_def_cfa_offset 8
	.cfi_offset 5, -8
	movl	%esp, %ebp
	.cfi_def_cfa_register 5
	pushl	%ebx
	subl	$20, %esp
	.cfi_offset 3, -12
	movl	8(%ebp), %eax
	movb	%al, -24(%ebp)
	.loc 3 237 17
	movzbl	-24(%ebp), %eax
	movzbl	%al, %eax
	movb	%al, -5(%ebp)
	movl	12(%ebp), %eax
	movl	%eax, -12(%ebp)
	movl	16(%ebp), %eax
	movl	%eax, -16(%ebp)
	movl	20(%ebp), %eax
	movl	%eax, -20(%ebp)
LBB20:
LBB21:
	.loc 4 52 10
	movzbl	-5(%ebp), %eax
	movl	%eax, %ebx
	movl	-12(%ebp), %ecx
	movl	-16(%ebp), %eax
	movl	-20(%ebp), %edx
	addb	$-1, %bl
	adcl	%ecx, %eax
	setc	%cl
	movl	%eax, (%edx)
LBE21:
LBE20:
	.loc 3 237 17
	movl	%ecx, %eax
	.loc 3 243 5
	addl	$20, %esp
	popl	%ebx
	.cfi_restore 3
	popl	%ebp
	.cfi_restore 5
	.cfi_def_cfa 4, 4
	ret
	.cfi_endproc
LFE4215:
	.def	__MULTIPLY_UNIT;	.scl	3;	.type	32;	.endef
__MULTIPLY_UNIT:
LFB4219:
	.loc 3 291 5
	.cfi_startproc
	pushl	%ebp
	.cfi_def_cfa_offset 8
	.cfi_offset 5, -8
	movl	%esp, %ebp
	.cfi_def_cfa_register 5
	subl	$16, %esp
	.loc 3 297 9
	movl	8(%ebp), %eax
/APP
 # 297 "../pmc_inline_func.h" 1
	mull 12(%ebp)
 # 0 "" 2
/NO_APP
	movl	%eax, -4(%ebp)
	movl	16(%ebp), %eax
	movl	%edx, (%eax)
	.loc 3 298 16
	movl	-4(%ebp), %eax
	.loc 3 307 5
	leave
	.cfi_restore 5
	.cfi_def_cfa 4, 4
	ret
	.cfi_endproc
LFE4219:
	.def	__MULTIPLYX_UNIT;	.scl	3;	.type	32;	.endef
__MULTIPLYX_UNIT:
LFB4221:
	.loc 3 329 5
	.cfi_startproc
	pushl	%ebp
	.cfi_def_cfa_offset 8
	.cfi_offset 5, -8
	movl	%esp, %ebp
	.cfi_def_cfa_register 5
	pushl	%ebx
	subl	$16, %esp
	.cfi_offset 3, -12
	.loc 3 341 9
	movl	8(%ebp), %eax
	movl	%eax, %edx
/APP
 # 341 "../pmc_inline_func.h" 1
	mulxl 12(%ebp), %ebx, %ecx
 # 0 "" 2
/NO_APP
	movl	%edx, %eax
	movl	%ebx, -8(%ebp)
	movl	16(%ebp), %edx
	movl	%ecx, (%edx)
	movl	%eax, 8(%ebp)
	.loc 3 342 16
	movl	-8(%ebp), %eax
	.loc 3 353 5
	addl	$16, %esp
	popl	%ebx
	.cfi_restore 3
	popl	%ebp
	.cfi_restore 5
	.cfi_def_cfa 4, 4
	ret
	.cfi_endproc
LFE4221:
.lcomm _default_number_format_option,176,32
.lcomm _fp_MultiplyAndAdd,4,4
	.def	_StartsWith;	.scl	3;	.type	32;	.endef
_StartsWith:
LFB4244:
	.file 5 "../pmc_parse.c"
	.loc 5 57 1
	.cfi_startproc
	pushl	%ebp
	.cfi_def_cfa_offset 8
	.cfi_offset 5, -8
	movl	%esp, %ebp
	.cfi_def_cfa_register 5
	.loc 5 58 11
	jmp	L21
L24:
	.loc 5 60 13
	movl	8(%ebp), %eax
	movzwl	(%eax), %edx
	.loc 5 60 19
	movl	12(%ebp), %eax
	movzwl	(%eax), %eax
	.loc 5 60 12
	cmpw	%ax, %dx
	je	L22
	.loc 5 61 20
	movl	$0, %eax
	jmp	L23
L22:
	.loc 5 62 9
	addl	$2, 8(%ebp)
	.loc 5 63 9
	addl	$2, 12(%ebp)
L21:
	.loc 5 58 12
	movl	12(%ebp), %eax
	movzwl	(%eax), %eax
	.loc 5 58 11
	testw	%ax, %ax
	jne	L24
	.loc 5 65 12
	movl	$1, %eax
L23:
	.loc 5 66 1
	popl	%ebp
	.cfi_restore 5
	.cfi_def_cfa 4, 4
	ret
	.cfi_endproc
LFE4244:
	.def	_InitializeParserState;	.scl	3;	.type	32;	.endef
_InitializeParserState:
LFB4245:
	.loc 5 69 1
	.cfi_startproc
	pushl	%ebp
	.cfi_def_cfa_offset 8
	.cfi_offset 5, -8
	movl	%esp, %ebp
	.cfi_def_cfa_register 5
	subl	$24, %esp
	.loc 5 70 19
	movl	8(%ebp), %eax
	movl	12(%ebp), %edx
	movl	%edx, (%eax)
	.loc 5 71 26
	movl	8(%ebp), %eax
	movl	16(%ebp), %edx
	movl	%edx, 4(%eax)
	.loc 5 72 17
	movl	8(%ebp), %eax
	movb	$0, 8(%eax)
	.loc 5 73 51
	movl	20(%ebp), %eax
	leal	144(%eax), %edx
	.loc 5 73 19
	movl	8(%ebp), %eax
	addl	$10, %eax
	.loc 5 73 5
	movl	%edx, 4(%esp)
	movl	%eax, (%esp)
	movl	__imp__lstrcpyW@8, %eax
	call	*%eax
LVL0:
	subl	$8, %esp
	.loc 5 74 51
	movl	8(%ebp), %eax
	addl	$10, %eax
	.loc 5 74 37
	movl	%eax, (%esp)
	movl	__imp__lstrlenW@4, %eax
	call	*%eax
LVL1:
	subl	$4, %esp
	movl	%eax, %edx
	.loc 5 74 35
	movl	8(%ebp), %eax
	movl	%edx, 16(%eax)
	.loc 5 75 49
	movl	20(%ebp), %eax
	leal	156(%eax), %edx
	.loc 5 75 19
	movl	8(%ebp), %eax
	addl	$20, %eax
	.loc 5 75 5
	movl	%edx, 4(%esp)
	movl	%eax, (%esp)
	movl	__imp__lstrcpyW@8, %eax
	call	*%eax
LVL2:
	subl	$8, %esp
	.loc 5 76 49
	movl	8(%ebp), %eax
	addl	$20, %eax
	.loc 5 76 35
	movl	%eax, (%esp)
	movl	__imp__lstrlenW@4, %eax
	call	*%eax
LVL3:
	subl	$4, %esp
	movl	%eax, %edx
	.loc 5 76 33
	movl	8(%ebp), %eax
	movl	%edx, 28(%eax)
	.loc 5 77 49
	movl	20(%ebp), %eax
	leal	150(%eax), %edx
	.loc 5 77 19
	movl	8(%ebp), %eax
	addl	$32, %eax
	.loc 5 77 5
	movl	%edx, 4(%esp)
	movl	%eax, (%esp)
	movl	__imp__lstrcpyW@8, %eax
	call	*%eax
LVL4:
	subl	$8, %esp
	.loc 5 78 49
	movl	8(%ebp), %eax
	addl	$32, %eax
	.loc 5 78 35
	movl	%eax, (%esp)
	movl	__imp__lstrlenW@4, %eax
	call	*%eax
LVL5:
	subl	$4, %esp
	movl	%eax, %edx
	.loc 5 78 33
	movl	8(%ebp), %eax
	movl	%edx, 40(%eax)
	.loc 5 79 54
	movl	16(%ebp), %eax
	andl	$256, %eax
	.loc 5 79 5
	testl	%eax, %eax
	je	L26
	.loc 5 79 5 is_stmt 0 discriminator 1
	movl	20(%ebp), %eax
	addl	$4, %eax
	jmp	L27
L26:
	.loc 5 79 5 discriminator 2
	movl	20(%ebp), %eax
	addl	$52, %eax
L27:
	.loc 5 79 19 is_stmt 1 discriminator 4
	movl	8(%ebp), %edx
	addl	$44, %edx
	.loc 5 79 5 discriminator 4
	movl	%eax, 4(%esp)
	movl	%edx, (%esp)
	movl	__imp__lstrcpyW@8, %eax
	call	*%eax
LVL6:
	subl	$8, %esp
	.loc 5 80 53 discriminator 4
	movl	8(%ebp), %eax
	addl	$44, %eax
	.loc 5 80 39 discriminator 4
	movl	%eax, (%esp)
	movl	__imp__lstrlenW@4, %eax
	call	*%eax
LVL7:
	subl	$4, %esp
	movl	%eax, %edx
	.loc 5 80 37 discriminator 4
	movl	8(%ebp), %eax
	movl	%edx, 52(%eax)
	.loc 5 81 52 discriminator 4
	movl	16(%ebp), %eax
	andl	$256, %eax
	.loc 5 81 5 discriminator 4
	testl	%eax, %eax
	je	L28
	.loc 5 81 5 is_stmt 0 discriminator 1
	movl	20(%ebp), %eax
	addl	$10, %eax
	jmp	L29
L28:
	.loc 5 81 5 discriminator 2
	movl	20(%ebp), %eax
	addl	$58, %eax
L29:
	.loc 5 81 19 is_stmt 1 discriminator 4
	movl	8(%ebp), %edx
	addl	$56, %edx
	.loc 5 81 5 discriminator 4
	movl	%eax, 4(%esp)
	movl	%edx, (%esp)
	movl	__imp__lstrcpyW@8, %eax
	call	*%eax
LVL8:
	subl	$8, %esp
	.loc 5 82 51 discriminator 4
	movl	8(%ebp), %eax
	addl	$56, %eax
	.loc 5 82 37 discriminator 4
	movl	%eax, (%esp)
	movl	__imp__lstrlenW@4, %eax
	call	*%eax
LVL9:
	subl	$4, %esp
	movl	%eax, %edx
	.loc 5 82 35 discriminator 4
	movl	8(%ebp), %eax
	movl	%edx, 64(%eax)
	.loc 5 83 31 discriminator 4
	movl	8(%ebp), %eax
	movzwl	56(%eax), %eax
	.loc 5 83 8 discriminator 4
	cmpw	$160, %ax
	jne	L30
	.loc 5 83 71 discriminator 1
	movl	8(%ebp), %eax
	movzwl	58(%eax), %eax
	.loc 5 83 46 discriminator 1
	testw	%ax, %ax
	jne	L30
	.loc 5 85 45
	movl	8(%ebp), %eax
	movw	$32, 68(%eax)
	.loc 5 86 45
	movl	8(%ebp), %eax
	movw	$0, 70(%eax)
	.loc 5 87 49
	movl	8(%ebp), %eax
	movl	$1, 76(%eax)
	jmp	L31
L30:
	.loc 5 91 45
	movl	8(%ebp), %eax
	movw	$0, 68(%eax)
	.loc 5 92 49
	movl	8(%ebp), %eax
	movl	$0, 76(%eax)
L31:
	.loc 5 94 25
	movl	8(%ebp), %eax
	movl	24(%ebp), %edx
	movl	%edx, 80(%eax)
	.loc 5 95 26
	movl	8(%ebp), %eax
	movl	28(%ebp), %edx
	movl	%edx, 84(%eax)
	.loc 5 96 1
	nop
	leave
	.cfi_restore 5
	.cfi_def_cfa 4, 4
	ret
	.cfi_endproc
LFE4245:
	.def	_FinalizeParserState;	.scl	3;	.type	32;	.endef
_FinalizeParserState:
LFB4246:
	.loc 5 99 1
	.cfi_startproc
	pushl	%ebp
	.cfi_def_cfa_offset 8
	.cfi_offset 5, -8
	movl	%esp, %ebp
	.cfi_def_cfa_register 5
	.loc 5 100 11
	movl	8(%ebp), %eax
	movl	80(%eax), %eax
	.loc 5 100 26
	movw	$0, (%eax)
	.loc 5 101 14
	movl	8(%ebp), %eax
	movl	4(%eax), %eax
	.loc 5 101 30
	andl	$32, %eax
	.loc 5 101 8
	testl	%eax, %eax
	je	L34
	.loc 5 102 15
	movl	8(%ebp), %eax
	movl	84(%eax), %eax
	.loc 5 102 31
	movw	$0, (%eax)
L34:
	.loc 5 103 1
	nop
	popl	%ebp
	.cfi_restore 5
	.cfi_def_cfa 4, 4
	ret
	.cfi_endproc
LFE4246:
	.def	_SkipSpace;	.scl	3;	.type	32;	.endef
_SkipSpace:
LFB4247:
	.loc 5 107 1
	.cfi_startproc
	pushl	%ebp
	.cfi_def_cfa_offset 8
	.cfi_offset 5, -8
	movl	%esp, %ebp
	.cfi_def_cfa_register 5
L40:
	.loc 5 110 23
	movl	8(%ebp), %eax
	movl	(%eax), %eax
	.loc 5 110 17
	movzwl	(%eax), %eax
	movzwl	%ax, %eax
	cmpl	$9, %eax
	jl	L41
	cmpl	$13, %eax
	jle	L42
	cmpl	$32, %eax
	jne	L41
L42:
	.loc 5 118 13
	nop
	.loc 5 123 23
	movl	8(%ebp), %eax
	movl	(%eax), %eax
	leal	2(%eax), %edx
	movl	8(%ebp), %eax
	movl	%edx, (%eax)
	.loc 5 110 9
	jmp	L40
L41:
	.loc 5 121 13
	nop
	.loc 5 125 1
	popl	%ebp
	.cfi_restore 5
	.cfi_def_cfa 4, 4
	ret
	.cfi_endproc
LFE4247:
	.def	_ParseDecimalDigit;	.scl	3;	.type	32;	.endef
_ParseDecimalDigit:
LFB4248:
	.loc 5 128 1
	.cfi_startproc
	pushl	%ebp
	.cfi_def_cfa_offset 8
	.cfi_offset 5, -8
	movl	%esp, %ebp
	.cfi_def_cfa_register 5
	subl	$4, %esp
	movl	8(%ebp), %eax
	movw	%ax, -4(%ebp)
	.loc 5 129 8
	cmpw	$47, -4(%ebp)
	jbe	L44
	.loc 5 129 19 discriminator 1
	cmpw	$57, -4(%ebp)
	ja	L44
	.loc 5 130 19
	movzwl	-4(%ebp), %eax
	subl	$48, %eax
	jmp	L45
L44:
	.loc 5 131 12
	movl	$-1, %eax
L45:
	.loc 5 132 1
	leave
	.cfi_restore 5
	.cfi_def_cfa 4, 4
	ret
	.cfi_endproc
LFE4248:
	.def	_ParseHexDigit;	.scl	3;	.type	32;	.endef
_ParseHexDigit:
LFB4249:
	.loc 5 135 1
	.cfi_startproc
	pushl	%ebp
	.cfi_def_cfa_offset 8
	.cfi_offset 5, -8
	movl	%esp, %ebp
	.cfi_def_cfa_register 5
	subl	$4, %esp
	movl	8(%ebp), %eax
	movw	%ax, -4(%ebp)
	.loc 5 136 8
	cmpw	$47, -4(%ebp)
	jbe	L47
	.loc 5 136 19 discriminator 1
	cmpw	$57, -4(%ebp)
	ja	L47
	.loc 5 137 19
	movzwl	-4(%ebp), %eax
	subl	$48, %eax
	jmp	L48
L47:
	.loc 5 139 8
	cmpw	$96, -4(%ebp)
	jbe	L49
	.loc 5 139 19 discriminator 1
	cmpw	$102, -4(%ebp)
	ja	L49
	.loc 5 140 26
	movzwl	-4(%ebp), %eax
	subl	$87, %eax
	jmp	L48
L49:
	.loc 5 142 8
	cmpw	$64, -4(%ebp)
	jbe	L50
	.loc 5 142 19 discriminator 1
	cmpw	$70, -4(%ebp)
	ja	L50
	.loc 5 143 26
	movzwl	-4(%ebp), %eax
	subl	$55, %eax
	jmp	L48
L50:
	.loc 5 144 12
	movl	$-1, %eax
L48:
	.loc 5 145 1
	leave
	.cfi_restore 5
	.cfi_def_cfa 4, 4
	ret
	.cfi_endproc
LFE4249:
	.def	_ParseAsIntegerPartNumberSequence;	.scl	3;	.type	32;	.endef
_ParseAsIntegerPartNumberSequence:
LFB4250:
	.loc 5 148 1
	.cfi_startproc
	pushl	%ebp
	.cfi_def_cfa_offset 8
	.cfi_offset 5, -8
	movl	%esp, %ebp
	.cfi_def_cfa_register 5
	subl	$24, %esp
L57:
	.loc 5 151 37
	movl	8(%ebp), %eax
	movl	(%eax), %eax
	.loc 5 151 31
	movzwl	(%eax), %eax
	.loc 5 151 13
	movzwl	%ax, %eax
	movl	%eax, (%esp)
	call	_ParseDecimalDigit
	.loc 5 151 12
	testl	%eax, %eax
	js	L52
	.loc 5 153 42
	movl	8(%ebp), %eax
	movl	(%eax), %edx
	.loc 5 153 19
	movl	8(%ebp), %eax
	movl	80(%eax), %eax
	.loc 5 153 36
	movzwl	(%edx), %edx
	.loc 5 153 34
	movw	%dx, (%eax)
	.loc 5 154 33
	movl	8(%ebp), %eax
	movl	80(%eax), %eax
	leal	2(%eax), %edx
	movl	8(%ebp), %eax
	movl	%edx, 80(%eax)
	.loc 5 155 27
	movl	8(%ebp), %eax
	movl	(%eax), %eax
	leal	2(%eax), %edx
	movl	8(%ebp), %eax
	movl	%edx, (%eax)
	jmp	L57
L52:
	.loc 5 157 23
	movl	8(%ebp), %eax
	movl	4(%eax), %eax
	.loc 5 157 39
	andl	$512, %eax
	.loc 5 157 17
	testl	%eax, %eax
	je	L54
	.loc 5 157 73 discriminator 1
	movl	8(%ebp), %eax
	movl	(%eax), %eax
	.loc 5 157 67 discriminator 1
	movzwl	(%eax), %eax
	.loc 5 157 53 discriminator 1
	movzwl	%ax, %eax
	movl	%eax, (%esp)
	call	_ParseHexDigit
	.loc 5 157 50 discriminator 1
	testl	%eax, %eax
	js	L54
	.loc 5 159 42
	movl	8(%ebp), %eax
	movl	(%eax), %edx
	.loc 5 159 19
	movl	8(%ebp), %eax
	movl	80(%eax), %eax
	.loc 5 159 36
	movzwl	(%edx), %edx
	.loc 5 159 34
	movw	%dx, (%eax)
	.loc 5 160 33
	movl	8(%ebp), %eax
	movl	80(%eax), %eax
	leal	2(%eax), %edx
	movl	8(%ebp), %eax
	movl	%edx, 80(%eax)
	.loc 5 161 27
	movl	8(%ebp), %eax
	movl	(%eax), %eax
	leal	2(%eax), %edx
	movl	8(%ebp), %eax
	movl	%edx, (%eax)
	jmp	L53
L54:
	.loc 5 163 23
	movl	8(%ebp), %eax
	movl	4(%eax), %eax
	.loc 5 163 39
	andl	$64, %eax
	.loc 5 163 17
	testl	%eax, %eax
	je	L55
	.loc 5 163 84 discriminator 1
	movl	8(%ebp), %eax
	leal	56(%eax), %edx
	.loc 5 163 53 discriminator 1
	movl	8(%ebp), %eax
	movl	(%eax), %eax
	movl	%edx, 4(%esp)
	movl	%eax, (%esp)
	call	_StartsWith
	.loc 5 163 50 discriminator 1
	testl	%eax, %eax
	je	L55
	.loc 5 164 27
	movl	8(%ebp), %eax
	movl	(%eax), %edx
	.loc 5 164 35
	movl	8(%ebp), %eax
	movl	64(%eax), %eax
	.loc 5 164 27
	addl	%eax, %eax
	addl	%eax, %edx
	movl	8(%ebp), %eax
	movl	%edx, (%eax)
	jmp	L53
L55:
	.loc 5 165 23
	movl	8(%ebp), %eax
	movl	4(%eax), %eax
	.loc 5 165 39
	andl	$64, %eax
	.loc 5 165 17
	testl	%eax, %eax
	je	L58
	.loc 5 165 58 discriminator 1
	movl	8(%ebp), %eax
	movl	76(%eax), %eax
	.loc 5 165 50 discriminator 1
	testl	%eax, %eax
	jle	L58
	.loc 5 165 131 discriminator 2
	movl	8(%ebp), %eax
	leal	68(%eax), %edx
	.loc 5 165 100 discriminator 2
	movl	8(%ebp), %eax
	movl	(%eax), %eax
	movl	%edx, 4(%esp)
	movl	%eax, (%esp)
	call	_StartsWith
	.loc 5 165 97 discriminator 2
	testl	%eax, %eax
	je	L58
	.loc 5 166 27
	movl	8(%ebp), %eax
	movl	(%eax), %edx
	.loc 5 166 35
	movl	8(%ebp), %eax
	movl	76(%eax), %eax
	.loc 5 166 27
	addl	%eax, %eax
	addl	%eax, %edx
	movl	8(%ebp), %eax
	movl	%edx, (%eax)
L53:
	.loc 5 151 12
	jmp	L57
L58:
	.loc 5 170 1
	nop
	leave
	.cfi_restore 5
	.cfi_def_cfa 4, 4
	ret
	.cfi_endproc
LFE4250:
	.def	_ParseAsFractionPartNumberSequence;	.scl	3;	.type	32;	.endef
_ParseAsFractionPartNumberSequence:
LFB4251:
	.loc 5 173 1
	.cfi_startproc
	pushl	%ebp
	.cfi_def_cfa_offset 8
	.cfi_offset 5, -8
	movl	%esp, %ebp
	.cfi_def_cfa_register 5
	subl	$4, %esp
L63:
	.loc 5 176 37
	movl	8(%ebp), %eax
	movl	(%eax), %eax
	.loc 5 176 31
	movzwl	(%eax), %eax
	.loc 5 176 13
	movzwl	%ax, %eax
	movl	%eax, (%esp)
	call	_ParseDecimalDigit
	.loc 5 176 12
	testl	%eax, %eax
	js	L60
	.loc 5 178 43
	movl	8(%ebp), %eax
	movl	(%eax), %edx
	.loc 5 178 19
	movl	8(%ebp), %eax
	movl	84(%eax), %eax
	.loc 5 178 37
	movzwl	(%edx), %edx
	.loc 5 178 35
	movw	%dx, (%eax)
	.loc 5 179 34
	movl	8(%ebp), %eax
	movl	84(%eax), %eax
	leal	2(%eax), %edx
	movl	8(%ebp), %eax
	movl	%edx, 84(%eax)
	.loc 5 180 27
	movl	8(%ebp), %eax
	movl	(%eax), %eax
	leal	2(%eax), %edx
	movl	8(%ebp), %eax
	movl	%edx, (%eax)
	jmp	L63
L60:
	.loc 5 182 23
	movl	8(%ebp), %eax
	movl	4(%eax), %eax
	.loc 5 182 39
	andl	$512, %eax
	.loc 5 182 17
	testl	%eax, %eax
	je	L64
	.loc 5 182 74 discriminator 1
	movl	8(%ebp), %eax
	movl	(%eax), %eax
	.loc 5 182 68 discriminator 1
	movzwl	(%eax), %eax
	.loc 5 182 53 discriminator 1
	movzwl	%ax, %eax
	movl	%eax, (%esp)
	call	_ParseHexDigit
	.loc 5 182 50 discriminator 1
	testl	%eax, %eax
	js	L64
	.loc 5 184 43
	movl	8(%ebp), %eax
	movl	(%eax), %edx
	.loc 5 184 19
	movl	8(%ebp), %eax
	movl	84(%eax), %eax
	.loc 5 184 37
	movzwl	(%edx), %edx
	.loc 5 184 35
	movw	%dx, (%eax)
	.loc 5 185 34
	movl	8(%ebp), %eax
	movl	84(%eax), %eax
	leal	2(%eax), %edx
	movl	8(%ebp), %eax
	movl	%edx, 84(%eax)
	.loc 5 186 27
	movl	8(%ebp), %eax
	movl	(%eax), %eax
	leal	2(%eax), %edx
	movl	8(%ebp), %eax
	movl	%edx, (%eax)
	.loc 5 176 12
	jmp	L63
L64:
	.loc 5 191 1
	nop
	leave
	.cfi_restore 5
	.cfi_def_cfa 4, 4
	ret
	.cfi_endproc
LFE4251:
	.def	_ParseAsDecimalNumberString;	.scl	3;	.type	32;	.endef
_ParseAsDecimalNumberString:
LFB4252:
	.loc 5 195 1
	.cfi_startproc
	pushl	%ebp
	.cfi_def_cfa_offset 8
	.cfi_offset 5, -8
	movl	%esp, %ebp
	.cfi_def_cfa_register 5
	subl	$136, %esp
	.loc 5 222 5
	movl	28(%ebp), %eax
	movl	%eax, 20(%esp)
	movl	24(%ebp), %eax
	movl	%eax, 16(%esp)
	movl	16(%ebp), %eax
	movl	%eax, 12(%esp)
	movl	12(%ebp), %eax
	movl	%eax, 8(%esp)
	movl	8(%ebp), %eax
	movl	%eax, 4(%esp)
	leal	-96(%ebp), %eax
	movl	%eax, (%esp)
	call	_InitializeParserState
	.loc 5 223 23
	movl	12(%ebp), %eax
	andl	$1, %eax
	.loc 5 223 8
	testl	%eax, %eax
	je	L66
	.loc 5 224 9
	leal	-96(%ebp), %eax
	movl	%eax, (%esp)
	call	_SkipSpace
L66:
	.loc 5 225 24
	movl	12(%ebp), %eax
	andl	$256, %eax
	.loc 5 225 8
	testl	%eax, %eax
	je	L67
	.loc 5 225 39 discriminator 1
	movl	-96(%ebp), %eax
	leal	-96(%ebp), %edx
	addl	$10, %edx
	movl	%edx, 4(%esp)
	movl	%eax, (%esp)
	call	_StartsWith
	.loc 5 225 36 discriminator 1
	testl	%eax, %eax
	je	L67
	.loc 5 227 22
	movl	-96(%ebp), %eax
	.loc 5 227 30
	movl	-80(%ebp), %edx
	.loc 5 227 22
	addl	%edx, %edx
	addl	%edx, %eax
	movl	%eax, -96(%ebp)
	.loc 5 228 28
	movl	12(%ebp), %eax
	andl	$1, %eax
	.loc 5 228 12
	testl	%eax, %eax
	je	L68
	.loc 5 228 49 discriminator 1
	movl	-96(%ebp), %eax
	.loc 5 228 43 discriminator 1
	movzwl	(%eax), %eax
	.loc 5 228 40 discriminator 1
	cmpw	$32, %ax
	jne	L68
	.loc 5 229 26
	movl	-96(%ebp), %eax
	addl	$2, %eax
	movl	%eax, -96(%ebp)
L68:
	.loc 5 230 28
	movl	12(%ebp), %eax
	andl	$4, %eax
	.loc 5 230 12
	testl	%eax, %eax
	je	L69
	.loc 5 230 43 discriminator 1
	movl	-96(%ebp), %eax
	leal	-96(%ebp), %edx
	addl	$20, %edx
	movl	%edx, 4(%esp)
	movl	%eax, (%esp)
	call	_StartsWith
	.loc 5 230 40 discriminator 1
	testl	%eax, %eax
	je	L69
	.loc 5 232 24
	movb	$1, -88(%ebp)
	.loc 5 233 26
	movl	-96(%ebp), %eax
	.loc 5 233 34
	movl	-68(%ebp), %edx
	.loc 5 233 26
	addl	%edx, %edx
	addl	%edx, %eax
	movl	%eax, -96(%ebp)
	.loc 5 234 41
	movl	-96(%ebp), %eax
	.loc 5 234 35
	movzwl	(%eax), %eax
	.loc 5 234 17
	movzwl	%ax, %eax
	movl	%eax, (%esp)
	call	_ParseDecimalDigit
	.loc 5 234 16
	testl	%eax, %eax
	js	L70
	.loc 5 235 17
	leal	-96(%ebp), %eax
	movl	%eax, (%esp)
	call	_ParseAsIntegerPartNumberSequence
L70:
	.loc 5 236 32
	movl	12(%ebp), %eax
	andl	$32, %eax
	.loc 5 236 16
	testl	%eax, %eax
	je	L144
	.loc 5 236 47 discriminator 1
	movl	-96(%ebp), %eax
	leal	-96(%ebp), %edx
	addl	$44, %edx
	movl	%edx, 4(%esp)
	movl	%eax, (%esp)
	call	_StartsWith
	.loc 5 236 44 discriminator 1
	testl	%eax, %eax
	je	L144
	.loc 5 238 30
	movl	-96(%ebp), %eax
	.loc 5 238 38
	movl	-44(%ebp), %edx
	.loc 5 238 30
	addl	%edx, %edx
	addl	%edx, %eax
	movl	%eax, -96(%ebp)
	.loc 5 239 17
	leal	-96(%ebp), %eax
	movl	%eax, (%esp)
	call	_ParseAsFractionPartNumberSequence
	.loc 5 236 16
	jmp	L144
L69:
	.loc 5 242 33
	movl	12(%ebp), %eax
	andl	$4, %eax
	.loc 5 242 17
	testl	%eax, %eax
	je	L73
	.loc 5 242 48 discriminator 1
	movl	-96(%ebp), %eax
	leal	-96(%ebp), %edx
	addl	$32, %edx
	movl	%edx, 4(%esp)
	movl	%eax, (%esp)
	call	_StartsWith
	.loc 5 242 45 discriminator 1
	testl	%eax, %eax
	je	L73
	.loc 5 244 24
	movb	$-1, -88(%ebp)
	.loc 5 245 26
	movl	-96(%ebp), %eax
	.loc 5 245 34
	movl	-56(%ebp), %edx
	.loc 5 245 26
	addl	%edx, %edx
	addl	%edx, %eax
	movl	%eax, -96(%ebp)
	.loc 5 246 41
	movl	-96(%ebp), %eax
	.loc 5 246 35
	movzwl	(%eax), %eax
	.loc 5 246 17
	movzwl	%ax, %eax
	movl	%eax, (%esp)
	call	_ParseDecimalDigit
	.loc 5 246 16
	testl	%eax, %eax
	js	L74
	.loc 5 247 17
	leal	-96(%ebp), %eax
	movl	%eax, (%esp)
	call	_ParseAsIntegerPartNumberSequence
L74:
	.loc 5 248 32
	movl	12(%ebp), %eax
	andl	$32, %eax
	.loc 5 248 16
	testl	%eax, %eax
	je	L145
	.loc 5 248 47 discriminator 1
	movl	-96(%ebp), %eax
	leal	-96(%ebp), %edx
	addl	$44, %edx
	movl	%edx, 4(%esp)
	movl	%eax, (%esp)
	call	_StartsWith
	.loc 5 248 44 discriminator 1
	testl	%eax, %eax
	je	L145
	.loc 5 250 30
	movl	-96(%ebp), %eax
	.loc 5 250 38
	movl	-44(%ebp), %edx
	.loc 5 250 30
	addl	%edx, %edx
	addl	%edx, %eax
	movl	%eax, -96(%ebp)
	.loc 5 251 17
	leal	-96(%ebp), %eax
	movl	%eax, (%esp)
	call	_ParseAsFractionPartNumberSequence
	.loc 5 248 16
	jmp	L145
L73:
	.loc 5 256 41
	movl	-96(%ebp), %eax
	.loc 5 256 35
	movzwl	(%eax), %eax
	.loc 5 256 17
	movzwl	%ax, %eax
	movl	%eax, (%esp)
	call	_ParseDecimalDigit
	.loc 5 256 16
	testl	%eax, %eax
	js	L76
	.loc 5 257 17
	leal	-96(%ebp), %eax
	movl	%eax, (%esp)
	call	_ParseAsIntegerPartNumberSequence
L76:
	.loc 5 258 32
	movl	12(%ebp), %eax
	andl	$32, %eax
	.loc 5 258 16
	testl	%eax, %eax
	je	L77
	.loc 5 258 47 discriminator 1
	movl	-96(%ebp), %eax
	leal	-96(%ebp), %edx
	addl	$44, %edx
	movl	%edx, 4(%esp)
	movl	%eax, (%esp)
	call	_StartsWith
	.loc 5 258 44 discriminator 1
	testl	%eax, %eax
	je	L77
	.loc 5 260 30
	movl	-96(%ebp), %eax
	.loc 5 260 38
	movl	-44(%ebp), %edx
	.loc 5 260 30
	addl	%edx, %edx
	addl	%edx, %eax
	movl	%eax, -96(%ebp)
	.loc 5 261 17
	leal	-96(%ebp), %eax
	movl	%eax, (%esp)
	call	_ParseAsFractionPartNumberSequence
L77:
	.loc 5 263 32
	movl	12(%ebp), %eax
	andl	$8, %eax
	.loc 5 263 16
	testl	%eax, %eax
	je	L78
	.loc 5 263 47 discriminator 1
	movl	-96(%ebp), %eax
	leal	-96(%ebp), %edx
	addl	$20, %edx
	movl	%edx, 4(%esp)
	movl	%eax, (%esp)
	call	_StartsWith
	.loc 5 263 44 discriminator 1
	testl	%eax, %eax
	je	L78
	.loc 5 265 28
	movb	$1, -88(%ebp)
	.loc 5 266 30
	movl	-96(%ebp), %eax
	.loc 5 266 38
	movl	-68(%ebp), %edx
	.loc 5 266 30
	addl	%edx, %edx
	addl	%edx, %eax
	movl	%eax, -96(%ebp)
	jmp	L72
L78:
	.loc 5 268 37
	movl	12(%ebp), %eax
	andl	$8, %eax
	.loc 5 268 21
	testl	%eax, %eax
	je	L146
	.loc 5 268 52 discriminator 1
	movl	-96(%ebp), %eax
	leal	-96(%ebp), %edx
	addl	$32, %edx
	movl	%edx, 4(%esp)
	movl	%eax, (%esp)
	call	_StartsWith
	.loc 5 268 49 discriminator 1
	testl	%eax, %eax
	je	L146
	.loc 5 270 28
	movb	$-1, -88(%ebp)
	.loc 5 271 30
	movl	-96(%ebp), %eax
	.loc 5 271 38
	movl	-56(%ebp), %edx
	.loc 5 271 30
	addl	%edx, %edx
	addl	%edx, %eax
	movl	%eax, -96(%ebp)
	.loc 5 230 12
	jmp	L146
L144:
	.loc 5 236 16
	nop
	jmp	L146
L145:
	.loc 5 248 16
	nop
L72:
	.loc 5 230 12 discriminator 1
	jmp	L146
L67:
	.loc 5 278 29
	movl	12(%ebp), %eax
	andl	$16, %eax
	.loc 5 278 13
	testl	%eax, %eax
	je	L80
	.loc 5 278 50 discriminator 1
	movl	-96(%ebp), %eax
	.loc 5 278 44 discriminator 1
	movzwl	(%eax), %eax
	.loc 5 278 41 discriminator 1
	cmpw	$40, %ax
	jne	L80
	.loc 5 280 20
	movb	$-1, -88(%ebp)
	.loc 5 281 22
	movl	-96(%ebp), %eax
	addl	$2, %eax
	movl	%eax, -96(%ebp)
	.loc 5 283 28
	movl	12(%ebp), %eax
	andl	$256, %eax
	.loc 5 283 12
	testl	%eax, %eax
	je	L81
	.loc 5 283 43 discriminator 1
	movl	-96(%ebp), %eax
	leal	-96(%ebp), %edx
	addl	$10, %edx
	movl	%edx, 4(%esp)
	movl	%eax, (%esp)
	call	_StartsWith
	.loc 5 283 40 discriminator 1
	testl	%eax, %eax
	je	L81
	.loc 5 285 26
	movl	-96(%ebp), %eax
	.loc 5 285 34
	movl	-80(%ebp), %edx
	.loc 5 285 26
	addl	%edx, %edx
	addl	%edx, %eax
	movl	%eax, -96(%ebp)
	.loc 5 286 32
	movl	12(%ebp), %eax
	andl	$1, %eax
	.loc 5 286 16
	testl	%eax, %eax
	je	L82
	.loc 5 286 53 discriminator 1
	movl	-96(%ebp), %eax
	.loc 5 286 47 discriminator 1
	movzwl	(%eax), %eax
	.loc 5 286 44 discriminator 1
	cmpw	$32, %ax
	jne	L82
	.loc 5 287 30
	movl	-96(%ebp), %eax
	addl	$2, %eax
	movl	%eax, -96(%ebp)
L82:
	.loc 5 288 41
	movl	-96(%ebp), %eax
	.loc 5 288 35
	movzwl	(%eax), %eax
	.loc 5 288 17
	movzwl	%ax, %eax
	movl	%eax, (%esp)
	call	_ParseDecimalDigit
	.loc 5 288 16
	testl	%eax, %eax
	js	L83
	.loc 5 289 17
	leal	-96(%ebp), %eax
	movl	%eax, (%esp)
	call	_ParseAsIntegerPartNumberSequence
L83:
	.loc 5 290 32
	movl	12(%ebp), %eax
	andl	$32, %eax
	.loc 5 290 16
	testl	%eax, %eax
	je	L147
	.loc 5 290 47 discriminator 1
	movl	-96(%ebp), %eax
	leal	-96(%ebp), %edx
	addl	$44, %edx
	movl	%edx, 4(%esp)
	movl	%eax, (%esp)
	call	_StartsWith
	.loc 5 290 44 discriminator 1
	testl	%eax, %eax
	je	L147
	.loc 5 292 30
	movl	-96(%ebp), %eax
	.loc 5 292 38
	movl	-44(%ebp), %edx
	.loc 5 292 30
	addl	%edx, %edx
	addl	%edx, %eax
	movl	%eax, -96(%ebp)
	.loc 5 293 17
	leal	-96(%ebp), %eax
	movl	%eax, (%esp)
	call	_ParseAsFractionPartNumberSequence
	.loc 5 290 16
	jmp	L147
L81:
	.loc 5 298 41
	movl	-96(%ebp), %eax
	.loc 5 298 35
	movzwl	(%eax), %eax
	.loc 5 298 17
	movzwl	%ax, %eax
	movl	%eax, (%esp)
	call	_ParseDecimalDigit
	.loc 5 298 16
	testl	%eax, %eax
	js	L86
	.loc 5 299 17
	leal	-96(%ebp), %eax
	movl	%eax, (%esp)
	call	_ParseAsIntegerPartNumberSequence
L86:
	.loc 5 300 32
	movl	12(%ebp), %eax
	andl	$32, %eax
	.loc 5 300 16
	testl	%eax, %eax
	je	L87
	.loc 5 300 47 discriminator 1
	movl	-96(%ebp), %eax
	leal	-96(%ebp), %edx
	addl	$44, %edx
	movl	%edx, 4(%esp)
	movl	%eax, (%esp)
	call	_StartsWith
	.loc 5 300 44 discriminator 1
	testl	%eax, %eax
	je	L87
	.loc 5 302 30
	movl	-96(%ebp), %eax
	.loc 5 302 38
	movl	-44(%ebp), %edx
	.loc 5 302 30
	addl	%edx, %edx
	addl	%edx, %eax
	movl	%eax, -96(%ebp)
	.loc 5 303 17
	leal	-96(%ebp), %eax
	movl	%eax, (%esp)
	call	_ParseAsFractionPartNumberSequence
L87:
	.loc 5 305 32
	movl	12(%ebp), %eax
	andl	$2, %eax
	.loc 5 305 16
	testl	%eax, %eax
	je	L85
	.loc 5 305 53 discriminator 1
	movl	-96(%ebp), %eax
	.loc 5 305 47 discriminator 1
	movzwl	(%eax), %eax
	.loc 5 305 44 discriminator 1
	cmpw	$32, %ax
	jne	L85
	.loc 5 307 30
	movl	-96(%ebp), %eax
	addl	$2, %eax
	movl	%eax, -96(%ebp)
	.loc 5 308 36
	movl	12(%ebp), %eax
	andl	$256, %eax
	.loc 5 308 20
	testl	%eax, %eax
	je	L85
	.loc 5 308 51 discriminator 1
	movl	-96(%ebp), %eax
	leal	-96(%ebp), %edx
	addl	$10, %edx
	movl	%edx, 4(%esp)
	movl	%eax, (%esp)
	call	_StartsWith
	.loc 5 308 48 discriminator 1
	testl	%eax, %eax
	je	L85
	.loc 5 309 34
	movl	-96(%ebp), %eax
	.loc 5 309 42
	movl	-80(%ebp), %edx
	.loc 5 309 34
	addl	%edx, %edx
	addl	%edx, %eax
	movl	%eax, -96(%ebp)
	jmp	L85
L147:
	.loc 5 290 16
	nop
L85:
	.loc 5 312 19
	movl	-96(%ebp), %eax
	.loc 5 312 13
	movzwl	(%eax), %eax
	.loc 5 312 12
	cmpw	$41, %ax
	je	L88
	.loc 5 313 20
	movl	$0, %eax
	jmp	L143
L88:
	.loc 5 314 22
	movl	-96(%ebp), %eax
	addl	$2, %eax
	movl	%eax, -96(%ebp)
	jmp	L79
L80:
	.loc 5 316 29
	movl	12(%ebp), %eax
	andl	$4, %eax
	.loc 5 316 13
	testl	%eax, %eax
	je	L90
	.loc 5 316 44 discriminator 1
	movl	-96(%ebp), %eax
	leal	-96(%ebp), %edx
	addl	$20, %edx
	movl	%edx, 4(%esp)
	movl	%eax, (%esp)
	call	_StartsWith
	.loc 5 316 41 discriminator 1
	testl	%eax, %eax
	je	L90
	.loc 5 318 20
	movb	$1, -88(%ebp)
	.loc 5 319 22
	movl	-96(%ebp), %eax
	.loc 5 319 30
	movl	-68(%ebp), %edx
	.loc 5 319 22
	addl	%edx, %edx
	addl	%edx, %eax
	movl	%eax, -96(%ebp)
	.loc 5 320 28
	movl	12(%ebp), %eax
	andl	$256, %eax
	.loc 5 320 12
	testl	%eax, %eax
	je	L91
	.loc 5 320 43 discriminator 1
	movl	-96(%ebp), %eax
	leal	-96(%ebp), %edx
	addl	$10, %edx
	movl	%edx, 4(%esp)
	movl	%eax, (%esp)
	call	_StartsWith
	.loc 5 320 40 discriminator 1
	testl	%eax, %eax
	je	L91
	.loc 5 322 26
	movl	-96(%ebp), %eax
	.loc 5 322 34
	movl	-80(%ebp), %edx
	.loc 5 322 26
	addl	%edx, %edx
	addl	%edx, %eax
	movl	%eax, -96(%ebp)
	.loc 5 323 32
	movl	12(%ebp), %eax
	andl	$1, %eax
	.loc 5 323 16
	testl	%eax, %eax
	je	L92
	.loc 5 323 53 discriminator 1
	movl	-96(%ebp), %eax
	.loc 5 323 47 discriminator 1
	movzwl	(%eax), %eax
	.loc 5 323 44 discriminator 1
	cmpw	$32, %ax
	jne	L92
	.loc 5 324 30
	movl	-96(%ebp), %eax
	addl	$2, %eax
	movl	%eax, -96(%ebp)
L92:
	.loc 5 325 41
	movl	-96(%ebp), %eax
	.loc 5 325 35
	movzwl	(%eax), %eax
	.loc 5 325 17
	movzwl	%ax, %eax
	movl	%eax, (%esp)
	call	_ParseDecimalDigit
	.loc 5 325 16
	testl	%eax, %eax
	js	L93
	.loc 5 326 17
	leal	-96(%ebp), %eax
	movl	%eax, (%esp)
	call	_ParseAsIntegerPartNumberSequence
L93:
	.loc 5 327 32
	movl	12(%ebp), %eax
	andl	$32, %eax
	.loc 5 327 16
	testl	%eax, %eax
	je	L148
	.loc 5 327 47 discriminator 1
	movl	-96(%ebp), %eax
	leal	-96(%ebp), %edx
	addl	$44, %edx
	movl	%edx, 4(%esp)
	movl	%eax, (%esp)
	call	_StartsWith
	.loc 5 327 44 discriminator 1
	testl	%eax, %eax
	je	L148
	.loc 5 329 30
	movl	-96(%ebp), %eax
	.loc 5 329 38
	movl	-44(%ebp), %edx
	.loc 5 329 30
	addl	%edx, %edx
	addl	%edx, %eax
	movl	%eax, -96(%ebp)
	.loc 5 330 17
	leal	-96(%ebp), %eax
	movl	%eax, (%esp)
	call	_ParseAsFractionPartNumberSequence
	.loc 5 327 16
	jmp	L148
L91:
	.loc 5 335 41
	movl	-96(%ebp), %eax
	.loc 5 335 35
	movzwl	(%eax), %eax
	.loc 5 335 17
	movzwl	%ax, %eax
	movl	%eax, (%esp)
	call	_ParseDecimalDigit
	.loc 5 335 16
	testl	%eax, %eax
	js	L96
	.loc 5 336 17
	leal	-96(%ebp), %eax
	movl	%eax, (%esp)
	call	_ParseAsIntegerPartNumberSequence
L96:
	.loc 5 337 32
	movl	12(%ebp), %eax
	andl	$32, %eax
	.loc 5 337 16
	testl	%eax, %eax
	je	L97
	.loc 5 337 47 discriminator 1
	movl	-96(%ebp), %eax
	leal	-96(%ebp), %edx
	addl	$44, %edx
	movl	%edx, 4(%esp)
	movl	%eax, (%esp)
	call	_StartsWith
	.loc 5 337 44 discriminator 1
	testl	%eax, %eax
	je	L97
	.loc 5 339 30
	movl	-96(%ebp), %eax
	.loc 5 339 38
	movl	-44(%ebp), %edx
	.loc 5 339 30
	addl	%edx, %edx
	addl	%edx, %eax
	movl	%eax, -96(%ebp)
	.loc 5 340 17
	leal	-96(%ebp), %eax
	movl	%eax, (%esp)
	call	_ParseAsFractionPartNumberSequence
L97:
	.loc 5 342 32
	movl	12(%ebp), %eax
	andl	$2, %eax
	.loc 5 342 16
	testl	%eax, %eax
	je	L98
	.loc 5 342 53 discriminator 1
	movl	-96(%ebp), %eax
	.loc 5 342 47 discriminator 1
	movzwl	(%eax), %eax
	.loc 5 342 44 discriminator 1
	cmpw	$32, %ax
	jne	L98
	.loc 5 344 30
	movl	-96(%ebp), %eax
	addl	$2, %eax
	movl	%eax, -96(%ebp)
	.loc 5 345 36
	movl	12(%ebp), %eax
	andl	$256, %eax
	.loc 5 345 20
	testl	%eax, %eax
	je	L149
	.loc 5 345 51 discriminator 1
	movl	-96(%ebp), %eax
	leal	-96(%ebp), %edx
	addl	$10, %edx
	movl	%edx, 4(%esp)
	movl	%eax, (%esp)
	call	_StartsWith
	.loc 5 345 48 discriminator 1
	testl	%eax, %eax
	je	L149
	.loc 5 346 34
	movl	-96(%ebp), %eax
	.loc 5 346 42
	movl	-80(%ebp), %edx
	.loc 5 346 34
	addl	%edx, %edx
	addl	%edx, %eax
	movl	%eax, -96(%ebp)
	.loc 5 345 20
	jmp	L149
L98:
	.loc 5 348 37
	movl	12(%ebp), %eax
	andl	$256, %eax
	.loc 5 348 21
	testl	%eax, %eax
	je	L150
	.loc 5 348 52 discriminator 1
	movl	-96(%ebp), %eax
	leal	-96(%ebp), %edx
	addl	$10, %edx
	movl	%edx, 4(%esp)
	movl	%eax, (%esp)
	call	_StartsWith
	.loc 5 348 49 discriminator 1
	testl	%eax, %eax
	je	L150
	.loc 5 349 30
	movl	-96(%ebp), %eax
	.loc 5 349 38
	movl	-80(%ebp), %edx
	.loc 5 349 30
	addl	%edx, %edx
	addl	%edx, %eax
	movl	%eax, -96(%ebp)
	.loc 5 320 12
	jmp	L150
L148:
	.loc 5 327 16
	nop
	jmp	L150
L149:
	.loc 5 345 20
	nop
	.loc 5 320 12
	jmp	L150
L90:
	.loc 5 355 29
	movl	12(%ebp), %eax
	andl	$4, %eax
	.loc 5 355 13
	testl	%eax, %eax
	je	L100
	.loc 5 355 44 discriminator 1
	movl	-96(%ebp), %eax
	leal	-96(%ebp), %edx
	addl	$32, %edx
	movl	%edx, 4(%esp)
	movl	%eax, (%esp)
	call	_StartsWith
	.loc 5 355 41 discriminator 1
	testl	%eax, %eax
	je	L100
	.loc 5 357 20
	movb	$-1, -88(%ebp)
	.loc 5 358 22
	movl	-96(%ebp), %eax
	.loc 5 358 30
	movl	-68(%ebp), %edx
	.loc 5 358 22
	addl	%edx, %edx
	addl	%edx, %eax
	movl	%eax, -96(%ebp)
	.loc 5 359 28
	movl	12(%ebp), %eax
	andl	$256, %eax
	.loc 5 359 12
	testl	%eax, %eax
	je	L101
	.loc 5 359 43 discriminator 1
	movl	-96(%ebp), %eax
	leal	-96(%ebp), %edx
	addl	$10, %edx
	movl	%edx, 4(%esp)
	movl	%eax, (%esp)
	call	_StartsWith
	.loc 5 359 40 discriminator 1
	testl	%eax, %eax
	je	L101
	.loc 5 361 26
	movl	-96(%ebp), %eax
	.loc 5 361 34
	movl	-80(%ebp), %edx
	.loc 5 361 26
	addl	%edx, %edx
	addl	%edx, %eax
	movl	%eax, -96(%ebp)
	.loc 5 362 32
	movl	12(%ebp), %eax
	andl	$1, %eax
	.loc 5 362 16
	testl	%eax, %eax
	je	L102
	.loc 5 362 53 discriminator 1
	movl	-96(%ebp), %eax
	.loc 5 362 47 discriminator 1
	movzwl	(%eax), %eax
	.loc 5 362 44 discriminator 1
	cmpw	$32, %ax
	jne	L102
	.loc 5 363 30
	movl	-96(%ebp), %eax
	addl	$2, %eax
	movl	%eax, -96(%ebp)
L102:
	.loc 5 364 41
	movl	-96(%ebp), %eax
	.loc 5 364 35
	movzwl	(%eax), %eax
	.loc 5 364 17
	movzwl	%ax, %eax
	movl	%eax, (%esp)
	call	_ParseDecimalDigit
	.loc 5 364 16
	testl	%eax, %eax
	js	L103
	.loc 5 365 17
	leal	-96(%ebp), %eax
	movl	%eax, (%esp)
	call	_ParseAsIntegerPartNumberSequence
L103:
	.loc 5 366 32
	movl	12(%ebp), %eax
	andl	$32, %eax
	.loc 5 366 16
	testl	%eax, %eax
	je	L151
	.loc 5 366 47 discriminator 1
	movl	-96(%ebp), %eax
	leal	-96(%ebp), %edx
	addl	$44, %edx
	movl	%edx, 4(%esp)
	movl	%eax, (%esp)
	call	_StartsWith
	.loc 5 366 44 discriminator 1
	testl	%eax, %eax
	je	L151
	.loc 5 368 30
	movl	-96(%ebp), %eax
	.loc 5 368 38
	movl	-44(%ebp), %edx
	.loc 5 368 30
	addl	%edx, %edx
	addl	%edx, %eax
	movl	%eax, -96(%ebp)
	.loc 5 369 17
	leal	-96(%ebp), %eax
	movl	%eax, (%esp)
	call	_ParseAsFractionPartNumberSequence
	.loc 5 366 16
	jmp	L151
L101:
	.loc 5 374 41
	movl	-96(%ebp), %eax
	.loc 5 374 35
	movzwl	(%eax), %eax
	.loc 5 374 17
	movzwl	%ax, %eax
	movl	%eax, (%esp)
	call	_ParseDecimalDigit
	.loc 5 374 16
	testl	%eax, %eax
	js	L106
	.loc 5 375 17
	leal	-96(%ebp), %eax
	movl	%eax, (%esp)
	call	_ParseAsIntegerPartNumberSequence
L106:
	.loc 5 376 32
	movl	12(%ebp), %eax
	andl	$32, %eax
	.loc 5 376 16
	testl	%eax, %eax
	je	L107
	.loc 5 376 47 discriminator 1
	movl	-96(%ebp), %eax
	leal	-96(%ebp), %edx
	addl	$44, %edx
	movl	%edx, 4(%esp)
	movl	%eax, (%esp)
	call	_StartsWith
	.loc 5 376 44 discriminator 1
	testl	%eax, %eax
	je	L107
	.loc 5 378 30
	movl	-96(%ebp), %eax
	.loc 5 378 38
	movl	-44(%ebp), %edx
	.loc 5 378 30
	addl	%edx, %edx
	addl	%edx, %eax
	movl	%eax, -96(%ebp)
	.loc 5 379 17
	leal	-96(%ebp), %eax
	movl	%eax, (%esp)
	call	_ParseAsFractionPartNumberSequence
L107:
	.loc 5 381 32
	movl	12(%ebp), %eax
	andl	$2, %eax
	.loc 5 381 16
	testl	%eax, %eax
	je	L108
	.loc 5 381 53 discriminator 1
	movl	-96(%ebp), %eax
	.loc 5 381 47 discriminator 1
	movzwl	(%eax), %eax
	.loc 5 381 44 discriminator 1
	cmpw	$32, %ax
	jne	L108
	.loc 5 383 30
	movl	-96(%ebp), %eax
	addl	$2, %eax
	movl	%eax, -96(%ebp)
	.loc 5 384 36
	movl	12(%ebp), %eax
	andl	$256, %eax
	.loc 5 384 20
	testl	%eax, %eax
	je	L152
	.loc 5 384 51 discriminator 1
	movl	-96(%ebp), %eax
	leal	-96(%ebp), %edx
	addl	$10, %edx
	movl	%edx, 4(%esp)
	movl	%eax, (%esp)
	call	_StartsWith
	.loc 5 384 48 discriminator 1
	testl	%eax, %eax
	je	L152
	.loc 5 385 34
	movl	-96(%ebp), %eax
	.loc 5 385 42
	movl	-80(%ebp), %edx
	.loc 5 385 34
	addl	%edx, %edx
	addl	%edx, %eax
	movl	%eax, -96(%ebp)
	.loc 5 384 20
	jmp	L152
L108:
	.loc 5 387 37
	movl	12(%ebp), %eax
	andl	$256, %eax
	.loc 5 387 21
	testl	%eax, %eax
	je	L153
	.loc 5 387 52 discriminator 1
	movl	-96(%ebp), %eax
	leal	-96(%ebp), %edx
	addl	$10, %edx
	movl	%edx, 4(%esp)
	movl	%eax, (%esp)
	call	_StartsWith
	.loc 5 387 49 discriminator 1
	testl	%eax, %eax
	je	L153
	.loc 5 388 30
	movl	-96(%ebp), %eax
	.loc 5 388 38
	movl	-80(%ebp), %edx
	.loc 5 388 30
	addl	%edx, %edx
	addl	%edx, %eax
	movl	%eax, -96(%ebp)
	.loc 5 359 12
	jmp	L153
L151:
	.loc 5 366 16
	nop
	jmp	L153
L152:
	.loc 5 384 20
	nop
	.loc 5 359 12
	jmp	L153
L100:
	.loc 5 394 38
	movl	-96(%ebp), %eax
	.loc 5 394 32
	movzwl	(%eax), %eax
	.loc 5 394 14
	movzwl	%ax, %eax
	movl	%eax, (%esp)
	call	_ParseDecimalDigit
	.loc 5 394 13
	testl	%eax, %eax
	js	L110
	.loc 5 396 9
	leal	-96(%ebp), %eax
	movl	%eax, (%esp)
	call	_ParseAsIntegerPartNumberSequence
	.loc 5 397 28
	movl	12(%ebp), %eax
	andl	$32, %eax
	.loc 5 397 12
	testl	%eax, %eax
	je	L111
	.loc 5 397 43 discriminator 1
	movl	-96(%ebp), %eax
	leal	-96(%ebp), %edx
	addl	$44, %edx
	movl	%edx, 4(%esp)
	movl	%eax, (%esp)
	call	_StartsWith
	.loc 5 397 40 discriminator 1
	testl	%eax, %eax
	je	L111
	.loc 5 399 26
	movl	-96(%ebp), %eax
	.loc 5 399 34
	movl	-44(%ebp), %edx
	.loc 5 399 26
	addl	%edx, %edx
	addl	%edx, %eax
	movl	%eax, -96(%ebp)
	.loc 5 400 13
	leal	-96(%ebp), %eax
	movl	%eax, (%esp)
	call	_ParseAsFractionPartNumberSequence
L111:
	.loc 5 402 28
	movl	12(%ebp), %eax
	andl	$2, %eax
	.loc 5 402 12
	testl	%eax, %eax
	je	L112
	.loc 5 402 49 discriminator 1
	movl	-96(%ebp), %eax
	.loc 5 402 43 discriminator 1
	movzwl	(%eax), %eax
	.loc 5 402 40 discriminator 1
	cmpw	$32, %ax
	jne	L112
	.loc 5 404 26
	movl	-96(%ebp), %eax
	addl	$2, %eax
	movl	%eax, -96(%ebp)
	.loc 5 405 32
	movl	12(%ebp), %eax
	andl	$256, %eax
	.loc 5 405 16
	testl	%eax, %eax
	je	L113
	.loc 5 405 47 discriminator 1
	movl	-96(%ebp), %eax
	leal	-96(%ebp), %edx
	addl	$10, %edx
	movl	%edx, 4(%esp)
	movl	%eax, (%esp)
	call	_StartsWith
	.loc 5 405 44 discriminator 1
	testl	%eax, %eax
	je	L113
	.loc 5 407 30
	movl	-96(%ebp), %eax
	.loc 5 407 38
	movl	-80(%ebp), %edx
	.loc 5 407 30
	addl	%edx, %edx
	addl	%edx, %eax
	movl	%eax, -96(%ebp)
	.loc 5 408 36
	movl	12(%ebp), %eax
	andl	$8, %eax
	.loc 5 408 20
	testl	%eax, %eax
	je	L114
	.loc 5 408 51 discriminator 1
	movl	-96(%ebp), %eax
	leal	-96(%ebp), %edx
	addl	$20, %edx
	movl	%edx, 4(%esp)
	movl	%eax, (%esp)
	call	_StartsWith
	.loc 5 408 48 discriminator 1
	testl	%eax, %eax
	je	L114
	.loc 5 410 32
	movb	$1, -88(%ebp)
	.loc 5 411 34
	movl	-96(%ebp), %eax
	.loc 5 411 42
	movl	-68(%ebp), %edx
	.loc 5 411 34
	addl	%edx, %edx
	addl	%edx, %eax
	movl	%eax, -96(%ebp)
	.loc 5 408 20
	jmp	L154
L114:
	.loc 5 413 41
	movl	12(%ebp), %eax
	andl	$8, %eax
	.loc 5 413 25
	testl	%eax, %eax
	je	L154
	.loc 5 413 56 discriminator 1
	movl	-96(%ebp), %eax
	leal	-96(%ebp), %edx
	addl	$32, %edx
	movl	%edx, 4(%esp)
	movl	%eax, (%esp)
	call	_StartsWith
	.loc 5 413 53 discriminator 1
	testl	%eax, %eax
	je	L154
	.loc 5 415 32
	movb	$-1, -88(%ebp)
	.loc 5 416 34
	movl	-96(%ebp), %eax
	.loc 5 416 42
	movl	-56(%ebp), %edx
	.loc 5 416 34
	addl	%edx, %edx
	addl	%edx, %eax
	movl	%eax, -96(%ebp)
	.loc 5 408 20
	jmp	L154
L113:
	.loc 5 424 36
	movl	12(%ebp), %eax
	andl	$8, %eax
	.loc 5 424 20
	testl	%eax, %eax
	je	L117
	.loc 5 424 51 discriminator 1
	movl	-96(%ebp), %eax
	leal	-96(%ebp), %edx
	addl	$20, %edx
	movl	%edx, 4(%esp)
	movl	%eax, (%esp)
	call	_StartsWith
	.loc 5 424 48 discriminator 1
	testl	%eax, %eax
	je	L117
	.loc 5 426 32
	movb	$1, -88(%ebp)
	.loc 5 427 34
	movl	-96(%ebp), %eax
	.loc 5 427 42
	movl	-68(%ebp), %edx
	.loc 5 427 34
	addl	%edx, %edx
	addl	%edx, %eax
	movl	%eax, -96(%ebp)
	jmp	L116
L117:
	.loc 5 429 41
	movl	12(%ebp), %eax
	andl	$8, %eax
	.loc 5 429 25
	testl	%eax, %eax
	je	L155
	.loc 5 429 56 discriminator 1
	movl	-96(%ebp), %eax
	leal	-96(%ebp), %edx
	addl	$32, %edx
	movl	%edx, 4(%esp)
	movl	%eax, (%esp)
	call	_StartsWith
	.loc 5 429 53 discriminator 1
	testl	%eax, %eax
	je	L155
	.loc 5 431 32
	movb	$-1, -88(%ebp)
	.loc 5 432 34
	movl	-96(%ebp), %eax
	.loc 5 432 42
	movl	-56(%ebp), %edx
	.loc 5 432 34
	addl	%edx, %edx
	addl	%edx, %eax
	movl	%eax, -96(%ebp)
	.loc 5 405 16
	jmp	L155
L154:
	.loc 5 408 20
	nop
L116:
	.loc 5 405 16 discriminator 7
	jmp	L155
L112:
	.loc 5 439 33
	movl	12(%ebp), %eax
	andl	$256, %eax
	.loc 5 439 17
	testl	%eax, %eax
	je	L119
	.loc 5 439 48 discriminator 1
	movl	-96(%ebp), %eax
	leal	-96(%ebp), %edx
	addl	$10, %edx
	movl	%edx, 4(%esp)
	movl	%eax, (%esp)
	call	_StartsWith
	.loc 5 439 45 discriminator 1
	testl	%eax, %eax
	je	L119
	.loc 5 441 26
	movl	-96(%ebp), %eax
	.loc 5 441 34
	movl	-80(%ebp), %edx
	.loc 5 441 26
	addl	%edx, %edx
	addl	%edx, %eax
	movl	%eax, -96(%ebp)
	.loc 5 442 32
	movl	12(%ebp), %eax
	andl	$8, %eax
	.loc 5 442 16
	testl	%eax, %eax
	je	L120
	.loc 5 442 47 discriminator 1
	movl	-96(%ebp), %eax
	leal	-96(%ebp), %edx
	addl	$20, %edx
	movl	%edx, 4(%esp)
	movl	%eax, (%esp)
	call	_StartsWith
	.loc 5 442 44 discriminator 1
	testl	%eax, %eax
	je	L120
	.loc 5 444 28
	movb	$1, -88(%ebp)
	.loc 5 445 30
	movl	-96(%ebp), %eax
	.loc 5 445 38
	movl	-68(%ebp), %edx
	.loc 5 445 30
	addl	%edx, %edx
	addl	%edx, %eax
	movl	%eax, -96(%ebp)
	.loc 5 442 16
	jmp	L156
L120:
	.loc 5 447 37
	movl	12(%ebp), %eax
	andl	$8, %eax
	.loc 5 447 21
	testl	%eax, %eax
	je	L156
	.loc 5 447 52 discriminator 1
	movl	-96(%ebp), %eax
	leal	-96(%ebp), %edx
	addl	$32, %edx
	movl	%edx, 4(%esp)
	movl	%eax, (%esp)
	call	_StartsWith
	.loc 5 447 49 discriminator 1
	testl	%eax, %eax
	je	L156
	.loc 5 449 28
	movb	$-1, -88(%ebp)
	.loc 5 450 30
	movl	-96(%ebp), %eax
	.loc 5 450 38
	movl	-56(%ebp), %edx
	.loc 5 450 30
	addl	%edx, %edx
	addl	%edx, %eax
	movl	%eax, -96(%ebp)
	.loc 5 442 16
	jmp	L156
L119:
	.loc 5 456 33
	movl	12(%ebp), %eax
	andl	$8, %eax
	.loc 5 456 17
	testl	%eax, %eax
	je	L122
	.loc 5 456 48 discriminator 1
	movl	-96(%ebp), %eax
	leal	-96(%ebp), %edx
	addl	$20, %edx
	movl	%edx, 4(%esp)
	movl	%eax, (%esp)
	call	_StartsWith
	.loc 5 456 45 discriminator 1
	testl	%eax, %eax
	je	L122
	.loc 5 458 24
	movb	$1, -88(%ebp)
	.loc 5 459 26
	movl	-96(%ebp), %eax
	.loc 5 459 34
	movl	-68(%ebp), %edx
	.loc 5 459 26
	addl	%edx, %edx
	addl	%edx, %eax
	movl	%eax, -96(%ebp)
	.loc 5 460 32
	movl	12(%ebp), %eax
	andl	$256, %eax
	.loc 5 460 16
	testl	%eax, %eax
	je	L157
	.loc 5 460 47 discriminator 1
	movl	-96(%ebp), %eax
	leal	-96(%ebp), %edx
	addl	$10, %edx
	movl	%edx, 4(%esp)
	movl	%eax, (%esp)
	call	_StartsWith
	.loc 5 460 44 discriminator 1
	testl	%eax, %eax
	je	L157
	.loc 5 461 30
	movl	-96(%ebp), %eax
	.loc 5 461 38
	movl	-80(%ebp), %edx
	.loc 5 461 30
	addl	%edx, %edx
	addl	%edx, %eax
	movl	%eax, -96(%ebp)
	.loc 5 460 16
	jmp	L157
L122:
	.loc 5 463 33
	movl	12(%ebp), %eax
	andl	$8, %eax
	.loc 5 463 17
	testl	%eax, %eax
	je	L79
	.loc 5 463 48 discriminator 1
	movl	-96(%ebp), %eax
	leal	-96(%ebp), %edx
	addl	$32, %edx
	movl	%edx, 4(%esp)
	movl	%eax, (%esp)
	call	_StartsWith
	.loc 5 463 45 discriminator 1
	testl	%eax, %eax
	je	L79
	.loc 5 465 24
	movb	$-1, -88(%ebp)
	.loc 5 466 26
	movl	-96(%ebp), %eax
	.loc 5 466 34
	movl	-56(%ebp), %edx
	.loc 5 466 26
	addl	%edx, %edx
	addl	%edx, %eax
	movl	%eax, -96(%ebp)
	.loc 5 467 32
	movl	12(%ebp), %eax
	andl	$256, %eax
	.loc 5 467 16
	testl	%eax, %eax
	je	L79
	.loc 5 467 47 discriminator 1
	movl	-96(%ebp), %eax
	leal	-96(%ebp), %edx
	addl	$10, %edx
	movl	%edx, 4(%esp)
	movl	%eax, (%esp)
	call	_StartsWith
	.loc 5 467 44 discriminator 1
	testl	%eax, %eax
	je	L79
	.loc 5 468 30
	movl	-96(%ebp), %eax
	.loc 5 468 38
	movl	-80(%ebp), %edx
	.loc 5 468 30
	addl	%edx, %edx
	addl	%edx, %eax
	movl	%eax, -96(%ebp)
	jmp	L79
L110:
	.loc 5 474 29
	movl	12(%ebp), %eax
	andl	$32, %eax
	.loc 5 474 13
	testl	%eax, %eax
	je	L125
	.loc 5 474 44 discriminator 1
	movl	-96(%ebp), %eax
	leal	-96(%ebp), %edx
	addl	$44, %edx
	movl	%edx, 4(%esp)
	movl	%eax, (%esp)
	call	_StartsWith
	.loc 5 474 41 discriminator 1
	testl	%eax, %eax
	je	L125
	.loc 5 476 22
	movl	-96(%ebp), %eax
	.loc 5 476 30
	movl	-44(%ebp), %edx
	.loc 5 476 22
	addl	%edx, %edx
	addl	%edx, %eax
	movl	%eax, -96(%ebp)
	.loc 5 477 9
	leal	-96(%ebp), %eax
	movl	%eax, (%esp)
	call	_ParseAsFractionPartNumberSequence
	.loc 5 478 28
	movl	12(%ebp), %eax
	andl	$2, %eax
	.loc 5 478 12
	testl	%eax, %eax
	je	L126
	.loc 5 478 49 discriminator 1
	movl	-96(%ebp), %eax
	.loc 5 478 43 discriminator 1
	movzwl	(%eax), %eax
	.loc 5 478 40 discriminator 1
	cmpw	$32, %ax
	jne	L126
	.loc 5 480 26
	movl	-96(%ebp), %eax
	addl	$2, %eax
	movl	%eax, -96(%ebp)
	.loc 5 481 32
	movl	12(%ebp), %eax
	andl	$256, %eax
	.loc 5 481 16
	testl	%eax, %eax
	je	L127
	.loc 5 481 47 discriminator 1
	movl	-96(%ebp), %eax
	leal	-96(%ebp), %edx
	addl	$10, %edx
	movl	%edx, 4(%esp)
	movl	%eax, (%esp)
	call	_StartsWith
	.loc 5 481 44 discriminator 1
	testl	%eax, %eax
	je	L127
	.loc 5 483 30
	movl	-96(%ebp), %eax
	.loc 5 483 38
	movl	-80(%ebp), %edx
	.loc 5 483 30
	addl	%edx, %edx
	addl	%edx, %eax
	movl	%eax, -96(%ebp)
	.loc 5 484 36
	movl	12(%ebp), %eax
	andl	$8, %eax
	.loc 5 484 20
	testl	%eax, %eax
	je	L128
	.loc 5 484 51 discriminator 1
	movl	-96(%ebp), %eax
	leal	-96(%ebp), %edx
	addl	$20, %edx
	movl	%edx, 4(%esp)
	movl	%eax, (%esp)
	call	_StartsWith
	.loc 5 484 48 discriminator 1
	testl	%eax, %eax
	je	L128
	.loc 5 486 32
	movb	$1, -88(%ebp)
	.loc 5 487 34
	movl	-96(%ebp), %eax
	.loc 5 487 42
	movl	-68(%ebp), %edx
	.loc 5 487 34
	addl	%edx, %edx
	addl	%edx, %eax
	movl	%eax, -96(%ebp)
	.loc 5 484 20
	jmp	L158
L128:
	.loc 5 489 41
	movl	12(%ebp), %eax
	andl	$8, %eax
	.loc 5 489 25
	testl	%eax, %eax
	je	L158
	.loc 5 489 56 discriminator 1
	movl	-96(%ebp), %eax
	leal	-96(%ebp), %edx
	addl	$32, %edx
	movl	%edx, 4(%esp)
	movl	%eax, (%esp)
	call	_StartsWith
	.loc 5 489 53 discriminator 1
	testl	%eax, %eax
	je	L158
	.loc 5 491 32
	movb	$-1, -88(%ebp)
	.loc 5 492 34
	movl	-96(%ebp), %eax
	.loc 5 492 42
	movl	-56(%ebp), %edx
	.loc 5 492 34
	addl	%edx, %edx
	addl	%edx, %eax
	movl	%eax, -96(%ebp)
	.loc 5 484 20
	jmp	L158
L127:
	.loc 5 500 36
	movl	12(%ebp), %eax
	andl	$8, %eax
	.loc 5 500 20
	testl	%eax, %eax
	je	L131
	.loc 5 500 51 discriminator 1
	movl	-96(%ebp), %eax
	leal	-96(%ebp), %edx
	addl	$20, %edx
	movl	%edx, 4(%esp)
	movl	%eax, (%esp)
	call	_StartsWith
	.loc 5 500 48 discriminator 1
	testl	%eax, %eax
	je	L131
	.loc 5 502 32
	movb	$1, -88(%ebp)
	.loc 5 503 34
	movl	-96(%ebp), %eax
	.loc 5 503 42
	movl	-68(%ebp), %edx
	.loc 5 503 34
	addl	%edx, %edx
	addl	%edx, %eax
	movl	%eax, -96(%ebp)
	jmp	L130
L131:
	.loc 5 505 41
	movl	12(%ebp), %eax
	andl	$8, %eax
	.loc 5 505 25
	testl	%eax, %eax
	je	L159
	.loc 5 505 56 discriminator 1
	movl	-96(%ebp), %eax
	leal	-96(%ebp), %edx
	addl	$32, %edx
	movl	%edx, 4(%esp)
	movl	%eax, (%esp)
	call	_StartsWith
	.loc 5 505 53 discriminator 1
	testl	%eax, %eax
	je	L159
	.loc 5 507 32
	movb	$-1, -88(%ebp)
	.loc 5 508 34
	movl	-96(%ebp), %eax
	.loc 5 508 42
	movl	-56(%ebp), %edx
	.loc 5 508 34
	addl	%edx, %edx
	addl	%edx, %eax
	movl	%eax, -96(%ebp)
	.loc 5 481 16
	jmp	L159
L158:
	.loc 5 484 20
	nop
L130:
	.loc 5 481 16 discriminator 12
	jmp	L159
L126:
	.loc 5 515 33
	movl	12(%ebp), %eax
	andl	$256, %eax
	.loc 5 515 17
	testl	%eax, %eax
	je	L133
	.loc 5 515 48 discriminator 1
	movl	-96(%ebp), %eax
	leal	-96(%ebp), %edx
	addl	$10, %edx
	movl	%edx, 4(%esp)
	movl	%eax, (%esp)
	call	_StartsWith
	.loc 5 515 45 discriminator 1
	testl	%eax, %eax
	je	L133
	.loc 5 517 26
	movl	-96(%ebp), %eax
	.loc 5 517 34
	movl	-80(%ebp), %edx
	.loc 5 517 26
	addl	%edx, %edx
	addl	%edx, %eax
	movl	%eax, -96(%ebp)
	.loc 5 518 32
	movl	12(%ebp), %eax
	andl	$8, %eax
	.loc 5 518 16
	testl	%eax, %eax
	je	L134
	.loc 5 518 47 discriminator 1
	movl	-96(%ebp), %eax
	leal	-96(%ebp), %edx
	addl	$20, %edx
	movl	%edx, 4(%esp)
	movl	%eax, (%esp)
	call	_StartsWith
	.loc 5 518 44 discriminator 1
	testl	%eax, %eax
	je	L134
	.loc 5 520 28
	movb	$1, -88(%ebp)
	.loc 5 521 30
	movl	-96(%ebp), %eax
	.loc 5 521 38
	movl	-68(%ebp), %edx
	.loc 5 521 30
	addl	%edx, %edx
	addl	%edx, %eax
	movl	%eax, -96(%ebp)
	.loc 5 518 16
	jmp	L160
L134:
	.loc 5 523 37
	movl	12(%ebp), %eax
	andl	$8, %eax
	.loc 5 523 21
	testl	%eax, %eax
	je	L160
	.loc 5 523 52 discriminator 1
	movl	-96(%ebp), %eax
	leal	-96(%ebp), %edx
	addl	$32, %edx
	movl	%edx, 4(%esp)
	movl	%eax, (%esp)
	call	_StartsWith
	.loc 5 523 49 discriminator 1
	testl	%eax, %eax
	je	L160
	.loc 5 525 28
	movb	$-1, -88(%ebp)
	.loc 5 526 30
	movl	-96(%ebp), %eax
	.loc 5 526 38
	movl	-56(%ebp), %edx
	.loc 5 526 30
	addl	%edx, %edx
	addl	%edx, %eax
	movl	%eax, -96(%ebp)
	.loc 5 518 16
	jmp	L160
L133:
	.loc 5 532 33
	movl	12(%ebp), %eax
	andl	$8, %eax
	.loc 5 532 17
	testl	%eax, %eax
	je	L136
	.loc 5 532 48 discriminator 1
	movl	-96(%ebp), %eax
	leal	-96(%ebp), %edx
	addl	$20, %edx
	movl	%edx, 4(%esp)
	movl	%eax, (%esp)
	call	_StartsWith
	.loc 5 532 45 discriminator 1
	testl	%eax, %eax
	je	L136
	.loc 5 534 24
	movb	$1, -88(%ebp)
	.loc 5 535 26
	movl	-96(%ebp), %eax
	.loc 5 535 34
	movl	-68(%ebp), %edx
	.loc 5 535 26
	addl	%edx, %edx
	addl	%edx, %eax
	movl	%eax, -96(%ebp)
	.loc 5 536 32
	movl	12(%ebp), %eax
	andl	$256, %eax
	.loc 5 536 16
	testl	%eax, %eax
	je	L161
	.loc 5 536 47 discriminator 1
	movl	-96(%ebp), %eax
	leal	-96(%ebp), %edx
	addl	$10, %edx
	movl	%edx, 4(%esp)
	movl	%eax, (%esp)
	call	_StartsWith
	.loc 5 536 44 discriminator 1
	testl	%eax, %eax
	je	L161
	.loc 5 537 30
	movl	-96(%ebp), %eax
	.loc 5 537 38
	movl	-80(%ebp), %edx
	.loc 5 537 30
	addl	%edx, %edx
	addl	%edx, %eax
	movl	%eax, -96(%ebp)
	.loc 5 536 16
	jmp	L161
L136:
	.loc 5 539 33
	movl	12(%ebp), %eax
	andl	$8, %eax
	.loc 5 539 17
	testl	%eax, %eax
	je	L162
	.loc 5 539 48 discriminator 1
	movl	-96(%ebp), %eax
	leal	-96(%ebp), %edx
	addl	$32, %edx
	movl	%edx, 4(%esp)
	movl	%eax, (%esp)
	call	_StartsWith
	.loc 5 539 45 discriminator 1
	testl	%eax, %eax
	je	L162
	.loc 5 541 24
	movb	$-1, -88(%ebp)
	.loc 5 542 26
	movl	-96(%ebp), %eax
	.loc 5 542 34
	movl	-56(%ebp), %edx
	.loc 5 542 26
	addl	%edx, %edx
	addl	%edx, %eax
	movl	%eax, -96(%ebp)
	.loc 5 543 32
	movl	12(%ebp), %eax
	andl	$256, %eax
	.loc 5 543 16
	testl	%eax, %eax
	je	L162
	.loc 5 543 47 discriminator 1
	movl	-96(%ebp), %eax
	leal	-96(%ebp), %edx
	addl	$10, %edx
	movl	%edx, 4(%esp)
	movl	%eax, (%esp)
	call	_StartsWith
	.loc 5 543 44 discriminator 1
	testl	%eax, %eax
	je	L162
	.loc 5 544 30
	movl	-96(%ebp), %eax
	.loc 5 544 38
	movl	-80(%ebp), %edx
	.loc 5 544 30
	addl	%edx, %edx
	addl	%edx, %eax
	movl	%eax, -96(%ebp)
	.loc 5 478 12
	jmp	L162
L159:
	.loc 5 481 16
	nop
	jmp	L162
L160:
	.loc 5 518 16
	nop
	jmp	L162
L161:
	.loc 5 536 16
	nop
	.loc 5 478 12
	jmp	L162
L125:
	.loc 5 551 16
	movl	$0, %eax
	jmp	L143
L146:
	.loc 5 230 12
	nop
	jmp	L79
L150:
	.loc 5 320 12
	nop
	jmp	L79
L153:
	.loc 5 359 12
	nop
	jmp	L79
L155:
	.loc 5 405 16
	nop
	jmp	L79
L156:
	.loc 5 442 16
	nop
	jmp	L79
L157:
	.loc 5 460 16
	nop
	jmp	L79
L162:
	.loc 5 478 12
	nop
L79:
	.loc 5 552 23
	movl	12(%ebp), %eax
	andl	$2, %eax
	.loc 5 552 8
	testl	%eax, %eax
	je	L139
	.loc 5 553 9
	leal	-96(%ebp), %eax
	movl	%eax, (%esp)
	call	_SkipSpace
L139:
	.loc 5 554 15
	movl	-96(%ebp), %eax
	.loc 5 554 9
	movzwl	(%eax), %eax
	.loc 5 554 8
	testw	%ax, %ax
	je	L140
	.loc 5 555 16
	movl	$0, %eax
	jmp	L143
L140:
	.loc 5 556 5
	leal	-96(%ebp), %eax
	movl	%eax, (%esp)
	call	_FinalizeParserState
	.loc 5 558 18
	movzbl	-88(%ebp), %eax
	.loc 5 558 11
	testb	%al, %al
	jns	L141
	.loc 5 558 11 is_stmt 0 discriminator 1
	movl	$-1, %edx
	jmp	L142
L141:
	.loc 5 558 11 discriminator 2
	movl	$1, %edx
L142:
	.loc 5 558 11 discriminator 4
	movl	20(%ebp), %eax
	movb	%dl, (%eax)
	.loc 5 559 12 is_stmt 1 discriminator 4
	movl	$1, %eax
L143:
	.loc 5 560 1 discriminator 17
	leave
	.cfi_restore 5
	.cfi_def_cfa 4, 4
	ret
	.cfi_endproc
LFE4252:
	.def	_ParseAsHexNumberString;	.scl	3;	.type	32;	.endef
_ParseAsHexNumberString:
LFB4253:
	.loc 5 564 1
	.cfi_startproc
	pushl	%ebp
	.cfi_def_cfa_offset 8
	.cfi_offset 5, -8
	movl	%esp, %ebp
	.cfi_def_cfa_register 5
	subl	$136, %esp
	.loc 5 566 5
	movl	$0, 20(%esp)
	movl	20(%ebp), %eax
	movl	%eax, 16(%esp)
	movl	16(%ebp), %eax
	movl	%eax, 12(%esp)
	movl	12(%ebp), %eax
	movl	%eax, 8(%esp)
	movl	8(%ebp), %eax
	movl	%eax, 4(%esp)
	leal	-96(%ebp), %eax
	movl	%eax, (%esp)
	call	_InitializeParserState
	.loc 5 567 23
	movl	12(%ebp), %eax
	andl	$1, %eax
	.loc 5 567 8
	testl	%eax, %eax
	je	L164
	.loc 5 568 9
	leal	-96(%ebp), %eax
	movl	%eax, (%esp)
	call	_SkipSpace
L164:
	.loc 5 569 5
	leal	-96(%ebp), %eax
	movl	%eax, (%esp)
	call	_ParseAsIntegerPartNumberSequence
	.loc 5 570 23
	movl	12(%ebp), %eax
	andl	$2, %eax
	.loc 5 570 8
	testl	%eax, %eax
	je	L165
	.loc 5 571 9
	leal	-96(%ebp), %eax
	movl	%eax, (%esp)
	call	_SkipSpace
L165:
	.loc 5 572 15
	movl	-96(%ebp), %eax
	.loc 5 572 9
	movzwl	(%eax), %eax
	.loc 5 572 8
	testw	%ax, %ax
	je	L166
	.loc 5 573 16
	movl	$0, %eax
	jmp	L168
L166:
	.loc 5 574 5
	leal	-96(%ebp), %eax
	movl	%eax, (%esp)
	call	_FinalizeParserState
	.loc 5 575 12
	movl	$1, %eax
L168:
	.loc 5 576 1 discriminator 1
	leave
	.cfi_restore 5
	.cfi_def_cfa 4, 4
	ret
	.cfi_endproc
LFE4253:
	.def	_BuildLeading1WordFromDecimalString;	.scl	3;	.type	32;	.endef
_BuildLeading1WordFromDecimalString:
LFB4254:
	.loc 5 579 1
	.cfi_startproc
	pushl	%ebp
	.cfi_def_cfa_offset 8
	.cfi_offset 5, -8
	movl	%esp, %ebp
	.cfi_def_cfa_register 5
	pushl	%ebx
	subl	$20, %esp
	.cfi_offset 3, -12
	.loc 5 580 17
	movl	$0, -8(%ebp)
	.loc 5 581 11
	jmp	L170
L171:
	.loc 5 583 15
	movl	-8(%ebp), %edx
	movl	%edx, %eax
	sall	$2, %eax
	addl	%edx, %eax
	addl	%eax, %eax
	movl	%eax, %ebx
	.loc 5 583 47
	movl	8(%ebp), %eax
	leal	2(%eax), %edx
	movl	%edx, 8(%ebp)
	.loc 5 583 40
	movzwl	(%eax), %eax
	.loc 5 583 22
	movzwl	%ax, %eax
	movl	%eax, (%esp)
	call	_ParseDecimalDigit
	.loc 5 583 11
	addl	%ebx, %eax
	movl	%eax, -8(%ebp)
	.loc 5 584 9
	subl	$1, 12(%ebp)
L170:
	.loc 5 581 11
	cmpl	$0, 12(%ebp)
	jne	L171
	.loc 5 586 12
	movl	-8(%ebp), %eax
	.loc 5 587 1
	addl	$20, %esp
	popl	%ebx
	.cfi_restore 3
	popl	%ebp
	.cfi_restore 5
	.cfi_def_cfa 4, 4
	ret
	.cfi_endproc
LFE4254:
	.def	_Build1WordFromDecimalString;	.scl	3;	.type	32;	.endef
_Build1WordFromDecimalString:
LFB4255:
	.loc 5 590 1
	.cfi_startproc
	pushl	%ebp
	.cfi_def_cfa_offset 8
	.cfi_offset 5, -8
	movl	%esp, %ebp
	.cfi_def_cfa_register 5
	pushl	%ebx
	subl	$20, %esp
	.cfi_offset 3, -12
	.loc 5 591 46
	movl	8(%ebp), %eax
	leal	2(%eax), %edx
	movl	%edx, 8(%ebp)
	.loc 5 591 39
	movzwl	(%eax), %eax
	.loc 5 591 21
	movzwl	%ax, %eax
	movl	%eax, (%esp)
	call	_ParseDecimalDigit
	.loc 5 591 17
	movl	%eax, -8(%ebp)
	.loc 5 607 15
	movl	-8(%ebp), %edx
	movl	%edx, %eax
	sall	$2, %eax
	addl	%edx, %eax
	addl	%eax, %eax
	movl	%eax, %ebx
	.loc 5 607 47
	movl	8(%ebp), %eax
	leal	2(%eax), %edx
	movl	%edx, 8(%ebp)
	.loc 5 607 40
	movzwl	(%eax), %eax
	.loc 5 607 22
	movzwl	%ax, %eax
	movl	%eax, (%esp)
	call	_ParseDecimalDigit
	.loc 5 607 11
	addl	%ebx, %eax
	movl	%eax, -8(%ebp)
	.loc 5 608 15
	movl	-8(%ebp), %edx
	movl	%edx, %eax
	sall	$2, %eax
	addl	%edx, %eax
	addl	%eax, %eax
	movl	%eax, %ebx
	.loc 5 608 47
	movl	8(%ebp), %eax
	leal	2(%eax), %edx
	movl	%edx, 8(%ebp)
	.loc 5 608 40
	movzwl	(%eax), %eax
	.loc 5 608 22
	movzwl	%ax, %eax
	movl	%eax, (%esp)
	call	_ParseDecimalDigit
	.loc 5 608 11
	addl	%ebx, %eax
	movl	%eax, -8(%ebp)
	.loc 5 609 15
	movl	-8(%ebp), %edx
	movl	%edx, %eax
	sall	$2, %eax
	addl	%edx, %eax
	addl	%eax, %eax
	movl	%eax, %ebx
	.loc 5 609 47
	movl	8(%ebp), %eax
	leal	2(%eax), %edx
	movl	%edx, 8(%ebp)
	.loc 5 609 40
	movzwl	(%eax), %eax
	.loc 5 609 22
	movzwl	%ax, %eax
	movl	%eax, (%esp)
	call	_ParseDecimalDigit
	.loc 5 609 11
	addl	%ebx, %eax
	movl	%eax, -8(%ebp)
	.loc 5 610 15
	movl	-8(%ebp), %edx
	movl	%edx, %eax
	sall	$2, %eax
	addl	%edx, %eax
	addl	%eax, %eax
	movl	%eax, %ebx
	.loc 5 610 47
	movl	8(%ebp), %eax
	leal	2(%eax), %edx
	movl	%edx, 8(%ebp)
	.loc 5 610 40
	movzwl	(%eax), %eax
	.loc 5 610 22
	movzwl	%ax, %eax
	movl	%eax, (%esp)
	call	_ParseDecimalDigit
	.loc 5 610 11
	addl	%ebx, %eax
	movl	%eax, -8(%ebp)
	.loc 5 611 15
	movl	-8(%ebp), %edx
	movl	%edx, %eax
	sall	$2, %eax
	addl	%edx, %eax
	addl	%eax, %eax
	movl	%eax, %ebx
	.loc 5 611 47
	movl	8(%ebp), %eax
	leal	2(%eax), %edx
	movl	%edx, 8(%ebp)
	.loc 5 611 40
	movzwl	(%eax), %eax
	.loc 5 611 22
	movzwl	%ax, %eax
	movl	%eax, (%esp)
	call	_ParseDecimalDigit
	.loc 5 611 11
	addl	%ebx, %eax
	movl	%eax, -8(%ebp)
	.loc 5 615 15
	movl	-8(%ebp), %edx
	movl	%edx, %eax
	sall	$2, %eax
	addl	%edx, %eax
	addl	%eax, %eax
	movl	%eax, %ebx
	.loc 5 615 47
	movl	8(%ebp), %eax
	leal	2(%eax), %edx
	movl	%edx, 8(%ebp)
	.loc 5 615 40
	movzwl	(%eax), %eax
	.loc 5 615 22
	movzwl	%ax, %eax
	movl	%eax, (%esp)
	call	_ParseDecimalDigit
	.loc 5 615 11
	addl	%ebx, %eax
	movl	%eax, -8(%ebp)
	.loc 5 616 15
	movl	-8(%ebp), %edx
	movl	%edx, %eax
	sall	$2, %eax
	addl	%edx, %eax
	addl	%eax, %eax
	movl	%eax, %ebx
	.loc 5 616 47
	movl	8(%ebp), %eax
	leal	2(%eax), %edx
	movl	%edx, 8(%ebp)
	.loc 5 616 40
	movzwl	(%eax), %eax
	.loc 5 616 22
	movzwl	%ax, %eax
	movl	%eax, (%esp)
	call	_ParseDecimalDigit
	.loc 5 616 11
	addl	%ebx, %eax
	movl	%eax, -8(%ebp)
	.loc 5 620 15
	movl	-8(%ebp), %edx
	movl	%edx, %eax
	sall	$2, %eax
	addl	%edx, %eax
	addl	%eax, %eax
	movl	%eax, %ebx
	.loc 5 620 47
	movl	8(%ebp), %eax
	leal	2(%eax), %edx
	movl	%edx, 8(%ebp)
	.loc 5 620 40
	movzwl	(%eax), %eax
	.loc 5 620 22
	movzwl	%ax, %eax
	movl	%eax, (%esp)
	call	_ParseDecimalDigit
	.loc 5 620 11
	addl	%ebx, %eax
	movl	%eax, -8(%ebp)
	.loc 5 622 12
	movl	-8(%ebp), %eax
	.loc 5 623 1
	addl	$20, %esp
	popl	%ebx
	.cfi_restore 3
	popl	%ebp
	.cfi_restore 5
	.cfi_def_cfa 4, 4
	ret
	.cfi_endproc
LFE4255:
	.def	_BuildBinaryFromDecimalString;	.scl	3;	.type	32;	.endef
_BuildBinaryFromDecimalString:
LFB4256:
	.loc 5 627 1
	.cfi_startproc
	pushl	%ebp
	.cfi_def_cfa_offset 8
	.cfi_offset 5, -8
	movl	%esp, %ebp
	.cfi_def_cfa_register 5
	pushl	%ebx
	subl	$52, %esp
	.cfi_offset 3, -12
	.loc 5 629 9
	movl	$9, -24(%ebp)
	.loc 5 635 14
	movl	8(%ebp), %eax
	movl	%eax, -12(%ebp)
	.loc 5 636 18
	movl	12(%ebp), %eax
	movl	%eax, -16(%ebp)
	.loc 5 637 32
	movl	8(%ebp), %eax
	movl	%eax, (%esp)
	movl	__imp__lstrlenW@4, %eax
	call	*%eax
LVL10:
	subl	$4, %esp
	.loc 5 637 17
	movl	%eax, -20(%ebp)
	.loc 5 638 26
	movl	-24(%ebp), %ecx
	movl	-20(%ebp), %eax
	movl	$0, %edx
	divl	%ecx
	movl	%edx, %eax
	.loc 5 638 9
	movl	%eax, -28(%ebp)
	.loc 5 639 8
	cmpl	$0, -28(%ebp)
	jle	L177
	.loc 5 641 22
	movl	-28(%ebp), %eax
	.loc 5 641 17
	movl	-16(%ebp), %ebx
	leal	4(%ebx), %edx
	movl	%edx, -16(%ebp)
	.loc 5 641 22
	movl	%eax, 4(%esp)
	movl	-12(%ebp), %eax
	movl	%eax, (%esp)
	call	_BuildLeading1WordFromDecimalString
	.loc 5 641 20
	movl	%eax, (%ebx)
	.loc 5 642 16
	movl	-28(%ebp), %eax
	addl	%eax, %eax
	addl	%eax, -12(%ebp)
	.loc 5 643 22
	movl	-28(%ebp), %eax
	subl	%eax, -20(%ebp)
	.loc 5 645 11
	jmp	L177
L178:
	.loc 5 647 17
	movl	-16(%ebp), %ebx
	leal	4(%ebx), %eax
	movl	%eax, -16(%ebp)
	.loc 5 647 22
	movl	-12(%ebp), %eax
	movl	%eax, (%esp)
	call	_Build1WordFromDecimalString
	.loc 5 647 20
	movl	%eax, (%ebx)
	.loc 5 648 16
	movl	-24(%ebp), %eax
	addl	%eax, %eax
	addl	%eax, -12(%ebp)
	.loc 5 649 22
	movl	-24(%ebp), %eax
	subl	%eax, -20(%ebp)
L177:
	.loc 5 645 11
	cmpl	$0, -20(%ebp)
	jne	L178
	.loc 5 651 30
	movl	-16(%ebp), %eax
	subl	12(%ebp), %eax
	sarl	$2, %eax
	movl	%eax, %edx
	.loc 5 651 20
	movl	16(%ebp), %eax
	movl	%edx, (%eax)
	.loc 5 652 1
	nop
	movl	-4(%ebp), %ebx
	leave
	.cfi_restore 5
	.cfi_restore 3
	.cfi_def_cfa 4, 4
	ret
	.cfi_endproc
LFE4256:
	.def	_MultiplyAndAdd1Word_using_ADC_MUL;	.scl	3;	.type	32;	.endef
_MultiplyAndAdd1Word_using_ADC_MUL:
LFB4257:
	.loc 5 655 1
	.cfi_startproc
	pushl	%ebp
	.cfi_def_cfa_offset 8
	.cfi_offset 5, -8
	movl	%esp, %ebp
	.cfi_def_cfa_register 5
	pushl	%ebx
	subl	$32, %esp
	.cfi_offset 3, -12
	.loc 5 657 17
	movl	$1000000000, -8(%ebp)
	.loc 5 664 24
	leal	-16(%ebp), %eax
	movl	%eax, 8(%esp)
	movl	-8(%ebp), %eax
	movl	%eax, 4(%esp)
	movl	12(%ebp), %eax
	movl	%eax, (%esp)
	call	__MULTIPLY_UNIT
	movl	%eax, -12(%ebp)
	.loc 5 665 5
	movl	-16(%ebp), %ebx
	.loc 5 665 15
	movl	8(%ebp), %eax
	movl	16(%ebp), %edx
	movl	%edx, 12(%esp)
	movl	%eax, 8(%esp)
	movl	-12(%ebp), %eax
	movl	%eax, 4(%esp)
	movl	$0, (%esp)
	call	__ADD_UNIT
	.loc 5 665 5
	movsbl	%al, %eax
	leal	8(%ebp), %ecx
	movl	%ecx, 12(%esp)
	movl	$0, 8(%esp)
	movl	%ebx, 4(%esp)
	movl	%eax, (%esp)
	call	__ADD_UNIT
	.loc 5 666 12
	movl	8(%ebp), %eax
	.loc 5 667 1
	addl	$32, %esp
	popl	%ebx
	.cfi_restore 3
	popl	%ebp
	.cfi_restore 5
	.cfi_def_cfa 4, 4
	ret
	.cfi_endproc
LFE4257:
	.def	_MultiplyAndAdd1Word_using_ADCX_MULX;	.scl	3;	.type	32;	.endef
_MultiplyAndAdd1Word_using_ADCX_MULX:
LFB4258:
	.loc 5 670 1
	.cfi_startproc
	pushl	%ebp
	.cfi_def_cfa_offset 8
	.cfi_offset 5, -8
	movl	%esp, %ebp
	.cfi_def_cfa_register 5
	pushl	%ebx
	subl	$32, %esp
	.cfi_offset 3, -12
	.loc 5 672 17
	movl	$1000000000, -8(%ebp)
	.loc 5 679 24
	leal	-16(%ebp), %eax
	movl	%eax, 8(%esp)
	movl	-8(%ebp), %eax
	movl	%eax, 4(%esp)
	movl	12(%ebp), %eax
	movl	%eax, (%esp)
	call	__MULTIPLYX_UNIT
	movl	%eax, -12(%ebp)
	.loc 5 680 5
	movl	-16(%ebp), %ebx
	.loc 5 680 16
	movl	8(%ebp), %eax
	movl	16(%ebp), %edx
	movl	%edx, 12(%esp)
	movl	%eax, 8(%esp)
	movl	-12(%ebp), %eax
	movl	%eax, 4(%esp)
	movl	$0, (%esp)
	call	__ADDX_UNIT
	.loc 5 680 5
	movsbl	%al, %eax
	leal	8(%ebp), %ecx
	movl	%ecx, 12(%esp)
	movl	$0, 8(%esp)
	movl	%ebx, 4(%esp)
	movl	%eax, (%esp)
	call	__ADDX_UNIT
	.loc 5 681 12
	movl	8(%ebp), %eax
	.loc 5 682 1
	addl	$32, %esp
	popl	%ebx
	.cfi_restore 3
	popl	%ebp
	.cfi_restore 5
	.cfi_def_cfa 4, 4
	ret
	.cfi_endproc
LFE4258:
	.def	_MultiplyAndAdd_using_ADC_MUL;	.scl	3;	.type	32;	.endef
_MultiplyAndAdd_using_ADC_MUL:
LFB4259:
	.loc 5 685 1
	.cfi_startproc
	pushl	%ebp
	.cfi_def_cfa_offset 8
	.cfi_offset 5, -8
	movl	%esp, %ebp
	.cfi_def_cfa_register 5
	subl	$28, %esp
	.loc 5 686 17
	movl	16(%ebp), %eax
	movl	%eax, -4(%ebp)
	.loc 5 687 17
	movl	12(%ebp), %eax
	shrl	$5, %eax
	movl	%eax, -8(%ebp)
	.loc 5 688 11
	jmp	L184
L185:
	.loc 5 690 13
	movl	8(%ebp), %eax
	movl	(%eax), %eax
	movl	8(%ebp), %edx
	movl	%edx, 8(%esp)
	movl	%eax, 4(%esp)
	movl	-4(%ebp), %eax
	movl	%eax, (%esp)
	call	_MultiplyAndAdd1Word_using_ADC_MUL
	movl	%eax, -4(%ebp)
	.loc 5 691 13
	movl	8(%ebp), %eax
	leal	4(%eax), %edx
	.loc 5 691 55
	movl	8(%ebp), %eax
	addl	$4, %eax
	.loc 5 691 13
	movl	(%eax), %eax
	movl	%edx, 8(%esp)
	movl	%eax, 4(%esp)
	movl	-4(%ebp), %eax
	movl	%eax, (%esp)
	call	_MultiplyAndAdd1Word_using_ADC_MUL
	movl	%eax, -4(%ebp)
	.loc 5 692 13
	movl	8(%ebp), %eax
	leal	8(%eax), %edx
	.loc 5 692 55
	movl	8(%ebp), %eax
	addl	$8, %eax
	.loc 5 692 13
	movl	(%eax), %eax
	movl	%edx, 8(%esp)
	movl	%eax, 4(%esp)
	movl	-4(%ebp), %eax
	movl	%eax, (%esp)
	call	_MultiplyAndAdd1Word_using_ADC_MUL
	movl	%eax, -4(%ebp)
	.loc 5 693 13
	movl	8(%ebp), %eax
	leal	12(%eax), %edx
	.loc 5 693 55
	movl	8(%ebp), %eax
	addl	$12, %eax
	.loc 5 693 13
	movl	(%eax), %eax
	movl	%edx, 8(%esp)
	movl	%eax, 4(%esp)
	movl	-4(%ebp), %eax
	movl	%eax, (%esp)
	call	_MultiplyAndAdd1Word_using_ADC_MUL
	movl	%eax, -4(%ebp)
	.loc 5 694 13
	movl	8(%ebp), %eax
	leal	16(%eax), %edx
	.loc 5 694 55
	movl	8(%ebp), %eax
	addl	$16, %eax
	.loc 5 694 13
	movl	(%eax), %eax
	movl	%edx, 8(%esp)
	movl	%eax, 4(%esp)
	movl	-4(%ebp), %eax
	movl	%eax, (%esp)
	call	_MultiplyAndAdd1Word_using_ADC_MUL
	movl	%eax, -4(%ebp)
	.loc 5 695 13
	movl	8(%ebp), %eax
	leal	20(%eax), %edx
	.loc 5 695 55
	movl	8(%ebp), %eax
	addl	$20, %eax
	.loc 5 695 13
	movl	(%eax), %eax
	movl	%edx, 8(%esp)
	movl	%eax, 4(%esp)
	movl	-4(%ebp), %eax
	movl	%eax, (%esp)
	call	_MultiplyAndAdd1Word_using_ADC_MUL
	movl	%eax, -4(%ebp)
	.loc 5 696 13
	movl	8(%ebp), %eax
	leal	24(%eax), %edx
	.loc 5 696 55
	movl	8(%ebp), %eax
	addl	$24, %eax
	.loc 5 696 13
	movl	(%eax), %eax
	movl	%edx, 8(%esp)
	movl	%eax, 4(%esp)
	movl	-4(%ebp), %eax
	movl	%eax, (%esp)
	call	_MultiplyAndAdd1Word_using_ADC_MUL
	movl	%eax, -4(%ebp)
	.loc 5 697 13
	movl	8(%ebp), %eax
	leal	28(%eax), %edx
	.loc 5 697 55
	movl	8(%ebp), %eax
	addl	$28, %eax
	.loc 5 697 13
	movl	(%eax), %eax
	movl	%edx, 8(%esp)
	movl	%eax, 4(%esp)
	movl	-4(%ebp), %eax
	movl	%eax, (%esp)
	call	_MultiplyAndAdd1Word_using_ADC_MUL
	movl	%eax, -4(%ebp)
	.loc 5 698 13
	movl	8(%ebp), %eax
	leal	32(%eax), %edx
	.loc 5 698 55
	movl	8(%ebp), %eax
	addl	$32, %eax
	.loc 5 698 13
	movl	(%eax), %eax
	movl	%edx, 8(%esp)
	movl	%eax, 4(%esp)
	movl	-4(%ebp), %eax
	movl	%eax, (%esp)
	call	_MultiplyAndAdd1Word_using_ADC_MUL
	movl	%eax, -4(%ebp)
	.loc 5 699 13
	movl	8(%ebp), %eax
	leal	36(%eax), %edx
	.loc 5 699 55
	movl	8(%ebp), %eax
	addl	$36, %eax
	.loc 5 699 13
	movl	(%eax), %eax
	movl	%edx, 8(%esp)
	movl	%eax, 4(%esp)
	movl	-4(%ebp), %eax
	movl	%eax, (%esp)
	call	_MultiplyAndAdd1Word_using_ADC_MUL
	movl	%eax, -4(%ebp)
	.loc 5 700 13
	movl	8(%ebp), %eax
	leal	40(%eax), %edx
	.loc 5 700 55
	movl	8(%ebp), %eax
	addl	$40, %eax
	.loc 5 700 13
	movl	(%eax), %eax
	movl	%edx, 8(%esp)
	movl	%eax, 4(%esp)
	movl	-4(%ebp), %eax
	movl	%eax, (%esp)
	call	_MultiplyAndAdd1Word_using_ADC_MUL
	movl	%eax, -4(%ebp)
	.loc 5 701 13
	movl	8(%ebp), %eax
	leal	44(%eax), %edx
	.loc 5 701 55
	movl	8(%ebp), %eax
	addl	$44, %eax
	.loc 5 701 13
	movl	(%eax), %eax
	movl	%edx, 8(%esp)
	movl	%eax, 4(%esp)
	movl	-4(%ebp), %eax
	movl	%eax, (%esp)
	call	_MultiplyAndAdd1Word_using_ADC_MUL
	movl	%eax, -4(%ebp)
	.loc 5 702 13
	movl	8(%ebp), %eax
	leal	48(%eax), %edx
	.loc 5 702 55
	movl	8(%ebp), %eax
	addl	$48, %eax
	.loc 5 702 13
	movl	(%eax), %eax
	movl	%edx, 8(%esp)
	movl	%eax, 4(%esp)
	movl	-4(%ebp), %eax
	movl	%eax, (%esp)
	call	_MultiplyAndAdd1Word_using_ADC_MUL
	movl	%eax, -4(%ebp)
	.loc 5 703 13
	movl	8(%ebp), %eax
	leal	52(%eax), %edx
	.loc 5 703 55
	movl	8(%ebp), %eax
	addl	$52, %eax
	.loc 5 703 13
	movl	(%eax), %eax
	movl	%edx, 8(%esp)
	movl	%eax, 4(%esp)
	movl	-4(%ebp), %eax
	movl	%eax, (%esp)
	call	_MultiplyAndAdd1Word_using_ADC_MUL
	movl	%eax, -4(%ebp)
	.loc 5 704 13
	movl	8(%ebp), %eax
	leal	56(%eax), %edx
	.loc 5 704 55
	movl	8(%ebp), %eax
	addl	$56, %eax
	.loc 5 704 13
	movl	(%eax), %eax
	movl	%edx, 8(%esp)
	movl	%eax, 4(%esp)
	movl	-4(%ebp), %eax
	movl	%eax, (%esp)
	call	_MultiplyAndAdd1Word_using_ADC_MUL
	movl	%eax, -4(%ebp)
	.loc 5 705 13
	movl	8(%ebp), %eax
	leal	60(%eax), %edx
	.loc 5 705 55
	movl	8(%ebp), %eax
	addl	$60, %eax
	.loc 5 705 13
	movl	(%eax), %eax
	movl	%edx, 8(%esp)
	movl	%eax, 4(%esp)
	movl	-4(%ebp), %eax
	movl	%eax, (%esp)
	call	_MultiplyAndAdd1Word_using_ADC_MUL
	movl	%eax, -4(%ebp)
	.loc 5 706 13
	movl	8(%ebp), %eax
	leal	64(%eax), %edx
	.loc 5 706 55
	movl	8(%ebp), %eax
	addl	$64, %eax
	.loc 5 706 13
	movl	(%eax), %eax
	movl	%edx, 8(%esp)
	movl	%eax, 4(%esp)
	movl	-4(%ebp), %eax
	movl	%eax, (%esp)
	call	_MultiplyAndAdd1Word_using_ADC_MUL
	movl	%eax, -4(%ebp)
	.loc 5 707 13
	movl	8(%ebp), %eax
	leal	68(%eax), %edx
	.loc 5 707 55
	movl	8(%ebp), %eax
	addl	$68, %eax
	.loc 5 707 13
	movl	(%eax), %eax
	movl	%edx, 8(%esp)
	movl	%eax, 4(%esp)
	movl	-4(%ebp), %eax
	movl	%eax, (%esp)
	call	_MultiplyAndAdd1Word_using_ADC_MUL
	movl	%eax, -4(%ebp)
	.loc 5 708 13
	movl	8(%ebp), %eax
	leal	72(%eax), %edx
	.loc 5 708 55
	movl	8(%ebp), %eax
	addl	$72, %eax
	.loc 5 708 13
	movl	(%eax), %eax
	movl	%edx, 8(%esp)
	movl	%eax, 4(%esp)
	movl	-4(%ebp), %eax
	movl	%eax, (%esp)
	call	_MultiplyAndAdd1Word_using_ADC_MUL
	movl	%eax, -4(%ebp)
	.loc 5 709 13
	movl	8(%ebp), %eax
	leal	76(%eax), %edx
	.loc 5 709 55
	movl	8(%ebp), %eax
	addl	$76, %eax
	.loc 5 709 13
	movl	(%eax), %eax
	movl	%edx, 8(%esp)
	movl	%eax, 4(%esp)
	movl	-4(%ebp), %eax
	movl	%eax, (%esp)
	call	_MultiplyAndAdd1Word_using_ADC_MUL
	movl	%eax, -4(%ebp)
	.loc 5 710 13
	movl	8(%ebp), %eax
	leal	80(%eax), %edx
	.loc 5 710 55
	movl	8(%ebp), %eax
	addl	$80, %eax
	.loc 5 710 13
	movl	(%eax), %eax
	movl	%edx, 8(%esp)
	movl	%eax, 4(%esp)
	movl	-4(%ebp), %eax
	movl	%eax, (%esp)
	call	_MultiplyAndAdd1Word_using_ADC_MUL
	movl	%eax, -4(%ebp)
	.loc 5 711 13
	movl	8(%ebp), %eax
	leal	84(%eax), %edx
	.loc 5 711 55
	movl	8(%ebp), %eax
	addl	$84, %eax
	.loc 5 711 13
	movl	(%eax), %eax
	movl	%edx, 8(%esp)
	movl	%eax, 4(%esp)
	movl	-4(%ebp), %eax
	movl	%eax, (%esp)
	call	_MultiplyAndAdd1Word_using_ADC_MUL
	movl	%eax, -4(%ebp)
	.loc 5 712 13
	movl	8(%ebp), %eax
	leal	88(%eax), %edx
	.loc 5 712 55
	movl	8(%ebp), %eax
	addl	$88, %eax
	.loc 5 712 13
	movl	(%eax), %eax
	movl	%edx, 8(%esp)
	movl	%eax, 4(%esp)
	movl	-4(%ebp), %eax
	movl	%eax, (%esp)
	call	_MultiplyAndAdd1Word_using_ADC_MUL
	movl	%eax, -4(%ebp)
	.loc 5 713 13
	movl	8(%ebp), %eax
	leal	92(%eax), %edx
	.loc 5 713 55
	movl	8(%ebp), %eax
	addl	$92, %eax
	.loc 5 713 13
	movl	(%eax), %eax
	movl	%edx, 8(%esp)
	movl	%eax, 4(%esp)
	movl	-4(%ebp), %eax
	movl	%eax, (%esp)
	call	_MultiplyAndAdd1Word_using_ADC_MUL
	movl	%eax, -4(%ebp)
	.loc 5 714 13
	movl	8(%ebp), %eax
	leal	96(%eax), %edx
	.loc 5 714 55
	movl	8(%ebp), %eax
	addl	$96, %eax
	.loc 5 714 13
	movl	(%eax), %eax
	movl	%edx, 8(%esp)
	movl	%eax, 4(%esp)
	movl	-4(%ebp), %eax
	movl	%eax, (%esp)
	call	_MultiplyAndAdd1Word_using_ADC_MUL
	movl	%eax, -4(%ebp)
	.loc 5 715 13
	movl	8(%ebp), %eax
	leal	100(%eax), %edx
	.loc 5 715 55
	movl	8(%ebp), %eax
	addl	$100, %eax
	.loc 5 715 13
	movl	(%eax), %eax
	movl	%edx, 8(%esp)
	movl	%eax, 4(%esp)
	movl	-4(%ebp), %eax
	movl	%eax, (%esp)
	call	_MultiplyAndAdd1Word_using_ADC_MUL
	movl	%eax, -4(%ebp)
	.loc 5 716 13
	movl	8(%ebp), %eax
	leal	104(%eax), %edx
	.loc 5 716 55
	movl	8(%ebp), %eax
	addl	$104, %eax
	.loc 5 716 13
	movl	(%eax), %eax
	movl	%edx, 8(%esp)
	movl	%eax, 4(%esp)
	movl	-4(%ebp), %eax
	movl	%eax, (%esp)
	call	_MultiplyAndAdd1Word_using_ADC_MUL
	movl	%eax, -4(%ebp)
	.loc 5 717 13
	movl	8(%ebp), %eax
	leal	108(%eax), %edx
	.loc 5 717 55
	movl	8(%ebp), %eax
	addl	$108, %eax
	.loc 5 717 13
	movl	(%eax), %eax
	movl	%edx, 8(%esp)
	movl	%eax, 4(%esp)
	movl	-4(%ebp), %eax
	movl	%eax, (%esp)
	call	_MultiplyAndAdd1Word_using_ADC_MUL
	movl	%eax, -4(%ebp)
	.loc 5 718 13
	movl	8(%ebp), %eax
	leal	112(%eax), %edx
	.loc 5 718 55
	movl	8(%ebp), %eax
	addl	$112, %eax
	.loc 5 718 13
	movl	(%eax), %eax
	movl	%edx, 8(%esp)
	movl	%eax, 4(%esp)
	movl	-4(%ebp), %eax
	movl	%eax, (%esp)
	call	_MultiplyAndAdd1Word_using_ADC_MUL
	movl	%eax, -4(%ebp)
	.loc 5 719 13
	movl	8(%ebp), %eax
	leal	116(%eax), %edx
	.loc 5 719 55
	movl	8(%ebp), %eax
	addl	$116, %eax
	.loc 5 719 13
	movl	(%eax), %eax
	movl	%edx, 8(%esp)
	movl	%eax, 4(%esp)
	movl	-4(%ebp), %eax
	movl	%eax, (%esp)
	call	_MultiplyAndAdd1Word_using_ADC_MUL
	movl	%eax, -4(%ebp)
	.loc 5 720 13
	movl	8(%ebp), %eax
	leal	120(%eax), %edx
	.loc 5 720 55
	movl	8(%ebp), %eax
	addl	$120, %eax
	.loc 5 720 13
	movl	(%eax), %eax
	movl	%edx, 8(%esp)
	movl	%eax, 4(%esp)
	movl	-4(%ebp), %eax
	movl	%eax, (%esp)
	call	_MultiplyAndAdd1Word_using_ADC_MUL
	movl	%eax, -4(%ebp)
	.loc 5 721 13
	movl	8(%ebp), %eax
	leal	124(%eax), %edx
	.loc 5 721 55
	movl	8(%ebp), %eax
	addl	$124, %eax
	.loc 5 721 13
	movl	(%eax), %eax
	movl	%edx, 8(%esp)
	movl	%eax, 4(%esp)
	movl	-4(%ebp), %eax
	movl	%eax, (%esp)
	call	_MultiplyAndAdd1Word_using_ADC_MUL
	movl	%eax, -4(%ebp)
	.loc 5 722 15
	subl	$-128, 8(%ebp)
	.loc 5 723 9
	subl	$1, -8(%ebp)
	.loc 5 726 13
	movl	$32, (%esp)
	call	_AddToMULTI32Counter
L184:
	.loc 5 688 11
	cmpl	$0, -8(%ebp)
	jne	L185
	.loc 5 732 17
	movl	12(%ebp), %eax
	andl	$16, %eax
	.loc 5 732 8
	testl	%eax, %eax
	je	L186
	.loc 5 734 13
	movl	8(%ebp), %eax
	movl	(%eax), %eax
	movl	8(%ebp), %edx
	movl	%edx, 8(%esp)
	movl	%eax, 4(%esp)
	movl	-4(%ebp), %eax
	movl	%eax, (%esp)
	call	_MultiplyAndAdd1Word_using_ADC_MUL
	movl	%eax, -4(%ebp)
	.loc 5 735 13
	movl	8(%ebp), %eax
	leal	4(%eax), %edx
	.loc 5 735 55
	movl	8(%ebp), %eax
	addl	$4, %eax
	.loc 5 735 13
	movl	(%eax), %eax
	movl	%edx, 8(%esp)
	movl	%eax, 4(%esp)
	movl	-4(%ebp), %eax
	movl	%eax, (%esp)
	call	_MultiplyAndAdd1Word_using_ADC_MUL
	movl	%eax, -4(%ebp)
	.loc 5 736 13
	movl	8(%ebp), %eax
	leal	8(%eax), %edx
	.loc 5 736 55
	movl	8(%ebp), %eax
	addl	$8, %eax
	.loc 5 736 13
	movl	(%eax), %eax
	movl	%edx, 8(%esp)
	movl	%eax, 4(%esp)
	movl	-4(%ebp), %eax
	movl	%eax, (%esp)
	call	_MultiplyAndAdd1Word_using_ADC_MUL
	movl	%eax, -4(%ebp)
	.loc 5 737 13
	movl	8(%ebp), %eax
	leal	12(%eax), %edx
	.loc 5 737 55
	movl	8(%ebp), %eax
	addl	$12, %eax
	.loc 5 737 13
	movl	(%eax), %eax
	movl	%edx, 8(%esp)
	movl	%eax, 4(%esp)
	movl	-4(%ebp), %eax
	movl	%eax, (%esp)
	call	_MultiplyAndAdd1Word_using_ADC_MUL
	movl	%eax, -4(%ebp)
	.loc 5 738 13
	movl	8(%ebp), %eax
	leal	16(%eax), %edx
	.loc 5 738 55
	movl	8(%ebp), %eax
	addl	$16, %eax
	.loc 5 738 13
	movl	(%eax), %eax
	movl	%edx, 8(%esp)
	movl	%eax, 4(%esp)
	movl	-4(%ebp), %eax
	movl	%eax, (%esp)
	call	_MultiplyAndAdd1Word_using_ADC_MUL
	movl	%eax, -4(%ebp)
	.loc 5 739 13
	movl	8(%ebp), %eax
	leal	20(%eax), %edx
	.loc 5 739 55
	movl	8(%ebp), %eax
	addl	$20, %eax
	.loc 5 739 13
	movl	(%eax), %eax
	movl	%edx, 8(%esp)
	movl	%eax, 4(%esp)
	movl	-4(%ebp), %eax
	movl	%eax, (%esp)
	call	_MultiplyAndAdd1Word_using_ADC_MUL
	movl	%eax, -4(%ebp)
	.loc 5 740 13
	movl	8(%ebp), %eax
	leal	24(%eax), %edx
	.loc 5 740 55
	movl	8(%ebp), %eax
	addl	$24, %eax
	.loc 5 740 13
	movl	(%eax), %eax
	movl	%edx, 8(%esp)
	movl	%eax, 4(%esp)
	movl	-4(%ebp), %eax
	movl	%eax, (%esp)
	call	_MultiplyAndAdd1Word_using_ADC_MUL
	movl	%eax, -4(%ebp)
	.loc 5 741 13
	movl	8(%ebp), %eax
	leal	28(%eax), %edx
	.loc 5 741 55
	movl	8(%ebp), %eax
	addl	$28, %eax
	.loc 5 741 13
	movl	(%eax), %eax
	movl	%edx, 8(%esp)
	movl	%eax, 4(%esp)
	movl	-4(%ebp), %eax
	movl	%eax, (%esp)
	call	_MultiplyAndAdd1Word_using_ADC_MUL
	movl	%eax, -4(%ebp)
	.loc 5 742 13
	movl	8(%ebp), %eax
	leal	32(%eax), %edx
	.loc 5 742 55
	movl	8(%ebp), %eax
	addl	$32, %eax
	.loc 5 742 13
	movl	(%eax), %eax
	movl	%edx, 8(%esp)
	movl	%eax, 4(%esp)
	movl	-4(%ebp), %eax
	movl	%eax, (%esp)
	call	_MultiplyAndAdd1Word_using_ADC_MUL
	movl	%eax, -4(%ebp)
	.loc 5 743 13
	movl	8(%ebp), %eax
	leal	36(%eax), %edx
	.loc 5 743 55
	movl	8(%ebp), %eax
	addl	$36, %eax
	.loc 5 743 13
	movl	(%eax), %eax
	movl	%edx, 8(%esp)
	movl	%eax, 4(%esp)
	movl	-4(%ebp), %eax
	movl	%eax, (%esp)
	call	_MultiplyAndAdd1Word_using_ADC_MUL
	movl	%eax, -4(%ebp)
	.loc 5 744 13
	movl	8(%ebp), %eax
	leal	40(%eax), %edx
	.loc 5 744 55
	movl	8(%ebp), %eax
	addl	$40, %eax
	.loc 5 744 13
	movl	(%eax), %eax
	movl	%edx, 8(%esp)
	movl	%eax, 4(%esp)
	movl	-4(%ebp), %eax
	movl	%eax, (%esp)
	call	_MultiplyAndAdd1Word_using_ADC_MUL
	movl	%eax, -4(%ebp)
	.loc 5 745 13
	movl	8(%ebp), %eax
	leal	44(%eax), %edx
	.loc 5 745 55
	movl	8(%ebp), %eax
	addl	$44, %eax
	.loc 5 745 13
	movl	(%eax), %eax
	movl	%edx, 8(%esp)
	movl	%eax, 4(%esp)
	movl	-4(%ebp), %eax
	movl	%eax, (%esp)
	call	_MultiplyAndAdd1Word_using_ADC_MUL
	movl	%eax, -4(%ebp)
	.loc 5 746 13
	movl	8(%ebp), %eax
	leal	48(%eax), %edx
	.loc 5 746 55
	movl	8(%ebp), %eax
	addl	$48, %eax
	.loc 5 746 13
	movl	(%eax), %eax
	movl	%edx, 8(%esp)
	movl	%eax, 4(%esp)
	movl	-4(%ebp), %eax
	movl	%eax, (%esp)
	call	_MultiplyAndAdd1Word_using_ADC_MUL
	movl	%eax, -4(%ebp)
	.loc 5 747 13
	movl	8(%ebp), %eax
	leal	52(%eax), %edx
	.loc 5 747 55
	movl	8(%ebp), %eax
	addl	$52, %eax
	.loc 5 747 13
	movl	(%eax), %eax
	movl	%edx, 8(%esp)
	movl	%eax, 4(%esp)
	movl	-4(%ebp), %eax
	movl	%eax, (%esp)
	call	_MultiplyAndAdd1Word_using_ADC_MUL
	movl	%eax, -4(%ebp)
	.loc 5 748 13
	movl	8(%ebp), %eax
	leal	56(%eax), %edx
	.loc 5 748 55
	movl	8(%ebp), %eax
	addl	$56, %eax
	.loc 5 748 13
	movl	(%eax), %eax
	movl	%edx, 8(%esp)
	movl	%eax, 4(%esp)
	movl	-4(%ebp), %eax
	movl	%eax, (%esp)
	call	_MultiplyAndAdd1Word_using_ADC_MUL
	movl	%eax, -4(%ebp)
	.loc 5 749 13
	movl	8(%ebp), %eax
	leal	60(%eax), %edx
	.loc 5 749 55
	movl	8(%ebp), %eax
	addl	$60, %eax
	.loc 5 749 13
	movl	(%eax), %eax
	movl	%edx, 8(%esp)
	movl	%eax, 4(%esp)
	movl	-4(%ebp), %eax
	movl	%eax, (%esp)
	call	_MultiplyAndAdd1Word_using_ADC_MUL
	movl	%eax, -4(%ebp)
	.loc 5 750 15
	addl	$64, 8(%ebp)
	.loc 5 753 13
	movl	$16, (%esp)
	call	_AddToMULTI32Counter
L186:
	.loc 5 759 17
	movl	12(%ebp), %eax
	andl	$8, %eax
	.loc 5 759 8
	testl	%eax, %eax
	je	L187
	.loc 5 761 13
	movl	8(%ebp), %eax
	movl	(%eax), %eax
	movl	8(%ebp), %edx
	movl	%edx, 8(%esp)
	movl	%eax, 4(%esp)
	movl	-4(%ebp), %eax
	movl	%eax, (%esp)
	call	_MultiplyAndAdd1Word_using_ADC_MUL
	movl	%eax, -4(%ebp)
	.loc 5 762 13
	movl	8(%ebp), %eax
	leal	4(%eax), %edx
	.loc 5 762 55
	movl	8(%ebp), %eax
	addl	$4, %eax
	.loc 5 762 13
	movl	(%eax), %eax
	movl	%edx, 8(%esp)
	movl	%eax, 4(%esp)
	movl	-4(%ebp), %eax
	movl	%eax, (%esp)
	call	_MultiplyAndAdd1Word_using_ADC_MUL
	movl	%eax, -4(%ebp)
	.loc 5 763 13
	movl	8(%ebp), %eax
	leal	8(%eax), %edx
	.loc 5 763 55
	movl	8(%ebp), %eax
	addl	$8, %eax
	.loc 5 763 13
	movl	(%eax), %eax
	movl	%edx, 8(%esp)
	movl	%eax, 4(%esp)
	movl	-4(%ebp), %eax
	movl	%eax, (%esp)
	call	_MultiplyAndAdd1Word_using_ADC_MUL
	movl	%eax, -4(%ebp)
	.loc 5 764 13
	movl	8(%ebp), %eax
	leal	12(%eax), %edx
	.loc 5 764 55
	movl	8(%ebp), %eax
	addl	$12, %eax
	.loc 5 764 13
	movl	(%eax), %eax
	movl	%edx, 8(%esp)
	movl	%eax, 4(%esp)
	movl	-4(%ebp), %eax
	movl	%eax, (%esp)
	call	_MultiplyAndAdd1Word_using_ADC_MUL
	movl	%eax, -4(%ebp)
	.loc 5 765 13
	movl	8(%ebp), %eax
	leal	16(%eax), %edx
	.loc 5 765 55
	movl	8(%ebp), %eax
	addl	$16, %eax
	.loc 5 765 13
	movl	(%eax), %eax
	movl	%edx, 8(%esp)
	movl	%eax, 4(%esp)
	movl	-4(%ebp), %eax
	movl	%eax, (%esp)
	call	_MultiplyAndAdd1Word_using_ADC_MUL
	movl	%eax, -4(%ebp)
	.loc 5 766 13
	movl	8(%ebp), %eax
	leal	20(%eax), %edx
	.loc 5 766 55
	movl	8(%ebp), %eax
	addl	$20, %eax
	.loc 5 766 13
	movl	(%eax), %eax
	movl	%edx, 8(%esp)
	movl	%eax, 4(%esp)
	movl	-4(%ebp), %eax
	movl	%eax, (%esp)
	call	_MultiplyAndAdd1Word_using_ADC_MUL
	movl	%eax, -4(%ebp)
	.loc 5 767 13
	movl	8(%ebp), %eax
	leal	24(%eax), %edx
	.loc 5 767 55
	movl	8(%ebp), %eax
	addl	$24, %eax
	.loc 5 767 13
	movl	(%eax), %eax
	movl	%edx, 8(%esp)
	movl	%eax, 4(%esp)
	movl	-4(%ebp), %eax
	movl	%eax, (%esp)
	call	_MultiplyAndAdd1Word_using_ADC_MUL
	movl	%eax, -4(%ebp)
	.loc 5 768 13
	movl	8(%ebp), %eax
	leal	28(%eax), %edx
	.loc 5 768 55
	movl	8(%ebp), %eax
	addl	$28, %eax
	.loc 5 768 13
	movl	(%eax), %eax
	movl	%edx, 8(%esp)
	movl	%eax, 4(%esp)
	movl	-4(%ebp), %eax
	movl	%eax, (%esp)
	call	_MultiplyAndAdd1Word_using_ADC_MUL
	movl	%eax, -4(%ebp)
	.loc 5 769 15
	addl	$32, 8(%ebp)
	.loc 5 772 13
	movl	$8, (%esp)
	call	_AddToMULTI32Counter
L187:
	.loc 5 778 17
	movl	12(%ebp), %eax
	andl	$4, %eax
	.loc 5 778 8
	testl	%eax, %eax
	je	L188
	.loc 5 780 13
	movl	8(%ebp), %eax
	movl	(%eax), %eax
	movl	8(%ebp), %edx
	movl	%edx, 8(%esp)
	movl	%eax, 4(%esp)
	movl	-4(%ebp), %eax
	movl	%eax, (%esp)
	call	_MultiplyAndAdd1Word_using_ADC_MUL
	movl	%eax, -4(%ebp)
	.loc 5 781 13
	movl	8(%ebp), %eax
	leal	4(%eax), %edx
	.loc 5 781 55
	movl	8(%ebp), %eax
	addl	$4, %eax
	.loc 5 781 13
	movl	(%eax), %eax
	movl	%edx, 8(%esp)
	movl	%eax, 4(%esp)
	movl	-4(%ebp), %eax
	movl	%eax, (%esp)
	call	_MultiplyAndAdd1Word_using_ADC_MUL
	movl	%eax, -4(%ebp)
	.loc 5 782 13
	movl	8(%ebp), %eax
	leal	8(%eax), %edx
	.loc 5 782 55
	movl	8(%ebp), %eax
	addl	$8, %eax
	.loc 5 782 13
	movl	(%eax), %eax
	movl	%edx, 8(%esp)
	movl	%eax, 4(%esp)
	movl	-4(%ebp), %eax
	movl	%eax, (%esp)
	call	_MultiplyAndAdd1Word_using_ADC_MUL
	movl	%eax, -4(%ebp)
	.loc 5 783 13
	movl	8(%ebp), %eax
	leal	12(%eax), %edx
	.loc 5 783 55
	movl	8(%ebp), %eax
	addl	$12, %eax
	.loc 5 783 13
	movl	(%eax), %eax
	movl	%edx, 8(%esp)
	movl	%eax, 4(%esp)
	movl	-4(%ebp), %eax
	movl	%eax, (%esp)
	call	_MultiplyAndAdd1Word_using_ADC_MUL
	movl	%eax, -4(%ebp)
	.loc 5 784 15
	addl	$16, 8(%ebp)
	.loc 5 787 13
	movl	$4, (%esp)
	call	_AddToMULTI32Counter
L188:
	.loc 5 793 17
	movl	12(%ebp), %eax
	andl	$2, %eax
	.loc 5 793 8
	testl	%eax, %eax
	je	L189
	.loc 5 795 13
	movl	8(%ebp), %eax
	movl	(%eax), %eax
	movl	8(%ebp), %edx
	movl	%edx, 8(%esp)
	movl	%eax, 4(%esp)
	movl	-4(%ebp), %eax
	movl	%eax, (%esp)
	call	_MultiplyAndAdd1Word_using_ADC_MUL
	movl	%eax, -4(%ebp)
	.loc 5 796 13
	movl	8(%ebp), %eax
	leal	4(%eax), %edx
	.loc 5 796 55
	movl	8(%ebp), %eax
	addl	$4, %eax
	.loc 5 796 13
	movl	(%eax), %eax
	movl	%edx, 8(%esp)
	movl	%eax, 4(%esp)
	movl	-4(%ebp), %eax
	movl	%eax, (%esp)
	call	_MultiplyAndAdd1Word_using_ADC_MUL
	movl	%eax, -4(%ebp)
	.loc 5 797 15
	addl	$8, 8(%ebp)
	.loc 5 800 13
	movl	$2, (%esp)
	call	_AddToMULTI32Counter
L189:
	.loc 5 806 17
	movl	12(%ebp), %eax
	andl	$1, %eax
	.loc 5 806 8
	testl	%eax, %eax
	je	L190
	.loc 5 808 13
	movl	8(%ebp), %eax
	movl	(%eax), %eax
	movl	8(%ebp), %edx
	movl	%edx, 8(%esp)
	movl	%eax, 4(%esp)
	movl	-4(%ebp), %eax
	movl	%eax, (%esp)
	call	_MultiplyAndAdd1Word_using_ADC_MUL
	movl	%eax, -4(%ebp)
	.loc 5 809 15
	addl	$4, 8(%ebp)
	.loc 5 812 13
	call	_IncrementMULTI32Counter
L190:
	.loc 5 818 8
	cmpl	$0, -4(%ebp)
	je	L191
	.loc 5 820 18
	movl	8(%ebp), %eax
	movl	-4(%ebp), %edx
	movl	%edx, (%eax)
	.loc 5 821 15
	addl	$4, 8(%ebp)
L191:
	.loc 5 824 12
	movl	8(%ebp), %eax
	.loc 5 825 1
	leave
	.cfi_restore 5
	.cfi_def_cfa 4, 4
	ret
	.cfi_endproc
LFE4259:
	.def	_MultiplyAndAdd_using_ADCX_MULX;	.scl	3;	.type	32;	.endef
_MultiplyAndAdd_using_ADCX_MULX:
LFB4260:
	.loc 5 828 1
	.cfi_startproc
	pushl	%ebp
	.cfi_def_cfa_offset 8
	.cfi_offset 5, -8
	movl	%esp, %ebp
	.cfi_def_cfa_register 5
	subl	$28, %esp
	.loc 5 829 17
	movl	16(%ebp), %eax
	movl	%eax, -4(%ebp)
	.loc 5 830 17
	movl	12(%ebp), %eax
	shrl	$5, %eax
	movl	%eax, -8(%ebp)
	.loc 5 831 11
	jmp	L194
L195:
	.loc 5 833 13
	movl	8(%ebp), %eax
	movl	(%eax), %eax
	movl	8(%ebp), %edx
	movl	%edx, 8(%esp)
	movl	%eax, 4(%esp)
	movl	-4(%ebp), %eax
	movl	%eax, (%esp)
	call	_MultiplyAndAdd1Word_using_ADCX_MULX
	movl	%eax, -4(%ebp)
	.loc 5 834 13
	movl	8(%ebp), %eax
	leal	4(%eax), %edx
	.loc 5 834 57
	movl	8(%ebp), %eax
	addl	$4, %eax
	.loc 5 834 13
	movl	(%eax), %eax
	movl	%edx, 8(%esp)
	movl	%eax, 4(%esp)
	movl	-4(%ebp), %eax
	movl	%eax, (%esp)
	call	_MultiplyAndAdd1Word_using_ADCX_MULX
	movl	%eax, -4(%ebp)
	.loc 5 835 13
	movl	8(%ebp), %eax
	leal	8(%eax), %edx
	.loc 5 835 57
	movl	8(%ebp), %eax
	addl	$8, %eax
	.loc 5 835 13
	movl	(%eax), %eax
	movl	%edx, 8(%esp)
	movl	%eax, 4(%esp)
	movl	-4(%ebp), %eax
	movl	%eax, (%esp)
	call	_MultiplyAndAdd1Word_using_ADCX_MULX
	movl	%eax, -4(%ebp)
	.loc 5 836 13
	movl	8(%ebp), %eax
	leal	12(%eax), %edx
	.loc 5 836 57
	movl	8(%ebp), %eax
	addl	$12, %eax
	.loc 5 836 13
	movl	(%eax), %eax
	movl	%edx, 8(%esp)
	movl	%eax, 4(%esp)
	movl	-4(%ebp), %eax
	movl	%eax, (%esp)
	call	_MultiplyAndAdd1Word_using_ADCX_MULX
	movl	%eax, -4(%ebp)
	.loc 5 837 13
	movl	8(%ebp), %eax
	leal	16(%eax), %edx
	.loc 5 837 57
	movl	8(%ebp), %eax
	addl	$16, %eax
	.loc 5 837 13
	movl	(%eax), %eax
	movl	%edx, 8(%esp)
	movl	%eax, 4(%esp)
	movl	-4(%ebp), %eax
	movl	%eax, (%esp)
	call	_MultiplyAndAdd1Word_using_ADCX_MULX
	movl	%eax, -4(%ebp)
	.loc 5 838 13
	movl	8(%ebp), %eax
	leal	20(%eax), %edx
	.loc 5 838 57
	movl	8(%ebp), %eax
	addl	$20, %eax
	.loc 5 838 13
	movl	(%eax), %eax
	movl	%edx, 8(%esp)
	movl	%eax, 4(%esp)
	movl	-4(%ebp), %eax
	movl	%eax, (%esp)
	call	_MultiplyAndAdd1Word_using_ADCX_MULX
	movl	%eax, -4(%ebp)
	.loc 5 839 13
	movl	8(%ebp), %eax
	leal	24(%eax), %edx
	.loc 5 839 57
	movl	8(%ebp), %eax
	addl	$24, %eax
	.loc 5 839 13
	movl	(%eax), %eax
	movl	%edx, 8(%esp)
	movl	%eax, 4(%esp)
	movl	-4(%ebp), %eax
	movl	%eax, (%esp)
	call	_MultiplyAndAdd1Word_using_ADCX_MULX
	movl	%eax, -4(%ebp)
	.loc 5 840 13
	movl	8(%ebp), %eax
	leal	28(%eax), %edx
	.loc 5 840 57
	movl	8(%ebp), %eax
	addl	$28, %eax
	.loc 5 840 13
	movl	(%eax), %eax
	movl	%edx, 8(%esp)
	movl	%eax, 4(%esp)
	movl	-4(%ebp), %eax
	movl	%eax, (%esp)
	call	_MultiplyAndAdd1Word_using_ADCX_MULX
	movl	%eax, -4(%ebp)
	.loc 5 841 13
	movl	8(%ebp), %eax
	leal	32(%eax), %edx
	.loc 5 841 57
	movl	8(%ebp), %eax
	addl	$32, %eax
	.loc 5 841 13
	movl	(%eax), %eax
	movl	%edx, 8(%esp)
	movl	%eax, 4(%esp)
	movl	-4(%ebp), %eax
	movl	%eax, (%esp)
	call	_MultiplyAndAdd1Word_using_ADCX_MULX
	movl	%eax, -4(%ebp)
	.loc 5 842 13
	movl	8(%ebp), %eax
	leal	36(%eax), %edx
	.loc 5 842 57
	movl	8(%ebp), %eax
	addl	$36, %eax
	.loc 5 842 13
	movl	(%eax), %eax
	movl	%edx, 8(%esp)
	movl	%eax, 4(%esp)
	movl	-4(%ebp), %eax
	movl	%eax, (%esp)
	call	_MultiplyAndAdd1Word_using_ADCX_MULX
	movl	%eax, -4(%ebp)
	.loc 5 843 13
	movl	8(%ebp), %eax
	leal	40(%eax), %edx
	.loc 5 843 57
	movl	8(%ebp), %eax
	addl	$40, %eax
	.loc 5 843 13
	movl	(%eax), %eax
	movl	%edx, 8(%esp)
	movl	%eax, 4(%esp)
	movl	-4(%ebp), %eax
	movl	%eax, (%esp)
	call	_MultiplyAndAdd1Word_using_ADCX_MULX
	movl	%eax, -4(%ebp)
	.loc 5 844 13
	movl	8(%ebp), %eax
	leal	44(%eax), %edx
	.loc 5 844 57
	movl	8(%ebp), %eax
	addl	$44, %eax
	.loc 5 844 13
	movl	(%eax), %eax
	movl	%edx, 8(%esp)
	movl	%eax, 4(%esp)
	movl	-4(%ebp), %eax
	movl	%eax, (%esp)
	call	_MultiplyAndAdd1Word_using_ADCX_MULX
	movl	%eax, -4(%ebp)
	.loc 5 845 13
	movl	8(%ebp), %eax
	leal	48(%eax), %edx
	.loc 5 845 57
	movl	8(%ebp), %eax
	addl	$48, %eax
	.loc 5 845 13
	movl	(%eax), %eax
	movl	%edx, 8(%esp)
	movl	%eax, 4(%esp)
	movl	-4(%ebp), %eax
	movl	%eax, (%esp)
	call	_MultiplyAndAdd1Word_using_ADCX_MULX
	movl	%eax, -4(%ebp)
	.loc 5 846 13
	movl	8(%ebp), %eax
	leal	52(%eax), %edx
	.loc 5 846 57
	movl	8(%ebp), %eax
	addl	$52, %eax
	.loc 5 846 13
	movl	(%eax), %eax
	movl	%edx, 8(%esp)
	movl	%eax, 4(%esp)
	movl	-4(%ebp), %eax
	movl	%eax, (%esp)
	call	_MultiplyAndAdd1Word_using_ADCX_MULX
	movl	%eax, -4(%ebp)
	.loc 5 847 13
	movl	8(%ebp), %eax
	leal	56(%eax), %edx
	.loc 5 847 57
	movl	8(%ebp), %eax
	addl	$56, %eax
	.loc 5 847 13
	movl	(%eax), %eax
	movl	%edx, 8(%esp)
	movl	%eax, 4(%esp)
	movl	-4(%ebp), %eax
	movl	%eax, (%esp)
	call	_MultiplyAndAdd1Word_using_ADCX_MULX
	movl	%eax, -4(%ebp)
	.loc 5 848 13
	movl	8(%ebp), %eax
	leal	60(%eax), %edx
	.loc 5 848 57
	movl	8(%ebp), %eax
	addl	$60, %eax
	.loc 5 848 13
	movl	(%eax), %eax
	movl	%edx, 8(%esp)
	movl	%eax, 4(%esp)
	movl	-4(%ebp), %eax
	movl	%eax, (%esp)
	call	_MultiplyAndAdd1Word_using_ADCX_MULX
	movl	%eax, -4(%ebp)
	.loc 5 849 13
	movl	8(%ebp), %eax
	leal	64(%eax), %edx
	.loc 5 849 57
	movl	8(%ebp), %eax
	addl	$64, %eax
	.loc 5 849 13
	movl	(%eax), %eax
	movl	%edx, 8(%esp)
	movl	%eax, 4(%esp)
	movl	-4(%ebp), %eax
	movl	%eax, (%esp)
	call	_MultiplyAndAdd1Word_using_ADCX_MULX
	movl	%eax, -4(%ebp)
	.loc 5 850 13
	movl	8(%ebp), %eax
	leal	68(%eax), %edx
	.loc 5 850 57
	movl	8(%ebp), %eax
	addl	$68, %eax
	.loc 5 850 13
	movl	(%eax), %eax
	movl	%edx, 8(%esp)
	movl	%eax, 4(%esp)
	movl	-4(%ebp), %eax
	movl	%eax, (%esp)
	call	_MultiplyAndAdd1Word_using_ADCX_MULX
	movl	%eax, -4(%ebp)
	.loc 5 851 13
	movl	8(%ebp), %eax
	leal	72(%eax), %edx
	.loc 5 851 57
	movl	8(%ebp), %eax
	addl	$72, %eax
	.loc 5 851 13
	movl	(%eax), %eax
	movl	%edx, 8(%esp)
	movl	%eax, 4(%esp)
	movl	-4(%ebp), %eax
	movl	%eax, (%esp)
	call	_MultiplyAndAdd1Word_using_ADCX_MULX
	movl	%eax, -4(%ebp)
	.loc 5 852 13
	movl	8(%ebp), %eax
	leal	76(%eax), %edx
	.loc 5 852 57
	movl	8(%ebp), %eax
	addl	$76, %eax
	.loc 5 852 13
	movl	(%eax), %eax
	movl	%edx, 8(%esp)
	movl	%eax, 4(%esp)
	movl	-4(%ebp), %eax
	movl	%eax, (%esp)
	call	_MultiplyAndAdd1Word_using_ADCX_MULX
	movl	%eax, -4(%ebp)
	.loc 5 853 13
	movl	8(%ebp), %eax
	leal	80(%eax), %edx
	.loc 5 853 57
	movl	8(%ebp), %eax
	addl	$80, %eax
	.loc 5 853 13
	movl	(%eax), %eax
	movl	%edx, 8(%esp)
	movl	%eax, 4(%esp)
	movl	-4(%ebp), %eax
	movl	%eax, (%esp)
	call	_MultiplyAndAdd1Word_using_ADCX_MULX
	movl	%eax, -4(%ebp)
	.loc 5 854 13
	movl	8(%ebp), %eax
	leal	84(%eax), %edx
	.loc 5 854 57
	movl	8(%ebp), %eax
	addl	$84, %eax
	.loc 5 854 13
	movl	(%eax), %eax
	movl	%edx, 8(%esp)
	movl	%eax, 4(%esp)
	movl	-4(%ebp), %eax
	movl	%eax, (%esp)
	call	_MultiplyAndAdd1Word_using_ADCX_MULX
	movl	%eax, -4(%ebp)
	.loc 5 855 13
	movl	8(%ebp), %eax
	leal	88(%eax), %edx
	.loc 5 855 57
	movl	8(%ebp), %eax
	addl	$88, %eax
	.loc 5 855 13
	movl	(%eax), %eax
	movl	%edx, 8(%esp)
	movl	%eax, 4(%esp)
	movl	-4(%ebp), %eax
	movl	%eax, (%esp)
	call	_MultiplyAndAdd1Word_using_ADCX_MULX
	movl	%eax, -4(%ebp)
	.loc 5 856 13
	movl	8(%ebp), %eax
	leal	92(%eax), %edx
	.loc 5 856 57
	movl	8(%ebp), %eax
	addl	$92, %eax
	.loc 5 856 13
	movl	(%eax), %eax
	movl	%edx, 8(%esp)
	movl	%eax, 4(%esp)
	movl	-4(%ebp), %eax
	movl	%eax, (%esp)
	call	_MultiplyAndAdd1Word_using_ADCX_MULX
	movl	%eax, -4(%ebp)
	.loc 5 857 13
	movl	8(%ebp), %eax
	leal	96(%eax), %edx
	.loc 5 857 57
	movl	8(%ebp), %eax
	addl	$96, %eax
	.loc 5 857 13
	movl	(%eax), %eax
	movl	%edx, 8(%esp)
	movl	%eax, 4(%esp)
	movl	-4(%ebp), %eax
	movl	%eax, (%esp)
	call	_MultiplyAndAdd1Word_using_ADCX_MULX
	movl	%eax, -4(%ebp)
	.loc 5 858 13
	movl	8(%ebp), %eax
	leal	100(%eax), %edx
	.loc 5 858 57
	movl	8(%ebp), %eax
	addl	$100, %eax
	.loc 5 858 13
	movl	(%eax), %eax
	movl	%edx, 8(%esp)
	movl	%eax, 4(%esp)
	movl	-4(%ebp), %eax
	movl	%eax, (%esp)
	call	_MultiplyAndAdd1Word_using_ADCX_MULX
	movl	%eax, -4(%ebp)
	.loc 5 859 13
	movl	8(%ebp), %eax
	leal	104(%eax), %edx
	.loc 5 859 57
	movl	8(%ebp), %eax
	addl	$104, %eax
	.loc 5 859 13
	movl	(%eax), %eax
	movl	%edx, 8(%esp)
	movl	%eax, 4(%esp)
	movl	-4(%ebp), %eax
	movl	%eax, (%esp)
	call	_MultiplyAndAdd1Word_using_ADCX_MULX
	movl	%eax, -4(%ebp)
	.loc 5 860 13
	movl	8(%ebp), %eax
	leal	108(%eax), %edx
	.loc 5 860 57
	movl	8(%ebp), %eax
	addl	$108, %eax
	.loc 5 860 13
	movl	(%eax), %eax
	movl	%edx, 8(%esp)
	movl	%eax, 4(%esp)
	movl	-4(%ebp), %eax
	movl	%eax, (%esp)
	call	_MultiplyAndAdd1Word_using_ADCX_MULX
	movl	%eax, -4(%ebp)
	.loc 5 861 13
	movl	8(%ebp), %eax
	leal	112(%eax), %edx
	.loc 5 861 57
	movl	8(%ebp), %eax
	addl	$112, %eax
	.loc 5 861 13
	movl	(%eax), %eax
	movl	%edx, 8(%esp)
	movl	%eax, 4(%esp)
	movl	-4(%ebp), %eax
	movl	%eax, (%esp)
	call	_MultiplyAndAdd1Word_using_ADCX_MULX
	movl	%eax, -4(%ebp)
	.loc 5 862 13
	movl	8(%ebp), %eax
	leal	116(%eax), %edx
	.loc 5 862 57
	movl	8(%ebp), %eax
	addl	$116, %eax
	.loc 5 862 13
	movl	(%eax), %eax
	movl	%edx, 8(%esp)
	movl	%eax, 4(%esp)
	movl	-4(%ebp), %eax
	movl	%eax, (%esp)
	call	_MultiplyAndAdd1Word_using_ADCX_MULX
	movl	%eax, -4(%ebp)
	.loc 5 863 13
	movl	8(%ebp), %eax
	leal	120(%eax), %edx
	.loc 5 863 57
	movl	8(%ebp), %eax
	addl	$120, %eax
	.loc 5 863 13
	movl	(%eax), %eax
	movl	%edx, 8(%esp)
	movl	%eax, 4(%esp)
	movl	-4(%ebp), %eax
	movl	%eax, (%esp)
	call	_MultiplyAndAdd1Word_using_ADCX_MULX
	movl	%eax, -4(%ebp)
	.loc 5 864 13
	movl	8(%ebp), %eax
	leal	124(%eax), %edx
	.loc 5 864 57
	movl	8(%ebp), %eax
	addl	$124, %eax
	.loc 5 864 13
	movl	(%eax), %eax
	movl	%edx, 8(%esp)
	movl	%eax, 4(%esp)
	movl	-4(%ebp), %eax
	movl	%eax, (%esp)
	call	_MultiplyAndAdd1Word_using_ADCX_MULX
	movl	%eax, -4(%ebp)
	.loc 5 865 15
	subl	$-128, 8(%ebp)
	.loc 5 866 9
	subl	$1, -8(%ebp)
	.loc 5 869 13
	movl	$32, (%esp)
	call	_AddToMULTI32Counter
L194:
	.loc 5 831 11
	cmpl	$0, -8(%ebp)
	jne	L195
	.loc 5 875 17
	movl	12(%ebp), %eax
	andl	$16, %eax
	.loc 5 875 8
	testl	%eax, %eax
	je	L196
	.loc 5 877 13
	movl	8(%ebp), %eax
	movl	(%eax), %eax
	movl	8(%ebp), %edx
	movl	%edx, 8(%esp)
	movl	%eax, 4(%esp)
	movl	-4(%ebp), %eax
	movl	%eax, (%esp)
	call	_MultiplyAndAdd1Word_using_ADCX_MULX
	movl	%eax, -4(%ebp)
	.loc 5 878 13
	movl	8(%ebp), %eax
	leal	4(%eax), %edx
	.loc 5 878 57
	movl	8(%ebp), %eax
	addl	$4, %eax
	.loc 5 878 13
	movl	(%eax), %eax
	movl	%edx, 8(%esp)
	movl	%eax, 4(%esp)
	movl	-4(%ebp), %eax
	movl	%eax, (%esp)
	call	_MultiplyAndAdd1Word_using_ADCX_MULX
	movl	%eax, -4(%ebp)
	.loc 5 879 13
	movl	8(%ebp), %eax
	leal	8(%eax), %edx
	.loc 5 879 57
	movl	8(%ebp), %eax
	addl	$8, %eax
	.loc 5 879 13
	movl	(%eax), %eax
	movl	%edx, 8(%esp)
	movl	%eax, 4(%esp)
	movl	-4(%ebp), %eax
	movl	%eax, (%esp)
	call	_MultiplyAndAdd1Word_using_ADCX_MULX
	movl	%eax, -4(%ebp)
	.loc 5 880 13
	movl	8(%ebp), %eax
	leal	12(%eax), %edx
	.loc 5 880 57
	movl	8(%ebp), %eax
	addl	$12, %eax
	.loc 5 880 13
	movl	(%eax), %eax
	movl	%edx, 8(%esp)
	movl	%eax, 4(%esp)
	movl	-4(%ebp), %eax
	movl	%eax, (%esp)
	call	_MultiplyAndAdd1Word_using_ADCX_MULX
	movl	%eax, -4(%ebp)
	.loc 5 881 13
	movl	8(%ebp), %eax
	leal	16(%eax), %edx
	.loc 5 881 57
	movl	8(%ebp), %eax
	addl	$16, %eax
	.loc 5 881 13
	movl	(%eax), %eax
	movl	%edx, 8(%esp)
	movl	%eax, 4(%esp)
	movl	-4(%ebp), %eax
	movl	%eax, (%esp)
	call	_MultiplyAndAdd1Word_using_ADCX_MULX
	movl	%eax, -4(%ebp)
	.loc 5 882 13
	movl	8(%ebp), %eax
	leal	20(%eax), %edx
	.loc 5 882 57
	movl	8(%ebp), %eax
	addl	$20, %eax
	.loc 5 882 13
	movl	(%eax), %eax
	movl	%edx, 8(%esp)
	movl	%eax, 4(%esp)
	movl	-4(%ebp), %eax
	movl	%eax, (%esp)
	call	_MultiplyAndAdd1Word_using_ADCX_MULX
	movl	%eax, -4(%ebp)
	.loc 5 883 13
	movl	8(%ebp), %eax
	leal	24(%eax), %edx
	.loc 5 883 57
	movl	8(%ebp), %eax
	addl	$24, %eax
	.loc 5 883 13
	movl	(%eax), %eax
	movl	%edx, 8(%esp)
	movl	%eax, 4(%esp)
	movl	-4(%ebp), %eax
	movl	%eax, (%esp)
	call	_MultiplyAndAdd1Word_using_ADCX_MULX
	movl	%eax, -4(%ebp)
	.loc 5 884 13
	movl	8(%ebp), %eax
	leal	28(%eax), %edx
	.loc 5 884 57
	movl	8(%ebp), %eax
	addl	$28, %eax
	.loc 5 884 13
	movl	(%eax), %eax
	movl	%edx, 8(%esp)
	movl	%eax, 4(%esp)
	movl	-4(%ebp), %eax
	movl	%eax, (%esp)
	call	_MultiplyAndAdd1Word_using_ADCX_MULX
	movl	%eax, -4(%ebp)
	.loc 5 885 13
	movl	8(%ebp), %eax
	leal	32(%eax), %edx
	.loc 5 885 57
	movl	8(%ebp), %eax
	addl	$32, %eax
	.loc 5 885 13
	movl	(%eax), %eax
	movl	%edx, 8(%esp)
	movl	%eax, 4(%esp)
	movl	-4(%ebp), %eax
	movl	%eax, (%esp)
	call	_MultiplyAndAdd1Word_using_ADCX_MULX
	movl	%eax, -4(%ebp)
	.loc 5 886 13
	movl	8(%ebp), %eax
	leal	36(%eax), %edx
	.loc 5 886 57
	movl	8(%ebp), %eax
	addl	$36, %eax
	.loc 5 886 13
	movl	(%eax), %eax
	movl	%edx, 8(%esp)
	movl	%eax, 4(%esp)
	movl	-4(%ebp), %eax
	movl	%eax, (%esp)
	call	_MultiplyAndAdd1Word_using_ADCX_MULX
	movl	%eax, -4(%ebp)
	.loc 5 887 13
	movl	8(%ebp), %eax
	leal	40(%eax), %edx
	.loc 5 887 57
	movl	8(%ebp), %eax
	addl	$40, %eax
	.loc 5 887 13
	movl	(%eax), %eax
	movl	%edx, 8(%esp)
	movl	%eax, 4(%esp)
	movl	-4(%ebp), %eax
	movl	%eax, (%esp)
	call	_MultiplyAndAdd1Word_using_ADCX_MULX
	movl	%eax, -4(%ebp)
	.loc 5 888 13
	movl	8(%ebp), %eax
	leal	44(%eax), %edx
	.loc 5 888 57
	movl	8(%ebp), %eax
	addl	$44, %eax
	.loc 5 888 13
	movl	(%eax), %eax
	movl	%edx, 8(%esp)
	movl	%eax, 4(%esp)
	movl	-4(%ebp), %eax
	movl	%eax, (%esp)
	call	_MultiplyAndAdd1Word_using_ADCX_MULX
	movl	%eax, -4(%ebp)
	.loc 5 889 13
	movl	8(%ebp), %eax
	leal	48(%eax), %edx
	.loc 5 889 57
	movl	8(%ebp), %eax
	addl	$48, %eax
	.loc 5 889 13
	movl	(%eax), %eax
	movl	%edx, 8(%esp)
	movl	%eax, 4(%esp)
	movl	-4(%ebp), %eax
	movl	%eax, (%esp)
	call	_MultiplyAndAdd1Word_using_ADCX_MULX
	movl	%eax, -4(%ebp)
	.loc 5 890 13
	movl	8(%ebp), %eax
	leal	52(%eax), %edx
	.loc 5 890 57
	movl	8(%ebp), %eax
	addl	$52, %eax
	.loc 5 890 13
	movl	(%eax), %eax
	movl	%edx, 8(%esp)
	movl	%eax, 4(%esp)
	movl	-4(%ebp), %eax
	movl	%eax, (%esp)
	call	_MultiplyAndAdd1Word_using_ADCX_MULX
	movl	%eax, -4(%ebp)
	.loc 5 891 13
	movl	8(%ebp), %eax
	leal	56(%eax), %edx
	.loc 5 891 57
	movl	8(%ebp), %eax
	addl	$56, %eax
	.loc 5 891 13
	movl	(%eax), %eax
	movl	%edx, 8(%esp)
	movl	%eax, 4(%esp)
	movl	-4(%ebp), %eax
	movl	%eax, (%esp)
	call	_MultiplyAndAdd1Word_using_ADCX_MULX
	movl	%eax, -4(%ebp)
	.loc 5 892 13
	movl	8(%ebp), %eax
	leal	60(%eax), %edx
	.loc 5 892 57
	movl	8(%ebp), %eax
	addl	$60, %eax
	.loc 5 892 13
	movl	(%eax), %eax
	movl	%edx, 8(%esp)
	movl	%eax, 4(%esp)
	movl	-4(%ebp), %eax
	movl	%eax, (%esp)
	call	_MultiplyAndAdd1Word_using_ADCX_MULX
	movl	%eax, -4(%ebp)
	.loc 5 893 15
	addl	$64, 8(%ebp)
	.loc 5 896 13
	movl	$16, (%esp)
	call	_AddToMULTI32Counter
L196:
	.loc 5 902 17
	movl	12(%ebp), %eax
	andl	$8, %eax
	.loc 5 902 8
	testl	%eax, %eax
	je	L197
	.loc 5 904 13
	movl	8(%ebp), %eax
	movl	(%eax), %eax
	movl	8(%ebp), %edx
	movl	%edx, 8(%esp)
	movl	%eax, 4(%esp)
	movl	-4(%ebp), %eax
	movl	%eax, (%esp)
	call	_MultiplyAndAdd1Word_using_ADCX_MULX
	movl	%eax, -4(%ebp)
	.loc 5 905 13
	movl	8(%ebp), %eax
	leal	4(%eax), %edx
	.loc 5 905 57
	movl	8(%ebp), %eax
	addl	$4, %eax
	.loc 5 905 13
	movl	(%eax), %eax
	movl	%edx, 8(%esp)
	movl	%eax, 4(%esp)
	movl	-4(%ebp), %eax
	movl	%eax, (%esp)
	call	_MultiplyAndAdd1Word_using_ADCX_MULX
	movl	%eax, -4(%ebp)
	.loc 5 906 13
	movl	8(%ebp), %eax
	leal	8(%eax), %edx
	.loc 5 906 57
	movl	8(%ebp), %eax
	addl	$8, %eax
	.loc 5 906 13
	movl	(%eax), %eax
	movl	%edx, 8(%esp)
	movl	%eax, 4(%esp)
	movl	-4(%ebp), %eax
	movl	%eax, (%esp)
	call	_MultiplyAndAdd1Word_using_ADCX_MULX
	movl	%eax, -4(%ebp)
	.loc 5 907 13
	movl	8(%ebp), %eax
	leal	12(%eax), %edx
	.loc 5 907 57
	movl	8(%ebp), %eax
	addl	$12, %eax
	.loc 5 907 13
	movl	(%eax), %eax
	movl	%edx, 8(%esp)
	movl	%eax, 4(%esp)
	movl	-4(%ebp), %eax
	movl	%eax, (%esp)
	call	_MultiplyAndAdd1Word_using_ADCX_MULX
	movl	%eax, -4(%ebp)
	.loc 5 908 13
	movl	8(%ebp), %eax
	leal	16(%eax), %edx
	.loc 5 908 57
	movl	8(%ebp), %eax
	addl	$16, %eax
	.loc 5 908 13
	movl	(%eax), %eax
	movl	%edx, 8(%esp)
	movl	%eax, 4(%esp)
	movl	-4(%ebp), %eax
	movl	%eax, (%esp)
	call	_MultiplyAndAdd1Word_using_ADCX_MULX
	movl	%eax, -4(%ebp)
	.loc 5 909 13
	movl	8(%ebp), %eax
	leal	20(%eax), %edx
	.loc 5 909 57
	movl	8(%ebp), %eax
	addl	$20, %eax
	.loc 5 909 13
	movl	(%eax), %eax
	movl	%edx, 8(%esp)
	movl	%eax, 4(%esp)
	movl	-4(%ebp), %eax
	movl	%eax, (%esp)
	call	_MultiplyAndAdd1Word_using_ADCX_MULX
	movl	%eax, -4(%ebp)
	.loc 5 910 13
	movl	8(%ebp), %eax
	leal	24(%eax), %edx
	.loc 5 910 57
	movl	8(%ebp), %eax
	addl	$24, %eax
	.loc 5 910 13
	movl	(%eax), %eax
	movl	%edx, 8(%esp)
	movl	%eax, 4(%esp)
	movl	-4(%ebp), %eax
	movl	%eax, (%esp)
	call	_MultiplyAndAdd1Word_using_ADCX_MULX
	movl	%eax, -4(%ebp)
	.loc 5 911 13
	movl	8(%ebp), %eax
	leal	28(%eax), %edx
	.loc 5 911 57
	movl	8(%ebp), %eax
	addl	$28, %eax
	.loc 5 911 13
	movl	(%eax), %eax
	movl	%edx, 8(%esp)
	movl	%eax, 4(%esp)
	movl	-4(%ebp), %eax
	movl	%eax, (%esp)
	call	_MultiplyAndAdd1Word_using_ADCX_MULX
	movl	%eax, -4(%ebp)
	.loc 5 912 15
	addl	$32, 8(%ebp)
	.loc 5 915 13
	movl	$8, (%esp)
	call	_AddToMULTI32Counter
L197:
	.loc 5 921 17
	movl	12(%ebp), %eax
	andl	$4, %eax
	.loc 5 921 8
	testl	%eax, %eax
	je	L198
	.loc 5 923 13
	movl	8(%ebp), %eax
	movl	(%eax), %eax
	movl	8(%ebp), %edx
	movl	%edx, 8(%esp)
	movl	%eax, 4(%esp)
	movl	-4(%ebp), %eax
	movl	%eax, (%esp)
	call	_MultiplyAndAdd1Word_using_ADCX_MULX
	movl	%eax, -4(%ebp)
	.loc 5 924 13
	movl	8(%ebp), %eax
	leal	4(%eax), %edx
	.loc 5 924 57
	movl	8(%ebp), %eax
	addl	$4, %eax
	.loc 5 924 13
	movl	(%eax), %eax
	movl	%edx, 8(%esp)
	movl	%eax, 4(%esp)
	movl	-4(%ebp), %eax
	movl	%eax, (%esp)
	call	_MultiplyAndAdd1Word_using_ADCX_MULX
	movl	%eax, -4(%ebp)
	.loc 5 925 13
	movl	8(%ebp), %eax
	leal	8(%eax), %edx
	.loc 5 925 57
	movl	8(%ebp), %eax
	addl	$8, %eax
	.loc 5 925 13
	movl	(%eax), %eax
	movl	%edx, 8(%esp)
	movl	%eax, 4(%esp)
	movl	-4(%ebp), %eax
	movl	%eax, (%esp)
	call	_MultiplyAndAdd1Word_using_ADCX_MULX
	movl	%eax, -4(%ebp)
	.loc 5 926 13
	movl	8(%ebp), %eax
	leal	12(%eax), %edx
	.loc 5 926 57
	movl	8(%ebp), %eax
	addl	$12, %eax
	.loc 5 926 13
	movl	(%eax), %eax
	movl	%edx, 8(%esp)
	movl	%eax, 4(%esp)
	movl	-4(%ebp), %eax
	movl	%eax, (%esp)
	call	_MultiplyAndAdd1Word_using_ADCX_MULX
	movl	%eax, -4(%ebp)
	.loc 5 927 15
	addl	$16, 8(%ebp)
	.loc 5 930 13
	movl	$4, (%esp)
	call	_AddToMULTI32Counter
L198:
	.loc 5 936 17
	movl	12(%ebp), %eax
	andl	$2, %eax
	.loc 5 936 8
	testl	%eax, %eax
	je	L199
	.loc 5 938 13
	movl	8(%ebp), %eax
	movl	(%eax), %eax
	movl	8(%ebp), %edx
	movl	%edx, 8(%esp)
	movl	%eax, 4(%esp)
	movl	-4(%ebp), %eax
	movl	%eax, (%esp)
	call	_MultiplyAndAdd1Word_using_ADCX_MULX
	movl	%eax, -4(%ebp)
	.loc 5 939 13
	movl	8(%ebp), %eax
	leal	4(%eax), %edx
	.loc 5 939 57
	movl	8(%ebp), %eax
	addl	$4, %eax
	.loc 5 939 13
	movl	(%eax), %eax
	movl	%edx, 8(%esp)
	movl	%eax, 4(%esp)
	movl	-4(%ebp), %eax
	movl	%eax, (%esp)
	call	_MultiplyAndAdd1Word_using_ADCX_MULX
	movl	%eax, -4(%ebp)
	.loc 5 940 15
	addl	$8, 8(%ebp)
	.loc 5 943 13
	movl	$2, (%esp)
	call	_AddToMULTI32Counter
L199:
	.loc 5 949 17
	movl	12(%ebp), %eax
	andl	$1, %eax
	.loc 5 949 8
	testl	%eax, %eax
	je	L200
	.loc 5 951 13
	movl	8(%ebp), %eax
	movl	(%eax), %eax
	movl	8(%ebp), %edx
	movl	%edx, 8(%esp)
	movl	%eax, 4(%esp)
	movl	-4(%ebp), %eax
	movl	%eax, (%esp)
	call	_MultiplyAndAdd1Word_using_ADCX_MULX
	movl	%eax, -4(%ebp)
	.loc 5 952 15
	addl	$4, 8(%ebp)
	.loc 5 955 13
	call	_IncrementMULTI32Counter
L200:
	.loc 5 961 8
	cmpl	$0, -4(%ebp)
	je	L201
	.loc 5 963 18
	movl	8(%ebp), %eax
	movl	-4(%ebp), %edx
	movl	%edx, (%eax)
	.loc 5 964 15
	addl	$4, 8(%ebp)
L201:
	.loc 5 967 12
	movl	8(%ebp), %eax
	.loc 5 968 1
	leave
	.cfi_restore 5
	.cfi_def_cfa 4, 4
	ret
	.cfi_endproc
LFE4260:
	.def	_ConvertCardinalNumber;	.scl	3;	.type	32;	.endef
_ConvertCardinalNumber:
LFB4261:
	.loc 5 971 1
	.cfi_startproc
	pushl	%ebp
	.cfi_def_cfa_offset 8
	.cfi_offset 5, -8
	movl	%esp, %ebp
	.cfi_def_cfa_register 5
	subl	$56, %esp
	.loc 5 975 29
	movl	12(%ebp), %eax
	addl	$1, %eax
	sall	$5, %eax
	movl	%eax, %edx
	leal	-28(%ebp), %eax
	movl	%eax, 8(%esp)
	leal	-32(%ebp), %eax
	movl	%eax, 4(%esp)
	movl	%edx, (%esp)
	call	_AllocateBlock
	movl	%eax, -16(%ebp)
	.loc 5 976 8
	cmpl	$0, -16(%ebp)
	jne	L204
	.loc 5 977 16
	movl	$-6, %eax
	jmp	L209
L204:
	.loc 5 979 17
	movl	$1, -12(%ebp)
	.loc 5 980 25
	movl	8(%ebp), %eax
	movl	(%eax), %edx
	.loc 5 980 17
	movl	-16(%ebp), %eax
	movl	%edx, (%eax)
	.loc 5 981 5
	addl	$4, 8(%ebp)
	.loc 5 982 5
	subl	$1, 12(%ebp)
	.loc 5 984 11
	jmp	L206
L207:
LBB22:
	.loc 5 986 32
	movl	_fp_MultiplyAndAdd, %eax
	movl	8(%ebp), %edx
	movl	(%edx), %edx
	movl	%edx, 8(%esp)
	movl	-12(%ebp), %edx
	movl	%edx, 4(%esp)
	movl	-16(%ebp), %edx
	movl	%edx, (%esp)
	call	*%eax
LVL11:
	movl	%eax, -20(%ebp)
	.loc 5 987 33
	movl	-20(%ebp), %eax
	subl	-16(%ebp), %eax
	sarl	$2, %eax
	.loc 5 987 24
	movl	%eax, -12(%ebp)
	.loc 5 988 9
	addl	$4, 8(%ebp)
	.loc 5 989 9
	subl	$1, 12(%ebp)
L206:
LBE22:
	.loc 5 984 11
	cmpl	$0, 12(%ebp)
	jne	L207
	.loc 5 991 19
	movl	-28(%ebp), %eax
	movl	%eax, 4(%esp)
	movl	-16(%ebp), %eax
	movl	%eax, (%esp)
	call	_CheckBlockLight
	movl	%eax, -24(%ebp)
	.loc 5 991 8
	cmpl	$0, -24(%ebp)
	je	L208
	.loc 5 992 16
	movl	-24(%ebp), %eax
	jmp	L209
L208:
	.loc 5 993 5
	movl	-12(%ebp), %eax
	movl	%eax, 8(%esp)
	movl	-16(%ebp), %eax
	movl	%eax, 4(%esp)
	movl	16(%ebp), %eax
	movl	%eax, (%esp)
	call	__COPY_MEMORY_UNIT
	.loc 5 994 5
	movl	-32(%ebp), %eax
	movl	%eax, 4(%esp)
	movl	-16(%ebp), %eax
	movl	%eax, (%esp)
	call	_DeallocateBlock
	.loc 5 995 12
	movl	$0, %eax
L209:
	.loc 5 996 1 discriminator 1
	leave
	.cfi_restore 5
	.cfi_def_cfa 4, 4
	ret
	.cfi_endproc
LFE4261:
	.def	_TryParseDN;	.scl	3;	.type	32;	.endef
_TryParseDN:
LFB4262:
	.loc 5 999 1
	.cfi_startproc
	pushl	%ebp
	.cfi_def_cfa_offset 8
	.cfi_offset 5, -8
	movl	%esp, %ebp
	.cfi_def_cfa_register 5
	pushl	%ebx
	subl	$116, %esp
	.cfi_offset 3, -12
	.loc 5 1002 9
	movl	$9, -24(%ebp)
	.loc 5 1008 30
	movl	8(%ebp), %eax
	movl	%eax, (%esp)
	movl	__imp__lstrlenW@4, %eax
	call	*%eax
LVL12:
	subl	$4, %esp
	.loc 5 1008 17
	movl	%eax, -28(%ebp)
	.loc 5 1012 39
	movl	-28(%ebp), %eax
	addl	$1, %eax
	sall	$4, %eax
	movl	%eax, %edx
	leal	-56(%ebp), %eax
	movl	%eax, 8(%esp)
	leal	-60(%ebp), %eax
	movl	%eax, 4(%esp)
	movl	%edx, (%esp)
	call	_AllocateBlock
	movl	%eax, -32(%ebp)
	.loc 5 1013 8
	cmpl	$0, -32(%ebp)
	jne	L211
	.loc 5 1014 16
	movl	$-6, %eax
	jmp	L237
L211:
	.loc 5 1018 40
	movl	-28(%ebp), %eax
	addl	$1, %eax
	sall	$4, %eax
	movl	%eax, %edx
	leal	-64(%ebp), %eax
	movl	%eax, 8(%esp)
	leal	-68(%ebp), %eax
	movl	%eax, 4(%esp)
	movl	%edx, (%esp)
	call	_AllocateBlock
	movl	%eax, -36(%ebp)
	.loc 5 1019 8
	cmpl	$0, -36(%ebp)
	jne	L213
	.loc 5 1021 9
	movl	-60(%ebp), %eax
	movl	%eax, 4(%esp)
	movl	-32(%ebp), %eax
	movl	%eax, (%esp)
	call	_DeallocateBlock
	.loc 5 1022 16
	movl	$-6, %eax
	jmp	L237
L213:
	.loc 5 1024 26
	movl	-36(%ebp), %eax
	movl	%eax, 20(%esp)
	movl	-32(%ebp), %eax
	movl	%eax, 16(%esp)
	movl	20(%ebp), %eax
	movl	%eax, 12(%esp)
	movl	16(%ebp), %eax
	movl	%eax, 8(%esp)
	movl	12(%ebp), %eax
	movl	%eax, 4(%esp)
	movl	8(%ebp), %eax
	movl	%eax, (%esp)
	call	_ParseAsDecimalNumberString
	movl	%eax, -40(%ebp)
	.loc 5 1025 19
	movl	-56(%ebp), %eax
	movl	%eax, 4(%esp)
	movl	-32(%ebp), %eax
	movl	%eax, (%esp)
	call	_CheckBlockLight
	movl	%eax, -44(%ebp)
	.loc 5 1025 8
	cmpl	$0, -44(%ebp)
	je	L214
	.loc 5 1026 16
	movl	-44(%ebp), %eax
	jmp	L237
L214:
	.loc 5 1027 19
	movl	-64(%ebp), %eax
	movl	%eax, 4(%esp)
	movl	-36(%ebp), %eax
	movl	%eax, (%esp)
	call	_CheckBlockLight
	movl	%eax, -44(%ebp)
	.loc 5 1027 8
	cmpl	$0, -44(%ebp)
	je	L215
	.loc 5 1028 16
	movl	-44(%ebp), %eax
	jmp	L237
L215:
	.loc 5 1029 8
	cmpl	$0, -40(%ebp)
	jne	L216
	.loc 5 1031 9
	movl	-68(%ebp), %eax
	movl	%eax, 4(%esp)
	movl	-36(%ebp), %eax
	movl	%eax, (%esp)
	call	_DeallocateBlock
	.loc 5 1032 9
	movl	-60(%ebp), %eax
	movl	%eax, 4(%esp)
	movl	-32(%ebp), %eax
	movl	%eax, (%esp)
	call	_DeallocateBlock
	.loc 5 1033 16
	movl	$1, %eax
	jmp	L237
L216:
	.loc 5 1036 21
	movl	-32(%ebp), %eax
	movzwl	(%eax), %eax
	.loc 5 1036 8
	testw	%ax, %ax
	jne	L217
	.loc 5 1036 50 discriminator 1
	movl	-36(%ebp), %eax
	movzwl	(%eax), %eax
	.loc 5 1036 34 discriminator 1
	testw	%ax, %ax
	jne	L217
	.loc 5 1038 9
	movl	-68(%ebp), %eax
	movl	%eax, 4(%esp)
	movl	-36(%ebp), %eax
	movl	%eax, (%esp)
	call	_DeallocateBlock
	.loc 5 1039 9
	movl	-60(%ebp), %eax
	movl	%eax, 4(%esp)
	movl	-32(%ebp), %eax
	movl	%eax, (%esp)
	call	_DeallocateBlock
	.loc 5 1040 16
	movl	$1, %eax
	jmp	L237
L217:
	.loc 5 1043 21
	movl	-32(%ebp), %eax
	movzwl	(%eax), %eax
	.loc 5 1043 8
	cmpw	$48, %ax
	jne	L218
LBB23:
	.loc 5 1046 18
	movl	-32(%ebp), %eax
	movl	%eax, -12(%ebp)
	.loc 5 1047 18
	movl	-32(%ebp), %eax
	movl	%eax, -16(%ebp)
	.loc 5 1048 15
	jmp	L219
L220:
	.loc 5 1049 13
	addl	$2, -12(%ebp)
L219:
	.loc 5 1048 16
	movl	-12(%ebp), %eax
	movzwl	(%eax), %eax
	.loc 5 1048 15
	cmpw	$48, %ax
	je	L220
L222:
	.loc 5 1052 22
	movl	-12(%ebp), %eax
	movzwl	(%eax), %edx
	.loc 5 1052 20
	movl	-16(%ebp), %eax
	movw	%dx, (%eax)
	.loc 5 1053 17
	movl	-12(%ebp), %eax
	movzwl	(%eax), %eax
	.loc 5 1053 16
	testw	%ax, %ax
	je	L238
	.loc 5 1055 13
	addl	$2, -12(%ebp)
	.loc 5 1056 13
	addl	$2, -16(%ebp)
	.loc 5 1052 20
	jmp	L222
L238:
	.loc 5 1054 17
	nop
L218:
LBE23:
	.loc 5 1061 41
	movl	-36(%ebp), %eax
	movl	%eax, (%esp)
	movl	__imp__lstrlenW@4, %eax
	call	*%eax
LVL13:
	subl	$4, %esp
	.loc 5 1061 39
	leal	(%eax,%eax), %edx
	.loc 5 1061 14
	movl	-36(%ebp), %eax
	addl	%edx, %eax
	movl	%eax, -20(%ebp)
	.loc 5 1062 11
	jmp	L223
L225:
	.loc 5 1063 9
	subl	$2, -20(%ebp)
L223:
	.loc 5 1062 11
	movl	-20(%ebp), %eax
	cmpl	-36(%ebp), %eax
	jbe	L224
	.loc 5 1062 48 discriminator 1
	movl	-20(%ebp), %eax
	subl	$2, %eax
	movzwl	(%eax), %eax
	.loc 5 1062 37 discriminator 1
	cmpw	$48, %ax
	je	L225
L224:
	.loc 5 1064 15
	movl	-20(%ebp), %eax
	movw	$0, (%eax)
	.loc 5 1067 22
	movl	-36(%ebp), %eax
	movzwl	(%eax), %eax
	.loc 5 1067 8
	testw	%ax, %ax
	je	L226
	.loc 5 1069 9
	movl	-68(%ebp), %eax
	movl	%eax, 4(%esp)
	movl	-36(%ebp), %eax
	movl	%eax, (%esp)
	call	_DeallocateBlock
	.loc 5 1070 9
	movl	-60(%ebp), %eax
	movl	%eax, 4(%esp)
	movl	-32(%ebp), %eax
	movl	%eax, (%esp)
	call	_DeallocateBlock
	.loc 5 1071 16
	movl	$1, %eax
	jmp	L237
L226:
	.loc 5 1074 21
	movl	-32(%ebp), %eax
	movzwl	(%eax), %eax
	.loc 5 1074 8
	testw	%ax, %ax
	jne	L227
	.loc 5 1079 17
	movl	20(%ebp), %eax
	movb	$0, (%eax)
	.loc 5 1082 25
	movl	-32(%ebp), %eax
	movw	$48, (%eax)
	.loc 5 1083 21
	movl	-32(%ebp), %eax
	addl	$2, %eax
	.loc 5 1083 25
	movw	$0, (%eax)
L227:
	.loc 5 1087 5
	movl	-68(%ebp), %eax
	movl	%eax, 4(%esp)
	movl	-36(%ebp), %eax
	movl	%eax, (%esp)
	call	_DeallocateBlock
	.loc 5 1091 42
	movl	-24(%ebp), %ebx
	.loc 5 1091 63
	movl	-32(%ebp), %eax
	movl	%eax, (%esp)
	movl	__imp__lstrlenW@4, %eax
	call	*%eax
LVL14:
	subl	$4, %esp
	.loc 5 1091 42
	movl	%ebx, 4(%esp)
	movl	%eax, (%esp)
	call	__DIVIDE_CEILING_SIZE
	.loc 5 1091 28
	sall	$5, %eax
	movl	%eax, %edx
	leal	-72(%ebp), %eax
	movl	%eax, 8(%esp)
	leal	-76(%ebp), %eax
	movl	%eax, 4(%esp)
	movl	%edx, (%esp)
	call	_AllocateBlock
	movl	%eax, -48(%ebp)
	.loc 5 1092 8
	cmpl	$0, -48(%ebp)
	jne	L228
	.loc 5 1094 9
	movl	-60(%ebp), %eax
	movl	%eax, 4(%esp)
	movl	-32(%ebp), %eax
	movl	%eax, (%esp)
	call	_DeallocateBlock
	.loc 5 1095 16
	movl	$-6, %eax
	jmp	L237
L228:
	.loc 5 1098 5
	leal	-80(%ebp), %eax
	movl	%eax, 8(%esp)
	movl	-48(%ebp), %eax
	movl	%eax, 4(%esp)
	movl	-32(%ebp), %eax
	movl	%eax, (%esp)
	call	_BuildBinaryFromDecimalString
	.loc 5 1099 19
	movl	-72(%ebp), %eax
	movl	%eax, 4(%esp)
	movl	-48(%ebp), %eax
	movl	%eax, (%esp)
	call	_CheckBlockLight
	movl	%eax, -44(%ebp)
	.loc 5 1099 8
	cmpl	$0, -44(%ebp)
	je	L229
	.loc 5 1100 16
	movl	-44(%ebp), %eax
	jmp	L237
L229:
	.loc 5 1101 5
	movl	-60(%ebp), %eax
	movl	%eax, 4(%esp)
	movl	-32(%ebp), %eax
	movl	%eax, (%esp)
	call	_DeallocateBlock
	.loc 5 1103 45
	movl	-80(%ebp), %eax
	.loc 5 1103 17
	sall	$5, %eax
	movl	%eax, -52(%ebp)
	.loc 5 1105 19
	leal	-84(%ebp), %eax
	movl	%eax, 8(%esp)
	movl	-52(%ebp), %eax
	movl	%eax, 4(%esp)
	movl	24(%ebp), %eax
	movl	%eax, (%esp)
	call	_AllocateNumber
	movl	%eax, -44(%ebp)
	.loc 5 1105 8
	cmpl	$0, -44(%ebp)
	je	L230
	.loc 5 1107 9
	movl	-76(%ebp), %eax
	movl	%eax, 4(%esp)
	movl	-48(%ebp), %eax
	movl	%eax, (%esp)
	call	_DeallocateBlock
	.loc 5 1108 16
	movl	-44(%ebp), %eax
	jmp	L237
L230:
	.loc 5 1111 66
	movl	24(%ebp), %eax
	movl	(%eax), %eax
	.loc 5 1111 19
	movl	36(%eax), %edx
	movl	-80(%ebp), %eax
	movl	%edx, 8(%esp)
	movl	%eax, 4(%esp)
	movl	-48(%ebp), %eax
	movl	%eax, (%esp)
	call	_ConvertCardinalNumber
	movl	%eax, -44(%ebp)
	.loc 5 1111 8
	cmpl	$0, -44(%ebp)
	je	L231
	.loc 5 1113 9
	movl	24(%ebp), %eax
	movl	(%eax), %eax
	movl	%eax, (%esp)
	call	_DeallocateNumber
	.loc 5 1114 9
	movl	-76(%ebp), %eax
	movl	%eax, 4(%esp)
	movl	-48(%ebp), %eax
	movl	%eax, (%esp)
	call	_DeallocateBlock
	.loc 5 1115 16
	movl	-44(%ebp), %eax
	jmp	L237
L231:
	.loc 5 1117 19
	movl	-84(%ebp), %edx
	.loc 5 1117 36
	movl	24(%ebp), %eax
	movl	(%eax), %eax
	.loc 5 1117 19
	movl	36(%eax), %eax
	movl	%edx, 4(%esp)
	movl	%eax, (%esp)
	call	_CheckBlockLight
	movl	%eax, -44(%ebp)
	.loc 5 1117 8
	cmpl	$0, -44(%ebp)
	je	L232
	.loc 5 1118 16
	movl	-44(%ebp), %eax
	jmp	L237
L232:
	.loc 5 1119 5
	movl	-76(%ebp), %eax
	movl	%eax, 4(%esp)
	movl	-48(%ebp), %eax
	movl	%eax, (%esp)
	call	_DeallocateBlock
	.loc 5 1120 5
	movl	24(%ebp), %eax
	movl	(%eax), %eax
	movl	%eax, (%esp)
	call	_CommitNumber
	.loc 5 1121 10
	movl	24(%ebp), %eax
	movl	(%eax), %eax
	.loc 5 1121 9
	movzbl	(%eax), %eax
	andl	$1, %eax
	.loc 5 1121 8
	testb	%al, %al
	je	L233
	.loc 5 1123 9
	movl	24(%ebp), %eax
	movl	(%eax), %eax
	movl	%eax, (%esp)
	call	_DeallocateNumber
	.loc 5 1124 16
	movl	24(%ebp), %eax
	movl	$_number_zero, (%eax)
L233:
	.loc 5 1127 9
	movl	20(%ebp), %eax
	movzbl	(%eax), %eax
	.loc 5 1127 8
	testb	%al, %al
	je	L234
	.loc 5 1127 25 discriminator 1
	movl	20(%ebp), %eax
	movzbl	(%eax), %eax
	.loc 5 1127 22 discriminator 1
	cmpb	$1, %al
	je	L234
	.loc 5 1127 41 discriminator 2
	movl	20(%ebp), %eax
	movzbl	(%eax), %eax
	.loc 5 1127 38 discriminator 2
	cmpb	$-1, %al
	je	L234
	.loc 5 1128 16
	movl	$-256, %eax
	jmp	L237
L234:
	.loc 5 1129 9
	movl	20(%ebp), %eax
	movzbl	(%eax), %eax
	.loc 5 1129 8
	testb	%al, %al
	jne	L235
	.loc 5 1129 27 discriminator 1
	movl	24(%ebp), %eax
	movl	(%eax), %eax
	.loc 5 1129 25 discriminator 1
	movzbl	(%eax), %eax
	andl	$1, %eax
	.loc 5 1129 22 discriminator 1
	testb	%al, %al
	jne	L235
	.loc 5 1130 16
	movl	$-256, %eax
	jmp	L237
L235:
	.loc 5 1131 9
	movl	20(%ebp), %eax
	movzbl	(%eax), %eax
	.loc 5 1131 8
	testb	%al, %al
	je	L236
	.loc 5 1131 26 discriminator 1
	movl	24(%ebp), %eax
	movl	(%eax), %eax
	.loc 5 1131 22 discriminator 1
	movzbl	(%eax), %eax
	andl	$1, %eax
	testb	%al, %al
	je	L236
	.loc 5 1132 16
	movl	$-256, %eax
	jmp	L237
L236:
	.loc 5 1134 12
	movl	$0, %eax
L237:
	.loc 5 1135 1 discriminator 1
	movl	-4(%ebp), %ebx
	leave
	.cfi_restore 5
	.cfi_restore 3
	.cfi_def_cfa 4, 4
	ret
	.cfi_endproc
LFE4262:
	.def	_BuildLeading1WordFromHexString;	.scl	3;	.type	32;	.endef
_BuildLeading1WordFromHexString:
LFB4263:
	.loc 5 1138 1
	.cfi_startproc
	pushl	%ebp
	.cfi_def_cfa_offset 8
	.cfi_offset 5, -8
	movl	%esp, %ebp
	.cfi_def_cfa_register 5
	pushl	%ebx
	subl	$20, %esp
	.cfi_offset 3, -12
	.loc 5 1139 35
	movl	8(%ebp), %eax
	movzwl	(%eax), %eax
	.loc 5 1139 21
	movzwl	%ax, %eax
	movl	%eax, (%esp)
	call	_ParseHexDigit
	.loc 5 1139 17
	movl	%eax, -8(%ebp)
	.loc 5 1140 5
	addl	$2, 8(%ebp)
	.loc 5 1141 5
	subl	$1, 12(%ebp)
	.loc 5 1142 11
	jmp	L240
L241:
	.loc 5 1144 15
	movl	-8(%ebp), %eax
	sall	$4, %eax
	movl	%eax, %ebx
	.loc 5 1144 36
	movl	8(%ebp), %eax
	movzwl	(%eax), %eax
	.loc 5 1144 22
	movzwl	%ax, %eax
	movl	%eax, (%esp)
	call	_ParseHexDigit
	.loc 5 1144 11
	addl	%ebx, %eax
	movl	%eax, -8(%ebp)
	.loc 5 1145 9
	addl	$2, 8(%ebp)
	.loc 5 1146 9
	subl	$1, 12(%ebp)
L240:
	.loc 5 1142 11
	cmpl	$0, 12(%ebp)
	jne	L241
	.loc 5 1148 12
	movl	-8(%ebp), %eax
	.loc 5 1149 1
	addl	$20, %esp
	popl	%ebx
	.cfi_restore 3
	popl	%ebp
	.cfi_restore 5
	.cfi_def_cfa 4, 4
	ret
	.cfi_endproc
LFE4263:
	.def	_Build1WordFromHexString;	.scl	3;	.type	32;	.endef
_Build1WordFromHexString:
LFB4264:
	.loc 5 1152 1
	.cfi_startproc
	pushl	%ebp
	.cfi_def_cfa_offset 8
	.cfi_offset 5, -8
	movl	%esp, %ebp
	.cfi_def_cfa_register 5
	pushl	%ebx
	subl	$20, %esp
	.cfi_offset 3, -12
	.loc 5 1153 42
	movl	8(%ebp), %eax
	leal	2(%eax), %edx
	movl	%edx, 8(%ebp)
	.loc 5 1153 35
	movzwl	(%eax), %eax
	.loc 5 1153 21
	movzwl	%ax, %eax
	movl	%eax, (%esp)
	call	_ParseHexDigit
	.loc 5 1153 17
	movl	%eax, -8(%ebp)
	.loc 5 1167 15
	movl	-8(%ebp), %eax
	sall	$4, %eax
	movl	%eax, %ebx
	.loc 5 1167 43
	movl	8(%ebp), %eax
	leal	2(%eax), %edx
	movl	%edx, 8(%ebp)
	.loc 5 1167 36
	movzwl	(%eax), %eax
	.loc 5 1167 22
	movzwl	%ax, %eax
	movl	%eax, (%esp)
	call	_ParseHexDigit
	.loc 5 1167 11
	addl	%ebx, %eax
	movl	%eax, -8(%ebp)
	.loc 5 1168 15
	movl	-8(%ebp), %eax
	sall	$4, %eax
	movl	%eax, %ebx
	.loc 5 1168 43
	movl	8(%ebp), %eax
	leal	2(%eax), %edx
	movl	%edx, 8(%ebp)
	.loc 5 1168 36
	movzwl	(%eax), %eax
	.loc 5 1168 22
	movzwl	%ax, %eax
	movl	%eax, (%esp)
	call	_ParseHexDigit
	.loc 5 1168 11
	addl	%ebx, %eax
	movl	%eax, -8(%ebp)
	.loc 5 1169 15
	movl	-8(%ebp), %eax
	sall	$4, %eax
	movl	%eax, %ebx
	.loc 5 1169 43
	movl	8(%ebp), %eax
	leal	2(%eax), %edx
	movl	%edx, 8(%ebp)
	.loc 5 1169 36
	movzwl	(%eax), %eax
	.loc 5 1169 22
	movzwl	%ax, %eax
	movl	%eax, (%esp)
	call	_ParseHexDigit
	.loc 5 1169 11
	addl	%ebx, %eax
	movl	%eax, -8(%ebp)
	.loc 5 1170 15
	movl	-8(%ebp), %eax
	sall	$4, %eax
	movl	%eax, %ebx
	.loc 5 1170 43
	movl	8(%ebp), %eax
	leal	2(%eax), %edx
	movl	%edx, 8(%ebp)
	.loc 5 1170 36
	movzwl	(%eax), %eax
	.loc 5 1170 22
	movzwl	%ax, %eax
	movl	%eax, (%esp)
	call	_ParseHexDigit
	.loc 5 1170 11
	addl	%ebx, %eax
	movl	%eax, -8(%ebp)
	.loc 5 1174 15
	movl	-8(%ebp), %eax
	sall	$4, %eax
	movl	%eax, %ebx
	.loc 5 1174 43
	movl	8(%ebp), %eax
	leal	2(%eax), %edx
	movl	%edx, 8(%ebp)
	.loc 5 1174 36
	movzwl	(%eax), %eax
	.loc 5 1174 22
	movzwl	%ax, %eax
	movl	%eax, (%esp)
	call	_ParseHexDigit
	.loc 5 1174 11
	addl	%ebx, %eax
	movl	%eax, -8(%ebp)
	.loc 5 1175 15
	movl	-8(%ebp), %eax
	sall	$4, %eax
	movl	%eax, %ebx
	.loc 5 1175 43
	movl	8(%ebp), %eax
	leal	2(%eax), %edx
	movl	%edx, 8(%ebp)
	.loc 5 1175 36
	movzwl	(%eax), %eax
	.loc 5 1175 22
	movzwl	%ax, %eax
	movl	%eax, (%esp)
	call	_ParseHexDigit
	.loc 5 1175 11
	addl	%ebx, %eax
	movl	%eax, -8(%ebp)
	.loc 5 1179 15
	movl	-8(%ebp), %eax
	sall	$4, %eax
	movl	%eax, %ebx
	.loc 5 1179 43
	movl	8(%ebp), %eax
	leal	2(%eax), %edx
	movl	%edx, 8(%ebp)
	.loc 5 1179 36
	movzwl	(%eax), %eax
	.loc 5 1179 22
	movzwl	%ax, %eax
	movl	%eax, (%esp)
	call	_ParseHexDigit
	.loc 5 1179 11
	addl	%ebx, %eax
	movl	%eax, -8(%ebp)
	.loc 5 1181 12
	movl	-8(%ebp), %eax
	.loc 5 1182 1
	addl	$20, %esp
	popl	%ebx
	.cfi_restore 3
	popl	%ebp
	.cfi_restore 5
	.cfi_def_cfa 4, 4
	ret
	.cfi_endproc
LFE4264:
	.def	_BuildBinaryFromHexString;	.scl	3;	.type	32;	.endef
_BuildBinaryFromHexString:
LFB4265:
	.loc 5 1185 1
	.cfi_startproc
	pushl	%ebp
	.cfi_def_cfa_offset 8
	.cfi_offset 5, -8
	movl	%esp, %ebp
	.cfi_def_cfa_register 5
	pushl	%ebx
	subl	$52, %esp
	.cfi_offset 3, -12
	.loc 5 1186 9
	movl	$8, -24(%ebp)
	.loc 5 1187 32
	movl	8(%ebp), %eax
	movl	%eax, (%esp)
	movl	__imp__lstrlenW@4, %eax
	call	*%eax
LVL15:
	subl	$4, %esp
	.loc 5 1187 17
	movl	%eax, -12(%ebp)
	.loc 5 1188 14
	movl	8(%ebp), %eax
	movl	%eax, -16(%ebp)
	.loc 5 1189 38
	movl	-24(%ebp), %eax
	movl	%eax, 4(%esp)
	movl	-12(%ebp), %eax
	movl	%eax, (%esp)
	call	__DIVIDE_CEILING_UNIT
	.loc 5 1189 91
	addl	$1073741823, %eax
	leal	0(,%eax,4), %edx
	.loc 5 1189 18
	movl	12(%ebp), %eax
	addl	%edx, %eax
	movl	%eax, -20(%ebp)
	.loc 5 1190 26
	movl	-24(%ebp), %ecx
	movl	-12(%ebp), %eax
	movl	$0, %edx
	divl	%ecx
	movl	%edx, %eax
	.loc 5 1190 9
	movl	%eax, -28(%ebp)
	.loc 5 1191 8
	cmpl	$0, -28(%ebp)
	jle	L247
	.loc 5 1193 22
	movl	-28(%ebp), %eax
	.loc 5 1193 17
	movl	-20(%ebp), %ebx
	leal	-4(%ebx), %edx
	movl	%edx, -20(%ebp)
	.loc 5 1193 22
	movl	%eax, 4(%esp)
	movl	-16(%ebp), %eax
	movl	%eax, (%esp)
	call	_BuildLeading1WordFromHexString
	.loc 5 1193 20
	movl	%eax, (%ebx)
	.loc 5 1194 16
	movl	-28(%ebp), %eax
	addl	%eax, %eax
	addl	%eax, -16(%ebp)
	.loc 5 1195 22
	movl	-28(%ebp), %eax
	subl	%eax, -12(%ebp)
	.loc 5 1197 11
	jmp	L247
L248:
	.loc 5 1199 17
	movl	-20(%ebp), %ebx
	leal	-4(%ebx), %eax
	movl	%eax, -20(%ebp)
	.loc 5 1199 22
	movl	-16(%ebp), %eax
	movl	%eax, (%esp)
	call	_Build1WordFromHexString
	.loc 5 1199 20
	movl	%eax, (%ebx)
	.loc 5 1200 16
	movl	-24(%ebp), %eax
	addl	%eax, %eax
	addl	%eax, -16(%ebp)
	.loc 5 1201 22
	movl	-24(%ebp), %eax
	subl	%eax, -12(%ebp)
L247:
	.loc 5 1197 11
	cmpl	$0, -12(%ebp)
	jne	L248
	.loc 5 1203 1
	nop
	movl	-4(%ebp), %ebx
	leave
	.cfi_restore 5
	.cfi_restore 3
	.cfi_def_cfa 4, 4
	ret
	.cfi_endproc
LFE4265:
	.def	_TryParseX;	.scl	3;	.type	32;	.endef
_TryParseX:
LFB4266:
	.loc 5 1206 1
	.cfi_startproc
	pushl	%ebp
	.cfi_def_cfa_offset 8
	.cfi_offset 5, -8
	movl	%esp, %ebp
	.cfi_def_cfa_register 5
	subl	$88, %esp
	.loc 5 1208 30
	movl	8(%ebp), %eax
	movl	%eax, (%esp)
	movl	__imp__lstrlenW@4, %eax
	call	*%eax
LVL16:
	subl	$4, %esp
	.loc 5 1208 17
	movl	%eax, -24(%ebp)
	.loc 5 1211 39
	movl	-24(%ebp), %eax
	addl	$1, %eax
	sall	$4, %eax
	movl	%eax, %edx
	leal	-52(%ebp), %eax
	movl	%eax, 8(%esp)
	leal	-56(%ebp), %eax
	movl	%eax, 4(%esp)
	movl	%edx, (%esp)
	call	_AllocateBlock
	movl	%eax, -28(%ebp)
	.loc 5 1212 8
	cmpl	$0, -28(%ebp)
	jne	L250
	.loc 5 1213 16
	movl	$-6, %eax
	jmp	L264
L250:
	.loc 5 1214 26
	movl	-28(%ebp), %eax
	movl	%eax, 12(%esp)
	movl	16(%ebp), %eax
	movl	%eax, 8(%esp)
	movl	12(%ebp), %eax
	movl	%eax, 4(%esp)
	movl	8(%ebp), %eax
	movl	%eax, (%esp)
	call	_ParseAsHexNumberString
	movl	%eax, -32(%ebp)
	.loc 5 1215 19
	movl	-52(%ebp), %eax
	movl	%eax, 4(%esp)
	movl	-28(%ebp), %eax
	movl	%eax, (%esp)
	call	_CheckBlockLight
	movl	%eax, -36(%ebp)
	.loc 5 1215 8
	cmpl	$0, -36(%ebp)
	je	L252
	.loc 5 1216 16
	movl	-36(%ebp), %eax
	jmp	L264
L252:
	.loc 5 1217 8
	cmpl	$0, -32(%ebp)
	je	L253
	.loc 5 1217 40 discriminator 1
	movl	-28(%ebp), %eax
	movzwl	(%eax), %eax
	.loc 5 1217 25 discriminator 1
	testw	%ax, %ax
	jne	L254
L253:
	.loc 5 1219 9
	movl	-56(%ebp), %eax
	movl	%eax, 4(%esp)
	movl	-28(%ebp), %eax
	movl	%eax, (%esp)
	call	_DeallocateBlock
	.loc 5 1220 16
	movl	$1, %eax
	jmp	L264
L254:
	.loc 5 1224 41
	movl	-28(%ebp), %eax
	movzwl	(%eax), %eax
	.loc 5 1224 15
	movzwl	%ax, %eax
	movl	%eax, (%esp)
	call	_ParseHexDigit
	.loc 5 1224 13
	cmpl	$7, %eax
	jle	L255
	.loc 5 1224 13 is_stmt 0 discriminator 1
	movl	$-1, %edx
	jmp	L256
L255:
	.loc 5 1224 13 discriminator 2
	movl	$1, %edx
L256:
	.loc 5 1224 13 discriminator 4
	movl	20(%ebp), %eax
	movb	%dl, (%eax)
	.loc 5 1226 31 is_stmt 1 discriminator 4
	movl	-28(%ebp), %eax
	movl	%eax, (%esp)
	movl	__imp__lstrlenW@4, %eax
	call	*%eax
LVL17:
	subl	$4, %esp
	.loc 5 1226 54 discriminator 4
	sall	$2, %eax
	.loc 5 1226 17 discriminator 4
	movl	%eax, -40(%ebp)
	.loc 5 1228 19 discriminator 4
	leal	-60(%ebp), %eax
	movl	%eax, 8(%esp)
	movl	-40(%ebp), %eax
	movl	%eax, 4(%esp)
	movl	24(%ebp), %eax
	movl	%eax, (%esp)
	call	_AllocateNumber
	movl	%eax, -36(%ebp)
	.loc 5 1228 8 discriminator 4
	cmpl	$0, -36(%ebp)
	je	L257
	.loc 5 1230 9
	movl	-56(%ebp), %eax
	movl	%eax, 4(%esp)
	movl	-28(%ebp), %eax
	movl	%eax, (%esp)
	call	_DeallocateBlock
	.loc 5 1231 16
	movl	-36(%ebp), %eax
	jmp	L264
L257:
	.loc 5 1233 45
	movl	24(%ebp), %eax
	movl	(%eax), %eax
	.loc 5 1233 5
	movl	36(%eax), %eax
	movl	%eax, 4(%esp)
	movl	-28(%ebp), %eax
	movl	%eax, (%esp)
	call	_BuildBinaryFromHexString
	.loc 5 1234 19
	movl	-60(%ebp), %edx
	.loc 5 1234 36
	movl	24(%ebp), %eax
	movl	(%eax), %eax
	.loc 5 1234 19
	movl	36(%eax), %eax
	movl	%edx, 4(%esp)
	movl	%eax, (%esp)
	call	_CheckBlockLight
	movl	%eax, -36(%ebp)
	.loc 5 1234 8
	cmpl	$0, -36(%ebp)
	je	L258
	.loc 5 1235 16
	movl	-36(%ebp), %eax
	jmp	L264
L258:
	.loc 5 1236 5
	movl	-56(%ebp), %eax
	movl	%eax, 4(%esp)
	movl	-28(%ebp), %eax
	movl	%eax, (%esp)
	call	_DeallocateBlock
	.loc 5 1237 9
	movl	20(%ebp), %eax
	movzbl	(%eax), %eax
	.loc 5 1237 8
	testb	%al, %al
	jns	L259
LBB24:
	.loc 5 1241 33
	movl	-40(%ebp), %eax
	.loc 5 1241 13
	andl	$31, %eax
	movl	%eax, -44(%ebp)
	.loc 5 1242 12
	cmpl	$0, -44(%ebp)
	je	L260
LBB25:
	.loc 5 1244 25
	movl	-44(%ebp), %eax
	movl	$-1, %edx
	movl	%eax, %ecx
	sall	%cl, %edx
	movl	%edx, %eax
	movl	%eax, -48(%ebp)
	.loc 5 1245 14
	movl	24(%ebp), %eax
	movl	(%eax), %eax
	.loc 5 1245 21
	movl	36(%eax), %edx
	.loc 5 1245 30
	movl	24(%ebp), %eax
	movl	(%eax), %eax
	.loc 5 1245 37
	movl	32(%eax), %eax
	.loc 5 1245 56
	addl	$1073741823, %eax
	sall	$2, %eax
	addl	%edx, %eax
	movl	(%eax), %eax
	.loc 5 1245 14
	movl	24(%ebp), %edx
	movl	(%edx), %edx
	.loc 5 1245 21
	movl	36(%edx), %ecx
	.loc 5 1245 30
	movl	24(%ebp), %edx
	movl	(%edx), %edx
	.loc 5 1245 37
	movl	32(%edx), %edx
	.loc 5 1245 56
	addl	$1073741823, %edx
	sall	$2, %edx
	addl	%ecx, %edx
	orl	-48(%ebp), %eax
	movl	%eax, (%edx)
L260:
LBE25:
	.loc 5 1249 14
	movb	$1, -9(%ebp)
	.loc 5 1250 27
	movl	24(%ebp), %eax
	movl	(%eax), %eax
	.loc 5 1250 22
	movl	36(%eax), %eax
	movl	%eax, -16(%ebp)
	.loc 5 1251 30
	movl	24(%ebp), %eax
	movl	(%eax), %eax
	.loc 5 1251 21
	movl	32(%eax), %eax
	movl	%eax, -20(%ebp)
	.loc 5 1252 15
	jmp	L261
L262:
	.loc 5 1254 39
	movl	-16(%ebp), %eax
	movl	(%eax), %eax
	.loc 5 1254 21
	notl	%eax
	movl	%eax, %ecx
	movsbl	-9(%ebp), %eax
	movl	-16(%ebp), %edx
	movl	%edx, 12(%esp)
	movl	$0, 8(%esp)
	movl	%ecx, 4(%esp)
	movl	%eax, (%esp)
	call	__ADD_UNIT
	movb	%al, -9(%ebp)
	.loc 5 1255 13
	addl	$4, -16(%ebp)
	.loc 5 1256 13
	subl	$1, -20(%ebp)
L261:
	.loc 5 1252 15
	cmpl	$0, -20(%ebp)
	jne	L262
L259:
LBE24:
	.loc 5 1259 5
	movl	24(%ebp), %eax
	movl	(%eax), %eax
	movl	%eax, (%esp)
	call	_CommitNumber
	.loc 5 1260 10
	movl	24(%ebp), %eax
	movl	(%eax), %eax
	.loc 5 1260 9
	movzbl	(%eax), %eax
	andl	$1, %eax
	.loc 5 1260 8
	testb	%al, %al
	je	L263
	.loc 5 1262 9
	movl	24(%ebp), %eax
	movl	(%eax), %eax
	movl	%eax, (%esp)
	call	_DeallocateNumber
	.loc 5 1263 17
	movl	20(%ebp), %eax
	movb	$0, (%eax)
	.loc 5 1264 16
	movl	24(%ebp), %eax
	movl	$_number_zero, (%eax)
L263:
	.loc 5 1266 12
	movl	$0, %eax
L264:
	.loc 5 1267 1 discriminator 1
	leave
	.cfi_restore 5
	.cfi_def_cfa 4, 4
	ret
	.cfi_endproc
LFE4266:
	.def	_PMC_TryParse_Imp;	.scl	3;	.type	32;	.endef
_PMC_TryParse_Imp:
LFB4267:
	.loc 5 1270 1
	.cfi_startproc
	pushl	%ebp
	.cfi_def_cfa_offset 8
	.cfi_offset 5, -8
	movl	%esp, %ebp
	.cfi_def_cfa_register 5
	subl	$56, %esp
	.loc 5 1272 23
	movl	12(%ebp), %eax
	andl	$512, %eax
	.loc 5 1272 8
	testl	%eax, %eax
	je	L266
LBB26:
	.loc 5 1277 19
	movl	$515, -12(%ebp)
	.loc 5 1280 29
	movl	-12(%ebp), %eax
	notl	%eax
	movl	%eax, %edx
	.loc 5 1280 27
	movl	12(%ebp), %eax
	andl	%edx, %eax
	.loc 5 1280 12
	testl	%eax, %eax
	je	L267
	.loc 5 1281 20
	movl	$-1, %eax
	jmp	L268
L267:
	.loc 5 1283 23
	movl	12(%ebp), %eax
	movl	24(%ebp), %edx
	movl	%edx, 16(%esp)
	movl	20(%ebp), %edx
	movl	%edx, 12(%esp)
	movl	16(%ebp), %edx
	movl	%edx, 8(%esp)
	movl	%eax, 4(%esp)
	movl	8(%ebp), %eax
	movl	%eax, (%esp)
	call	_TryParseX
	movl	%eax, -16(%ebp)
	.loc 5 1283 12
	cmpl	$0, -16(%ebp)
	je	L270
	.loc 5 1284 20
	movl	-16(%ebp), %eax
	jmp	L268
L266:
LBE26:
	.loc 5 1289 23
	movl	12(%ebp), %eax
	movl	24(%ebp), %edx
	movl	%edx, 16(%esp)
	movl	20(%ebp), %edx
	movl	%edx, 12(%esp)
	movl	16(%ebp), %edx
	movl	%edx, 8(%esp)
	movl	%eax, 4(%esp)
	movl	8(%ebp), %eax
	movl	%eax, (%esp)
	call	_TryParseDN
	movl	%eax, -16(%ebp)
	.loc 5 1289 12
	cmpl	$0, -16(%ebp)
	je	L270
	.loc 5 1290 20
	movl	-16(%ebp), %eax
	jmp	L268
L270:
	.loc 5 1293 19
	movl	24(%ebp), %eax
	movl	(%eax), %eax
	movl	%eax, (%esp)
	call	_CheckNumber
	movl	%eax, -16(%ebp)
	.loc 5 1293 8
	cmpl	$0, -16(%ebp)
	je	L271
	.loc 5 1294 16
	movl	-16(%ebp), %eax
	jmp	L268
L271:
	.loc 5 1296 12
	movl	$0, %eax
L268:
	.loc 5 1297 1
	leave
	.cfi_restore 5
	.cfi_def_cfa 4, 4
	ret
	.cfi_endproc
LFE4267:
	.globl	_PMC_TryParse@16
	.def	_PMC_TryParse@16;	.scl	2;	.type	32;	.endef
_PMC_TryParse@16:
LFB4268:
	.loc 5 1300 1
	.cfi_startproc
	pushl	%ebp
	.cfi_def_cfa_offset 8
	.cfi_offset 5, -8
	movl	%esp, %ebp
	.cfi_def_cfa_register 5
	subl	$56, %esp
	.loc 5 1302 8
	cmpl	$0, 8(%ebp)
	jne	L273
	.loc 5 1303 16
	movl	$-1, %eax
	jmp	L279
L273:
	.loc 5 1304 8
	cmpl	$0, 20(%ebp)
	jne	L275
	.loc 5 1305 16
	movl	$-1, %eax
	jmp	L279
L275:
	.loc 5 1306 8
	cmpl	$0, 16(%ebp)
	jne	L276
	.loc 5 1307 23
	movl	$_default_number_format_option, 16(%ebp)
L276:
	.loc 5 1310 19
	leal	-20(%ebp), %eax
	movl	%eax, 16(%esp)
	leal	-13(%ebp), %eax
	movl	%eax, 12(%esp)
	movl	16(%ebp), %eax
	movl	%eax, 8(%esp)
	movl	12(%ebp), %eax
	movl	%eax, 4(%esp)
	movl	8(%ebp), %eax
	movl	%eax, (%esp)
	call	_PMC_TryParse_Imp
	movl	%eax, -12(%ebp)
	.loc 5 1310 8
	cmpl	$0, -12(%ebp)
	je	L277
	.loc 5 1311 16
	movl	-12(%ebp), %eax
	jmp	L279
L277:
	.loc 5 1312 16
	movzbl	-13(%ebp), %eax
	.loc 5 1312 8
	testb	%al, %al
	jns	L278
	.loc 5 1315 9
	movl	-20(%ebp), %eax
	movl	%eax, (%esp)
	call	_DeallocateNumber
	.loc 5 1316 16
	movl	$-2, %eax
	jmp	L279
L278:
	.loc 5 1318 8
	movl	-20(%ebp), %edx
	movl	20(%ebp), %eax
	movl	%edx, (%eax)
	.loc 5 1319 12
	movl	$0, %eax
L279:
	.loc 5 1320 1 discriminator 1
	leave
	.cfi_restore 5
	.cfi_def_cfa 4, 4
	ret	$16
	.cfi_endproc
LFE4268:
	.globl	_PMC_TryParseForSINT@20
	.def	_PMC_TryParseForSINT@20;	.scl	2;	.type	32;	.endef
_PMC_TryParseForSINT@20:
LFB4269:
	.loc 5 1323 1
	.cfi_startproc
	pushl	%ebp
	.cfi_def_cfa_offset 8
	.cfi_offset 5, -8
	movl	%esp, %ebp
	.cfi_def_cfa_register 5
	subl	$56, %esp
	.loc 5 1325 8
	cmpl	$0, 8(%ebp)
	jne	L281
	.loc 5 1326 16
	movl	$-1, %eax
	jmp	L287
L281:
	.loc 5 1327 8
	cmpl	$0, 20(%ebp)
	jne	L283
	.loc 5 1328 16
	movl	$-1, %eax
	jmp	L287
L283:
	.loc 5 1329 8
	cmpl	$0, 24(%ebp)
	jne	L284
	.loc 5 1330 16
	movl	$-1, %eax
	jmp	L287
L284:
	.loc 5 1331 8
	cmpl	$0, 16(%ebp)
	jne	L285
	.loc 5 1332 23
	movl	$_default_number_format_option, 16(%ebp)
L285:
	.loc 5 1334 19
	leal	-16(%ebp), %eax
	movl	%eax, 16(%esp)
	movl	20(%ebp), %eax
	movl	%eax, 12(%esp)
	movl	16(%ebp), %eax
	movl	%eax, 8(%esp)
	movl	12(%ebp), %eax
	movl	%eax, 4(%esp)
	movl	8(%ebp), %eax
	movl	%eax, (%esp)
	call	_PMC_TryParse_Imp
	movl	%eax, -12(%ebp)
	.loc 5 1334 8
	cmpl	$0, -12(%ebp)
	je	L286
	.loc 5 1335 16
	movl	-12(%ebp), %eax
	jmp	L287
L286:
	.loc 5 1336 12
	movl	-16(%ebp), %edx
	movl	24(%ebp), %eax
	movl	%edx, (%eax)
	.loc 5 1337 12
	movl	$0, %eax
L287:
	.loc 5 1338 1 discriminator 1
	leave
	.cfi_restore 5
	.cfi_def_cfa 4, 4
	ret	$20
	.cfi_endproc
LFE4269:
	.globl	_Initialize_Parse
	.def	_Initialize_Parse;	.scl	2;	.type	32;	.endef
_Initialize_Parse:
LFB4270:
	.loc 5 1341 1
	.cfi_startproc
	pushl	%ebp
	.cfi_def_cfa_offset 8
	.cfi_offset 5, -8
	movl	%esp, %ebp
	.cfi_def_cfa_register 5
	subl	$24, %esp
	.loc 5 1342 5
	movl	$_default_number_format_option, (%esp)
	call	_InitializeNumberFormatoInfo
	.loc 5 1344 9
	movl	8(%ebp), %eax
	movzbl	(%eax), %eax
	andl	$2, %eax
	.loc 5 1344 8
	testb	%al, %al
	je	L289
	.loc 5 1344 40 discriminator 1
	movl	8(%ebp), %eax
	movzbl	(%eax), %eax
	andl	$8, %eax
	testb	%al, %al
	je	L289
	.loc 5 1345 27
	movl	$_MultiplyAndAdd_using_ADCX_MULX, _fp_MultiplyAndAdd
	jmp	L290
L289:
	.loc 5 1347 27
	movl	$_MultiplyAndAdd_using_ADC_MUL, _fp_MultiplyAndAdd
L290:
	.loc 5 1349 12
	movl	$0, %eax
	.loc 5 1350 1
	leave
	.cfi_restore 5
	.cfi_def_cfa 4, 4
	ret
	.cfi_endproc
LFE4270:
Letext0:
	.file 6 "C:/GNU/MINGW64/i686-8.1.0-win32-dwarf-rt_v6-rev0/mingw32/i686-w64-mingw32/include/crtdefs.h"
	.file 7 "C:/GNU/MINGW64/i686-8.1.0-win32-dwarf-rt_v6-rev0/mingw32/i686-w64-mingw32/include/excpt.h"
	.file 8 "C:/GNU/MINGW64/i686-8.1.0-win32-dwarf-rt_v6-rev0/mingw32/i686-w64-mingw32/include/minwindef.h"
	.file 9 "C:/GNU/MINGW64/i686-8.1.0-win32-dwarf-rt_v6-rev0/mingw32/i686-w64-mingw32/include/ctype.h"
	.file 10 "C:/GNU/MINGW64/i686-8.1.0-win32-dwarf-rt_v6-rev0/mingw32/i686-w64-mingw32/include/guiddef.h"
	.file 11 "C:/GNU/MINGW64/i686-8.1.0-win32-dwarf-rt_v6-rev0/mingw32/i686-w64-mingw32/include/winnt.h"
	.file 12 "C:/GNU/MINGW64/i686-8.1.0-win32-dwarf-rt_v6-rev0/mingw32/i686-w64-mingw32/include/rpcdce.h"
	.file 13 "C:/GNU/MINGW64/i686-8.1.0-win32-dwarf-rt_v6-rev0/mingw32/i686-w64-mingw32/include/stdlib.h"
	.file 14 "C:/GNU/MINGW64/i686-8.1.0-win32-dwarf-rt_v6-rev0/mingw32/i686-w64-mingw32/include/malloc.h"
	.file 15 "C:/GNU/MINGW64/i686-8.1.0-win32-dwarf-rt_v6-rev0/mingw32/i686-w64-mingw32/include/wtypesbase.h"
	.file 16 "C:/GNU/MINGW64/i686-8.1.0-win32-dwarf-rt_v6-rev0/mingw32/i686-w64-mingw32/include/unknwnbase.h"
	.file 17 "C:/GNU/MINGW64/i686-8.1.0-win32-dwarf-rt_v6-rev0/mingw32/i686-w64-mingw32/include/objidlbase.h"
	.file 18 "C:/GNU/MINGW64/i686-8.1.0-win32-dwarf-rt_v6-rev0/mingw32/i686-w64-mingw32/include/cguid.h"
	.file 19 "C:/GNU/MINGW64/i686-8.1.0-win32-dwarf-rt_v6-rev0/mingw32/i686-w64-mingw32/include/wtypes.h"
	.file 20 "C:/GNU/MINGW64/i686-8.1.0-win32-dwarf-rt_v6-rev0/mingw32/i686-w64-mingw32/include/combaseapi.h"
	.file 21 "C:/GNU/MINGW64/i686-8.1.0-win32-dwarf-rt_v6-rev0/mingw32/i686-w64-mingw32/include/objidl.h"
	.file 22 "C:/GNU/MINGW64/i686-8.1.0-win32-dwarf-rt_v6-rev0/mingw32/i686-w64-mingw32/include/oleidl.h"
	.file 23 "C:/GNU/MINGW64/i686-8.1.0-win32-dwarf-rt_v6-rev0/mingw32/i686-w64-mingw32/include/servprov.h"
	.file 24 "C:/GNU/MINGW64/i686-8.1.0-win32-dwarf-rt_v6-rev0/mingw32/i686-w64-mingw32/include/oaidl.h"
	.file 25 "C:/GNU/MINGW64/i686-8.1.0-win32-dwarf-rt_v6-rev0/mingw32/i686-w64-mingw32/include/msxml.h"
	.file 26 "C:/GNU/MINGW64/i686-8.1.0-win32-dwarf-rt_v6-rev0/mingw32/i686-w64-mingw32/include/urlmon.h"
	.file 27 "C:/GNU/MINGW64/i686-8.1.0-win32-dwarf-rt_v6-rev0/mingw32/i686-w64-mingw32/include/propidl.h"
	.file 28 "C:/GNU/MINGW64/i686-8.1.0-win32-dwarf-rt_v6-rev0/mingw32/i686-w64-mingw32/include/oleauto.h"
	.file 29 "C:/GNU/MINGW64/i686-8.1.0-win32-dwarf-rt_v6-rev0/mingw32/i686-w64-mingw32/include/winioctl.h"
	.file 30 "C:/GNU/MINGW64/i686-8.1.0-win32-dwarf-rt_v6-rev0/mingw32/i686-w64-mingw32/include/winsmcrd.h"
	.file 31 "C:/GNU/MINGW64/i686-8.1.0-win32-dwarf-rt_v6-rev0/mingw32/i686-w64-mingw32/include/winscard.h"
	.file 32 "C:/GNU/MINGW64/i686-8.1.0-win32-dwarf-rt_v6-rev0/mingw32/i686-w64-mingw32/include/commdlg.h"
	.file 33 "C:/GNU/MINGW64/i686-8.1.0-win32-dwarf-rt_v6-rev0/mingw32/i686-w64-mingw32/include/stdint.h"
	.file 34 "../pmc.h"
	.file 35 "../pmc_uint.h"
	.file 36 "../pmc_cpuid.h"
	.file 37 "../pmc_internal.h"
	.file 38 "C:/GNU/MINGW64/i686-8.1.0-win32-dwarf-rt_v6-rev0/mingw32/i686-w64-mingw32/include/winbase.h"