	.file	"pmc_multiply.c"
	.text
Ltext0:
	.def	_IncrementMULTI32Counter;	.scl	3;	.type	32;	.endef
_IncrementMULTI32Counter:
LFB73:
	.file 1 "../pmc_uint_internal.h"
	.loc 1 324 5
	.cfi_startproc
	pushl	%ebp
	.cfi_def_cfa_offset 8
	.cfi_offset 5, -8
	movl	%esp, %ebp
	.cfi_def_cfa_register 5
	subl	$16, %esp
	movl	$_statistics_info+4, -4(%ebp)
LBB10:
LBB11:
	.file 2 "C:/GNU/MINGW64/i686-8.1.0-win32-dwarf-rt_v6-rev0/mingw32/i686-w64-mingw32/include/psdk_inc/intrin-impl.h"
	.loc 2 1343 11
	movl	-4(%ebp), %eax
	movl	$1, %edx
	lock xaddl	%edx, (%eax)
LBE11:
LBE10:
	.loc 1 326 5
	nop
	leave
	.cfi_restore 5
	.cfi_def_cfa 4, 4
	ret
	.cfi_endproc
LFE73:
	.def	_AddToMULTI32Counter;	.scl	3;	.type	32;	.endef
_AddToMULTI32Counter:
LFB77:
	.loc 1 347 5
	.cfi_startproc
	pushl	%ebp
	.cfi_def_cfa_offset 8
	.cfi_offset 5, -8
	movl	%esp, %ebp
	.cfi_def_cfa_register 5
	subl	$16, %esp
	movl	$_statistics_info+4, -4(%ebp)
	movl	8(%ebp), %eax
	movl	%eax, -8(%ebp)
LBB12:
LBB13:
	.loc 2 1321 12
	movl	-8(%ebp), %edx
	movl	-4(%ebp), %eax
	lock xaddl	%edx, (%eax)
LBE13:
LBE12:
	.loc 1 349 5
	nop
	leave
	.cfi_restore 5
	.cfi_def_cfa 4, 4
	ret
	.cfi_endproc
LFE77:
	.def	__FROMDWORDTOWORD;	.scl	3;	.type	32;	.endef
__FROMDWORDTOWORD:
LFB4207:
	.file 3 "../pmc_inline_func.h"
	.loc 3 176 5
	.cfi_startproc
	pushl	%ebp
	.cfi_def_cfa_offset 8
	.cfi_offset 5, -8
	movl	%esp, %ebp
	.cfi_def_cfa_register 5
	pushl	%ebx
	subl	$12, %esp
	.cfi_offset 3, -12
	movl	8(%ebp), %eax
	movl	%eax, -16(%ebp)
	movl	12(%ebp), %eax
	movl	%eax, -12(%ebp)
	.loc 3 177 42
	movl	-16(%ebp), %eax
	movl	-12(%ebp), %edx
	movl	%edx, %eax
	xorl	%edx, %edx
	movl	%eax, %ecx
	movl	%edx, %ebx
	.loc 3 177 24
	movl	%ecx, %edx
	.loc 3 177 22
	movl	16(%ebp), %eax
	movl	%edx, (%eax)
	.loc 3 178 17
	movl	-16(%ebp), %eax
	.loc 3 179 5
	addl	$12, %esp
	popl	%ebx
	.cfi_restore 3
	popl	%ebp
	.cfi_restore 5
	.cfi_def_cfa 4, 4
	ret
	.cfi_endproc
LFE4207:
	.def	__ADD_UNIT;	.scl	3;	.type	32;	.endef
__ADD_UNIT:
LFB4213:
	.loc 3 207 5
	.cfi_startproc
	pushl	%ebp
	.cfi_def_cfa_offset 8
	.cfi_offset 5, -8
	movl	%esp, %ebp
	.cfi_def_cfa_register 5
	pushl	%ebx
	subl	$20, %esp
	.cfi_offset 3, -12
	movl	8(%ebp), %eax
	movb	%al, -24(%ebp)
	.loc 3 209 17
	movzbl	-24(%ebp), %eax
	movzbl	%al, %eax
	movb	%al, -5(%ebp)
	movl	12(%ebp), %eax
	movl	%eax, -12(%ebp)
	movl	16(%ebp), %eax
	movl	%eax, -16(%ebp)
	movl	20(%ebp), %eax
	movl	%eax, -20(%ebp)
LBB14:
LBB15:
	.file 4 "C:/GNU/MINGW64/i686-8.1.0-win32-dwarf-rt_v6-rev0/mingw32/lib/gcc/i686-w64-mingw32/8.1.0/include/adxintrin.h"
	.loc 4 44 10
	movzbl	-5(%ebp), %eax
	movl	%eax, %ebx
	movl	-12(%ebp), %ecx
	movl	-16(%ebp), %eax
	movl	-20(%ebp), %edx
	addb	$-1, %bl
	adcl	%ecx, %eax
	setc	%cl
	movl	%eax, (%edx)
LBE15:
LBE14:
	.loc 3 209 17
	movl	%ecx, %eax
	.loc 3 215 5
	addl	$20, %esp
	popl	%ebx
	.cfi_restore 3
	popl	%ebp
	.cfi_restore 5
	.cfi_def_cfa 4, 4
	ret
	.cfi_endproc
LFE4213:
	.def	__ADDX_UNIT;	.scl	3;	.type	32;	.endef
__ADDX_UNIT:
LFB4215:
	.loc 3 235 5
	.cfi_startproc
	pushl	%ebp
	.cfi_def_cfa_offset 8
	.cfi_offset 5, -8
	movl	%esp, %ebp
	.cfi_def_cfa_register 5
	pushl	%ebx
	subl	$20, %esp
	.cfi_offset 3, -12
	movl	8(%ebp), %eax
	movb	%al, -24(%ebp)
	.loc 3 237 17
	movzbl	-24(%ebp), %eax
	movzbl	%al, %eax
	movb	%al, -5(%ebp)
	movl	12(%ebp), %eax
	movl	%eax, -12(%ebp)
	movl	16(%ebp), %eax
	movl	%eax, -16(%ebp)
	movl	20(%ebp), %eax
	movl	%eax, -20(%ebp)
LBB16:
LBB17:
	.loc 4 52 10
	movzbl	-5(%ebp), %eax
	movl	%eax, %ebx
	movl	-12(%ebp), %ecx
	movl	-16(%ebp), %eax
	movl	-20(%ebp), %edx
	addb	$-1, %bl
	adcl	%ecx, %eax
	setc	%cl
	movl	%eax, (%edx)
LBE17:
LBE16:
	.loc 3 237 17
	movl	%ecx, %eax
	.loc 3 243 5
	addl	$20, %esp
	popl	%ebx
	.cfi_restore 3
	popl	%ebp
	.cfi_restore 5
	.cfi_def_cfa 4, 4
	ret
	.cfi_endproc
LFE4215:
	.def	__MULTIPLY_UNIT;	.scl	3;	.type	32;	.endef
__MULTIPLY_UNIT:
LFB4219:
	.loc 3 291 5
	.cfi_startproc
	pushl	%ebp
	.cfi_def_cfa_offset 8
	.cfi_offset 5, -8
	movl	%esp, %ebp
	.cfi_def_cfa_register 5
	subl	$16, %esp
	.loc 3 297 9
	movl	8(%ebp), %eax
/APP
 # 297 "../pmc_inline_func.h" 1
	mull 12(%ebp)
 # 0 "" 2
/NO_APP
	movl	%eax, -4(%ebp)
	movl	16(%ebp), %eax
	movl	%edx, (%eax)
	.loc 3 298 16
	movl	-4(%ebp), %eax
	.loc 3 307 5
	leave
	.cfi_restore 5
	.cfi_def_cfa 4, 4
	ret
	.cfi_endproc
LFE4219:
	.def	__MULTIPLYX_UNIT;	.scl	3;	.type	32;	.endef
__MULTIPLYX_UNIT:
LFB4221:
	.loc 3 329 5
	.cfi_startproc
	pushl	%ebp
	.cfi_def_cfa_offset 8
	.cfi_offset 5, -8
	movl	%esp, %ebp
	.cfi_def_cfa_register 5
	pushl	%ebx
	subl	$16, %esp
	.cfi_offset 3, -12
	.loc 3 341 9
	movl	8(%ebp), %eax
	movl	%eax, %edx
/APP
 # 341 "../pmc_inline_func.h" 1
	mulxl 12(%ebp), %ebx, %ecx
 # 0 "" 2
/NO_APP
	movl	%edx, %eax
	movl	%ebx, -8(%ebp)
	movl	16(%ebp), %edx
	movl	%ecx, (%edx)
	movl	%eax, 8(%ebp)
	.loc 3 342 16
	movl	-8(%ebp), %eax
	.loc 3 353 5
	addl	$16, %esp
	popl	%ebx
	.cfi_restore 3
	popl	%ebp
	.cfi_restore 5
	.cfi_def_cfa 4, 4
	ret
	.cfi_endproc
LFE4221:
	.def	__LZCNT_ALT_32;	.scl	3;	.type	32;	.endef
__LZCNT_ALT_32:
LFB4234:
	.loc 3 590 5
	.cfi_startproc
	pushl	%ebp
	.cfi_def_cfa_offset 8
	.cfi_offset 5, -8
	movl	%esp, %ebp
	.cfi_def_cfa_register 5
	subl	$16, %esp
	.loc 3 591 12
	cmpl	$0, 8(%ebp)
	jne	L18
	.loc 3 592 20
	movl	$32, %eax
	jmp	L19
L18:
	.loc 3 597 9
/APP
 # 597 "../pmc_inline_func.h" 1
	bsrl 8(%ebp), %eax
 # 0 "" 2
/NO_APP
	movl	%eax, -4(%ebp)
	.loc 3 601 35
	movl	$31, %eax
	subl	-4(%ebp), %eax
L19:
	.loc 3 602 5
	leave
	.cfi_restore 5
	.cfi_def_cfa 4, 4
	ret
	.cfi_endproc
LFE4234:
.lcomm _fp_Multiply_X_1W,4,4
.lcomm _fp_Multiply_X_2W,4,4
.lcomm _fp_Multiply_X_X,4,4
	.globl	_Multiply_X_X_Imp
	.def	_Multiply_X_X_Imp;	.scl	2;	.type	32;	.endef
_Multiply_X_X_Imp:
LFB4244:
	.file 5 "../pmc_multiply.c"
	.loc 5 36 1
	.cfi_startproc
	pushl	%ebp
	.cfi_def_cfa_offset 8
	.cfi_offset 5, -8
	movl	%esp, %ebp
	.cfi_def_cfa_register 5
	subl	$40, %esp
	.loc 5 37 6
	movl	_fp_Multiply_X_X, %eax
	movl	24(%ebp), %edx
	movl	%edx, 16(%esp)
	movl	20(%ebp), %edx
	movl	%edx, 12(%esp)
	movl	16(%ebp), %edx
	movl	%edx, 8(%esp)
	movl	12(%ebp), %edx
	movl	%edx, 4(%esp)
	movl	8(%ebp), %edx
	movl	%edx, (%esp)
	call	*%eax
LVL0:
	.loc 5 38 1
	nop
	leave
	.cfi_restore 5
	.cfi_def_cfa 4, 4
	ret
	.cfi_endproc
LFE4244:
	.def	__MULTIPLY_DIGIT_UNIT;	.scl	3;	.type	32;	.endef
__MULTIPLY_DIGIT_UNIT:
LFB4245:
	.loc 5 41 1
	.cfi_startproc
	pushl	%ebp
	.cfi_def_cfa_offset 8
	.cfi_offset 5, -8
	movl	%esp, %ebp
	.cfi_def_cfa_register 5
	pushl	%ebx
	subl	$32, %esp
	.cfi_offset 3, -12
	.loc 5 44 12
	movl	12(%ebp), %eax
	movl	(%eax), %eax
	leal	-8(%ebp), %edx
	movl	%edx, 8(%esp)
	movl	16(%ebp), %edx
	movl	%edx, 4(%esp)
	movl	%eax, (%esp)
	call	__MULTIPLY_UNIT
	.loc 5 44 10
	movl	%eax, -12(%ebp)
	.loc 5 45 5
	movl	-8(%ebp), %ebx
	.loc 5 45 15
	movl	20(%ebp), %eax
	movl	(%eax), %edx
	movl	-12(%ebp), %eax
	leal	-12(%ebp), %ecx
	movl	%ecx, 12(%esp)
	movl	%edx, 8(%esp)
	movl	%eax, 4(%esp)
	movl	$0, (%esp)
	call	__ADD_UNIT
	.loc 5 45 5
	movsbl	%al, %eax
	leal	-8(%ebp), %edx
	movl	%edx, 12(%esp)
	movl	$0, 8(%esp)
	movl	%ebx, 4(%esp)
	movl	%eax, (%esp)
	call	__ADD_UNIT
	.loc 5 46 5
	movl	-8(%ebp), %ebx
	.loc 5 46 15
	movl	-12(%ebp), %eax
	leal	-12(%ebp), %edx
	movl	%edx, 12(%esp)
	movl	8(%ebp), %edx
	movl	%edx, 8(%esp)
	movl	%eax, 4(%esp)
	movl	$0, (%esp)
	call	__ADD_UNIT
	.loc 5 46 5
	movsbl	%al, %eax
	leal	-8(%ebp), %edx
	movl	%edx, 12(%esp)
	movl	$0, 8(%esp)
	movl	%ebx, 4(%esp)
	movl	%eax, (%esp)
	call	__ADD_UNIT
	.loc 5 47 9
	movl	-12(%ebp), %edx
	movl	20(%ebp), %eax
	movl	%edx, (%eax)
	.loc 5 48 7
	movl	-8(%ebp), %eax
	movl	%eax, 8(%ebp)
	.loc 5 49 12
	movl	8(%ebp), %eax
	.loc 5 50 1
	addl	$32, %esp
	popl	%ebx
	.cfi_restore 3
	popl	%ebp
	.cfi_restore 5
	.cfi_def_cfa 4, 4
	ret
	.cfi_endproc
LFE4245:
	.def	__MULTIPLYX_DIGIT_UNIT;	.scl	3;	.type	32;	.endef
__MULTIPLYX_DIGIT_UNIT:
LFB4246:
	.loc 5 53 1
	.cfi_startproc
	pushl	%ebp
	.cfi_def_cfa_offset 8
	.cfi_offset 5, -8
	movl	%esp, %ebp
	.cfi_def_cfa_register 5
	pushl	%ebx
	subl	$32, %esp
	.cfi_offset 3, -12
	.loc 5 56 12
	movl	12(%ebp), %eax
	movl	(%eax), %eax
	leal	-8(%ebp), %edx
	movl	%edx, 8(%esp)
	movl	16(%ebp), %edx
	movl	%edx, 4(%esp)
	movl	%eax, (%esp)
	call	__MULTIPLYX_UNIT
	.loc 5 56 10
	movl	%eax, -12(%ebp)
	.loc 5 57 5
	movl	-8(%ebp), %ebx
	.loc 5 57 16
	movl	20(%ebp), %eax
	movl	(%eax), %edx
	movl	-12(%ebp), %eax
	leal	-12(%ebp), %ecx
	movl	%ecx, 12(%esp)
	movl	%edx, 8(%esp)
	movl	%eax, 4(%esp)
	movl	$0, (%esp)
	call	__ADDX_UNIT
	.loc 5 57 5
	movsbl	%al, %eax
	leal	-8(%ebp), %edx
	movl	%edx, 12(%esp)
	movl	$0, 8(%esp)
	movl	%ebx, 4(%esp)
	movl	%eax, (%esp)
	call	__ADDX_UNIT
	.loc 5 58 5
	movl	-8(%ebp), %ebx
	.loc 5 58 16
	movl	-12(%ebp), %eax
	leal	-12(%ebp), %edx
	movl	%edx, 12(%esp)
	movl	8(%ebp), %edx
	movl	%edx, 8(%esp)
	movl	%eax, 4(%esp)
	movl	$0, (%esp)
	call	__ADDX_UNIT
	.loc 5 58 5
	movsbl	%al, %eax
	leal	-8(%ebp), %edx
	movl	%edx, 12(%esp)
	movl	$0, 8(%esp)
	movl	%ebx, 4(%esp)
	movl	%eax, (%esp)
	call	__ADDX_UNIT
	.loc 5 59 9
	movl	-12(%ebp), %edx
	movl	20(%ebp), %eax
	movl	%edx, (%eax)
	.loc 5 60 7
	movl	-8(%ebp), %eax
	movl	%eax, 8(%ebp)
	.loc 5 61 12
	movl	8(%ebp), %eax
	.loc 5 62 1
	addl	$32, %esp
	popl	%ebx
	.cfi_restore 3
	popl	%ebp
	.cfi_restore 5
	.cfi_def_cfa 4, 4
	ret
	.cfi_endproc
LFE4246:
	.def	_Multiply_WORD_using_MUL_ADC;	.scl	3;	.type	32;	.endef
_Multiply_WORD_using_MUL_ADC:
LFB4247:
	.loc 5 65 1
	.cfi_startproc
	pushl	%ebp
	.cfi_def_cfa_offset 8
	.cfi_offset 5, -8
	movl	%esp, %ebp
	.cfi_def_cfa_register 5
	subl	$32, %esp
	.loc 5 66 17
	movl	$0, -4(%ebp)
	.loc 5 67 17
	movl	12(%ebp), %eax
	shrl	$5, %eax
	movl	%eax, -8(%ebp)
	.loc 5 69 11
	jmp	L26
L27:
	.loc 5 71 13
	movl	20(%ebp), %eax
	movl	%eax, 12(%esp)
	movl	16(%ebp), %eax
	movl	%eax, 8(%esp)
	movl	8(%ebp), %eax
	movl	%eax, 4(%esp)
	movl	-4(%ebp), %eax
	movl	%eax, (%esp)
	call	__MULTIPLY_DIGIT_UNIT
	movl	%eax, -4(%ebp)
	.loc 5 72 13
	movl	20(%ebp), %eax
	addl	$4, %eax
	movl	8(%ebp), %edx
	addl	$4, %edx
	movl	%eax, 12(%esp)
	movl	16(%ebp), %eax
	movl	%eax, 8(%esp)
	movl	%edx, 4(%esp)
	movl	-4(%ebp), %eax
	movl	%eax, (%esp)
	call	__MULTIPLY_DIGIT_UNIT
	movl	%eax, -4(%ebp)
	.loc 5 73 13
	movl	20(%ebp), %eax
	addl	$8, %eax
	movl	8(%ebp), %edx
	addl	$8, %edx
	movl	%eax, 12(%esp)
	movl	16(%ebp), %eax
	movl	%eax, 8(%esp)
	movl	%edx, 4(%esp)
	movl	-4(%ebp), %eax
	movl	%eax, (%esp)
	call	__MULTIPLY_DIGIT_UNIT
	movl	%eax, -4(%ebp)
	.loc 5 74 13
	movl	20(%ebp), %eax
	addl	$12, %eax
	movl	8(%ebp), %edx
	addl	$12, %edx
	movl	%eax, 12(%esp)
	movl	16(%ebp), %eax
	movl	%eax, 8(%esp)
	movl	%edx, 4(%esp)
	movl	-4(%ebp), %eax
	movl	%eax, (%esp)
	call	__MULTIPLY_DIGIT_UNIT
	movl	%eax, -4(%ebp)
	.loc 5 75 13
	movl	20(%ebp), %eax
	addl	$16, %eax
	movl	8(%ebp), %edx
	addl	$16, %edx
	movl	%eax, 12(%esp)
	movl	16(%ebp), %eax
	movl	%eax, 8(%esp)
	movl	%edx, 4(%esp)
	movl	-4(%ebp), %eax
	movl	%eax, (%esp)
	call	__MULTIPLY_DIGIT_UNIT
	movl	%eax, -4(%ebp)
	.loc 5 76 13
	movl	20(%ebp), %eax
	addl	$20, %eax
	movl	8(%ebp), %edx
	addl	$20, %edx
	movl	%eax, 12(%esp)
	movl	16(%ebp), %eax
	movl	%eax, 8(%esp)
	movl	%edx, 4(%esp)
	movl	-4(%ebp), %eax
	movl	%eax, (%esp)
	call	__MULTIPLY_DIGIT_UNIT
	movl	%eax, -4(%ebp)
	.loc 5 77 13
	movl	20(%ebp), %eax
	addl	$24, %eax
	movl	8(%ebp), %edx
	addl	$24, %edx
	movl	%eax, 12(%esp)
	movl	16(%ebp), %eax
	movl	%eax, 8(%esp)
	movl	%edx, 4(%esp)
	movl	-4(%ebp), %eax
	movl	%eax, (%esp)
	call	__MULTIPLY_DIGIT_UNIT
	movl	%eax, -4(%ebp)
	.loc 5 78 13
	movl	20(%ebp), %eax
	addl	$28, %eax
	movl	8(%ebp), %edx
	addl	$28, %edx
	movl	%eax, 12(%esp)
	movl	16(%ebp), %eax
	movl	%eax, 8(%esp)
	movl	%edx, 4(%esp)
	movl	-4(%ebp), %eax
	movl	%eax, (%esp)
	call	__MULTIPLY_DIGIT_UNIT
	movl	%eax, -4(%ebp)
	.loc 5 79 13
	movl	20(%ebp), %eax
	addl	$32, %eax
	movl	8(%ebp), %edx
	addl	$32, %edx
	movl	%eax, 12(%esp)
	movl	16(%ebp), %eax
	movl	%eax, 8(%esp)
	movl	%edx, 4(%esp)
	movl	-4(%ebp), %eax
	movl	%eax, (%esp)
	call	__MULTIPLY_DIGIT_UNIT
	movl	%eax, -4(%ebp)
	.loc 5 80 13
	movl	20(%ebp), %eax
	addl	$36, %eax
	movl	8(%ebp), %edx
	addl	$36, %edx
	movl	%eax, 12(%esp)
	movl	16(%ebp), %eax
	movl	%eax, 8(%esp)
	movl	%edx, 4(%esp)
	movl	-4(%ebp), %eax
	movl	%eax, (%esp)
	call	__MULTIPLY_DIGIT_UNIT
	movl	%eax, -4(%ebp)
	.loc 5 81 13
	movl	20(%ebp), %eax
	addl	$40, %eax
	movl	8(%ebp), %edx
	addl	$40, %edx
	movl	%eax, 12(%esp)
	movl	16(%ebp), %eax
	movl	%eax, 8(%esp)
	movl	%edx, 4(%esp)
	movl	-4(%ebp), %eax
	movl	%eax, (%esp)
	call	__MULTIPLY_DIGIT_UNIT
	movl	%eax, -4(%ebp)
	.loc 5 82 13
	movl	20(%ebp), %eax
	addl	$44, %eax
	movl	8(%ebp), %edx
	addl	$44, %edx
	movl	%eax, 12(%esp)
	movl	16(%ebp), %eax
	movl	%eax, 8(%esp)
	movl	%edx, 4(%esp)
	movl	-4(%ebp), %eax
	movl	%eax, (%esp)
	call	__MULTIPLY_DIGIT_UNIT
	movl	%eax, -4(%ebp)
	.loc 5 83 13
	movl	20(%ebp), %eax
	addl	$48, %eax
	movl	8(%ebp), %edx
	addl	$48, %edx
	movl	%eax, 12(%esp)
	movl	16(%ebp), %eax
	movl	%eax, 8(%esp)
	movl	%edx, 4(%esp)
	movl	-4(%ebp), %eax
	movl	%eax, (%esp)
	call	__MULTIPLY_DIGIT_UNIT
	movl	%eax, -4(%ebp)
	.loc 5 84 13
	movl	20(%ebp), %eax
	addl	$52, %eax
	movl	8(%ebp), %edx
	addl	$52, %edx
	movl	%eax, 12(%esp)
	movl	16(%ebp), %eax
	movl	%eax, 8(%esp)
	movl	%edx, 4(%esp)
	movl	-4(%ebp), %eax
	movl	%eax, (%esp)
	call	__MULTIPLY_DIGIT_UNIT
	movl	%eax, -4(%ebp)
	.loc 5 85 13
	movl	20(%ebp), %eax
	addl	$56, %eax
	movl	8(%ebp), %edx
	addl	$56, %edx
	movl	%eax, 12(%esp)
	movl	16(%ebp), %eax
	movl	%eax, 8(%esp)
	movl	%edx, 4(%esp)
	movl	-4(%ebp), %eax
	movl	%eax, (%esp)
	call	__MULTIPLY_DIGIT_UNIT
	movl	%eax, -4(%ebp)
	.loc 5 86 13
	movl	20(%ebp), %eax
	addl	$60, %eax
	movl	8(%ebp), %edx
	addl	$60, %edx
	movl	%eax, 12(%esp)
	movl	16(%ebp), %eax
	movl	%eax, 8(%esp)
	movl	%edx, 4(%esp)
	movl	-4(%ebp), %eax
	movl	%eax, (%esp)
	call	__MULTIPLY_DIGIT_UNIT
	movl	%eax, -4(%ebp)
	.loc 5 87 13
	movl	20(%ebp), %eax
	addl	$64, %eax
	movl	8(%ebp), %edx
	addl	$64, %edx
	movl	%eax, 12(%esp)
	movl	16(%ebp), %eax
	movl	%eax, 8(%esp)
	movl	%edx, 4(%esp)
	movl	-4(%ebp), %eax
	movl	%eax, (%esp)
	call	__MULTIPLY_DIGIT_UNIT
	movl	%eax, -4(%ebp)
	.loc 5 88 13
	movl	20(%ebp), %eax
	addl	$68, %eax
	movl	8(%ebp), %edx
	addl	$68, %edx
	movl	%eax, 12(%esp)
	movl	16(%ebp), %eax
	movl	%eax, 8(%esp)
	movl	%edx, 4(%esp)
	movl	-4(%ebp), %eax
	movl	%eax, (%esp)
	call	__MULTIPLY_DIGIT_UNIT
	movl	%eax, -4(%ebp)
	.loc 5 89 13
	movl	20(%ebp), %eax
	addl	$72, %eax
	movl	8(%ebp), %edx
	addl	$72, %edx
	movl	%eax, 12(%esp)
	movl	16(%ebp), %eax
	movl	%eax, 8(%esp)
	movl	%edx, 4(%esp)
	movl	-4(%ebp), %eax
	movl	%eax, (%esp)
	call	__MULTIPLY_DIGIT_UNIT
	movl	%eax, -4(%ebp)
	.loc 5 90 13
	movl	20(%ebp), %eax
	addl	$76, %eax
	movl	8(%ebp), %edx
	addl	$76, %edx
	movl	%eax, 12(%esp)
	movl	16(%ebp), %eax
	movl	%eax, 8(%esp)
	movl	%edx, 4(%esp)
	movl	-4(%ebp), %eax
	movl	%eax, (%esp)
	call	__MULTIPLY_DIGIT_UNIT
	movl	%eax, -4(%ebp)
	.loc 5 91 13
	movl	20(%ebp), %eax
	addl	$80, %eax
	movl	8(%ebp), %edx
	addl	$80, %edx
	movl	%eax, 12(%esp)
	movl	16(%ebp), %eax
	movl	%eax, 8(%esp)
	movl	%edx, 4(%esp)
	movl	-4(%ebp), %eax
	movl	%eax, (%esp)
	call	__MULTIPLY_DIGIT_UNIT
	movl	%eax, -4(%ebp)
	.loc 5 92 13
	movl	20(%ebp), %eax
	addl	$84, %eax
	movl	8(%ebp), %edx
	addl	$84, %edx
	movl	%eax, 12(%esp)
	movl	16(%ebp), %eax
	movl	%eax, 8(%esp)
	movl	%edx, 4(%esp)
	movl	-4(%ebp), %eax
	movl	%eax, (%esp)
	call	__MULTIPLY_DIGIT_UNIT
	movl	%eax, -4(%ebp)
	.loc 5 93 13
	movl	20(%ebp), %eax
	addl	$88, %eax
	movl	8(%ebp), %edx
	addl	$88, %edx
	movl	%eax, 12(%esp)
	movl	16(%ebp), %eax
	movl	%eax, 8(%esp)
	movl	%edx, 4(%esp)
	movl	-4(%ebp), %eax
	movl	%eax, (%esp)
	call	__MULTIPLY_DIGIT_UNIT
	movl	%eax, -4(%ebp)
	.loc 5 94 13
	movl	20(%ebp), %eax
	addl	$92, %eax
	movl	8(%ebp), %edx
	addl	$92, %edx
	movl	%eax, 12(%esp)
	movl	16(%ebp), %eax
	movl	%eax, 8(%esp)
	movl	%edx, 4(%esp)
	movl	-4(%ebp), %eax
	movl	%eax, (%esp)
	call	__MULTIPLY_DIGIT_UNIT
	movl	%eax, -4(%ebp)
	.loc 5 95 13
	movl	20(%ebp), %eax
	addl	$96, %eax
	movl	8(%ebp), %edx
	addl	$96, %edx
	movl	%eax, 12(%esp)
	movl	16(%ebp), %eax
	movl	%eax, 8(%esp)
	movl	%edx, 4(%esp)
	movl	-4(%ebp), %eax
	movl	%eax, (%esp)
	call	__MULTIPLY_DIGIT_UNIT
	movl	%eax, -4(%ebp)
	.loc 5 96 13
	movl	20(%ebp), %eax
	addl	$100, %eax
	movl	8(%ebp), %edx
	addl	$100, %edx
	movl	%eax, 12(%esp)
	movl	16(%ebp), %eax
	movl	%eax, 8(%esp)
	movl	%edx, 4(%esp)
	movl	-4(%ebp), %eax
	movl	%eax, (%esp)
	call	__MULTIPLY_DIGIT_UNIT
	movl	%eax, -4(%ebp)
	.loc 5 97 13
	movl	20(%ebp), %eax
	addl	$104, %eax
	movl	8(%ebp), %edx
	addl	$104, %edx
	movl	%eax, 12(%esp)
	movl	16(%ebp), %eax
	movl	%eax, 8(%esp)
	movl	%edx, 4(%esp)
	movl	-4(%ebp), %eax
	movl	%eax, (%esp)
	call	__MULTIPLY_DIGIT_UNIT
	movl	%eax, -4(%ebp)
	.loc 5 98 13
	movl	20(%ebp), %eax
	addl	$108, %eax
	movl	8(%ebp), %edx
	addl	$108, %edx
	movl	%eax, 12(%esp)
	movl	16(%ebp), %eax
	movl	%eax, 8(%esp)
	movl	%edx, 4(%esp)
	movl	-4(%ebp), %eax
	movl	%eax, (%esp)
	call	__MULTIPLY_DIGIT_UNIT
	movl	%eax, -4(%ebp)
	.loc 5 99 13
	movl	20(%ebp), %eax
	addl	$112, %eax
	movl	8(%ebp), %edx
	addl	$112, %edx
	movl	%eax, 12(%esp)
	movl	16(%ebp), %eax
	movl	%eax, 8(%esp)
	movl	%edx, 4(%esp)
	movl	-4(%ebp), %eax
	movl	%eax, (%esp)
	call	__MULTIPLY_DIGIT_UNIT
	movl	%eax, -4(%ebp)
	.loc 5 100 13
	movl	20(%ebp), %eax
	addl	$116, %eax
	movl	8(%ebp), %edx
	addl	$116, %edx
	movl	%eax, 12(%esp)
	movl	16(%ebp), %eax
	movl	%eax, 8(%esp)
	movl	%edx, 4(%esp)
	movl	-4(%ebp), %eax
	movl	%eax, (%esp)
	call	__MULTIPLY_DIGIT_UNIT
	movl	%eax, -4(%ebp)
	.loc 5 101 13
	movl	20(%ebp), %eax
	addl	$120, %eax
	movl	8(%ebp), %edx
	addl	$120, %edx
	movl	%eax, 12(%esp)
	movl	16(%ebp), %eax
	movl	%eax, 8(%esp)
	movl	%edx, 4(%esp)
	movl	-4(%ebp), %eax
	movl	%eax, (%esp)
	call	__MULTIPLY_DIGIT_UNIT
	movl	%eax, -4(%ebp)
	.loc 5 102 13
	movl	20(%ebp), %eax
	addl	$124, %eax
	movl	8(%ebp), %edx
	addl	$124, %edx
	movl	%eax, 12(%esp)
	movl	16(%ebp), %eax
	movl	%eax, 8(%esp)
	movl	%edx, 4(%esp)
	movl	-4(%ebp), %eax
	movl	%eax, (%esp)
	call	__MULTIPLY_DIGIT_UNIT
	movl	%eax, -4(%ebp)
	.loc 5 103 12
	subl	$-128, 8(%ebp)
	.loc 5 104 12
	subl	$-128, 20(%ebp)
	.loc 5 105 9
	subl	$1, -8(%ebp)
	.loc 5 108 13
	movl	$32, (%esp)
	call	_AddToMULTI32Counter
L26:
	.loc 5 69 11
	cmpl	$0, -8(%ebp)
	jne	L27
	.loc 5 114 17
	movl	12(%ebp), %eax
	andl	$16, %eax
	.loc 5 114 8
	testl	%eax, %eax
	je	L28
	.loc 5 116 13
	movl	20(%ebp), %eax
	movl	%eax, 12(%esp)
	movl	16(%ebp), %eax
	movl	%eax, 8(%esp)
	movl	8(%ebp), %eax
	movl	%eax, 4(%esp)
	movl	-4(%ebp), %eax
	movl	%eax, (%esp)
	call	__MULTIPLY_DIGIT_UNIT
	movl	%eax, -4(%ebp)
	.loc 5 117 13
	movl	20(%ebp), %eax
	addl	$4, %eax
	movl	8(%ebp), %edx
	addl	$4, %edx
	movl	%eax, 12(%esp)
	movl	16(%ebp), %eax
	movl	%eax, 8(%esp)
	movl	%edx, 4(%esp)
	movl	-4(%ebp), %eax
	movl	%eax, (%esp)
	call	__MULTIPLY_DIGIT_UNIT
	movl	%eax, -4(%ebp)
	.loc 5 118 13
	movl	20(%ebp), %eax
	addl	$8, %eax
	movl	8(%ebp), %edx
	addl	$8, %edx
	movl	%eax, 12(%esp)
	movl	16(%ebp), %eax
	movl	%eax, 8(%esp)
	movl	%edx, 4(%esp)
	movl	-4(%ebp), %eax
	movl	%eax, (%esp)
	call	__MULTIPLY_DIGIT_UNIT
	movl	%eax, -4(%ebp)
	.loc 5 119 13
	movl	20(%ebp), %eax
	addl	$12, %eax
	movl	8(%ebp), %edx
	addl	$12, %edx
	movl	%eax, 12(%esp)
	movl	16(%ebp), %eax
	movl	%eax, 8(%esp)
	movl	%edx, 4(%esp)
	movl	-4(%ebp), %eax
	movl	%eax, (%esp)
	call	__MULTIPLY_DIGIT_UNIT
	movl	%eax, -4(%ebp)
	.loc 5 120 13
	movl	20(%ebp), %eax
	addl	$16, %eax
	movl	8(%ebp), %edx
	addl	$16, %edx
	movl	%eax, 12(%esp)
	movl	16(%ebp), %eax
	movl	%eax, 8(%esp)
	movl	%edx, 4(%esp)
	movl	-4(%ebp), %eax
	movl	%eax, (%esp)
	call	__MULTIPLY_DIGIT_UNIT
	movl	%eax, -4(%ebp)
	.loc 5 121 13
	movl	20(%ebp), %eax
	addl	$20, %eax
	movl	8(%ebp), %edx
	addl	$20, %edx
	movl	%eax, 12(%esp)
	movl	16(%ebp), %eax
	movl	%eax, 8(%esp)
	movl	%edx, 4(%esp)
	movl	-4(%ebp), %eax
	movl	%eax, (%esp)
	call	__MULTIPLY_DIGIT_UNIT
	movl	%eax, -4(%ebp)
	.loc 5 122 13
	movl	20(%ebp), %eax
	addl	$24, %eax
	movl	8(%ebp), %edx
	addl	$24, %edx
	movl	%eax, 12(%esp)
	movl	16(%ebp), %eax
	movl	%eax, 8(%esp)
	movl	%edx, 4(%esp)
	movl	-4(%ebp), %eax
	movl	%eax, (%esp)
	call	__MULTIPLY_DIGIT_UNIT
	movl	%eax, -4(%ebp)
	.loc 5 123 13
	movl	20(%ebp), %eax
	addl	$28, %eax
	movl	8(%ebp), %edx
	addl	$28, %edx
	movl	%eax, 12(%esp)
	movl	16(%ebp), %eax
	movl	%eax, 8(%esp)
	movl	%edx, 4(%esp)
	movl	-4(%ebp), %eax
	movl	%eax, (%esp)
	call	__MULTIPLY_DIGIT_UNIT
	movl	%eax, -4(%ebp)
	.loc 5 124 13
	movl	20(%ebp), %eax
	addl	$32, %eax
	movl	8(%ebp), %edx
	addl	$32, %edx
	movl	%eax, 12(%esp)
	movl	16(%ebp), %eax
	movl	%eax, 8(%esp)
	movl	%edx, 4(%esp)
	movl	-4(%ebp), %eax
	movl	%eax, (%esp)
	call	__MULTIPLY_DIGIT_UNIT
	movl	%eax, -4(%ebp)
	.loc 5 125 13
	movl	20(%ebp), %eax
	addl	$36, %eax
	movl	8(%ebp), %edx
	addl	$36, %edx
	movl	%eax, 12(%esp)
	movl	16(%ebp), %eax
	movl	%eax, 8(%esp)
	movl	%edx, 4(%esp)
	movl	-4(%ebp), %eax
	movl	%eax, (%esp)
	call	__MULTIPLY_DIGIT_UNIT
	movl	%eax, -4(%ebp)
	.loc 5 126 13
	movl	20(%ebp), %eax
	addl	$40, %eax
	movl	8(%ebp), %edx
	addl	$40, %edx
	movl	%eax, 12(%esp)
	movl	16(%ebp), %eax
	movl	%eax, 8(%esp)
	movl	%edx, 4(%esp)
	movl	-4(%ebp), %eax
	movl	%eax, (%esp)
	call	__MULTIPLY_DIGIT_UNIT
	movl	%eax, -4(%ebp)
	.loc 5 127 13
	movl	20(%ebp), %eax
	addl	$44, %eax
	movl	8(%ebp), %edx
	addl	$44, %edx
	movl	%eax, 12(%esp)
	movl	16(%ebp), %eax
	movl	%eax, 8(%esp)
	movl	%edx, 4(%esp)
	movl	-4(%ebp), %eax
	movl	%eax, (%esp)
	call	__MULTIPLY_DIGIT_UNIT
	movl	%eax, -4(%ebp)
	.loc 5 128 13
	movl	20(%ebp), %eax
	addl	$48, %eax
	movl	8(%ebp), %edx
	addl	$48, %edx
	movl	%eax, 12(%esp)
	movl	16(%ebp), %eax
	movl	%eax, 8(%esp)
	movl	%edx, 4(%esp)
	movl	-4(%ebp), %eax
	movl	%eax, (%esp)
	call	__MULTIPLY_DIGIT_UNIT
	movl	%eax, -4(%ebp)
	.loc 5 129 13
	movl	20(%ebp), %eax
	addl	$52, %eax
	movl	8(%ebp), %edx
	addl	$52, %edx
	movl	%eax, 12(%esp)
	movl	16(%ebp), %eax
	movl	%eax, 8(%esp)
	movl	%edx, 4(%esp)
	movl	-4(%ebp), %eax
	movl	%eax, (%esp)
	call	__MULTIPLY_DIGIT_UNIT
	movl	%eax, -4(%ebp)
	.loc 5 130 13
	movl	20(%ebp), %eax
	addl	$56, %eax
	movl	8(%ebp), %edx
	addl	$56, %edx
	movl	%eax, 12(%esp)
	movl	16(%ebp), %eax
	movl	%eax, 8(%esp)
	movl	%edx, 4(%esp)
	movl	-4(%ebp), %eax
	movl	%eax, (%esp)
	call	__MULTIPLY_DIGIT_UNIT
	movl	%eax, -4(%ebp)
	.loc 5 131 13
	movl	20(%ebp), %eax
	addl	$60, %eax
	movl	8(%ebp), %edx
	addl	$60, %edx
	movl	%eax, 12(%esp)
	movl	16(%ebp), %eax
	movl	%eax, 8(%esp)
	movl	%edx, 4(%esp)
	movl	-4(%ebp), %eax
	movl	%eax, (%esp)
	call	__MULTIPLY_DIGIT_UNIT
	movl	%eax, -4(%ebp)
	.loc 5 132 12
	addl	$64, 8(%ebp)
	.loc 5 133 12
	addl	$64, 20(%ebp)
	.loc 5 136 13
	movl	$16, (%esp)
	call	_AddToMULTI32Counter
L28:
	.loc 5 142 17
	movl	12(%ebp), %eax
	andl	$8, %eax
	.loc 5 142 8
	testl	%eax, %eax
	je	L29
	.loc 5 144 13
	movl	20(%ebp), %eax
	movl	%eax, 12(%esp)
	movl	16(%ebp), %eax
	movl	%eax, 8(%esp)
	movl	8(%ebp), %eax
	movl	%eax, 4(%esp)
	movl	-4(%ebp), %eax
	movl	%eax, (%esp)
	call	__MULTIPLY_DIGIT_UNIT
	movl	%eax, -4(%ebp)
	.loc 5 145 13
	movl	20(%ebp), %eax
	addl	$4, %eax
	movl	8(%ebp), %edx
	addl	$4, %edx
	movl	%eax, 12(%esp)
	movl	16(%ebp), %eax
	movl	%eax, 8(%esp)
	movl	%edx, 4(%esp)
	movl	-4(%ebp), %eax
	movl	%eax, (%esp)
	call	__MULTIPLY_DIGIT_UNIT
	movl	%eax, -4(%ebp)
	.loc 5 146 13
	movl	20(%ebp), %eax
	addl	$8, %eax
	movl	8(%ebp), %edx
	addl	$8, %edx
	movl	%eax, 12(%esp)
	movl	16(%ebp), %eax
	movl	%eax, 8(%esp)
	movl	%edx, 4(%esp)
	movl	-4(%ebp), %eax
	movl	%eax, (%esp)
	call	__MULTIPLY_DIGIT_UNIT
	movl	%eax, -4(%ebp)
	.loc 5 147 13
	movl	20(%ebp), %eax
	addl	$12, %eax
	movl	8(%ebp), %edx
	addl	$12, %edx
	movl	%eax, 12(%esp)
	movl	16(%ebp), %eax
	movl	%eax, 8(%esp)
	movl	%edx, 4(%esp)
	movl	-4(%ebp), %eax
	movl	%eax, (%esp)
	call	__MULTIPLY_DIGIT_UNIT
	movl	%eax, -4(%ebp)
	.loc 5 148 13
	movl	20(%ebp), %eax
	addl	$16, %eax
	movl	8(%ebp), %edx
	addl	$16, %edx
	movl	%eax, 12(%esp)
	movl	16(%ebp), %eax
	movl	%eax, 8(%esp)
	movl	%edx, 4(%esp)
	movl	-4(%ebp), %eax
	movl	%eax, (%esp)
	call	__MULTIPLY_DIGIT_UNIT
	movl	%eax, -4(%ebp)
	.loc 5 149 13
	movl	20(%ebp), %eax
	addl	$20, %eax
	movl	8(%ebp), %edx
	addl	$20, %edx
	movl	%eax, 12(%esp)
	movl	16(%ebp), %eax
	movl	%eax, 8(%esp)
	movl	%edx, 4(%esp)
	movl	-4(%ebp), %eax
	movl	%eax, (%esp)
	call	__MULTIPLY_DIGIT_UNIT
	movl	%eax, -4(%ebp)
	.loc 5 150 13
	movl	20(%ebp), %eax
	addl	$24, %eax
	movl	8(%ebp), %edx
	addl	$24, %edx
	movl	%eax, 12(%esp)
	movl	16(%ebp), %eax
	movl	%eax, 8(%esp)
	movl	%edx, 4(%esp)
	movl	-4(%ebp), %eax
	movl	%eax, (%esp)
	call	__MULTIPLY_DIGIT_UNIT
	movl	%eax, -4(%ebp)
	.loc 5 151 13
	movl	20(%ebp), %eax
	addl	$28, %eax
	movl	8(%ebp), %edx
	addl	$28, %edx
	movl	%eax, 12(%esp)
	movl	16(%ebp), %eax
	movl	%eax, 8(%esp)
	movl	%edx, 4(%esp)
	movl	-4(%ebp), %eax
	movl	%eax, (%esp)
	call	__MULTIPLY_DIGIT_UNIT
	movl	%eax, -4(%ebp)
	.loc 5 152 12
	addl	$32, 8(%ebp)
	.loc 5 153 12
	addl	$32, 20(%ebp)
	.loc 5 156 13
	movl	$8, (%esp)
	call	_AddToMULTI32Counter
L29:
	.loc 5 162 17
	movl	12(%ebp), %eax
	andl	$4, %eax
	.loc 5 162 8
	testl	%eax, %eax
	je	L30
	.loc 5 164 13
	movl	20(%ebp), %eax
	movl	%eax, 12(%esp)
	movl	16(%ebp), %eax
	movl	%eax, 8(%esp)
	movl	8(%ebp), %eax
	movl	%eax, 4(%esp)
	movl	-4(%ebp), %eax
	movl	%eax, (%esp)
	call	__MULTIPLY_DIGIT_UNIT
	movl	%eax, -4(%ebp)
	.loc 5 165 13
	movl	20(%ebp), %eax
	addl	$4, %eax
	movl	8(%ebp), %edx
	addl	$4, %edx
	movl	%eax, 12(%esp)
	movl	16(%ebp), %eax
	movl	%eax, 8(%esp)
	movl	%edx, 4(%esp)
	movl	-4(%ebp), %eax
	movl	%eax, (%esp)
	call	__MULTIPLY_DIGIT_UNIT
	movl	%eax, -4(%ebp)
	.loc 5 166 13
	movl	20(%ebp), %eax
	addl	$8, %eax
	movl	8(%ebp), %edx
	addl	$8, %edx
	movl	%eax, 12(%esp)
	movl	16(%ebp), %eax
	movl	%eax, 8(%esp)
	movl	%edx, 4(%esp)
	movl	-4(%ebp), %eax
	movl	%eax, (%esp)
	call	__MULTIPLY_DIGIT_UNIT
	movl	%eax, -4(%ebp)
	.loc 5 167 13
	movl	20(%ebp), %eax
	addl	$12, %eax
	movl	8(%ebp), %edx
	addl	$12, %edx
	movl	%eax, 12(%esp)
	movl	16(%ebp), %eax
	movl	%eax, 8(%esp)
	movl	%edx, 4(%esp)
	movl	-4(%ebp), %eax
	movl	%eax, (%esp)
	call	__MULTIPLY_DIGIT_UNIT
	movl	%eax, -4(%ebp)
	.loc 5 168 12
	addl	$16, 8(%ebp)
	.loc 5 169 12
	addl	$16, 20(%ebp)
	.loc 5 172 13
	movl	$4, (%esp)
	call	_AddToMULTI32Counter
L30:
	.loc 5 178 17
	movl	12(%ebp), %eax
	andl	$2, %eax
	.loc 5 178 8
	testl	%eax, %eax
	je	L31
	.loc 5 180 13
	movl	20(%ebp), %eax
	movl	%eax, 12(%esp)
	movl	16(%ebp), %eax
	movl	%eax, 8(%esp)
	movl	8(%ebp), %eax
	movl	%eax, 4(%esp)
	movl	-4(%ebp), %eax
	movl	%eax, (%esp)
	call	__MULTIPLY_DIGIT_UNIT
	movl	%eax, -4(%ebp)
	.loc 5 181 13
	movl	20(%ebp), %eax
	addl	$4, %eax
	movl	8(%ebp), %edx
	addl	$4, %edx
	movl	%eax, 12(%esp)
	movl	16(%ebp), %eax
	movl	%eax, 8(%esp)
	movl	%edx, 4(%esp)
	movl	-4(%ebp), %eax
	movl	%eax, (%esp)
	call	__MULTIPLY_DIGIT_UNIT
	movl	%eax, -4(%ebp)
	.loc 5 182 12
	addl	$8, 8(%ebp)
	.loc 5 183 12
	addl	$8, 20(%ebp)
	.loc 5 186 13
	movl	$2, (%esp)
	call	_AddToMULTI32Counter
L31:
	.loc 5 192 17
	movl	12(%ebp), %eax
	andl	$1, %eax
	.loc 5 192 8
	testl	%eax, %eax
	je	L32
	.loc 5 194 13
	movl	20(%ebp), %eax
	movl	%eax, 12(%esp)
	movl	16(%ebp), %eax
	movl	%eax, 8(%esp)
	movl	8(%ebp), %eax
	movl	%eax, 4(%esp)
	movl	-4(%ebp), %eax
	movl	%eax, (%esp)
	call	__MULTIPLY_DIGIT_UNIT
	movl	%eax, -4(%ebp)
	.loc 5 195 12
	addl	$4, 8(%ebp)
	.loc 5 196 12
	addl	$4, 20(%ebp)
	.loc 5 199 13
	call	_IncrementMULTI32Counter
L32:
	.loc 5 205 8
	cmpl	$0, -4(%ebp)
	je	L33
	.loc 5 206 13
	movl	20(%ebp), %eax
	movl	-4(%ebp), %edx
	movl	%edx, (%eax)
L33:
	.loc 5 208 12
	movl	$0, %eax
	.loc 5 209 1
	leave
	.cfi_restore 5
	.cfi_def_cfa 4, 4
	ret
	.cfi_endproc
LFE4247:
	.def	_Multiply_WORD_using_MULX_ADCX;	.scl	3;	.type	32;	.endef
_Multiply_WORD_using_MULX_ADCX:
LFB4248:
	.loc 5 212 1
	.cfi_startproc
	pushl	%ebp
	.cfi_def_cfa_offset 8
	.cfi_offset 5, -8
	movl	%esp, %ebp
	.cfi_def_cfa_register 5
	subl	$32, %esp
	.loc 5 213 17
	movl	$0, -4(%ebp)
	.loc 5 214 17
	movl	12(%ebp), %eax
	shrl	$5, %eax
	movl	%eax, -8(%ebp)
	.loc 5 216 11
	jmp	L36
L37:
	.loc 5 218 13
	movl	20(%ebp), %eax
	movl	%eax, 12(%esp)
	movl	16(%ebp), %eax
	movl	%eax, 8(%esp)
	movl	8(%ebp), %eax
	movl	%eax, 4(%esp)
	movl	-4(%ebp), %eax
	movl	%eax, (%esp)
	call	__MULTIPLYX_DIGIT_UNIT
	movl	%eax, -4(%ebp)
	.loc 5 219 13
	movl	20(%ebp), %eax
	addl	$4, %eax
	movl	8(%ebp), %edx
	addl	$4, %edx
	movl	%eax, 12(%esp)
	movl	16(%ebp), %eax
	movl	%eax, 8(%esp)
	movl	%edx, 4(%esp)
	movl	-4(%ebp), %eax
	movl	%eax, (%esp)
	call	__MULTIPLYX_DIGIT_UNIT
	movl	%eax, -4(%ebp)
	.loc 5 220 13
	movl	20(%ebp), %eax
	addl	$8, %eax
	movl	8(%ebp), %edx
	addl	$8, %edx
	movl	%eax, 12(%esp)
	movl	16(%ebp), %eax
	movl	%eax, 8(%esp)
	movl	%edx, 4(%esp)
	movl	-4(%ebp), %eax
	movl	%eax, (%esp)
	call	__MULTIPLYX_DIGIT_UNIT
	movl	%eax, -4(%ebp)
	.loc 5 221 13
	movl	20(%ebp), %eax
	addl	$12, %eax
	movl	8(%ebp), %edx
	addl	$12, %edx
	movl	%eax, 12(%esp)
	movl	16(%ebp), %eax
	movl	%eax, 8(%esp)
	movl	%edx, 4(%esp)
	movl	-4(%ebp), %eax
	movl	%eax, (%esp)
	call	__MULTIPLYX_DIGIT_UNIT
	movl	%eax, -4(%ebp)
	.loc 5 222 13
	movl	20(%ebp), %eax
	addl	$16, %eax
	movl	8(%ebp), %edx
	addl	$16, %edx
	movl	%eax, 12(%esp)
	movl	16(%ebp), %eax
	movl	%eax, 8(%esp)
	movl	%edx, 4(%esp)
	movl	-4(%ebp), %eax
	movl	%eax, (%esp)
	call	__MULTIPLYX_DIGIT_UNIT
	movl	%eax, -4(%ebp)
	.loc 5 223 13
	movl	20(%ebp), %eax
	addl	$20, %eax
	movl	8(%ebp), %edx
	addl	$20, %edx
	movl	%eax, 12(%esp)
	movl	16(%ebp), %eax
	movl	%eax, 8(%esp)
	movl	%edx, 4(%esp)
	movl	-4(%ebp), %eax
	movl	%eax, (%esp)
	call	__MULTIPLYX_DIGIT_UNIT
	movl	%eax, -4(%ebp)
	.loc 5 224 13
	movl	20(%ebp), %eax
	addl	$24, %eax
	movl	8(%ebp), %edx
	addl	$24, %edx
	movl	%eax, 12(%esp)
	movl	16(%ebp), %eax
	movl	%eax, 8(%esp)
	movl	%edx, 4(%esp)
	movl	-4(%ebp), %eax
	movl	%eax, (%esp)
	call	__MULTIPLYX_DIGIT_UNIT
	movl	%eax, -4(%ebp)
	.loc 5 225 13
	movl	20(%ebp), %eax
	addl	$28, %eax
	movl	8(%ebp), %edx
	addl	$28, %edx
	movl	%eax, 12(%esp)
	movl	16(%ebp), %eax
	movl	%eax, 8(%esp)
	movl	%edx, 4(%esp)
	movl	-4(%ebp), %eax
	movl	%eax, (%esp)
	call	__MULTIPLYX_DIGIT_UNIT
	movl	%eax, -4(%ebp)
	.loc 5 226 13
	movl	20(%ebp), %eax
	addl	$32, %eax
	movl	8(%ebp), %edx
	addl	$32, %edx
	movl	%eax, 12(%esp)
	movl	16(%ebp), %eax
	movl	%eax, 8(%esp)
	movl	%edx, 4(%esp)
	movl	-4(%ebp), %eax
	movl	%eax, (%esp)
	call	__MULTIPLYX_DIGIT_UNIT
	movl	%eax, -4(%ebp)
	.loc 5 227 13
	movl	20(%ebp), %eax
	addl	$36, %eax
	movl	8(%ebp), %edx
	addl	$36, %edx
	movl	%eax, 12(%esp)
	movl	16(%ebp), %eax
	movl	%eax, 8(%esp)
	movl	%edx, 4(%esp)
	movl	-4(%ebp), %eax
	movl	%eax, (%esp)
	call	__MULTIPLYX_DIGIT_UNIT
	movl	%eax, -4(%ebp)
	.loc 5 228 13
	movl	20(%ebp), %eax
	addl	$40, %eax
	movl	8(%ebp), %edx
	addl	$40, %edx
	movl	%eax, 12(%esp)
	movl	16(%ebp), %eax
	movl	%eax, 8(%esp)
	movl	%edx, 4(%esp)
	movl	-4(%ebp), %eax
	movl	%eax, (%esp)
	call	__MULTIPLYX_DIGIT_UNIT
	movl	%eax, -4(%ebp)
	.loc 5 229 13
	movl	20(%ebp), %eax
	addl	$44, %eax
	movl	8(%ebp), %edx
	addl	$44, %edx
	movl	%eax, 12(%esp)
	movl	16(%ebp), %eax
	movl	%eax, 8(%esp)
	movl	%edx, 4(%esp)
	movl	-4(%ebp), %eax
	movl	%eax, (%esp)
	call	__MULTIPLYX_DIGIT_UNIT
	movl	%eax, -4(%ebp)
	.loc 5 230 13
	movl	20(%ebp), %eax
	addl	$48, %eax
	movl	8(%ebp), %edx
	addl	$48, %edx
	movl	%eax, 12(%esp)
	movl	16(%ebp), %eax
	movl	%eax, 8(%esp)
	movl	%edx, 4(%esp)
	movl	-4(%ebp), %eax
	movl	%eax, (%esp)
	call	__MULTIPLYX_DIGIT_UNIT
	movl	%eax, -4(%ebp)
	.loc 5 231 13
	movl	20(%ebp), %eax
	addl	$52, %eax
	movl	8(%ebp), %edx
	addl	$52, %edx
	movl	%eax, 12(%esp)
	movl	16(%ebp), %eax
	movl	%eax, 8(%esp)
	movl	%edx, 4(%esp)
	movl	-4(%ebp), %eax
	movl	%eax, (%esp)
	call	__MULTIPLYX_DIGIT_UNIT
	movl	%eax, -4(%ebp)
	.loc 5 232 13
	movl	20(%ebp), %eax
	addl	$56, %eax
	movl	8(%ebp), %edx
	addl	$56, %edx
	movl	%eax, 12(%esp)
	movl	16(%ebp), %eax
	movl	%eax, 8(%esp)
	movl	%edx, 4(%esp)
	movl	-4(%ebp), %eax
	movl	%eax, (%esp)
	call	__MULTIPLYX_DIGIT_UNIT
	movl	%eax, -4(%ebp)
	.loc 5 233 13
	movl	20(%ebp), %eax
	addl	$60, %eax
	movl	8(%ebp), %edx
	addl	$60, %edx
	movl	%eax, 12(%esp)
	movl	16(%ebp), %eax
	movl	%eax, 8(%esp)
	movl	%edx, 4(%esp)
	movl	-4(%ebp), %eax
	movl	%eax, (%esp)
	call	__MULTIPLYX_DIGIT_UNIT
	movl	%eax, -4(%ebp)
	.loc 5 234 13
	movl	20(%ebp), %eax
	addl	$64, %eax
	movl	8(%ebp), %edx
	addl	$64, %edx
	movl	%eax, 12(%esp)
	movl	16(%ebp), %eax
	movl	%eax, 8(%esp)
	movl	%edx, 4(%esp)
	movl	-4(%ebp), %eax
	movl	%eax, (%esp)
	call	__MULTIPLYX_DIGIT_UNIT
	movl	%eax, -4(%ebp)
	.loc 5 235 13
	movl	20(%ebp), %eax
	addl	$68, %eax
	movl	8(%ebp), %edx
	addl	$68, %edx
	movl	%eax, 12(%esp)
	movl	16(%ebp), %eax
	movl	%eax, 8(%esp)
	movl	%edx, 4(%esp)
	movl	-4(%ebp), %eax
	movl	%eax, (%esp)
	call	__MULTIPLYX_DIGIT_UNIT
	movl	%eax, -4(%ebp)
	.loc 5 236 13
	movl	20(%ebp), %eax
	addl	$72, %eax
	movl	8(%ebp), %edx
	addl	$72, %edx
	movl	%eax, 12(%esp)
	movl	16(%ebp), %eax
	movl	%eax, 8(%esp)
	movl	%edx, 4(%esp)
	movl	-4(%ebp), %eax
	movl	%eax, (%esp)
	call	__MULTIPLYX_DIGIT_UNIT
	movl	%eax, -4(%ebp)
	.loc 5 237 13
	movl	20(%ebp), %eax
	addl	$76, %eax
	movl	8(%ebp), %edx
	addl	$76, %edx
	movl	%eax, 12(%esp)
	movl	16(%ebp), %eax
	movl	%eax, 8(%esp)
	movl	%edx, 4(%esp)
	movl	-4(%ebp), %eax
	movl	%eax, (%esp)
	call	__MULTIPLYX_DIGIT_UNIT
	movl	%eax, -4(%ebp)
	.loc 5 238 13
	movl	20(%ebp), %eax
	addl	$80, %eax
	movl	8(%ebp), %edx
	addl	$80, %edx
	movl	%eax, 12(%esp)
	movl	16(%ebp), %eax
	movl	%eax, 8(%esp)
	movl	%edx, 4(%esp)
	movl	-4(%ebp), %eax
	movl	%eax, (%esp)
	call	__MULTIPLYX_DIGIT_UNIT
	movl	%eax, -4(%ebp)
	.loc 5 239 13
	movl	20(%ebp), %eax
	addl	$84, %eax
	movl	8(%ebp), %edx
	addl	$84, %edx
	movl	%eax, 12(%esp)
	movl	16(%ebp), %eax
	movl	%eax, 8(%esp)
	movl	%edx, 4(%esp)
	movl	-4(%ebp), %eax
	movl	%eax, (%esp)
	call	__MULTIPLYX_DIGIT_UNIT
	movl	%eax, -4(%ebp)
	.loc 5 240 13
	movl	20(%ebp), %eax
	addl	$88, %eax
	movl	8(%ebp), %edx
	addl	$88, %edx
	movl	%eax, 12(%esp)
	movl	16(%ebp), %eax
	movl	%eax, 8(%esp)
	movl	%edx, 4(%esp)
	movl	-4(%ebp), %eax
	movl	%eax, (%esp)
	call	__MULTIPLYX_DIGIT_UNIT
	movl	%eax, -4(%ebp)
	.loc 5 241 13
	movl	20(%ebp), %eax
	addl	$92, %eax
	movl	8(%ebp), %edx
	addl	$92, %edx
	movl	%eax, 12(%esp)
	movl	16(%ebp), %eax
	movl	%eax, 8(%esp)
	movl	%edx, 4(%esp)
	movl	-4(%ebp), %eax
	movl	%eax, (%esp)
	call	__MULTIPLYX_DIGIT_UNIT
	movl	%eax, -4(%ebp)
	.loc 5 242 13
	movl	20(%ebp), %eax
	addl	$96, %eax
	movl	8(%ebp), %edx
	addl	$96, %edx
	movl	%eax, 12(%esp)
	movl	16(%ebp), %eax
	movl	%eax, 8(%esp)
	movl	%edx, 4(%esp)
	movl	-4(%ebp), %eax
	movl	%eax, (%esp)
	call	__MULTIPLYX_DIGIT_UNIT
	movl	%eax, -4(%ebp)
	.loc 5 243 13
	movl	20(%ebp), %eax
	addl	$100, %eax
	movl	8(%ebp), %edx
	addl	$100, %edx
	movl	%eax, 12(%esp)
	movl	16(%ebp), %eax
	movl	%eax, 8(%esp)
	movl	%edx, 4(%esp)
	movl	-4(%ebp), %eax
	movl	%eax, (%esp)
	call	__MULTIPLYX_DIGIT_UNIT
	movl	%eax, -4(%ebp)
	.loc 5 244 13
	movl	20(%ebp), %eax
	addl	$104, %eax
	movl	8(%ebp), %edx
	addl	$104, %edx
	movl	%eax, 12(%esp)
	movl	16(%ebp), %eax
	movl	%eax, 8(%esp)
	movl	%edx, 4(%esp)
	movl	-4(%ebp), %eax
	movl	%eax, (%esp)
	call	__MULTIPLYX_DIGIT_UNIT
	movl	%eax, -4(%ebp)
	.loc 5 245 13
	movl	20(%ebp), %eax
	addl	$108, %eax
	movl	8(%ebp), %edx
	addl	$108, %edx
	movl	%eax, 12(%esp)
	movl	16(%ebp), %eax
	movl	%eax, 8(%esp)
	movl	%edx, 4(%esp)
	movl	-4(%ebp), %eax
	movl	%eax, (%esp)
	call	__MULTIPLYX_DIGIT_UNIT
	movl	%eax, -4(%ebp)
	.loc 5 246 13
	movl	20(%ebp), %eax
	addl	$112, %eax
	movl	8(%ebp), %edx
	addl	$112, %edx
	movl	%eax, 12(%esp)
	movl	16(%ebp), %eax
	movl	%eax, 8(%esp)
	movl	%edx, 4(%esp)
	movl	-4(%ebp), %eax
	movl	%eax, (%esp)
	call	__MULTIPLYX_DIGIT_UNIT
	movl	%eax, -4(%ebp)
	.loc 5 247 13
	movl	20(%ebp), %eax
	addl	$116, %eax
	movl	8(%ebp), %edx
	addl	$116, %edx
	movl	%eax, 12(%esp)
	movl	16(%ebp), %eax
	movl	%eax, 8(%esp)
	movl	%edx, 4(%esp)
	movl	-4(%ebp), %eax
	movl	%eax, (%esp)
	call	__MULTIPLYX_DIGIT_UNIT
	movl	%eax, -4(%ebp)
	.loc 5 248 13
	movl	20(%ebp), %eax
	addl	$120, %eax
	movl	8(%ebp), %edx
	addl	$120, %edx
	movl	%eax, 12(%esp)
	movl	16(%ebp), %eax
	movl	%eax, 8(%esp)
	movl	%edx, 4(%esp)
	movl	-4(%ebp), %eax
	movl	%eax, (%esp)
	call	__MULTIPLYX_DIGIT_UNIT
	movl	%eax, -4(%ebp)
	.loc 5 249 13
	movl	20(%ebp), %eax
	addl	$124, %eax
	movl	8(%ebp), %edx
	addl	$124, %edx
	movl	%eax, 12(%esp)
	movl	16(%ebp), %eax
	movl	%eax, 8(%esp)
	movl	%edx, 4(%esp)
	movl	-4(%ebp), %eax
	movl	%eax, (%esp)
	call	__MULTIPLYX_DIGIT_UNIT
	movl	%eax, -4(%ebp)
	.loc 5 250 12
	subl	$-128, 8(%ebp)
	.loc 5 251 12
	subl	$-128, 20(%ebp)
	.loc 5 252 9
	subl	$1, -8(%ebp)
	.loc 5 255 13
	movl	$32, (%esp)
	call	_AddToMULTI32Counter
L36:
	.loc 5 216 11
	cmpl	$0, -8(%ebp)
	jne	L37
	.loc 5 261 17
	movl	12(%ebp), %eax
	andl	$16, %eax
	.loc 5 261 8
	testl	%eax, %eax
	je	L38
	.loc 5 263 13
	movl	20(%ebp), %eax
	movl	%eax, 12(%esp)
	movl	16(%ebp), %eax
	movl	%eax, 8(%esp)
	movl	8(%ebp), %eax
	movl	%eax, 4(%esp)
	movl	-4(%ebp), %eax
	movl	%eax, (%esp)
	call	__MULTIPLYX_DIGIT_UNIT
	movl	%eax, -4(%ebp)
	.loc 5 264 13
	movl	20(%ebp), %eax
	addl	$4, %eax
	movl	8(%ebp), %edx
	addl	$4, %edx
	movl	%eax, 12(%esp)
	movl	16(%ebp), %eax
	movl	%eax, 8(%esp)
	movl	%edx, 4(%esp)
	movl	-4(%ebp), %eax
	movl	%eax, (%esp)
	call	__MULTIPLYX_DIGIT_UNIT
	movl	%eax, -4(%ebp)
	.loc 5 265 13
	movl	20(%ebp), %eax
	addl	$8, %eax
	movl	8(%ebp), %edx
	addl	$8, %edx
	movl	%eax, 12(%esp)
	movl	16(%ebp), %eax
	movl	%eax, 8(%esp)
	movl	%edx, 4(%esp)
	movl	-4(%ebp), %eax
	movl	%eax, (%esp)
	call	__MULTIPLYX_DIGIT_UNIT
	movl	%eax, -4(%ebp)
	.loc 5 266 13
	movl	20(%ebp), %eax
	addl	$12, %eax
	movl	8(%ebp), %edx
	addl	$12, %edx
	movl	%eax, 12(%esp)
	movl	16(%ebp), %eax
	movl	%eax, 8(%esp)
	movl	%edx, 4(%esp)
	movl	-4(%ebp), %eax
	movl	%eax, (%esp)
	call	__MULTIPLYX_DIGIT_UNIT
	movl	%eax, -4(%ebp)
	.loc 5 267 13
	movl	20(%ebp), %eax
	addl	$16, %eax
	movl	8(%ebp), %edx
	addl	$16, %edx
	movl	%eax, 12(%esp)
	movl	16(%ebp), %eax
	movl	%eax, 8(%esp)
	movl	%edx, 4(%esp)
	movl	-4(%ebp), %eax
	movl	%eax, (%esp)
	call	__MULTIPLYX_DIGIT_UNIT
	movl	%eax, -4(%ebp)
	.loc 5 268 13
	movl	20(%ebp), %eax
	addl	$20, %eax
	movl	8(%ebp), %edx
	addl	$20, %edx
	movl	%eax, 12(%esp)
	movl	16(%ebp), %eax
	movl	%eax, 8(%esp)
	movl	%edx, 4(%esp)
	movl	-4(%ebp), %eax
	movl	%eax, (%esp)
	call	__MULTIPLYX_DIGIT_UNIT
	movl	%eax, -4(%ebp)
	.loc 5 269 13
	movl	20(%ebp), %eax
	addl	$24, %eax
	movl	8(%ebp), %edx
	addl	$24, %edx
	movl	%eax, 12(%esp)
	movl	16(%ebp), %eax
	movl	%eax, 8(%esp)
	movl	%edx, 4(%esp)
	movl	-4(%ebp), %eax
	movl	%eax, (%esp)
	call	__MULTIPLYX_DIGIT_UNIT
	movl	%eax, -4(%ebp)
	.loc 5 270 13
	movl	20(%ebp), %eax
	addl	$28, %eax
	movl	8(%ebp), %edx
	addl	$28, %edx
	movl	%eax, 12(%esp)
	movl	16(%ebp), %eax
	movl	%eax, 8(%esp)
	movl	%edx, 4(%esp)
	movl	-4(%ebp), %eax
	movl	%eax, (%esp)
	call	__MULTIPLYX_DIGIT_UNIT
	movl	%eax, -4(%ebp)
	.loc 5 271 13
	movl	20(%ebp), %eax
	addl	$32, %eax
	movl	8(%ebp), %edx
	addl	$32, %edx
	movl	%eax, 12(%esp)
	movl	16(%ebp), %eax
	movl	%eax, 8(%esp)
	movl	%edx, 4(%esp)
	movl	-4(%ebp), %eax
	movl	%eax, (%esp)
	call	__MULTIPLYX_DIGIT_UNIT
	movl	%eax, -4(%ebp)
	.loc 5 272 13
	movl	20(%ebp), %eax
	addl	$36, %eax
	movl	8(%ebp), %edx
	addl	$36, %edx
	movl	%eax, 12(%esp)
	movl	16(%ebp), %eax
	movl	%eax, 8(%esp)
	movl	%edx, 4(%esp)
	movl	-4(%ebp), %eax
	movl	%eax, (%esp)
	call	__MULTIPLYX_DIGIT_UNIT
	movl	%eax, -4(%ebp)
	.loc 5 273 13
	movl	20(%ebp), %eax
	addl	$40, %eax
	movl	8(%ebp), %edx
	addl	$40, %edx
	movl	%eax, 12(%esp)
	movl	16(%ebp), %eax
	movl	%eax, 8(%esp)
	movl	%edx, 4(%esp)
	movl	-4(%ebp), %eax
	movl	%eax, (%esp)
	call	__MULTIPLYX_DIGIT_UNIT
	movl	%eax, -4(%ebp)
	.loc 5 274 13
	movl	20(%ebp), %eax
	addl	$44, %eax
	movl	8(%ebp), %edx
	addl	$44, %edx
	movl	%eax, 12(%esp)
	movl	16(%ebp), %eax
	movl	%eax, 8(%esp)
	movl	%edx, 4(%esp)
	movl	-4(%ebp), %eax
	movl	%eax, (%esp)
	call	__MULTIPLYX_DIGIT_UNIT
	movl	%eax, -4(%ebp)
	.loc 5 275 13
	movl	20(%ebp), %eax
	addl	$48, %eax
	movl	8(%ebp), %edx
	addl	$48, %edx
	movl	%eax, 12(%esp)
	movl	16(%ebp), %eax
	movl	%eax, 8(%esp)
	movl	%edx, 4(%esp)
	movl	-4(%ebp), %eax
	movl	%eax, (%esp)
	call	__MULTIPLYX_DIGIT_UNIT
	movl	%eax, -4(%ebp)
	.loc 5 276 13
	movl	20(%ebp), %eax
	addl	$52, %eax
	movl	8(%ebp), %edx
	addl	$52, %edx
	movl	%eax, 12(%esp)
	movl	16(%ebp), %eax
	movl	%eax, 8(%esp)
	movl	%edx, 4(%esp)
	movl	-4(%ebp), %eax
	movl	%eax, (%esp)
	call	__MULTIPLYX_DIGIT_UNIT
	movl	%eax, -4(%ebp)
	.loc 5 277 13
	movl	20(%ebp), %eax
	addl	$56, %eax
	movl	8(%ebp), %edx
	addl	$56, %edx
	movl	%eax, 12(%esp)
	movl	16(%ebp), %eax
	movl	%eax, 8(%esp)
	movl	%edx, 4(%esp)
	movl	-4(%ebp), %eax
	movl	%eax, (%esp)
	call	__MULTIPLYX_DIGIT_UNIT
	movl	%eax, -4(%ebp)
	.loc 5 278 13
	movl	20(%ebp), %eax
	addl	$60, %eax
	movl	8(%ebp), %edx
	addl	$60, %edx
	movl	%eax, 12(%esp)
	movl	16(%ebp), %eax
	movl	%eax, 8(%esp)
	movl	%edx, 4(%esp)
	movl	-4(%ebp), %eax
	movl	%eax, (%esp)
	call	__MULTIPLYX_DIGIT_UNIT
	movl	%eax, -4(%ebp)
	.loc 5 279 12
	addl	$64, 8(%ebp)
	.loc 5 280 12
	addl	$64, 20(%ebp)
	.loc 5 283 13
	movl	$16, (%esp)
	call	_AddToMULTI32Counter
L38:
	.loc 5 289 17
	movl	12(%ebp), %eax
	andl	$8, %eax
	.loc 5 289 8
	testl	%eax, %eax
	je	L39
	.loc 5 291 13
	movl	20(%ebp), %eax
	movl	%eax, 12(%esp)
	movl	16(%ebp), %eax
	movl	%eax, 8(%esp)
	movl	8(%ebp), %eax
	movl	%eax, 4(%esp)
	movl	-4(%ebp), %eax
	movl	%eax, (%esp)
	call	__MULTIPLYX_DIGIT_UNIT
	movl	%eax, -4(%ebp)
	.loc 5 292 13
	movl	20(%ebp), %eax
	addl	$4, %eax
	movl	8(%ebp), %edx
	addl	$4, %edx
	movl	%eax, 12(%esp)
	movl	16(%ebp), %eax
	movl	%eax, 8(%esp)
	movl	%edx, 4(%esp)
	movl	-4(%ebp), %eax
	movl	%eax, (%esp)
	call	__MULTIPLYX_DIGIT_UNIT
	movl	%eax, -4(%ebp)
	.loc 5 293 13
	movl	20(%ebp), %eax
	addl	$8, %eax
	movl	8(%ebp), %edx
	addl	$8, %edx
	movl	%eax, 12(%esp)
	movl	16(%ebp), %eax
	movl	%eax, 8(%esp)
	movl	%edx, 4(%esp)
	movl	-4(%ebp), %eax
	movl	%eax, (%esp)
	call	__MULTIPLYX_DIGIT_UNIT
	movl	%eax, -4(%ebp)
	.loc 5 294 13
	movl	20(%ebp), %eax
	addl	$12, %eax
	movl	8(%ebp), %edx
	addl	$12, %edx
	movl	%eax, 12(%esp)
	movl	16(%ebp), %eax
	movl	%eax, 8(%esp)
	movl	%edx, 4(%esp)
	movl	-4(%ebp), %eax
	movl	%eax, (%esp)
	call	__MULTIPLYX_DIGIT_UNIT
	movl	%eax, -4(%ebp)
	.loc 5 295 13
	movl	20(%ebp), %eax
	addl	$16, %eax
	movl	8(%ebp), %edx
	addl	$16, %edx
	movl	%eax, 12(%esp)
	movl	16(%ebp), %eax
	movl	%eax, 8(%esp)
	movl	%edx, 4(%esp)
	movl	-4(%ebp), %eax
	movl	%eax, (%esp)
	call	__MULTIPLYX_DIGIT_UNIT
	movl	%eax, -4(%ebp)
	.loc 5 296 13
	movl	20(%ebp), %eax
	addl	$20, %eax
	movl	8(%ebp), %edx
	addl	$20, %edx
	movl	%eax, 12(%esp)
	movl	16(%ebp), %eax
	movl	%eax, 8(%esp)
	movl	%edx, 4(%esp)
	movl	-4(%ebp), %eax
	movl	%eax, (%esp)
	call	__MULTIPLYX_DIGIT_UNIT
	movl	%eax, -4(%ebp)
	.loc 5 297 13
	movl	20(%ebp), %eax
	addl	$24, %eax
	movl	8(%ebp), %edx
	addl	$24, %edx
	movl	%eax, 12(%esp)
	movl	16(%ebp), %eax
	movl	%eax, 8(%esp)
	movl	%edx, 4(%esp)
	movl	-4(%ebp), %eax
	movl	%eax, (%esp)
	call	__MULTIPLYX_DIGIT_UNIT
	movl	%eax, -4(%ebp)
	.loc 5 298 13
	movl	20(%ebp), %eax
	addl	$28, %eax
	movl	8(%ebp), %edx
	addl	$28, %edx
	movl	%eax, 12(%esp)
	movl	16(%ebp), %eax
	movl	%eax, 8(%esp)
	movl	%edx, 4(%esp)
	movl	-4(%ebp), %eax
	movl	%eax, (%esp)
	call	__MULTIPLYX_DIGIT_UNIT
	movl	%eax, -4(%ebp)
	.loc 5 299 12
	addl	$32, 8(%ebp)
	.loc 5 300 12
	addl	$32, 20(%ebp)
	.loc 5 303 13
	movl	$8, (%esp)
	call	_AddToMULTI32Counter
L39:
	.loc 5 309 17
	movl	12(%ebp), %eax
	andl	$4, %eax
	.loc 5 309 8
	testl	%eax, %eax
	je	L40
	.loc 5 311 13
	movl	20(%ebp), %eax
	movl	%eax, 12(%esp)
	movl	16(%ebp), %eax
	movl	%eax, 8(%esp)
	movl	8(%ebp), %eax
	movl	%eax, 4(%esp)
	movl	-4(%ebp), %eax
	movl	%eax, (%esp)
	call	__MULTIPLYX_DIGIT_UNIT
	movl	%eax, -4(%ebp)
	.loc 5 312 13
	movl	20(%ebp), %eax
	addl	$4, %eax
	movl	8(%ebp), %edx
	addl	$4, %edx
	movl	%eax, 12(%esp)
	movl	16(%ebp), %eax
	movl	%eax, 8(%esp)
	movl	%edx, 4(%esp)
	movl	-4(%ebp), %eax
	movl	%eax, (%esp)
	call	__MULTIPLYX_DIGIT_UNIT
	movl	%eax, -4(%ebp)
	.loc 5 313 13
	movl	20(%ebp), %eax
	addl	$8, %eax
	movl	8(%ebp), %edx
	addl	$8, %edx
	movl	%eax, 12(%esp)
	movl	16(%ebp), %eax
	movl	%eax, 8(%esp)
	movl	%edx, 4(%esp)
	movl	-4(%ebp), %eax
	movl	%eax, (%esp)
	call	__MULTIPLYX_DIGIT_UNIT
	movl	%eax, -4(%ebp)
	.loc 5 314 13
	movl	20(%ebp), %eax
	addl	$12, %eax
	movl	8(%ebp), %edx
	addl	$12, %edx
	movl	%eax, 12(%esp)
	movl	16(%ebp), %eax
	movl	%eax, 8(%esp)
	movl	%edx, 4(%esp)
	movl	-4(%ebp), %eax
	movl	%eax, (%esp)
	call	__MULTIPLYX_DIGIT_UNIT
	movl	%eax, -4(%ebp)
	.loc 5 315 12
	addl	$16, 8(%ebp)
	.loc 5 316 12
	addl	$16, 20(%ebp)
	.loc 5 319 13
	movl	$4, (%esp)
	call	_AddToMULTI32Counter
L40:
	.loc 5 325 17
	movl	12(%ebp), %eax
	andl	$2, %eax
	.loc 5 325 8
	testl	%eax, %eax
	je	L41
	.loc 5 327 13
	movl	20(%ebp), %eax
	movl	%eax, 12(%esp)
	movl	16(%ebp), %eax
	movl	%eax, 8(%esp)
	movl	8(%ebp), %eax
	movl	%eax, 4(%esp)
	movl	-4(%ebp), %eax
	movl	%eax, (%esp)
	call	__MULTIPLYX_DIGIT_UNIT
	movl	%eax, -4(%ebp)
	.loc 5 328 13
	movl	20(%ebp), %eax
	addl	$4, %eax
	movl	8(%ebp), %edx
	addl	$4, %edx
	movl	%eax, 12(%esp)
	movl	16(%ebp), %eax
	movl	%eax, 8(%esp)
	movl	%edx, 4(%esp)
	movl	-4(%ebp), %eax
	movl	%eax, (%esp)
	call	__MULTIPLYX_DIGIT_UNIT
	movl	%eax, -4(%ebp)
	.loc 5 329 12
	addl	$8, 8(%ebp)
	.loc 5 330 12
	addl	$8, 20(%ebp)
	.loc 5 333 13
	movl	$2, (%esp)
	call	_AddToMULTI32Counter
L41:
	.loc 5 339 17
	movl	12(%ebp), %eax
	andl	$1, %eax
	.loc 5 339 8
	testl	%eax, %eax
	je	L42
	.loc 5 341 13
	movl	20(%ebp), %eax
	movl	%eax, 12(%esp)
	movl	16(%ebp), %eax
	movl	%eax, 8(%esp)
	movl	8(%ebp), %eax
	movl	%eax, 4(%esp)
	movl	-4(%ebp), %eax
	movl	%eax, (%esp)
	call	__MULTIPLYX_DIGIT_UNIT
	movl	%eax, -4(%ebp)
	.loc 5 342 12
	addl	$4, 8(%ebp)
	.loc 5 343 12
	addl	$4, 20(%ebp)
	.loc 5 346 13
	call	_IncrementMULTI32Counter
L42:
	.loc 5 352 8
	cmpl	$0, -4(%ebp)
	je	L43
	.loc 5 353 13
	movl	20(%ebp), %eax
	movl	-4(%ebp), %edx
	movl	%edx, (%eax)
L43:
	.loc 5 355 12
	movl	$0, %eax
	.loc 5 356 1
	leave
	.cfi_restore 5
	.cfi_def_cfa 4, 4
	ret
	.cfi_endproc
LFE4248:
	.def	_Multiply_X_1W_using_MUL_ADC;	.scl	3;	.type	32;	.endef
_Multiply_X_1W_using_MUL_ADC:
LFB4249:
	.loc 5 360 1
	.cfi_startproc
	pushl	%ebp
	.cfi_def_cfa_offset 8
	.cfi_offset 5, -8
	movl	%esp, %ebp
	.cfi_def_cfa_register 5
	subl	$16, %esp
	.loc 5 361 5
	movl	20(%ebp), %eax
	movl	%eax, 12(%esp)
	movl	16(%ebp), %eax
	movl	%eax, 8(%esp)
	movl	12(%ebp), %eax
	movl	%eax, 4(%esp)
	movl	8(%ebp), %eax
	movl	%eax, (%esp)
	call	_Multiply_WORD_using_MUL_ADC
	.loc 5 362 1
	nop
	leave
	.cfi_restore 5
	.cfi_def_cfa 4, 4
	ret
	.cfi_endproc
LFE4249:
	.def	_Multiply_X_1W_using_MULX_ADCX;	.scl	3;	.type	32;	.endef
_Multiply_X_1W_using_MULX_ADCX:
LFB4250:
	.loc 5 365 1
	.cfi_startproc
	pushl	%ebp
	.cfi_def_cfa_offset 8
	.cfi_offset 5, -8
	movl	%esp, %ebp
	.cfi_def_cfa_register 5
	subl	$16, %esp
	.loc 5 366 5
	movl	20(%ebp), %eax
	movl	%eax, 12(%esp)
	movl	16(%ebp), %eax
	movl	%eax, 8(%esp)
	movl	12(%ebp), %eax
	movl	%eax, 4(%esp)
	movl	8(%ebp), %eax
	movl	%eax, (%esp)
	call	_Multiply_WORD_using_MULX_ADCX
	.loc 5 367 1
	nop
	leave
	.cfi_restore 5
	.cfi_def_cfa 4, 4
	ret
	.cfi_endproc
LFE4250:
	.def	_Multiply_X_2W_using_MUL_ADC;	.scl	3;	.type	32;	.endef
_Multiply_X_2W_using_MUL_ADC:
LFB4251:
	.loc 5 370 1
	.cfi_startproc
	pushl	%ebp
	.cfi_def_cfa_offset 8
	.cfi_offset 5, -8
	movl	%esp, %ebp
	.cfi_def_cfa_register 5
	subl	$16, %esp
	.loc 5 371 5
	movl	24(%ebp), %eax
	movl	%eax, 12(%esp)
	movl	20(%ebp), %eax
	movl	%eax, 8(%esp)
	movl	12(%ebp), %eax
	movl	%eax, 4(%esp)
	movl	8(%ebp), %eax
	movl	%eax, (%esp)
	call	_Multiply_WORD_using_MUL_ADC
	.loc 5 372 5
	movl	24(%ebp), %eax
	addl	$4, %eax
	movl	%eax, 12(%esp)
	movl	16(%ebp), %eax
	movl	%eax, 8(%esp)
	movl	12(%ebp), %eax
	movl	%eax, 4(%esp)
	movl	8(%ebp), %eax
	movl	%eax, (%esp)
	call	_Multiply_WORD_using_MUL_ADC
	.loc 5 373 1
	nop
	leave
	.cfi_restore 5
	.cfi_def_cfa 4, 4
	ret
	.cfi_endproc
LFE4251:
	.def	_Multiply_X_2W_using_MULX_ADCX;	.scl	3;	.type	32;	.endef
_Multiply_X_2W_using_MULX_ADCX:
LFB4252:
	.loc 5 376 1
	.cfi_startproc
	pushl	%ebp
	.cfi_def_cfa_offset 8
	.cfi_offset 5, -8
	movl	%esp, %ebp
	.cfi_def_cfa_register 5
	subl	$16, %esp
	.loc 5 377 5
	movl	24(%ebp), %eax
	movl	%eax, 12(%esp)
	movl	20(%ebp), %eax
	movl	%eax, 8(%esp)
	movl	12(%ebp), %eax
	movl	%eax, 4(%esp)
	movl	8(%ebp), %eax
	movl	%eax, (%esp)
	call	_Multiply_WORD_using_MULX_ADCX
	.loc 5 378 5
	movl	24(%ebp), %eax
	addl	$4, %eax
	movl	%eax, 12(%esp)
	movl	16(%ebp), %eax
	movl	%eax, 8(%esp)
	movl	12(%ebp), %eax
	movl	%eax, 4(%esp)
	movl	8(%ebp), %eax
	movl	%eax, (%esp)
	call	_Multiply_WORD_using_MULX_ADCX
	.loc 5 379 1
	nop
	leave
	.cfi_restore 5
	.cfi_def_cfa 4, 4
	ret
	.cfi_endproc
LFE4252:
	.def	_Multiply_X_X_using_MUL_ADC;	.scl	3;	.type	32;	.endef
_Multiply_X_X_using_MUL_ADC:
LFB4253:
	.loc 5 382 1
	.cfi_startproc
	pushl	%ebp
	.cfi_def_cfa_offset 8
	.cfi_offset 5, -8
	movl	%esp, %ebp
	.cfi_def_cfa_register 5
	subl	$48, %esp
	.loc 5 384 8
	movl	12(%ebp), %eax
	cmpl	20(%ebp), %eax
	jnb	L50
LBB18:
	.loc 5 386 22
	movl	8(%ebp), %eax
	movl	%eax, -12(%ebp)
	.loc 5 387 15
	movl	16(%ebp), %eax
	movl	%eax, 8(%ebp)
	.loc 5 388 15
	movl	-12(%ebp), %eax
	movl	%eax, 16(%ebp)
	.loc 5 389 21
	movl	12(%ebp), %eax
	movl	%eax, -16(%ebp)
	.loc 5 390 17
	movl	20(%ebp), %eax
	movl	%eax, 12(%ebp)
	.loc 5 391 17
	movl	-16(%ebp), %eax
	movl	%eax, 20(%ebp)
L50:
LBE18:
	.loc 5 393 18
	movl	8(%ebp), %eax
	movl	%eax, -20(%ebp)
	.loc 5 394 18
	movl	16(%ebp), %eax
	movl	%eax, -4(%ebp)
	.loc 5 395 18
	movl	24(%ebp), %eax
	movl	%eax, -8(%ebp)
L51:
	.loc 5 399 9 discriminator 1
	movl	-4(%ebp), %eax
	movl	(%eax), %eax
	movl	-8(%ebp), %edx
	movl	%edx, 12(%esp)
	movl	%eax, 8(%esp)
	movl	12(%ebp), %eax
	movl	%eax, 4(%esp)
	movl	-20(%ebp), %eax
	movl	%eax, (%esp)
	call	_Multiply_WORD_using_MUL_ADC
	.loc 5 400 9 discriminator 1
	addl	$4, -4(%ebp)
	.loc 5 401 9 discriminator 1
	addl	$4, -8(%ebp)
	.loc 5 402 9 discriminator 1
	subl	$1, 20(%ebp)
	.loc 5 403 5 discriminator 1
	cmpl	$0, 20(%ebp)
	jne	L51
	.loc 5 404 1
	nop
	leave
	.cfi_restore 5
	.cfi_def_cfa 4, 4
	ret
	.cfi_endproc
LFE4253:
	.def	_Multiply_X_X_using_MULX_ADCX;	.scl	3;	.type	32;	.endef
_Multiply_X_X_using_MULX_ADCX:
LFB4254:
	.loc 5 407 1
	.cfi_startproc
	pushl	%ebp
	.cfi_def_cfa_offset 8
	.cfi_offset 5, -8
	movl	%esp, %ebp
	.cfi_def_cfa_register 5
	subl	$48, %esp
	.loc 5 409 8
	movl	12(%ebp), %eax
	cmpl	20(%ebp), %eax
	jnb	L53
LBB19:
	.loc 5 411 22
	movl	8(%ebp), %eax
	movl	%eax, -12(%ebp)
	.loc 5 412 15
	movl	16(%ebp), %eax
	movl	%eax, 8(%ebp)
	.loc 5 413 15
	movl	-12(%ebp), %eax
	movl	%eax, 16(%ebp)
	.loc 5 414 21
	movl	12(%ebp), %eax
	movl	%eax, -16(%ebp)
	.loc 5 415 17
	movl	20(%ebp), %eax
	movl	%eax, 12(%ebp)
	.loc 5 416 17
	movl	-16(%ebp), %eax
	movl	%eax, 20(%ebp)
L53:
LBE19:
	.loc 5 418 18
	movl	8(%ebp), %eax
	movl	%eax, -20(%ebp)
	.loc 5 419 18
	movl	16(%ebp), %eax
	movl	%eax, -4(%ebp)
	.loc 5 420 18
	movl	24(%ebp), %eax
	movl	%eax, -8(%ebp)
L54:
	.loc 5 424 9 discriminator 1
	movl	-4(%ebp), %eax
	movl	(%eax), %eax
	movl	-8(%ebp), %edx
	movl	%edx, 12(%esp)
	movl	%eax, 8(%esp)
	movl	12(%ebp), %eax
	movl	%eax, 4(%esp)
	movl	-20(%ebp), %eax
	movl	%eax, (%esp)
	call	_Multiply_WORD_using_MULX_ADCX
	.loc 5 425 9 discriminator 1
	addl	$4, -4(%ebp)
	.loc 5 426 9 discriminator 1
	addl	$4, -8(%ebp)
	.loc 5 427 9 discriminator 1
	subl	$1, 20(%ebp)
	.loc 5 428 5 discriminator 1
	cmpl	$0, 20(%ebp)
	jne	L54
	.loc 5 429 1
	nop
	leave
	.cfi_restore 5
	.cfi_def_cfa 4, 4
	ret
	.cfi_endproc
LFE4254:
	.def	_PMC_Multiply_X_I_Imp;	.scl	3;	.type	32;	.endef
_PMC_Multiply_X_I_Imp:
LFB4255:
	.loc 5 432 1
	.cfi_startproc
	pushl	%ebp
	.cfi_def_cfa_offset 8
	.cfi_offset 5, -8
	movl	%esp, %ebp
	.cfi_def_cfa_register 5
	pushl	%ebx
	subl	$52, %esp
	.cfi_offset 3, -12
	.loc 5 434 9
	movl	8(%ebp), %eax
	movzbl	24(%eax), %eax
	andl	$2, %eax
	.loc 5 434 8
	testb	%al, %al
	je	L56
	.loc 5 439 12
	movl	16(%ebp), %eax
	movl	$_number_zero, (%eax)
	jmp	L57
L56:
	.loc 5 441 14
	movl	8(%ebp), %eax
	movzbl	24(%eax), %eax
	andl	$4, %eax
	.loc 5 441 13
	testb	%al, %al
	je	L58
	.loc 5 444 12
	cmpl	$0, 12(%ebp)
	jne	L59
	.loc 5 449 16
	movl	16(%ebp), %eax
	movl	$_number_zero, (%eax)
	jmp	L57
L59:
	.loc 5 456 27
	movl	16(%ebp), %eax
	movl	%eax, 4(%esp)
	movl	12(%ebp), %eax
	movl	%eax, (%esp)
	call	_From_I_Imp
	movl	%eax, -12(%ebp)
	.loc 5 456 16
	cmpl	$0, -12(%ebp)
	je	L57
	.loc 5 457 24
	movl	-12(%ebp), %eax
	jmp	L60
L58:
	.loc 5 464 12
	cmpl	$0, 12(%ebp)
	jne	L61
	.loc 5 469 16
	movl	16(%ebp), %eax
	movl	$_number_zero, (%eax)
	jmp	L57
L61:
	.loc 5 471 17
	cmpl	$1, 12(%ebp)
	jne	L62
	.loc 5 476 27
	movl	16(%ebp), %eax
	movl	%eax, 4(%esp)
	movl	8(%ebp), %eax
	movl	%eax, (%esp)
	call	_DuplicateNumber
	movl	%eax, -12(%ebp)
	.loc 5 476 16
	cmpl	$0, -12(%ebp)
	je	L57
	.loc 5 477 24
	movl	-12(%ebp), %eax
	jmp	L60
L62:
LBB20:
	.loc 5 484 25
	movl	8(%ebp), %eax
	movl	12(%eax), %eax
	movl	%eax, -16(%ebp)
	.loc 5 485 55
	movl	12(%ebp), %eax
	movl	%eax, (%esp)
	call	__LZCNT_ALT_32
	.loc 5 485 25
	movl	$32, %edx
	subl	%eax, %edx
	movl	%edx, %eax
	movl	%eax, -20(%ebp)
	.loc 5 486 25
	movl	-16(%ebp), %edx
	movl	-20(%ebp), %eax
	addl	%edx, %eax
	movl	%eax, -24(%ebp)
	.loc 5 488 27
	leal	-28(%ebp), %eax
	movl	%eax, 8(%esp)
	movl	-24(%ebp), %eax
	movl	%eax, 4(%esp)
	movl	16(%ebp), %eax
	movl	%eax, (%esp)
	call	_AllocateNumber
	movl	%eax, -12(%ebp)
	.loc 5 488 16
	cmpl	$0, -12(%ebp)
	je	L63
	.loc 5 489 24
	movl	-12(%ebp), %eax
	jmp	L60
L63:
	.loc 5 490 14
	movl	_fp_Multiply_X_1W, %eax
	.loc 5 490 67
	movl	16(%ebp), %edx
	movl	(%edx), %edx
	.loc 5 490 14
	movl	32(%edx), %ebx
	movl	8(%ebp), %edx
	movl	8(%edx), %ecx
	movl	8(%ebp), %edx
	movl	32(%edx), %edx
	movl	%ebx, 12(%esp)
	movl	12(%ebp), %ebx
	movl	%ebx, 8(%esp)
	movl	%ecx, 4(%esp)
	movl	%edx, (%esp)
	call	*%eax
LVL1:
	.loc 5 491 27
	movl	-28(%ebp), %edx
	.loc 5 491 44
	movl	16(%ebp), %eax
	movl	(%eax), %eax
	.loc 5 491 27
	movl	32(%eax), %eax
	movl	%edx, 4(%esp)
	movl	%eax, (%esp)
	call	_CheckBlockLight
	movl	%eax, -12(%ebp)
	.loc 5 491 16
	cmpl	$0, -12(%ebp)
	je	L65
	.loc 5 492 24
	movl	-12(%ebp), %eax
	jmp	L60
L65:
	.loc 5 493 13
	movl	16(%ebp), %eax
	movl	(%eax), %eax
	movl	%eax, (%esp)
	call	_CommitNumber
L57:
LBE20:
	.loc 5 496 12
	movl	$0, %eax
L60:
	.loc 5 497 1
	addl	$52, %esp
	popl	%ebx
	.cfi_restore 3
	popl	%ebp
	.cfi_restore 5
	.cfi_def_cfa 4, 4
	ret
	.cfi_endproc
LFE4255:
	.globl	_PMC_Multiply_I_X@12
	.def	_PMC_Multiply_I_X@12;	.scl	2;	.type	32;	.endef
_PMC_Multiply_I_X@12:
LFB4256:
	.loc 5 500 1
	.cfi_startproc
	pushl	%ebp
	.cfi_def_cfa_offset 8
	.cfi_offset 5, -8
	movl	%esp, %ebp
	.cfi_def_cfa_register 5
	subl	$40, %esp
	.loc 5 506 8
	cmpl	$0, 12(%ebp)
	jne	L67
	.loc 5 507 16
	movl	$-1, %eax
	jmp	L68
L67:
	.loc 5 508 8
	cmpl	$0, 16(%ebp)
	jne	L69
	.loc 5 509 16
	movl	$-1, %eax
	jmp	L68
L69:
	.loc 5 511 19
	movl	12(%ebp), %eax
	movl	%eax, (%esp)
	call	_CheckNumber
	movl	%eax, -12(%ebp)
	.loc 5 511 8
	cmpl	$0, -12(%ebp)
	je	L70
	.loc 5 512 16
	movl	-12(%ebp), %eax
	jmp	L68
L70:
	.loc 5 513 19
	movl	16(%ebp), %eax
	movl	%eax, 8(%esp)
	movl	8(%ebp), %eax
	movl	%eax, 4(%esp)
	movl	12(%ebp), %eax
	movl	%eax, (%esp)
	call	_PMC_Multiply_X_I_Imp
	movl	%eax, -12(%ebp)
	.loc 5 513 8
	cmpl	$0, -12(%ebp)
	je	L71
	.loc 5 514 16
	movl	-12(%ebp), %eax
	jmp	L68
L71:
	.loc 5 516 19
	movl	16(%ebp), %eax
	movl	(%eax), %eax
	movl	%eax, (%esp)
	call	_CheckNumber
	movl	%eax, -12(%ebp)
	.loc 5 516 8
	cmpl	$0, -12(%ebp)
	je	L72
	.loc 5 517 16
	movl	-12(%ebp), %eax
	jmp	L68
L72:
	.loc 5 519 12
	movl	$0, %eax
L68:
	.loc 5 520 1
	leave
	.cfi_restore 5
	.cfi_def_cfa 4, 4
	ret	$12
	.cfi_endproc
LFE4256:
	.globl	_PMC_Multiply_X_I@12
	.def	_PMC_Multiply_X_I@12;	.scl	2;	.type	32;	.endef
_PMC_Multiply_X_I@12:
LFB4257:
	.loc 5 523 1
	.cfi_startproc
	pushl	%ebp
	.cfi_def_cfa_offset 8
	.cfi_offset 5, -8
	movl	%esp, %ebp
	.cfi_def_cfa_register 5
	subl	$40, %esp
	.loc 5 529 8
	cmpl	$0, 8(%ebp)
	jne	L74
	.loc 5 530 16
	movl	$-1, %eax
	jmp	L75
L74:
	.loc 5 531 8
	cmpl	$0, 16(%ebp)
	jne	L76
	.loc 5 532 16
	movl	$-1, %eax
	jmp	L75
L76:
	.loc 5 534 19
	movl	8(%ebp), %eax
	movl	%eax, (%esp)
	call	_CheckNumber
	movl	%eax, -12(%ebp)
	.loc 5 534 8
	cmpl	$0, -12(%ebp)
	je	L77
	.loc 5 535 16
	movl	-12(%ebp), %eax
	jmp	L75
L77:
	.loc 5 536 19
	movl	16(%ebp), %eax
	movl	%eax, 8(%esp)
	movl	12(%ebp), %eax
	movl	%eax, 4(%esp)
	movl	8(%ebp), %eax
	movl	%eax, (%esp)
	call	_PMC_Multiply_X_I_Imp
	movl	%eax, -12(%ebp)
	.loc 5 536 8
	cmpl	$0, -12(%ebp)
	je	L78
	.loc 5 537 16
	movl	-12(%ebp), %eax
	jmp	L75
L78:
	.loc 5 539 19
	movl	16(%ebp), %eax
	movl	(%eax), %eax
	movl	%eax, (%esp)
	call	_CheckNumber
	movl	%eax, -12(%ebp)
	.loc 5 539 8
	cmpl	$0, -12(%ebp)
	je	L79
	.loc 5 540 16
	movl	-12(%ebp), %eax
	jmp	L75
L79:
	.loc 5 542 12
	movl	$0, %eax
L75:
	.loc 5 543 1
	leave
	.cfi_restore 5
	.cfi_def_cfa 4, 4
	ret	$12
	.cfi_endproc
LFE4257:
	.def	_PMC_Multiply_X_L_Imp;	.scl	3;	.type	32;	.endef
_PMC_Multiply_X_L_Imp:
LFB4258:
	.loc 5 546 1
	.cfi_startproc
	pushl	%ebp
	.cfi_def_cfa_offset 8
	.cfi_offset 5, -8
	movl	%esp, %ebp
	.cfi_def_cfa_register 5
	pushl	%esi
	pushl	%ebx
	subl	$96, %esp
	.cfi_offset 6, -12
	.cfi_offset 3, -16
	movl	12(%ebp), %eax
	movl	%eax, -64(%ebp)
	movl	16(%ebp), %eax
	movl	%eax, -60(%ebp)
	.loc 5 548 9
	movl	8(%ebp), %eax
	movzbl	24(%eax), %eax
	andl	$2, %eax
	.loc 5 548 8
	testb	%al, %al
	je	L81
	.loc 5 553 12
	movl	20(%ebp), %eax
	movl	$_number_zero, (%eax)
	jmp	L82
L81:
	.loc 5 555 14
	movl	8(%ebp), %eax
	movzbl	24(%eax), %eax
	andl	$4, %eax
	.loc 5 555 13
	testb	%al, %al
	je	L83
	.loc 5 558 12
	movl	-64(%ebp), %eax
	xorb	$0, %ah
	movl	%eax, -72(%ebp)
	movl	-60(%ebp), %eax
	xorb	$0, %ah
	movl	%eax, -68(%ebp)
	movl	-72(%ebp), %ecx
	movl	-68(%ebp), %ebx
	movl	%ebx, %eax
	orl	%ecx, %eax
	testl	%eax, %eax
	jne	L84
	.loc 5 563 16
	movl	20(%ebp), %eax
	movl	$_number_zero, (%eax)
	jmp	L82
L84:
	.loc 5 570 27
	movl	20(%ebp), %eax
	movl	%eax, 8(%esp)
	movl	-64(%ebp), %eax
	movl	-60(%ebp), %edx
	movl	%eax, (%esp)
	movl	%edx, 4(%esp)
	call	_From_L_Imp
	movl	%eax, -12(%ebp)
	.loc 5 570 16
	cmpl	$0, -12(%ebp)
	je	L82
	.loc 5 571 24
	movl	-12(%ebp), %eax
	jmp	L85
L83:
	.loc 5 578 12
	movl	-64(%ebp), %eax
	xorb	$0, %ah
	movl	%eax, %ebx
	movl	-60(%ebp), %eax
	xorb	$0, %ah
	movl	%eax, %esi
	movl	%esi, %eax
	orl	%ebx, %eax
	testl	%eax, %eax
	jne	L86
	.loc 5 583 16
	movl	20(%ebp), %eax
	movl	$_number_zero, (%eax)
	jmp	L82
L86:
	.loc 5 585 17
	movl	-64(%ebp), %eax
	xorl	$1, %eax
	movl	%eax, %edx
	movl	-60(%ebp), %eax
	xorb	$0, %ah
	movl	%eax, %ecx
	movl	%ecx, %eax
	orl	%edx, %eax
	testl	%eax, %eax
	jne	L87
	.loc 5 590 27
	movl	20(%ebp), %eax
	movl	%eax, 4(%esp)
	movl	8(%ebp), %eax
	movl	%eax, (%esp)
	call	_DuplicateNumber
	movl	%eax, -12(%ebp)
	.loc 5 590 16
	cmpl	$0, -12(%ebp)
	je	L82
	.loc 5 591 24
	movl	-12(%ebp), %eax
	jmp	L85
L87:
LBB21:
	.loc 5 602 29
	movl	8(%ebp), %eax
	movl	12(%eax), %eax
	movl	%eax, -16(%ebp)
	.loc 5 604 34
	leal	-40(%ebp), %eax
	movl	%eax, 8(%esp)
	movl	-64(%ebp), %eax
	movl	-60(%ebp), %edx
	movl	%eax, (%esp)
	movl	%edx, 4(%esp)
	call	__FROMDWORDTOWORD
	movl	%eax, -20(%ebp)
	.loc 5 605 26
	movl	-40(%ebp), %eax
	.loc 5 605 20
	testl	%eax, %eax
	jne	L88
LBB22:
	.loc 5 608 66
	movl	-20(%ebp), %eax
	movl	%eax, (%esp)
	call	__LZCNT_ALT_32
	.loc 5 608 33
	movl	$32, %edx
	subl	%eax, %edx
	movl	%edx, %eax
	movl	%eax, -24(%ebp)
	.loc 5 609 33
	movl	-16(%ebp), %edx
	movl	-24(%ebp), %eax
	addl	%edx, %eax
	movl	%eax, -28(%ebp)
	.loc 5 611 35
	leal	-44(%ebp), %eax
	movl	%eax, 8(%esp)
	movl	-28(%ebp), %eax
	movl	%eax, 4(%esp)
	movl	20(%ebp), %eax
	movl	%eax, (%esp)
	call	_AllocateNumber
	movl	%eax, -12(%ebp)
	.loc 5 611 24
	cmpl	$0, -12(%ebp)
	je	L89
	.loc 5 612 32
	movl	-12(%ebp), %eax
	jmp	L85
L89:
	.loc 5 613 22
	movl	_fp_Multiply_X_1W, %eax
	.loc 5 613 78
	movl	20(%ebp), %edx
	movl	(%edx), %edx
	.loc 5 613 22
	movl	32(%edx), %ebx
	movl	8(%ebp), %edx
	movl	8(%edx), %ecx
	movl	8(%ebp), %edx
	movl	32(%edx), %edx
	movl	%ebx, 12(%esp)
	movl	-20(%ebp), %ebx
	movl	%ebx, 8(%esp)
	movl	%ecx, 4(%esp)
	movl	%edx, (%esp)
	call	*%eax
LVL2:
	.loc 5 614 35
	movl	-44(%ebp), %edx
	.loc 5 614 52
	movl	20(%ebp), %eax
	movl	(%eax), %eax
	.loc 5 614 35
	movl	32(%eax), %eax
	movl	%edx, 4(%esp)
	movl	%eax, (%esp)
	call	_CheckBlockLight
	movl	%eax, -12(%ebp)
	.loc 5 614 24
	cmpl	$0, -12(%ebp)
	je	L92
	.loc 5 615 32
	movl	-12(%ebp), %eax
	jmp	L85
L88:
LBE22:
LBB23:
	.loc 5 620 63
	movl	-40(%ebp), %eax
	movl	%eax, (%esp)
	call	__LZCNT_ALT_32
	.loc 5 620 33
	movl	$64, %edx
	subl	%eax, %edx
	movl	%edx, %eax
	movl	%eax, -32(%ebp)
	.loc 5 621 33
	movl	-16(%ebp), %edx
	movl	-32(%ebp), %eax
	addl	%edx, %eax
	movl	%eax, -36(%ebp)
	.loc 5 623 35
	leal	-48(%ebp), %eax
	movl	%eax, 8(%esp)
	movl	-36(%ebp), %eax
	movl	%eax, 4(%esp)
	movl	20(%ebp), %eax
	movl	%eax, (%esp)
	call	_AllocateNumber
	movl	%eax, -12(%ebp)
	.loc 5 623 24
	cmpl	$0, -12(%ebp)
	je	L94
	.loc 5 624 32
	movl	-12(%ebp), %eax
	jmp	L85
L94:
	.loc 5 625 22
	movl	_fp_Multiply_X_2W, %eax
	.loc 5 625 84
	movl	20(%ebp), %edx
	movl	(%edx), %edx
	.loc 5 625 22
	movl	32(%edx), %esi
	movl	-40(%ebp), %ebx
	movl	8(%ebp), %edx
	movl	8(%edx), %ecx
	movl	8(%ebp), %edx
	movl	32(%edx), %edx
	movl	%esi, 16(%esp)
	movl	-20(%ebp), %esi
	movl	%esi, 12(%esp)
	movl	%ebx, 8(%esp)
	movl	%ecx, 4(%esp)
	movl	%edx, (%esp)
	call	*%eax
LVL3:
	.loc 5 626 35
	movl	-48(%ebp), %edx
	.loc 5 626 52
	movl	20(%ebp), %eax
	movl	(%eax), %eax
	.loc 5 626 35
	movl	32(%eax), %eax
	movl	%edx, 4(%esp)
	movl	%eax, (%esp)
	call	_CheckBlockLight
	movl	%eax, -12(%ebp)
	.loc 5 626 24
	cmpl	$0, -12(%ebp)
	je	L92
	.loc 5 627 32
	movl	-12(%ebp), %eax
	jmp	L85
L92:
LBE23:
	.loc 5 629 17 discriminator 2
	movl	20(%ebp), %eax
	movl	(%eax), %eax
	movl	%eax, (%esp)
	call	_CommitNumber
L82:
LBE21:
	.loc 5 648 12
	movl	$0, %eax
L85:
	.loc 5 649 1 discriminator 4
	addl	$96, %esp
	popl	%ebx
	.cfi_restore 3
	popl	%esi
	.cfi_restore 6
	popl	%ebp
	.cfi_restore 5
	.cfi_def_cfa 4, 4
	ret
	.cfi_endproc
LFE4258:
	.globl	_PMC_Multiply_L_X@16
	.def	_PMC_Multiply_L_X@16;	.scl	2;	.type	32;	.endef
_PMC_Multiply_L_X@16:
LFB4259:
	.loc 5 652 1
	.cfi_startproc
	pushl	%ebp
	.cfi_def_cfa_offset 8
	.cfi_offset 5, -8
	movl	%esp, %ebp
	.cfi_def_cfa_register 5
	subl	$56, %esp
	movl	8(%ebp), %eax
	movl	%eax, -32(%ebp)
	movl	12(%ebp), %eax
	movl	%eax, -28(%ebp)
	.loc 5 658 8
	cmpl	$0, 16(%ebp)
	jne	L98
	.loc 5 659 16
	movl	$-1, %eax
	jmp	L99
L98:
	.loc 5 660 8
	cmpl	$0, 20(%ebp)
	jne	L100
	.loc 5 661 16
	movl	$-1, %eax
	jmp	L99
L100:
	.loc 5 663 19
	movl	16(%ebp), %eax
	movl	%eax, (%esp)
	call	_CheckNumber
	movl	%eax, -12(%ebp)
	.loc 5 663 8
	cmpl	$0, -12(%ebp)
	je	L101
	.loc 5 664 16
	movl	-12(%ebp), %eax
	jmp	L99
L101:
	.loc 5 665 19
	movl	20(%ebp), %eax
	movl	%eax, 12(%esp)
	movl	-32(%ebp), %eax
	movl	-28(%ebp), %edx
	movl	%eax, 4(%esp)
	movl	%edx, 8(%esp)
	movl	16(%ebp), %eax
	movl	%eax, (%esp)
	call	_PMC_Multiply_X_L_Imp
	movl	%eax, -12(%ebp)
	.loc 5 665 8
	cmpl	$0, -12(%ebp)
	je	L102
	.loc 5 666 16
	movl	-12(%ebp), %eax
	jmp	L99
L102:
	.loc 5 668 19
	movl	20(%ebp), %eax
	movl	(%eax), %eax
	movl	%eax, (%esp)
	call	_CheckNumber
	movl	%eax, -12(%ebp)
	.loc 5 668 8
	cmpl	$0, -12(%ebp)
	je	L103
	.loc 5 669 16
	movl	-12(%ebp), %eax
	jmp	L99
L103:
	.loc 5 671 12
	movl	$0, %eax
L99:
	.loc 5 672 1
	leave
	.cfi_restore 5
	.cfi_def_cfa 4, 4
	ret	$16
	.cfi_endproc
LFE4259:
	.globl	_PMC_Multiply_X_L@16
	.def	_PMC_Multiply_X_L@16;	.scl	2;	.type	32;	.endef
_PMC_Multiply_X_L@16:
LFB4260:
	.loc 5 675 1
	.cfi_startproc
	pushl	%ebp
	.cfi_def_cfa_offset 8
	.cfi_offset 5, -8
	movl	%esp, %ebp
	.cfi_def_cfa_register 5
	subl	$56, %esp
	movl	12(%ebp), %eax
	movl	%eax, -32(%ebp)
	movl	16(%ebp), %eax
	movl	%eax, -28(%ebp)
	.loc 5 681 8
	cmpl	$0, 8(%ebp)
	jne	L105
	.loc 5 682 16
	movl	$-1, %eax
	jmp	L106
L105:
	.loc 5 683 8
	cmpl	$0, 20(%ebp)
	jne	L107
	.loc 5 684 16
	movl	$-1, %eax
	jmp	L106
L107:
	.loc 5 686 19
	movl	8(%ebp), %eax
	movl	%eax, (%esp)
	call	_CheckNumber
	movl	%eax, -12(%ebp)
	.loc 5 686 8
	cmpl	$0, -12(%ebp)
	je	L108
	.loc 5 687 16
	movl	-12(%ebp), %eax
	jmp	L106
L108:
	.loc 5 688 19
	movl	20(%ebp), %eax
	movl	%eax, 12(%esp)
	movl	-32(%ebp), %eax
	movl	-28(%ebp), %edx
	movl	%eax, 4(%esp)
	movl	%edx, 8(%esp)
	movl	8(%ebp), %eax
	movl	%eax, (%esp)
	call	_PMC_Multiply_X_L_Imp
	movl	%eax, -12(%ebp)
	.loc 5 688 8
	cmpl	$0, -12(%ebp)
	je	L109
	.loc 5 689 16
	movl	-12(%ebp), %eax
	jmp	L106
L109:
	.loc 5 691 19
	movl	20(%ebp), %eax
	movl	(%eax), %eax
	movl	%eax, (%esp)
	call	_CheckNumber
	movl	%eax, -12(%ebp)
	.loc 5 691 8
	cmpl	$0, -12(%ebp)
	je	L110
	.loc 5 692 16
	movl	-12(%ebp), %eax
	jmp	L106
L110:
	.loc 5 694 12
	movl	$0, %eax
L106:
	.loc 5 695 1
	leave
	.cfi_restore 5
	.cfi_def_cfa 4, 4
	ret	$16
	.cfi_endproc
LFE4260:
	.globl	_PMC_Multiply_X_X@12
	.def	_PMC_Multiply_X_X@12;	.scl	2;	.type	32;	.endef
_PMC_Multiply_X_X@12:
LFB4261:
	.loc 5 698 1
	.cfi_startproc
	pushl	%ebp
	.cfi_def_cfa_offset 8
	.cfi_offset 5, -8
	movl	%esp, %ebp
	.cfi_def_cfa_register 5
	pushl	%edi
	pushl	%esi
	pushl	%ebx
	subl	$76, %esp
	.cfi_offset 7, -12
	.cfi_offset 6, -16
	.cfi_offset 3, -20
	.loc 5 699 8
	cmpl	$0, 8(%ebp)
	jne	L112
	.loc 5 700 16
	movl	$-1, %eax
	jmp	L131
L112:
	.loc 5 701 8
	cmpl	$0, 12(%ebp)
	jne	L114
	.loc 5 702 16
	movl	$-1, %eax
	jmp	L131
L114:
	.loc 5 703 8
	cmpl	$0, 16(%ebp)
	jne	L115
	.loc 5 704 16
	movl	$-1, %eax
	jmp	L131
L115:
	.loc 5 705 20
	movl	8(%ebp), %eax
	movl	%eax, -28(%ebp)
	.loc 5 706 20
	movl	12(%ebp), %eax
	movl	%eax, -32(%ebp)
	.loc 5 708 19
	movl	-28(%ebp), %eax
	movl	%eax, (%esp)
	call	_CheckNumber
	movl	%eax, -36(%ebp)
	.loc 5 708 8
	cmpl	$0, -36(%ebp)
	je	L116
	.loc 5 709 16
	movl	-36(%ebp), %eax
	jmp	L131
L116:
	.loc 5 710 19
	movl	-32(%ebp), %eax
	movl	%eax, (%esp)
	call	_CheckNumber
	movl	%eax, -36(%ebp)
	.loc 5 710 8
	cmpl	$0, -36(%ebp)
	je	L117
	.loc 5 711 16
	movl	-36(%ebp), %eax
	jmp	L131
L117:
	.loc 5 713 9
	movl	-28(%ebp), %eax
	movzbl	24(%eax), %eax
	andl	$2, %eax
	.loc 5 713 8
	testb	%al, %al
	je	L118
	.loc 5 718 12
	movl	16(%ebp), %eax
	movl	$_number_zero, (%eax)
	jmp	L119
L118:
	.loc 5 720 14
	movl	-28(%ebp), %eax
	movzbl	24(%eax), %eax
	andl	$4, %eax
	.loc 5 720 13
	testb	%al, %al
	je	L120
	.loc 5 723 13
	movl	-32(%ebp), %eax
	movzbl	24(%eax), %eax
	andl	$2, %eax
	.loc 5 723 12
	testb	%al, %al
	je	L121
	.loc 5 728 16
	movl	16(%ebp), %eax
	movl	$_number_zero, (%eax)
	jmp	L119
L121:
	.loc 5 735 27
	leal	-52(%ebp), %eax
	movl	%eax, 4(%esp)
	movl	-32(%ebp), %eax
	movl	%eax, (%esp)
	call	_DuplicateNumber
	movl	%eax, -36(%ebp)
	.loc 5 735 16
	cmpl	$0, -36(%ebp)
	je	L123
	.loc 5 736 24
	movl	-36(%ebp), %eax
	jmp	L131
L123:
	.loc 5 737 16
	movl	-52(%ebp), %edx
	movl	16(%ebp), %eax
	movl	%edx, (%eax)
	jmp	L119
L120:
	.loc 5 744 13
	movl	-32(%ebp), %eax
	movzbl	24(%eax), %eax
	andl	$2, %eax
	.loc 5 744 12
	testb	%al, %al
	je	L124
	.loc 5 749 16
	movl	$_number_zero, -52(%ebp)
	jmp	L125
L124:
	.loc 5 751 18
	movl	-32(%ebp), %eax
	movzbl	24(%eax), %eax
	andl	$4, %eax
	.loc 5 751 17
	testb	%al, %al
	je	L126
	.loc 5 756 27
	leal	-52(%ebp), %eax
	movl	%eax, 4(%esp)
	movl	-28(%ebp), %eax
	movl	%eax, (%esp)
	call	_DuplicateNumber
	movl	%eax, -36(%ebp)
	.loc 5 756 16
	cmpl	$0, -36(%ebp)
	je	L125
	.loc 5 757 24
	movl	-36(%ebp), %eax
	jmp	L131
L126:
LBB24:
	.loc 5 764 25
	movl	-28(%ebp), %eax
	movl	12(%eax), %eax
	movl	%eax, -40(%ebp)
	.loc 5 765 25
	movl	-32(%ebp), %eax
	movl	12(%eax), %eax
	movl	%eax, -44(%ebp)
	.loc 5 766 25
	movl	-40(%ebp), %edx
	movl	-44(%ebp), %eax
	addl	%edx, %eax
	movl	%eax, -48(%ebp)
	.loc 5 768 27
	leal	-56(%ebp), %eax
	movl	%eax, 8(%esp)
	movl	-48(%ebp), %eax
	movl	%eax, 4(%esp)
	leal	-52(%ebp), %eax
	movl	%eax, (%esp)
	call	_AllocateNumber
	movl	%eax, -36(%ebp)
	.loc 5 768 16
	cmpl	$0, -36(%ebp)
	je	L127
	.loc 5 769 24
	movl	-36(%ebp), %eax
	jmp	L131
L127:
	.loc 5 770 14
	movl	_fp_Multiply_X_X, %eax
	.loc 5 770 98
	movl	-52(%ebp), %edx
	.loc 5 770 14
	movl	32(%edx), %edi
	movl	-32(%ebp), %edx
	movl	8(%edx), %esi
	movl	-32(%ebp), %edx
	movl	32(%edx), %ebx
	movl	-28(%ebp), %edx
	movl	8(%edx), %ecx
	movl	-28(%ebp), %edx
	movl	32(%edx), %edx
	movl	%edi, 16(%esp)
	movl	%esi, 12(%esp)
	movl	%ebx, 8(%esp)
	movl	%ecx, 4(%esp)
	movl	%edx, (%esp)
	call	*%eax
LVL4:
	.loc 5 771 27
	movl	-56(%ebp), %edx
	.loc 5 771 45
	movl	-52(%ebp), %eax
	.loc 5 771 27
	movl	32(%eax), %eax
	movl	%edx, 4(%esp)
	movl	%eax, (%esp)
	call	_CheckBlockLight
	movl	%eax, -36(%ebp)
	.loc 5 771 16
	cmpl	$0, -36(%ebp)
	je	L129
	.loc 5 772 24
	movl	-36(%ebp), %eax
	jmp	L131
L129:
	.loc 5 773 13
	movl	-52(%ebp), %eax
	movl	%eax, (%esp)
	call	_CommitNumber
L125:
LBE24:
	.loc 5 775 12
	movl	-52(%ebp), %edx
	movl	16(%ebp), %eax
	movl	%edx, (%eax)
L119:
	.loc 5 778 19
	movl	16(%ebp), %eax
	movl	(%eax), %eax
	movl	%eax, (%esp)
	call	_CheckNumber
	movl	%eax, -36(%ebp)
	.loc 5 778 8
	cmpl	$0, -36(%ebp)
	je	L130
	.loc 5 779 16
	movl	-36(%ebp), %eax
	jmp	L131
L130:
	.loc 5 781 12
	movl	$0, %eax
L131:
	.loc 5 782 1 discriminator 1
	addl	$76, %esp
	popl	%ebx
	.cfi_restore 3
	popl	%esi
	.cfi_restore 6
	popl	%edi
	.cfi_restore 7
	popl	%ebp
	.cfi_restore 5
	.cfi_def_cfa 4, 4
	ret	$12
	.cfi_endproc
LFE4261:
	.globl	_Initialize_Multiply
	.def	_Initialize_Multiply;	.scl	2;	.type	32;	.endef
_Initialize_Multiply:
LFB4262:
	.loc 5 785 1
	.cfi_startproc
	pushl	%ebp
	.cfi_def_cfa_offset 8
	.cfi_offset 5, -8
	movl	%esp, %ebp
	.cfi_def_cfa_register 5
	.loc 5 786 9
	movl	8(%ebp), %eax
	movzbl	(%eax), %eax
	andl	$2, %eax
	.loc 5 786 8
	testb	%al, %al
	je	L133
	.loc 5 786 40 discriminator 1
	movl	8(%ebp), %eax
	movzbl	(%eax), %eax
	andl	$8, %eax
	testb	%al, %al
	je	L133
	.loc 5 788 26
	movl	$_Multiply_X_1W_using_MULX_ADCX, _fp_Multiply_X_1W
	.loc 5 789 26
	movl	$_Multiply_X_2W_using_MULX_ADCX, _fp_Multiply_X_2W
	.loc 5 790 25
	movl	$_Multiply_X_X_using_MULX_ADCX, _fp_Multiply_X_X
	jmp	L134
L133:
	.loc 5 794 26
	movl	$_Multiply_X_1W_using_MUL_ADC, _fp_Multiply_X_1W
	.loc 5 795 26
	movl	$_Multiply_X_2W_using_MUL_ADC, _fp_Multiply_X_2W
	.loc 5 796 25
	movl	$_Multiply_X_X_using_MUL_ADC, _fp_Multiply_X_X
L134:
	.loc 5 798 12
	movl	$0, %eax
	.loc 5 799 1
	popl	%ebp
	.cfi_restore 5
	.cfi_def_cfa 4, 4
	ret
	.cfi_endproc
LFE4262:
Letext0:
	.file 6 "C:/GNU/MINGW64/i686-8.1.0-win32-dwarf-rt_v6-rev0/mingw32/i686-w64-mingw32/include/crtdefs.h"
	.file 7 "C:/GNU/MINGW64/i686-8.1.0-win32-dwarf-rt_v6-rev0/mingw32/i686-w64-mingw32/include/excpt.h"
	.file 8 "C:/GNU/MINGW64/i686-8.1.0-win32-dwarf-rt_v6-rev0/mingw32/i686-w64-mingw32/include/minwindef.h"
	.file 9 "C:/GNU/MINGW64/i686-8.1.0-win32-dwarf-rt_v6-rev0/mingw32/i686-w64-mingw32/include/ctype.h"
	.file 10 "C:/GNU/MINGW64/i686-8.1.0-win32-dwarf-rt_v6-rev0/mingw32/i686-w64-mingw32/include/guiddef.h"
	.file 11 "C:/GNU/MINGW64/i686-8.1.0-win32-dwarf-rt_v6-rev0/mingw32/i686-w64-mingw32/include/winnt.h"
	.file 12 "C:/GNU/MINGW64/i686-8.1.0-win32-dwarf-rt_v6-rev0/mingw32/i686-w64-mingw32/include/rpcdce.h"
	.file 13 "C:/GNU/MINGW64/i686-8.1.0-win32-dwarf-rt_v6-rev0/mingw32/i686-w64-mingw32/include/stdlib.h"
	.file 14 "C:/GNU/MINGW64/i686-8.1.0-win32-dwarf-rt_v6-rev0/mingw32/i686-w64-mingw32/include/malloc.h"
	.file 15 "C:/GNU/MINGW64/i686-8.1.0-win32-dwarf-rt_v6-rev0/mingw32/i686-w64-mingw32/include/wtypesbase.h"
	.file 16 "C:/GNU/MINGW64/i686-8.1.0-win32-dwarf-rt_v6-rev0/mingw32/i686-w64-mingw32/include/unknwnbase.h"
	.file 17 "C:/GNU/MINGW64/i686-8.1.0-win32-dwarf-rt_v6-rev0/mingw32/i686-w64-mingw32/include/objidlbase.h"
	.file 18 "C:/GNU/MINGW64/i686-8.1.0-win32-dwarf-rt_v6-rev0/mingw32/i686-w64-mingw32/include/cguid.h"
	.file 19 "C:/GNU/MINGW64/i686-8.1.0-win32-dwarf-rt_v6-rev0/mingw32/i686-w64-mingw32/include/wtypes.h"
	.file 20 "C:/GNU/MINGW64/i686-8.1.0-win32-dwarf-rt_v6-rev0/mingw32/i686-w64-mingw32/include/combaseapi.h"
	.file 21 "C:/GNU/MINGW64/i686-8.1.0-win32-dwarf-rt_v6-rev0/mingw32/i686-w64-mingw32/include/objidl.h"
	.file 22 "C:/GNU/MINGW64/i686-8.1.0-win32-dwarf-rt_v6-rev0/mingw32/i686-w64-mingw32/include/oleidl.h"
	.file 23 "C:/GNU/MINGW64/i686-8.1.0-win32-dwarf-rt_v6-rev0/mingw32/i686-w64-mingw32/include/servprov.h"
	.file 24 "C:/GNU/MINGW64/i686-8.1.0-win32-dwarf-rt_v6-rev0/mingw32/i686-w64-mingw32/include/oaidl.h"
	.file 25 "C:/GNU/MINGW64/i686-8.1.0-win32-dwarf-rt_v6-rev0/mingw32/i686-w64-mingw32/include/msxml.h"
	.file 26 "C:/GNU/MINGW64/i686-8.1.0-win32-dwarf-rt_v6-rev0/mingw32/i686-w64-mingw32/include/urlmon.h"
	.file 27 "C:/GNU/MINGW64/i686-8.1.0-win32-dwarf-rt_v6-rev0/mingw32/i686-w64-mingw32/include/propidl.h"
	.file 28 "C:/GNU/MINGW64/i686-8.1.0-win32-dwarf-rt_v6-rev0/mingw32/i686-w64-mingw32/include/oleauto.h"
	.file 29 "C:/GNU/MINGW64/i686-8.1.0-win32-dwarf-rt_v6-rev0/mingw32/i686-w64-mingw32/include/winioctl.h"
	.file 30 "C:/GNU/MINGW64/i686-8.1.0-win32-dwarf-rt_v6-rev0/mingw32/i686-w64-mingw32/include/winsmcrd.h"
	.file 31 "C:/GNU/MINGW64/i686-8.1.0-win32-dwarf-rt_v6-rev0/mingw32/i686-w64-mingw32/include/winscard.h"
	.file 32 "C:/GNU/MINGW64/i686-8.1.0-win32-dwarf-rt_v6-rev0/mingw32/i686-w64-mingw32/include/commdlg.h"
	.file 33 "C:/GNU/MINGW64/i686-8.1.0-win32-dwarf-rt_v6-rev0/mingw32/i686-w64-mingw32/include/stdint.h"
	.file 34 "../pmc.h"
	.file 35 "../pmc_cpuid.h"
	.file 36 "../pmc_internal.h"