; Listing generated by Microsoft (R) Optimizing Compiler Version 19.16.27027.1 

	TITLE	Z:\Sources\Lunor\Repos\rougemeilland\Palmtree.Math.Core.Uint\Palmtree.Math.Core.Uint\dllmain.cpp
	.686P
	.XMM
	include listing.inc
	.model	flat

INCLUDELIB MSVCRTD
INCLUDELIB OLDNAMES

msvcjmc	SEGMENT
__7B7A869E_ctype@h DB 01H
__457DD326_basetsd@h DB 01H
__4384A2D9_corecrt_memcpy_s@h DB 01H
__2088847F_corecrt_memory@h DB 01H
__4E51A221_corecrt_wstring@h DB 01H
__2140C079_string@h DB 01H
__E9FFF232_guiddef@h DB 01H
__1887E595_winnt@h DB 01H
__9FC7C64B_processthreadsapi@h DB 01H
__FA470AEC_memoryapi@h DB 01H
__F37DAFF1_winerror@h DB 01H
__7A450CCC_winbase@h DB 01H
__12AD47BB_winuser@h DB 01H
__B4B40122_winioctl@h DB 01H
__A73354DD_stdlib@h DB 01H
__25F3FB34_propidl@h DB 01H
__A40E48B8_oleauto@h DB 01H
__86261D59_stralign@h DB 01H
__BB6D3116_pmc_uint_internal@h DB 01H
__B0E2E694_dllmain@cpp DB 01H
msvcjmc	ENDS
PUBLIC	_DllMain@12
PUBLIC	__JustMyCode_Default
EXTRN	?AllocateHeapArea@Internal@Core@Math@Palmtree@@YAHXZ:PROC ; Palmtree::Math::Core::Internal::AllocateHeapArea
EXTRN	?DeallocateHeapArea@Internal@Core@Math@Palmtree@@YAXXZ:PROC ; Palmtree::Math::Core::Internal::DeallocateHeapArea
EXTRN	@__CheckForDebuggerJustMyCode@4:PROC
EXTRN	__RTC_CheckEsp:PROC
EXTRN	__RTC_InitBase:PROC
EXTRN	__RTC_Shutdown:PROC
;	COMDAT rtc$TMZ
rtc$TMZ	SEGMENT
__RTC_Shutdown.rtc$TMZ DD FLAT:__RTC_Shutdown
rtc$TMZ	ENDS
;	COMDAT rtc$IMZ
rtc$IMZ	SEGMENT
__RTC_InitBase.rtc$IMZ DD FLAT:__RTC_InitBase
rtc$IMZ	ENDS
; Function compile flags: /Odt
;	COMDAT __JustMyCode_Default
_TEXT	SEGMENT
__JustMyCode_Default PROC				; COMDAT
  00000	55		 push	 ebp
  00001	8b ec		 mov	 ebp, esp
  00003	5d		 pop	 ebp
  00004	c3		 ret	 0
__JustMyCode_Default ENDP
_TEXT	ENDS
; Function compile flags: /Odtp /RTCsu
; File z:\sources\lunor\repos\rougemeilland\palmtree.math.core.uint\palmtree.math.core.uint\dllmain.cpp
_TEXT	SEGMENT
tv64 = -8						; size = 4
_result$ = -4						; size = 4
_hinstDLL$ = 8						; size = 4
_dwReason$ = 12						; size = 4
_lpvReserved$ = 16					; size = 4
_DllMain@12 PROC

; 39   :         {

  00000	55		 push	 ebp
  00001	8b ec		 mov	 ebp, esp
  00003	83 ec 08	 sub	 esp, 8
  00006	c7 45 f8 cc cc
	cc cc		 mov	 DWORD PTR [ebp-8], -858993460 ; ccccccccH
  0000d	c7 45 fc cc cc
	cc cc		 mov	 DWORD PTR [ebp-4], -858993460 ; ccccccccH
  00014	b9 00 00 00 00	 mov	 ecx, OFFSET __B0E2E694_dllmain@cpp
  00019	e8 00 00 00 00	 call	 @__CheckForDebuggerJustMyCode@4

; 40   :             BOOL result = TRUE;

  0001e	c7 45 fc 01 00
	00 00		 mov	 DWORD PTR _result$[ebp], 1

; 41   :             switch (dwReason)

  00025	8b 45 0c	 mov	 eax, DWORD PTR _dwReason$[ebp]
  00028	89 45 f8	 mov	 DWORD PTR tv64[ebp], eax
  0002b	83 7d f8 03	 cmp	 DWORD PTR tv64[ebp], 3
  0002f	77 27		 ja	 SHORT $LN9@DllMain
  00031	8b 4d f8	 mov	 ecx, DWORD PTR tv64[ebp]
  00034	ff 24 8d 00 00
	00 00		 jmp	 DWORD PTR $LN11@DllMain[ecx*4]
$LN4@DllMain:

; 42   :             {
; 43   :             case DLL_PROCESS_ATTACH: // DLLがプロセスのアドレス空間にマッピングされた。
; 44   :                 if (!AllocateHeapArea())

  0003b	e8 00 00 00 00	 call	 ?AllocateHeapArea@Internal@Core@Math@Palmtree@@YAHXZ ; Palmtree::Math::Core::Internal::AllocateHeapArea
  00040	85 c0		 test	 eax, eax
  00042	75 07		 jne	 SHORT $LN5@DllMain

; 45   :                     result = FALSE;

  00044	c7 45 fc 00 00
	00 00		 mov	 DWORD PTR _result$[ebp], 0
$LN5@DllMain:

; 46   :                 break;

  0004b	eb 12		 jmp	 SHORT $LN2@DllMain
$LN6@DllMain:

; 47   : 
; 48   :             case DLL_THREAD_ATTACH: // スレッドが作成されようとしている。
; 49   :                 break;

  0004d	eb 10		 jmp	 SHORT $LN2@DllMain
$LN7@DllMain:

; 50   : 
; 51   :             case DLL_THREAD_DETACH: // スレッドが破棄されようとしている。
; 52   :                 break;

  0004f	eb 0e		 jmp	 SHORT $LN2@DllMain
$LN8@DllMain:

; 53   : 
; 54   :             case DLL_PROCESS_DETACH: // DLLのマッピングが解除されようとしている。
; 55   :                 DeallocateHeapArea();

  00051	e8 00 00 00 00	 call	 ?DeallocateHeapArea@Internal@Core@Math@Palmtree@@YAXXZ ; Palmtree::Math::Core::Internal::DeallocateHeapArea

; 56   :                 break;

  00056	eb 07		 jmp	 SHORT $LN2@DllMain
$LN9@DllMain:

; 57   :             default:
; 58   :                 result = FALSE;

  00058	c7 45 fc 00 00
	00 00		 mov	 DWORD PTR _result$[ebp], 0
$LN2@DllMain:

; 59   :                 break;
; 60   :             }
; 61   :             return (result);

  0005f	8b 45 fc	 mov	 eax, DWORD PTR _result$[ebp]

; 62   :         }

  00062	83 c4 08	 add	 esp, 8
  00065	3b ec		 cmp	 ebp, esp
  00067	e8 00 00 00 00	 call	 __RTC_CheckEsp
  0006c	8b e5		 mov	 esp, ebp
  0006e	5d		 pop	 ebp
  0006f	c2 0c 00	 ret	 12			; 0000000cH
  00072	66 90		 npad	 2
$LN11@DllMain:
  00074	00 00 00 00	 DD	 $LN8@DllMain
  00078	00 00 00 00	 DD	 $LN4@DllMain
  0007c	00 00 00 00	 DD	 $LN6@DllMain
  00080	00 00 00 00	 DD	 $LN7@DllMain
_DllMain@12 ENDP
_TEXT	ENDS
END
