; Listing generated by Microsoft (R) Optimizing Compiler Version 19.16.27026.1 

	TITLE	Z:\Sources\Lunor\Repos\rougemeilland\Palmtree.Math.Core.Uint\Palmtree.Math.Core.Uint\pmc_equals.c
	.686P
	.XMM
	include listing.inc
	.model	flat

INCLUDELIB MSVCRTD
INCLUDELIB OLDNAMES

msvcjmc	SEGMENT
__7B7A869E_ctype@h DB 01H
__457DD326_basetsd@h DB 01H
__4384A2D9_corecrt_memcpy_s@h DB 01H
__4E51A221_corecrt_wstring@h DB 01H
__2140C079_string@h DB 01H
__1887E595_winnt@h DB 01H
__9FC7C64B_processthreadsapi@h DB 01H
__FA470AEC_memoryapi@h DB 01H
__F37DAFF1_winerror@h DB 01H
__7A450CCC_winbase@h DB 01H
__B4B40122_winioctl@h DB 01H
__86261D59_stralign@h DB 01H
__BB6D3116_pmc_uint_internal@h DB 01H
__8CA3E54E_pmc_inline_func@h DB 01H
__01E10085_pmc_equals@c DB 01H
msvcjmc	ENDS
PUBLIC	_Initialize_Equals
PUBLIC	_PMC_Equals_I_X@12
PUBLIC	_PMC_Equals_L_X@16
PUBLIC	_PMC_Equals_X_I@12
PUBLIC	_PMC_Equals_X_L@16
PUBLIC	_PMC_Equals_X_X@12
PUBLIC	__JustMyCode_Default
EXTRN	_CheckNumber:PROC
EXTRN	@_RTC_CheckStackVars@8:PROC
EXTRN	@__CheckForDebuggerJustMyCode@4:PROC
EXTRN	__RTC_CheckEsp:PROC
EXTRN	__RTC_InitBase:PROC
EXTRN	__RTC_Shutdown:PROC
EXTRN	__aullshr:PROC
;	COMDAT rtc$TMZ
rtc$TMZ	SEGMENT
__RTC_Shutdown.rtc$TMZ DD FLAT:__RTC_Shutdown
rtc$TMZ	ENDS
;	COMDAT rtc$IMZ
rtc$IMZ	SEGMENT
__RTC_InitBase.rtc$IMZ DD FLAT:__RTC_InitBase
rtc$IMZ	ENDS
; Function compile flags: /Odt
;	COMDAT __JustMyCode_Default
_TEXT	SEGMENT
__JustMyCode_Default PROC				; COMDAT
	push	ebp
	mov	ebp, esp
	pop	ebp
	ret	0
__JustMyCode_Default ENDP
_TEXT	ENDS
; Function compile flags: /Odtp /RTCsu
; File z:\sources\lunor\repos\rougemeilland\palmtree.math.core.uint\palmtree.math.core.uint\pmc_equals.c
_TEXT	SEGMENT
_u$ = 8							; size = 4
_v$ = 12						; size = 4
_count$ = 16						; size = 4
_Equals_X_X_Imp PROC

; 139  : {

	push	ebp
	mov	ebp, esp
	mov	ecx, OFFSET __01E10085_pmc_equals@c
	call	@__CheckForDebuggerJustMyCode@4
$LN2@Equals_X_X:

; 140  :     while (count > 0)

	cmp	DWORD PTR _count$[ebp], 0
	jbe	SHORT $LN3@Equals_X_X

; 141  :     {
; 142  :         if (*u != *v)

	mov	eax, DWORD PTR _u$[ebp]
	mov	ecx, DWORD PTR _v$[ebp]
	mov	edx, DWORD PTR [eax]
	cmp	edx, DWORD PTR [ecx]
	je	SHORT $LN4@Equals_X_X

; 143  :             return (0);

	xor	eax, eax
	jmp	SHORT $LN1@Equals_X_X
$LN4@Equals_X_X:

; 144  :         ++u;

	mov	eax, DWORD PTR _u$[ebp]
	add	eax, 4
	mov	DWORD PTR _u$[ebp], eax

; 145  :         ++v;

	mov	ecx, DWORD PTR _v$[ebp]
	add	ecx, 4
	mov	DWORD PTR _v$[ebp], ecx

; 146  :         --count;

	mov	edx, DWORD PTR _count$[ebp]
	sub	edx, 1
	mov	DWORD PTR _count$[ebp], edx

; 147  :     }

	jmp	SHORT $LN2@Equals_X_X
$LN3@Equals_X_X:

; 148  :     return (1);

	mov	eax, 1
$LN1@Equals_X_X:

; 149  : }

	cmp	ebp, esp
	call	__RTC_CheckEsp
	pop	ebp
	ret	0
_Equals_X_X_Imp ENDP
_TEXT	ENDS
; Function compile flags: /Odtp /RTCsu
; File z:\sources\lunor\repos\rougemeilland\palmtree.math.core.uint\palmtree.math.core.uint\pmc_equals.c
_TEXT	SEGMENT
tv141 = -60						; size = 4
tv197 = -56						; size = 8
tv129 = -48						; size = 4
tv84 = -44						; size = 4
tv68 = -40						; size = 4
_v_bit_count$1 = -36					; size = 4
_u_bit_count$2 = -32					; size = 4
_v_bit_count$3 = -28					; size = 4
_v_bit_count$4 = -24					; size = 4
_v_lo$5 = -20						; size = 4
_v_hi$6 = -12						; size = 4
_u_bit_count$7 = -4					; size = 4
_u$ = 8							; size = 4
_v$ = 12						; size = 8
_Equals_X_L_Imp PROC

; 63   : {

	push	ebp
	mov	ebp, esp
	sub	esp, 60					; 0000003cH
	push	edi
	lea	edi, DWORD PTR [ebp-60]
	mov	ecx, 15					; 0000000fH
	mov	eax, -858993460				; ccccccccH
	rep stosd
	mov	ecx, OFFSET __01E10085_pmc_equals@c
	call	@__CheckForDebuggerJustMyCode@4

; 64   :     if (u->IS_ZERO)

	mov	eax, DWORD PTR _u$[ebp]
	mov	ecx, DWORD PTR [eax]
	and	ecx, 1
	je	SHORT $LN2@Equals_X_L

; 65   :     {
; 66   :         // u が 0 である場合
; 67   :         return (v == 0);

	mov	edx, DWORD PTR _v$[ebp]
	or	edx, DWORD PTR _v$[ebp+4]
	jne	SHORT $LN17@Equals_X_L
	mov	DWORD PTR tv68[ebp], 1
	jmp	SHORT $LN18@Equals_X_L
$LN17@Equals_X_L:
	mov	DWORD PTR tv68[ebp], 0
$LN18@Equals_X_L:
	mov	eax, DWORD PTR tv68[ebp]
	jmp	$LN1@Equals_X_L

; 68   :     }

	jmp	$LN3@Equals_X_L
$LN2@Equals_X_L:

; 69   :     else if (v == 0)

	mov	eax, DWORD PTR _v$[ebp]
	or	eax, DWORD PTR _v$[ebp+4]
	jne	SHORT $LN4@Equals_X_L

; 70   :     {
; 71   :         // v が 0 である場合
; 72   :         return (0);

	xor	eax, eax
	jmp	$LN1@Equals_X_L

; 73   :     }

	jmp	$LN3@Equals_X_L
$LN4@Equals_X_L:

; 74   :     else
; 75   :     {
; 76   :         // u と v がともに 0 ではない場合
; 77   :         if (__UNIT_TYPE_BIT_COUNT < sizeof(v) * 8)

	mov	ecx, 1
	test	ecx, ecx
	je	$LN6@Equals_X_L

; 78   :         {
; 79   :             // _UINT64_T が 1 ワードで表現しきれない場合
; 80   :             __UNIT_TYPE u_bit_count = u->UNIT_BIT_COUNT;

	mov	edx, DWORD PTR _u$[ebp]
	mov	eax, DWORD PTR [edx+16]
	mov	DWORD PTR _u_bit_count$7[ebp], eax

; 81   :             _UINT32_T v_hi;
; 82   :             _UINT32_T v_lo = _FROMDWORDTOWORD(v, &v_hi);

	lea	ecx, DWORD PTR _v_hi$6[ebp]
	push	ecx
	mov	edx, DWORD PTR _v$[ebp+4]
	push	edx
	mov	eax, DWORD PTR _v$[ebp]
	push	eax
	call	__FROMDWORDTOWORD
	add	esp, 12					; 0000000cH
	mov	DWORD PTR _v_lo$5[ebp], eax

; 83   :             if (v_hi == 0)

	cmp	DWORD PTR _v_hi$6[ebp], 0
	jne	SHORT $LN8@Equals_X_L

; 84   :             {
; 85   :                 // v の値が 32bit では表現できる場合
; 86   :                 __UNIT_TYPE v_bit_count = sizeof(v_lo) * 8 - _LZCNT_ALT_32(v_lo);

	mov	ecx, DWORD PTR _v_lo$5[ebp]
	push	ecx
	call	__LZCNT_ALT_32
	add	esp, 4
	mov	edx, 32					; 00000020H
	sub	edx, eax
	mov	DWORD PTR _v_bit_count$4[ebp], edx

; 87   :                 if (u_bit_count != v_bit_count)

	mov	eax, DWORD PTR _u_bit_count$7[ebp]
	cmp	eax, DWORD PTR _v_bit_count$4[ebp]
	je	SHORT $LN10@Equals_X_L

; 88   :                 {
; 89   :                     // 明らかに u > v である場合
; 90   :                     return (0);

	xor	eax, eax
	jmp	$LN1@Equals_X_L

; 91   :                 }

	jmp	SHORT $LN11@Equals_X_L
$LN10@Equals_X_L:

; 92   :                 else
; 93   :                 {
; 94   :                     // u > 0 && v > 0 かつ u のビット長と v のビット長が等しく、かつ v が 1 ワードで表現できる場合
; 95   :                     // ⇒ u と v はともに 1 ワードで表現できる
; 96   :                     return (u->BLOCK[0] == v_lo);

	mov	ecx, 4
	imul	edx, ecx, 0
	mov	eax, DWORD PTR _u$[ebp]
	mov	ecx, DWORD PTR [eax+36]
	mov	edx, DWORD PTR [edx+ecx]
	cmp	edx, DWORD PTR _v_lo$5[ebp]
	jne	SHORT $LN19@Equals_X_L
	mov	DWORD PTR tv84[ebp], 1
	jmp	SHORT $LN20@Equals_X_L
$LN19@Equals_X_L:
	mov	DWORD PTR tv84[ebp], 0
$LN20@Equals_X_L:
	mov	eax, DWORD PTR tv84[ebp]
	jmp	$LN1@Equals_X_L
$LN11@Equals_X_L:

; 97   :                 }
; 98   :             }

	jmp	SHORT $LN9@Equals_X_L
$LN8@Equals_X_L:

; 99   :             else
; 100  :             {
; 101  :                 // v の値が 32bit では表現できない場合
; 102  :                 __UNIT_TYPE v_bit_count = sizeof(v) * 8 - _LZCNT_ALT_32(v_hi);

	mov	eax, DWORD PTR _v_hi$6[ebp]
	push	eax
	call	__LZCNT_ALT_32
	add	esp, 4
	mov	ecx, 64					; 00000040H
	sub	ecx, eax
	mov	DWORD PTR _v_bit_count$3[ebp], ecx

; 103  :                 if (u_bit_count != v_bit_count)

	mov	edx, DWORD PTR _u_bit_count$7[ebp]
	cmp	edx, DWORD PTR _v_bit_count$3[ebp]
	je	SHORT $LN12@Equals_X_L

; 104  :                 {
; 105  :                     // 明らかに u > v である場合
; 106  :                     return (0);

	xor	eax, eax
	jmp	$LN1@Equals_X_L

; 107  :                 }

	jmp	SHORT $LN9@Equals_X_L
$LN12@Equals_X_L:

; 108  :                 else
; 109  :                 {
; 110  :                     // u > 0 && v > 0 かつ u のビット長と v のビット長が等しく、かつ v が 2 ワードで表現できる場合
; 111  :                     // ⇒ u と v はともに 2 ワードで表現できる
; 112  :                     return (u->BLOCK[1] == v_hi && u->BLOCK[0] == v_lo);

	mov	eax, 4
	shl	eax, 0
	mov	ecx, DWORD PTR _u$[ebp]
	mov	edx, DWORD PTR [ecx+36]
	mov	eax, DWORD PTR [eax+edx]
	cmp	eax, DWORD PTR _v_hi$6[ebp]
	jne	SHORT $LN21@Equals_X_L
	mov	ecx, 4
	imul	edx, ecx, 0
	mov	eax, DWORD PTR _u$[ebp]
	mov	ecx, DWORD PTR [eax+36]
	mov	edx, DWORD PTR [edx+ecx]
	cmp	edx, DWORD PTR _v_lo$5[ebp]
	jne	SHORT $LN21@Equals_X_L
	mov	DWORD PTR tv129[ebp], 1
	jmp	SHORT $LN22@Equals_X_L
$LN21@Equals_X_L:
	mov	DWORD PTR tv129[ebp], 0
$LN22@Equals_X_L:
	mov	eax, DWORD PTR tv129[ebp]
	jmp	SHORT $LN1@Equals_X_L
$LN9@Equals_X_L:

; 113  :                 }
; 114  :             }
; 115  :         }

	jmp	SHORT $LN3@Equals_X_L
$LN6@Equals_X_L:

; 116  :         else
; 117  :         {
; 118  :             // _UINT64_T が 1 ワードで表現できる場合
; 119  : 
; 120  :             __UNIT_TYPE u_bit_count = u->UNIT_BIT_COUNT;

	mov	eax, DWORD PTR _u$[ebp]
	mov	ecx, DWORD PTR [eax+16]
	mov	DWORD PTR _u_bit_count$2[ebp], ecx

; 121  :             __UNIT_TYPE v_bit_count = sizeof(v) * 8 - _LZCNT_ALT_UNIT((__UNIT_TYPE)v);

	mov	edx, DWORD PTR _v$[ebp]
	push	edx
	call	__LZCNT_ALT_UNIT
	add	esp, 4
	mov	ecx, 64					; 00000040H
	sub	ecx, eax
	mov	DWORD PTR _v_bit_count$1[ebp], ecx

; 122  :             if (u_bit_count != v_bit_count)

	mov	edx, DWORD PTR _u_bit_count$2[ebp]
	cmp	edx, DWORD PTR _v_bit_count$1[ebp]
	je	SHORT $LN14@Equals_X_L

; 123  :             {
; 124  :                 // 明らかに u > v である場合
; 125  :                 return (0);

	xor	eax, eax
	jmp	SHORT $LN1@Equals_X_L

; 126  :             }

	jmp	SHORT $LN3@Equals_X_L
$LN14@Equals_X_L:

; 127  :             else
; 128  :             {
; 129  :                 // u > 0 && v > 0 かつ u のビット長と v のビット長が等しく、かつ v が 1 ワードで表現できる場合
; 130  :                 // ⇒ u と v はともに 1 ワードで表現できる
; 131  :                 return (u->BLOCK[0] == v);

	mov	eax, 4
	imul	ecx, eax, 0
	mov	edx, DWORD PTR _u$[ebp]
	mov	eax, DWORD PTR [edx+36]
	mov	ecx, DWORD PTR [eax+ecx]
	xor	edx, edx
	mov	DWORD PTR tv197[ebp], ecx
	mov	DWORD PTR tv197[ebp+4], edx
	mov	eax, DWORD PTR tv197[ebp]
	cmp	eax, DWORD PTR _v$[ebp]
	jne	SHORT $LN23@Equals_X_L
	mov	ecx, DWORD PTR tv197[ebp+4]
	cmp	ecx, DWORD PTR _v$[ebp+4]
	jne	SHORT $LN23@Equals_X_L
	mov	DWORD PTR tv141[ebp], 1
	jmp	SHORT $LN24@Equals_X_L
$LN23@Equals_X_L:
	mov	DWORD PTR tv141[ebp], 0
$LN24@Equals_X_L:
	mov	eax, DWORD PTR tv141[ebp]
	jmp	SHORT $LN1@Equals_X_L
$LN3@Equals_X_L:

; 132  :             }
; 133  :         }
; 134  :     }
; 135  :     return (PMC_STATUS_OK);

	xor	eax, eax
$LN1@Equals_X_L:

; 136  : }

	push	edx
	mov	ecx, ebp
	push	eax
	lea	edx, DWORD PTR $LN27@Equals_X_L
	call	@_RTC_CheckStackVars@8
	pop	eax
	pop	edx
	pop	edi
	add	esp, 60					; 0000003cH
	cmp	ebp, esp
	call	__RTC_CheckEsp
	mov	esp, ebp
	pop	ebp
	ret	0
$LN27@Equals_X_L:
	DD	1
	DD	$LN26@Equals_X_L
$LN26@Equals_X_L:
	DD	-12					; fffffff4H
	DD	4
	DD	$LN25@Equals_X_L
$LN25@Equals_X_L:
	DB	118					; 00000076H
	DB	95					; 0000005fH
	DB	104					; 00000068H
	DB	105					; 00000069H
	DB	0
_Equals_X_L_Imp ENDP
_TEXT	ENDS
; Function compile flags: /Odtp /RTCsu
; File z:\sources\lunor\repos\rougemeilland\palmtree.math.core.uint\palmtree.math.core.uint\pmc_equals.c
_TEXT	SEGMENT
tv79 = -16						; size = 4
tv68 = -12						; size = 4
_v_bit_count$1 = -8					; size = 4
_u_bit_count$2 = -4					; size = 4
_u$ = 8							; size = 4
_v$ = 12						; size = 4
_Equals_X_I_Imp PROC

; 32   : {

	push	ebp
	mov	ebp, esp
	sub	esp, 16					; 00000010H
	mov	eax, -858993460				; ccccccccH
	mov	DWORD PTR [ebp-16], eax
	mov	DWORD PTR [ebp-12], eax
	mov	DWORD PTR [ebp-8], eax
	mov	DWORD PTR [ebp-4], eax
	mov	ecx, OFFSET __01E10085_pmc_equals@c
	call	@__CheckForDebuggerJustMyCode@4

; 33   :     if (u->IS_ZERO)

	mov	eax, DWORD PTR _u$[ebp]
	mov	ecx, DWORD PTR [eax]
	and	ecx, 1
	je	SHORT $LN2@Equals_X_I

; 34   :     {
; 35   :         // u が 0 である場合
; 36   :         return (v == 0);

	cmp	DWORD PTR _v$[ebp], 0
	jne	SHORT $LN9@Equals_X_I
	mov	DWORD PTR tv68[ebp], 1
	jmp	SHORT $LN10@Equals_X_I
$LN9@Equals_X_I:
	mov	DWORD PTR tv68[ebp], 0
$LN10@Equals_X_I:
	mov	eax, DWORD PTR tv68[ebp]
	jmp	SHORT $LN1@Equals_X_I

; 37   :     }

	jmp	SHORT $LN1@Equals_X_I
$LN2@Equals_X_I:

; 38   :     else if (v == 0)

	cmp	DWORD PTR _v$[ebp], 0
	jne	SHORT $LN4@Equals_X_I

; 39   :     {
; 40   :         // v が 0 である場合
; 41   :         return (0);

	xor	eax, eax
	jmp	SHORT $LN1@Equals_X_I

; 42   :     }

	jmp	SHORT $LN1@Equals_X_I
$LN4@Equals_X_I:

; 43   :     else
; 44   :     {
; 45   :         // x と y がともに 0 ではない場合
; 46   :         __UNIT_TYPE u_bit_count = u->UNIT_BIT_COUNT;

	mov	edx, DWORD PTR _u$[ebp]
	mov	eax, DWORD PTR [edx+16]
	mov	DWORD PTR _u_bit_count$2[ebp], eax

; 47   :         __UNIT_TYPE v_bit_count = sizeof(v) * 8 - _LZCNT_ALT_32(v);

	mov	ecx, DWORD PTR _v$[ebp]
	push	ecx
	call	__LZCNT_ALT_32
	add	esp, 4
	mov	edx, 32					; 00000020H
	sub	edx, eax
	mov	DWORD PTR _v_bit_count$1[ebp], edx

; 48   :         if (u_bit_count != v_bit_count)

	mov	eax, DWORD PTR _u_bit_count$2[ebp]
	cmp	eax, DWORD PTR _v_bit_count$1[ebp]
	je	SHORT $LN6@Equals_X_I

; 49   :         {
; 50   :             // 明らかに u != v である場合
; 51   :             return (0);

	xor	eax, eax
	jmp	SHORT $LN1@Equals_X_I

; 52   :         }

	jmp	SHORT $LN1@Equals_X_I
$LN6@Equals_X_I:

; 53   :         else
; 54   :         {
; 55   :             // u > 0 && v > 0 かつ u のビット長と v のビット長が等しい場合
; 56   :             // ⇒ u と v はともに 1 ワードで表現できる
; 57   :             return ( u->BLOCK[0] == v);

	mov	ecx, 4
	imul	edx, ecx, 0
	mov	eax, DWORD PTR _u$[ebp]
	mov	ecx, DWORD PTR [eax+36]
	mov	edx, DWORD PTR [edx+ecx]
	cmp	edx, DWORD PTR _v$[ebp]
	jne	SHORT $LN11@Equals_X_I
	mov	DWORD PTR tv79[ebp], 1
	jmp	SHORT $LN12@Equals_X_I
$LN11@Equals_X_I:
	mov	DWORD PTR tv79[ebp], 0
$LN12@Equals_X_I:
	mov	eax, DWORD PTR tv79[ebp]
$LN1@Equals_X_I:

; 58   :         }
; 59   :     }
; 60   : }

	add	esp, 16					; 00000010H
	cmp	ebp, esp
	call	__RTC_CheckEsp
	mov	esp, ebp
	pop	ebp
	ret	0
_Equals_X_I_Imp ENDP
_TEXT	ENDS
; Function compile flags: /Odtp /RTCsu
; File z:\sources\lunor\repos\rougemeilland\palmtree.math.core.uint\palmtree.math.core.uint\pmc_inline_func.h
_TEXT	SEGMENT
_pos$ = -8						; size = 4
_x$ = 8							; size = 4
__LZCNT_ALT_UNIT PROC

; 623  :     {

	push	ebp
	mov	ebp, esp
	sub	esp, 12					; 0000000cH
	mov	DWORD PTR [ebp-12], -858993460		; ccccccccH
	mov	DWORD PTR [ebp-8], -858993460		; ccccccccH
	mov	DWORD PTR [ebp-4], -858993460		; ccccccccH
	mov	ecx, OFFSET __8CA3E54E_pmc_inline_func@h
	call	@__CheckForDebuggerJustMyCode@4

; 624  :         if (x == 0)

	cmp	DWORD PTR _x$[ebp], 0
	jne	SHORT $LN2@LZCNT_ALT_

; 625  :             return (sizeof(x) * 8);

	mov	eax, 32					; 00000020H
	jmp	SHORT $LN1@LZCNT_ALT_
$LN2@LZCNT_ALT_:

; 626  : #ifdef _M_IX86
; 627  :         _UINT32_T pos;
; 628  : #ifdef _MSC_VER
; 629  :         _BitScanReverse(&pos, x);

	bsr	eax, DWORD PTR _x$[ebp]
	mov	DWORD PTR _pos$[ebp], eax

; 630  : #elif defined(__GNUC__)
; 631  :         __asm__("bsrl %1, %0" : "=r"(pos) : "rm"(x));
; 632  : #else
; 633  : #error unknown compiler
; 634  : #endif
; 635  : #elif defined(_M_X64)
; 636  : #ifdef _MSC_VER
; 637  :         _UINT32_T pos;
; 638  :         _BitScanReverse64(&pos, x);
; 639  : #elif defined(__GNUC__)
; 640  :         _UINT64_T pos;
; 641  :         __asm__("bsrq %1, %0" : "=r"(pos) : "rm"(x));
; 642  : #else
; 643  : #error unknown compiler
; 644  : #endif
; 645  : #else
; 646  : #error unknown platform
; 647  : #endif
; 648  :         return (sizeof(x) * 8 - 1 - pos);

	mov	eax, 31					; 0000001fH
	sub	eax, DWORD PTR _pos$[ebp]
$LN1@LZCNT_ALT_:

; 649  :     }

	push	edx
	mov	ecx, ebp
	push	eax
	lea	edx, DWORD PTR $LN6@LZCNT_ALT_
	call	@_RTC_CheckStackVars@8
	pop	eax
	pop	edx
	add	esp, 12					; 0000000cH
	cmp	ebp, esp
	call	__RTC_CheckEsp
	mov	esp, ebp
	pop	ebp
	ret	0
$LN6@LZCNT_ALT_:
	DD	1
	DD	$LN5@LZCNT_ALT_
$LN5@LZCNT_ALT_:
	DD	-8					; fffffff8H
	DD	4
	DD	$LN4@LZCNT_ALT_
$LN4@LZCNT_ALT_:
	DB	112					; 00000070H
	DB	111					; 0000006fH
	DB	115					; 00000073H
	DB	0
__LZCNT_ALT_UNIT ENDP
_TEXT	ENDS
; Function compile flags: /Odtp /RTCsu
; File z:\sources\lunor\repos\rougemeilland\palmtree.math.core.uint\palmtree.math.core.uint\pmc_inline_func.h
_TEXT	SEGMENT
_pos$ = -8						; size = 4
_x$ = 8							; size = 4
__LZCNT_ALT_32 PROC

; 590  :     {

	push	ebp
	mov	ebp, esp
	sub	esp, 12					; 0000000cH
	mov	DWORD PTR [ebp-12], -858993460		; ccccccccH
	mov	DWORD PTR [ebp-8], -858993460		; ccccccccH
	mov	DWORD PTR [ebp-4], -858993460		; ccccccccH
	mov	ecx, OFFSET __8CA3E54E_pmc_inline_func@h
	call	@__CheckForDebuggerJustMyCode@4

; 591  :         if (x == 0)

	cmp	DWORD PTR _x$[ebp], 0
	jne	SHORT $LN2@LZCNT_ALT_

; 592  :             return (sizeof(x) * 8);

	mov	eax, 32					; 00000020H
	jmp	SHORT $LN1@LZCNT_ALT_
$LN2@LZCNT_ALT_:

; 593  :         _UINT32_T pos;
; 594  : #ifdef _MSC_VER
; 595  :         _BitScanReverse(&pos, x);

	bsr	eax, DWORD PTR _x$[ebp]
	mov	DWORD PTR _pos$[ebp], eax

; 596  : #elif defined(__GNUC__)
; 597  :         __asm__("bsrl %1, %0" : "=r"(pos) : "rm"(x));
; 598  : #else
; 599  : #error unknown compiler
; 600  : #endif
; 601  :         return (sizeof(x) * 8 - 1 - pos);

	mov	eax, 31					; 0000001fH
	sub	eax, DWORD PTR _pos$[ebp]
$LN1@LZCNT_ALT_:

; 602  :     }

	push	edx
	mov	ecx, ebp
	push	eax
	lea	edx, DWORD PTR $LN6@LZCNT_ALT_
	call	@_RTC_CheckStackVars@8
	pop	eax
	pop	edx
	add	esp, 12					; 0000000cH
	cmp	ebp, esp
	call	__RTC_CheckEsp
	mov	esp, ebp
	pop	ebp
	ret	0
$LN6@LZCNT_ALT_:
	DD	1
	DD	$LN5@LZCNT_ALT_
$LN5@LZCNT_ALT_:
	DD	-8					; fffffff8H
	DD	4
	DD	$LN4@LZCNT_ALT_
$LN4@LZCNT_ALT_:
	DB	112					; 00000070H
	DB	111					; 0000006fH
	DB	115					; 00000073H
	DB	0
__LZCNT_ALT_32 ENDP
_TEXT	ENDS
; Function compile flags: /Odtp /RTCsu
; File z:\sources\lunor\repos\rougemeilland\palmtree.math.core.uint\palmtree.math.core.uint\pmc_inline_func.h
_TEXT	SEGMENT
_value$ = 8						; size = 8
_result_high$ = 16					; size = 4
__FROMDWORDTOWORD PROC

; 176  :     {

	push	ebp
	mov	ebp, esp
	mov	ecx, OFFSET __8CA3E54E_pmc_inline_func@h
	call	@__CheckForDebuggerJustMyCode@4

; 177  :         *result_high = (_UINT32_T)(value >> 32);

	mov	eax, DWORD PTR _value$[ebp]
	mov	edx, DWORD PTR _value$[ebp+4]
	mov	cl, 32					; 00000020H
	call	__aullshr
	mov	ecx, DWORD PTR _result_high$[ebp]
	mov	DWORD PTR [ecx], eax

; 178  :         return ((_UINT32_T)value);

	mov	eax, DWORD PTR _value$[ebp]

; 179  :     }

	cmp	ebp, esp
	call	__RTC_CheckEsp
	pop	ebp
	ret	0
__FROMDWORDTOWORD ENDP
_TEXT	ENDS
; Function compile flags: /Odtp /RTCsu
; File z:\sources\lunor\repos\rougemeilland\palmtree.math.core.uint\palmtree.math.core.uint\pmc_equals.c
_TEXT	SEGMENT
tv79 = -24						; size = 4
_v_bit_count$1 = -20					; size = 4
_u_bit_count$2 = -16					; size = 4
_result$ = -12						; size = 4
_nv$ = -8						; size = 4
_nu$ = -4						; size = 4
_u$ = 8							; size = 4
_v$ = 12						; size = 4
_w$ = 16						; size = 4
_PMC_Equals_X_X@12 PROC

; 240  : {

	push	ebp
	mov	ebp, esp
	sub	esp, 24					; 00000018H
	mov	eax, -858993460				; ccccccccH
	mov	DWORD PTR [ebp-24], eax
	mov	DWORD PTR [ebp-20], eax
	mov	DWORD PTR [ebp-16], eax
	mov	DWORD PTR [ebp-12], eax
	mov	DWORD PTR [ebp-8], eax
	mov	DWORD PTR [ebp-4], eax
	mov	ecx, OFFSET __01E10085_pmc_equals@c
	call	@__CheckForDebuggerJustMyCode@4

; 241  :     if (u == NULL)

	cmp	DWORD PTR _u$[ebp], 0
	jne	SHORT $LN2@PMC_Equals

; 242  :         return (PMC_STATUS_ARGUMENT_ERROR);

	or	eax, -1
	jmp	$LN1@PMC_Equals
$LN2@PMC_Equals:

; 243  :     if (v == NULL)

	cmp	DWORD PTR _v$[ebp], 0
	jne	SHORT $LN3@PMC_Equals

; 244  :         return (PMC_STATUS_ARGUMENT_ERROR);

	or	eax, -1
	jmp	$LN1@PMC_Equals
$LN3@PMC_Equals:

; 245  :     if (w == NULL)

	cmp	DWORD PTR _w$[ebp], 0
	jne	SHORT $LN4@PMC_Equals

; 246  :         return (PMC_STATUS_ARGUMENT_ERROR);

	or	eax, -1
	jmp	$LN1@PMC_Equals
$LN4@PMC_Equals:

; 247  :     NUMBER_HEADER* nu = (NUMBER_HEADER*)u;

	mov	eax, DWORD PTR _u$[ebp]
	mov	DWORD PTR _nu$[ebp], eax

; 248  :     NUMBER_HEADER* nv = (NUMBER_HEADER*)v;

	mov	ecx, DWORD PTR _v$[ebp]
	mov	DWORD PTR _nv$[ebp], ecx

; 249  :     PMC_STATUS_CODE result;
; 250  :     if ((result = CheckNumber(nu)) != PMC_STATUS_OK)

	mov	edx, DWORD PTR _nu$[ebp]
	push	edx
	call	_CheckNumber
	add	esp, 4
	mov	DWORD PTR _result$[ebp], eax
	cmp	DWORD PTR _result$[ebp], 0
	je	SHORT $LN5@PMC_Equals

; 251  :         return (result);

	mov	eax, DWORD PTR _result$[ebp]
	jmp	$LN1@PMC_Equals
$LN5@PMC_Equals:

; 252  :     if ((result = CheckNumber(nv)) != PMC_STATUS_OK)

	mov	eax, DWORD PTR _nv$[ebp]
	push	eax
	call	_CheckNumber
	add	esp, 4
	mov	DWORD PTR _result$[ebp], eax
	cmp	DWORD PTR _result$[ebp], 0
	je	SHORT $LN6@PMC_Equals

; 253  :         return (result);

	mov	eax, DWORD PTR _result$[ebp]
	jmp	$LN1@PMC_Equals
$LN6@PMC_Equals:

; 254  :     if (nu->IS_ZERO)

	mov	ecx, DWORD PTR _nu$[ebp]
	mov	edx, DWORD PTR [ecx]
	and	edx, 1
	je	SHORT $LN7@PMC_Equals

; 255  :     {
; 256  :         *w = nv->IS_ZERO ? 1 : 0;

	mov	eax, DWORD PTR _nv$[ebp]
	mov	ecx, DWORD PTR [eax]
	and	ecx, 1
	je	SHORT $LN15@PMC_Equals
	mov	DWORD PTR tv79[ebp], 1
	jmp	SHORT $LN16@PMC_Equals
$LN15@PMC_Equals:
	mov	DWORD PTR tv79[ebp], 0
$LN16@PMC_Equals:
	mov	edx, DWORD PTR _w$[ebp]
	mov	eax, DWORD PTR tv79[ebp]
	mov	DWORD PTR [edx], eax

; 257  :     }

	jmp	SHORT $LN8@PMC_Equals
$LN7@PMC_Equals:

; 258  :     else if (nv->IS_ZERO)

	mov	ecx, DWORD PTR _nv$[ebp]
	mov	edx, DWORD PTR [ecx]
	and	edx, 1
	je	SHORT $LN9@PMC_Equals

; 259  :     {
; 260  :         *w = 0;

	mov	eax, DWORD PTR _w$[ebp]
	mov	DWORD PTR [eax], 0

; 261  :     }

	jmp	SHORT $LN8@PMC_Equals
$LN9@PMC_Equals:

; 262  :     else
; 263  :     {
; 264  :         __UNIT_TYPE u_bit_count = nu->UNIT_BIT_COUNT;

	mov	ecx, DWORD PTR _nu$[ebp]
	mov	edx, DWORD PTR [ecx+16]
	mov	DWORD PTR _u_bit_count$2[ebp], edx

; 265  :         __UNIT_TYPE v_bit_count = nv->UNIT_BIT_COUNT;

	mov	eax, DWORD PTR _nv$[ebp]
	mov	ecx, DWORD PTR [eax+16]
	mov	DWORD PTR _v_bit_count$1[ebp], ecx

; 266  :         if (u_bit_count != v_bit_count)

	mov	edx, DWORD PTR _u_bit_count$2[ebp]
	cmp	edx, DWORD PTR _v_bit_count$1[ebp]
	je	SHORT $LN11@PMC_Equals

; 267  :         {
; 268  :             // 明らかに u > v である場合
; 269  :             *w = 0;

	mov	eax, DWORD PTR _w$[ebp]
	mov	DWORD PTR [eax], 0

; 270  :         }

	jmp	SHORT $LN8@PMC_Equals
$LN11@PMC_Equals:

; 271  :         else
; 272  :         {
; 273  :             // u > 0 && v > 0 かつ u のビット長と v のビット長が等しい場合
; 274  :             *w = Equals_X_X_Imp(nu->BLOCK, nv->BLOCK, nu->UNIT_WORD_COUNT);

	mov	ecx, DWORD PTR _nu$[ebp]
	mov	edx, DWORD PTR [ecx+12]
	push	edx
	mov	eax, DWORD PTR _nv$[ebp]
	mov	ecx, DWORD PTR [eax+36]
	push	ecx
	mov	edx, DWORD PTR _nu$[ebp]
	mov	eax, DWORD PTR [edx+36]
	push	eax
	call	_Equals_X_X_Imp
	add	esp, 12					; 0000000cH
	mov	ecx, DWORD PTR _w$[ebp]
	mov	DWORD PTR [ecx], eax
$LN8@PMC_Equals:

; 275  :         }
; 276  :     }
; 277  : #ifdef _DEBUG
; 278  :     if (*w != 0 && *w != 1)

	mov	edx, DWORD PTR _w$[ebp]
	cmp	DWORD PTR [edx], 0
	je	SHORT $LN13@PMC_Equals
	mov	eax, DWORD PTR _w$[ebp]
	cmp	DWORD PTR [eax], 1
	je	SHORT $LN13@PMC_Equals

; 279  :         return (PMC_STATUS_INTERNAL_ERROR);

	mov	eax, -256				; ffffff00H
	jmp	SHORT $LN1@PMC_Equals
$LN13@PMC_Equals:

; 280  : #endif
; 281  :     return (PMC_STATUS_OK);

	xor	eax, eax
$LN1@PMC_Equals:

; 282  : }

	add	esp, 24					; 00000018H
	cmp	ebp, esp
	call	__RTC_CheckEsp
	mov	esp, ebp
	pop	ebp
	ret	12					; 0000000cH
_PMC_Equals_X_X@12 ENDP
_TEXT	ENDS
; Function compile flags: /Odtp /RTCsu
; File z:\sources\lunor\repos\rougemeilland\palmtree.math.core.uint\palmtree.math.core.uint\pmc_equals.c
_TEXT	SEGMENT
_result$ = -4						; size = 4
_u$ = 8							; size = 4
_v$ = 12						; size = 8
_w$ = 20						; size = 4
_PMC_Equals_X_L@16 PROC

; 218  : {

	push	ebp
	mov	ebp, esp
	push	ecx
	mov	DWORD PTR [ebp-4], -858993460		; ccccccccH
	mov	ecx, OFFSET __01E10085_pmc_equals@c
	call	@__CheckForDebuggerJustMyCode@4

; 219  :     if (__UNIT_TYPE_BIT_COUNT * 2 < sizeof(v) * 8)

	xor	eax, eax
	je	SHORT $LN2@PMC_Equals

; 220  :     {
; 221  :         // _UINT64_T が 2 ワードで表現しきれない処理系には対応しない
; 222  :         return (PMC_STATUS_INTERNAL_ERROR);

	mov	eax, -256				; ffffff00H
	jmp	SHORT $LN1@PMC_Equals
$LN2@PMC_Equals:

; 223  :     }
; 224  :     if (u == NULL)

	cmp	DWORD PTR _u$[ebp], 0
	jne	SHORT $LN3@PMC_Equals

; 225  :         return (PMC_STATUS_ARGUMENT_ERROR);

	or	eax, -1
	jmp	SHORT $LN1@PMC_Equals
$LN3@PMC_Equals:

; 226  :     if (w == NULL)

	cmp	DWORD PTR _w$[ebp], 0
	jne	SHORT $LN4@PMC_Equals

; 227  :         return (PMC_STATUS_ARGUMENT_ERROR);

	or	eax, -1
	jmp	SHORT $LN1@PMC_Equals
$LN4@PMC_Equals:

; 228  :     PMC_STATUS_CODE result;
; 229  :     if ((result = CheckNumber((NUMBER_HEADER*)u)) != PMC_STATUS_OK)

	mov	ecx, DWORD PTR _u$[ebp]
	push	ecx
	call	_CheckNumber
	add	esp, 4
	mov	DWORD PTR _result$[ebp], eax
	cmp	DWORD PTR _result$[ebp], 0
	je	SHORT $LN5@PMC_Equals

; 230  :         return (result);

	mov	eax, DWORD PTR _result$[ebp]
	jmp	SHORT $LN1@PMC_Equals
$LN5@PMC_Equals:

; 231  :     *w = Equals_X_L_Imp((NUMBER_HEADER*)u, v);

	mov	edx, DWORD PTR _v$[ebp+4]
	push	edx
	mov	eax, DWORD PTR _v$[ebp]
	push	eax
	mov	ecx, DWORD PTR _u$[ebp]
	push	ecx
	call	_Equals_X_L_Imp
	add	esp, 12					; 0000000cH
	mov	edx, DWORD PTR _w$[ebp]
	mov	DWORD PTR [edx], eax

; 232  : #ifdef _DEBUG
; 233  :     if (*w != 0 && *w != 1)

	mov	eax, DWORD PTR _w$[ebp]
	cmp	DWORD PTR [eax], 0
	je	SHORT $LN6@PMC_Equals
	mov	ecx, DWORD PTR _w$[ebp]
	cmp	DWORD PTR [ecx], 1
	je	SHORT $LN6@PMC_Equals

; 234  :         return (PMC_STATUS_INTERNAL_ERROR);

	mov	eax, -256				; ffffff00H
	jmp	SHORT $LN1@PMC_Equals
$LN6@PMC_Equals:

; 235  : #endif
; 236  :     return (PMC_STATUS_OK);

	xor	eax, eax
$LN1@PMC_Equals:

; 237  : }

	add	esp, 4
	cmp	ebp, esp
	call	__RTC_CheckEsp
	mov	esp, ebp
	pop	ebp
	ret	16					; 00000010H
_PMC_Equals_X_L@16 ENDP
_TEXT	ENDS
; Function compile flags: /Odtp /RTCsu
; File z:\sources\lunor\repos\rougemeilland\palmtree.math.core.uint\palmtree.math.core.uint\pmc_equals.c
_TEXT	SEGMENT
_result$ = -4						; size = 4
_u$ = 8							; size = 4
_v$ = 12						; size = 4
_w$ = 16						; size = 4
_PMC_Equals_X_I@12 PROC

; 174  : {

	push	ebp
	mov	ebp, esp
	push	ecx
	mov	DWORD PTR [ebp-4], -858993460		; ccccccccH
	mov	ecx, OFFSET __01E10085_pmc_equals@c
	call	@__CheckForDebuggerJustMyCode@4

; 175  :     if (__UNIT_TYPE_BIT_COUNT < sizeof(v) * 8)

	xor	eax, eax
	je	SHORT $LN2@PMC_Equals

; 176  :     {
; 177  :         // _UINT32_T が 1 ワードで表現しきれない処理系には対応しない
; 178  :         return (PMC_STATUS_INTERNAL_ERROR);

	mov	eax, -256				; ffffff00H
	jmp	SHORT $LN1@PMC_Equals
$LN2@PMC_Equals:

; 179  :     }
; 180  :     if (u == NULL)

	cmp	DWORD PTR _u$[ebp], 0
	jne	SHORT $LN3@PMC_Equals

; 181  :         return (PMC_STATUS_ARGUMENT_ERROR);

	or	eax, -1
	jmp	SHORT $LN1@PMC_Equals
$LN3@PMC_Equals:

; 182  :     if (w == NULL)

	cmp	DWORD PTR _w$[ebp], 0
	jne	SHORT $LN4@PMC_Equals

; 183  :         return (PMC_STATUS_ARGUMENT_ERROR);

	or	eax, -1
	jmp	SHORT $LN1@PMC_Equals
$LN4@PMC_Equals:

; 184  :     PMC_STATUS_CODE result;
; 185  :     if ((result = CheckNumber((NUMBER_HEADER*)u)) != PMC_STATUS_OK)

	mov	ecx, DWORD PTR _u$[ebp]
	push	ecx
	call	_CheckNumber
	add	esp, 4
	mov	DWORD PTR _result$[ebp], eax
	cmp	DWORD PTR _result$[ebp], 0
	je	SHORT $LN5@PMC_Equals

; 186  :         return (result);

	mov	eax, DWORD PTR _result$[ebp]
	jmp	SHORT $LN1@PMC_Equals
$LN5@PMC_Equals:

; 187  :     *w = Equals_X_I_Imp((NUMBER_HEADER*)u, v);

	mov	edx, DWORD PTR _v$[ebp]
	push	edx
	mov	eax, DWORD PTR _u$[ebp]
	push	eax
	call	_Equals_X_I_Imp
	add	esp, 8
	mov	ecx, DWORD PTR _w$[ebp]
	mov	DWORD PTR [ecx], eax

; 188  : #ifdef _DEBUG
; 189  :     if (*w != 0 && *w != 1)

	mov	edx, DWORD PTR _w$[ebp]
	cmp	DWORD PTR [edx], 0
	je	SHORT $LN6@PMC_Equals
	mov	eax, DWORD PTR _w$[ebp]
	cmp	DWORD PTR [eax], 1
	je	SHORT $LN6@PMC_Equals

; 190  :         return (PMC_STATUS_INTERNAL_ERROR);

	mov	eax, -256				; ffffff00H
	jmp	SHORT $LN1@PMC_Equals
$LN6@PMC_Equals:

; 191  : #endif
; 192  :     return (PMC_STATUS_OK);

	xor	eax, eax
$LN1@PMC_Equals:

; 193  : }

	add	esp, 4
	cmp	ebp, esp
	call	__RTC_CheckEsp
	mov	esp, ebp
	pop	ebp
	ret	12					; 0000000cH
_PMC_Equals_X_I@12 ENDP
_TEXT	ENDS
; Function compile flags: /Odtp /RTCsu
; File z:\sources\lunor\repos\rougemeilland\palmtree.math.core.uint\palmtree.math.core.uint\pmc_equals.c
_TEXT	SEGMENT
_result$ = -4						; size = 4
_u$ = 8							; size = 8
_v$ = 16						; size = 4
_w$ = 20						; size = 4
_PMC_Equals_L_X@16 PROC

; 196  : {

	push	ebp
	mov	ebp, esp
	push	ecx
	mov	DWORD PTR [ebp-4], -858993460		; ccccccccH
	mov	ecx, OFFSET __01E10085_pmc_equals@c
	call	@__CheckForDebuggerJustMyCode@4

; 197  :     if (__UNIT_TYPE_BIT_COUNT * 2 < sizeof(u) * 8)

	xor	eax, eax
	je	SHORT $LN2@PMC_Equals

; 198  :     {
; 199  :         // _UINT64_T が 2 ワードで表現しきれない処理系には対応しない
; 200  :         return (PMC_STATUS_INTERNAL_ERROR);

	mov	eax, -256				; ffffff00H
	jmp	SHORT $LN1@PMC_Equals
$LN2@PMC_Equals:

; 201  :     }
; 202  :     if (v == NULL)

	cmp	DWORD PTR _v$[ebp], 0
	jne	SHORT $LN3@PMC_Equals

; 203  :         return (PMC_STATUS_ARGUMENT_ERROR);

	or	eax, -1
	jmp	SHORT $LN1@PMC_Equals
$LN3@PMC_Equals:

; 204  :     if (w == NULL)

	cmp	DWORD PTR _w$[ebp], 0
	jne	SHORT $LN4@PMC_Equals

; 205  :         return (PMC_STATUS_ARGUMENT_ERROR);

	or	eax, -1
	jmp	SHORT $LN1@PMC_Equals
$LN4@PMC_Equals:

; 206  :     PMC_STATUS_CODE result;
; 207  :     if ((result = CheckNumber((NUMBER_HEADER*)v)) != PMC_STATUS_OK)

	mov	ecx, DWORD PTR _v$[ebp]
	push	ecx
	call	_CheckNumber
	add	esp, 4
	mov	DWORD PTR _result$[ebp], eax
	cmp	DWORD PTR _result$[ebp], 0
	je	SHORT $LN5@PMC_Equals

; 208  :         return (result);

	mov	eax, DWORD PTR _result$[ebp]
	jmp	SHORT $LN1@PMC_Equals
$LN5@PMC_Equals:

; 209  :     *w = Equals_X_L_Imp((NUMBER_HEADER*)v, u);

	mov	edx, DWORD PTR _u$[ebp+4]
	push	edx
	mov	eax, DWORD PTR _u$[ebp]
	push	eax
	mov	ecx, DWORD PTR _v$[ebp]
	push	ecx
	call	_Equals_X_L_Imp
	add	esp, 12					; 0000000cH
	mov	edx, DWORD PTR _w$[ebp]
	mov	DWORD PTR [edx], eax

; 210  : #ifdef _DEBUG
; 211  :     if (*w != 0 && *w != 1)

	mov	eax, DWORD PTR _w$[ebp]
	cmp	DWORD PTR [eax], 0
	je	SHORT $LN6@PMC_Equals
	mov	ecx, DWORD PTR _w$[ebp]
	cmp	DWORD PTR [ecx], 1
	je	SHORT $LN6@PMC_Equals

; 212  :         return (PMC_STATUS_INTERNAL_ERROR);

	mov	eax, -256				; ffffff00H
	jmp	SHORT $LN1@PMC_Equals
$LN6@PMC_Equals:

; 213  : #endif
; 214  :     return (PMC_STATUS_OK);

	xor	eax, eax
$LN1@PMC_Equals:

; 215  : }

	add	esp, 4
	cmp	ebp, esp
	call	__RTC_CheckEsp
	mov	esp, ebp
	pop	ebp
	ret	16					; 00000010H
_PMC_Equals_L_X@16 ENDP
_TEXT	ENDS
; Function compile flags: /Odtp /RTCsu
; File z:\sources\lunor\repos\rougemeilland\palmtree.math.core.uint\palmtree.math.core.uint\pmc_equals.c
_TEXT	SEGMENT
_result$ = -4						; size = 4
_u$ = 8							; size = 4
_v$ = 12						; size = 4
_w$ = 16						; size = 4
_PMC_Equals_I_X@12 PROC

; 152  : {

	push	ebp
	mov	ebp, esp
	push	ecx
	mov	DWORD PTR [ebp-4], -858993460		; ccccccccH
	mov	ecx, OFFSET __01E10085_pmc_equals@c
	call	@__CheckForDebuggerJustMyCode@4

; 153  :     if (__UNIT_TYPE_BIT_COUNT < sizeof(u) * 8)

	xor	eax, eax
	je	SHORT $LN2@PMC_Equals

; 154  :     {
; 155  :         // _UINT32_T が 1 ワードで表現しきれない処理系には対応しない
; 156  :         return (PMC_STATUS_INTERNAL_ERROR);

	mov	eax, -256				; ffffff00H
	jmp	SHORT $LN1@PMC_Equals
$LN2@PMC_Equals:

; 157  :     }
; 158  :     if (v == NULL)

	cmp	DWORD PTR _v$[ebp], 0
	jne	SHORT $LN3@PMC_Equals

; 159  :         return (PMC_STATUS_ARGUMENT_ERROR);

	or	eax, -1
	jmp	SHORT $LN1@PMC_Equals
$LN3@PMC_Equals:

; 160  :     if (w == NULL)

	cmp	DWORD PTR _w$[ebp], 0
	jne	SHORT $LN4@PMC_Equals

; 161  :         return (PMC_STATUS_ARGUMENT_ERROR);

	or	eax, -1
	jmp	SHORT $LN1@PMC_Equals
$LN4@PMC_Equals:

; 162  :     PMC_STATUS_CODE result;
; 163  :     if ((result = CheckNumber((NUMBER_HEADER*)v)) != PMC_STATUS_OK)

	mov	ecx, DWORD PTR _v$[ebp]
	push	ecx
	call	_CheckNumber
	add	esp, 4
	mov	DWORD PTR _result$[ebp], eax
	cmp	DWORD PTR _result$[ebp], 0
	je	SHORT $LN5@PMC_Equals

; 164  :         return (result);

	mov	eax, DWORD PTR _result$[ebp]
	jmp	SHORT $LN1@PMC_Equals
$LN5@PMC_Equals:

; 165  :     *w = Equals_X_I_Imp((NUMBER_HEADER*)v, u);

	mov	edx, DWORD PTR _u$[ebp]
	push	edx
	mov	eax, DWORD PTR _v$[ebp]
	push	eax
	call	_Equals_X_I_Imp
	add	esp, 8
	mov	ecx, DWORD PTR _w$[ebp]
	mov	DWORD PTR [ecx], eax

; 166  : #ifdef _DEBUG
; 167  :     if (*w != 0 && *w != 1)

	mov	edx, DWORD PTR _w$[ebp]
	cmp	DWORD PTR [edx], 0
	je	SHORT $LN6@PMC_Equals
	mov	eax, DWORD PTR _w$[ebp]
	cmp	DWORD PTR [eax], 1
	je	SHORT $LN6@PMC_Equals

; 168  :         return (PMC_STATUS_INTERNAL_ERROR);

	mov	eax, -256				; ffffff00H
	jmp	SHORT $LN1@PMC_Equals
$LN6@PMC_Equals:

; 169  : #endif
; 170  :     return (PMC_STATUS_OK);

	xor	eax, eax
$LN1@PMC_Equals:

; 171  : }

	add	esp, 4
	cmp	ebp, esp
	call	__RTC_CheckEsp
	mov	esp, ebp
	pop	ebp
	ret	12					; 0000000cH
_PMC_Equals_I_X@12 ENDP
_TEXT	ENDS
; Function compile flags: /Odtp /RTCsu
; File z:\sources\lunor\repos\rougemeilland\palmtree.math.core.uint\palmtree.math.core.uint\pmc_equals.c
_TEXT	SEGMENT
_feature$ = 8						; size = 4
_Initialize_Equals PROC

; 285  : {

	push	ebp
	mov	ebp, esp
	mov	ecx, OFFSET __01E10085_pmc_equals@c
	call	@__CheckForDebuggerJustMyCode@4

; 286  :     return (PMC_STATUS_OK);

	xor	eax, eax

; 287  : }

	cmp	ebp, esp
	call	__RTC_CheckEsp
	pop	ebp
	ret	0
_Initialize_Equals ENDP
_TEXT	ENDS
END
