; Listing generated by Microsoft (R) Optimizing Compiler Version 19.16.27027.1 

	TITLE	Z:\Sources\Lunor\Repos\rougemeilland\Palmtree.Math.Core.Uint\Palmtree.Math.Core.Uint\pmc_bytes.cpp
	.686P
	.XMM
	include listing.inc
	.model	flat

INCLUDELIB MSVCRTD
INCLUDELIB OLDNAMES

msvcjmc	SEGMENT
__7B7A869E_ctype@h DB 01H
__457DD326_basetsd@h DB 01H
__4384A2D9_corecrt_memcpy_s@h DB 01H
__2088847F_corecrt_memory@h DB 01H
__4E51A221_corecrt_wstring@h DB 01H
__2140C079_string@h DB 01H
__E9FFF232_guiddef@h DB 01H
__1887E595_winnt@h DB 01H
__9FC7C64B_processthreadsapi@h DB 01H
__FA470AEC_memoryapi@h DB 01H
__F37DAFF1_winerror@h DB 01H
__7A450CCC_winbase@h DB 01H
__12AD47BB_winuser@h DB 01H
__B4B40122_winioctl@h DB 01H
__A73354DD_stdlib@h DB 01H
__25F3FB34_propidl@h DB 01H
__A40E48B8_oleauto@h DB 01H
__86261D59_stralign@h DB 01H
__2CC6E67D_corecrt_stdio_config@h DB 01H
__41381B41_corecrt_wconio@h DB 01H
__F0CC4AC4_corecrt_wio@h DB 01H
__05476D76_corecrt_wstdio@h DB 01H
__C0802A2B_corecrt_wtime@h DB 01H
__A40A425D_stat@h DB 01H
__5A74375D_wchar@h DB 01H
__6BC0FD35_vcruntime_new@h DB 01H
__77F53984_cstddef DB 01H
__188180DA_corecrt_math@h DB 01H
__D23EE329_cstdlib DB 01H
__5ECFF36E_type_traits DB 01H
__331E732B_malloc@h DB 01H
__9BB4E194_vcruntime_exception@h DB 01H
__7949CB39_exception DB 01H
__802FEEC0_pmc_exception@h DB 01H
__BB6D3116_pmc_uint_internal@h DB 01H
__1AB12E38_pmc_resourceholder@h DB 01H
__746E1CEC_xmmintrin@h DB 01H
__8CA3E54E_pmc_inline_func@h DB 01H
__85CE5060_pmc_bytes@cpp DB 01H
msvcjmc	ENDS
CONST	SEGMENT
$SG117908 DB	0eH, 'NH0', 089H, '0', 08cH, '0_0', 0d0H, '0', 0a4H, '0', 0c8H
	DB	'0', 017H, 'RL0', 01aH, 'Y', 0dH, 'Pw', 095H, 'tepeh0W0f0', 08dH
	DB	08aH, 'X', 08bH, 'g0M0~0[0', 093H, '0', 02H, '0', 00H, 00H
	ORG $+2
$SG117911 DB	0eH, 'NH0', 089H, '0', 08cH, '0_0', 0d0H, '0', 0a4H, '0', 0c8H
	DB	'0', 017H, 'RL0', 01aH, 'Y', 0dH, 'Pw', 095H, 'tepeh0W0f0', 08dH
	DB	08aH, 'X', 08bH, 'g0M0~0[0', 093H, '0', 02H, '0', 00H, 00H
	ORG $+2
$SG117916 DB	0eH, 'NH0', 089H, '0', 08cH, '0_0', 0d0H, '0', 0a4H, '0', 0c8H
	DB	'0', 017H, 'RL0', 01aH, 'Y', 0dH, 'Pw', 095H, 'tepeh0W0f0', 08dH
	DB	08aH, 'X', 08bH, 'g0M0~0[0', 093H, '0', 02H, '0', 00H, 00H
	ORG $+2
$SG117920 DB	0eH, 'NH0', 089H, '0', 08cH, '0_0', 0d0H, '0', 0a4H, '0', 0c8H
	DB	'0', 017H, 'RL0', 01aH, 'Y', 0dH, 'Pw', 095H, 'tepeh0W0f0', 08dH
	DB	08aH, 'X', 08bH, 'g0M0~0[0', 093H, '0', 02H, '0', 00H, 00H
	ORG $+2
$SG117938 DB	'b', 00H, 'u', 00H, 'f', 00H, 'f', 00H, 'e', 00H, 'r', 00H
	DB	00H, 00H
	ORG $+2
$SG117939 DB	015H, '_pek0n', 00H, 'u', 00H, 'l', 00H, 'l', 00H, 'p', 00H
	DB	't', 00H, 'r', 00H, 'L0', 0eH, 'NH0', 089H, '0', 08cH, '0f0D0~'
	DB	'0Y0', 02H, '0', 00H, 00H
	ORG $+2
$SG117942 DB	'o', 00H, '_', 00H, 's', 00H, 'i', 00H, 'g', 00H, 'n', 00H
	DB	00H, 00H
	ORG $+2
$SG117943 DB	015H, '_pek0n', 00H, 'u', 00H, 'l', 00H, 'l', 00H, 'p', 00H
	DB	't', 00H, 'r', 00H, 'L0', 0eH, 'NH0', 089H, '0', 08cH, '0f0D0~'
	DB	'0Y0', 02H, '0', 00H, 00H
	ORG $+2
$SG117957 DB	0eH, 'NH0', 089H, '0', 08cH, '0_0', 0d0H, '0', 0a4H, '0', 0c8H
	DB	'0', 017H, 'RL0', 01aH, 'Y', 0dH, 'Pw', 095H, 'tepeh0W0f0', 08dH
	DB	08aH, 'X', 08bH, 'g0M0~0[0', 093H, '0', 02H, '0', 00H, 00H
	ORG $+2
$SG117960 DB	0eH, 'NH0', 089H, '0', 08cH, '0_0', 0d0H, '0', 0a4H, '0', 0c8H
	DB	'0', 017H, 'RL0', 01aH, 'Y', 0dH, 'Pw', 095H, 'tepeh0W0f0', 08dH
	DB	08aH, 'X', 08bH, 'g0M0~0[0', 093H, '0', 02H, '0', 00H, 00H
	ORG $+2
$SG117965 DB	0eH, 'NH0', 089H, '0', 08cH, '0_0', 0d0H, '0', 0a4H, '0', 0c8H
	DB	'0', 017H, 'RL0', 01aH, 'Y', 0dH, 'Pw', 095H, 'tepeh0W0f0', 08dH
	DB	08aH, 'X', 08bH, 'g0M0~0[0', 093H, '0', 02H, '0', 00H, 00H
	ORG $+2
$SG117972 DB	0eH, 'NH0', 089H, '0', 08cH, '0_0', 0d0H, '0', 0a4H, '0', 0c8H
	DB	'0', 017H, 'RL0', 01aH, 'Y', 0dH, 'Pw', 095H, 'tepeh0W0f0', 08dH
	DB	08aH, 'X', 08bH, 'g0M0~0[0', 093H, '0', 02H, '0', 00H, 00H
	ORG $+2
$SG117982 DB	'b', 00H, 'u', 00H, 'f', 00H, 'f', 00H, 'e', 00H, 'r', 00H
	DB	00H, 00H
	ORG $+2
$SG117983 DB	015H, '_pek0n', 00H, 'u', 00H, 'l', 00H, 'l', 00H, 'p', 00H
	DB	't', 00H, 'r', 00H, 'L0', 0eH, 'NH0', 089H, '0', 08cH, '0f0D0~'
	DB	'0Y0', 02H, '0', 00H, 00H
	ORG $+2
$SG117996 DB	'p', 00H, 00H, 00H
$SG117997 DB	015H, '_pek0n', 00H, 'u', 00H, 'l', 00H, 'l', 00H, 'p', 00H
	DB	't', 00H, 'r', 00H, 'L0', 0eH, 'NH0', 089H, '0', 08cH, '0f0D0~'
	DB	'0Y0', 02H, '0', 00H, 00H
	ORG $+2
$SG118005 DB	0faH, 'Q', 09bH, 'RHQ', 0d0H, '0', 0c3H, '0', 0d5H, '0', 0a1H
	DB	'0n0', 0b5H, '0', 0a4H, '0', 0baH, '0L0', 0dH, 'N', 0b3H, 08dH
	DB	'W0f0D0~0Y0', 02H, '0', 00H, 00H
	ORG $+2
$SG118010 DB	'p', 00H, 'm', 00H, 'c', 00H, '_', 00H, 'b', 00H, 'y', 00H
	DB	't', 00H, 'e', 00H, 's', 00H, '.', 00H, 'c', 00H, 'p', 00H, 'p'
	DB	00H, ';', 00H, 'P', 00H, 'M', 00H, 'C', 00H, '_', 00H, 'T', 00H
	DB	'o', 00H, 'B', 00H, 'y', 00H, 't', 00H, 'e', 00H, 'A', 00H, 'r'
	DB	00H, 'r', 00H, 'a', 00H, 'y', 00H, 'F', 00H, 'o', 00H, 'r', 00H
	DB	'S', 00H, 'I', 00H, 'N', 00H, 'T', 00H, ';', 00H, '1', 00H, 00H
	DB	00H
	ORG $+2
$SG118011 DB	085H, 'Q', 0e8H, 090H, 0a8H, '0', 0e9H, '0', 0fcH, '0L0zv'
	DB	01fH, 'uW0~0W0_0', 02H, '0', 00H, 00H
$SG118017 DB	085H, 'Q', 0e8H, 090H, 0a8H, '0', 0e9H, '0', 0fcH, '0L0zv'
	DB	01fH, 'uW0~0W0_0', 02H, '0', 00H, 00H
$SG118016 DB	'p', 00H, 'm', 00H, 'c', 00H, '_', 00H, 'b', 00H, 'y', 00H
	DB	't', 00H, 'e', 00H, 's', 00H, '.', 00H, 'c', 00H, 'p', 00H, 'p'
	DB	00H, ';', 00H, 'P', 00H, 'M', 00H, 'C', 00H, '_', 00H, 'T', 00H
	DB	'o', 00H, 'B', 00H, 'y', 00H, 't', 00H, 'e', 00H, 'A', 00H, 'r'
	DB	00H, 'r', 00H, 'a', 00H, 'y', 00H, 'F', 00H, 'o', 00H, 'r', 00H
	DB	'S', 00H, 'I', 00H, 'N', 00H, 'T', 00H, ';', 00H, '2', 00H, 00H
	DB	00H
	ORG $+2
$SG118020 DB	'p', 00H, 'm', 00H, 'c', 00H, '_', 00H, 'b', 00H, 'y', 00H
	DB	't', 00H, 'e', 00H, 's', 00H, '.', 00H, 'c', 00H, 'p', 00H, 'p'
	DB	00H, ';', 00H, 'P', 00H, 'M', 00H, 'C', 00H, '_', 00H, 'T', 00H
	DB	'o', 00H, 'B', 00H, 'y', 00H, 't', 00H, 'e', 00H, 'A', 00H, 'r'
	DB	00H, 'r', 00H, 'a', 00H, 'y', 00H, 'F', 00H, 'o', 00H, 'r', 00H
	DB	'S', 00H, 'I', 00H, 'N', 00H, 'T', 00H, ';', 00H, '3', 00H, 00H
	DB	00H
	ORG $+2
$SG118021 DB	085H, 'Q', 0e8H, 090H, 0a8H, '0', 0e9H, '0', 0fcH, '0L0zv'
	DB	01fH, 'uW0~0W0_0', 02H, '0', 00H, 00H
$SG118032 DB	'p', 00H, 00H, 00H
$SG118033 DB	015H, '_pek0n', 00H, 'u', 00H, 'l', 00H, 'l', 00H, 'p', 00H
	DB	't', 00H, 'r', 00H, 'L0', 0eH, 'NH0', 089H, '0', 08cH, '0f0D0~'
	DB	'0Y0', 02H, '0', 00H, 00H
	ORG $+2
$SG118037 DB	0faH, 'Q', 09bH, 'RHQ', 0d0H, '0', 0c3H, '0', 0d5H, '0', 0a1H
	DB	'0n0', 0b5H, '0', 0a4H, '0', 0baH, '0L0', 0dH, 'N', 0b3H, 08dH
	DB	'W0f0D0~0Y0', 02H, '0', 00H, 00H
CONST	ENDS
PUBLIC	??0exception@std@@QAE@XZ			; std::exception::exception
PUBLIC	??1exception@std@@UAE@XZ			; std::exception::~exception
PUBLIC	?what@exception@std@@UBEPBDXZ			; std::exception::what
PUBLIC	??_Gexception@std@@UAEPAXI@Z			; std::exception::`scalar deleting destructor'
PUBLIC	??0Exception@Internal@Core@Math@Palmtree@@IAE@HPB_W@Z ; Palmtree::Math::Core::Internal::Exception::Exception
PUBLIC	??0Exception@Internal@Core@Math@Palmtree@@IAE@HPB_W0@Z ; Palmtree::Math::Core::Internal::Exception::Exception
PUBLIC	??0Exception@Internal@Core@Math@Palmtree@@QAE@ABV01234@@Z ; Palmtree::Math::Core::Internal::Exception::Exception
PUBLIC	??1Exception@Internal@Core@Math@Palmtree@@UAE@XZ ; Palmtree::Math::Core::Internal::Exception::~Exception
PUBLIC	??_GException@Internal@Core@Math@Palmtree@@UAEPAXI@Z ; Palmtree::Math::Core::Internal::Exception::`scalar deleting destructor'
PUBLIC	??0ArgumentNullException@Internal@Core@Math@Palmtree@@QAE@PB_W0@Z ; Palmtree::Math::Core::Internal::ArgumentNullException::ArgumentNullException
PUBLIC	??0ArgumentNullException@Internal@Core@Math@Palmtree@@QAE@ABV01234@@Z ; Palmtree::Math::Core::Internal::ArgumentNullException::ArgumentNullException
PUBLIC	??1ArgumentNullException@Internal@Core@Math@Palmtree@@UAE@XZ ; Palmtree::Math::Core::Internal::ArgumentNullException::~ArgumentNullException
PUBLIC	??_GArgumentNullException@Internal@Core@Math@Palmtree@@UAEPAXI@Z ; Palmtree::Math::Core::Internal::ArgumentNullException::`scalar deleting destructor'
PUBLIC	??0FormatException@Internal@Core@Math@Palmtree@@QAE@PB_W@Z ; Palmtree::Math::Core::Internal::FormatException::FormatException
PUBLIC	??0FormatException@Internal@Core@Math@Palmtree@@QAE@ABV01234@@Z ; Palmtree::Math::Core::Internal::FormatException::FormatException
PUBLIC	??1FormatException@Internal@Core@Math@Palmtree@@UAE@XZ ; Palmtree::Math::Core::Internal::FormatException::~FormatException
PUBLIC	??_GFormatException@Internal@Core@Math@Palmtree@@UAEPAXI@Z ; Palmtree::Math::Core::Internal::FormatException::`scalar deleting destructor'
PUBLIC	??0InsufficientBufferException@Internal@Core@Math@Palmtree@@QAE@PB_W@Z ; Palmtree::Math::Core::Internal::InsufficientBufferException::InsufficientBufferException
PUBLIC	??0InsufficientBufferException@Internal@Core@Math@Palmtree@@QAE@ABV01234@@Z ; Palmtree::Math::Core::Internal::InsufficientBufferException::InsufficientBufferException
PUBLIC	??1InsufficientBufferException@Internal@Core@Math@Palmtree@@UAE@XZ ; Palmtree::Math::Core::Internal::InsufficientBufferException::~InsufficientBufferException
PUBLIC	??_GInsufficientBufferException@Internal@Core@Math@Palmtree@@UAEPAXI@Z ; Palmtree::Math::Core::Internal::InsufficientBufferException::`scalar deleting destructor'
PUBLIC	??0InternalErrorException@Internal@Core@Math@Palmtree@@QAE@PB_W0@Z ; Palmtree::Math::Core::Internal::InternalErrorException::InternalErrorException
PUBLIC	??0InternalErrorException@Internal@Core@Math@Palmtree@@QAE@ABV01234@@Z ; Palmtree::Math::Core::Internal::InternalErrorException::InternalErrorException
PUBLIC	??1InternalErrorException@Internal@Core@Math@Palmtree@@UAE@XZ ; Palmtree::Math::Core::Internal::InternalErrorException::~InternalErrorException
PUBLIC	??_GInternalErrorException@Internal@Core@Math@Palmtree@@UAEPAXI@Z ; Palmtree::Math::Core::Internal::InternalErrorException::`scalar deleting destructor'
PUBLIC	?PMC_FromByteArray@Internal@Core@Math@Palmtree@@YGPAU__tag_PMC_HANDLE_UINT@1234@PBEI@Z ; Palmtree::Math::Core::Internal::PMC_FromByteArray
PUBLIC	?PMC_ToByteArray@Internal@Core@Math@Palmtree@@YGIPAU__tag_PMC_HANDLE_UINT@1234@PAEI@Z ; Palmtree::Math::Core::Internal::PMC_ToByteArray
PUBLIC	?PMC_FromByteArrayForSINT@Internal@Core@Math@Palmtree@@YGPAU__tag_PMC_HANDLE_UINT@1234@PAEIPAD@Z ; Palmtree::Math::Core::Internal::PMC_FromByteArrayForSINT
PUBLIC	?PMC_ToByteArrayForSINT@Internal@Core@Math@Palmtree@@YGIDPAU__tag_PMC_HANDLE_UINT@1234@PAEI@Z ; Palmtree::Math::Core::Internal::PMC_ToByteArrayForSINT
PUBLIC	__JustMyCode_Default
PUBLIC	??_7exception@std@@6B@				; std::exception::`vftable'
PUBLIC	??_C@_0BC@EOODALEL@Unknown?5exception@		; `string'
PUBLIC	??_7Exception@Internal@Core@Math@Palmtree@@6B@	; Palmtree::Math::Core::Internal::Exception::`vftable'
PUBLIC	??_7ArgumentNullException@Internal@Core@Math@Palmtree@@6B@ ; Palmtree::Math::Core::Internal::ArgumentNullException::`vftable'
PUBLIC	??_7FormatException@Internal@Core@Math@Palmtree@@6B@ ; Palmtree::Math::Core::Internal::FormatException::`vftable'
PUBLIC	??_7InsufficientBufferException@Internal@Core@Math@Palmtree@@6B@ ; Palmtree::Math::Core::Internal::InsufficientBufferException::`vftable'
PUBLIC	??_7InternalErrorException@Internal@Core@Math@Palmtree@@6B@ ; Palmtree::Math::Core::Internal::InternalErrorException::`vftable'
PUBLIC	__TI2?AVInternalErrorException@Internal@Core@Math@Palmtree@@
PUBLIC	__CTA2?AVInternalErrorException@Internal@Core@Math@Palmtree@@
PUBLIC	??_R0?AVInternalErrorException@Internal@Core@Math@Palmtree@@@8 ; Palmtree::Math::Core::Internal::InternalErrorException `RTTI Type Descriptor'
PUBLIC	__CT??_R0?AVInternalErrorException@Internal@Core@Math@Palmtree@@@8??0InternalErrorException@Internal@Core@Math@Palmtree@@QAE@ABV01234@@Z24
PUBLIC	??_R0?AVException@Internal@Core@Math@Palmtree@@@8 ; Palmtree::Math::Core::Internal::Exception `RTTI Type Descriptor'
PUBLIC	__CT??_R0?AVException@Internal@Core@Math@Palmtree@@@8??0Exception@Internal@Core@Math@Palmtree@@QAE@ABV01234@@Z24
PUBLIC	__TI2?AVFormatException@Internal@Core@Math@Palmtree@@
PUBLIC	__CTA2?AVFormatException@Internal@Core@Math@Palmtree@@
PUBLIC	??_R0?AVFormatException@Internal@Core@Math@Palmtree@@@8 ; Palmtree::Math::Core::Internal::FormatException `RTTI Type Descriptor'
PUBLIC	__CT??_R0?AVFormatException@Internal@Core@Math@Palmtree@@@8??0FormatException@Internal@Core@Math@Palmtree@@QAE@ABV01234@@Z24
PUBLIC	__TI2?AVArgumentNullException@Internal@Core@Math@Palmtree@@
PUBLIC	__CTA2?AVArgumentNullException@Internal@Core@Math@Palmtree@@
PUBLIC	??_R0?AVArgumentNullException@Internal@Core@Math@Palmtree@@@8 ; Palmtree::Math::Core::Internal::ArgumentNullException `RTTI Type Descriptor'
PUBLIC	__CT??_R0?AVArgumentNullException@Internal@Core@Math@Palmtree@@@8??0ArgumentNullException@Internal@Core@Math@Palmtree@@QAE@ABV01234@@Z24
PUBLIC	__TI2?AVInsufficientBufferException@Internal@Core@Math@Palmtree@@
PUBLIC	__CTA2?AVInsufficientBufferException@Internal@Core@Math@Palmtree@@
PUBLIC	??_R0?AVInsufficientBufferException@Internal@Core@Math@Palmtree@@@8 ; Palmtree::Math::Core::Internal::InsufficientBufferException `RTTI Type Descriptor'
PUBLIC	__CT??_R0?AVInsufficientBufferException@Internal@Core@Math@Palmtree@@@8??0InsufficientBufferException@Internal@Core@Math@Palmtree@@QAE@ABV01234@@Z24
PUBLIC	??_R4exception@std@@6B@				; std::exception::`RTTI Complete Object Locator'
PUBLIC	??_R0?AVexception@std@@@8			; std::exception `RTTI Type Descriptor'
PUBLIC	??_R3exception@std@@8				; std::exception::`RTTI Class Hierarchy Descriptor'
PUBLIC	??_R2exception@std@@8				; std::exception::`RTTI Base Class Array'
PUBLIC	??_R1A@?0A@EA@exception@std@@8			; std::exception::`RTTI Base Class Descriptor at (0,-1,0,64)'
PUBLIC	??_R4Exception@Internal@Core@Math@Palmtree@@6B@	; Palmtree::Math::Core::Internal::Exception::`RTTI Complete Object Locator'
PUBLIC	??_R3Exception@Internal@Core@Math@Palmtree@@8	; Palmtree::Math::Core::Internal::Exception::`RTTI Class Hierarchy Descriptor'
PUBLIC	??_R2Exception@Internal@Core@Math@Palmtree@@8	; Palmtree::Math::Core::Internal::Exception::`RTTI Base Class Array'
PUBLIC	??_R1A@?0A@EA@Exception@Internal@Core@Math@Palmtree@@8 ; Palmtree::Math::Core::Internal::Exception::`RTTI Base Class Descriptor at (0,-1,0,64)'
PUBLIC	??_R1A@?0A@EN@exception@std@@8			; std::exception::`RTTI Base Class Descriptor at (0,-1,0,77)'
PUBLIC	??_R4ArgumentNullException@Internal@Core@Math@Palmtree@@6B@ ; Palmtree::Math::Core::Internal::ArgumentNullException::`RTTI Complete Object Locator'
PUBLIC	??_R3ArgumentNullException@Internal@Core@Math@Palmtree@@8 ; Palmtree::Math::Core::Internal::ArgumentNullException::`RTTI Class Hierarchy Descriptor'
PUBLIC	??_R2ArgumentNullException@Internal@Core@Math@Palmtree@@8 ; Palmtree::Math::Core::Internal::ArgumentNullException::`RTTI Base Class Array'
PUBLIC	??_R1A@?0A@EA@ArgumentNullException@Internal@Core@Math@Palmtree@@8 ; Palmtree::Math::Core::Internal::ArgumentNullException::`RTTI Base Class Descriptor at (0,-1,0,64)'
PUBLIC	??_R4FormatException@Internal@Core@Math@Palmtree@@6B@ ; Palmtree::Math::Core::Internal::FormatException::`RTTI Complete Object Locator'
PUBLIC	??_R3FormatException@Internal@Core@Math@Palmtree@@8 ; Palmtree::Math::Core::Internal::FormatException::`RTTI Class Hierarchy Descriptor'
PUBLIC	??_R2FormatException@Internal@Core@Math@Palmtree@@8 ; Palmtree::Math::Core::Internal::FormatException::`RTTI Base Class Array'
PUBLIC	??_R1A@?0A@EA@FormatException@Internal@Core@Math@Palmtree@@8 ; Palmtree::Math::Core::Internal::FormatException::`RTTI Base Class Descriptor at (0,-1,0,64)'
PUBLIC	??_R4InsufficientBufferException@Internal@Core@Math@Palmtree@@6B@ ; Palmtree::Math::Core::Internal::InsufficientBufferException::`RTTI Complete Object Locator'
PUBLIC	??_R3InsufficientBufferException@Internal@Core@Math@Palmtree@@8 ; Palmtree::Math::Core::Internal::InsufficientBufferException::`RTTI Class Hierarchy Descriptor'
PUBLIC	??_R2InsufficientBufferException@Internal@Core@Math@Palmtree@@8 ; Palmtree::Math::Core::Internal::InsufficientBufferException::`RTTI Base Class Array'
PUBLIC	??_R1A@?0A@EA@InsufficientBufferException@Internal@Core@Math@Palmtree@@8 ; Palmtree::Math::Core::Internal::InsufficientBufferException::`RTTI Base Class Descriptor at (0,-1,0,64)'
PUBLIC	??_R4InternalErrorException@Internal@Core@Math@Palmtree@@6B@ ; Palmtree::Math::Core::Internal::InternalErrorException::`RTTI Complete Object Locator'
PUBLIC	??_R3InternalErrorException@Internal@Core@Math@Palmtree@@8 ; Palmtree::Math::Core::Internal::InternalErrorException::`RTTI Class Hierarchy Descriptor'
PUBLIC	??_R2InternalErrorException@Internal@Core@Math@Palmtree@@8 ; Palmtree::Math::Core::Internal::InternalErrorException::`RTTI Base Class Array'
PUBLIC	??_R1A@?0A@EA@InternalErrorException@Internal@Core@Math@Palmtree@@8 ; Palmtree::Math::Core::Internal::InternalErrorException::`RTTI Base Class Descriptor at (0,-1,0,64)'
EXTRN	??3@YAXPAXI@Z:PROC				; operator delete
EXTRN	___std_exception_destroy:PROC
EXTRN	??_Eexception@std@@UAEPAXI@Z:PROC		; std::exception::`vector deleting destructor'
EXTRN	??_EException@Internal@Core@Math@Palmtree@@UAEPAXI@Z:PROC ; Palmtree::Math::Core::Internal::Exception::`vector deleting destructor'
EXTRN	??_EArgumentNullException@Internal@Core@Math@Palmtree@@UAEPAXI@Z:PROC ; Palmtree::Math::Core::Internal::ArgumentNullException::`vector deleting destructor'
EXTRN	??_EFormatException@Internal@Core@Math@Palmtree@@UAEPAXI@Z:PROC ; Palmtree::Math::Core::Internal::FormatException::`vector deleting destructor'
EXTRN	??_EInsufficientBufferException@Internal@Core@Math@Palmtree@@UAEPAXI@Z:PROC ; Palmtree::Math::Core::Internal::InsufficientBufferException::`vector deleting destructor'
EXTRN	??_EInternalErrorException@Internal@Core@Math@Palmtree@@UAEPAXI@Z:PROC ; Palmtree::Math::Core::Internal::InternalErrorException::`vector deleting destructor'
EXTRN	?CommitNumber@Internal@Core@Math@Palmtree@@YAXPAU__tag_NUMBER_HEADER@1234@@Z:PROC ; Palmtree::Math::Core::Internal::CommitNumber
EXTRN	?CheckNumber@Internal@Core@Math@Palmtree@@YAXPAU__tag_NUMBER_HEADER@1234@@Z:PROC ; Palmtree::Math::Core::Internal::CheckNumber
EXTRN	??0ResourceHolderUINT@Internal@Core@Math@Palmtree@@QAE@XZ:PROC ; Palmtree::Math::Core::Internal::ResourceHolderUINT::ResourceHolderUINT
EXTRN	??1ResourceHolderUINT@Internal@Core@Math@Palmtree@@UAE@XZ:PROC ; Palmtree::Math::Core::Internal::ResourceHolderUINT::~ResourceHolderUINT
EXTRN	?AllocateNumber@ResourceHolderUINT@Internal@Core@Math@Palmtree@@QAEPAU__tag_NUMBER_HEADER@2345@I@Z:PROC ; Palmtree::Math::Core::Internal::ResourceHolderUINT::AllocateNumber
EXTRN	?HookNumber@ResourceHolderUINT@Internal@Core@Math@Palmtree@@QAEXPAU__tag_NUMBER_HEADER@2345@@Z:PROC ; Palmtree::Math::Core::Internal::ResourceHolderUINT::HookNumber
EXTRN	?UnlinkNumber@ResourceHolderUINT@Internal@Core@Math@Palmtree@@QAEXPAU__tag_NUMBER_HEADER@2345@@Z:PROC ; Palmtree::Math::Core::Internal::ResourceHolderUINT::UnlinkNumber
EXTRN	@_RTC_CheckStackVars@8:PROC
EXTRN	@__CheckForDebuggerJustMyCode@4:PROC
EXTRN	@__security_check_cookie@4:PROC
EXTRN	__CxxThrowException@8:PROC
EXTRN	__RTC_CheckEsp:PROC
EXTRN	__RTC_InitBase:PROC
EXTRN	__RTC_Shutdown:PROC
EXTRN	___CxxFrameHandler3:PROC
EXTRN	?number_zero@Internal@Core@Math@Palmtree@@3U__tag_NUMBER_HEADER@1234@A:BYTE ; Palmtree::Math::Core::Internal::number_zero
EXTRN	??_7type_info@@6B@:QWORD			; type_info::`vftable'
EXTRN	___security_cookie:DWORD
;	COMDAT rtc$TMZ
rtc$TMZ	SEGMENT
__RTC_Shutdown.rtc$TMZ DD FLAT:__RTC_Shutdown
rtc$TMZ	ENDS
;	COMDAT rtc$IMZ
rtc$IMZ	SEGMENT
__RTC_InitBase.rtc$IMZ DD FLAT:__RTC_InitBase
rtc$IMZ	ENDS
;	COMDAT ??_R1A@?0A@EA@InternalErrorException@Internal@Core@Math@Palmtree@@8
rdata$r	SEGMENT
??_R1A@?0A@EA@InternalErrorException@Internal@Core@Math@Palmtree@@8 DD FLAT:??_R0?AVInternalErrorException@Internal@Core@Math@Palmtree@@@8 ; Palmtree::Math::Core::Internal::InternalErrorException::`RTTI Base Class Descriptor at (0,-1,0,64)'
	DD	02H
	DD	00H
	DD	0ffffffffH
	DD	00H
	DD	040H
	DD	FLAT:??_R3InternalErrorException@Internal@Core@Math@Palmtree@@8
rdata$r	ENDS
;	COMDAT ??_R2InternalErrorException@Internal@Core@Math@Palmtree@@8
rdata$r	SEGMENT
??_R2InternalErrorException@Internal@Core@Math@Palmtree@@8 DD FLAT:??_R1A@?0A@EA@InternalErrorException@Internal@Core@Math@Palmtree@@8 ; Palmtree::Math::Core::Internal::InternalErrorException::`RTTI Base Class Array'
	DD	FLAT:??_R1A@?0A@EA@Exception@Internal@Core@Math@Palmtree@@8
	DD	FLAT:??_R1A@?0A@EN@exception@std@@8
rdata$r	ENDS
;	COMDAT ??_R3InternalErrorException@Internal@Core@Math@Palmtree@@8
rdata$r	SEGMENT
??_R3InternalErrorException@Internal@Core@Math@Palmtree@@8 DD 00H ; Palmtree::Math::Core::Internal::InternalErrorException::`RTTI Class Hierarchy Descriptor'
	DD	00H
	DD	03H
	DD	FLAT:??_R2InternalErrorException@Internal@Core@Math@Palmtree@@8
rdata$r	ENDS
;	COMDAT ??_R4InternalErrorException@Internal@Core@Math@Palmtree@@6B@
rdata$r	SEGMENT
??_R4InternalErrorException@Internal@Core@Math@Palmtree@@6B@ DD 00H ; Palmtree::Math::Core::Internal::InternalErrorException::`RTTI Complete Object Locator'
	DD	00H
	DD	00H
	DD	FLAT:??_R0?AVInternalErrorException@Internal@Core@Math@Palmtree@@@8
	DD	FLAT:??_R3InternalErrorException@Internal@Core@Math@Palmtree@@8
rdata$r	ENDS
;	COMDAT ??_R1A@?0A@EA@InsufficientBufferException@Internal@Core@Math@Palmtree@@8
rdata$r	SEGMENT
??_R1A@?0A@EA@InsufficientBufferException@Internal@Core@Math@Palmtree@@8 DD FLAT:??_R0?AVInsufficientBufferException@Internal@Core@Math@Palmtree@@@8 ; Palmtree::Math::Core::Internal::InsufficientBufferException::`RTTI Base Class Descriptor at (0,-1,0,64)'
	DD	02H
	DD	00H
	DD	0ffffffffH
	DD	00H
	DD	040H
	DD	FLAT:??_R3InsufficientBufferException@Internal@Core@Math@Palmtree@@8
rdata$r	ENDS
;	COMDAT ??_R2InsufficientBufferException@Internal@Core@Math@Palmtree@@8
rdata$r	SEGMENT
??_R2InsufficientBufferException@Internal@Core@Math@Palmtree@@8 DD FLAT:??_R1A@?0A@EA@InsufficientBufferException@Internal@Core@Math@Palmtree@@8 ; Palmtree::Math::Core::Internal::InsufficientBufferException::`RTTI Base Class Array'
	DD	FLAT:??_R1A@?0A@EA@Exception@Internal@Core@Math@Palmtree@@8
	DD	FLAT:??_R1A@?0A@EN@exception@std@@8
rdata$r	ENDS
;	COMDAT ??_R3InsufficientBufferException@Internal@Core@Math@Palmtree@@8
rdata$r	SEGMENT
??_R3InsufficientBufferException@Internal@Core@Math@Palmtree@@8 DD 00H ; Palmtree::Math::Core::Internal::InsufficientBufferException::`RTTI Class Hierarchy Descriptor'
	DD	00H
	DD	03H
	DD	FLAT:??_R2InsufficientBufferException@Internal@Core@Math@Palmtree@@8
rdata$r	ENDS
;	COMDAT ??_R4InsufficientBufferException@Internal@Core@Math@Palmtree@@6B@
rdata$r	SEGMENT
??_R4InsufficientBufferException@Internal@Core@Math@Palmtree@@6B@ DD 00H ; Palmtree::Math::Core::Internal::InsufficientBufferException::`RTTI Complete Object Locator'
	DD	00H
	DD	00H
	DD	FLAT:??_R0?AVInsufficientBufferException@Internal@Core@Math@Palmtree@@@8
	DD	FLAT:??_R3InsufficientBufferException@Internal@Core@Math@Palmtree@@8
rdata$r	ENDS
;	COMDAT ??_R1A@?0A@EA@FormatException@Internal@Core@Math@Palmtree@@8
rdata$r	SEGMENT
??_R1A@?0A@EA@FormatException@Internal@Core@Math@Palmtree@@8 DD FLAT:??_R0?AVFormatException@Internal@Core@Math@Palmtree@@@8 ; Palmtree::Math::Core::Internal::FormatException::`RTTI Base Class Descriptor at (0,-1,0,64)'
	DD	02H
	DD	00H
	DD	0ffffffffH
	DD	00H
	DD	040H
	DD	FLAT:??_R3FormatException@Internal@Core@Math@Palmtree@@8
rdata$r	ENDS
;	COMDAT ??_R2FormatException@Internal@Core@Math@Palmtree@@8
rdata$r	SEGMENT
??_R2FormatException@Internal@Core@Math@Palmtree@@8 DD FLAT:??_R1A@?0A@EA@FormatException@Internal@Core@Math@Palmtree@@8 ; Palmtree::Math::Core::Internal::FormatException::`RTTI Base Class Array'
	DD	FLAT:??_R1A@?0A@EA@Exception@Internal@Core@Math@Palmtree@@8
	DD	FLAT:??_R1A@?0A@EN@exception@std@@8
rdata$r	ENDS
;	COMDAT ??_R3FormatException@Internal@Core@Math@Palmtree@@8
rdata$r	SEGMENT
??_R3FormatException@Internal@Core@Math@Palmtree@@8 DD 00H ; Palmtree::Math::Core::Internal::FormatException::`RTTI Class Hierarchy Descriptor'
	DD	00H
	DD	03H
	DD	FLAT:??_R2FormatException@Internal@Core@Math@Palmtree@@8
rdata$r	ENDS
;	COMDAT ??_R4FormatException@Internal@Core@Math@Palmtree@@6B@
rdata$r	SEGMENT
??_R4FormatException@Internal@Core@Math@Palmtree@@6B@ DD 00H ; Palmtree::Math::Core::Internal::FormatException::`RTTI Complete Object Locator'
	DD	00H
	DD	00H
	DD	FLAT:??_R0?AVFormatException@Internal@Core@Math@Palmtree@@@8
	DD	FLAT:??_R3FormatException@Internal@Core@Math@Palmtree@@8
rdata$r	ENDS
;	COMDAT ??_R1A@?0A@EA@ArgumentNullException@Internal@Core@Math@Palmtree@@8
rdata$r	SEGMENT
??_R1A@?0A@EA@ArgumentNullException@Internal@Core@Math@Palmtree@@8 DD FLAT:??_R0?AVArgumentNullException@Internal@Core@Math@Palmtree@@@8 ; Palmtree::Math::Core::Internal::ArgumentNullException::`RTTI Base Class Descriptor at (0,-1,0,64)'
	DD	02H
	DD	00H
	DD	0ffffffffH
	DD	00H
	DD	040H
	DD	FLAT:??_R3ArgumentNullException@Internal@Core@Math@Palmtree@@8
rdata$r	ENDS
;	COMDAT ??_R2ArgumentNullException@Internal@Core@Math@Palmtree@@8
rdata$r	SEGMENT
??_R2ArgumentNullException@Internal@Core@Math@Palmtree@@8 DD FLAT:??_R1A@?0A@EA@ArgumentNullException@Internal@Core@Math@Palmtree@@8 ; Palmtree::Math::Core::Internal::ArgumentNullException::`RTTI Base Class Array'
	DD	FLAT:??_R1A@?0A@EA@Exception@Internal@Core@Math@Palmtree@@8
	DD	FLAT:??_R1A@?0A@EN@exception@std@@8
rdata$r	ENDS
;	COMDAT ??_R3ArgumentNullException@Internal@Core@Math@Palmtree@@8
rdata$r	SEGMENT
??_R3ArgumentNullException@Internal@Core@Math@Palmtree@@8 DD 00H ; Palmtree::Math::Core::Internal::ArgumentNullException::`RTTI Class Hierarchy Descriptor'
	DD	00H
	DD	03H
	DD	FLAT:??_R2ArgumentNullException@Internal@Core@Math@Palmtree@@8
rdata$r	ENDS
;	COMDAT ??_R4ArgumentNullException@Internal@Core@Math@Palmtree@@6B@
rdata$r	SEGMENT
??_R4ArgumentNullException@Internal@Core@Math@Palmtree@@6B@ DD 00H ; Palmtree::Math::Core::Internal::ArgumentNullException::`RTTI Complete Object Locator'
	DD	00H
	DD	00H
	DD	FLAT:??_R0?AVArgumentNullException@Internal@Core@Math@Palmtree@@@8
	DD	FLAT:??_R3ArgumentNullException@Internal@Core@Math@Palmtree@@8
rdata$r	ENDS
;	COMDAT ??_R1A@?0A@EN@exception@std@@8
rdata$r	SEGMENT
??_R1A@?0A@EN@exception@std@@8 DD FLAT:??_R0?AVexception@std@@@8 ; std::exception::`RTTI Base Class Descriptor at (0,-1,0,77)'
	DD	00H
	DD	00H
	DD	0ffffffffH
	DD	00H
	DD	04dH
	DD	FLAT:??_R3exception@std@@8
rdata$r	ENDS
;	COMDAT ??_R1A@?0A@EA@Exception@Internal@Core@Math@Palmtree@@8
rdata$r	SEGMENT
??_R1A@?0A@EA@Exception@Internal@Core@Math@Palmtree@@8 DD FLAT:??_R0?AVException@Internal@Core@Math@Palmtree@@@8 ; Palmtree::Math::Core::Internal::Exception::`RTTI Base Class Descriptor at (0,-1,0,64)'
	DD	01H
	DD	00H
	DD	0ffffffffH
	DD	00H
	DD	040H
	DD	FLAT:??_R3Exception@Internal@Core@Math@Palmtree@@8
rdata$r	ENDS
;	COMDAT ??_R2Exception@Internal@Core@Math@Palmtree@@8
rdata$r	SEGMENT
??_R2Exception@Internal@Core@Math@Palmtree@@8 DD FLAT:??_R1A@?0A@EA@Exception@Internal@Core@Math@Palmtree@@8 ; Palmtree::Math::Core::Internal::Exception::`RTTI Base Class Array'
	DD	FLAT:??_R1A@?0A@EN@exception@std@@8
rdata$r	ENDS
;	COMDAT ??_R3Exception@Internal@Core@Math@Palmtree@@8
rdata$r	SEGMENT
??_R3Exception@Internal@Core@Math@Palmtree@@8 DD 00H	; Palmtree::Math::Core::Internal::Exception::`RTTI Class Hierarchy Descriptor'
	DD	00H
	DD	02H
	DD	FLAT:??_R2Exception@Internal@Core@Math@Palmtree@@8
rdata$r	ENDS
;	COMDAT ??_R4Exception@Internal@Core@Math@Palmtree@@6B@
rdata$r	SEGMENT
??_R4Exception@Internal@Core@Math@Palmtree@@6B@ DD 00H	; Palmtree::Math::Core::Internal::Exception::`RTTI Complete Object Locator'
	DD	00H
	DD	00H
	DD	FLAT:??_R0?AVException@Internal@Core@Math@Palmtree@@@8
	DD	FLAT:??_R3Exception@Internal@Core@Math@Palmtree@@8
rdata$r	ENDS
;	COMDAT ??_R1A@?0A@EA@exception@std@@8
rdata$r	SEGMENT
??_R1A@?0A@EA@exception@std@@8 DD FLAT:??_R0?AVexception@std@@@8 ; std::exception::`RTTI Base Class Descriptor at (0,-1,0,64)'
	DD	00H
	DD	00H
	DD	0ffffffffH
	DD	00H
	DD	040H
	DD	FLAT:??_R3exception@std@@8
rdata$r	ENDS
;	COMDAT ??_R2exception@std@@8
rdata$r	SEGMENT
??_R2exception@std@@8 DD FLAT:??_R1A@?0A@EA@exception@std@@8 ; std::exception::`RTTI Base Class Array'
rdata$r	ENDS
;	COMDAT ??_R3exception@std@@8
rdata$r	SEGMENT
??_R3exception@std@@8 DD 00H				; std::exception::`RTTI Class Hierarchy Descriptor'
	DD	00H
	DD	01H
	DD	FLAT:??_R2exception@std@@8
rdata$r	ENDS
;	COMDAT ??_R0?AVexception@std@@@8
data$r	SEGMENT
??_R0?AVexception@std@@@8 DD FLAT:??_7type_info@@6B@	; std::exception `RTTI Type Descriptor'
	DD	00H
	DB	'.?AVexception@std@@', 00H
data$r	ENDS
;	COMDAT ??_R4exception@std@@6B@
rdata$r	SEGMENT
??_R4exception@std@@6B@ DD 00H				; std::exception::`RTTI Complete Object Locator'
	DD	00H
	DD	00H
	DD	FLAT:??_R0?AVexception@std@@@8
	DD	FLAT:??_R3exception@std@@8
rdata$r	ENDS
;	COMDAT __CT??_R0?AVInsufficientBufferException@Internal@Core@Math@Palmtree@@@8??0InsufficientBufferException@Internal@Core@Math@Palmtree@@QAE@ABV01234@@Z24
xdata$x	SEGMENT
__CT??_R0?AVInsufficientBufferException@Internal@Core@Math@Palmtree@@@8??0InsufficientBufferException@Internal@Core@Math@Palmtree@@QAE@ABV01234@@Z24 DD 00H
	DD	FLAT:??_R0?AVInsufficientBufferException@Internal@Core@Math@Palmtree@@@8
	DD	00H
	DD	0ffffffffH
	ORG $+4
	DD	018H
	DD	FLAT:??0InsufficientBufferException@Internal@Core@Math@Palmtree@@QAE@ABV01234@@Z
xdata$x	ENDS
;	COMDAT ??_R0?AVInsufficientBufferException@Internal@Core@Math@Palmtree@@@8
data$r	SEGMENT
??_R0?AVInsufficientBufferException@Internal@Core@Math@Palmtree@@@8 DD FLAT:??_7type_info@@6B@ ; Palmtree::Math::Core::Internal::InsufficientBufferException `RTTI Type Descriptor'
	DD	00H
	DB	'.?AVInsufficientBufferException@Internal@Core@Math@Palmt'
	DB	'ree@@', 00H
data$r	ENDS
;	COMDAT __CTA2?AVInsufficientBufferException@Internal@Core@Math@Palmtree@@
xdata$x	SEGMENT
__CTA2?AVInsufficientBufferException@Internal@Core@Math@Palmtree@@ DD 02H
	DD	FLAT:__CT??_R0?AVInsufficientBufferException@Internal@Core@Math@Palmtree@@@8??0InsufficientBufferException@Internal@Core@Math@Palmtree@@QAE@ABV01234@@Z24
	DD	FLAT:__CT??_R0?AVException@Internal@Core@Math@Palmtree@@@8??0Exception@Internal@Core@Math@Palmtree@@QAE@ABV01234@@Z24
xdata$x	ENDS
;	COMDAT __TI2?AVInsufficientBufferException@Internal@Core@Math@Palmtree@@
xdata$x	SEGMENT
__TI2?AVInsufficientBufferException@Internal@Core@Math@Palmtree@@ DD 00H
	DD	FLAT:??1InsufficientBufferException@Internal@Core@Math@Palmtree@@UAE@XZ
	DD	00H
	DD	FLAT:__CTA2?AVInsufficientBufferException@Internal@Core@Math@Palmtree@@
xdata$x	ENDS
;	COMDAT __CT??_R0?AVArgumentNullException@Internal@Core@Math@Palmtree@@@8??0ArgumentNullException@Internal@Core@Math@Palmtree@@QAE@ABV01234@@Z24
xdata$x	SEGMENT
__CT??_R0?AVArgumentNullException@Internal@Core@Math@Palmtree@@@8??0ArgumentNullException@Internal@Core@Math@Palmtree@@QAE@ABV01234@@Z24 DD 00H
	DD	FLAT:??_R0?AVArgumentNullException@Internal@Core@Math@Palmtree@@@8
	DD	00H
	DD	0ffffffffH
	ORG $+4
	DD	018H
	DD	FLAT:??0ArgumentNullException@Internal@Core@Math@Palmtree@@QAE@ABV01234@@Z
xdata$x	ENDS
;	COMDAT ??_R0?AVArgumentNullException@Internal@Core@Math@Palmtree@@@8
data$r	SEGMENT
??_R0?AVArgumentNullException@Internal@Core@Math@Palmtree@@@8 DD FLAT:??_7type_info@@6B@ ; Palmtree::Math::Core::Internal::ArgumentNullException `RTTI Type Descriptor'
	DD	00H
	DB	'.?AVArgumentNullException@Internal@Core@Math@Palmtree@@', 00H
data$r	ENDS
;	COMDAT __CTA2?AVArgumentNullException@Internal@Core@Math@Palmtree@@
xdata$x	SEGMENT
__CTA2?AVArgumentNullException@Internal@Core@Math@Palmtree@@ DD 02H
	DD	FLAT:__CT??_R0?AVArgumentNullException@Internal@Core@Math@Palmtree@@@8??0ArgumentNullException@Internal@Core@Math@Palmtree@@QAE@ABV01234@@Z24
	DD	FLAT:__CT??_R0?AVException@Internal@Core@Math@Palmtree@@@8??0Exception@Internal@Core@Math@Palmtree@@QAE@ABV01234@@Z24
xdata$x	ENDS
;	COMDAT __TI2?AVArgumentNullException@Internal@Core@Math@Palmtree@@
xdata$x	SEGMENT
__TI2?AVArgumentNullException@Internal@Core@Math@Palmtree@@ DD 00H
	DD	FLAT:??1ArgumentNullException@Internal@Core@Math@Palmtree@@UAE@XZ
	DD	00H
	DD	FLAT:__CTA2?AVArgumentNullException@Internal@Core@Math@Palmtree@@
xdata$x	ENDS
;	COMDAT __CT??_R0?AVFormatException@Internal@Core@Math@Palmtree@@@8??0FormatException@Internal@Core@Math@Palmtree@@QAE@ABV01234@@Z24
xdata$x	SEGMENT
__CT??_R0?AVFormatException@Internal@Core@Math@Palmtree@@@8??0FormatException@Internal@Core@Math@Palmtree@@QAE@ABV01234@@Z24 DD 00H
	DD	FLAT:??_R0?AVFormatException@Internal@Core@Math@Palmtree@@@8
	DD	00H
	DD	0ffffffffH
	ORG $+4
	DD	018H
	DD	FLAT:??0FormatException@Internal@Core@Math@Palmtree@@QAE@ABV01234@@Z
xdata$x	ENDS
;	COMDAT ??_R0?AVFormatException@Internal@Core@Math@Palmtree@@@8
data$r	SEGMENT
??_R0?AVFormatException@Internal@Core@Math@Palmtree@@@8 DD FLAT:??_7type_info@@6B@ ; Palmtree::Math::Core::Internal::FormatException `RTTI Type Descriptor'
	DD	00H
	DB	'.?AVFormatException@Internal@Core@Math@Palmtree@@', 00H
data$r	ENDS
;	COMDAT __CTA2?AVFormatException@Internal@Core@Math@Palmtree@@
xdata$x	SEGMENT
__CTA2?AVFormatException@Internal@Core@Math@Palmtree@@ DD 02H
	DD	FLAT:__CT??_R0?AVFormatException@Internal@Core@Math@Palmtree@@@8??0FormatException@Internal@Core@Math@Palmtree@@QAE@ABV01234@@Z24
	DD	FLAT:__CT??_R0?AVException@Internal@Core@Math@Palmtree@@@8??0Exception@Internal@Core@Math@Palmtree@@QAE@ABV01234@@Z24
xdata$x	ENDS
;	COMDAT __TI2?AVFormatException@Internal@Core@Math@Palmtree@@
xdata$x	SEGMENT
__TI2?AVFormatException@Internal@Core@Math@Palmtree@@ DD 00H
	DD	FLAT:??1FormatException@Internal@Core@Math@Palmtree@@UAE@XZ
	DD	00H
	DD	FLAT:__CTA2?AVFormatException@Internal@Core@Math@Palmtree@@
xdata$x	ENDS
;	COMDAT __CT??_R0?AVException@Internal@Core@Math@Palmtree@@@8??0Exception@Internal@Core@Math@Palmtree@@QAE@ABV01234@@Z24
xdata$x	SEGMENT
__CT??_R0?AVException@Internal@Core@Math@Palmtree@@@8??0Exception@Internal@Core@Math@Palmtree@@QAE@ABV01234@@Z24 DD 00H
	DD	FLAT:??_R0?AVException@Internal@Core@Math@Palmtree@@@8
	DD	00H
	DD	0ffffffffH
	ORG $+4
	DD	018H
	DD	FLAT:??0Exception@Internal@Core@Math@Palmtree@@QAE@ABV01234@@Z
xdata$x	ENDS
;	COMDAT ??_R0?AVException@Internal@Core@Math@Palmtree@@@8
data$r	SEGMENT
??_R0?AVException@Internal@Core@Math@Palmtree@@@8 DD FLAT:??_7type_info@@6B@ ; Palmtree::Math::Core::Internal::Exception `RTTI Type Descriptor'
	DD	00H
	DB	'.?AVException@Internal@Core@Math@Palmtree@@', 00H
data$r	ENDS
;	COMDAT __CT??_R0?AVInternalErrorException@Internal@Core@Math@Palmtree@@@8??0InternalErrorException@Internal@Core@Math@Palmtree@@QAE@ABV01234@@Z24
xdata$x	SEGMENT
__CT??_R0?AVInternalErrorException@Internal@Core@Math@Palmtree@@@8??0InternalErrorException@Internal@Core@Math@Palmtree@@QAE@ABV01234@@Z24 DD 00H
	DD	FLAT:??_R0?AVInternalErrorException@Internal@Core@Math@Palmtree@@@8
	DD	00H
	DD	0ffffffffH
	ORG $+4
	DD	018H
	DD	FLAT:??0InternalErrorException@Internal@Core@Math@Palmtree@@QAE@ABV01234@@Z
xdata$x	ENDS
;	COMDAT ??_R0?AVInternalErrorException@Internal@Core@Math@Palmtree@@@8
data$r	SEGMENT
??_R0?AVInternalErrorException@Internal@Core@Math@Palmtree@@@8 DD FLAT:??_7type_info@@6B@ ; Palmtree::Math::Core::Internal::InternalErrorException `RTTI Type Descriptor'
	DD	00H
	DB	'.?AVInternalErrorException@Internal@Core@Math@Palmtree@@'
	DB	00H
data$r	ENDS
;	COMDAT __CTA2?AVInternalErrorException@Internal@Core@Math@Palmtree@@
xdata$x	SEGMENT
__CTA2?AVInternalErrorException@Internal@Core@Math@Palmtree@@ DD 02H
	DD	FLAT:__CT??_R0?AVInternalErrorException@Internal@Core@Math@Palmtree@@@8??0InternalErrorException@Internal@Core@Math@Palmtree@@QAE@ABV01234@@Z24
	DD	FLAT:__CT??_R0?AVException@Internal@Core@Math@Palmtree@@@8??0Exception@Internal@Core@Math@Palmtree@@QAE@ABV01234@@Z24
xdata$x	ENDS
;	COMDAT __TI2?AVInternalErrorException@Internal@Core@Math@Palmtree@@
xdata$x	SEGMENT
__TI2?AVInternalErrorException@Internal@Core@Math@Palmtree@@ DD 00H
	DD	FLAT:??1InternalErrorException@Internal@Core@Math@Palmtree@@UAE@XZ
	DD	00H
	DD	FLAT:__CTA2?AVInternalErrorException@Internal@Core@Math@Palmtree@@
xdata$x	ENDS
;	COMDAT ??_7InternalErrorException@Internal@Core@Math@Palmtree@@6B@
CONST	SEGMENT
??_7InternalErrorException@Internal@Core@Math@Palmtree@@6B@ DD FLAT:??_R4InternalErrorException@Internal@Core@Math@Palmtree@@6B@ ; Palmtree::Math::Core::Internal::InternalErrorException::`vftable'
	DD	FLAT:??_EInternalErrorException@Internal@Core@Math@Palmtree@@UAEPAXI@Z
	DD	FLAT:?what@exception@std@@UBEPBDXZ
CONST	ENDS
;	COMDAT ??_7InsufficientBufferException@Internal@Core@Math@Palmtree@@6B@
CONST	SEGMENT
??_7InsufficientBufferException@Internal@Core@Math@Palmtree@@6B@ DD FLAT:??_R4InsufficientBufferException@Internal@Core@Math@Palmtree@@6B@ ; Palmtree::Math::Core::Internal::InsufficientBufferException::`vftable'
	DD	FLAT:??_EInsufficientBufferException@Internal@Core@Math@Palmtree@@UAEPAXI@Z
	DD	FLAT:?what@exception@std@@UBEPBDXZ
CONST	ENDS
;	COMDAT ??_7FormatException@Internal@Core@Math@Palmtree@@6B@
CONST	SEGMENT
??_7FormatException@Internal@Core@Math@Palmtree@@6B@ DD FLAT:??_R4FormatException@Internal@Core@Math@Palmtree@@6B@ ; Palmtree::Math::Core::Internal::FormatException::`vftable'
	DD	FLAT:??_EFormatException@Internal@Core@Math@Palmtree@@UAEPAXI@Z
	DD	FLAT:?what@exception@std@@UBEPBDXZ
CONST	ENDS
;	COMDAT ??_7ArgumentNullException@Internal@Core@Math@Palmtree@@6B@
CONST	SEGMENT
??_7ArgumentNullException@Internal@Core@Math@Palmtree@@6B@ DD FLAT:??_R4ArgumentNullException@Internal@Core@Math@Palmtree@@6B@ ; Palmtree::Math::Core::Internal::ArgumentNullException::`vftable'
	DD	FLAT:??_EArgumentNullException@Internal@Core@Math@Palmtree@@UAEPAXI@Z
	DD	FLAT:?what@exception@std@@UBEPBDXZ
CONST	ENDS
;	COMDAT ??_7Exception@Internal@Core@Math@Palmtree@@6B@
CONST	SEGMENT
??_7Exception@Internal@Core@Math@Palmtree@@6B@ DD FLAT:??_R4Exception@Internal@Core@Math@Palmtree@@6B@ ; Palmtree::Math::Core::Internal::Exception::`vftable'
	DD	FLAT:??_EException@Internal@Core@Math@Palmtree@@UAEPAXI@Z
	DD	FLAT:?what@exception@std@@UBEPBDXZ
CONST	ENDS
;	COMDAT ??_C@_0BC@EOODALEL@Unknown?5exception@
CONST	SEGMENT
??_C@_0BC@EOODALEL@Unknown?5exception@ DB 'Unknown exception', 00H ; `string'
CONST	ENDS
;	COMDAT ??_7exception@std@@6B@
CONST	SEGMENT
??_7exception@std@@6B@ DD FLAT:??_R4exception@std@@6B@	; std::exception::`vftable'
	DD	FLAT:??_Eexception@std@@UAEPAXI@Z
	DD	FLAT:?what@exception@std@@UBEPBDXZ
CONST	ENDS
xdata$x	SEGMENT
__unwindtable$?PMC_FromByteArray_Imp@Internal@Core@Math@Palmtree@@YAPAU__tag_NUMBER_HEADER@1234@PBEI@Z DD 0ffffffffH
	DD	FLAT:__unwindfunclet$?PMC_FromByteArray_Imp@Internal@Core@Math@Palmtree@@YAPAU__tag_NUMBER_HEADER@1234@PBEI@Z$0
__unwindtable$?PMC_FromByteArrayForSINT_Imp@Internal@Core@Math@Palmtree@@YAPAU__tag_NUMBER_HEADER@1234@PAEIPAD@Z DD 0ffffffffH
	DD	FLAT:__unwindfunclet$?PMC_FromByteArrayForSINT_Imp@Internal@Core@Math@Palmtree@@YAPAU__tag_NUMBER_HEADER@1234@PAEIPAD@Z$0
__unwindtable$?PMC_FromByteArrayForSINT@Internal@Core@Math@Palmtree@@YGPAU__tag_PMC_HANDLE_UINT@1234@PAEIPAD@Z DD 0ffffffffH
	DD	FLAT:__unwindfunclet$?PMC_FromByteArrayForSINT@Internal@Core@Math@Palmtree@@YGPAU__tag_PMC_HANDLE_UINT@1234@PAEIPAD@Z$0
__unwindtable$?PMC_FromByteArray@Internal@Core@Math@Palmtree@@YGPAU__tag_PMC_HANDLE_UINT@1234@PBEI@Z DD 0ffffffffH
	DD	FLAT:__unwindfunclet$?PMC_FromByteArray@Internal@Core@Math@Palmtree@@YGPAU__tag_PMC_HANDLE_UINT@1234@PBEI@Z$0
__ehfuncinfo$?PMC_FromByteArray_Imp@Internal@Core@Math@Palmtree@@YAPAU__tag_NUMBER_HEADER@1234@PBEI@Z DD 019930522H
	DD	01H
	DD	FLAT:__unwindtable$?PMC_FromByteArray_Imp@Internal@Core@Math@Palmtree@@YAPAU__tag_NUMBER_HEADER@1234@PBEI@Z
	DD	2 DUP(00H)
	DD	2 DUP(00H)
	DD	00H
	DD	00H
__ehfuncinfo$?PMC_FromByteArrayForSINT_Imp@Internal@Core@Math@Palmtree@@YAPAU__tag_NUMBER_HEADER@1234@PAEIPAD@Z DD 019930522H
	DD	01H
	DD	FLAT:__unwindtable$?PMC_FromByteArrayForSINT_Imp@Internal@Core@Math@Palmtree@@YAPAU__tag_NUMBER_HEADER@1234@PAEIPAD@Z
	DD	2 DUP(00H)
	DD	2 DUP(00H)
	DD	00H
	DD	00H
__ehfuncinfo$?PMC_FromByteArrayForSINT@Internal@Core@Math@Palmtree@@YGPAU__tag_PMC_HANDLE_UINT@1234@PAEIPAD@Z DD 019930522H
	DD	01H
	DD	FLAT:__unwindtable$?PMC_FromByteArrayForSINT@Internal@Core@Math@Palmtree@@YGPAU__tag_PMC_HANDLE_UINT@1234@PAEIPAD@Z
	DD	2 DUP(00H)
	DD	2 DUP(00H)
	DD	00H
	DD	00H
__ehfuncinfo$?PMC_FromByteArray@Internal@Core@Math@Palmtree@@YGPAU__tag_PMC_HANDLE_UINT@1234@PBEI@Z DD 019930522H
	DD	01H
	DD	FLAT:__unwindtable$?PMC_FromByteArray@Internal@Core@Math@Palmtree@@YGPAU__tag_PMC_HANDLE_UINT@1234@PBEI@Z
	DD	2 DUP(00H)
	DD	2 DUP(00H)
	DD	00H
	DD	00H
xdata$x	ENDS
;	COMDAT xdata$x
xdata$x	SEGMENT
__unwindtable$??1InternalErrorException@Internal@Core@Math@Palmtree@@UAE@XZ DD 0ffffffffH
	DD	FLAT:__unwindfunclet$??1InternalErrorException@Internal@Core@Math@Palmtree@@UAE@XZ$0
__ehfuncinfo$??1InternalErrorException@Internal@Core@Math@Palmtree@@UAE@XZ DD 019930522H
	DD	01H
	DD	FLAT:__unwindtable$??1InternalErrorException@Internal@Core@Math@Palmtree@@UAE@XZ
	DD	2 DUP(00H)
	DD	2 DUP(00H)
	DD	00H
	DD	04H
xdata$x	ENDS
;	COMDAT xdata$x
xdata$x	SEGMENT
__unwindtable$??0InternalErrorException@Internal@Core@Math@Palmtree@@QAE@ABV01234@@Z DD 0ffffffffH
	DD	FLAT:__unwindfunclet$??0InternalErrorException@Internal@Core@Math@Palmtree@@QAE@ABV01234@@Z$0
__ehfuncinfo$??0InternalErrorException@Internal@Core@Math@Palmtree@@QAE@ABV01234@@Z DD 019930522H
	DD	01H
	DD	FLAT:__unwindtable$??0InternalErrorException@Internal@Core@Math@Palmtree@@QAE@ABV01234@@Z
	DD	2 DUP(00H)
	DD	2 DUP(00H)
	DD	00H
	DD	04H
xdata$x	ENDS
;	COMDAT xdata$x
xdata$x	SEGMENT
__unwindtable$??0InternalErrorException@Internal@Core@Math@Palmtree@@QAE@PB_W0@Z DD 0ffffffffH
	DD	FLAT:__unwindfunclet$??0InternalErrorException@Internal@Core@Math@Palmtree@@QAE@PB_W0@Z$0
__ehfuncinfo$??0InternalErrorException@Internal@Core@Math@Palmtree@@QAE@PB_W0@Z DD 019930522H
	DD	01H
	DD	FLAT:__unwindtable$??0InternalErrorException@Internal@Core@Math@Palmtree@@QAE@PB_W0@Z
	DD	2 DUP(00H)
	DD	2 DUP(00H)
	DD	00H
	DD	04H
xdata$x	ENDS
;	COMDAT xdata$x
xdata$x	SEGMENT
__unwindtable$??1InsufficientBufferException@Internal@Core@Math@Palmtree@@UAE@XZ DD 0ffffffffH
	DD	FLAT:__unwindfunclet$??1InsufficientBufferException@Internal@Core@Math@Palmtree@@UAE@XZ$0
__ehfuncinfo$??1InsufficientBufferException@Internal@Core@Math@Palmtree@@UAE@XZ DD 019930522H
	DD	01H
	DD	FLAT:__unwindtable$??1InsufficientBufferException@Internal@Core@Math@Palmtree@@UAE@XZ
	DD	2 DUP(00H)
	DD	2 DUP(00H)
	DD	00H
	DD	04H
xdata$x	ENDS
;	COMDAT xdata$x
xdata$x	SEGMENT
__unwindtable$??0InsufficientBufferException@Internal@Core@Math@Palmtree@@QAE@ABV01234@@Z DD 0ffffffffH
	DD	FLAT:__unwindfunclet$??0InsufficientBufferException@Internal@Core@Math@Palmtree@@QAE@ABV01234@@Z$0
__ehfuncinfo$??0InsufficientBufferException@Internal@Core@Math@Palmtree@@QAE@ABV01234@@Z DD 019930522H
	DD	01H
	DD	FLAT:__unwindtable$??0InsufficientBufferException@Internal@Core@Math@Palmtree@@QAE@ABV01234@@Z
	DD	2 DUP(00H)
	DD	2 DUP(00H)
	DD	00H
	DD	04H
xdata$x	ENDS
;	COMDAT xdata$x
xdata$x	SEGMENT
__unwindtable$??0InsufficientBufferException@Internal@Core@Math@Palmtree@@QAE@PB_W@Z DD 0ffffffffH
	DD	FLAT:__unwindfunclet$??0InsufficientBufferException@Internal@Core@Math@Palmtree@@QAE@PB_W@Z$0
__ehfuncinfo$??0InsufficientBufferException@Internal@Core@Math@Palmtree@@QAE@PB_W@Z DD 019930522H
	DD	01H
	DD	FLAT:__unwindtable$??0InsufficientBufferException@Internal@Core@Math@Palmtree@@QAE@PB_W@Z
	DD	2 DUP(00H)
	DD	2 DUP(00H)
	DD	00H
	DD	00H
xdata$x	ENDS
;	COMDAT xdata$x
xdata$x	SEGMENT
__unwindtable$??1FormatException@Internal@Core@Math@Palmtree@@UAE@XZ DD 0ffffffffH
	DD	FLAT:__unwindfunclet$??1FormatException@Internal@Core@Math@Palmtree@@UAE@XZ$0
__ehfuncinfo$??1FormatException@Internal@Core@Math@Palmtree@@UAE@XZ DD 019930522H
	DD	01H
	DD	FLAT:__unwindtable$??1FormatException@Internal@Core@Math@Palmtree@@UAE@XZ
	DD	2 DUP(00H)
	DD	2 DUP(00H)
	DD	00H
	DD	04H
xdata$x	ENDS
;	COMDAT xdata$x
xdata$x	SEGMENT
__unwindtable$??0FormatException@Internal@Core@Math@Palmtree@@QAE@ABV01234@@Z DD 0ffffffffH
	DD	FLAT:__unwindfunclet$??0FormatException@Internal@Core@Math@Palmtree@@QAE@ABV01234@@Z$0
__ehfuncinfo$??0FormatException@Internal@Core@Math@Palmtree@@QAE@ABV01234@@Z DD 019930522H
	DD	01H
	DD	FLAT:__unwindtable$??0FormatException@Internal@Core@Math@Palmtree@@QAE@ABV01234@@Z
	DD	2 DUP(00H)
	DD	2 DUP(00H)
	DD	00H
	DD	04H
xdata$x	ENDS
;	COMDAT xdata$x
xdata$x	SEGMENT
__unwindtable$??0FormatException@Internal@Core@Math@Palmtree@@QAE@PB_W@Z DD 0ffffffffH
	DD	FLAT:__unwindfunclet$??0FormatException@Internal@Core@Math@Palmtree@@QAE@PB_W@Z$0
__ehfuncinfo$??0FormatException@Internal@Core@Math@Palmtree@@QAE@PB_W@Z DD 019930522H
	DD	01H
	DD	FLAT:__unwindtable$??0FormatException@Internal@Core@Math@Palmtree@@QAE@PB_W@Z
	DD	2 DUP(00H)
	DD	2 DUP(00H)
	DD	00H
	DD	04H
xdata$x	ENDS
;	COMDAT xdata$x
xdata$x	SEGMENT
__unwindtable$??1ArgumentNullException@Internal@Core@Math@Palmtree@@UAE@XZ DD 0ffffffffH
	DD	FLAT:__unwindfunclet$??1ArgumentNullException@Internal@Core@Math@Palmtree@@UAE@XZ$0
__ehfuncinfo$??1ArgumentNullException@Internal@Core@Math@Palmtree@@UAE@XZ DD 019930522H
	DD	01H
	DD	FLAT:__unwindtable$??1ArgumentNullException@Internal@Core@Math@Palmtree@@UAE@XZ
	DD	2 DUP(00H)
	DD	2 DUP(00H)
	DD	00H
	DD	04H
xdata$x	ENDS
;	COMDAT xdata$x
xdata$x	SEGMENT
__unwindtable$??0ArgumentNullException@Internal@Core@Math@Palmtree@@QAE@ABV01234@@Z DD 0ffffffffH
	DD	FLAT:__unwindfunclet$??0ArgumentNullException@Internal@Core@Math@Palmtree@@QAE@ABV01234@@Z$0
__ehfuncinfo$??0ArgumentNullException@Internal@Core@Math@Palmtree@@QAE@ABV01234@@Z DD 019930522H
	DD	01H
	DD	FLAT:__unwindtable$??0ArgumentNullException@Internal@Core@Math@Palmtree@@QAE@ABV01234@@Z
	DD	2 DUP(00H)
	DD	2 DUP(00H)
	DD	00H
	DD	04H
xdata$x	ENDS
;	COMDAT xdata$x
xdata$x	SEGMENT
__unwindtable$??0ArgumentNullException@Internal@Core@Math@Palmtree@@QAE@PB_W0@Z DD 0ffffffffH
	DD	FLAT:__unwindfunclet$??0ArgumentNullException@Internal@Core@Math@Palmtree@@QAE@PB_W0@Z$0
__ehfuncinfo$??0ArgumentNullException@Internal@Core@Math@Palmtree@@QAE@PB_W0@Z DD 019930522H
	DD	01H
	DD	FLAT:__unwindtable$??0ArgumentNullException@Internal@Core@Math@Palmtree@@QAE@PB_W0@Z
	DD	2 DUP(00H)
	DD	2 DUP(00H)
	DD	00H
	DD	04H
xdata$x	ENDS
;	COMDAT xdata$x
xdata$x	SEGMENT
__unwindtable$??1Exception@Internal@Core@Math@Palmtree@@UAE@XZ DD 0ffffffffH
	DD	FLAT:__unwindfunclet$??1Exception@Internal@Core@Math@Palmtree@@UAE@XZ$0
__ehfuncinfo$??1Exception@Internal@Core@Math@Palmtree@@UAE@XZ DD 019930522H
	DD	01H
	DD	FLAT:__unwindtable$??1Exception@Internal@Core@Math@Palmtree@@UAE@XZ
	DD	2 DUP(00H)
	DD	2 DUP(00H)
	DD	00H
	DD	04H
xdata$x	ENDS
;	COMDAT xdata$x
xdata$x	SEGMENT
__unwindtable$??0Exception@Internal@Core@Math@Palmtree@@QAE@ABV01234@@Z DD 0ffffffffH
	DD	FLAT:__unwindfunclet$??0Exception@Internal@Core@Math@Palmtree@@QAE@ABV01234@@Z$0
__ehfuncinfo$??0Exception@Internal@Core@Math@Palmtree@@QAE@ABV01234@@Z DD 019930522H
	DD	01H
	DD	FLAT:__unwindtable$??0Exception@Internal@Core@Math@Palmtree@@QAE@ABV01234@@Z
	DD	2 DUP(00H)
	DD	2 DUP(00H)
	DD	00H
	DD	04H
xdata$x	ENDS
;	COMDAT xdata$x
xdata$x	SEGMENT
__unwindtable$??0Exception@Internal@Core@Math@Palmtree@@IAE@HPB_W0@Z DD 0ffffffffH
	DD	FLAT:__unwindfunclet$??0Exception@Internal@Core@Math@Palmtree@@IAE@HPB_W0@Z$0
__ehfuncinfo$??0Exception@Internal@Core@Math@Palmtree@@IAE@HPB_W0@Z DD 019930522H
	DD	01H
	DD	FLAT:__unwindtable$??0Exception@Internal@Core@Math@Palmtree@@IAE@HPB_W0@Z
	DD	2 DUP(00H)
	DD	2 DUP(00H)
	DD	00H
	DD	04H
xdata$x	ENDS
;	COMDAT xdata$x
xdata$x	SEGMENT
__unwindtable$??0Exception@Internal@Core@Math@Palmtree@@IAE@HPB_W@Z DD 0ffffffffH
	DD	FLAT:__unwindfunclet$??0Exception@Internal@Core@Math@Palmtree@@IAE@HPB_W@Z$0
__ehfuncinfo$??0Exception@Internal@Core@Math@Palmtree@@IAE@HPB_W@Z DD 019930522H
	DD	01H
	DD	FLAT:__unwindtable$??0Exception@Internal@Core@Math@Palmtree@@IAE@HPB_W@Z
	DD	2 DUP(00H)
	DD	2 DUP(00H)
	DD	00H
	DD	04H
xdata$x	ENDS
;	COMDAT xdata$x
xdata$x	SEGMENT
__ehfuncinfo$??1exception@std@@UAE@XZ DD 019930522H
	DD	00H
	DD	00H
	DD	2 DUP(00H)
	DD	2 DUP(00H)
	DD	00H
	DD	04H
xdata$x	ENDS
;	COMDAT xdata$x
xdata$x	SEGMENT
__ehfuncinfo$??0exception@std@@QAE@XZ DD 019930522H
	DD	00H
	DD	00H
	DD	2 DUP(00H)
	DD	2 DUP(00H)
	DD	00H
	DD	04H
xdata$x	ENDS
; Function compile flags: /Odt
;	COMDAT __JustMyCode_Default
_TEXT	SEGMENT
__JustMyCode_Default PROC				; COMDAT
  00000	55		 push	 ebp
  00001	8b ec		 mov	 ebp, esp
  00003	5d		 pop	 ebp
  00004	c3		 ret	 0
__JustMyCode_Default ENDP
_TEXT	ENDS
; Function compile flags: /Odtp /RTCsu
; File z:\sources\lunor\repos\rougemeilland\palmtree.math.core.uint\palmtree.math.core.uint\pmc_bytes.cpp
_TEXT	SEGMENT
tv145 = -156						; size = 4
tv147 = -152						; size = 4
$T2 = -148						; size = 24
$T3 = -124						; size = 4
$T4 = -120						; size = 24
$T5 = -96						; size = 24
$T6 = -72						; size = 24
_o$7 = -48						; size = 4
_root$8 = -40						; size = 16
_bit_count$9 = -20					; size = 4
_header_reserved$ = -15					; size = 1
_sign$ = -14						; size = 1
_header$ = -13						; size = 1
__$EHRec$ = -12						; size = 12
_buffer$ = 8						; size = 4
_count$ = 12						; size = 4
?PMC_FromByteArray_Imp@Internal@Core@Math@Palmtree@@YAPAU__tag_NUMBER_HEADER@1234@PBEI@Z PROC ; Palmtree::Math::Core::Internal::PMC_FromByteArray_Imp

; 106  :     {

  00000	55		 push	 ebp
  00001	8b ec		 mov	 ebp, esp
  00003	6a ff		 push	 -1
  00005	68 00 00 00 00	 push	 __ehhandler$?PMC_FromByteArray_Imp@Internal@Core@Math@Palmtree@@YAPAU__tag_NUMBER_HEADER@1234@PBEI@Z
  0000a	64 a1 00 00 00
	00		 mov	 eax, DWORD PTR fs:0
  00010	50		 push	 eax
  00011	81 ec 90 00 00
	00		 sub	 esp, 144		; 00000090H
  00017	57		 push	 edi
  00018	8d bd 64 ff ff
	ff		 lea	 edi, DWORD PTR [ebp-156]
  0001e	b9 24 00 00 00	 mov	 ecx, 36			; 00000024H
  00023	b8 cc cc cc cc	 mov	 eax, -858993460		; ccccccccH
  00028	f3 ab		 rep stosd
  0002a	a1 00 00 00 00	 mov	 eax, DWORD PTR ___security_cookie
  0002f	33 c5		 xor	 eax, ebp
  00031	50		 push	 eax
  00032	8d 45 f4	 lea	 eax, DWORD PTR __$EHRec$[ebp]
  00035	64 a3 00 00 00
	00		 mov	 DWORD PTR fs:0, eax
  0003b	b9 00 00 00 00	 mov	 ecx, OFFSET __85CE5060_pmc_bytes@cpp
  00040	e8 00 00 00 00	 call	 @__CheckForDebuggerJustMyCode@4

; 107  :         if (count < 1)

  00045	83 7d 0c 01	 cmp	 DWORD PTR _count$[ebp], 1
  00049	73 1b		 jae	 SHORT $LN2@PMC_FromBy

; 108  :             throw FormatException(L"");

  0004b	68 00 00 00 00	 push	 OFFSET $SG117957
  00050	8d 4d b8	 lea	 ecx, DWORD PTR $T6[ebp]
  00053	e8 00 00 00 00	 call	 ??0FormatException@Internal@Core@Math@Palmtree@@QAE@PB_W@Z ; Palmtree::Math::Core::Internal::FormatException::FormatException
  00058	68 00 00 00 00	 push	 OFFSET __TI2?AVFormatException@Internal@Core@Math@Palmtree@@
  0005d	8d 45 b8	 lea	 eax, DWORD PTR $T6[ebp]
  00060	50		 push	 eax
  00061	e8 00 00 00 00	 call	 __CxxThrowException@8
$LN2@PMC_FromBy:

; 109  :         unsigned char header = buffer[0];

  00066	b9 01 00 00 00	 mov	 ecx, 1
  0006b	6b d1 00	 imul	 edx, ecx, 0
  0006e	8b 45 08	 mov	 eax, DWORD PTR _buffer$[ebp]
  00071	8a 0c 10	 mov	 cl, BYTE PTR [eax+edx]
  00074	88 4d f3	 mov	 BYTE PTR _header$[ebp], cl

; 110  :         unsigned char sign = header & 0x03;

  00077	0f b6 55 f3	 movzx	 edx, BYTE PTR _header$[ebp]
  0007b	83 e2 03	 and	 edx, 3
  0007e	88 55 f2	 mov	 BYTE PTR _sign$[ebp], dl

; 111  :         unsigned char header_reserved = header & 0xfc;

  00081	0f b6 45 f3	 movzx	 eax, BYTE PTR _header$[ebp]
  00085	25 fc 00 00 00	 and	 eax, 252		; 000000fcH
  0008a	88 45 f1	 mov	 BYTE PTR _header_reserved$[ebp], al

; 112  :         if (header_reserved != 0)

  0008d	0f b6 4d f1	 movzx	 ecx, BYTE PTR _header_reserved$[ebp]
  00091	85 c9		 test	 ecx, ecx
  00093	74 1b		 je	 SHORT $LN3@PMC_FromBy

; 113  :             throw FormatException(L"");

  00095	68 00 00 00 00	 push	 OFFSET $SG117960
  0009a	8d 4d a0	 lea	 ecx, DWORD PTR $T5[ebp]
  0009d	e8 00 00 00 00	 call	 ??0FormatException@Internal@Core@Math@Palmtree@@QAE@PB_W@Z ; Palmtree::Math::Core::Internal::FormatException::FormatException
  000a2	68 00 00 00 00	 push	 OFFSET __TI2?AVFormatException@Internal@Core@Math@Palmtree@@
  000a7	8d 55 a0	 lea	 edx, DWORD PTR $T5[ebp]
  000aa	52		 push	 edx
  000ab	e8 00 00 00 00	 call	 __CxxThrowException@8
$LN3@PMC_FromBy:

; 114  :         if (sign == 0)

  000b0	0f b6 45 f2	 movzx	 eax, BYTE PTR _sign$[ebp]
  000b4	85 c0		 test	 eax, eax
  000b6	75 30		 jne	 SHORT $LN4@PMC_FromBy

; 115  :         {
; 116  :             if (count != 1)

  000b8	83 7d 0c 01	 cmp	 DWORD PTR _count$[ebp], 1
  000bc	74 1b		 je	 SHORT $LN6@PMC_FromBy

; 117  :                 throw FormatException(L"");

  000be	68 00 00 00 00	 push	 OFFSET $SG117965
  000c3	8d 4d 88	 lea	 ecx, DWORD PTR $T4[ebp]
  000c6	e8 00 00 00 00	 call	 ??0FormatException@Internal@Core@Math@Palmtree@@QAE@PB_W@Z ; Palmtree::Math::Core::Internal::FormatException::FormatException
  000cb	68 00 00 00 00	 push	 OFFSET __TI2?AVFormatException@Internal@Core@Math@Palmtree@@
  000d0	8d 4d 88	 lea	 ecx, DWORD PTR $T4[ebp]
  000d3	51		 push	 ecx
  000d4	e8 00 00 00 00	 call	 __CxxThrowException@8
$LN6@PMC_FromBy:

; 118  :             return (&number_zero);

  000d9	b8 00 00 00 00	 mov	 eax, OFFSET ?number_zero@Internal@Core@Math@Palmtree@@3U__tag_NUMBER_HEADER@1234@A ; Palmtree::Math::Core::Internal::number_zero
  000de	e9 f0 00 00 00	 jmp	 $LN11@PMC_FromBy
  000e3	e9 eb 00 00 00	 jmp	 $LN11@PMC_FromBy
$LN4@PMC_FromBy:

; 119  :         }
; 120  :         else if (sign == 1)

  000e8	0f b6 55 f2	 movzx	 edx, BYTE PTR _sign$[ebp]
  000ec	83 fa 01	 cmp	 edx, 1
  000ef	0f 85 bd 00 00
	00		 jne	 $LN7@PMC_FromBy

; 121  :         {
; 122  :             __UNIT_TYPE bit_count = CountActualBitsFromBuffer(buffer + 1, count - 1);

  000f5	8b 45 0c	 mov	 eax, DWORD PTR _count$[ebp]
  000f8	83 e8 01	 sub	 eax, 1
  000fb	50		 push	 eax
  000fc	8b 4d 08	 mov	 ecx, DWORD PTR _buffer$[ebp]
  000ff	83 c1 01	 add	 ecx, 1
  00102	51		 push	 ecx
  00103	e8 00 00 00 00	 call	 ?CountActualBitsFromBuffer@Internal@Core@Math@Palmtree@@YAIPBEI@Z ; Palmtree::Math::Core::Internal::CountActualBitsFromBuffer
  00108	83 c4 08	 add	 esp, 8
  0010b	89 45 ec	 mov	 DWORD PTR _bit_count$9[ebp], eax

; 123  :             if (bit_count == 0)

  0010e	83 7d ec 00	 cmp	 DWORD PTR _bit_count$9[ebp], 0
  00112	75 0f		 jne	 SHORT $LN9@PMC_FromBy

; 124  :                 return (&number_zero);

  00114	b8 00 00 00 00	 mov	 eax, OFFSET ?number_zero@Internal@Core@Math@Palmtree@@3U__tag_NUMBER_HEADER@1234@A ; Palmtree::Math::Core::Internal::number_zero
  00119	e9 b5 00 00 00	 jmp	 $LN11@PMC_FromBy

; 125  :             else

  0011e	e9 8d 00 00 00	 jmp	 $LN10@PMC_FromBy
$LN9@PMC_FromBy:

; 126  :             {
; 127  :                 ResourceHolderUINT root;

  00123	8d 4d d8	 lea	 ecx, DWORD PTR _root$8[ebp]
  00126	e8 00 00 00 00	 call	 ??0ResourceHolderUINT@Internal@Core@Math@Palmtree@@QAE@XZ ; Palmtree::Math::Core::Internal::ResourceHolderUINT::ResourceHolderUINT
  0012b	c7 45 fc 00 00
	00 00		 mov	 DWORD PTR __$EHRec$[ebp+8], 0

; 128  :                 NUMBER_HEADER* o = root.AllocateNumber(bit_count);

  00132	8b 55 ec	 mov	 edx, DWORD PTR _bit_count$9[ebp]
  00135	52		 push	 edx
  00136	8d 4d d8	 lea	 ecx, DWORD PTR _root$8[ebp]
  00139	e8 00 00 00 00	 call	 ?AllocateNumber@ResourceHolderUINT@Internal@Core@Math@Palmtree@@QAEPAU__tag_NUMBER_HEADER@2345@I@Z ; Palmtree::Math::Core::Internal::ResourceHolderUINT::AllocateNumber
  0013e	89 45 d0	 mov	 DWORD PTR _o$7[ebp], eax

; 129  :                 _COPY_MEMORY_BYTE(o->BLOCK, buffer + 1, _DIVIDE_CEILING_SIZE(bit_count, 8));

  00141	6a 08		 push	 8
  00143	8b 45 ec	 mov	 eax, DWORD PTR _bit_count$9[ebp]
  00146	50		 push	 eax
  00147	e8 00 00 00 00	 call	 __DIVIDE_CEILING_SIZE
  0014c	83 c4 08	 add	 esp, 8
  0014f	89 85 68 ff ff
	ff		 mov	 DWORD PTR tv147[ebp], eax
  00155	8b 4d d0	 mov	 ecx, DWORD PTR _o$7[ebp]
  00158	8b 51 24	 mov	 edx, DWORD PTR [ecx+36]
  0015b	89 95 64 ff ff
	ff		 mov	 DWORD PTR tv145[ebp], edx
  00161	8b 85 68 ff ff
	ff		 mov	 eax, DWORD PTR tv147[ebp]
  00167	50		 push	 eax
  00168	8b 4d 08	 mov	 ecx, DWORD PTR _buffer$[ebp]
  0016b	83 c1 01	 add	 ecx, 1
  0016e	51		 push	 ecx
  0016f	8b 95 64 ff ff
	ff		 mov	 edx, DWORD PTR tv145[ebp]
  00175	52		 push	 edx
  00176	e8 00 00 00 00	 call	 __COPY_MEMORY_BYTE
  0017b	83 c4 0c	 add	 esp, 12			; 0000000cH

; 130  :                 CommitNumber(o);

  0017e	8b 45 d0	 mov	 eax, DWORD PTR _o$7[ebp]
  00181	50		 push	 eax
  00182	e8 00 00 00 00	 call	 ?CommitNumber@Internal@Core@Math@Palmtree@@YAXPAU__tag_NUMBER_HEADER@1234@@Z ; Palmtree::Math::Core::Internal::CommitNumber
  00187	83 c4 04	 add	 esp, 4

; 131  :                 root.UnlinkNumber(o);

  0018a	8b 4d d0	 mov	 ecx, DWORD PTR _o$7[ebp]
  0018d	51		 push	 ecx
  0018e	8d 4d d8	 lea	 ecx, DWORD PTR _root$8[ebp]
  00191	e8 00 00 00 00	 call	 ?UnlinkNumber@ResourceHolderUINT@Internal@Core@Math@Palmtree@@QAEXPAU__tag_NUMBER_HEADER@2345@@Z ; Palmtree::Math::Core::Internal::ResourceHolderUINT::UnlinkNumber

; 132  :                 return (o);

  00196	8b 55 d0	 mov	 edx, DWORD PTR _o$7[ebp]
  00199	89 55 84	 mov	 DWORD PTR $T3[ebp], edx
  0019c	c7 45 fc ff ff
	ff ff		 mov	 DWORD PTR __$EHRec$[ebp+8], -1
  001a3	8d 4d d8	 lea	 ecx, DWORD PTR _root$8[ebp]
  001a6	e8 00 00 00 00	 call	 ??1ResourceHolderUINT@Internal@Core@Math@Palmtree@@UAE@XZ ; Palmtree::Math::Core::Internal::ResourceHolderUINT::~ResourceHolderUINT
  001ab	8b 45 84	 mov	 eax, DWORD PTR $T3[ebp]
  001ae	eb 23		 jmp	 SHORT $LN11@PMC_FromBy
$LN10@PMC_FromBy:

; 133  :             }
; 134  :         }
; 135  :         else

  001b0	eb 21		 jmp	 SHORT $LN11@PMC_FromBy
$LN7@PMC_FromBy:

; 136  :             throw FormatException(L"");

  001b2	68 00 00 00 00	 push	 OFFSET $SG117972
  001b7	8d 8d 6c ff ff
	ff		 lea	 ecx, DWORD PTR $T2[ebp]
  001bd	e8 00 00 00 00	 call	 ??0FormatException@Internal@Core@Math@Palmtree@@QAE@PB_W@Z ; Palmtree::Math::Core::Internal::FormatException::FormatException
  001c2	68 00 00 00 00	 push	 OFFSET __TI2?AVFormatException@Internal@Core@Math@Palmtree@@
  001c7	8d 85 6c ff ff
	ff		 lea	 eax, DWORD PTR $T2[ebp]
  001cd	50		 push	 eax
  001ce	e8 00 00 00 00	 call	 __CxxThrowException@8
$LN11@PMC_FromBy:

; 137  :     }

  001d3	52		 push	 edx
  001d4	8b cd		 mov	 ecx, ebp
  001d6	50		 push	 eax
  001d7	8d 15 00 00 00
	00		 lea	 edx, DWORD PTR $LN16@PMC_FromBy
  001dd	e8 00 00 00 00	 call	 @_RTC_CheckStackVars@8
  001e2	58		 pop	 eax
  001e3	5a		 pop	 edx
  001e4	8b 4d f4	 mov	 ecx, DWORD PTR __$EHRec$[ebp]
  001e7	64 89 0d 00 00
	00 00		 mov	 DWORD PTR fs:0, ecx
  001ee	59		 pop	 ecx
  001ef	5f		 pop	 edi
  001f0	81 c4 9c 00 00
	00		 add	 esp, 156		; 0000009cH
  001f6	3b ec		 cmp	 ebp, esp
  001f8	e8 00 00 00 00	 call	 __RTC_CheckEsp
  001fd	8b e5		 mov	 esp, ebp
  001ff	5d		 pop	 ebp
  00200	c3		 ret	 0
  00201	0f 1f 00	 npad	 3
$LN16@PMC_FromBy:
  00204	01 00 00 00	 DD	 1
  00208	00 00 00 00	 DD	 $LN15@PMC_FromBy
$LN15@PMC_FromBy:
  0020c	d8 ff ff ff	 DD	 -40			; ffffffd8H
  00210	10 00 00 00	 DD	 16			; 00000010H
  00214	00 00 00 00	 DD	 $LN13@PMC_FromBy
$LN13@PMC_FromBy:
  00218	72		 DB	 114			; 00000072H
  00219	6f		 DB	 111			; 0000006fH
  0021a	6f		 DB	 111			; 0000006fH
  0021b	74		 DB	 116			; 00000074H
  0021c	00		 DB	 0
_TEXT	ENDS
text$x	SEGMENT
__unwindfunclet$?PMC_FromByteArray_Imp@Internal@Core@Math@Palmtree@@YAPAU__tag_NUMBER_HEADER@1234@PBEI@Z$0:
  00000	8d 4d d8	 lea	 ecx, DWORD PTR _root$8[ebp]
  00003	e9 00 00 00 00	 jmp	 ??1ResourceHolderUINT@Internal@Core@Math@Palmtree@@UAE@XZ ; Palmtree::Math::Core::Internal::ResourceHolderUINT::~ResourceHolderUINT
__ehhandler$?PMC_FromByteArray_Imp@Internal@Core@Math@Palmtree@@YAPAU__tag_NUMBER_HEADER@1234@PBEI@Z:
  00008	8b 54 24 08	 mov	 edx, DWORD PTR [esp+8]
  0000c	8d 42 0c	 lea	 eax, DWORD PTR [edx+12]
  0000f	8b 8a 68 ff ff
	ff		 mov	 ecx, DWORD PTR [edx-152]
  00015	33 c8		 xor	 ecx, eax
  00017	e8 00 00 00 00	 call	 @__security_check_cookie@4
  0001c	b8 00 00 00 00	 mov	 eax, OFFSET __ehfuncinfo$?PMC_FromByteArray_Imp@Internal@Core@Math@Palmtree@@YAPAU__tag_NUMBER_HEADER@1234@PBEI@Z
  00021	e9 00 00 00 00	 jmp	 ___CxxFrameHandler3
text$x	ENDS
?PMC_FromByteArray_Imp@Internal@Core@Math@Palmtree@@YAPAU__tag_NUMBER_HEADER@1234@PBEI@Z ENDP ; Palmtree::Math::Core::Internal::PMC_FromByteArray_Imp
; Function compile flags: /Odtp /RTCsu
; File z:\sources\lunor\repos\rougemeilland\palmtree.math.core.uint\palmtree.math.core.uint\pmc_bytes.cpp
_TEXT	SEGMENT
tv155 = -160						; size = 4
tv149 = -156						; size = 4
tv151 = -152						; size = 4
$T2 = -148						; size = 4
$T3 = -144						; size = 24
$T4 = -120						; size = 24
$T5 = -96						; size = 24
$T6 = -72						; size = 24
_o_abs$7 = -48						; size = 4
_root$8 = -40						; size = 16
_bit_count$9 = -20					; size = 4
_header_reserved$ = -15					; size = 1
_sign$ = -14						; size = 1
_header$ = -13						; size = 1
__$EHRec$ = -12						; size = 12
_buffer$ = 8						; size = 4
_count$ = 12						; size = 4
_o_sign$ = 16						; size = 4
?PMC_FromByteArrayForSINT_Imp@Internal@Core@Math@Palmtree@@YAPAU__tag_NUMBER_HEADER@1234@PAEIPAD@Z PROC ; Palmtree::Math::Core::Internal::PMC_FromByteArrayForSINT_Imp

; 51   :     {

  00000	55		 push	 ebp
  00001	8b ec		 mov	 ebp, esp
  00003	6a ff		 push	 -1
  00005	68 00 00 00 00	 push	 __ehhandler$?PMC_FromByteArrayForSINT_Imp@Internal@Core@Math@Palmtree@@YAPAU__tag_NUMBER_HEADER@1234@PAEIPAD@Z
  0000a	64 a1 00 00 00
	00		 mov	 eax, DWORD PTR fs:0
  00010	50		 push	 eax
  00011	81 ec 94 00 00
	00		 sub	 esp, 148		; 00000094H
  00017	57		 push	 edi
  00018	8d bd 60 ff ff
	ff		 lea	 edi, DWORD PTR [ebp-160]
  0001e	b9 25 00 00 00	 mov	 ecx, 37			; 00000025H
  00023	b8 cc cc cc cc	 mov	 eax, -858993460		; ccccccccH
  00028	f3 ab		 rep stosd
  0002a	a1 00 00 00 00	 mov	 eax, DWORD PTR ___security_cookie
  0002f	33 c5		 xor	 eax, ebp
  00031	50		 push	 eax
  00032	8d 45 f4	 lea	 eax, DWORD PTR __$EHRec$[ebp]
  00035	64 a3 00 00 00
	00		 mov	 DWORD PTR fs:0, eax
  0003b	b9 00 00 00 00	 mov	 ecx, OFFSET __85CE5060_pmc_bytes@cpp
  00040	e8 00 00 00 00	 call	 @__CheckForDebuggerJustMyCode@4

; 52   :         if (count < 1)

  00045	83 7d 0c 01	 cmp	 DWORD PTR _count$[ebp], 1
  00049	73 1b		 jae	 SHORT $LN2@PMC_FromBy

; 53   :             throw FormatException(L"");

  0004b	68 00 00 00 00	 push	 OFFSET $SG117908
  00050	8d 4d b8	 lea	 ecx, DWORD PTR $T6[ebp]
  00053	e8 00 00 00 00	 call	 ??0FormatException@Internal@Core@Math@Palmtree@@QAE@PB_W@Z ; Palmtree::Math::Core::Internal::FormatException::FormatException
  00058	68 00 00 00 00	 push	 OFFSET __TI2?AVFormatException@Internal@Core@Math@Palmtree@@
  0005d	8d 45 b8	 lea	 eax, DWORD PTR $T6[ebp]
  00060	50		 push	 eax
  00061	e8 00 00 00 00	 call	 __CxxThrowException@8
$LN2@PMC_FromBy:

; 54   :         unsigned char header = buffer[0];

  00066	b9 01 00 00 00	 mov	 ecx, 1
  0006b	6b d1 00	 imul	 edx, ecx, 0
  0006e	8b 45 08	 mov	 eax, DWORD PTR _buffer$[ebp]
  00071	8a 0c 10	 mov	 cl, BYTE PTR [eax+edx]
  00074	88 4d f3	 mov	 BYTE PTR _header$[ebp], cl

; 55   :         unsigned char sign = header & 0x03;

  00077	0f b6 55 f3	 movzx	 edx, BYTE PTR _header$[ebp]
  0007b	83 e2 03	 and	 edx, 3
  0007e	88 55 f2	 mov	 BYTE PTR _sign$[ebp], dl

; 56   :         unsigned char header_reserved = header & 0xfc;

  00081	0f b6 45 f3	 movzx	 eax, BYTE PTR _header$[ebp]
  00085	25 fc 00 00 00	 and	 eax, 252		; 000000fcH
  0008a	88 45 f1	 mov	 BYTE PTR _header_reserved$[ebp], al

; 57   :         if (header_reserved != 0)

  0008d	0f b6 4d f1	 movzx	 ecx, BYTE PTR _header_reserved$[ebp]
  00091	85 c9		 test	 ecx, ecx
  00093	74 1b		 je	 SHORT $LN3@PMC_FromBy

; 58   :             throw FormatException(L"");

  00095	68 00 00 00 00	 push	 OFFSET $SG117911
  0009a	8d 4d a0	 lea	 ecx, DWORD PTR $T5[ebp]
  0009d	e8 00 00 00 00	 call	 ??0FormatException@Internal@Core@Math@Palmtree@@QAE@PB_W@Z ; Palmtree::Math::Core::Internal::FormatException::FormatException
  000a2	68 00 00 00 00	 push	 OFFSET __TI2?AVFormatException@Internal@Core@Math@Palmtree@@
  000a7	8d 55 a0	 lea	 edx, DWORD PTR $T5[ebp]
  000aa	52		 push	 edx
  000ab	e8 00 00 00 00	 call	 __CxxThrowException@8
$LN3@PMC_FromBy:

; 59   :         if (sign == 0)

  000b0	0f b6 45 f2	 movzx	 eax, BYTE PTR _sign$[ebp]
  000b4	85 c0		 test	 eax, eax
  000b6	75 36		 jne	 SHORT $LN4@PMC_FromBy

; 60   :         {
; 61   :             if (count != 1)

  000b8	83 7d 0c 01	 cmp	 DWORD PTR _count$[ebp], 1
  000bc	74 1b		 je	 SHORT $LN6@PMC_FromBy

; 62   :                 throw FormatException(L"");

  000be	68 00 00 00 00	 push	 OFFSET $SG117916
  000c3	8d 4d 88	 lea	 ecx, DWORD PTR $T4[ebp]
  000c6	e8 00 00 00 00	 call	 ??0FormatException@Internal@Core@Math@Palmtree@@QAE@PB_W@Z ; Palmtree::Math::Core::Internal::FormatException::FormatException
  000cb	68 00 00 00 00	 push	 OFFSET __TI2?AVFormatException@Internal@Core@Math@Palmtree@@
  000d0	8d 4d 88	 lea	 ecx, DWORD PTR $T4[ebp]
  000d3	51		 push	 ecx
  000d4	e8 00 00 00 00	 call	 __CxxThrowException@8
$LN6@PMC_FromBy:

; 63   :             *o_sign = 0;

  000d9	8b 55 10	 mov	 edx, DWORD PTR _o_sign$[ebp]
  000dc	c6 02 00	 mov	 BYTE PTR [edx], 0

; 64   :             return (&number_zero);

  000df	b8 00 00 00 00	 mov	 eax, OFFSET ?number_zero@Internal@Core@Math@Palmtree@@3U__tag_NUMBER_HEADER@1234@A ; Palmtree::Math::Core::Internal::number_zero
  000e4	e9 23 01 00 00	 jmp	 $LN11@PMC_FromBy
  000e9	e9 1e 01 00 00	 jmp	 $LN11@PMC_FromBy
$LN4@PMC_FromBy:

; 65   :         }
; 66   :         else if (sign == 2)

  000ee	0f b6 45 f2	 movzx	 eax, BYTE PTR _sign$[ebp]
  000f2	83 f8 02	 cmp	 eax, 2
  000f5	75 26		 jne	 SHORT $LN7@PMC_FromBy

; 67   :             throw FormatException(L"");

  000f7	68 00 00 00 00	 push	 OFFSET $SG117920
  000fc	8d 8d 70 ff ff
	ff		 lea	 ecx, DWORD PTR $T3[ebp]
  00102	e8 00 00 00 00	 call	 ??0FormatException@Internal@Core@Math@Palmtree@@QAE@PB_W@Z ; Palmtree::Math::Core::Internal::FormatException::FormatException
  00107	68 00 00 00 00	 push	 OFFSET __TI2?AVFormatException@Internal@Core@Math@Palmtree@@
  0010c	8d 8d 70 ff ff
	ff		 lea	 ecx, DWORD PTR $T3[ebp]
  00112	51		 push	 ecx
  00113	e8 00 00 00 00	 call	 __CxxThrowException@8

; 68   :         else

  00118	e9 ef 00 00 00	 jmp	 $LN11@PMC_FromBy
$LN7@PMC_FromBy:

; 69   :         {
; 70   :             __UNIT_TYPE bit_count = CountActualBitsFromBuffer(buffer + 1, count - 1);

  0011d	8b 55 0c	 mov	 edx, DWORD PTR _count$[ebp]
  00120	83 ea 01	 sub	 edx, 1
  00123	52		 push	 edx
  00124	8b 45 08	 mov	 eax, DWORD PTR _buffer$[ebp]
  00127	83 c0 01	 add	 eax, 1
  0012a	50		 push	 eax
  0012b	e8 00 00 00 00	 call	 ?CountActualBitsFromBuffer@Internal@Core@Math@Palmtree@@YAIPBEI@Z ; Palmtree::Math::Core::Internal::CountActualBitsFromBuffer
  00130	83 c4 08	 add	 esp, 8
  00133	89 45 ec	 mov	 DWORD PTR _bit_count$9[ebp], eax

; 71   :             if (bit_count == 0)

  00136	83 7d ec 00	 cmp	 DWORD PTR _bit_count$9[ebp], 0
  0013a	75 15		 jne	 SHORT $LN9@PMC_FromBy

; 72   :             {
; 73   :                 *o_sign = 0;

  0013c	8b 4d 10	 mov	 ecx, DWORD PTR _o_sign$[ebp]
  0013f	c6 01 00	 mov	 BYTE PTR [ecx], 0

; 74   :                 return (&number_zero);

  00142	b8 00 00 00 00	 mov	 eax, OFFSET ?number_zero@Internal@Core@Math@Palmtree@@3U__tag_NUMBER_HEADER@1234@A ; Palmtree::Math::Core::Internal::number_zero
  00147	e9 c0 00 00 00	 jmp	 $LN11@PMC_FromBy

; 75   :             }
; 76   :             else

  0014c	e9 bb 00 00 00	 jmp	 $LN11@PMC_FromBy
$LN9@PMC_FromBy:

; 77   :             {
; 78   :                 ResourceHolderUINT root;

  00151	8d 4d d8	 lea	 ecx, DWORD PTR _root$8[ebp]
  00154	e8 00 00 00 00	 call	 ??0ResourceHolderUINT@Internal@Core@Math@Palmtree@@QAE@XZ ; Palmtree::Math::Core::Internal::ResourceHolderUINT::ResourceHolderUINT
  00159	c7 45 fc 00 00
	00 00		 mov	 DWORD PTR __$EHRec$[ebp+8], 0

; 79   :                 NUMBER_HEADER* o_abs = root.AllocateNumber(bit_count);

  00160	8b 55 ec	 mov	 edx, DWORD PTR _bit_count$9[ebp]
  00163	52		 push	 edx
  00164	8d 4d d8	 lea	 ecx, DWORD PTR _root$8[ebp]
  00167	e8 00 00 00 00	 call	 ?AllocateNumber@ResourceHolderUINT@Internal@Core@Math@Palmtree@@QAEPAU__tag_NUMBER_HEADER@2345@I@Z ; Palmtree::Math::Core::Internal::ResourceHolderUINT::AllocateNumber
  0016c	89 45 d0	 mov	 DWORD PTR _o_abs$7[ebp], eax

; 80   :                 _COPY_MEMORY_BYTE(o_abs->BLOCK, buffer + 1, _DIVIDE_CEILING_SIZE(bit_count, 8));

  0016f	6a 08		 push	 8
  00171	8b 45 ec	 mov	 eax, DWORD PTR _bit_count$9[ebp]
  00174	50		 push	 eax
  00175	e8 00 00 00 00	 call	 __DIVIDE_CEILING_SIZE
  0017a	83 c4 08	 add	 esp, 8
  0017d	89 85 68 ff ff
	ff		 mov	 DWORD PTR tv151[ebp], eax
  00183	8b 4d d0	 mov	 ecx, DWORD PTR _o_abs$7[ebp]
  00186	8b 51 24	 mov	 edx, DWORD PTR [ecx+36]
  00189	89 95 64 ff ff
	ff		 mov	 DWORD PTR tv149[ebp], edx
  0018f	8b 85 68 ff ff
	ff		 mov	 eax, DWORD PTR tv151[ebp]
  00195	50		 push	 eax
  00196	8b 4d 08	 mov	 ecx, DWORD PTR _buffer$[ebp]
  00199	83 c1 01	 add	 ecx, 1
  0019c	51		 push	 ecx
  0019d	8b 95 64 ff ff
	ff		 mov	 edx, DWORD PTR tv149[ebp]
  001a3	52		 push	 edx
  001a4	e8 00 00 00 00	 call	 __COPY_MEMORY_BYTE
  001a9	83 c4 0c	 add	 esp, 12			; 0000000cH

; 81   :                 CommitNumber(o_abs);

  001ac	8b 45 d0	 mov	 eax, DWORD PTR _o_abs$7[ebp]
  001af	50		 push	 eax
  001b0	e8 00 00 00 00	 call	 ?CommitNumber@Internal@Core@Math@Palmtree@@YAXPAU__tag_NUMBER_HEADER@1234@@Z ; Palmtree::Math::Core::Internal::CommitNumber
  001b5	83 c4 04	 add	 esp, 4

; 82   :                 *o_sign = sign == 1 ? 1 : -1;

  001b8	0f b6 4d f2	 movzx	 ecx, BYTE PTR _sign$[ebp]
  001bc	83 f9 01	 cmp	 ecx, 1
  001bf	75 0c		 jne	 SHORT $LN12@PMC_FromBy
  001c1	c7 85 60 ff ff
	ff 01 00 00 00	 mov	 DWORD PTR tv155[ebp], 1
  001cb	eb 0a		 jmp	 SHORT $LN13@PMC_FromBy
$LN12@PMC_FromBy:
  001cd	c7 85 60 ff ff
	ff ff ff ff ff	 mov	 DWORD PTR tv155[ebp], -1
$LN13@PMC_FromBy:
  001d7	8b 55 10	 mov	 edx, DWORD PTR _o_sign$[ebp]
  001da	8a 85 60 ff ff
	ff		 mov	 al, BYTE PTR tv155[ebp]
  001e0	88 02		 mov	 BYTE PTR [edx], al

; 83   :                 root.UnlinkNumber(o_abs);

  001e2	8b 4d d0	 mov	 ecx, DWORD PTR _o_abs$7[ebp]
  001e5	51		 push	 ecx
  001e6	8d 4d d8	 lea	 ecx, DWORD PTR _root$8[ebp]
  001e9	e8 00 00 00 00	 call	 ?UnlinkNumber@ResourceHolderUINT@Internal@Core@Math@Palmtree@@QAEXPAU__tag_NUMBER_HEADER@2345@@Z ; Palmtree::Math::Core::Internal::ResourceHolderUINT::UnlinkNumber

; 84   :                 return (o_abs);

  001ee	8b 55 d0	 mov	 edx, DWORD PTR _o_abs$7[ebp]
  001f1	89 95 6c ff ff
	ff		 mov	 DWORD PTR $T2[ebp], edx
  001f7	c7 45 fc ff ff
	ff ff		 mov	 DWORD PTR __$EHRec$[ebp+8], -1
  001fe	8d 4d d8	 lea	 ecx, DWORD PTR _root$8[ebp]
  00201	e8 00 00 00 00	 call	 ??1ResourceHolderUINT@Internal@Core@Math@Palmtree@@UAE@XZ ; Palmtree::Math::Core::Internal::ResourceHolderUINT::~ResourceHolderUINT
  00206	8b 85 6c ff ff
	ff		 mov	 eax, DWORD PTR $T2[ebp]
$LN11@PMC_FromBy:

; 85   :             }
; 86   :         }
; 87   :     }

  0020c	52		 push	 edx
  0020d	8b cd		 mov	 ecx, ebp
  0020f	50		 push	 eax
  00210	8d 15 00 00 00
	00		 lea	 edx, DWORD PTR $LN18@PMC_FromBy
  00216	e8 00 00 00 00	 call	 @_RTC_CheckStackVars@8
  0021b	58		 pop	 eax
  0021c	5a		 pop	 edx
  0021d	8b 4d f4	 mov	 ecx, DWORD PTR __$EHRec$[ebp]
  00220	64 89 0d 00 00
	00 00		 mov	 DWORD PTR fs:0, ecx
  00227	59		 pop	 ecx
  00228	5f		 pop	 edi
  00229	81 c4 a0 00 00
	00		 add	 esp, 160		; 000000a0H
  0022f	3b ec		 cmp	 ebp, esp
  00231	e8 00 00 00 00	 call	 __RTC_CheckEsp
  00236	8b e5		 mov	 esp, ebp
  00238	5d		 pop	 ebp
  00239	c3		 ret	 0
  0023a	66 90		 npad	 2
$LN18@PMC_FromBy:
  0023c	01 00 00 00	 DD	 1
  00240	00 00 00 00	 DD	 $LN17@PMC_FromBy
$LN17@PMC_FromBy:
  00244	d8 ff ff ff	 DD	 -40			; ffffffd8H
  00248	10 00 00 00	 DD	 16			; 00000010H
  0024c	00 00 00 00	 DD	 $LN15@PMC_FromBy
$LN15@PMC_FromBy:
  00250	72		 DB	 114			; 00000072H
  00251	6f		 DB	 111			; 0000006fH
  00252	6f		 DB	 111			; 0000006fH
  00253	74		 DB	 116			; 00000074H
  00254	00		 DB	 0
_TEXT	ENDS
text$x	SEGMENT
__unwindfunclet$?PMC_FromByteArrayForSINT_Imp@Internal@Core@Math@Palmtree@@YAPAU__tag_NUMBER_HEADER@1234@PAEIPAD@Z$0:
  00000	8d 4d d8	 lea	 ecx, DWORD PTR _root$8[ebp]
  00003	e9 00 00 00 00	 jmp	 ??1ResourceHolderUINT@Internal@Core@Math@Palmtree@@UAE@XZ ; Palmtree::Math::Core::Internal::ResourceHolderUINT::~ResourceHolderUINT
__ehhandler$?PMC_FromByteArrayForSINT_Imp@Internal@Core@Math@Palmtree@@YAPAU__tag_NUMBER_HEADER@1234@PAEIPAD@Z:
  00008	8b 54 24 08	 mov	 edx, DWORD PTR [esp+8]
  0000c	8d 42 0c	 lea	 eax, DWORD PTR [edx+12]
  0000f	8b 8a 64 ff ff
	ff		 mov	 ecx, DWORD PTR [edx-156]
  00015	33 c8		 xor	 ecx, eax
  00017	e8 00 00 00 00	 call	 @__security_check_cookie@4
  0001c	b8 00 00 00 00	 mov	 eax, OFFSET __ehfuncinfo$?PMC_FromByteArrayForSINT_Imp@Internal@Core@Math@Palmtree@@YAPAU__tag_NUMBER_HEADER@1234@PAEIPAD@Z
  00021	e9 00 00 00 00	 jmp	 ___CxxFrameHandler3
text$x	ENDS
?PMC_FromByteArrayForSINT_Imp@Internal@Core@Math@Palmtree@@YAPAU__tag_NUMBER_HEADER@1234@PAEIPAD@Z ENDP ; Palmtree::Math::Core::Internal::PMC_FromByteArrayForSINT_Imp
; Function compile flags: /Odtp /RTCsu
; File z:\sources\lunor\repos\rougemeilland\palmtree.math.core.uint\palmtree.math.core.uint\pmc_bytes.cpp
_TEXT	SEGMENT
_p$ = 8							; size = 4
_count$ = 12						; size = 4
?CountActualBitsFromBuffer@Internal@Core@Math@Palmtree@@YAIPBEI@Z PROC ; Palmtree::Math::Core::Internal::CountActualBitsFromBuffer

; 37   :     {

  00000	55		 push	 ebp
  00001	8b ec		 mov	 ebp, esp
  00003	56		 push	 esi
  00004	b9 00 00 00 00	 mov	 ecx, OFFSET __85CE5060_pmc_bytes@cpp
  00009	e8 00 00 00 00	 call	 @__CheckForDebuggerJustMyCode@4

; 38   :         p += count;

  0000e	8b 45 08	 mov	 eax, DWORD PTR _p$[ebp]
  00011	03 45 0c	 add	 eax, DWORD PTR _count$[ebp]
  00014	89 45 08	 mov	 DWORD PTR _p$[ebp], eax
$LN2@CountActua:

; 39   :         while (count > 0)

  00017	83 7d 0c 00	 cmp	 DWORD PTR _count$[ebp], 0
  0001b	76 39		 jbe	 SHORT $LN3@CountActua

; 40   :         {
; 41   :             --p;

  0001d	8b 4d 08	 mov	 ecx, DWORD PTR _p$[ebp]
  00020	83 e9 01	 sub	 ecx, 1
  00023	89 4d 08	 mov	 DWORD PTR _p$[ebp], ecx

; 42   :             if (*p != 0)

  00026	8b 55 08	 mov	 edx, DWORD PTR _p$[ebp]
  00029	0f b6 02	 movzx	 eax, BYTE PTR [edx]
  0002c	85 c0		 test	 eax, eax
  0002e	74 1b		 je	 SHORT $LN4@CountActua

; 43   :                 return (count * 8 - _LZCNT_ALT_8(*p));

  00030	8b 75 0c	 mov	 esi, DWORD PTR _count$[ebp]
  00033	c1 e6 03	 shl	 esi, 3
  00036	8b 4d 08	 mov	 ecx, DWORD PTR _p$[ebp]
  00039	0f b6 11	 movzx	 edx, BYTE PTR [ecx]
  0003c	52		 push	 edx
  0003d	e8 00 00 00 00	 call	 __LZCNT_ALT_8
  00042	83 c4 04	 add	 esp, 4
  00045	2b f0		 sub	 esi, eax
  00047	8b c6		 mov	 eax, esi
  00049	eb 0d		 jmp	 SHORT $LN1@CountActua
$LN4@CountActua:

; 44   :             --count;

  0004b	8b 45 0c	 mov	 eax, DWORD PTR _count$[ebp]
  0004e	83 e8 01	 sub	 eax, 1
  00051	89 45 0c	 mov	 DWORD PTR _count$[ebp], eax

; 45   :         }

  00054	eb c1		 jmp	 SHORT $LN2@CountActua
$LN3@CountActua:

; 46   :         return (0);

  00056	33 c0		 xor	 eax, eax
$LN1@CountActua:

; 47   :     }

  00058	5e		 pop	 esi
  00059	3b ec		 cmp	 ebp, esp
  0005b	e8 00 00 00 00	 call	 __RTC_CheckEsp
  00060	5d		 pop	 ebp
  00061	c3		 ret	 0
?CountActualBitsFromBuffer@Internal@Core@Math@Palmtree@@YAIPBEI@Z ENDP ; Palmtree::Math::Core::Internal::CountActualBitsFromBuffer
_TEXT	ENDS
; Function compile flags: /Odtp /RTCsu
; File z:\sources\lunor\repos\rougemeilland\palmtree.math.core.uint\palmtree.math.core.uint\pmc_inline_func.h
_TEXT	SEGMENT
_pos$ = -8						; size = 4
_x$ = 8							; size = 1
__LZCNT_ALT_8 PROC

; 406  :         {

  00000	55		 push	 ebp
  00001	8b ec		 mov	 ebp, esp
  00003	83 ec 0c	 sub	 esp, 12			; 0000000cH
  00006	c7 45 f4 cc cc
	cc cc		 mov	 DWORD PTR [ebp-12], -858993460 ; ccccccccH
  0000d	c7 45 f8 cc cc
	cc cc		 mov	 DWORD PTR [ebp-8], -858993460 ; ccccccccH
  00014	c7 45 fc cc cc
	cc cc		 mov	 DWORD PTR [ebp-4], -858993460 ; ccccccccH
  0001b	b9 00 00 00 00	 mov	 ecx, OFFSET __8CA3E54E_pmc_inline_func@h
  00020	e8 00 00 00 00	 call	 @__CheckForDebuggerJustMyCode@4

; 407  :             if (x == 0)

  00025	0f b6 45 08	 movzx	 eax, BYTE PTR _x$[ebp]
  00029	85 c0		 test	 eax, eax
  0002b	75 07		 jne	 SHORT $LN2@LZCNT_ALT_

; 408  :                 return (sizeof(x) * 8);

  0002d	b8 08 00 00 00	 mov	 eax, 8
  00032	eb 15		 jmp	 SHORT $LN1@LZCNT_ALT_
$LN2@LZCNT_ALT_:

; 409  :             DWORD pos;
; 410  : #ifdef _MSC_VER
; 411  :             _BitScanReverse(&pos, x);

  00034	0f b6 4d 08	 movzx	 ecx, BYTE PTR _x$[ebp]
  00038	0f bd d1	 bsr	 edx, ecx
  0003b	89 55 f8	 mov	 DWORD PTR _pos$[ebp], edx

; 412  : #elif defined(__GNUC__)
; 413  :             __asm__("bsrl %1, %0" : "=r"(pos) : "rm"((_UINT32_T)x));
; 414  : #else
; 415  : #error unknown compiler
; 416  : #endif
; 417  :             return ((unsigned char)(sizeof(x) * 8 - 1 - pos));

  0003e	b8 07 00 00 00	 mov	 eax, 7
  00043	2b 45 f8	 sub	 eax, DWORD PTR _pos$[ebp]
  00046	0f b6 c0	 movzx	 eax, al
$LN1@LZCNT_ALT_:

; 418  :         }

  00049	52		 push	 edx
  0004a	8b cd		 mov	 ecx, ebp
  0004c	50		 push	 eax
  0004d	8d 15 00 00 00
	00		 lea	 edx, DWORD PTR $LN6@LZCNT_ALT_
  00053	e8 00 00 00 00	 call	 @_RTC_CheckStackVars@8
  00058	58		 pop	 eax
  00059	5a		 pop	 edx
  0005a	83 c4 0c	 add	 esp, 12			; 0000000cH
  0005d	3b ec		 cmp	 ebp, esp
  0005f	e8 00 00 00 00	 call	 __RTC_CheckEsp
  00064	8b e5		 mov	 esp, ebp
  00066	5d		 pop	 ebp
  00067	c3		 ret	 0
$LN6@LZCNT_ALT_:
  00068	01 00 00 00	 DD	 1
  0006c	00 00 00 00	 DD	 $LN5@LZCNT_ALT_
$LN5@LZCNT_ALT_:
  00070	f8 ff ff ff	 DD	 -8			; fffffff8H
  00074	04 00 00 00	 DD	 4
  00078	00 00 00 00	 DD	 $LN4@LZCNT_ALT_
$LN4@LZCNT_ALT_:
  0007c	70		 DB	 112			; 00000070H
  0007d	6f		 DB	 111			; 0000006fH
  0007e	73		 DB	 115			; 00000073H
  0007f	00		 DB	 0
__LZCNT_ALT_8 ENDP
_TEXT	ENDS
; Function compile flags: /Odtp /RTCsu
; File z:\sources\lunor\repos\rougemeilland\palmtree.math.core.uint\palmtree.math.core.uint\pmc_inline_func.h
_TEXT	SEGMENT
_u$ = 8							; size = 4
_v$ = 12						; size = 4
__DIVIDE_CEILING_SIZE PROC

; 161  :         {

  00000	55		 push	 ebp
  00001	8b ec		 mov	 ebp, esp
  00003	b9 00 00 00 00	 mov	 ecx, OFFSET __8CA3E54E_pmc_inline_func@h
  00008	e8 00 00 00 00	 call	 @__CheckForDebuggerJustMyCode@4

; 162  :             return ((u + v - 1) / v);

  0000d	8b 45 0c	 mov	 eax, DWORD PTR _v$[ebp]
  00010	8b 4d 08	 mov	 ecx, DWORD PTR _u$[ebp]
  00013	8d 44 01 ff	 lea	 eax, DWORD PTR [ecx+eax-1]
  00017	33 d2		 xor	 edx, edx
  00019	f7 75 0c	 div	 DWORD PTR _v$[ebp]

; 163  :         }

  0001c	3b ec		 cmp	 ebp, esp
  0001e	e8 00 00 00 00	 call	 __RTC_CheckEsp
  00023	5d		 pop	 ebp
  00024	c3		 ret	 0
__DIVIDE_CEILING_SIZE ENDP
_TEXT	ENDS
; Function compile flags: /Odtp /RTCsu
; File z:\sources\lunor\repos\rougemeilland\palmtree.math.core.uint\palmtree.math.core.uint\pmc_inline_func.h
_TEXT	SEGMENT
_d$ = 8							; size = 4
_s$ = 12						; size = 4
_count$ = 16						; size = 4
__COPY_MEMORY_BYTE PROC

; 46   :         {

  00000	55		 push	 ebp
  00001	8b ec		 mov	 ebp, esp
  00003	56		 push	 esi
  00004	57		 push	 edi
  00005	b9 00 00 00 00	 mov	 ecx, OFFSET __8CA3E54E_pmc_inline_func@h
  0000a	e8 00 00 00 00	 call	 @__CheckForDebuggerJustMyCode@4

; 47   :             __movsb((unsigned char*)d, (const unsigned char*)s, count);

  0000f	8b 7d 08	 mov	 edi, DWORD PTR _d$[ebp]
  00012	8b 75 0c	 mov	 esi, DWORD PTR _s$[ebp]
  00015	8b 4d 10	 mov	 ecx, DWORD PTR _count$[ebp]
  00018	f3 a4		 rep movsb

; 48   :         }

  0001a	5f		 pop	 edi
  0001b	5e		 pop	 esi
  0001c	3b ec		 cmp	 ebp, esp
  0001e	e8 00 00 00 00	 call	 __RTC_CheckEsp
  00023	5d		 pop	 ebp
  00024	c3		 ret	 0
__COPY_MEMORY_BYTE ENDP
_TEXT	ENDS
; Function compile flags: /Odtp /RTCsu
; File z:\sources\lunor\repos\rougemeilland\palmtree.math.core.uint\palmtree.math.core.uint\pmc_bytes.cpp
_TEXT	SEGMENT
tv78 = -132						; size = 4
$T1 = -128						; size = 24
$T2 = -104						; size = 24
$T3 = -80						; size = 24
$T4 = -56						; size = 24
$T5 = -32						; size = 24
_expected_abs_buffer_size$ = -8				; size = 4
_np$ = -4						; size = 4
_p_sign$ = 8						; size = 1
_p$ = 12						; size = 4
_buffer$ = 16						; size = 4
_buffer_size$ = 20					; size = 4
?PMC_ToByteArrayForSINT@Internal@Core@Math@Palmtree@@YGIDPAU__tag_PMC_HANDLE_UINT@1234@PAEI@Z PROC ; Palmtree::Math::Core::Internal::PMC_ToByteArrayForSINT

; 154  :     {

  00000	55		 push	 ebp
  00001	8b ec		 mov	 ebp, esp
  00003	81 ec 84 00 00
	00		 sub	 esp, 132		; 00000084H
  00009	57		 push	 edi
  0000a	8d bd 7c ff ff
	ff		 lea	 edi, DWORD PTR [ebp-132]
  00010	b9 21 00 00 00	 mov	 ecx, 33			; 00000021H
  00015	b8 cc cc cc cc	 mov	 eax, -858993460		; ccccccccH
  0001a	f3 ab		 rep stosd
  0001c	b9 00 00 00 00	 mov	 ecx, OFFSET __85CE5060_pmc_bytes@cpp
  00021	e8 00 00 00 00	 call	 @__CheckForDebuggerJustMyCode@4

; 155  :         if (p == nullptr)

  00026	83 7d 0c 00	 cmp	 DWORD PTR _p$[ebp], 0
  0002a	75 20		 jne	 SHORT $LN2@PMC_ToByte

; 156  :             throw ArgumentNullException(L"nullptr", L"p");

  0002c	68 00 00 00 00	 push	 OFFSET $SG117996
  00031	68 00 00 00 00	 push	 OFFSET $SG117997
  00036	8d 4d e0	 lea	 ecx, DWORD PTR $T5[ebp]
  00039	e8 00 00 00 00	 call	 ??0ArgumentNullException@Internal@Core@Math@Palmtree@@QAE@PB_W0@Z ; Palmtree::Math::Core::Internal::ArgumentNullException::ArgumentNullException
  0003e	68 00 00 00 00	 push	 OFFSET __TI2?AVArgumentNullException@Internal@Core@Math@Palmtree@@
  00043	8d 45 e0	 lea	 eax, DWORD PTR $T5[ebp]
  00046	50		 push	 eax
  00047	e8 00 00 00 00	 call	 __CxxThrowException@8
$LN2@PMC_ToByte:

; 157  :         NUMBER_HEADER* np = (NUMBER_HEADER*)p;

  0004c	8b 4d 0c	 mov	 ecx, DWORD PTR _p$[ebp]
  0004f	89 4d fc	 mov	 DWORD PTR _np$[ebp], ecx

; 158  :         CheckNumber(np);

  00052	8b 55 fc	 mov	 edx, DWORD PTR _np$[ebp]
  00055	52		 push	 edx
  00056	e8 00 00 00 00	 call	 ?CheckNumber@Internal@Core@Math@Palmtree@@YAXPAU__tag_NUMBER_HEADER@1234@@Z ; Palmtree::Math::Core::Internal::CheckNumber
  0005b	83 c4 04	 add	 esp, 4

; 159  :         size_t expected_abs_buffer_size = np->IS_ZERO ? 0 : _DIVIDE_CEILING_SIZE(np->UNIT_BIT_COUNT, 8);

  0005e	8b 45 fc	 mov	 eax, DWORD PTR _np$[ebp]
  00061	8b 48 04	 mov	 ecx, DWORD PTR [eax+4]
  00064	83 e1 01	 and	 ecx, 1
  00067	74 0c		 je	 SHORT $LN13@PMC_ToByte
  00069	c7 85 7c ff ff
	ff 00 00 00 00	 mov	 DWORD PTR tv78[ebp], 0
  00073	eb 17		 jmp	 SHORT $LN14@PMC_ToByte
$LN13@PMC_ToByte:
  00075	6a 08		 push	 8
  00077	8b 55 fc	 mov	 edx, DWORD PTR _np$[ebp]
  0007a	8b 42 14	 mov	 eax, DWORD PTR [edx+20]
  0007d	50		 push	 eax
  0007e	e8 00 00 00 00	 call	 __DIVIDE_CEILING_SIZE
  00083	83 c4 08	 add	 esp, 8
  00086	89 85 7c ff ff
	ff		 mov	 DWORD PTR tv78[ebp], eax
$LN14@PMC_ToByte:
  0008c	8b 8d 7c ff ff
	ff		 mov	 ecx, DWORD PTR tv78[ebp]
  00092	89 4d f8	 mov	 DWORD PTR _expected_abs_buffer_size$[ebp], ecx

; 160  :         if (buffer != nullptr)

  00095	83 7d 10 00	 cmp	 DWORD PTR _buffer$[ebp], 0
  00099	0f 84 27 01 00
	00		 je	 $LN3@PMC_ToByte

; 161  :         {
; 162  :             if (8 + np->UNIT_BIT_COUNT > sizeof(*buffer) * 8 * buffer_size)

  0009f	8b 55 fc	 mov	 edx, DWORD PTR _np$[ebp]
  000a2	8b 42 14	 mov	 eax, DWORD PTR [edx+20]
  000a5	83 c0 08	 add	 eax, 8
  000a8	8b 4d 14	 mov	 ecx, DWORD PTR _buffer_size$[ebp]
  000ab	c1 e1 03	 shl	 ecx, 3
  000ae	3b c1		 cmp	 eax, ecx
  000b0	76 1b		 jbe	 SHORT $LN4@PMC_ToByte

; 163  :                 throw InsufficientBufferException(L"");

  000b2	68 00 00 00 00	 push	 OFFSET $SG118005
  000b7	8d 4d c8	 lea	 ecx, DWORD PTR $T4[ebp]
  000ba	e8 00 00 00 00	 call	 ??0InsufficientBufferException@Internal@Core@Math@Palmtree@@QAE@PB_W@Z ; Palmtree::Math::Core::Internal::InsufficientBufferException::InsufficientBufferException
  000bf	68 00 00 00 00	 push	 OFFSET __TI2?AVInsufficientBufferException@Internal@Core@Math@Palmtree@@
  000c4	8d 55 c8	 lea	 edx, DWORD PTR $T4[ebp]
  000c7	52		 push	 edx
  000c8	e8 00 00 00 00	 call	 __CxxThrowException@8
$LN4@PMC_ToByte:

; 164  :             if (p_sign == 0)

  000cd	0f be 45 08	 movsx	 eax, BYTE PTR _p_sign$[ebp]
  000d1	85 c0		 test	 eax, eax
  000d3	75 3f		 jne	 SHORT $LN5@PMC_ToByte

; 165  :             {
; 166  :                 if (!np->IS_ZERO)

  000d5	8b 4d fc	 mov	 ecx, DWORD PTR _np$[ebp]
  000d8	8b 51 04	 mov	 edx, DWORD PTR [ecx+4]
  000db	83 e2 01	 and	 edx, 1
  000de	75 20		 jne	 SHORT $LN7@PMC_ToByte

; 167  :                     throw InternalErrorException(L"", L"pmc_bytes.cpp;PMC_ToByteArrayForSINT;1");

  000e0	68 00 00 00 00	 push	 OFFSET $SG118010
  000e5	68 00 00 00 00	 push	 OFFSET $SG118011
  000ea	8d 4d b0	 lea	 ecx, DWORD PTR $T3[ebp]
  000ed	e8 00 00 00 00	 call	 ??0InternalErrorException@Internal@Core@Math@Palmtree@@QAE@PB_W0@Z ; Palmtree::Math::Core::Internal::InternalErrorException::InternalErrorException
  000f2	68 00 00 00 00	 push	 OFFSET __TI2?AVInternalErrorException@Internal@Core@Math@Palmtree@@
  000f7	8d 45 b0	 lea	 eax, DWORD PTR $T3[ebp]
  000fa	50		 push	 eax
  000fb	e8 00 00 00 00	 call	 __CxxThrowException@8
$LN7@PMC_ToByte:

; 168  :                 buffer[0] = 0x00;

  00100	b9 01 00 00 00	 mov	 ecx, 1
  00105	6b d1 00	 imul	 edx, ecx, 0
  00108	8b 45 10	 mov	 eax, DWORD PTR _buffer$[ebp]
  0010b	c6 04 10 00	 mov	 BYTE PTR [eax+edx], 0
  0010f	e9 b2 00 00 00	 jmp	 $LN3@PMC_ToByte
$LN5@PMC_ToByte:

; 169  :             }
; 170  :             else if (p_sign > 0)

  00114	0f be 4d 08	 movsx	 ecx, BYTE PTR _p_sign$[ebp]
  00118	85 c9		 test	 ecx, ecx
  0011a	7e 56		 jle	 SHORT $LN8@PMC_ToByte

; 171  :             {
; 172  :                 if (np->IS_ZERO)

  0011c	8b 55 fc	 mov	 edx, DWORD PTR _np$[ebp]
  0011f	8b 42 04	 mov	 eax, DWORD PTR [edx+4]
  00122	83 e0 01	 and	 eax, 1
  00125	74 20		 je	 SHORT $LN10@PMC_ToByte

; 173  :                     throw InternalErrorException(L"", L"pmc_bytes.cpp;PMC_ToByteArrayForSINT;2");

  00127	68 00 00 00 00	 push	 OFFSET $SG118016
  0012c	68 00 00 00 00	 push	 OFFSET $SG118017
  00131	8d 4d 98	 lea	 ecx, DWORD PTR $T2[ebp]
  00134	e8 00 00 00 00	 call	 ??0InternalErrorException@Internal@Core@Math@Palmtree@@QAE@PB_W0@Z ; Palmtree::Math::Core::Internal::InternalErrorException::InternalErrorException
  00139	68 00 00 00 00	 push	 OFFSET __TI2?AVInternalErrorException@Internal@Core@Math@Palmtree@@
  0013e	8d 4d 98	 lea	 ecx, DWORD PTR $T2[ebp]
  00141	51		 push	 ecx
  00142	e8 00 00 00 00	 call	 __CxxThrowException@8
$LN10@PMC_ToByte:

; 174  :                 buffer[0] = 0x01;

  00147	ba 01 00 00 00	 mov	 edx, 1
  0014c	6b c2 00	 imul	 eax, edx, 0
  0014f	8b 4d 10	 mov	 ecx, DWORD PTR _buffer$[ebp]
  00152	c6 04 01 01	 mov	 BYTE PTR [ecx+eax], 1

; 175  :                 _COPY_MEMORY_BYTE(buffer + 1, np->BLOCK, expected_abs_buffer_size);

  00156	8b 55 f8	 mov	 edx, DWORD PTR _expected_abs_buffer_size$[ebp]
  00159	52		 push	 edx
  0015a	8b 45 fc	 mov	 eax, DWORD PTR _np$[ebp]
  0015d	8b 48 24	 mov	 ecx, DWORD PTR [eax+36]
  00160	51		 push	 ecx
  00161	8b 55 10	 mov	 edx, DWORD PTR _buffer$[ebp]
  00164	83 c2 01	 add	 edx, 1
  00167	52		 push	 edx
  00168	e8 00 00 00 00	 call	 __COPY_MEMORY_BYTE
  0016d	83 c4 0c	 add	 esp, 12			; 0000000cH

; 176  :             }
; 177  :             else

  00170	eb 54		 jmp	 SHORT $LN3@PMC_ToByte
$LN8@PMC_ToByte:

; 178  :             {
; 179  :                 if (np->IS_ZERO)

  00172	8b 45 fc	 mov	 eax, DWORD PTR _np$[ebp]
  00175	8b 48 04	 mov	 ecx, DWORD PTR [eax+4]
  00178	83 e1 01	 and	 ecx, 1
  0017b	74 20		 je	 SHORT $LN11@PMC_ToByte

; 180  :                     throw InternalErrorException(L"", L"pmc_bytes.cpp;PMC_ToByteArrayForSINT;3");

  0017d	68 00 00 00 00	 push	 OFFSET $SG118020
  00182	68 00 00 00 00	 push	 OFFSET $SG118021
  00187	8d 4d 80	 lea	 ecx, DWORD PTR $T1[ebp]
  0018a	e8 00 00 00 00	 call	 ??0InternalErrorException@Internal@Core@Math@Palmtree@@QAE@PB_W0@Z ; Palmtree::Math::Core::Internal::InternalErrorException::InternalErrorException
  0018f	68 00 00 00 00	 push	 OFFSET __TI2?AVInternalErrorException@Internal@Core@Math@Palmtree@@
  00194	8d 55 80	 lea	 edx, DWORD PTR $T1[ebp]
  00197	52		 push	 edx
  00198	e8 00 00 00 00	 call	 __CxxThrowException@8
$LN11@PMC_ToByte:

; 181  :                 buffer[0] = 0x03;

  0019d	b8 01 00 00 00	 mov	 eax, 1
  001a2	6b c8 00	 imul	 ecx, eax, 0
  001a5	8b 55 10	 mov	 edx, DWORD PTR _buffer$[ebp]
  001a8	c6 04 0a 03	 mov	 BYTE PTR [edx+ecx], 3

; 182  :                 _COPY_MEMORY_BYTE(buffer + 1, np->BLOCK, expected_abs_buffer_size);

  001ac	8b 45 f8	 mov	 eax, DWORD PTR _expected_abs_buffer_size$[ebp]
  001af	50		 push	 eax
  001b0	8b 4d fc	 mov	 ecx, DWORD PTR _np$[ebp]
  001b3	8b 51 24	 mov	 edx, DWORD PTR [ecx+36]
  001b6	52		 push	 edx
  001b7	8b 45 10	 mov	 eax, DWORD PTR _buffer$[ebp]
  001ba	83 c0 01	 add	 eax, 1
  001bd	50		 push	 eax
  001be	e8 00 00 00 00	 call	 __COPY_MEMORY_BYTE
  001c3	83 c4 0c	 add	 esp, 12			; 0000000cH
$LN3@PMC_ToByte:

; 183  :             }
; 184  :         }
; 185  :         return (expected_abs_buffer_size + 1);

  001c6	8b 45 f8	 mov	 eax, DWORD PTR _expected_abs_buffer_size$[ebp]
  001c9	83 c0 01	 add	 eax, 1
$LN12@PMC_ToByte:

; 186  :     }

  001cc	5f		 pop	 edi
  001cd	81 c4 84 00 00
	00		 add	 esp, 132		; 00000084H
  001d3	3b ec		 cmp	 ebp, esp
  001d5	e8 00 00 00 00	 call	 __RTC_CheckEsp
  001da	8b e5		 mov	 esp, ebp
  001dc	5d		 pop	 ebp
  001dd	c2 10 00	 ret	 16			; 00000010H
?PMC_ToByteArrayForSINT@Internal@Core@Math@Palmtree@@YGIDPAU__tag_PMC_HANDLE_UINT@1234@PAEI@Z ENDP ; Palmtree::Math::Core::Internal::PMC_ToByteArrayForSINT
_TEXT	ENDS
; Function compile flags: /Odtp /RTCsu
; File z:\sources\lunor\repos\rougemeilland\palmtree.math.core.uint\palmtree.math.core.uint\pmc_bytes.cpp
_TEXT	SEGMENT
$T2 = -92						; size = 4
$T3 = -88						; size = 24
$T4 = -64						; size = 24
_o_abs$ = -40						; size = 4
_root$ = -32						; size = 16
__$EHRec$ = -12						; size = 12
_buffer$ = 8						; size = 4
_count$ = 12						; size = 4
_o_sign$ = 16						; size = 4
?PMC_FromByteArrayForSINT@Internal@Core@Math@Palmtree@@YGPAU__tag_PMC_HANDLE_UINT@1234@PAEIPAD@Z PROC ; Palmtree::Math::Core::Internal::PMC_FromByteArrayForSINT

; 90   :     {

  00000	55		 push	 ebp
  00001	8b ec		 mov	 ebp, esp
  00003	6a ff		 push	 -1
  00005	68 00 00 00 00	 push	 __ehhandler$?PMC_FromByteArrayForSINT@Internal@Core@Math@Palmtree@@YGPAU__tag_PMC_HANDLE_UINT@1234@PAEIPAD@Z
  0000a	64 a1 00 00 00
	00		 mov	 eax, DWORD PTR fs:0
  00010	50		 push	 eax
  00011	83 ec 50	 sub	 esp, 80			; 00000050H
  00014	57		 push	 edi
  00015	8d 7d a4	 lea	 edi, DWORD PTR [ebp-92]
  00018	b9 14 00 00 00	 mov	 ecx, 20			; 00000014H
  0001d	b8 cc cc cc cc	 mov	 eax, -858993460		; ccccccccH
  00022	f3 ab		 rep stosd
  00024	a1 00 00 00 00	 mov	 eax, DWORD PTR ___security_cookie
  00029	33 c5		 xor	 eax, ebp
  0002b	50		 push	 eax
  0002c	8d 45 f4	 lea	 eax, DWORD PTR __$EHRec$[ebp]
  0002f	64 a3 00 00 00
	00		 mov	 DWORD PTR fs:0, eax
  00035	b9 00 00 00 00	 mov	 ecx, OFFSET __85CE5060_pmc_bytes@cpp
  0003a	e8 00 00 00 00	 call	 @__CheckForDebuggerJustMyCode@4

; 91   :         if (buffer == nullptr)

  0003f	83 7d 08 00	 cmp	 DWORD PTR _buffer$[ebp], 0
  00043	75 20		 jne	 SHORT $LN2@PMC_FromBy

; 92   :             throw ArgumentNullException(L"nullptr", L"buffer");

  00045	68 00 00 00 00	 push	 OFFSET $SG117938
  0004a	68 00 00 00 00	 push	 OFFSET $SG117939
  0004f	8d 4d c0	 lea	 ecx, DWORD PTR $T4[ebp]
  00052	e8 00 00 00 00	 call	 ??0ArgumentNullException@Internal@Core@Math@Palmtree@@QAE@PB_W0@Z ; Palmtree::Math::Core::Internal::ArgumentNullException::ArgumentNullException
  00057	68 00 00 00 00	 push	 OFFSET __TI2?AVArgumentNullException@Internal@Core@Math@Palmtree@@
  0005c	8d 45 c0	 lea	 eax, DWORD PTR $T4[ebp]
  0005f	50		 push	 eax
  00060	e8 00 00 00 00	 call	 __CxxThrowException@8
$LN2@PMC_FromBy:

; 93   :         if (o_sign == nullptr)

  00065	83 7d 10 00	 cmp	 DWORD PTR _o_sign$[ebp], 0
  00069	75 20		 jne	 SHORT $LN3@PMC_FromBy

; 94   :             throw ArgumentNullException(L"nullptr", L"o_sign");

  0006b	68 00 00 00 00	 push	 OFFSET $SG117942
  00070	68 00 00 00 00	 push	 OFFSET $SG117943
  00075	8d 4d a8	 lea	 ecx, DWORD PTR $T3[ebp]
  00078	e8 00 00 00 00	 call	 ??0ArgumentNullException@Internal@Core@Math@Palmtree@@QAE@PB_W0@Z ; Palmtree::Math::Core::Internal::ArgumentNullException::ArgumentNullException
  0007d	68 00 00 00 00	 push	 OFFSET __TI2?AVArgumentNullException@Internal@Core@Math@Palmtree@@
  00082	8d 4d a8	 lea	 ecx, DWORD PTR $T3[ebp]
  00085	51		 push	 ecx
  00086	e8 00 00 00 00	 call	 __CxxThrowException@8
$LN3@PMC_FromBy:

; 95   :         ResourceHolderUINT root;

  0008b	8d 4d e0	 lea	 ecx, DWORD PTR _root$[ebp]
  0008e	e8 00 00 00 00	 call	 ??0ResourceHolderUINT@Internal@Core@Math@Palmtree@@QAE@XZ ; Palmtree::Math::Core::Internal::ResourceHolderUINT::ResourceHolderUINT
  00093	c7 45 fc 00 00
	00 00		 mov	 DWORD PTR __$EHRec$[ebp+8], 0

; 96   :         NUMBER_HEADER* o_abs = PMC_FromByteArrayForSINT_Imp(buffer, count, o_sign);

  0009a	8b 55 10	 mov	 edx, DWORD PTR _o_sign$[ebp]
  0009d	52		 push	 edx
  0009e	8b 45 0c	 mov	 eax, DWORD PTR _count$[ebp]
  000a1	50		 push	 eax
  000a2	8b 4d 08	 mov	 ecx, DWORD PTR _buffer$[ebp]
  000a5	51		 push	 ecx
  000a6	e8 00 00 00 00	 call	 ?PMC_FromByteArrayForSINT_Imp@Internal@Core@Math@Palmtree@@YAPAU__tag_NUMBER_HEADER@1234@PAEIPAD@Z ; Palmtree::Math::Core::Internal::PMC_FromByteArrayForSINT_Imp
  000ab	83 c4 0c	 add	 esp, 12			; 0000000cH
  000ae	89 45 d8	 mov	 DWORD PTR _o_abs$[ebp], eax

; 97   :         root.HookNumber(o_abs);

  000b1	8b 55 d8	 mov	 edx, DWORD PTR _o_abs$[ebp]
  000b4	52		 push	 edx
  000b5	8d 4d e0	 lea	 ecx, DWORD PTR _root$[ebp]
  000b8	e8 00 00 00 00	 call	 ?HookNumber@ResourceHolderUINT@Internal@Core@Math@Palmtree@@QAEXPAU__tag_NUMBER_HEADER@2345@@Z ; Palmtree::Math::Core::Internal::ResourceHolderUINT::HookNumber

; 98   : #ifdef _DEBUG
; 99   :         CheckNumber(o_abs);

  000bd	8b 45 d8	 mov	 eax, DWORD PTR _o_abs$[ebp]
  000c0	50		 push	 eax
  000c1	e8 00 00 00 00	 call	 ?CheckNumber@Internal@Core@Math@Palmtree@@YAXPAU__tag_NUMBER_HEADER@1234@@Z ; Palmtree::Math::Core::Internal::CheckNumber
  000c6	83 c4 04	 add	 esp, 4

; 100  : #endif
; 101  :         root.UnlinkNumber(o_abs);

  000c9	8b 4d d8	 mov	 ecx, DWORD PTR _o_abs$[ebp]
  000cc	51		 push	 ecx
  000cd	8d 4d e0	 lea	 ecx, DWORD PTR _root$[ebp]
  000d0	e8 00 00 00 00	 call	 ?UnlinkNumber@ResourceHolderUINT@Internal@Core@Math@Palmtree@@QAEXPAU__tag_NUMBER_HEADER@2345@@Z ; Palmtree::Math::Core::Internal::ResourceHolderUINT::UnlinkNumber

; 102  :         return ((PMC_HANDLE_UINT)o_abs);

  000d5	8b 55 d8	 mov	 edx, DWORD PTR _o_abs$[ebp]
  000d8	89 55 a4	 mov	 DWORD PTR $T2[ebp], edx
  000db	c7 45 fc ff ff
	ff ff		 mov	 DWORD PTR __$EHRec$[ebp+8], -1
  000e2	8d 4d e0	 lea	 ecx, DWORD PTR _root$[ebp]
  000e5	e8 00 00 00 00	 call	 ??1ResourceHolderUINT@Internal@Core@Math@Palmtree@@UAE@XZ ; Palmtree::Math::Core::Internal::ResourceHolderUINT::~ResourceHolderUINT
  000ea	8b 45 a4	 mov	 eax, DWORD PTR $T2[ebp]
$LN4@PMC_FromBy:

; 103  :     }

  000ed	52		 push	 edx
  000ee	8b cd		 mov	 ecx, ebp
  000f0	50		 push	 eax
  000f1	8d 15 00 00 00
	00		 lea	 edx, DWORD PTR $LN9@PMC_FromBy
  000f7	e8 00 00 00 00	 call	 @_RTC_CheckStackVars@8
  000fc	58		 pop	 eax
  000fd	5a		 pop	 edx
  000fe	8b 4d f4	 mov	 ecx, DWORD PTR __$EHRec$[ebp]
  00101	64 89 0d 00 00
	00 00		 mov	 DWORD PTR fs:0, ecx
  00108	59		 pop	 ecx
  00109	5f		 pop	 edi
  0010a	83 c4 5c	 add	 esp, 92			; 0000005cH
  0010d	3b ec		 cmp	 ebp, esp
  0010f	e8 00 00 00 00	 call	 __RTC_CheckEsp
  00114	8b e5		 mov	 esp, ebp
  00116	5d		 pop	 ebp
  00117	c2 0c 00	 ret	 12			; 0000000cH
  0011a	66 90		 npad	 2
$LN9@PMC_FromBy:
  0011c	01 00 00 00	 DD	 1
  00120	00 00 00 00	 DD	 $LN8@PMC_FromBy
$LN8@PMC_FromBy:
  00124	e0 ff ff ff	 DD	 -32			; ffffffe0H
  00128	10 00 00 00	 DD	 16			; 00000010H
  0012c	00 00 00 00	 DD	 $LN6@PMC_FromBy
$LN6@PMC_FromBy:
  00130	72		 DB	 114			; 00000072H
  00131	6f		 DB	 111			; 0000006fH
  00132	6f		 DB	 111			; 0000006fH
  00133	74		 DB	 116			; 00000074H
  00134	00		 DB	 0
_TEXT	ENDS
text$x	SEGMENT
__unwindfunclet$?PMC_FromByteArrayForSINT@Internal@Core@Math@Palmtree@@YGPAU__tag_PMC_HANDLE_UINT@1234@PAEIPAD@Z$0:
  00000	8d 4d e0	 lea	 ecx, DWORD PTR _root$[ebp]
  00003	e9 00 00 00 00	 jmp	 ??1ResourceHolderUINT@Internal@Core@Math@Palmtree@@UAE@XZ ; Palmtree::Math::Core::Internal::ResourceHolderUINT::~ResourceHolderUINT
__ehhandler$?PMC_FromByteArrayForSINT@Internal@Core@Math@Palmtree@@YGPAU__tag_PMC_HANDLE_UINT@1234@PAEIPAD@Z:
  00008	8b 54 24 08	 mov	 edx, DWORD PTR [esp+8]
  0000c	8d 42 0c	 lea	 eax, DWORD PTR [edx+12]
  0000f	8b 4a a8	 mov	 ecx, DWORD PTR [edx-88]
  00012	33 c8		 xor	 ecx, eax
  00014	e8 00 00 00 00	 call	 @__security_check_cookie@4
  00019	b8 00 00 00 00	 mov	 eax, OFFSET __ehfuncinfo$?PMC_FromByteArrayForSINT@Internal@Core@Math@Palmtree@@YGPAU__tag_PMC_HANDLE_UINT@1234@PAEIPAD@Z
  0001e	e9 00 00 00 00	 jmp	 ___CxxFrameHandler3
text$x	ENDS
?PMC_FromByteArrayForSINT@Internal@Core@Math@Palmtree@@YGPAU__tag_PMC_HANDLE_UINT@1234@PAEIPAD@Z ENDP ; Palmtree::Math::Core::Internal::PMC_FromByteArrayForSINT
; Function compile flags: /Odtp /RTCsu
; File z:\sources\lunor\repos\rougemeilland\palmtree.math.core.uint\palmtree.math.core.uint\pmc_bytes.cpp
_TEXT	SEGMENT
tv78 = -60						; size = 4
$T1 = -56						; size = 24
$T2 = -32						; size = 24
_expected_abs_buffer_size$ = -8				; size = 4
_np$ = -4						; size = 4
_p$ = 8							; size = 4
_buffer$ = 12						; size = 4
_buffer_size$ = 16					; size = 4
?PMC_ToByteArray@Internal@Core@Math@Palmtree@@YGIPAU__tag_PMC_HANDLE_UINT@1234@PAEI@Z PROC ; Palmtree::Math::Core::Internal::PMC_ToByteArray

; 189  :     {

  00000	55		 push	 ebp
  00001	8b ec		 mov	 ebp, esp
  00003	83 ec 3c	 sub	 esp, 60			; 0000003cH
  00006	57		 push	 edi
  00007	8d 7d c4	 lea	 edi, DWORD PTR [ebp-60]
  0000a	b9 0f 00 00 00	 mov	 ecx, 15			; 0000000fH
  0000f	b8 cc cc cc cc	 mov	 eax, -858993460		; ccccccccH
  00014	f3 ab		 rep stosd
  00016	b9 00 00 00 00	 mov	 ecx, OFFSET __85CE5060_pmc_bytes@cpp
  0001b	e8 00 00 00 00	 call	 @__CheckForDebuggerJustMyCode@4

; 190  :         if (p == nullptr)

  00020	83 7d 08 00	 cmp	 DWORD PTR _p$[ebp], 0
  00024	75 20		 jne	 SHORT $LN2@PMC_ToByte

; 191  :             throw ArgumentNullException(L"nullptr", L"p");

  00026	68 00 00 00 00	 push	 OFFSET $SG118032
  0002b	68 00 00 00 00	 push	 OFFSET $SG118033
  00030	8d 4d e0	 lea	 ecx, DWORD PTR $T2[ebp]
  00033	e8 00 00 00 00	 call	 ??0ArgumentNullException@Internal@Core@Math@Palmtree@@QAE@PB_W0@Z ; Palmtree::Math::Core::Internal::ArgumentNullException::ArgumentNullException
  00038	68 00 00 00 00	 push	 OFFSET __TI2?AVArgumentNullException@Internal@Core@Math@Palmtree@@
  0003d	8d 45 e0	 lea	 eax, DWORD PTR $T2[ebp]
  00040	50		 push	 eax
  00041	e8 00 00 00 00	 call	 __CxxThrowException@8
$LN2@PMC_ToByte:

; 192  :         NUMBER_HEADER* np = (NUMBER_HEADER*)p;

  00046	8b 4d 08	 mov	 ecx, DWORD PTR _p$[ebp]
  00049	89 4d fc	 mov	 DWORD PTR _np$[ebp], ecx

; 193  :         CheckNumber(np);

  0004c	8b 55 fc	 mov	 edx, DWORD PTR _np$[ebp]
  0004f	52		 push	 edx
  00050	e8 00 00 00 00	 call	 ?CheckNumber@Internal@Core@Math@Palmtree@@YAXPAU__tag_NUMBER_HEADER@1234@@Z ; Palmtree::Math::Core::Internal::CheckNumber
  00055	83 c4 04	 add	 esp, 4

; 194  :         size_t expected_abs_buffer_size = np->IS_ZERO ? 0 : _DIVIDE_CEILING_SIZE(np->UNIT_BIT_COUNT, 8);

  00058	8b 45 fc	 mov	 eax, DWORD PTR _np$[ebp]
  0005b	8b 48 04	 mov	 ecx, DWORD PTR [eax+4]
  0005e	83 e1 01	 and	 ecx, 1
  00061	74 09		 je	 SHORT $LN8@PMC_ToByte
  00063	c7 45 c4 00 00
	00 00		 mov	 DWORD PTR tv78[ebp], 0
  0006a	eb 14		 jmp	 SHORT $LN9@PMC_ToByte
$LN8@PMC_ToByte:
  0006c	6a 08		 push	 8
  0006e	8b 55 fc	 mov	 edx, DWORD PTR _np$[ebp]
  00071	8b 42 14	 mov	 eax, DWORD PTR [edx+20]
  00074	50		 push	 eax
  00075	e8 00 00 00 00	 call	 __DIVIDE_CEILING_SIZE
  0007a	83 c4 08	 add	 esp, 8
  0007d	89 45 c4	 mov	 DWORD PTR tv78[ebp], eax
$LN9@PMC_ToByte:
  00080	8b 4d c4	 mov	 ecx, DWORD PTR tv78[ebp]
  00083	89 4d f8	 mov	 DWORD PTR _expected_abs_buffer_size$[ebp], ecx

; 195  :         if (buffer != nullptr)

  00086	83 7d 0c 00	 cmp	 DWORD PTR _buffer$[ebp], 0
  0008a	74 73		 je	 SHORT $LN3@PMC_ToByte

; 196  :         {
; 197  :             if (8 + np->UNIT_BIT_COUNT > sizeof(*buffer) * 8 * buffer_size)

  0008c	8b 55 fc	 mov	 edx, DWORD PTR _np$[ebp]
  0008f	8b 42 14	 mov	 eax, DWORD PTR [edx+20]
  00092	83 c0 08	 add	 eax, 8
  00095	8b 4d 10	 mov	 ecx, DWORD PTR _buffer_size$[ebp]
  00098	c1 e1 03	 shl	 ecx, 3
  0009b	3b c1		 cmp	 eax, ecx
  0009d	76 1b		 jbe	 SHORT $LN4@PMC_ToByte

; 198  :                 throw InsufficientBufferException(L"");

  0009f	68 00 00 00 00	 push	 OFFSET $SG118037
  000a4	8d 4d c8	 lea	 ecx, DWORD PTR $T1[ebp]
  000a7	e8 00 00 00 00	 call	 ??0InsufficientBufferException@Internal@Core@Math@Palmtree@@QAE@PB_W@Z ; Palmtree::Math::Core::Internal::InsufficientBufferException::InsufficientBufferException
  000ac	68 00 00 00 00	 push	 OFFSET __TI2?AVInsufficientBufferException@Internal@Core@Math@Palmtree@@
  000b1	8d 55 c8	 lea	 edx, DWORD PTR $T1[ebp]
  000b4	52		 push	 edx
  000b5	e8 00 00 00 00	 call	 __CxxThrowException@8
$LN4@PMC_ToByte:

; 199  :             if (np->IS_ZERO)

  000ba	8b 45 fc	 mov	 eax, DWORD PTR _np$[ebp]
  000bd	8b 48 04	 mov	 ecx, DWORD PTR [eax+4]
  000c0	83 e1 01	 and	 ecx, 1
  000c3	74 11		 je	 SHORT $LN5@PMC_ToByte

; 200  :                 buffer[0] = 0x00;

  000c5	ba 01 00 00 00	 mov	 edx, 1
  000ca	6b c2 00	 imul	 eax, edx, 0
  000cd	8b 4d 0c	 mov	 ecx, DWORD PTR _buffer$[ebp]
  000d0	c6 04 01 00	 mov	 BYTE PTR [ecx+eax], 0

; 201  :             else

  000d4	eb 29		 jmp	 SHORT $LN3@PMC_ToByte
$LN5@PMC_ToByte:

; 202  :             {
; 203  :                 buffer[0] = 0x01;

  000d6	ba 01 00 00 00	 mov	 edx, 1
  000db	6b c2 00	 imul	 eax, edx, 0
  000de	8b 4d 0c	 mov	 ecx, DWORD PTR _buffer$[ebp]
  000e1	c6 04 01 01	 mov	 BYTE PTR [ecx+eax], 1

; 204  :                 _COPY_MEMORY_BYTE(buffer + 1, np->BLOCK, expected_abs_buffer_size);

  000e5	8b 55 f8	 mov	 edx, DWORD PTR _expected_abs_buffer_size$[ebp]
  000e8	52		 push	 edx
  000e9	8b 45 fc	 mov	 eax, DWORD PTR _np$[ebp]
  000ec	8b 48 24	 mov	 ecx, DWORD PTR [eax+36]
  000ef	51		 push	 ecx
  000f0	8b 55 0c	 mov	 edx, DWORD PTR _buffer$[ebp]
  000f3	83 c2 01	 add	 edx, 1
  000f6	52		 push	 edx
  000f7	e8 00 00 00 00	 call	 __COPY_MEMORY_BYTE
  000fc	83 c4 0c	 add	 esp, 12			; 0000000cH
$LN3@PMC_ToByte:

; 205  :             }
; 206  :         }
; 207  :         return (expected_abs_buffer_size + 1);

  000ff	8b 45 f8	 mov	 eax, DWORD PTR _expected_abs_buffer_size$[ebp]
  00102	83 c0 01	 add	 eax, 1
$LN7@PMC_ToByte:

; 208  :     }

  00105	5f		 pop	 edi
  00106	83 c4 3c	 add	 esp, 60			; 0000003cH
  00109	3b ec		 cmp	 ebp, esp
  0010b	e8 00 00 00 00	 call	 __RTC_CheckEsp
  00110	8b e5		 mov	 esp, ebp
  00112	5d		 pop	 ebp
  00113	c2 0c 00	 ret	 12			; 0000000cH
?PMC_ToByteArray@Internal@Core@Math@Palmtree@@YGIPAU__tag_PMC_HANDLE_UINT@1234@PAEI@Z ENDP ; Palmtree::Math::Core::Internal::PMC_ToByteArray
_TEXT	ENDS
; Function compile flags: /Odtp /RTCsu
; File z:\sources\lunor\repos\rougemeilland\palmtree.math.core.uint\palmtree.math.core.uint\pmc_bytes.cpp
_TEXT	SEGMENT
$T2 = -68						; size = 4
$T3 = -64						; size = 24
_o$ = -40						; size = 4
_root$ = -32						; size = 16
__$EHRec$ = -12						; size = 12
_buffer$ = 8						; size = 4
_count$ = 12						; size = 4
?PMC_FromByteArray@Internal@Core@Math@Palmtree@@YGPAU__tag_PMC_HANDLE_UINT@1234@PBEI@Z PROC ; Palmtree::Math::Core::Internal::PMC_FromByteArray

; 140  :     {

  00000	55		 push	 ebp
  00001	8b ec		 mov	 ebp, esp
  00003	6a ff		 push	 -1
  00005	68 00 00 00 00	 push	 __ehhandler$?PMC_FromByteArray@Internal@Core@Math@Palmtree@@YGPAU__tag_PMC_HANDLE_UINT@1234@PBEI@Z
  0000a	64 a1 00 00 00
	00		 mov	 eax, DWORD PTR fs:0
  00010	50		 push	 eax
  00011	83 ec 38	 sub	 esp, 56			; 00000038H
  00014	57		 push	 edi
  00015	8d 7d bc	 lea	 edi, DWORD PTR [ebp-68]
  00018	b9 0e 00 00 00	 mov	 ecx, 14			; 0000000eH
  0001d	b8 cc cc cc cc	 mov	 eax, -858993460		; ccccccccH
  00022	f3 ab		 rep stosd
  00024	a1 00 00 00 00	 mov	 eax, DWORD PTR ___security_cookie
  00029	33 c5		 xor	 eax, ebp
  0002b	50		 push	 eax
  0002c	8d 45 f4	 lea	 eax, DWORD PTR __$EHRec$[ebp]
  0002f	64 a3 00 00 00
	00		 mov	 DWORD PTR fs:0, eax
  00035	b9 00 00 00 00	 mov	 ecx, OFFSET __85CE5060_pmc_bytes@cpp
  0003a	e8 00 00 00 00	 call	 @__CheckForDebuggerJustMyCode@4

; 141  :         if (buffer == nullptr)

  0003f	83 7d 08 00	 cmp	 DWORD PTR _buffer$[ebp], 0
  00043	75 20		 jne	 SHORT $LN2@PMC_FromBy

; 142  :             throw ArgumentNullException(L"nullptr", L"buffer");

  00045	68 00 00 00 00	 push	 OFFSET $SG117982
  0004a	68 00 00 00 00	 push	 OFFSET $SG117983
  0004f	8d 4d c0	 lea	 ecx, DWORD PTR $T3[ebp]
  00052	e8 00 00 00 00	 call	 ??0ArgumentNullException@Internal@Core@Math@Palmtree@@QAE@PB_W0@Z ; Palmtree::Math::Core::Internal::ArgumentNullException::ArgumentNullException
  00057	68 00 00 00 00	 push	 OFFSET __TI2?AVArgumentNullException@Internal@Core@Math@Palmtree@@
  0005c	8d 45 c0	 lea	 eax, DWORD PTR $T3[ebp]
  0005f	50		 push	 eax
  00060	e8 00 00 00 00	 call	 __CxxThrowException@8
$LN2@PMC_FromBy:

; 143  :         ResourceHolderUINT root;

  00065	8d 4d e0	 lea	 ecx, DWORD PTR _root$[ebp]
  00068	e8 00 00 00 00	 call	 ??0ResourceHolderUINT@Internal@Core@Math@Palmtree@@QAE@XZ ; Palmtree::Math::Core::Internal::ResourceHolderUINT::ResourceHolderUINT
  0006d	c7 45 fc 00 00
	00 00		 mov	 DWORD PTR __$EHRec$[ebp+8], 0

; 144  :         NUMBER_HEADER* o = PMC_FromByteArray_Imp(buffer, count);

  00074	8b 4d 0c	 mov	 ecx, DWORD PTR _count$[ebp]
  00077	51		 push	 ecx
  00078	8b 55 08	 mov	 edx, DWORD PTR _buffer$[ebp]
  0007b	52		 push	 edx
  0007c	e8 00 00 00 00	 call	 ?PMC_FromByteArray_Imp@Internal@Core@Math@Palmtree@@YAPAU__tag_NUMBER_HEADER@1234@PBEI@Z ; Palmtree::Math::Core::Internal::PMC_FromByteArray_Imp
  00081	83 c4 08	 add	 esp, 8
  00084	89 45 d8	 mov	 DWORD PTR _o$[ebp], eax

; 145  :         root.HookNumber(o);

  00087	8b 45 d8	 mov	 eax, DWORD PTR _o$[ebp]
  0008a	50		 push	 eax
  0008b	8d 4d e0	 lea	 ecx, DWORD PTR _root$[ebp]
  0008e	e8 00 00 00 00	 call	 ?HookNumber@ResourceHolderUINT@Internal@Core@Math@Palmtree@@QAEXPAU__tag_NUMBER_HEADER@2345@@Z ; Palmtree::Math::Core::Internal::ResourceHolderUINT::HookNumber

; 146  : #ifdef _DEBUG
; 147  :         CheckNumber(o);

  00093	8b 4d d8	 mov	 ecx, DWORD PTR _o$[ebp]
  00096	51		 push	 ecx
  00097	e8 00 00 00 00	 call	 ?CheckNumber@Internal@Core@Math@Palmtree@@YAXPAU__tag_NUMBER_HEADER@1234@@Z ; Palmtree::Math::Core::Internal::CheckNumber
  0009c	83 c4 04	 add	 esp, 4

; 148  : #endif
; 149  :         root.UnlinkNumber(o);

  0009f	8b 55 d8	 mov	 edx, DWORD PTR _o$[ebp]
  000a2	52		 push	 edx
  000a3	8d 4d e0	 lea	 ecx, DWORD PTR _root$[ebp]
  000a6	e8 00 00 00 00	 call	 ?UnlinkNumber@ResourceHolderUINT@Internal@Core@Math@Palmtree@@QAEXPAU__tag_NUMBER_HEADER@2345@@Z ; Palmtree::Math::Core::Internal::ResourceHolderUINT::UnlinkNumber

; 150  :         return ((PMC_HANDLE_UINT)o);

  000ab	8b 45 d8	 mov	 eax, DWORD PTR _o$[ebp]
  000ae	89 45 bc	 mov	 DWORD PTR $T2[ebp], eax
  000b1	c7 45 fc ff ff
	ff ff		 mov	 DWORD PTR __$EHRec$[ebp+8], -1
  000b8	8d 4d e0	 lea	 ecx, DWORD PTR _root$[ebp]
  000bb	e8 00 00 00 00	 call	 ??1ResourceHolderUINT@Internal@Core@Math@Palmtree@@UAE@XZ ; Palmtree::Math::Core::Internal::ResourceHolderUINT::~ResourceHolderUINT
  000c0	8b 45 bc	 mov	 eax, DWORD PTR $T2[ebp]
$LN3@PMC_FromBy:

; 151  :     }

  000c3	52		 push	 edx
  000c4	8b cd		 mov	 ecx, ebp
  000c6	50		 push	 eax
  000c7	8d 15 00 00 00
	00		 lea	 edx, DWORD PTR $LN8@PMC_FromBy
  000cd	e8 00 00 00 00	 call	 @_RTC_CheckStackVars@8
  000d2	58		 pop	 eax
  000d3	5a		 pop	 edx
  000d4	8b 4d f4	 mov	 ecx, DWORD PTR __$EHRec$[ebp]
  000d7	64 89 0d 00 00
	00 00		 mov	 DWORD PTR fs:0, ecx
  000de	59		 pop	 ecx
  000df	5f		 pop	 edi
  000e0	83 c4 44	 add	 esp, 68			; 00000044H
  000e3	3b ec		 cmp	 ebp, esp
  000e5	e8 00 00 00 00	 call	 __RTC_CheckEsp
  000ea	8b e5		 mov	 esp, ebp
  000ec	5d		 pop	 ebp
  000ed	c2 08 00	 ret	 8
$LN8@PMC_FromBy:
  000f0	01 00 00 00	 DD	 1
  000f4	00 00 00 00	 DD	 $LN7@PMC_FromBy
$LN7@PMC_FromBy:
  000f8	e0 ff ff ff	 DD	 -32			; ffffffe0H
  000fc	10 00 00 00	 DD	 16			; 00000010H
  00100	00 00 00 00	 DD	 $LN5@PMC_FromBy
$LN5@PMC_FromBy:
  00104	72		 DB	 114			; 00000072H
  00105	6f		 DB	 111			; 0000006fH
  00106	6f		 DB	 111			; 0000006fH
  00107	74		 DB	 116			; 00000074H
  00108	00		 DB	 0
_TEXT	ENDS
text$x	SEGMENT
__unwindfunclet$?PMC_FromByteArray@Internal@Core@Math@Palmtree@@YGPAU__tag_PMC_HANDLE_UINT@1234@PBEI@Z$0:
  00000	8d 4d e0	 lea	 ecx, DWORD PTR _root$[ebp]
  00003	e9 00 00 00 00	 jmp	 ??1ResourceHolderUINT@Internal@Core@Math@Palmtree@@UAE@XZ ; Palmtree::Math::Core::Internal::ResourceHolderUINT::~ResourceHolderUINT
__ehhandler$?PMC_FromByteArray@Internal@Core@Math@Palmtree@@YGPAU__tag_PMC_HANDLE_UINT@1234@PBEI@Z:
  00008	8b 54 24 08	 mov	 edx, DWORD PTR [esp+8]
  0000c	8d 42 0c	 lea	 eax, DWORD PTR [edx+12]
  0000f	8b 4a c0	 mov	 ecx, DWORD PTR [edx-64]
  00012	33 c8		 xor	 ecx, eax
  00014	e8 00 00 00 00	 call	 @__security_check_cookie@4
  00019	b8 00 00 00 00	 mov	 eax, OFFSET __ehfuncinfo$?PMC_FromByteArray@Internal@Core@Math@Palmtree@@YGPAU__tag_PMC_HANDLE_UINT@1234@PBEI@Z
  0001e	e9 00 00 00 00	 jmp	 ___CxxFrameHandler3
text$x	ENDS
?PMC_FromByteArray@Internal@Core@Math@Palmtree@@YGPAU__tag_PMC_HANDLE_UINT@1234@PBEI@Z ENDP ; Palmtree::Math::Core::Internal::PMC_FromByteArray
; Function compile flags: /Odtp /RTCsu
;	COMDAT ??_GInternalErrorException@Internal@Core@Math@Palmtree@@UAEPAXI@Z
_TEXT	SEGMENT
_this$ = -4						; size = 4
___flags$ = 8						; size = 4
??_GInternalErrorException@Internal@Core@Math@Palmtree@@UAEPAXI@Z PROC ; Palmtree::Math::Core::Internal::InternalErrorException::`scalar deleting destructor', COMDAT
; _this$ = ecx
  00000	55		 push	 ebp
  00001	8b ec		 mov	 ebp, esp
  00003	51		 push	 ecx
  00004	c7 45 fc cc cc
	cc cc		 mov	 DWORD PTR [ebp-4], -858993460 ; ccccccccH
  0000b	89 4d fc	 mov	 DWORD PTR _this$[ebp], ecx
  0000e	8b 4d fc	 mov	 ecx, DWORD PTR _this$[ebp]
  00011	e8 00 00 00 00	 call	 ??1InternalErrorException@Internal@Core@Math@Palmtree@@UAE@XZ ; Palmtree::Math::Core::Internal::InternalErrorException::~InternalErrorException
  00016	8b 45 08	 mov	 eax, DWORD PTR ___flags$[ebp]
  00019	83 e0 01	 and	 eax, 1
  0001c	74 0e		 je	 SHORT $LN2@scalar
  0001e	6a 18		 push	 24			; 00000018H
  00020	8b 4d fc	 mov	 ecx, DWORD PTR _this$[ebp]
  00023	51		 push	 ecx
  00024	e8 00 00 00 00	 call	 ??3@YAXPAXI@Z		; operator delete
  00029	83 c4 08	 add	 esp, 8
$LN2@scalar:
  0002c	8b 45 fc	 mov	 eax, DWORD PTR _this$[ebp]
  0002f	83 c4 04	 add	 esp, 4
  00032	3b ec		 cmp	 ebp, esp
  00034	e8 00 00 00 00	 call	 __RTC_CheckEsp
  00039	8b e5		 mov	 esp, ebp
  0003b	5d		 pop	 ebp
  0003c	c2 04 00	 ret	 4
??_GInternalErrorException@Internal@Core@Math@Palmtree@@UAEPAXI@Z ENDP ; Palmtree::Math::Core::Internal::InternalErrorException::`scalar deleting destructor'
_TEXT	ENDS
; Function compile flags: /Odtp /RTCsu
; File z:\sources\lunor\repos\rougemeilland\palmtree.math.core.uint\palmtree.math.core.uint\pmc_exception.h
;	COMDAT ??1InternalErrorException@Internal@Core@Math@Palmtree@@UAE@XZ
_TEXT	SEGMENT
_this$ = -16						; size = 4
__$EHRec$ = -12						; size = 12
??1InternalErrorException@Internal@Core@Math@Palmtree@@UAE@XZ PROC ; Palmtree::Math::Core::Internal::InternalErrorException::~InternalErrorException, COMDAT
; _this$ = ecx

; 295  :         {

  00000	55		 push	 ebp
  00001	8b ec		 mov	 ebp, esp
  00003	6a ff		 push	 -1
  00005	68 00 00 00 00	 push	 __ehhandler$??1InternalErrorException@Internal@Core@Math@Palmtree@@UAE@XZ
  0000a	64 a1 00 00 00
	00		 mov	 eax, DWORD PTR fs:0
  00010	50		 push	 eax
  00011	51		 push	 ecx
  00012	c7 45 f0 cc cc
	cc cc		 mov	 DWORD PTR [ebp-16], -858993460 ; ccccccccH
  00019	a1 00 00 00 00	 mov	 eax, DWORD PTR ___security_cookie
  0001e	33 c5		 xor	 eax, ebp
  00020	50		 push	 eax
  00021	8d 45 f4	 lea	 eax, DWORD PTR __$EHRec$[ebp]
  00024	64 a3 00 00 00
	00		 mov	 DWORD PTR fs:0, eax
  0002a	89 4d f0	 mov	 DWORD PTR _this$[ebp], ecx
  0002d	b9 00 00 00 00	 mov	 ecx, OFFSET __802FEEC0_pmc_exception@h
  00032	e8 00 00 00 00	 call	 @__CheckForDebuggerJustMyCode@4
  00037	8b 45 f0	 mov	 eax, DWORD PTR _this$[ebp]
  0003a	c7 00 00 00 00
	00		 mov	 DWORD PTR [eax], OFFSET ??_7InternalErrorException@Internal@Core@Math@Palmtree@@6B@
  00040	c7 45 fc 00 00
	00 00		 mov	 DWORD PTR __$EHRec$[ebp+8], 0

; 296  :         }

  00047	c7 45 fc ff ff
	ff ff		 mov	 DWORD PTR __$EHRec$[ebp+8], -1
  0004e	8b 4d f0	 mov	 ecx, DWORD PTR _this$[ebp]
  00051	e8 00 00 00 00	 call	 ??1Exception@Internal@Core@Math@Palmtree@@UAE@XZ ; Palmtree::Math::Core::Internal::Exception::~Exception
  00056	8b 4d f4	 mov	 ecx, DWORD PTR __$EHRec$[ebp]
  00059	64 89 0d 00 00
	00 00		 mov	 DWORD PTR fs:0, ecx
  00060	59		 pop	 ecx
  00061	83 c4 10	 add	 esp, 16			; 00000010H
  00064	3b ec		 cmp	 ebp, esp
  00066	e8 00 00 00 00	 call	 __RTC_CheckEsp
  0006b	8b e5		 mov	 esp, ebp
  0006d	5d		 pop	 ebp
  0006e	c3		 ret	 0
_TEXT	ENDS
;	COMDAT text$x
text$x	SEGMENT
__unwindfunclet$??1InternalErrorException@Internal@Core@Math@Palmtree@@UAE@XZ$0:
  00000	8b 4d f0	 mov	 ecx, DWORD PTR _this$[ebp]
  00003	e9 00 00 00 00	 jmp	 ??1Exception@Internal@Core@Math@Palmtree@@UAE@XZ ; Palmtree::Math::Core::Internal::Exception::~Exception
__ehhandler$??1InternalErrorException@Internal@Core@Math@Palmtree@@UAE@XZ:
  00008	8b 54 24 08	 mov	 edx, DWORD PTR [esp+8]
  0000c	8d 42 0c	 lea	 eax, DWORD PTR [edx+12]
  0000f	8b 4a f8	 mov	 ecx, DWORD PTR [edx-8]
  00012	33 c8		 xor	 ecx, eax
  00014	e8 00 00 00 00	 call	 @__security_check_cookie@4
  00019	b8 00 00 00 00	 mov	 eax, OFFSET __ehfuncinfo$??1InternalErrorException@Internal@Core@Math@Palmtree@@UAE@XZ
  0001e	e9 00 00 00 00	 jmp	 ___CxxFrameHandler3
text$x	ENDS
??1InternalErrorException@Internal@Core@Math@Palmtree@@UAE@XZ ENDP ; Palmtree::Math::Core::Internal::InternalErrorException::~InternalErrorException
; Function compile flags: /Odtp /RTCsu
; File z:\sources\lunor\repos\rougemeilland\palmtree.math.core.uint\palmtree.math.core.uint\pmc_exception.h
;	COMDAT ??0InternalErrorException@Internal@Core@Math@Palmtree@@QAE@ABV01234@@Z
_TEXT	SEGMENT
_this$ = -16						; size = 4
__$EHRec$ = -12						; size = 12
_p$ = 8							; size = 4
??0InternalErrorException@Internal@Core@Math@Palmtree@@QAE@ABV01234@@Z PROC ; Palmtree::Math::Core::Internal::InternalErrorException::InternalErrorException, COMDAT
; _this$ = ecx

; 291  :         {

  00000	55		 push	 ebp
  00001	8b ec		 mov	 ebp, esp
  00003	6a ff		 push	 -1
  00005	68 00 00 00 00	 push	 __ehhandler$??0InternalErrorException@Internal@Core@Math@Palmtree@@QAE@ABV01234@@Z
  0000a	64 a1 00 00 00
	00		 mov	 eax, DWORD PTR fs:0
  00010	50		 push	 eax
  00011	51		 push	 ecx
  00012	c7 45 f0 cc cc
	cc cc		 mov	 DWORD PTR [ebp-16], -858993460 ; ccccccccH
  00019	a1 00 00 00 00	 mov	 eax, DWORD PTR ___security_cookie
  0001e	33 c5		 xor	 eax, ebp
  00020	50		 push	 eax
  00021	8d 45 f4	 lea	 eax, DWORD PTR __$EHRec$[ebp]
  00024	64 a3 00 00 00
	00		 mov	 DWORD PTR fs:0, eax
  0002a	89 4d f0	 mov	 DWORD PTR _this$[ebp], ecx
  0002d	b9 00 00 00 00	 mov	 ecx, OFFSET __802FEEC0_pmc_exception@h
  00032	e8 00 00 00 00	 call	 @__CheckForDebuggerJustMyCode@4

; 290  :             : Exception(p)

  00037	8b 45 08	 mov	 eax, DWORD PTR _p$[ebp]
  0003a	50		 push	 eax
  0003b	8b 4d f0	 mov	 ecx, DWORD PTR _this$[ebp]
  0003e	e8 00 00 00 00	 call	 ??0Exception@Internal@Core@Math@Palmtree@@QAE@ABV01234@@Z ; Palmtree::Math::Core::Internal::Exception::Exception
  00043	c7 45 fc 00 00
	00 00		 mov	 DWORD PTR __$EHRec$[ebp+8], 0

; 291  :         {

  0004a	8b 4d f0	 mov	 ecx, DWORD PTR _this$[ebp]
  0004d	c7 01 00 00 00
	00		 mov	 DWORD PTR [ecx], OFFSET ??_7InternalErrorException@Internal@Core@Math@Palmtree@@6B@

; 292  :         }

  00053	c7 45 fc ff ff
	ff ff		 mov	 DWORD PTR __$EHRec$[ebp+8], -1
  0005a	8b 45 f0	 mov	 eax, DWORD PTR _this$[ebp]
  0005d	8b 4d f4	 mov	 ecx, DWORD PTR __$EHRec$[ebp]
  00060	64 89 0d 00 00
	00 00		 mov	 DWORD PTR fs:0, ecx
  00067	59		 pop	 ecx
  00068	83 c4 10	 add	 esp, 16			; 00000010H
  0006b	3b ec		 cmp	 ebp, esp
  0006d	e8 00 00 00 00	 call	 __RTC_CheckEsp
  00072	8b e5		 mov	 esp, ebp
  00074	5d		 pop	 ebp
  00075	c2 04 00	 ret	 4
_TEXT	ENDS
;	COMDAT text$x
text$x	SEGMENT
__unwindfunclet$??0InternalErrorException@Internal@Core@Math@Palmtree@@QAE@ABV01234@@Z$0:
  00000	8b 4d f0	 mov	 ecx, DWORD PTR _this$[ebp]
  00003	e9 00 00 00 00	 jmp	 ??1Exception@Internal@Core@Math@Palmtree@@UAE@XZ ; Palmtree::Math::Core::Internal::Exception::~Exception
__ehhandler$??0InternalErrorException@Internal@Core@Math@Palmtree@@QAE@ABV01234@@Z:
  00008	8b 54 24 08	 mov	 edx, DWORD PTR [esp+8]
  0000c	8d 42 0c	 lea	 eax, DWORD PTR [edx+12]
  0000f	8b 4a f8	 mov	 ecx, DWORD PTR [edx-8]
  00012	33 c8		 xor	 ecx, eax
  00014	e8 00 00 00 00	 call	 @__security_check_cookie@4
  00019	b8 00 00 00 00	 mov	 eax, OFFSET __ehfuncinfo$??0InternalErrorException@Internal@Core@Math@Palmtree@@QAE@ABV01234@@Z
  0001e	e9 00 00 00 00	 jmp	 ___CxxFrameHandler3
text$x	ENDS
??0InternalErrorException@Internal@Core@Math@Palmtree@@QAE@ABV01234@@Z ENDP ; Palmtree::Math::Core::Internal::InternalErrorException::InternalErrorException
; Function compile flags: /Odtp /RTCsu
; File z:\sources\lunor\repos\rougemeilland\palmtree.math.core.uint\palmtree.math.core.uint\pmc_exception.h
;	COMDAT ??0InternalErrorException@Internal@Core@Math@Palmtree@@QAE@PB_W0@Z
_TEXT	SEGMENT
_this$ = -16						; size = 4
__$EHRec$ = -12						; size = 12
_message$ = 8						; size = 4
_data$ = 12						; size = 4
??0InternalErrorException@Internal@Core@Math@Palmtree@@QAE@PB_W0@Z PROC ; Palmtree::Math::Core::Internal::InternalErrorException::InternalErrorException, COMDAT
; _this$ = ecx

; 286  :         {

  00000	55		 push	 ebp
  00001	8b ec		 mov	 ebp, esp
  00003	6a ff		 push	 -1
  00005	68 00 00 00 00	 push	 __ehhandler$??0InternalErrorException@Internal@Core@Math@Palmtree@@QAE@PB_W0@Z
  0000a	64 a1 00 00 00
	00		 mov	 eax, DWORD PTR fs:0
  00010	50		 push	 eax
  00011	51		 push	 ecx
  00012	c7 45 f0 cc cc
	cc cc		 mov	 DWORD PTR [ebp-16], -858993460 ; ccccccccH
  00019	a1 00 00 00 00	 mov	 eax, DWORD PTR ___security_cookie
  0001e	33 c5		 xor	 eax, ebp
  00020	50		 push	 eax
  00021	8d 45 f4	 lea	 eax, DWORD PTR __$EHRec$[ebp]
  00024	64 a3 00 00 00
	00		 mov	 DWORD PTR fs:0, eax
  0002a	89 4d f0	 mov	 DWORD PTR _this$[ebp], ecx
  0002d	b9 00 00 00 00	 mov	 ecx, OFFSET __802FEEC0_pmc_exception@h
  00032	e8 00 00 00 00	 call	 @__CheckForDebuggerJustMyCode@4

; 285  :             : Exception(PMC_STATUS_INTERNAL_ERROR, message, data)

  00037	8b 45 0c	 mov	 eax, DWORD PTR _data$[ebp]
  0003a	50		 push	 eax
  0003b	8b 4d 08	 mov	 ecx, DWORD PTR _message$[ebp]
  0003e	51		 push	 ecx
  0003f	68 00 ff ff ff	 push	 -256			; ffffff00H
  00044	8b 4d f0	 mov	 ecx, DWORD PTR _this$[ebp]
  00047	e8 00 00 00 00	 call	 ??0Exception@Internal@Core@Math@Palmtree@@IAE@HPB_W0@Z ; Palmtree::Math::Core::Internal::Exception::Exception
  0004c	c7 45 fc 00 00
	00 00		 mov	 DWORD PTR __$EHRec$[ebp+8], 0

; 286  :         {

  00053	8b 55 f0	 mov	 edx, DWORD PTR _this$[ebp]
  00056	c7 02 00 00 00
	00		 mov	 DWORD PTR [edx], OFFSET ??_7InternalErrorException@Internal@Core@Math@Palmtree@@6B@

; 287  :         }

  0005c	c7 45 fc ff ff
	ff ff		 mov	 DWORD PTR __$EHRec$[ebp+8], -1
  00063	8b 45 f0	 mov	 eax, DWORD PTR _this$[ebp]
  00066	8b 4d f4	 mov	 ecx, DWORD PTR __$EHRec$[ebp]
  00069	64 89 0d 00 00
	00 00		 mov	 DWORD PTR fs:0, ecx
  00070	59		 pop	 ecx
  00071	83 c4 10	 add	 esp, 16			; 00000010H
  00074	3b ec		 cmp	 ebp, esp
  00076	e8 00 00 00 00	 call	 __RTC_CheckEsp
  0007b	8b e5		 mov	 esp, ebp
  0007d	5d		 pop	 ebp
  0007e	c2 08 00	 ret	 8
_TEXT	ENDS
;	COMDAT text$x
text$x	SEGMENT
__unwindfunclet$??0InternalErrorException@Internal@Core@Math@Palmtree@@QAE@PB_W0@Z$0:
  00000	8b 4d f0	 mov	 ecx, DWORD PTR _this$[ebp]
  00003	e9 00 00 00 00	 jmp	 ??1Exception@Internal@Core@Math@Palmtree@@UAE@XZ ; Palmtree::Math::Core::Internal::Exception::~Exception
__ehhandler$??0InternalErrorException@Internal@Core@Math@Palmtree@@QAE@PB_W0@Z:
  00008	8b 54 24 08	 mov	 edx, DWORD PTR [esp+8]
  0000c	8d 42 0c	 lea	 eax, DWORD PTR [edx+12]
  0000f	8b 4a f8	 mov	 ecx, DWORD PTR [edx-8]
  00012	33 c8		 xor	 ecx, eax
  00014	e8 00 00 00 00	 call	 @__security_check_cookie@4
  00019	b8 00 00 00 00	 mov	 eax, OFFSET __ehfuncinfo$??0InternalErrorException@Internal@Core@Math@Palmtree@@QAE@PB_W0@Z
  0001e	e9 00 00 00 00	 jmp	 ___CxxFrameHandler3
text$x	ENDS
??0InternalErrorException@Internal@Core@Math@Palmtree@@QAE@PB_W0@Z ENDP ; Palmtree::Math::Core::Internal::InternalErrorException::InternalErrorException
; Function compile flags: /Odtp /RTCsu
;	COMDAT ??_GInsufficientBufferException@Internal@Core@Math@Palmtree@@UAEPAXI@Z
_TEXT	SEGMENT
_this$ = -4						; size = 4
___flags$ = 8						; size = 4
??_GInsufficientBufferException@Internal@Core@Math@Palmtree@@UAEPAXI@Z PROC ; Palmtree::Math::Core::Internal::InsufficientBufferException::`scalar deleting destructor', COMDAT
; _this$ = ecx
  00000	55		 push	 ebp
  00001	8b ec		 mov	 ebp, esp
  00003	51		 push	 ecx
  00004	c7 45 fc cc cc
	cc cc		 mov	 DWORD PTR [ebp-4], -858993460 ; ccccccccH
  0000b	89 4d fc	 mov	 DWORD PTR _this$[ebp], ecx
  0000e	8b 4d fc	 mov	 ecx, DWORD PTR _this$[ebp]
  00011	e8 00 00 00 00	 call	 ??1InsufficientBufferException@Internal@Core@Math@Palmtree@@UAE@XZ ; Palmtree::Math::Core::Internal::InsufficientBufferException::~InsufficientBufferException
  00016	8b 45 08	 mov	 eax, DWORD PTR ___flags$[ebp]
  00019	83 e0 01	 and	 eax, 1
  0001c	74 0e		 je	 SHORT $LN2@scalar
  0001e	6a 18		 push	 24			; 00000018H
  00020	8b 4d fc	 mov	 ecx, DWORD PTR _this$[ebp]
  00023	51		 push	 ecx
  00024	e8 00 00 00 00	 call	 ??3@YAXPAXI@Z		; operator delete
  00029	83 c4 08	 add	 esp, 8
$LN2@scalar:
  0002c	8b 45 fc	 mov	 eax, DWORD PTR _this$[ebp]
  0002f	83 c4 04	 add	 esp, 4
  00032	3b ec		 cmp	 ebp, esp
  00034	e8 00 00 00 00	 call	 __RTC_CheckEsp
  00039	8b e5		 mov	 esp, ebp
  0003b	5d		 pop	 ebp
  0003c	c2 04 00	 ret	 4
??_GInsufficientBufferException@Internal@Core@Math@Palmtree@@UAEPAXI@Z ENDP ; Palmtree::Math::Core::Internal::InsufficientBufferException::`scalar deleting destructor'
_TEXT	ENDS
; Function compile flags: /Odtp /RTCsu
; File z:\sources\lunor\repos\rougemeilland\palmtree.math.core.uint\palmtree.math.core.uint\pmc_exception.h
;	COMDAT ??1InsufficientBufferException@Internal@Core@Math@Palmtree@@UAE@XZ
_TEXT	SEGMENT
_this$ = -16						; size = 4
__$EHRec$ = -12						; size = 12
??1InsufficientBufferException@Internal@Core@Math@Palmtree@@UAE@XZ PROC ; Palmtree::Math::Core::Internal::InsufficientBufferException::~InsufficientBufferException, COMDAT
; _this$ = ecx

; 238  :         {

  00000	55		 push	 ebp
  00001	8b ec		 mov	 ebp, esp
  00003	6a ff		 push	 -1
  00005	68 00 00 00 00	 push	 __ehhandler$??1InsufficientBufferException@Internal@Core@Math@Palmtree@@UAE@XZ
  0000a	64 a1 00 00 00
	00		 mov	 eax, DWORD PTR fs:0
  00010	50		 push	 eax
  00011	51		 push	 ecx
  00012	c7 45 f0 cc cc
	cc cc		 mov	 DWORD PTR [ebp-16], -858993460 ; ccccccccH
  00019	a1 00 00 00 00	 mov	 eax, DWORD PTR ___security_cookie
  0001e	33 c5		 xor	 eax, ebp
  00020	50		 push	 eax
  00021	8d 45 f4	 lea	 eax, DWORD PTR __$EHRec$[ebp]
  00024	64 a3 00 00 00
	00		 mov	 DWORD PTR fs:0, eax
  0002a	89 4d f0	 mov	 DWORD PTR _this$[ebp], ecx
  0002d	b9 00 00 00 00	 mov	 ecx, OFFSET __802FEEC0_pmc_exception@h
  00032	e8 00 00 00 00	 call	 @__CheckForDebuggerJustMyCode@4
  00037	8b 45 f0	 mov	 eax, DWORD PTR _this$[ebp]
  0003a	c7 00 00 00 00
	00		 mov	 DWORD PTR [eax], OFFSET ??_7InsufficientBufferException@Internal@Core@Math@Palmtree@@6B@
  00040	c7 45 fc 00 00
	00 00		 mov	 DWORD PTR __$EHRec$[ebp+8], 0

; 239  :         }

  00047	c7 45 fc ff ff
	ff ff		 mov	 DWORD PTR __$EHRec$[ebp+8], -1
  0004e	8b 4d f0	 mov	 ecx, DWORD PTR _this$[ebp]
  00051	e8 00 00 00 00	 call	 ??1Exception@Internal@Core@Math@Palmtree@@UAE@XZ ; Palmtree::Math::Core::Internal::Exception::~Exception
  00056	8b 4d f4	 mov	 ecx, DWORD PTR __$EHRec$[ebp]
  00059	64 89 0d 00 00
	00 00		 mov	 DWORD PTR fs:0, ecx
  00060	59		 pop	 ecx
  00061	83 c4 10	 add	 esp, 16			; 00000010H
  00064	3b ec		 cmp	 ebp, esp
  00066	e8 00 00 00 00	 call	 __RTC_CheckEsp
  0006b	8b e5		 mov	 esp, ebp
  0006d	5d		 pop	 ebp
  0006e	c3		 ret	 0
_TEXT	ENDS
;	COMDAT text$x
text$x	SEGMENT
__unwindfunclet$??1InsufficientBufferException@Internal@Core@Math@Palmtree@@UAE@XZ$0:
  00000	8b 4d f0	 mov	 ecx, DWORD PTR _this$[ebp]
  00003	e9 00 00 00 00	 jmp	 ??1Exception@Internal@Core@Math@Palmtree@@UAE@XZ ; Palmtree::Math::Core::Internal::Exception::~Exception
__ehhandler$??1InsufficientBufferException@Internal@Core@Math@Palmtree@@UAE@XZ:
  00008	8b 54 24 08	 mov	 edx, DWORD PTR [esp+8]
  0000c	8d 42 0c	 lea	 eax, DWORD PTR [edx+12]
  0000f	8b 4a f8	 mov	 ecx, DWORD PTR [edx-8]
  00012	33 c8		 xor	 ecx, eax
  00014	e8 00 00 00 00	 call	 @__security_check_cookie@4
  00019	b8 00 00 00 00	 mov	 eax, OFFSET __ehfuncinfo$??1InsufficientBufferException@Internal@Core@Math@Palmtree@@UAE@XZ
  0001e	e9 00 00 00 00	 jmp	 ___CxxFrameHandler3
text$x	ENDS
??1InsufficientBufferException@Internal@Core@Math@Palmtree@@UAE@XZ ENDP ; Palmtree::Math::Core::Internal::InsufficientBufferException::~InsufficientBufferException
; Function compile flags: /Odtp /RTCsu
; File z:\sources\lunor\repos\rougemeilland\palmtree.math.core.uint\palmtree.math.core.uint\pmc_exception.h
;	COMDAT ??0InsufficientBufferException@Internal@Core@Math@Palmtree@@QAE@ABV01234@@Z
_TEXT	SEGMENT
_this$ = -16						; size = 4
__$EHRec$ = -12						; size = 12
_p$ = 8							; size = 4
??0InsufficientBufferException@Internal@Core@Math@Palmtree@@QAE@ABV01234@@Z PROC ; Palmtree::Math::Core::Internal::InsufficientBufferException::InsufficientBufferException, COMDAT
; _this$ = ecx

; 234  :         {

  00000	55		 push	 ebp
  00001	8b ec		 mov	 ebp, esp
  00003	6a ff		 push	 -1
  00005	68 00 00 00 00	 push	 __ehhandler$??0InsufficientBufferException@Internal@Core@Math@Palmtree@@QAE@ABV01234@@Z
  0000a	64 a1 00 00 00
	00		 mov	 eax, DWORD PTR fs:0
  00010	50		 push	 eax
  00011	51		 push	 ecx
  00012	c7 45 f0 cc cc
	cc cc		 mov	 DWORD PTR [ebp-16], -858993460 ; ccccccccH
  00019	a1 00 00 00 00	 mov	 eax, DWORD PTR ___security_cookie
  0001e	33 c5		 xor	 eax, ebp
  00020	50		 push	 eax
  00021	8d 45 f4	 lea	 eax, DWORD PTR __$EHRec$[ebp]
  00024	64 a3 00 00 00
	00		 mov	 DWORD PTR fs:0, eax
  0002a	89 4d f0	 mov	 DWORD PTR _this$[ebp], ecx
  0002d	b9 00 00 00 00	 mov	 ecx, OFFSET __802FEEC0_pmc_exception@h
  00032	e8 00 00 00 00	 call	 @__CheckForDebuggerJustMyCode@4

; 233  :             : Exception(p)

  00037	8b 45 08	 mov	 eax, DWORD PTR _p$[ebp]
  0003a	50		 push	 eax
  0003b	8b 4d f0	 mov	 ecx, DWORD PTR _this$[ebp]
  0003e	e8 00 00 00 00	 call	 ??0Exception@Internal@Core@Math@Palmtree@@QAE@ABV01234@@Z ; Palmtree::Math::Core::Internal::Exception::Exception
  00043	c7 45 fc 00 00
	00 00		 mov	 DWORD PTR __$EHRec$[ebp+8], 0

; 234  :         {

  0004a	8b 4d f0	 mov	 ecx, DWORD PTR _this$[ebp]
  0004d	c7 01 00 00 00
	00		 mov	 DWORD PTR [ecx], OFFSET ??_7InsufficientBufferException@Internal@Core@Math@Palmtree@@6B@

; 235  :         }

  00053	c7 45 fc ff ff
	ff ff		 mov	 DWORD PTR __$EHRec$[ebp+8], -1
  0005a	8b 45 f0	 mov	 eax, DWORD PTR _this$[ebp]
  0005d	8b 4d f4	 mov	 ecx, DWORD PTR __$EHRec$[ebp]
  00060	64 89 0d 00 00
	00 00		 mov	 DWORD PTR fs:0, ecx
  00067	59		 pop	 ecx
  00068	83 c4 10	 add	 esp, 16			; 00000010H
  0006b	3b ec		 cmp	 ebp, esp
  0006d	e8 00 00 00 00	 call	 __RTC_CheckEsp
  00072	8b e5		 mov	 esp, ebp
  00074	5d		 pop	 ebp
  00075	c2 04 00	 ret	 4
_TEXT	ENDS
;	COMDAT text$x
text$x	SEGMENT
__unwindfunclet$??0InsufficientBufferException@Internal@Core@Math@Palmtree@@QAE@ABV01234@@Z$0:
  00000	8b 4d f0	 mov	 ecx, DWORD PTR _this$[ebp]
  00003	e9 00 00 00 00	 jmp	 ??1Exception@Internal@Core@Math@Palmtree@@UAE@XZ ; Palmtree::Math::Core::Internal::Exception::~Exception
__ehhandler$??0InsufficientBufferException@Internal@Core@Math@Palmtree@@QAE@ABV01234@@Z:
  00008	8b 54 24 08	 mov	 edx, DWORD PTR [esp+8]
  0000c	8d 42 0c	 lea	 eax, DWORD PTR [edx+12]
  0000f	8b 4a f8	 mov	 ecx, DWORD PTR [edx-8]
  00012	33 c8		 xor	 ecx, eax
  00014	e8 00 00 00 00	 call	 @__security_check_cookie@4
  00019	b8 00 00 00 00	 mov	 eax, OFFSET __ehfuncinfo$??0InsufficientBufferException@Internal@Core@Math@Palmtree@@QAE@ABV01234@@Z
  0001e	e9 00 00 00 00	 jmp	 ___CxxFrameHandler3
text$x	ENDS
??0InsufficientBufferException@Internal@Core@Math@Palmtree@@QAE@ABV01234@@Z ENDP ; Palmtree::Math::Core::Internal::InsufficientBufferException::InsufficientBufferException
; Function compile flags: /Odtp /RTCsu
; File z:\sources\lunor\repos\rougemeilland\palmtree.math.core.uint\palmtree.math.core.uint\pmc_exception.h
;	COMDAT ??0InsufficientBufferException@Internal@Core@Math@Palmtree@@QAE@PB_W@Z
_TEXT	SEGMENT
_this$ = -16						; size = 4
__$EHRec$ = -12						; size = 12
_message$ = 8						; size = 4
??0InsufficientBufferException@Internal@Core@Math@Palmtree@@QAE@PB_W@Z PROC ; Palmtree::Math::Core::Internal::InsufficientBufferException::InsufficientBufferException, COMDAT
; _this$ = ecx

; 229  :         {

  00000	55		 push	 ebp
  00001	8b ec		 mov	 ebp, esp
  00003	6a ff		 push	 -1
  00005	68 00 00 00 00	 push	 __ehhandler$??0InsufficientBufferException@Internal@Core@Math@Palmtree@@QAE@PB_W@Z
  0000a	64 a1 00 00 00
	00		 mov	 eax, DWORD PTR fs:0
  00010	50		 push	 eax
  00011	51		 push	 ecx
  00012	c7 45 f0 cc cc
	cc cc		 mov	 DWORD PTR [ebp-16], -858993460 ; ccccccccH
  00019	a1 00 00 00 00	 mov	 eax, DWORD PTR ___security_cookie
  0001e	33 c5		 xor	 eax, ebp
  00020	50		 push	 eax
  00021	8d 45 f4	 lea	 eax, DWORD PTR __$EHRec$[ebp]
  00024	64 a3 00 00 00
	00		 mov	 DWORD PTR fs:0, eax
  0002a	89 4d f0	 mov	 DWORD PTR _this$[ebp], ecx
  0002d	b9 00 00 00 00	 mov	 ecx, OFFSET __802FEEC0_pmc_exception@h
  00032	e8 00 00 00 00	 call	 @__CheckForDebuggerJustMyCode@4

; 228  :             : Exception(PMC_STATUS_INSUFFICIENT_BUFFER, message)

  00037	8b 45 08	 mov	 eax, DWORD PTR _message$[ebp]
  0003a	50		 push	 eax
  0003b	6a f8		 push	 -8			; fffffff8H
  0003d	8b 4d f0	 mov	 ecx, DWORD PTR _this$[ebp]
  00040	e8 00 00 00 00	 call	 ??0Exception@Internal@Core@Math@Palmtree@@IAE@HPB_W@Z ; Palmtree::Math::Core::Internal::Exception::Exception
  00045	c7 45 fc 00 00
	00 00		 mov	 DWORD PTR __$EHRec$[ebp+8], 0

; 229  :         {

  0004c	8b 4d f0	 mov	 ecx, DWORD PTR _this$[ebp]
  0004f	c7 01 00 00 00
	00		 mov	 DWORD PTR [ecx], OFFSET ??_7InsufficientBufferException@Internal@Core@Math@Palmtree@@6B@

; 230  :         }

  00055	c7 45 fc ff ff
	ff ff		 mov	 DWORD PTR __$EHRec$[ebp+8], -1
  0005c	8b 45 f0	 mov	 eax, DWORD PTR _this$[ebp]
  0005f	8b 4d f4	 mov	 ecx, DWORD PTR __$EHRec$[ebp]
  00062	64 89 0d 00 00
	00 00		 mov	 DWORD PTR fs:0, ecx
  00069	59		 pop	 ecx
  0006a	83 c4 10	 add	 esp, 16			; 00000010H
  0006d	3b ec		 cmp	 ebp, esp
  0006f	e8 00 00 00 00	 call	 __RTC_CheckEsp
  00074	8b e5		 mov	 esp, ebp
  00076	5d		 pop	 ebp
  00077	c2 04 00	 ret	 4
_TEXT	ENDS
;	COMDAT text$x
text$x	SEGMENT
__unwindfunclet$??0InsufficientBufferException@Internal@Core@Math@Palmtree@@QAE@PB_W@Z$0:
  00000	8b 4d f0	 mov	 ecx, DWORD PTR _this$[ebp]
  00003	e9 00 00 00 00	 jmp	 ??1Exception@Internal@Core@Math@Palmtree@@UAE@XZ ; Palmtree::Math::Core::Internal::Exception::~Exception
__ehhandler$??0InsufficientBufferException@Internal@Core@Math@Palmtree@@QAE@PB_W@Z:
  00008	8b 54 24 08	 mov	 edx, DWORD PTR [esp+8]
  0000c	8d 42 0c	 lea	 eax, DWORD PTR [edx+12]
  0000f	8b 4a f8	 mov	 ecx, DWORD PTR [edx-8]
  00012	33 c8		 xor	 ecx, eax
  00014	e8 00 00 00 00	 call	 @__security_check_cookie@4
  00019	b8 00 00 00 00	 mov	 eax, OFFSET __ehfuncinfo$??0InsufficientBufferException@Internal@Core@Math@Palmtree@@QAE@PB_W@Z
  0001e	e9 00 00 00 00	 jmp	 ___CxxFrameHandler3
text$x	ENDS
??0InsufficientBufferException@Internal@Core@Math@Palmtree@@QAE@PB_W@Z ENDP ; Palmtree::Math::Core::Internal::InsufficientBufferException::InsufficientBufferException
; Function compile flags: /Odtp /RTCsu
;	COMDAT ??_GFormatException@Internal@Core@Math@Palmtree@@UAEPAXI@Z
_TEXT	SEGMENT
_this$ = -4						; size = 4
___flags$ = 8						; size = 4
??_GFormatException@Internal@Core@Math@Palmtree@@UAEPAXI@Z PROC ; Palmtree::Math::Core::Internal::FormatException::`scalar deleting destructor', COMDAT
; _this$ = ecx
  00000	55		 push	 ebp
  00001	8b ec		 mov	 ebp, esp
  00003	51		 push	 ecx
  00004	c7 45 fc cc cc
	cc cc		 mov	 DWORD PTR [ebp-4], -858993460 ; ccccccccH
  0000b	89 4d fc	 mov	 DWORD PTR _this$[ebp], ecx
  0000e	8b 4d fc	 mov	 ecx, DWORD PTR _this$[ebp]
  00011	e8 00 00 00 00	 call	 ??1FormatException@Internal@Core@Math@Palmtree@@UAE@XZ ; Palmtree::Math::Core::Internal::FormatException::~FormatException
  00016	8b 45 08	 mov	 eax, DWORD PTR ___flags$[ebp]
  00019	83 e0 01	 and	 eax, 1
  0001c	74 0e		 je	 SHORT $LN2@scalar
  0001e	6a 18		 push	 24			; 00000018H
  00020	8b 4d fc	 mov	 ecx, DWORD PTR _this$[ebp]
  00023	51		 push	 ecx
  00024	e8 00 00 00 00	 call	 ??3@YAXPAXI@Z		; operator delete
  00029	83 c4 08	 add	 esp, 8
$LN2@scalar:
  0002c	8b 45 fc	 mov	 eax, DWORD PTR _this$[ebp]
  0002f	83 c4 04	 add	 esp, 4
  00032	3b ec		 cmp	 ebp, esp
  00034	e8 00 00 00 00	 call	 __RTC_CheckEsp
  00039	8b e5		 mov	 esp, ebp
  0003b	5d		 pop	 ebp
  0003c	c2 04 00	 ret	 4
??_GFormatException@Internal@Core@Math@Palmtree@@UAEPAXI@Z ENDP ; Palmtree::Math::Core::Internal::FormatException::`scalar deleting destructor'
_TEXT	ENDS
; Function compile flags: /Odtp /RTCsu
; File z:\sources\lunor\repos\rougemeilland\palmtree.math.core.uint\palmtree.math.core.uint\pmc_exception.h
;	COMDAT ??1FormatException@Internal@Core@Math@Palmtree@@UAE@XZ
_TEXT	SEGMENT
_this$ = -16						; size = 4
__$EHRec$ = -12						; size = 12
??1FormatException@Internal@Core@Math@Palmtree@@UAE@XZ PROC ; Palmtree::Math::Core::Internal::FormatException::~FormatException, COMDAT
; _this$ = ecx

; 219  :         {

  00000	55		 push	 ebp
  00001	8b ec		 mov	 ebp, esp
  00003	6a ff		 push	 -1
  00005	68 00 00 00 00	 push	 __ehhandler$??1FormatException@Internal@Core@Math@Palmtree@@UAE@XZ
  0000a	64 a1 00 00 00
	00		 mov	 eax, DWORD PTR fs:0
  00010	50		 push	 eax
  00011	51		 push	 ecx
  00012	c7 45 f0 cc cc
	cc cc		 mov	 DWORD PTR [ebp-16], -858993460 ; ccccccccH
  00019	a1 00 00 00 00	 mov	 eax, DWORD PTR ___security_cookie
  0001e	33 c5		 xor	 eax, ebp
  00020	50		 push	 eax
  00021	8d 45 f4	 lea	 eax, DWORD PTR __$EHRec$[ebp]
  00024	64 a3 00 00 00
	00		 mov	 DWORD PTR fs:0, eax
  0002a	89 4d f0	 mov	 DWORD PTR _this$[ebp], ecx
  0002d	b9 00 00 00 00	 mov	 ecx, OFFSET __802FEEC0_pmc_exception@h
  00032	e8 00 00 00 00	 call	 @__CheckForDebuggerJustMyCode@4
  00037	8b 45 f0	 mov	 eax, DWORD PTR _this$[ebp]
  0003a	c7 00 00 00 00
	00		 mov	 DWORD PTR [eax], OFFSET ??_7FormatException@Internal@Core@Math@Palmtree@@6B@
  00040	c7 45 fc 00 00
	00 00		 mov	 DWORD PTR __$EHRec$[ebp+8], 0

; 220  :         }

  00047	c7 45 fc ff ff
	ff ff		 mov	 DWORD PTR __$EHRec$[ebp+8], -1
  0004e	8b 4d f0	 mov	 ecx, DWORD PTR _this$[ebp]
  00051	e8 00 00 00 00	 call	 ??1Exception@Internal@Core@Math@Palmtree@@UAE@XZ ; Palmtree::Math::Core::Internal::Exception::~Exception
  00056	8b 4d f4	 mov	 ecx, DWORD PTR __$EHRec$[ebp]
  00059	64 89 0d 00 00
	00 00		 mov	 DWORD PTR fs:0, ecx
  00060	59		 pop	 ecx
  00061	83 c4 10	 add	 esp, 16			; 00000010H
  00064	3b ec		 cmp	 ebp, esp
  00066	e8 00 00 00 00	 call	 __RTC_CheckEsp
  0006b	8b e5		 mov	 esp, ebp
  0006d	5d		 pop	 ebp
  0006e	c3		 ret	 0
_TEXT	ENDS
;	COMDAT text$x
text$x	SEGMENT
__unwindfunclet$??1FormatException@Internal@Core@Math@Palmtree@@UAE@XZ$0:
  00000	8b 4d f0	 mov	 ecx, DWORD PTR _this$[ebp]
  00003	e9 00 00 00 00	 jmp	 ??1Exception@Internal@Core@Math@Palmtree@@UAE@XZ ; Palmtree::Math::Core::Internal::Exception::~Exception
__ehhandler$??1FormatException@Internal@Core@Math@Palmtree@@UAE@XZ:
  00008	8b 54 24 08	 mov	 edx, DWORD PTR [esp+8]
  0000c	8d 42 0c	 lea	 eax, DWORD PTR [edx+12]
  0000f	8b 4a f8	 mov	 ecx, DWORD PTR [edx-8]
  00012	33 c8		 xor	 ecx, eax
  00014	e8 00 00 00 00	 call	 @__security_check_cookie@4
  00019	b8 00 00 00 00	 mov	 eax, OFFSET __ehfuncinfo$??1FormatException@Internal@Core@Math@Palmtree@@UAE@XZ
  0001e	e9 00 00 00 00	 jmp	 ___CxxFrameHandler3
text$x	ENDS
??1FormatException@Internal@Core@Math@Palmtree@@UAE@XZ ENDP ; Palmtree::Math::Core::Internal::FormatException::~FormatException
; Function compile flags: /Odtp /RTCsu
; File z:\sources\lunor\repos\rougemeilland\palmtree.math.core.uint\palmtree.math.core.uint\pmc_exception.h
;	COMDAT ??0FormatException@Internal@Core@Math@Palmtree@@QAE@ABV01234@@Z
_TEXT	SEGMENT
_this$ = -16						; size = 4
__$EHRec$ = -12						; size = 12
_p$ = 8							; size = 4
??0FormatException@Internal@Core@Math@Palmtree@@QAE@ABV01234@@Z PROC ; Palmtree::Math::Core::Internal::FormatException::FormatException, COMDAT
; _this$ = ecx

; 215  :         {

  00000	55		 push	 ebp
  00001	8b ec		 mov	 ebp, esp
  00003	6a ff		 push	 -1
  00005	68 00 00 00 00	 push	 __ehhandler$??0FormatException@Internal@Core@Math@Palmtree@@QAE@ABV01234@@Z
  0000a	64 a1 00 00 00
	00		 mov	 eax, DWORD PTR fs:0
  00010	50		 push	 eax
  00011	51		 push	 ecx
  00012	c7 45 f0 cc cc
	cc cc		 mov	 DWORD PTR [ebp-16], -858993460 ; ccccccccH
  00019	a1 00 00 00 00	 mov	 eax, DWORD PTR ___security_cookie
  0001e	33 c5		 xor	 eax, ebp
  00020	50		 push	 eax
  00021	8d 45 f4	 lea	 eax, DWORD PTR __$EHRec$[ebp]
  00024	64 a3 00 00 00
	00		 mov	 DWORD PTR fs:0, eax
  0002a	89 4d f0	 mov	 DWORD PTR _this$[ebp], ecx
  0002d	b9 00 00 00 00	 mov	 ecx, OFFSET __802FEEC0_pmc_exception@h
  00032	e8 00 00 00 00	 call	 @__CheckForDebuggerJustMyCode@4

; 214  :             : Exception(p)

  00037	8b 45 08	 mov	 eax, DWORD PTR _p$[ebp]
  0003a	50		 push	 eax
  0003b	8b 4d f0	 mov	 ecx, DWORD PTR _this$[ebp]
  0003e	e8 00 00 00 00	 call	 ??0Exception@Internal@Core@Math@Palmtree@@QAE@ABV01234@@Z ; Palmtree::Math::Core::Internal::Exception::Exception
  00043	c7 45 fc 00 00
	00 00		 mov	 DWORD PTR __$EHRec$[ebp+8], 0

; 215  :         {

  0004a	8b 4d f0	 mov	 ecx, DWORD PTR _this$[ebp]
  0004d	c7 01 00 00 00
	00		 mov	 DWORD PTR [ecx], OFFSET ??_7FormatException@Internal@Core@Math@Palmtree@@6B@

; 216  :         }

  00053	c7 45 fc ff ff
	ff ff		 mov	 DWORD PTR __$EHRec$[ebp+8], -1
  0005a	8b 45 f0	 mov	 eax, DWORD PTR _this$[ebp]
  0005d	8b 4d f4	 mov	 ecx, DWORD PTR __$EHRec$[ebp]
  00060	64 89 0d 00 00
	00 00		 mov	 DWORD PTR fs:0, ecx
  00067	59		 pop	 ecx
  00068	83 c4 10	 add	 esp, 16			; 00000010H
  0006b	3b ec		 cmp	 ebp, esp
  0006d	e8 00 00 00 00	 call	 __RTC_CheckEsp
  00072	8b e5		 mov	 esp, ebp
  00074	5d		 pop	 ebp
  00075	c2 04 00	 ret	 4
_TEXT	ENDS
;	COMDAT text$x
text$x	SEGMENT
__unwindfunclet$??0FormatException@Internal@Core@Math@Palmtree@@QAE@ABV01234@@Z$0:
  00000	8b 4d f0	 mov	 ecx, DWORD PTR _this$[ebp]
  00003	e9 00 00 00 00	 jmp	 ??1Exception@Internal@Core@Math@Palmtree@@UAE@XZ ; Palmtree::Math::Core::Internal::Exception::~Exception
__ehhandler$??0FormatException@Internal@Core@Math@Palmtree@@QAE@ABV01234@@Z:
  00008	8b 54 24 08	 mov	 edx, DWORD PTR [esp+8]
  0000c	8d 42 0c	 lea	 eax, DWORD PTR [edx+12]
  0000f	8b 4a f8	 mov	 ecx, DWORD PTR [edx-8]
  00012	33 c8		 xor	 ecx, eax
  00014	e8 00 00 00 00	 call	 @__security_check_cookie@4
  00019	b8 00 00 00 00	 mov	 eax, OFFSET __ehfuncinfo$??0FormatException@Internal@Core@Math@Palmtree@@QAE@ABV01234@@Z
  0001e	e9 00 00 00 00	 jmp	 ___CxxFrameHandler3
text$x	ENDS
??0FormatException@Internal@Core@Math@Palmtree@@QAE@ABV01234@@Z ENDP ; Palmtree::Math::Core::Internal::FormatException::FormatException
; Function compile flags: /Odtp /RTCsu
; File z:\sources\lunor\repos\rougemeilland\palmtree.math.core.uint\palmtree.math.core.uint\pmc_exception.h
;	COMDAT ??0FormatException@Internal@Core@Math@Palmtree@@QAE@PB_W@Z
_TEXT	SEGMENT
_this$ = -16						; size = 4
__$EHRec$ = -12						; size = 12
_message$ = 8						; size = 4
??0FormatException@Internal@Core@Math@Palmtree@@QAE@PB_W@Z PROC ; Palmtree::Math::Core::Internal::FormatException::FormatException, COMDAT
; _this$ = ecx

; 210  :         {

  00000	55		 push	 ebp
  00001	8b ec		 mov	 ebp, esp
  00003	6a ff		 push	 -1
  00005	68 00 00 00 00	 push	 __ehhandler$??0FormatException@Internal@Core@Math@Palmtree@@QAE@PB_W@Z
  0000a	64 a1 00 00 00
	00		 mov	 eax, DWORD PTR fs:0
  00010	50		 push	 eax
  00011	51		 push	 ecx
  00012	c7 45 f0 cc cc
	cc cc		 mov	 DWORD PTR [ebp-16], -858993460 ; ccccccccH
  00019	a1 00 00 00 00	 mov	 eax, DWORD PTR ___security_cookie
  0001e	33 c5		 xor	 eax, ebp
  00020	50		 push	 eax
  00021	8d 45 f4	 lea	 eax, DWORD PTR __$EHRec$[ebp]
  00024	64 a3 00 00 00
	00		 mov	 DWORD PTR fs:0, eax
  0002a	89 4d f0	 mov	 DWORD PTR _this$[ebp], ecx
  0002d	b9 00 00 00 00	 mov	 ecx, OFFSET __802FEEC0_pmc_exception@h
  00032	e8 00 00 00 00	 call	 @__CheckForDebuggerJustMyCode@4

; 209  :             : Exception(PMC_STATUS_FORMAT_ERROR, message)

  00037	8b 45 08	 mov	 eax, DWORD PTR _message$[ebp]
  0003a	50		 push	 eax
  0003b	6a f9		 push	 -7			; fffffff9H
  0003d	8b 4d f0	 mov	 ecx, DWORD PTR _this$[ebp]
  00040	e8 00 00 00 00	 call	 ??0Exception@Internal@Core@Math@Palmtree@@IAE@HPB_W@Z ; Palmtree::Math::Core::Internal::Exception::Exception
  00045	c7 45 fc 00 00
	00 00		 mov	 DWORD PTR __$EHRec$[ebp+8], 0

; 210  :         {

  0004c	8b 4d f0	 mov	 ecx, DWORD PTR _this$[ebp]
  0004f	c7 01 00 00 00
	00		 mov	 DWORD PTR [ecx], OFFSET ??_7FormatException@Internal@Core@Math@Palmtree@@6B@

; 211  :         }

  00055	c7 45 fc ff ff
	ff ff		 mov	 DWORD PTR __$EHRec$[ebp+8], -1
  0005c	8b 45 f0	 mov	 eax, DWORD PTR _this$[ebp]
  0005f	8b 4d f4	 mov	 ecx, DWORD PTR __$EHRec$[ebp]
  00062	64 89 0d 00 00
	00 00		 mov	 DWORD PTR fs:0, ecx
  00069	59		 pop	 ecx
  0006a	83 c4 10	 add	 esp, 16			; 00000010H
  0006d	3b ec		 cmp	 ebp, esp
  0006f	e8 00 00 00 00	 call	 __RTC_CheckEsp
  00074	8b e5		 mov	 esp, ebp
  00076	5d		 pop	 ebp
  00077	c2 04 00	 ret	 4
_TEXT	ENDS
;	COMDAT text$x
text$x	SEGMENT
__unwindfunclet$??0FormatException@Internal@Core@Math@Palmtree@@QAE@PB_W@Z$0:
  00000	8b 4d f0	 mov	 ecx, DWORD PTR _this$[ebp]
  00003	e9 00 00 00 00	 jmp	 ??1Exception@Internal@Core@Math@Palmtree@@UAE@XZ ; Palmtree::Math::Core::Internal::Exception::~Exception
__ehhandler$??0FormatException@Internal@Core@Math@Palmtree@@QAE@PB_W@Z:
  00008	8b 54 24 08	 mov	 edx, DWORD PTR [esp+8]
  0000c	8d 42 0c	 lea	 eax, DWORD PTR [edx+12]
  0000f	8b 4a f8	 mov	 ecx, DWORD PTR [edx-8]
  00012	33 c8		 xor	 ecx, eax
  00014	e8 00 00 00 00	 call	 @__security_check_cookie@4
  00019	b8 00 00 00 00	 mov	 eax, OFFSET __ehfuncinfo$??0FormatException@Internal@Core@Math@Palmtree@@QAE@PB_W@Z
  0001e	e9 00 00 00 00	 jmp	 ___CxxFrameHandler3
text$x	ENDS
??0FormatException@Internal@Core@Math@Palmtree@@QAE@PB_W@Z ENDP ; Palmtree::Math::Core::Internal::FormatException::FormatException
; Function compile flags: /Odtp /RTCsu
;	COMDAT ??_GArgumentNullException@Internal@Core@Math@Palmtree@@UAEPAXI@Z
_TEXT	SEGMENT
_this$ = -4						; size = 4
___flags$ = 8						; size = 4
??_GArgumentNullException@Internal@Core@Math@Palmtree@@UAEPAXI@Z PROC ; Palmtree::Math::Core::Internal::ArgumentNullException::`scalar deleting destructor', COMDAT
; _this$ = ecx
  00000	55		 push	 ebp
  00001	8b ec		 mov	 ebp, esp
  00003	51		 push	 ecx
  00004	c7 45 fc cc cc
	cc cc		 mov	 DWORD PTR [ebp-4], -858993460 ; ccccccccH
  0000b	89 4d fc	 mov	 DWORD PTR _this$[ebp], ecx
  0000e	8b 4d fc	 mov	 ecx, DWORD PTR _this$[ebp]
  00011	e8 00 00 00 00	 call	 ??1ArgumentNullException@Internal@Core@Math@Palmtree@@UAE@XZ ; Palmtree::Math::Core::Internal::ArgumentNullException::~ArgumentNullException
  00016	8b 45 08	 mov	 eax, DWORD PTR ___flags$[ebp]
  00019	83 e0 01	 and	 eax, 1
  0001c	74 0e		 je	 SHORT $LN2@scalar
  0001e	6a 18		 push	 24			; 00000018H
  00020	8b 4d fc	 mov	 ecx, DWORD PTR _this$[ebp]
  00023	51		 push	 ecx
  00024	e8 00 00 00 00	 call	 ??3@YAXPAXI@Z		; operator delete
  00029	83 c4 08	 add	 esp, 8
$LN2@scalar:
  0002c	8b 45 fc	 mov	 eax, DWORD PTR _this$[ebp]
  0002f	83 c4 04	 add	 esp, 4
  00032	3b ec		 cmp	 ebp, esp
  00034	e8 00 00 00 00	 call	 __RTC_CheckEsp
  00039	8b e5		 mov	 esp, ebp
  0003b	5d		 pop	 ebp
  0003c	c2 04 00	 ret	 4
??_GArgumentNullException@Internal@Core@Math@Palmtree@@UAEPAXI@Z ENDP ; Palmtree::Math::Core::Internal::ArgumentNullException::`scalar deleting destructor'
_TEXT	ENDS
; Function compile flags: /Odtp /RTCsu
; File z:\sources\lunor\repos\rougemeilland\palmtree.math.core.uint\palmtree.math.core.uint\pmc_exception.h
;	COMDAT ??1ArgumentNullException@Internal@Core@Math@Palmtree@@UAE@XZ
_TEXT	SEGMENT
_this$ = -16						; size = 4
__$EHRec$ = -12						; size = 12
??1ArgumentNullException@Internal@Core@Math@Palmtree@@UAE@XZ PROC ; Palmtree::Math::Core::Internal::ArgumentNullException::~ArgumentNullException, COMDAT
; _this$ = ecx

; 124  :         {

  00000	55		 push	 ebp
  00001	8b ec		 mov	 ebp, esp
  00003	6a ff		 push	 -1
  00005	68 00 00 00 00	 push	 __ehhandler$??1ArgumentNullException@Internal@Core@Math@Palmtree@@UAE@XZ
  0000a	64 a1 00 00 00
	00		 mov	 eax, DWORD PTR fs:0
  00010	50		 push	 eax
  00011	51		 push	 ecx
  00012	c7 45 f0 cc cc
	cc cc		 mov	 DWORD PTR [ebp-16], -858993460 ; ccccccccH
  00019	a1 00 00 00 00	 mov	 eax, DWORD PTR ___security_cookie
  0001e	33 c5		 xor	 eax, ebp
  00020	50		 push	 eax
  00021	8d 45 f4	 lea	 eax, DWORD PTR __$EHRec$[ebp]
  00024	64 a3 00 00 00
	00		 mov	 DWORD PTR fs:0, eax
  0002a	89 4d f0	 mov	 DWORD PTR _this$[ebp], ecx
  0002d	b9 00 00 00 00	 mov	 ecx, OFFSET __802FEEC0_pmc_exception@h
  00032	e8 00 00 00 00	 call	 @__CheckForDebuggerJustMyCode@4
  00037	8b 45 f0	 mov	 eax, DWORD PTR _this$[ebp]
  0003a	c7 00 00 00 00
	00		 mov	 DWORD PTR [eax], OFFSET ??_7ArgumentNullException@Internal@Core@Math@Palmtree@@6B@
  00040	c7 45 fc 00 00
	00 00		 mov	 DWORD PTR __$EHRec$[ebp+8], 0

; 125  :         }

  00047	c7 45 fc ff ff
	ff ff		 mov	 DWORD PTR __$EHRec$[ebp+8], -1
  0004e	8b 4d f0	 mov	 ecx, DWORD PTR _this$[ebp]
  00051	e8 00 00 00 00	 call	 ??1Exception@Internal@Core@Math@Palmtree@@UAE@XZ ; Palmtree::Math::Core::Internal::Exception::~Exception
  00056	8b 4d f4	 mov	 ecx, DWORD PTR __$EHRec$[ebp]
  00059	64 89 0d 00 00
	00 00		 mov	 DWORD PTR fs:0, ecx
  00060	59		 pop	 ecx
  00061	83 c4 10	 add	 esp, 16			; 00000010H
  00064	3b ec		 cmp	 ebp, esp
  00066	e8 00 00 00 00	 call	 __RTC_CheckEsp
  0006b	8b e5		 mov	 esp, ebp
  0006d	5d		 pop	 ebp
  0006e	c3		 ret	 0
_TEXT	ENDS
;	COMDAT text$x
text$x	SEGMENT
__unwindfunclet$??1ArgumentNullException@Internal@Core@Math@Palmtree@@UAE@XZ$0:
  00000	8b 4d f0	 mov	 ecx, DWORD PTR _this$[ebp]
  00003	e9 00 00 00 00	 jmp	 ??1Exception@Internal@Core@Math@Palmtree@@UAE@XZ ; Palmtree::Math::Core::Internal::Exception::~Exception
__ehhandler$??1ArgumentNullException@Internal@Core@Math@Palmtree@@UAE@XZ:
  00008	8b 54 24 08	 mov	 edx, DWORD PTR [esp+8]
  0000c	8d 42 0c	 lea	 eax, DWORD PTR [edx+12]
  0000f	8b 4a f8	 mov	 ecx, DWORD PTR [edx-8]
  00012	33 c8		 xor	 ecx, eax
  00014	e8 00 00 00 00	 call	 @__security_check_cookie@4
  00019	b8 00 00 00 00	 mov	 eax, OFFSET __ehfuncinfo$??1ArgumentNullException@Internal@Core@Math@Palmtree@@UAE@XZ
  0001e	e9 00 00 00 00	 jmp	 ___CxxFrameHandler3
text$x	ENDS
??1ArgumentNullException@Internal@Core@Math@Palmtree@@UAE@XZ ENDP ; Palmtree::Math::Core::Internal::ArgumentNullException::~ArgumentNullException
; Function compile flags: /Odtp /RTCsu
; File z:\sources\lunor\repos\rougemeilland\palmtree.math.core.uint\palmtree.math.core.uint\pmc_exception.h
;	COMDAT ??0ArgumentNullException@Internal@Core@Math@Palmtree@@QAE@ABV01234@@Z
_TEXT	SEGMENT
_this$ = -16						; size = 4
__$EHRec$ = -12						; size = 12
_p$ = 8							; size = 4
??0ArgumentNullException@Internal@Core@Math@Palmtree@@QAE@ABV01234@@Z PROC ; Palmtree::Math::Core::Internal::ArgumentNullException::ArgumentNullException, COMDAT
; _this$ = ecx

; 120  :         {

  00000	55		 push	 ebp
  00001	8b ec		 mov	 ebp, esp
  00003	6a ff		 push	 -1
  00005	68 00 00 00 00	 push	 __ehhandler$??0ArgumentNullException@Internal@Core@Math@Palmtree@@QAE@ABV01234@@Z
  0000a	64 a1 00 00 00
	00		 mov	 eax, DWORD PTR fs:0
  00010	50		 push	 eax
  00011	51		 push	 ecx
  00012	c7 45 f0 cc cc
	cc cc		 mov	 DWORD PTR [ebp-16], -858993460 ; ccccccccH
  00019	a1 00 00 00 00	 mov	 eax, DWORD PTR ___security_cookie
  0001e	33 c5		 xor	 eax, ebp
  00020	50		 push	 eax
  00021	8d 45 f4	 lea	 eax, DWORD PTR __$EHRec$[ebp]
  00024	64 a3 00 00 00
	00		 mov	 DWORD PTR fs:0, eax
  0002a	89 4d f0	 mov	 DWORD PTR _this$[ebp], ecx
  0002d	b9 00 00 00 00	 mov	 ecx, OFFSET __802FEEC0_pmc_exception@h
  00032	e8 00 00 00 00	 call	 @__CheckForDebuggerJustMyCode@4

; 119  :             : Exception(p)

  00037	8b 45 08	 mov	 eax, DWORD PTR _p$[ebp]
  0003a	50		 push	 eax
  0003b	8b 4d f0	 mov	 ecx, DWORD PTR _this$[ebp]
  0003e	e8 00 00 00 00	 call	 ??0Exception@Internal@Core@Math@Palmtree@@QAE@ABV01234@@Z ; Palmtree::Math::Core::Internal::Exception::Exception
  00043	c7 45 fc 00 00
	00 00		 mov	 DWORD PTR __$EHRec$[ebp+8], 0

; 120  :         {

  0004a	8b 4d f0	 mov	 ecx, DWORD PTR _this$[ebp]
  0004d	c7 01 00 00 00
	00		 mov	 DWORD PTR [ecx], OFFSET ??_7ArgumentNullException@Internal@Core@Math@Palmtree@@6B@

; 121  :         }

  00053	c7 45 fc ff ff
	ff ff		 mov	 DWORD PTR __$EHRec$[ebp+8], -1
  0005a	8b 45 f0	 mov	 eax, DWORD PTR _this$[ebp]
  0005d	8b 4d f4	 mov	 ecx, DWORD PTR __$EHRec$[ebp]
  00060	64 89 0d 00 00
	00 00		 mov	 DWORD PTR fs:0, ecx
  00067	59		 pop	 ecx
  00068	83 c4 10	 add	 esp, 16			; 00000010H
  0006b	3b ec		 cmp	 ebp, esp
  0006d	e8 00 00 00 00	 call	 __RTC_CheckEsp
  00072	8b e5		 mov	 esp, ebp
  00074	5d		 pop	 ebp
  00075	c2 04 00	 ret	 4
_TEXT	ENDS
;	COMDAT text$x
text$x	SEGMENT
__unwindfunclet$??0ArgumentNullException@Internal@Core@Math@Palmtree@@QAE@ABV01234@@Z$0:
  00000	8b 4d f0	 mov	 ecx, DWORD PTR _this$[ebp]
  00003	e9 00 00 00 00	 jmp	 ??1Exception@Internal@Core@Math@Palmtree@@UAE@XZ ; Palmtree::Math::Core::Internal::Exception::~Exception
__ehhandler$??0ArgumentNullException@Internal@Core@Math@Palmtree@@QAE@ABV01234@@Z:
  00008	8b 54 24 08	 mov	 edx, DWORD PTR [esp+8]
  0000c	8d 42 0c	 lea	 eax, DWORD PTR [edx+12]
  0000f	8b 4a f8	 mov	 ecx, DWORD PTR [edx-8]
  00012	33 c8		 xor	 ecx, eax
  00014	e8 00 00 00 00	 call	 @__security_check_cookie@4
  00019	b8 00 00 00 00	 mov	 eax, OFFSET __ehfuncinfo$??0ArgumentNullException@Internal@Core@Math@Palmtree@@QAE@ABV01234@@Z
  0001e	e9 00 00 00 00	 jmp	 ___CxxFrameHandler3
text$x	ENDS
??0ArgumentNullException@Internal@Core@Math@Palmtree@@QAE@ABV01234@@Z ENDP ; Palmtree::Math::Core::Internal::ArgumentNullException::ArgumentNullException
; Function compile flags: /Odtp /RTCsu
; File z:\sources\lunor\repos\rougemeilland\palmtree.math.core.uint\palmtree.math.core.uint\pmc_exception.h
;	COMDAT ??0ArgumentNullException@Internal@Core@Math@Palmtree@@QAE@PB_W0@Z
_TEXT	SEGMENT
_this$ = -16						; size = 4
__$EHRec$ = -12						; size = 12
_message$ = 8						; size = 4
_param_name$ = 12					; size = 4
??0ArgumentNullException@Internal@Core@Math@Palmtree@@QAE@PB_W0@Z PROC ; Palmtree::Math::Core::Internal::ArgumentNullException::ArgumentNullException, COMDAT
; _this$ = ecx

; 115  :         {

  00000	55		 push	 ebp
  00001	8b ec		 mov	 ebp, esp
  00003	6a ff		 push	 -1
  00005	68 00 00 00 00	 push	 __ehhandler$??0ArgumentNullException@Internal@Core@Math@Palmtree@@QAE@PB_W0@Z
  0000a	64 a1 00 00 00
	00		 mov	 eax, DWORD PTR fs:0
  00010	50		 push	 eax
  00011	51		 push	 ecx
  00012	c7 45 f0 cc cc
	cc cc		 mov	 DWORD PTR [ebp-16], -858993460 ; ccccccccH
  00019	a1 00 00 00 00	 mov	 eax, DWORD PTR ___security_cookie
  0001e	33 c5		 xor	 eax, ebp
  00020	50		 push	 eax
  00021	8d 45 f4	 lea	 eax, DWORD PTR __$EHRec$[ebp]
  00024	64 a3 00 00 00
	00		 mov	 DWORD PTR fs:0, eax
  0002a	89 4d f0	 mov	 DWORD PTR _this$[ebp], ecx
  0002d	b9 00 00 00 00	 mov	 ecx, OFFSET __802FEEC0_pmc_exception@h
  00032	e8 00 00 00 00	 call	 @__CheckForDebuggerJustMyCode@4

; 114  :             : Exception(PMC_STATUS_ARGUMENT_NULL_ERROR, message, param_name)

  00037	8b 45 0c	 mov	 eax, DWORD PTR _param_name$[ebp]
  0003a	50		 push	 eax
  0003b	8b 4d 08	 mov	 ecx, DWORD PTR _message$[ebp]
  0003e	51		 push	 ecx
  0003f	6a fe		 push	 -2			; fffffffeH
  00041	8b 4d f0	 mov	 ecx, DWORD PTR _this$[ebp]
  00044	e8 00 00 00 00	 call	 ??0Exception@Internal@Core@Math@Palmtree@@IAE@HPB_W0@Z ; Palmtree::Math::Core::Internal::Exception::Exception
  00049	c7 45 fc 00 00
	00 00		 mov	 DWORD PTR __$EHRec$[ebp+8], 0

; 115  :         {

  00050	8b 55 f0	 mov	 edx, DWORD PTR _this$[ebp]
  00053	c7 02 00 00 00
	00		 mov	 DWORD PTR [edx], OFFSET ??_7ArgumentNullException@Internal@Core@Math@Palmtree@@6B@

; 116  :         }

  00059	c7 45 fc ff ff
	ff ff		 mov	 DWORD PTR __$EHRec$[ebp+8], -1
  00060	8b 45 f0	 mov	 eax, DWORD PTR _this$[ebp]
  00063	8b 4d f4	 mov	 ecx, DWORD PTR __$EHRec$[ebp]
  00066	64 89 0d 00 00
	00 00		 mov	 DWORD PTR fs:0, ecx
  0006d	59		 pop	 ecx
  0006e	83 c4 10	 add	 esp, 16			; 00000010H
  00071	3b ec		 cmp	 ebp, esp
  00073	e8 00 00 00 00	 call	 __RTC_CheckEsp
  00078	8b e5		 mov	 esp, ebp
  0007a	5d		 pop	 ebp
  0007b	c2 08 00	 ret	 8
_TEXT	ENDS
;	COMDAT text$x
text$x	SEGMENT
__unwindfunclet$??0ArgumentNullException@Internal@Core@Math@Palmtree@@QAE@PB_W0@Z$0:
  00000	8b 4d f0	 mov	 ecx, DWORD PTR _this$[ebp]
  00003	e9 00 00 00 00	 jmp	 ??1Exception@Internal@Core@Math@Palmtree@@UAE@XZ ; Palmtree::Math::Core::Internal::Exception::~Exception
__ehhandler$??0ArgumentNullException@Internal@Core@Math@Palmtree@@QAE@PB_W0@Z:
  00008	8b 54 24 08	 mov	 edx, DWORD PTR [esp+8]
  0000c	8d 42 0c	 lea	 eax, DWORD PTR [edx+12]
  0000f	8b 4a f8	 mov	 ecx, DWORD PTR [edx-8]
  00012	33 c8		 xor	 ecx, eax
  00014	e8 00 00 00 00	 call	 @__security_check_cookie@4
  00019	b8 00 00 00 00	 mov	 eax, OFFSET __ehfuncinfo$??0ArgumentNullException@Internal@Core@Math@Palmtree@@QAE@PB_W0@Z
  0001e	e9 00 00 00 00	 jmp	 ___CxxFrameHandler3
text$x	ENDS
??0ArgumentNullException@Internal@Core@Math@Palmtree@@QAE@PB_W0@Z ENDP ; Palmtree::Math::Core::Internal::ArgumentNullException::ArgumentNullException
; Function compile flags: /Odtp /RTCsu
;	COMDAT ??_GException@Internal@Core@Math@Palmtree@@UAEPAXI@Z
_TEXT	SEGMENT
_this$ = -4						; size = 4
___flags$ = 8						; size = 4
??_GException@Internal@Core@Math@Palmtree@@UAEPAXI@Z PROC ; Palmtree::Math::Core::Internal::Exception::`scalar deleting destructor', COMDAT
; _this$ = ecx
  00000	55		 push	 ebp
  00001	8b ec		 mov	 ebp, esp
  00003	51		 push	 ecx
  00004	c7 45 fc cc cc
	cc cc		 mov	 DWORD PTR [ebp-4], -858993460 ; ccccccccH
  0000b	89 4d fc	 mov	 DWORD PTR _this$[ebp], ecx
  0000e	8b 4d fc	 mov	 ecx, DWORD PTR _this$[ebp]
  00011	e8 00 00 00 00	 call	 ??1Exception@Internal@Core@Math@Palmtree@@UAE@XZ ; Palmtree::Math::Core::Internal::Exception::~Exception
  00016	8b 45 08	 mov	 eax, DWORD PTR ___flags$[ebp]
  00019	83 e0 01	 and	 eax, 1
  0001c	74 0e		 je	 SHORT $LN2@scalar
  0001e	6a 18		 push	 24			; 00000018H
  00020	8b 4d fc	 mov	 ecx, DWORD PTR _this$[ebp]
  00023	51		 push	 ecx
  00024	e8 00 00 00 00	 call	 ??3@YAXPAXI@Z		; operator delete
  00029	83 c4 08	 add	 esp, 8
$LN2@scalar:
  0002c	8b 45 fc	 mov	 eax, DWORD PTR _this$[ebp]
  0002f	83 c4 04	 add	 esp, 4
  00032	3b ec		 cmp	 ebp, esp
  00034	e8 00 00 00 00	 call	 __RTC_CheckEsp
  00039	8b e5		 mov	 esp, ebp
  0003b	5d		 pop	 ebp
  0003c	c2 04 00	 ret	 4
??_GException@Internal@Core@Math@Palmtree@@UAEPAXI@Z ENDP ; Palmtree::Math::Core::Internal::Exception::`scalar deleting destructor'
_TEXT	ENDS
; Function compile flags: /Odtp /RTCsu
; File z:\sources\lunor\repos\rougemeilland\palmtree.math.core.uint\palmtree.math.core.uint\pmc_exception.h
;	COMDAT ??1Exception@Internal@Core@Math@Palmtree@@UAE@XZ
_TEXT	SEGMENT
_this$ = -16						; size = 4
__$EHRec$ = -12						; size = 12
??1Exception@Internal@Core@Math@Palmtree@@UAE@XZ PROC	; Palmtree::Math::Core::Internal::Exception::~Exception, COMDAT
; _this$ = ecx

; 70   :         {

  00000	55		 push	 ebp
  00001	8b ec		 mov	 ebp, esp
  00003	6a ff		 push	 -1
  00005	68 00 00 00 00	 push	 __ehhandler$??1Exception@Internal@Core@Math@Palmtree@@UAE@XZ
  0000a	64 a1 00 00 00
	00		 mov	 eax, DWORD PTR fs:0
  00010	50		 push	 eax
  00011	51		 push	 ecx
  00012	c7 45 f0 cc cc
	cc cc		 mov	 DWORD PTR [ebp-16], -858993460 ; ccccccccH
  00019	a1 00 00 00 00	 mov	 eax, DWORD PTR ___security_cookie
  0001e	33 c5		 xor	 eax, ebp
  00020	50		 push	 eax
  00021	8d 45 f4	 lea	 eax, DWORD PTR __$EHRec$[ebp]
  00024	64 a3 00 00 00
	00		 mov	 DWORD PTR fs:0, eax
  0002a	89 4d f0	 mov	 DWORD PTR _this$[ebp], ecx
  0002d	b9 00 00 00 00	 mov	 ecx, OFFSET __802FEEC0_pmc_exception@h
  00032	e8 00 00 00 00	 call	 @__CheckForDebuggerJustMyCode@4
  00037	8b 45 f0	 mov	 eax, DWORD PTR _this$[ebp]
  0003a	c7 00 00 00 00
	00		 mov	 DWORD PTR [eax], OFFSET ??_7Exception@Internal@Core@Math@Palmtree@@6B@
  00040	c7 45 fc 00 00
	00 00		 mov	 DWORD PTR __$EHRec$[ebp+8], 0

; 71   :         }

  00047	c7 45 fc ff ff
	ff ff		 mov	 DWORD PTR __$EHRec$[ebp+8], -1
  0004e	8b 4d f0	 mov	 ecx, DWORD PTR _this$[ebp]
  00051	e8 00 00 00 00	 call	 ??1exception@std@@UAE@XZ ; std::exception::~exception
  00056	8b 4d f4	 mov	 ecx, DWORD PTR __$EHRec$[ebp]
  00059	64 89 0d 00 00
	00 00		 mov	 DWORD PTR fs:0, ecx
  00060	59		 pop	 ecx
  00061	83 c4 10	 add	 esp, 16			; 00000010H
  00064	3b ec		 cmp	 ebp, esp
  00066	e8 00 00 00 00	 call	 __RTC_CheckEsp
  0006b	8b e5		 mov	 esp, ebp
  0006d	5d		 pop	 ebp
  0006e	c3		 ret	 0
_TEXT	ENDS
;	COMDAT text$x
text$x	SEGMENT
__unwindfunclet$??1Exception@Internal@Core@Math@Palmtree@@UAE@XZ$0:
  00000	8b 4d f0	 mov	 ecx, DWORD PTR _this$[ebp]
  00003	e9 00 00 00 00	 jmp	 ??1exception@std@@UAE@XZ ; std::exception::~exception
__ehhandler$??1Exception@Internal@Core@Math@Palmtree@@UAE@XZ:
  00008	8b 54 24 08	 mov	 edx, DWORD PTR [esp+8]
  0000c	8d 42 0c	 lea	 eax, DWORD PTR [edx+12]
  0000f	8b 4a f8	 mov	 ecx, DWORD PTR [edx-8]
  00012	33 c8		 xor	 ecx, eax
  00014	e8 00 00 00 00	 call	 @__security_check_cookie@4
  00019	b8 00 00 00 00	 mov	 eax, OFFSET __ehfuncinfo$??1Exception@Internal@Core@Math@Palmtree@@UAE@XZ
  0001e	e9 00 00 00 00	 jmp	 ___CxxFrameHandler3
text$x	ENDS
??1Exception@Internal@Core@Math@Palmtree@@UAE@XZ ENDP	; Palmtree::Math::Core::Internal::Exception::~Exception
; Function compile flags: /Odtp /RTCsu
; File z:\sources\lunor\repos\rougemeilland\palmtree.math.core.uint\palmtree.math.core.uint\pmc_exception.h
;	COMDAT ??0Exception@Internal@Core@Math@Palmtree@@QAE@ABV01234@@Z
_TEXT	SEGMENT
_this$ = -16						; size = 4
__$EHRec$ = -12						; size = 12
_p$ = 8							; size = 4
??0Exception@Internal@Core@Math@Palmtree@@QAE@ABV01234@@Z PROC ; Palmtree::Math::Core::Internal::Exception::Exception, COMDAT
; _this$ = ecx

; 62   :         Exception(const Exception& p) noexcept(true)

  00000	55		 push	 ebp
  00001	8b ec		 mov	 ebp, esp
  00003	6a ff		 push	 -1
  00005	68 00 00 00 00	 push	 __ehhandler$??0Exception@Internal@Core@Math@Palmtree@@QAE@ABV01234@@Z
  0000a	64 a1 00 00 00
	00		 mov	 eax, DWORD PTR fs:0
  00010	50		 push	 eax
  00011	51		 push	 ecx
  00012	c7 45 f0 cc cc
	cc cc		 mov	 DWORD PTR [ebp-16], -858993460 ; ccccccccH
  00019	a1 00 00 00 00	 mov	 eax, DWORD PTR ___security_cookie
  0001e	33 c5		 xor	 eax, ebp
  00020	50		 push	 eax
  00021	8d 45 f4	 lea	 eax, DWORD PTR __$EHRec$[ebp]
  00024	64 a3 00 00 00
	00		 mov	 DWORD PTR fs:0, eax
  0002a	89 4d f0	 mov	 DWORD PTR _this$[ebp], ecx
  0002d	b9 00 00 00 00	 mov	 ecx, OFFSET __802FEEC0_pmc_exception@h
  00032	e8 00 00 00 00	 call	 @__CheckForDebuggerJustMyCode@4
  00037	8b 4d f0	 mov	 ecx, DWORD PTR _this$[ebp]
  0003a	e8 00 00 00 00	 call	 ??0exception@std@@QAE@XZ ; std::exception::exception
  0003f	c7 45 fc 00 00
	00 00		 mov	 DWORD PTR __$EHRec$[ebp+8], 0
  00046	8b 45 f0	 mov	 eax, DWORD PTR _this$[ebp]
  00049	c7 00 00 00 00
	00		 mov	 DWORD PTR [eax], OFFSET ??_7Exception@Internal@Core@Math@Palmtree@@6B@

; 63   :         {
; 64   :             _code = p._code;

  0004f	8b 4d f0	 mov	 ecx, DWORD PTR _this$[ebp]
  00052	8b 55 08	 mov	 edx, DWORD PTR _p$[ebp]
  00055	8b 42 0c	 mov	 eax, DWORD PTR [edx+12]
  00058	89 41 0c	 mov	 DWORD PTR [ecx+12], eax

; 65   :             _message = p._message;

  0005b	8b 4d f0	 mov	 ecx, DWORD PTR _this$[ebp]
  0005e	8b 55 08	 mov	 edx, DWORD PTR _p$[ebp]
  00061	8b 42 10	 mov	 eax, DWORD PTR [edx+16]
  00064	89 41 10	 mov	 DWORD PTR [ecx+16], eax

; 66   :             _data = p._data;

  00067	8b 4d f0	 mov	 ecx, DWORD PTR _this$[ebp]
  0006a	8b 55 08	 mov	 edx, DWORD PTR _p$[ebp]
  0006d	8b 42 14	 mov	 eax, DWORD PTR [edx+20]
  00070	89 41 14	 mov	 DWORD PTR [ecx+20], eax

; 67   :         }

  00073	c7 45 fc ff ff
	ff ff		 mov	 DWORD PTR __$EHRec$[ebp+8], -1
  0007a	8b 45 f0	 mov	 eax, DWORD PTR _this$[ebp]
  0007d	8b 4d f4	 mov	 ecx, DWORD PTR __$EHRec$[ebp]
  00080	64 89 0d 00 00
	00 00		 mov	 DWORD PTR fs:0, ecx
  00087	59		 pop	 ecx
  00088	83 c4 10	 add	 esp, 16			; 00000010H
  0008b	3b ec		 cmp	 ebp, esp
  0008d	e8 00 00 00 00	 call	 __RTC_CheckEsp
  00092	8b e5		 mov	 esp, ebp
  00094	5d		 pop	 ebp
  00095	c2 04 00	 ret	 4
_TEXT	ENDS
;	COMDAT text$x
text$x	SEGMENT
__unwindfunclet$??0Exception@Internal@Core@Math@Palmtree@@QAE@ABV01234@@Z$0:
  00000	8b 4d f0	 mov	 ecx, DWORD PTR _this$[ebp]
  00003	e9 00 00 00 00	 jmp	 ??1exception@std@@UAE@XZ ; std::exception::~exception
__ehhandler$??0Exception@Internal@Core@Math@Palmtree@@QAE@ABV01234@@Z:
  00008	8b 54 24 08	 mov	 edx, DWORD PTR [esp+8]
  0000c	8d 42 0c	 lea	 eax, DWORD PTR [edx+12]
  0000f	8b 4a f8	 mov	 ecx, DWORD PTR [edx-8]
  00012	33 c8		 xor	 ecx, eax
  00014	e8 00 00 00 00	 call	 @__security_check_cookie@4
  00019	b8 00 00 00 00	 mov	 eax, OFFSET __ehfuncinfo$??0Exception@Internal@Core@Math@Palmtree@@QAE@ABV01234@@Z
  0001e	e9 00 00 00 00	 jmp	 ___CxxFrameHandler3
text$x	ENDS
??0Exception@Internal@Core@Math@Palmtree@@QAE@ABV01234@@Z ENDP ; Palmtree::Math::Core::Internal::Exception::Exception
; Function compile flags: /Odtp /RTCsu
; File z:\sources\lunor\repos\rougemeilland\palmtree.math.core.uint\palmtree.math.core.uint\pmc_exception.h
;	COMDAT ??0Exception@Internal@Core@Math@Palmtree@@IAE@HPB_W0@Z
_TEXT	SEGMENT
_this$ = -16						; size = 4
__$EHRec$ = -12						; size = 12
_code$ = 8						; size = 4
_message$ = 12						; size = 4
_data$ = 16						; size = 4
??0Exception@Internal@Core@Math@Palmtree@@IAE@HPB_W0@Z PROC ; Palmtree::Math::Core::Internal::Exception::Exception, COMDAT
; _this$ = ecx

; 54   :         Exception(PMC_STATUS_CODE code, const wchar_t* message, const wchar_t* data) noexcept(true)

  00000	55		 push	 ebp
  00001	8b ec		 mov	 ebp, esp
  00003	6a ff		 push	 -1
  00005	68 00 00 00 00	 push	 __ehhandler$??0Exception@Internal@Core@Math@Palmtree@@IAE@HPB_W0@Z
  0000a	64 a1 00 00 00
	00		 mov	 eax, DWORD PTR fs:0
  00010	50		 push	 eax
  00011	51		 push	 ecx
  00012	c7 45 f0 cc cc
	cc cc		 mov	 DWORD PTR [ebp-16], -858993460 ; ccccccccH
  00019	a1 00 00 00 00	 mov	 eax, DWORD PTR ___security_cookie
  0001e	33 c5		 xor	 eax, ebp
  00020	50		 push	 eax
  00021	8d 45 f4	 lea	 eax, DWORD PTR __$EHRec$[ebp]
  00024	64 a3 00 00 00
	00		 mov	 DWORD PTR fs:0, eax
  0002a	89 4d f0	 mov	 DWORD PTR _this$[ebp], ecx
  0002d	b9 00 00 00 00	 mov	 ecx, OFFSET __802FEEC0_pmc_exception@h
  00032	e8 00 00 00 00	 call	 @__CheckForDebuggerJustMyCode@4
  00037	8b 4d f0	 mov	 ecx, DWORD PTR _this$[ebp]
  0003a	e8 00 00 00 00	 call	 ??0exception@std@@QAE@XZ ; std::exception::exception
  0003f	c7 45 fc 00 00
	00 00		 mov	 DWORD PTR __$EHRec$[ebp+8], 0
  00046	8b 45 f0	 mov	 eax, DWORD PTR _this$[ebp]
  00049	c7 00 00 00 00
	00		 mov	 DWORD PTR [eax], OFFSET ??_7Exception@Internal@Core@Math@Palmtree@@6B@

; 55   :         {
; 56   :             _code = code;

  0004f	8b 4d f0	 mov	 ecx, DWORD PTR _this$[ebp]
  00052	8b 55 08	 mov	 edx, DWORD PTR _code$[ebp]
  00055	89 51 0c	 mov	 DWORD PTR [ecx+12], edx

; 57   :             _message = message;

  00058	8b 45 f0	 mov	 eax, DWORD PTR _this$[ebp]
  0005b	8b 4d 0c	 mov	 ecx, DWORD PTR _message$[ebp]
  0005e	89 48 10	 mov	 DWORD PTR [eax+16], ecx

; 58   :             _data = data;

  00061	8b 55 f0	 mov	 edx, DWORD PTR _this$[ebp]
  00064	8b 45 10	 mov	 eax, DWORD PTR _data$[ebp]
  00067	89 42 14	 mov	 DWORD PTR [edx+20], eax

; 59   :         }

  0006a	c7 45 fc ff ff
	ff ff		 mov	 DWORD PTR __$EHRec$[ebp+8], -1
  00071	8b 45 f0	 mov	 eax, DWORD PTR _this$[ebp]
  00074	8b 4d f4	 mov	 ecx, DWORD PTR __$EHRec$[ebp]
  00077	64 89 0d 00 00
	00 00		 mov	 DWORD PTR fs:0, ecx
  0007e	59		 pop	 ecx
  0007f	83 c4 10	 add	 esp, 16			; 00000010H
  00082	3b ec		 cmp	 ebp, esp
  00084	e8 00 00 00 00	 call	 __RTC_CheckEsp
  00089	8b e5		 mov	 esp, ebp
  0008b	5d		 pop	 ebp
  0008c	c2 0c 00	 ret	 12			; 0000000cH
_TEXT	ENDS
;	COMDAT text$x
text$x	SEGMENT
__unwindfunclet$??0Exception@Internal@Core@Math@Palmtree@@IAE@HPB_W0@Z$0:
  00000	8b 4d f0	 mov	 ecx, DWORD PTR _this$[ebp]
  00003	e9 00 00 00 00	 jmp	 ??1exception@std@@UAE@XZ ; std::exception::~exception
__ehhandler$??0Exception@Internal@Core@Math@Palmtree@@IAE@HPB_W0@Z:
  00008	8b 54 24 08	 mov	 edx, DWORD PTR [esp+8]
  0000c	8d 42 0c	 lea	 eax, DWORD PTR [edx+12]
  0000f	8b 4a f8	 mov	 ecx, DWORD PTR [edx-8]
  00012	33 c8		 xor	 ecx, eax
  00014	e8 00 00 00 00	 call	 @__security_check_cookie@4
  00019	b8 00 00 00 00	 mov	 eax, OFFSET __ehfuncinfo$??0Exception@Internal@Core@Math@Palmtree@@IAE@HPB_W0@Z
  0001e	e9 00 00 00 00	 jmp	 ___CxxFrameHandler3
text$x	ENDS
??0Exception@Internal@Core@Math@Palmtree@@IAE@HPB_W0@Z ENDP ; Palmtree::Math::Core::Internal::Exception::Exception
; Function compile flags: /Odtp /RTCsu
; File z:\sources\lunor\repos\rougemeilland\palmtree.math.core.uint\palmtree.math.core.uint\pmc_exception.h
;	COMDAT ??0Exception@Internal@Core@Math@Palmtree@@IAE@HPB_W@Z
_TEXT	SEGMENT
_this$ = -16						; size = 4
__$EHRec$ = -12						; size = 12
_code$ = 8						; size = 4
_message$ = 12						; size = 4
??0Exception@Internal@Core@Math@Palmtree@@IAE@HPB_W@Z PROC ; Palmtree::Math::Core::Internal::Exception::Exception, COMDAT
; _this$ = ecx

; 47   :         Exception(PMC_STATUS_CODE code, const wchar_t* message) noexcept(true)

  00000	55		 push	 ebp
  00001	8b ec		 mov	 ebp, esp
  00003	6a ff		 push	 -1
  00005	68 00 00 00 00	 push	 __ehhandler$??0Exception@Internal@Core@Math@Palmtree@@IAE@HPB_W@Z
  0000a	64 a1 00 00 00
	00		 mov	 eax, DWORD PTR fs:0
  00010	50		 push	 eax
  00011	51		 push	 ecx
  00012	c7 45 f0 cc cc
	cc cc		 mov	 DWORD PTR [ebp-16], -858993460 ; ccccccccH
  00019	a1 00 00 00 00	 mov	 eax, DWORD PTR ___security_cookie
  0001e	33 c5		 xor	 eax, ebp
  00020	50		 push	 eax
  00021	8d 45 f4	 lea	 eax, DWORD PTR __$EHRec$[ebp]
  00024	64 a3 00 00 00
	00		 mov	 DWORD PTR fs:0, eax
  0002a	89 4d f0	 mov	 DWORD PTR _this$[ebp], ecx
  0002d	b9 00 00 00 00	 mov	 ecx, OFFSET __802FEEC0_pmc_exception@h
  00032	e8 00 00 00 00	 call	 @__CheckForDebuggerJustMyCode@4
  00037	8b 4d f0	 mov	 ecx, DWORD PTR _this$[ebp]
  0003a	e8 00 00 00 00	 call	 ??0exception@std@@QAE@XZ ; std::exception::exception
  0003f	c7 45 fc 00 00
	00 00		 mov	 DWORD PTR __$EHRec$[ebp+8], 0
  00046	8b 45 f0	 mov	 eax, DWORD PTR _this$[ebp]
  00049	c7 00 00 00 00
	00		 mov	 DWORD PTR [eax], OFFSET ??_7Exception@Internal@Core@Math@Palmtree@@6B@

; 48   :         {
; 49   :             _code = code;

  0004f	8b 4d f0	 mov	 ecx, DWORD PTR _this$[ebp]
  00052	8b 55 08	 mov	 edx, DWORD PTR _code$[ebp]
  00055	89 51 0c	 mov	 DWORD PTR [ecx+12], edx

; 50   :             _message = message;

  00058	8b 45 f0	 mov	 eax, DWORD PTR _this$[ebp]
  0005b	8b 4d 0c	 mov	 ecx, DWORD PTR _message$[ebp]
  0005e	89 48 10	 mov	 DWORD PTR [eax+16], ecx

; 51   :             _data = nullptr;

  00061	8b 55 f0	 mov	 edx, DWORD PTR _this$[ebp]
  00064	c7 42 14 00 00
	00 00		 mov	 DWORD PTR [edx+20], 0

; 52   :         }

  0006b	c7 45 fc ff ff
	ff ff		 mov	 DWORD PTR __$EHRec$[ebp+8], -1
  00072	8b 45 f0	 mov	 eax, DWORD PTR _this$[ebp]
  00075	8b 4d f4	 mov	 ecx, DWORD PTR __$EHRec$[ebp]
  00078	64 89 0d 00 00
	00 00		 mov	 DWORD PTR fs:0, ecx
  0007f	59		 pop	 ecx
  00080	83 c4 10	 add	 esp, 16			; 00000010H
  00083	3b ec		 cmp	 ebp, esp
  00085	e8 00 00 00 00	 call	 __RTC_CheckEsp
  0008a	8b e5		 mov	 esp, ebp
  0008c	5d		 pop	 ebp
  0008d	c2 08 00	 ret	 8
_TEXT	ENDS
;	COMDAT text$x
text$x	SEGMENT
__unwindfunclet$??0Exception@Internal@Core@Math@Palmtree@@IAE@HPB_W@Z$0:
  00000	8b 4d f0	 mov	 ecx, DWORD PTR _this$[ebp]
  00003	e9 00 00 00 00	 jmp	 ??1exception@std@@UAE@XZ ; std::exception::~exception
__ehhandler$??0Exception@Internal@Core@Math@Palmtree@@IAE@HPB_W@Z:
  00008	8b 54 24 08	 mov	 edx, DWORD PTR [esp+8]
  0000c	8d 42 0c	 lea	 eax, DWORD PTR [edx+12]
  0000f	8b 4a f8	 mov	 ecx, DWORD PTR [edx-8]
  00012	33 c8		 xor	 ecx, eax
  00014	e8 00 00 00 00	 call	 @__security_check_cookie@4
  00019	b8 00 00 00 00	 mov	 eax, OFFSET __ehfuncinfo$??0Exception@Internal@Core@Math@Palmtree@@IAE@HPB_W@Z
  0001e	e9 00 00 00 00	 jmp	 ___CxxFrameHandler3
text$x	ENDS
??0Exception@Internal@Core@Math@Palmtree@@IAE@HPB_W@Z ENDP ; Palmtree::Math::Core::Internal::Exception::Exception
; Function compile flags: /Odtp /RTCsu
;	COMDAT ??_Gexception@std@@UAEPAXI@Z
_TEXT	SEGMENT
_this$ = -4						; size = 4
___flags$ = 8						; size = 4
??_Gexception@std@@UAEPAXI@Z PROC			; std::exception::`scalar deleting destructor', COMDAT
; _this$ = ecx
  00000	55		 push	 ebp
  00001	8b ec		 mov	 ebp, esp
  00003	51		 push	 ecx
  00004	c7 45 fc cc cc
	cc cc		 mov	 DWORD PTR [ebp-4], -858993460 ; ccccccccH
  0000b	89 4d fc	 mov	 DWORD PTR _this$[ebp], ecx
  0000e	8b 4d fc	 mov	 ecx, DWORD PTR _this$[ebp]
  00011	e8 00 00 00 00	 call	 ??1exception@std@@UAE@XZ ; std::exception::~exception
  00016	8b 45 08	 mov	 eax, DWORD PTR ___flags$[ebp]
  00019	83 e0 01	 and	 eax, 1
  0001c	74 0e		 je	 SHORT $LN2@scalar
  0001e	6a 0c		 push	 12			; 0000000cH
  00020	8b 4d fc	 mov	 ecx, DWORD PTR _this$[ebp]
  00023	51		 push	 ecx
  00024	e8 00 00 00 00	 call	 ??3@YAXPAXI@Z		; operator delete
  00029	83 c4 08	 add	 esp, 8
$LN2@scalar:
  0002c	8b 45 fc	 mov	 eax, DWORD PTR _this$[ebp]
  0002f	83 c4 04	 add	 esp, 4
  00032	3b ec		 cmp	 ebp, esp
  00034	e8 00 00 00 00	 call	 __RTC_CheckEsp
  00039	8b e5		 mov	 esp, ebp
  0003b	5d		 pop	 ebp
  0003c	c2 04 00	 ret	 4
??_Gexception@std@@UAEPAXI@Z ENDP			; std::exception::`scalar deleting destructor'
_TEXT	ENDS
; Function compile flags: /Odtp /RTCsu
; File c:\program files (x86)\microsoft visual studio\2017\community\vc\tools\msvc\14.16.27023\include\vcruntime_exception.h
;	COMDAT ?what@exception@std@@UBEPBDXZ
_TEXT	SEGMENT
tv69 = -8						; size = 4
_this$ = -4						; size = 4
?what@exception@std@@UBEPBDXZ PROC			; std::exception::what, COMDAT
; _this$ = ecx

; 90   :     {

  00000	55		 push	 ebp
  00001	8b ec		 mov	 ebp, esp
  00003	83 ec 08	 sub	 esp, 8
  00006	c7 45 f8 cc cc
	cc cc		 mov	 DWORD PTR [ebp-8], -858993460 ; ccccccccH
  0000d	c7 45 fc cc cc
	cc cc		 mov	 DWORD PTR [ebp-4], -858993460 ; ccccccccH
  00014	89 4d fc	 mov	 DWORD PTR _this$[ebp], ecx
  00017	b9 00 00 00 00	 mov	 ecx, OFFSET __9BB4E194_vcruntime_exception@h
  0001c	e8 00 00 00 00	 call	 @__CheckForDebuggerJustMyCode@4

; 91   :         return _Data._What ? _Data._What : "Unknown exception";

  00021	8b 45 fc	 mov	 eax, DWORD PTR _this$[ebp]
  00024	83 78 04 00	 cmp	 DWORD PTR [eax+4], 0
  00028	74 0b		 je	 SHORT $LN3@what
  0002a	8b 4d fc	 mov	 ecx, DWORD PTR _this$[ebp]
  0002d	8b 51 04	 mov	 edx, DWORD PTR [ecx+4]
  00030	89 55 f8	 mov	 DWORD PTR tv69[ebp], edx
  00033	eb 07		 jmp	 SHORT $LN4@what
$LN3@what:
  00035	c7 45 f8 00 00
	00 00		 mov	 DWORD PTR tv69[ebp], OFFSET ??_C@_0BC@EOODALEL@Unknown?5exception@
$LN4@what:
  0003c	8b 45 f8	 mov	 eax, DWORD PTR tv69[ebp]

; 92   :     }

  0003f	83 c4 08	 add	 esp, 8
  00042	3b ec		 cmp	 ebp, esp
  00044	e8 00 00 00 00	 call	 __RTC_CheckEsp
  00049	8b e5		 mov	 esp, ebp
  0004b	5d		 pop	 ebp
  0004c	c3		 ret	 0
?what@exception@std@@UBEPBDXZ ENDP			; std::exception::what
_TEXT	ENDS
; Function compile flags: /Odtp /RTCsu
; File c:\program files (x86)\microsoft visual studio\2017\community\vc\tools\msvc\14.16.27023\include\vcruntime_exception.h
;	COMDAT ??1exception@std@@UAE@XZ
_TEXT	SEGMENT
_this$ = -16						; size = 4
__$EHRec$ = -12						; size = 12
??1exception@std@@UAE@XZ PROC				; std::exception::~exception, COMDAT
; _this$ = ecx

; 85   :     {

  00000	55		 push	 ebp
  00001	8b ec		 mov	 ebp, esp
  00003	6a ff		 push	 -1
  00005	68 00 00 00 00	 push	 __ehhandler$??1exception@std@@UAE@XZ
  0000a	64 a1 00 00 00
	00		 mov	 eax, DWORD PTR fs:0
  00010	50		 push	 eax
  00011	51		 push	 ecx
  00012	c7 45 f0 cc cc
	cc cc		 mov	 DWORD PTR [ebp-16], -858993460 ; ccccccccH
  00019	a1 00 00 00 00	 mov	 eax, DWORD PTR ___security_cookie
  0001e	33 c5		 xor	 eax, ebp
  00020	50		 push	 eax
  00021	8d 45 f4	 lea	 eax, DWORD PTR __$EHRec$[ebp]
  00024	64 a3 00 00 00
	00		 mov	 DWORD PTR fs:0, eax
  0002a	89 4d f0	 mov	 DWORD PTR _this$[ebp], ecx
  0002d	b9 00 00 00 00	 mov	 ecx, OFFSET __9BB4E194_vcruntime_exception@h
  00032	e8 00 00 00 00	 call	 @__CheckForDebuggerJustMyCode@4
  00037	8b 45 f0	 mov	 eax, DWORD PTR _this$[ebp]
  0003a	c7 00 00 00 00
	00		 mov	 DWORD PTR [eax], OFFSET ??_7exception@std@@6B@

; 86   :         __std_exception_destroy(&_Data);

  00040	8b 4d f0	 mov	 ecx, DWORD PTR _this$[ebp]
  00043	83 c1 04	 add	 ecx, 4
  00046	51		 push	 ecx
  00047	e8 00 00 00 00	 call	 ___std_exception_destroy
  0004c	83 c4 04	 add	 esp, 4

; 87   :     }

  0004f	8b 4d f4	 mov	 ecx, DWORD PTR __$EHRec$[ebp]
  00052	64 89 0d 00 00
	00 00		 mov	 DWORD PTR fs:0, ecx
  00059	59		 pop	 ecx
  0005a	83 c4 10	 add	 esp, 16			; 00000010H
  0005d	3b ec		 cmp	 ebp, esp
  0005f	e8 00 00 00 00	 call	 __RTC_CheckEsp
  00064	8b e5		 mov	 esp, ebp
  00066	5d		 pop	 ebp
  00067	c3		 ret	 0
_TEXT	ENDS
;	COMDAT text$x
text$x	SEGMENT
__ehhandler$??1exception@std@@UAE@XZ:
  00000	8b 54 24 08	 mov	 edx, DWORD PTR [esp+8]
  00004	8d 42 0c	 lea	 eax, DWORD PTR [edx+12]
  00007	8b 4a f8	 mov	 ecx, DWORD PTR [edx-8]
  0000a	33 c8		 xor	 ecx, eax
  0000c	e8 00 00 00 00	 call	 @__security_check_cookie@4
  00011	b8 00 00 00 00	 mov	 eax, OFFSET __ehfuncinfo$??1exception@std@@UAE@XZ
  00016	e9 00 00 00 00	 jmp	 ___CxxFrameHandler3
text$x	ENDS
??1exception@std@@UAE@XZ ENDP				; std::exception::~exception
; Function compile flags: /Odtp /RTCsu
; File c:\program files (x86)\microsoft visual studio\2017\community\vc\tools\msvc\14.16.27023\include\vcruntime_exception.h
;	COMDAT ??0exception@std@@QAE@XZ
_TEXT	SEGMENT
_this$ = -16						; size = 4
__$EHRec$ = -12						; size = 12
??0exception@std@@QAE@XZ PROC				; std::exception::exception, COMDAT
; _this$ = ecx

; 50   :     {

  00000	55		 push	 ebp
  00001	8b ec		 mov	 ebp, esp
  00003	6a ff		 push	 -1
  00005	68 00 00 00 00	 push	 __ehhandler$??0exception@std@@QAE@XZ
  0000a	64 a1 00 00 00
	00		 mov	 eax, DWORD PTR fs:0
  00010	50		 push	 eax
  00011	51		 push	 ecx
  00012	c7 45 f0 cc cc
	cc cc		 mov	 DWORD PTR [ebp-16], -858993460 ; ccccccccH
  00019	a1 00 00 00 00	 mov	 eax, DWORD PTR ___security_cookie
  0001e	33 c5		 xor	 eax, ebp
  00020	50		 push	 eax
  00021	8d 45 f4	 lea	 eax, DWORD PTR __$EHRec$[ebp]
  00024	64 a3 00 00 00
	00		 mov	 DWORD PTR fs:0, eax
  0002a	89 4d f0	 mov	 DWORD PTR _this$[ebp], ecx
  0002d	b9 00 00 00 00	 mov	 ecx, OFFSET __9BB4E194_vcruntime_exception@h
  00032	e8 00 00 00 00	 call	 @__CheckForDebuggerJustMyCode@4
  00037	8b 45 f0	 mov	 eax, DWORD PTR _this$[ebp]
  0003a	c7 00 00 00 00
	00		 mov	 DWORD PTR [eax], OFFSET ??_7exception@std@@6B@

; 49   :         : _Data()

  00040	33 c9		 xor	 ecx, ecx
  00042	8b 55 f0	 mov	 edx, DWORD PTR _this$[ebp]
  00045	83 c2 04	 add	 edx, 4
  00048	89 0a		 mov	 DWORD PTR [edx], ecx
  0004a	89 4a 04	 mov	 DWORD PTR [edx+4], ecx

; 51   :     }

  0004d	8b 45 f0	 mov	 eax, DWORD PTR _this$[ebp]
  00050	8b 4d f4	 mov	 ecx, DWORD PTR __$EHRec$[ebp]
  00053	64 89 0d 00 00
	00 00		 mov	 DWORD PTR fs:0, ecx
  0005a	59		 pop	 ecx
  0005b	83 c4 10	 add	 esp, 16			; 00000010H
  0005e	3b ec		 cmp	 ebp, esp
  00060	e8 00 00 00 00	 call	 __RTC_CheckEsp
  00065	8b e5		 mov	 esp, ebp
  00067	5d		 pop	 ebp
  00068	c3		 ret	 0
_TEXT	ENDS
;	COMDAT text$x
text$x	SEGMENT
__ehhandler$??0exception@std@@QAE@XZ:
  00000	8b 54 24 08	 mov	 edx, DWORD PTR [esp+8]
  00004	8d 42 0c	 lea	 eax, DWORD PTR [edx+12]
  00007	8b 4a f8	 mov	 ecx, DWORD PTR [edx-8]
  0000a	33 c8		 xor	 ecx, eax
  0000c	e8 00 00 00 00	 call	 @__security_check_cookie@4
  00011	b8 00 00 00 00	 mov	 eax, OFFSET __ehfuncinfo$??0exception@std@@QAE@XZ
  00016	e9 00 00 00 00	 jmp	 ___CxxFrameHandler3
text$x	ENDS
??0exception@std@@QAE@XZ ENDP				; std::exception::exception
END
