; Listing generated by Microsoft (R) Optimizing Compiler Version 19.16.27026.1 

	TITLE	Z:\Sources\Lunor\Repos\rougemeilland\Palmtree.Math.Core.Uint\Palmtree.Math.Core.Uint\pmc_modpow.c
	.686P
	.XMM
	include listing.inc
	.model	flat

INCLUDELIB MSVCRTD
INCLUDELIB OLDNAMES

msvcjmc	SEGMENT
__7B7A869E_ctype@h DB 01H
__457DD326_basetsd@h DB 01H
__4384A2D9_corecrt_memcpy_s@h DB 01H
__4E51A221_corecrt_wstring@h DB 01H
__2140C079_string@h DB 01H
__1887E595_winnt@h DB 01H
__9FC7C64B_processthreadsapi@h DB 01H
__FA470AEC_memoryapi@h DB 01H
__F37DAFF1_winerror@h DB 01H
__7A450CCC_winbase@h DB 01H
__B4B40122_winioctl@h DB 01H
__86261D59_stralign@h DB 01H
__BB6D3116_pmc_uint_internal@h DB 01H
__8CA3E54E_pmc_inline_func@h DB 01H
__6553949D_pmc_modpow@c DB 01H
msvcjmc	ENDS
PUBLIC	_Initialize_ModPow
PUBLIC	_PMC_ModPow_X_X_X@16
PUBLIC	__JustMyCode_Default
EXTRN	_AllocateBlock:PROC
EXTRN	_DeallocateBlock:PROC
EXTRN	_CheckBlockLight:PROC
EXTRN	_AllocateNumber:PROC
EXTRN	_DeallocateNumber:PROC
EXTRN	_CommitNumber:PROC
EXTRN	_CheckNumber:PROC
EXTRN	_DuplicateNumber:PROC
EXTRN	_Multiply_X_X_Imp:PROC
EXTRN	_DivRem_X_X:PROC
EXTRN	_Compare_Imp:PROC
EXTRN	@_RTC_CheckStackVars@8:PROC
EXTRN	@__CheckForDebuggerJustMyCode@4:PROC
EXTRN	__RTC_CheckEsp:PROC
EXTRN	__RTC_InitBase:PROC
EXTRN	__RTC_Shutdown:PROC
EXTRN	_number_zero:BYTE
EXTRN	_number_one:BYTE
;	COMDAT rtc$TMZ
rtc$TMZ	SEGMENT
__RTC_Shutdown.rtc$TMZ DD FLAT:__RTC_Shutdown
rtc$TMZ	ENDS
;	COMDAT rtc$IMZ
rtc$IMZ	SEGMENT
__RTC_InitBase.rtc$IMZ DD FLAT:__RTC_InitBase
rtc$IMZ	ENDS
; Function compile flags: /Odt
;	COMDAT __JustMyCode_Default
_TEXT	SEGMENT
__JustMyCode_Default PROC				; COMDAT
	push	ebp
	mov	ebp, esp
	pop	ebp
	ret	0
__JustMyCode_Default ENDP
_TEXT	ENDS
; Function compile flags: /Odtp /RTCsu
; File z:\sources\lunor\repos\rougemeilland\palmtree.math.core.uint\palmtree.math.core.uint\pmc_modpow.c
_TEXT	SEGMENT
_result$ = -4						; size = 4
_v$ = 8							; size = 4
_e$ = 12						; size = 4
_m$ = 16						; size = 4
_r$ = 20						; size = 4
_PMC_ModPow_X_X_X_Imp PROC

; 456  : {

	push	ebp
	mov	ebp, esp
	push	ecx
	mov	DWORD PTR [ebp-4], -858993460		; ccccccccH
	mov	ecx, OFFSET __6553949D_pmc_modpow@c
	call	@__CheckForDebuggerJustMyCode@4

; 457  :     PMC_STATUS_CODE result;
; 458  : 
; 459  :     if (m->IS_ZERO)

	mov	eax, DWORD PTR _m$[ebp]
	mov	ecx, DWORD PTR [eax]
	and	ecx, 1
	je	SHORT $LN2@PMC_ModPow

; 460  :     {
; 461  :         // m が 0 の場合
; 462  : 
; 463  :         // 0 による除算は許されないのでエラーを通知する
; 464  :         return (PMC_STATUS_DIVISION_BY_ZERO);

	mov	eax, -3					; fffffffdH
	jmp	$LN1@PMC_ModPow

; 465  :     }

	jmp	$LN3@PMC_ModPow
$LN2@PMC_ModPow:

; 466  :     else if (m->IS_ONE)

	mov	edx, DWORD PTR _m$[ebp]
	mov	eax, DWORD PTR [edx]
	shr	eax, 1
	and	eax, 1
	je	SHORT $LN4@PMC_ModPow

; 467  :     {
; 468  :         // m が 1 の場合
; 469  :         if (v->IS_ZERO)

	mov	ecx, DWORD PTR _v$[ebp]
	mov	edx, DWORD PTR [ecx]
	and	edx, 1
	je	SHORT $LN6@PMC_ModPow

; 470  :         {
; 471  :             // v が 0 の場合
; 472  :             if (e->IS_ZERO)

	mov	eax, DWORD PTR _e$[ebp]
	mov	ecx, DWORD PTR [eax]
	and	ecx, 1
	je	SHORT $LN8@PMC_ModPow

; 473  :             {
; 474  :                 // e が 0 の場合
; 475  : 
; 476  :                 // 0 の 0 乗となるので、エラーを返す
; 477  :                 return (PMC_STATUS_ARGUMENT_ERROR);

	or	eax, -1
	jmp	$LN1@PMC_ModPow

; 478  :             }

	jmp	SHORT $LN9@PMC_ModPow
$LN8@PMC_ModPow:

; 479  :             else
; 480  :             {
; 481  :                 // e が 0 ではない場合
; 482  : 
; 483  :                 // v の e 乗がどんな値であっても 1 では必ず割り切れるので剰余は 0 となる。
; 484  :                 *r = &number_zero;

	mov	edx, DWORD PTR _r$[ebp]
	mov	DWORD PTR [edx], OFFSET _number_zero
$LN9@PMC_ModPow:

; 485  :             }
; 486  :         }

	jmp	SHORT $LN7@PMC_ModPow
$LN6@PMC_ModPow:

; 487  :         else
; 488  :         {
; 489  :             // v が 0 ではない場合
; 490  : 
; 491  :             // v の e 乗がどんな値であっても 1 では必ず割り切れるので剰余は 0 となる。
; 492  :             *r = &number_zero;

	mov	eax, DWORD PTR _r$[ebp]
	mov	DWORD PTR [eax], OFFSET _number_zero
$LN7@PMC_ModPow:

; 493  :         }
; 494  :     }

	jmp	$LN3@PMC_ModPow
$LN4@PMC_ModPow:

; 495  :     else
; 496  :     {
; 497  :         // m が 2 以上の場合
; 498  :         if (v->IS_ZERO)

	mov	ecx, DWORD PTR _v$[ebp]
	mov	edx, DWORD PTR [ecx]
	and	edx, 1
	je	SHORT $LN10@PMC_ModPow

; 499  :         {
; 500  :             // v が 0 の場合
; 501  :             if (e->IS_ZERO)

	mov	eax, DWORD PTR _e$[ebp]
	mov	ecx, DWORD PTR [eax]
	and	ecx, 1
	je	SHORT $LN12@PMC_ModPow

; 502  :             {
; 503  :                 // e が 0 の場合
; 504  : 
; 505  :                 // 0 の 0 乗となるので、エラーを返す
; 506  :                 return (PMC_STATUS_ARGUMENT_ERROR);

	or	eax, -1
	jmp	$LN1@PMC_ModPow

; 507  :             }

	jmp	SHORT $LN13@PMC_ModPow
$LN12@PMC_ModPow:

; 508  :             else
; 509  :             {
; 510  :                 // e が 0 ではない場合
; 511  : 
; 512  :                 *r = &number_zero;

	mov	edx, DWORD PTR _r$[ebp]
	mov	DWORD PTR [edx], OFFSET _number_zero
$LN13@PMC_ModPow:

; 513  :             }
; 514  :         }

	jmp	$LN3@PMC_ModPow
$LN10@PMC_ModPow:

; 515  :         else if (v->IS_ONE)

	mov	eax, DWORD PTR _v$[ebp]
	mov	ecx, DWORD PTR [eax]
	shr	ecx, 1
	and	ecx, 1
	je	SHORT $LN14@PMC_ModPow

; 516  :         {
; 517  :             // v が 1 の場合
; 518  : 
; 519  :             // 1 を何乗しても 1 であり、1 を 2 以上の数で割ればその剰余は必ず 1 となる
; 520  :             *r = &number_one;

	mov	edx, DWORD PTR _r$[ebp]
	mov	DWORD PTR [edx], OFFSET _number_one

; 521  :         }

	jmp	SHORT $LN3@PMC_ModPow
$LN14@PMC_ModPow:

; 522  :         else
; 523  :         {
; 524  :             // v が 2 以上の場合
; 525  :             if (e->IS_ZERO)

	mov	eax, DWORD PTR _e$[ebp]
	mov	ecx, DWORD PTR [eax]
	and	ecx, 1
	je	SHORT $LN16@PMC_ModPow

; 526  :             {
; 527  :                 // e が 0 の場合
; 528  :                 *r = &number_one;

	mov	edx, DWORD PTR _r$[ebp]
	mov	DWORD PTR [edx], OFFSET _number_one

; 529  :             }

	jmp	SHORT $LN3@PMC_ModPow
$LN16@PMC_ModPow:

; 530  :             else if (e->IS_ONE)

	mov	eax, DWORD PTR _e$[ebp]
	mov	ecx, DWORD PTR [eax]
	shr	ecx, 1
	and	ecx, 1
	je	SHORT $LN18@PMC_ModPow

; 531  :             {
; 532  :                 // e が 1 の場合
; 533  : 
; 534  :                 // v % m を計算して返す
; 535  :                 if ((result = Remainder(v, m, r)) != PMC_STATUS_OK)

	mov	edx, DWORD PTR _r$[ebp]
	push	edx
	mov	eax, DWORD PTR _m$[ebp]
	push	eax
	mov	ecx, DWORD PTR _v$[ebp]
	push	ecx
	call	_Remainder
	add	esp, 12					; 0000000cH
	mov	DWORD PTR _result$[ebp], eax
	cmp	DWORD PTR _result$[ebp], 0
	je	SHORT $LN20@PMC_ModPow

; 536  :                     return (result);

	mov	eax, DWORD PTR _result$[ebp]
	jmp	SHORT $LN1@PMC_ModPow
$LN20@PMC_ModPow:

; 537  :             }

	jmp	SHORT $LN3@PMC_ModPow
$LN18@PMC_ModPow:

; 538  :             else
; 539  :             {
; 540  :                 // v、e、m がすべて 2 以上である場合
; 541  :                 // v の e 乗 の m による剰余を計算して返す
; 542  :                 if ((result = ModulePower(v, e, m, r)) != PMC_STATUS_OK)

	mov	edx, DWORD PTR _r$[ebp]
	push	edx
	mov	eax, DWORD PTR _m$[ebp]
	push	eax
	mov	ecx, DWORD PTR _e$[ebp]
	push	ecx
	mov	edx, DWORD PTR _v$[ebp]
	push	edx
	call	_ModulePower
	add	esp, 16					; 00000010H
	mov	DWORD PTR _result$[ebp], eax
	cmp	DWORD PTR _result$[ebp], 0
	je	SHORT $LN3@PMC_ModPow

; 543  :                     return (result);

	mov	eax, DWORD PTR _result$[ebp]
	jmp	SHORT $LN1@PMC_ModPow
$LN3@PMC_ModPow:

; 544  :             }
; 545  :         }
; 546  :     }
; 547  :     return (PMC_STATUS_OK);

	xor	eax, eax
$LN1@PMC_ModPow:

; 548  : }

	add	esp, 4
	cmp	ebp, esp
	call	__RTC_CheckEsp
	mov	esp, ebp
	pop	ebp
	ret	0
_PMC_ModPow_X_X_X_Imp ENDP
_TEXT	ENDS
; Function compile flags: /Odtp /RTCsu
; File z:\sources\lunor\repos\rougemeilland\palmtree.math.core.uint\palmtree.math.core.uint\pmc_modpow.c
_TEXT	SEGMENT
_u_count$ = -204					; size = 4
_w_ptr$ = -196						; size = 4
_v_ptr$ = -188						; size = 4
_u_ptr$ = -180						; size = 4
_e_mask$ = -172						; size = 4
_e_count$ = -168					; size = 4
_cmp$ = -164						; size = 4
_v_count$ = -160					; size = 4
_r_check_code$ = -152					; size = 4
_r_bit_count$ = -144					; size = 4
_work_v_buf$ = -140					; size = 4
_work_v_buf_words$ = -132				; size = 4
_work_v_buf_code$ = -120				; size = 4
_work_v_bit_count$ = -112				; size = 4
_work_2_buf$ = -108					; size = 4
_work_2_buf_words$ = -100				; size = 4
_work_2_buf_code$ = -88					; size = 4
_work_2_bit_count$ = -80				; size = 4
_work_1_buf$ = -76					; size = 4
_work_1_buf_words$ = -68				; size = 4
_work_1_buf_code$ = -56					; size = 4
_work_1_bit_count$ = -48				; size = 4
_v_2_buf$ = -44						; size = 4
_v_2_buf_words$ = -36					; size = 4
_v_2_buf_code$ = -24					; size = 4
_v_2_bit_count$ = -16					; size = 4
_m_count$ = -12						; size = 4
_m_buf$ = -8						; size = 4
_result$ = -4						; size = 4
_v$ = 8							; size = 4
_e$ = 12						; size = 4
_m$ = 16						; size = 4
_r$ = 20						; size = 4
_ModulePower PROC

; 138  : {

	push	ebp
	mov	ebp, esp
	sub	esp, 204				; 000000ccH
	push	edi
	lea	edi, DWORD PTR [ebp-204]
	mov	ecx, 51					; 00000033H
	mov	eax, -858993460				; ccccccccH
	rep stosd
	mov	ecx, OFFSET __6553949D_pmc_modpow@c
	call	@__CheckForDebuggerJustMyCode@4

; 139  : #ifdef DO_TRACE
; 140  :     ReportIN(v, e, m);
; 141  : #endif
; 142  :     PMC_STATUS_CODE result;
; 143  :     __UNIT_TYPE* m_buf = m->BLOCK;

	mov	eax, DWORD PTR _m$[ebp]
	mov	ecx, DWORD PTR [eax+36]
	mov	DWORD PTR _m_buf$[ebp], ecx

; 144  :     __UNIT_TYPE m_count = m->UNIT_WORD_COUNT;

	mov	edx, DWORD PTR _m$[ebp]
	mov	eax, DWORD PTR [edx+12]
	mov	DWORD PTR _m_count$[ebp], eax

; 145  : 
; 146  :     // 作業域を獲得する
; 147  : 
; 148  :     __UNIT_TYPE v_2_bit_count = v->UNIT_WORD_COUNT * __UNIT_TYPE_BIT_COUNT + __UNIT_TYPE_BIT_COUNT;

	mov	ecx, DWORD PTR _v$[ebp]
	mov	edx, DWORD PTR [ecx+12]
	shl	edx, 5
	add	edx, 32					; 00000020H
	mov	DWORD PTR _v_2_bit_count$[ebp], edx

; 149  :     __UNIT_TYPE v_2_buf_code;
; 150  :     __UNIT_TYPE v_2_buf_words;
; 151  :     __UNIT_TYPE* v_2_buf = AllocateBlock(v_2_bit_count, &v_2_buf_words, &v_2_buf_code);

	lea	eax, DWORD PTR _v_2_buf_code$[ebp]
	push	eax
	lea	ecx, DWORD PTR _v_2_buf_words$[ebp]
	push	ecx
	mov	edx, DWORD PTR _v_2_bit_count$[ebp]
	push	edx
	call	_AllocateBlock
	add	esp, 12					; 0000000cH
	mov	DWORD PTR _v_2_buf$[ebp], eax

; 152  :     if (v_2_buf == NULL)

	cmp	DWORD PTR _v_2_buf$[ebp], 0
	jne	SHORT $LN10@ModulePowe

; 153  :     {
; 154  :         return (PMC_STATUS_NOT_ENOUGH_MEMORY);

	mov	eax, -6					; fffffffaH
	jmp	$LN1@ModulePowe
$LN10@ModulePowe:

; 155  :     }
; 156  : 
; 157  :     __UNIT_TYPE work_1_bit_count = m_count * 2 * __UNIT_TYPE_BIT_COUNT + __UNIT_TYPE_BIT_COUNT;

	mov	eax, DWORD PTR _m_count$[ebp]
	shl	eax, 1
	shl	eax, 5
	add	eax, 32					; 00000020H
	mov	DWORD PTR _work_1_bit_count$[ebp], eax

; 158  :     __UNIT_TYPE work_1_buf_code;
; 159  :     __UNIT_TYPE work_1_buf_words;
; 160  :     __UNIT_TYPE* work_1_buf = AllocateBlock(work_1_bit_count, &work_1_buf_words, &work_1_buf_code);

	lea	ecx, DWORD PTR _work_1_buf_code$[ebp]
	push	ecx
	lea	edx, DWORD PTR _work_1_buf_words$[ebp]
	push	edx
	mov	eax, DWORD PTR _work_1_bit_count$[ebp]
	push	eax
	call	_AllocateBlock
	add	esp, 12					; 0000000cH
	mov	DWORD PTR _work_1_buf$[ebp], eax

; 161  :     if (work_1_buf == NULL)

	cmp	DWORD PTR _work_1_buf$[ebp], 0
	jne	SHORT $LN11@ModulePowe

; 162  :     {
; 163  :         DeallocateBlock(v_2_buf, v_2_buf_words);

	mov	ecx, DWORD PTR _v_2_buf_words$[ebp]
	push	ecx
	mov	edx, DWORD PTR _v_2_buf$[ebp]
	push	edx
	call	_DeallocateBlock
	add	esp, 8

; 164  :         return (PMC_STATUS_NOT_ENOUGH_MEMORY);

	mov	eax, -6					; fffffffaH
	jmp	$LN1@ModulePowe
$LN11@ModulePowe:

; 165  :     }
; 166  : 
; 167  :     __UNIT_TYPE work_2_bit_count = m_count * 2 * __UNIT_TYPE_BIT_COUNT + __UNIT_TYPE_BIT_COUNT;

	mov	eax, DWORD PTR _m_count$[ebp]
	shl	eax, 1
	shl	eax, 5
	add	eax, 32					; 00000020H
	mov	DWORD PTR _work_2_bit_count$[ebp], eax

; 168  :     __UNIT_TYPE work_2_buf_code;
; 169  :     __UNIT_TYPE work_2_buf_words;
; 170  :     __UNIT_TYPE* work_2_buf = AllocateBlock(work_2_bit_count, &work_2_buf_words, &work_2_buf_code);

	lea	ecx, DWORD PTR _work_2_buf_code$[ebp]
	push	ecx
	lea	edx, DWORD PTR _work_2_buf_words$[ebp]
	push	edx
	mov	eax, DWORD PTR _work_2_bit_count$[ebp]
	push	eax
	call	_AllocateBlock
	add	esp, 12					; 0000000cH
	mov	DWORD PTR _work_2_buf$[ebp], eax

; 171  :     if (work_2_buf == NULL)

	cmp	DWORD PTR _work_2_buf$[ebp], 0
	jne	SHORT $LN12@ModulePowe

; 172  :     {
; 173  :         DeallocateBlock(work_1_buf, work_1_buf_words);

	mov	ecx, DWORD PTR _work_1_buf_words$[ebp]
	push	ecx
	mov	edx, DWORD PTR _work_1_buf$[ebp]
	push	edx
	call	_DeallocateBlock
	add	esp, 8

; 174  :         DeallocateBlock(v_2_buf, v_2_buf_words);

	mov	eax, DWORD PTR _v_2_buf_words$[ebp]
	push	eax
	mov	ecx, DWORD PTR _v_2_buf$[ebp]
	push	ecx
	call	_DeallocateBlock
	add	esp, 8

; 175  :         return (PMC_STATUS_NOT_ENOUGH_MEMORY);

	mov	eax, -6					; fffffffaH
	jmp	$LN1@ModulePowe
$LN12@ModulePowe:

; 176  :     }
; 177  : 
; 178  :     __UNIT_TYPE work_v_bit_count = m_count * __UNIT_TYPE_BIT_COUNT;

	mov	edx, DWORD PTR _m_count$[ebp]
	shl	edx, 5
	mov	DWORD PTR _work_v_bit_count$[ebp], edx

; 179  :     __UNIT_TYPE work_v_buf_code;
; 180  :     __UNIT_TYPE work_v_buf_words;
; 181  :     __UNIT_TYPE* work_v_buf = AllocateBlock(work_v_bit_count, &work_v_buf_words, &work_v_buf_code);

	lea	eax, DWORD PTR _work_v_buf_code$[ebp]
	push	eax
	lea	ecx, DWORD PTR _work_v_buf_words$[ebp]
	push	ecx
	mov	edx, DWORD PTR _work_v_bit_count$[ebp]
	push	edx
	call	_AllocateBlock
	add	esp, 12					; 0000000cH
	mov	DWORD PTR _work_v_buf$[ebp], eax

; 182  :     if (work_v_buf == NULL)

	cmp	DWORD PTR _work_v_buf$[ebp], 0
	jne	SHORT $LN13@ModulePowe

; 183  :     {
; 184  :         DeallocateBlock(work_2_buf, work_2_buf_words);

	mov	eax, DWORD PTR _work_2_buf_words$[ebp]
	push	eax
	mov	ecx, DWORD PTR _work_2_buf$[ebp]
	push	ecx
	call	_DeallocateBlock
	add	esp, 8

; 185  :         DeallocateBlock(work_1_buf, work_1_buf_words);

	mov	edx, DWORD PTR _work_1_buf_words$[ebp]
	push	edx
	mov	eax, DWORD PTR _work_1_buf$[ebp]
	push	eax
	call	_DeallocateBlock
	add	esp, 8

; 186  :         DeallocateBlock(v_2_buf, v_2_buf_words);

	mov	ecx, DWORD PTR _v_2_buf_words$[ebp]
	push	ecx
	mov	edx, DWORD PTR _v_2_buf$[ebp]
	push	edx
	call	_DeallocateBlock
	add	esp, 8

; 187  :         return (PMC_STATUS_NOT_ENOUGH_MEMORY);

	mov	eax, -6					; fffffffaH
	jmp	$LN1@ModulePowe
$LN13@ModulePowe:

; 188  :     }
; 189  : 
; 190  :     __UNIT_TYPE r_bit_count = m->UNIT_BIT_COUNT;

	mov	eax, DWORD PTR _m$[ebp]
	mov	ecx, DWORD PTR [eax+16]
	mov	DWORD PTR _r_bit_count$[ebp], ecx

; 191  :     __UNIT_TYPE r_check_code;
; 192  :     if ((result = AllocateNumber(r, r_bit_count, &r_check_code)) != PMC_STATUS_OK)

	lea	edx, DWORD PTR _r_check_code$[ebp]
	push	edx
	mov	eax, DWORD PTR _r_bit_count$[ebp]
	push	eax
	mov	ecx, DWORD PTR _r$[ebp]
	push	ecx
	call	_AllocateNumber
	add	esp, 12					; 0000000cH
	mov	DWORD PTR _result$[ebp], eax
	cmp	DWORD PTR _result$[ebp], 0
	je	SHORT $LN14@ModulePowe

; 193  :     {
; 194  :         DeallocateBlock(work_v_buf, work_v_buf_words);

	mov	edx, DWORD PTR _work_v_buf_words$[ebp]
	push	edx
	mov	eax, DWORD PTR _work_v_buf$[ebp]
	push	eax
	call	_DeallocateBlock
	add	esp, 8

; 195  :         DeallocateBlock(work_2_buf, work_2_buf_words);

	mov	ecx, DWORD PTR _work_2_buf_words$[ebp]
	push	ecx
	mov	edx, DWORD PTR _work_2_buf$[ebp]
	push	edx
	call	_DeallocateBlock
	add	esp, 8

; 196  :         DeallocateBlock(work_1_buf, work_1_buf_words);

	mov	eax, DWORD PTR _work_1_buf_words$[ebp]
	push	eax
	mov	ecx, DWORD PTR _work_1_buf$[ebp]
	push	ecx
	call	_DeallocateBlock
	add	esp, 8

; 197  :         DeallocateBlock(v_2_buf, v_2_buf_words);

	mov	edx, DWORD PTR _v_2_buf_words$[ebp]
	push	edx
	mov	eax, DWORD PTR _v_2_buf$[ebp]
	push	eax
	call	_DeallocateBlock
	add	esp, 8

; 198  :         return (PMC_STATUS_NOT_ENOUGH_MEMORY);

	mov	eax, -6					; fffffffaH
	jmp	$LN1@ModulePowe
$LN14@ModulePowe:

; 199  :     }
; 200  : 
; 201  :     __UNIT_TYPE v_count;
; 202  :     int cmp = Compare_Easy(v->BLOCK, v->UNIT_WORD_COUNT, m_buf, m_count);

	mov	ecx, DWORD PTR _m_count$[ebp]
	push	ecx
	mov	edx, DWORD PTR _m_buf$[ebp]
	push	edx
	mov	eax, DWORD PTR _v$[ebp]
	mov	ecx, DWORD PTR [eax+12]
	push	ecx
	mov	edx, DWORD PTR _v$[ebp]
	mov	eax, DWORD PTR [edx+36]
	push	eax
	call	_Compare_Easy
	add	esp, 16					; 00000010H
	mov	DWORD PTR _cmp$[ebp], eax

; 203  :     if (cmp == 0)

	cmp	DWORD PTR _cmp$[ebp], 0
	jne	SHORT $LN15@ModulePowe

; 204  :     {
; 205  :         // v == m である場合
; 206  : 
; 207  :         // v を何乗してもその剰余は 0 であるため、0 を返す。
; 208  : 
; 209  :         DeallocateNumber(*r);

	mov	ecx, DWORD PTR _r$[ebp]
	mov	edx, DWORD PTR [ecx]
	push	edx
	call	_DeallocateNumber
	add	esp, 4

; 210  :         DeallocateBlock(work_v_buf, work_v_buf_words);

	mov	eax, DWORD PTR _work_v_buf_words$[ebp]
	push	eax
	mov	ecx, DWORD PTR _work_v_buf$[ebp]
	push	ecx
	call	_DeallocateBlock
	add	esp, 8

; 211  :         DeallocateBlock(work_2_buf, work_2_buf_words);

	mov	edx, DWORD PTR _work_2_buf_words$[ebp]
	push	edx
	mov	eax, DWORD PTR _work_2_buf$[ebp]
	push	eax
	call	_DeallocateBlock
	add	esp, 8

; 212  :         DeallocateBlock(work_1_buf, work_1_buf_words);

	mov	ecx, DWORD PTR _work_1_buf_words$[ebp]
	push	ecx
	mov	edx, DWORD PTR _work_1_buf$[ebp]
	push	edx
	call	_DeallocateBlock
	add	esp, 8

; 213  :         DeallocateBlock(v_2_buf, v_2_buf_words);

	mov	eax, DWORD PTR _v_2_buf_words$[ebp]
	push	eax
	mov	ecx, DWORD PTR _v_2_buf$[ebp]
	push	ecx
	call	_DeallocateBlock
	add	esp, 8

; 214  :         *r = &number_zero;

	mov	edx, DWORD PTR _r$[ebp]
	mov	DWORD PTR [edx], OFFSET _number_zero

; 215  : #ifdef DO_TRACE
; 216  :         ReportOUT(*r);
; 217  : #endif
; 218  :         return (PMC_STATUS_OK);

	xor	eax, eax
	jmp	$LN1@ModulePowe

; 219  :     }

	jmp	$LN16@ModulePowe
$LN15@ModulePowe:

; 220  :     else if (cmp > 0)

	cmp	DWORD PTR _cmp$[ebp], 0
	jle	$LN17@ModulePowe

; 221  :     {
; 222  :         // v > m である場合
; 223  : 
; 224  :         // v2 を v % m に設定する。
; 225  : 
; 226  :         DivRem_X_X(v->BLOCK, v->UNIT_WORD_COUNT, m_buf, m_count, work_v_buf, NULL, v_2_buf);

	mov	eax, DWORD PTR _v_2_buf$[ebp]
	push	eax
	push	0
	mov	ecx, DWORD PTR _work_v_buf$[ebp]
	push	ecx
	mov	edx, DWORD PTR _m_count$[ebp]
	push	edx
	mov	eax, DWORD PTR _m_buf$[ebp]
	push	eax
	mov	ecx, DWORD PTR _v$[ebp]
	mov	edx, DWORD PTR [ecx+12]
	push	edx
	mov	eax, DWORD PTR _v$[ebp]
	mov	ecx, DWORD PTR [eax+36]
	push	ecx
	call	_DivRem_X_X
	add	esp, 28					; 0000001cH

; 227  :         if ((result = CheckBlockLight(work_v_buf, work_v_buf_code)) != PMC_STATUS_OK)

	mov	edx, DWORD PTR _work_v_buf_code$[ebp]
	push	edx
	mov	eax, DWORD PTR _work_v_buf$[ebp]
	push	eax
	call	_CheckBlockLight
	add	esp, 8
	mov	DWORD PTR _result$[ebp], eax
	cmp	DWORD PTR _result$[ebp], 0
	je	SHORT $LN19@ModulePowe

; 228  :             return (result);

	mov	eax, DWORD PTR _result$[ebp]
	jmp	$LN1@ModulePowe
$LN19@ModulePowe:

; 229  :         if ((result = CheckBlockLight(v_2_buf, v_2_buf_code)) != PMC_STATUS_OK)

	mov	ecx, DWORD PTR _v_2_buf_code$[ebp]
	push	ecx
	mov	edx, DWORD PTR _v_2_buf$[ebp]
	push	edx
	call	_CheckBlockLight
	add	esp, 8
	mov	DWORD PTR _result$[ebp], eax
	cmp	DWORD PTR _result$[ebp], 0
	je	SHORT $LN20@ModulePowe

; 230  :             return (result);

	mov	eax, DWORD PTR _result$[ebp]
	jmp	$LN1@ModulePowe
$LN20@ModulePowe:

; 231  :         v_count = m_count;

	mov	eax, DWORD PTR _m_count$[ebp]
	mov	DWORD PTR _v_count$[ebp], eax
$LN2@ModulePowe:

; 232  :         while (v_count > 0 && v_2_buf[v_count - 1] == 0)

	cmp	DWORD PTR _v_count$[ebp], 0
	jbe	SHORT $LN3@ModulePowe
	mov	ecx, DWORD PTR _v_count$[ebp]
	mov	edx, DWORD PTR _v_2_buf$[ebp]
	cmp	DWORD PTR [edx+ecx*4-4], 0
	jne	SHORT $LN3@ModulePowe

; 233  :             --v_count;

	mov	eax, DWORD PTR _v_count$[ebp]
	sub	eax, 1
	mov	DWORD PTR _v_count$[ebp], eax
	jmp	SHORT $LN2@ModulePowe
$LN3@ModulePowe:

; 234  : 
; 235  :         if (v_count <= 0)

	cmp	DWORD PTR _v_count$[ebp], 0
	ja	SHORT $LN21@ModulePowe

; 236  :         {
; 237  :             // v2 が 0 になってしまった場合はべき乗を繰り返しても 0 になることが確定なので 0 を返す
; 238  :             DeallocateNumber(*r);

	mov	ecx, DWORD PTR _r$[ebp]
	mov	edx, DWORD PTR [ecx]
	push	edx
	call	_DeallocateNumber
	add	esp, 4

; 239  :             DeallocateBlock(work_v_buf, work_v_buf_words);

	mov	eax, DWORD PTR _work_v_buf_words$[ebp]
	push	eax
	mov	ecx, DWORD PTR _work_v_buf$[ebp]
	push	ecx
	call	_DeallocateBlock
	add	esp, 8

; 240  :             DeallocateBlock(work_2_buf, work_2_buf_words);

	mov	edx, DWORD PTR _work_2_buf_words$[ebp]
	push	edx
	mov	eax, DWORD PTR _work_2_buf$[ebp]
	push	eax
	call	_DeallocateBlock
	add	esp, 8

; 241  :             DeallocateBlock(work_1_buf, work_1_buf_words);

	mov	ecx, DWORD PTR _work_1_buf_words$[ebp]
	push	ecx
	mov	edx, DWORD PTR _work_1_buf$[ebp]
	push	edx
	call	_DeallocateBlock
	add	esp, 8

; 242  :             DeallocateBlock(v_2_buf, v_2_buf_words);

	mov	eax, DWORD PTR _v_2_buf_words$[ebp]
	push	eax
	mov	ecx, DWORD PTR _v_2_buf$[ebp]
	push	ecx
	call	_DeallocateBlock
	add	esp, 8

; 243  :             *r = &number_zero;

	mov	edx, DWORD PTR _r$[ebp]
	mov	DWORD PTR [edx], OFFSET _number_zero

; 244  : #ifdef DO_TRACE
; 245  :             ReportOUT(*r);
; 246  : #endif
; 247  :             return (PMC_STATUS_OK);

	xor	eax, eax
	jmp	$LN1@ModulePowe
$LN21@ModulePowe:

; 248  :         }
; 249  :     }

	jmp	SHORT $LN16@ModulePowe
$LN17@ModulePowe:

; 250  :     else
; 251  :     {
; 252  :         // v2 を v に設定する。
; 253  : 
; 254  :         _COPY_MEMORY_UNIT(v_2_buf, v->BLOCK, v->UNIT_WORD_COUNT);

	mov	eax, DWORD PTR _v$[ebp]
	mov	ecx, DWORD PTR [eax+12]
	push	ecx
	mov	edx, DWORD PTR _v$[ebp]
	mov	eax, DWORD PTR [edx+36]
	push	eax
	mov	ecx, DWORD PTR _v_2_buf$[ebp]
	push	ecx
	call	__COPY_MEMORY_UNIT
	add	esp, 12					; 0000000cH

; 255  :         v_count = v->UNIT_WORD_COUNT;

	mov	edx, DWORD PTR _v$[ebp]
	mov	eax, DWORD PTR [edx+12]
	mov	DWORD PTR _v_count$[ebp], eax
$LN16@ModulePowe:

; 256  :     }
; 257  : 
; 258  : #ifdef DO_TRACE
; 259  :     ReportLabel("vの初期化");
; 260  :     ReportDump("v", v_2_buf, v_count);
; 261  : #endif
; 262  :     __UNIT_TYPE e_count = e->UNIT_WORD_COUNT;

	mov	ecx, DWORD PTR _e$[ebp]
	mov	edx, DWORD PTR [ecx+12]
	mov	DWORD PTR _e_count$[ebp], edx

; 263  :     __UNIT_TYPE e_mask = ~((__UNIT_TYPE)-1 >> 1);

	mov	DWORD PTR _e_mask$[ebp], -2147483648	; 80000000H

; 264  :     e_mask = e_mask >> _LZCNT_ALT_UNIT(e->BLOCK[e_count - 1]);

	mov	eax, DWORD PTR _e$[ebp]
	mov	ecx, DWORD PTR [eax+36]
	mov	edx, DWORD PTR _e_count$[ebp]
	mov	eax, DWORD PTR [ecx+edx*4-4]
	push	eax
	call	__LZCNT_ALT_UNIT
	add	esp, 4
	mov	edx, DWORD PTR _e_mask$[ebp]
	mov	ecx, eax
	shr	edx, cl
	mov	DWORD PTR _e_mask$[ebp], edx

; 265  :     // e_mask は e の最上位 bit を示しているはず
; 266  :     // かつ、e は 2以上であるので、同時に最下位 bit であることはあり得ない
; 267  :     _COPY_MEMORY_UNIT(work_1_buf, v_2_buf, m_count);

	mov	eax, DWORD PTR _m_count$[ebp]
	push	eax
	mov	ecx, DWORD PTR _v_2_buf$[ebp]
	push	ecx
	mov	edx, DWORD PTR _work_1_buf$[ebp]
	push	edx
	call	__COPY_MEMORY_UNIT
	add	esp, 12					; 0000000cH

; 268  : 
; 269  : #ifdef _DEBUG
; 270  :     if ((e_mask & e->BLOCK[e_count - 1]) == 0)

	mov	eax, DWORD PTR _e$[ebp]
	mov	ecx, DWORD PTR [eax+36]
	mov	edx, DWORD PTR _e_count$[ebp]
	mov	eax, DWORD PTR _e_mask$[ebp]
	and	eax, DWORD PTR [ecx+edx*4-4]
	jne	SHORT $LN22@ModulePowe

; 271  :         *((int*)0) = 0;

	mov	DWORD PTR ds:0, 0
$LN22@ModulePowe:

; 272  : #endif
; 273  : 
; 274  :     __UNIT_TYPE* u_ptr = work_1_buf;

	mov	ecx, DWORD PTR _work_1_buf$[ebp]
	mov	DWORD PTR _u_ptr$[ebp], ecx

; 275  :     __UNIT_TYPE* v_ptr = v_2_buf;

	mov	edx, DWORD PTR _v_2_buf$[ebp]
	mov	DWORD PTR _v_ptr$[ebp], edx

; 276  :     __UNIT_TYPE* w_ptr = work_2_buf;

	mov	eax, DWORD PTR _work_2_buf$[ebp]
	mov	DWORD PTR _w_ptr$[ebp], eax

; 277  :     __UNIT_TYPE u_count = v_count;

	mov	ecx, DWORD PTR _v_count$[ebp]
	mov	DWORD PTR _u_count$[ebp], ecx
$LN4@ModulePowe:

; 278  : 
; 279  :     while (e_count > 0)

	cmp	DWORD PTR _e_count$[ebp], 0
	jbe	$LN5@ModulePowe

; 280  :     {
; 281  : #ifdef DO_TRACE
; 282  :         ReportLabel("ループ開始");
; 283  :         ReportVar("e_count", e_count);
; 284  :         ReportVar("e_mask", e_mask);
; 285  : #endif
; 286  : 
; 287  :         // 次の桁の準備をする
; 288  :         e_mask >>= 1;

	mov	edx, DWORD PTR _e_mask$[ebp]
	shr	edx, 1
	mov	DWORD PTR _e_mask$[ebp], edx

; 289  :         if (e_mask == 0)

	jne	SHORT $LN23@ModulePowe

; 290  :         {
; 291  :             e_mask = ~((__UNIT_TYPE)-1 >> 1);

	mov	DWORD PTR _e_mask$[ebp], -2147483648	; 80000000H

; 292  :             --e_count;

	mov	eax, DWORD PTR _e_count$[ebp]
	sub	eax, 1
	mov	DWORD PTR _e_count$[ebp], eax
$LN23@ModulePowe:

; 293  :         }
; 294  : 
; 295  :         if (e_count <= 0)

	cmp	DWORD PTR _e_count$[ebp], 0
	ja	SHORT $LN24@ModulePowe

; 296  :             break;

	jmp	$LN5@ModulePowe
$LN24@ModulePowe:

; 297  : 
; 298  : #ifdef DO_TRACE
; 299  :         ReportLabel("e の更新");
; 300  :         ReportVar("e_count", e_count);
; 301  :         ReportVar("e_mask", e_mask);
; 302  : #endif
; 303  : 
; 304  :         // w := u * u を計算する
; 305  : #ifdef DO_TRACE
; 306  :         ReportLabel("w := u * u");
; 307  :         ReportDump("u", u_ptr, u_count);
; 308  : #endif
; 309  :         _ZERO_MEMORY_UNIT(w_ptr, work_1_buf_words);

	mov	ecx, DWORD PTR _work_1_buf_words$[ebp]
	push	ecx
	mov	edx, DWORD PTR _w_ptr$[ebp]
	push	edx
	call	__ZERO_MEMORY_UNIT
	add	esp, 8

; 310  :         Multiply_X_X_Imp(u_ptr, u_count, u_ptr, u_count, w_ptr);

	mov	eax, DWORD PTR _w_ptr$[ebp]
	push	eax
	mov	ecx, DWORD PTR _u_count$[ebp]
	push	ecx
	mov	edx, DWORD PTR _u_ptr$[ebp]
	push	edx
	mov	eax, DWORD PTR _u_count$[ebp]
	push	eax
	mov	ecx, DWORD PTR _u_ptr$[ebp]
	push	ecx
	call	_Multiply_X_X_Imp
	add	esp, 20					; 00000014H

; 311  :         if ((result = CheckBlockLight(work_1_buf, work_1_buf_code)) != PMC_STATUS_OK)

	mov	edx, DWORD PTR _work_1_buf_code$[ebp]
	push	edx
	mov	eax, DWORD PTR _work_1_buf$[ebp]
	push	eax
	call	_CheckBlockLight
	add	esp, 8
	mov	DWORD PTR _result$[ebp], eax
	cmp	DWORD PTR _result$[ebp], 0
	je	SHORT $LN25@ModulePowe

; 312  :             return (result);

	mov	eax, DWORD PTR _result$[ebp]
	jmp	$LN1@ModulePowe
$LN25@ModulePowe:

; 313  :         if ((result = CheckBlockLight(work_2_buf, work_2_buf_code)) != PMC_STATUS_OK)

	mov	ecx, DWORD PTR _work_2_buf_code$[ebp]
	push	ecx
	mov	edx, DWORD PTR _work_2_buf$[ebp]
	push	edx
	call	_CheckBlockLight
	add	esp, 8
	mov	DWORD PTR _result$[ebp], eax
	cmp	DWORD PTR _result$[ebp], 0
	je	SHORT $LN26@ModulePowe

; 314  :             return (result);

	mov	eax, DWORD PTR _result$[ebp]
	jmp	$LN1@ModulePowe
$LN26@ModulePowe:

; 315  :         SwapPointer(&u_ptr, &w_ptr);

	lea	eax, DWORD PTR _w_ptr$[ebp]
	push	eax
	lea	ecx, DWORD PTR _u_ptr$[ebp]
	push	ecx
	call	_SwapPointer
	add	esp, 8

; 316  :         u_count *= 2;

	mov	edx, DWORD PTR _u_count$[ebp]
	shl	edx, 1
	mov	DWORD PTR _u_count$[ebp], edx

; 317  :         if (u_ptr[u_count - 1] == 0)

	mov	eax, DWORD PTR _u_count$[ebp]
	mov	ecx, DWORD PTR _u_ptr$[ebp]
	cmp	DWORD PTR [ecx+eax*4-4], 0
	jne	SHORT $LN27@ModulePowe

; 318  :             --u_count;

	mov	edx, DWORD PTR _u_count$[ebp]
	sub	edx, 1
	mov	DWORD PTR _u_count$[ebp], edx
$LN27@ModulePowe:

; 319  : #ifdef DO_TRACE
; 320  :         ReportDump("w", u_ptr, u_count);
; 321  : #endif
; 322  : 
; 323  :         // w := u % m を計算する
; 324  : #ifdef DO_TRACE
; 325  :         ReportLabel("w := u % m");
; 326  :         ReportDump("u", u_ptr, u_count);
; 327  :         ReportDump("m", m_buf, m_count);
; 328  : #endif
; 329  :         if (u_count >= m_count)

	mov	eax, DWORD PTR _u_count$[ebp]
	cmp	eax, DWORD PTR _m_count$[ebp]
	jb	$LN28@ModulePowe

; 330  :         {
; 331  :             _ZERO_MEMORY_UNIT(work_v_buf, work_v_buf_words);

	mov	ecx, DWORD PTR _work_v_buf_words$[ebp]
	push	ecx
	mov	edx, DWORD PTR _work_v_buf$[ebp]
	push	edx
	call	__ZERO_MEMORY_UNIT
	add	esp, 8

; 332  :             _ZERO_MEMORY_UNIT(w_ptr, work_1_buf_words);

	mov	eax, DWORD PTR _work_1_buf_words$[ebp]
	push	eax
	mov	ecx, DWORD PTR _w_ptr$[ebp]
	push	ecx
	call	__ZERO_MEMORY_UNIT
	add	esp, 8

; 333  :             DivRem_X_X(u_ptr, u_count, m_buf, m_count, work_v_buf, NULL, w_ptr);

	mov	edx, DWORD PTR _w_ptr$[ebp]
	push	edx
	push	0
	mov	eax, DWORD PTR _work_v_buf$[ebp]
	push	eax
	mov	ecx, DWORD PTR _m_count$[ebp]
	push	ecx
	mov	edx, DWORD PTR _m_buf$[ebp]
	push	edx
	mov	eax, DWORD PTR _u_count$[ebp]
	push	eax
	mov	ecx, DWORD PTR _u_ptr$[ebp]
	push	ecx
	call	_DivRem_X_X
	add	esp, 28					; 0000001cH

; 334  :             if ((result = CheckBlockLight(work_v_buf, work_v_buf_code)) != PMC_STATUS_OK)

	mov	edx, DWORD PTR _work_v_buf_code$[ebp]
	push	edx
	mov	eax, DWORD PTR _work_v_buf$[ebp]
	push	eax
	call	_CheckBlockLight
	add	esp, 8
	mov	DWORD PTR _result$[ebp], eax
	cmp	DWORD PTR _result$[ebp], 0
	je	SHORT $LN29@ModulePowe

; 335  :                 return (result);

	mov	eax, DWORD PTR _result$[ebp]
	jmp	$LN1@ModulePowe
$LN29@ModulePowe:

; 336  :             if ((result = CheckBlockLight(work_1_buf, work_1_buf_code)) != PMC_STATUS_OK)

	mov	ecx, DWORD PTR _work_1_buf_code$[ebp]
	push	ecx
	mov	edx, DWORD PTR _work_1_buf$[ebp]
	push	edx
	call	_CheckBlockLight
	add	esp, 8
	mov	DWORD PTR _result$[ebp], eax
	cmp	DWORD PTR _result$[ebp], 0
	je	SHORT $LN30@ModulePowe

; 337  :                 return (result);

	mov	eax, DWORD PTR _result$[ebp]
	jmp	$LN1@ModulePowe
$LN30@ModulePowe:

; 338  :             if ((result = CheckBlockLight(work_2_buf, work_2_buf_code)) != PMC_STATUS_OK)

	mov	eax, DWORD PTR _work_2_buf_code$[ebp]
	push	eax
	mov	ecx, DWORD PTR _work_2_buf$[ebp]
	push	ecx
	call	_CheckBlockLight
	add	esp, 8
	mov	DWORD PTR _result$[ebp], eax
	cmp	DWORD PTR _result$[ebp], 0
	je	SHORT $LN31@ModulePowe

; 339  :                 return (result);

	mov	eax, DWORD PTR _result$[ebp]
	jmp	$LN1@ModulePowe
$LN31@ModulePowe:

; 340  :             SwapPointer(&u_ptr, &w_ptr);

	lea	edx, DWORD PTR _w_ptr$[ebp]
	push	edx
	lea	eax, DWORD PTR _u_ptr$[ebp]
	push	eax
	call	_SwapPointer
	add	esp, 8

; 341  :             u_count = m_count;

	mov	ecx, DWORD PTR _m_count$[ebp]
	mov	DWORD PTR _u_count$[ebp], ecx
$LN6@ModulePowe:

; 342  :             while (u_count > 0 && u_ptr[u_count - 1] == 0)

	cmp	DWORD PTR _u_count$[ebp], 0
	jbe	SHORT $LN7@ModulePowe
	mov	edx, DWORD PTR _u_count$[ebp]
	mov	eax, DWORD PTR _u_ptr$[ebp]
	cmp	DWORD PTR [eax+edx*4-4], 0
	jne	SHORT $LN7@ModulePowe

; 343  :                 --u_count;

	mov	ecx, DWORD PTR _u_count$[ebp]
	sub	ecx, 1
	mov	DWORD PTR _u_count$[ebp], ecx
	jmp	SHORT $LN6@ModulePowe
$LN7@ModulePowe:

; 344  : 
; 345  :             if (u_count <= 0)

	cmp	DWORD PTR _u_count$[ebp], 0
	ja	SHORT $LN28@ModulePowe

; 346  :             {
; 347  :                 // 剰余が 0 になった場合はこれ以上続行しても解が 0 以外にはならないので、処理を中断して 0 を返す
; 348  :                 DeallocateNumber(*r);

	mov	edx, DWORD PTR _r$[ebp]
	mov	eax, DWORD PTR [edx]
	push	eax
	call	_DeallocateNumber
	add	esp, 4

; 349  :                 DeallocateBlock(work_v_buf, work_v_buf_words);

	mov	ecx, DWORD PTR _work_v_buf_words$[ebp]
	push	ecx
	mov	edx, DWORD PTR _work_v_buf$[ebp]
	push	edx
	call	_DeallocateBlock
	add	esp, 8

; 350  :                 DeallocateBlock(work_2_buf, work_2_buf_words);

	mov	eax, DWORD PTR _work_2_buf_words$[ebp]
	push	eax
	mov	ecx, DWORD PTR _work_2_buf$[ebp]
	push	ecx
	call	_DeallocateBlock
	add	esp, 8

; 351  :                 DeallocateBlock(work_1_buf, work_1_buf_words);

	mov	edx, DWORD PTR _work_1_buf_words$[ebp]
	push	edx
	mov	eax, DWORD PTR _work_1_buf$[ebp]
	push	eax
	call	_DeallocateBlock
	add	esp, 8

; 352  :                 DeallocateBlock(v_2_buf, v_2_buf_words);

	mov	ecx, DWORD PTR _v_2_buf_words$[ebp]
	push	ecx
	mov	edx, DWORD PTR _v_2_buf$[ebp]
	push	edx
	call	_DeallocateBlock
	add	esp, 8

; 353  :                 *r = &number_zero;

	mov	eax, DWORD PTR _r$[ebp]
	mov	DWORD PTR [eax], OFFSET _number_zero

; 354  : #ifdef DO_TRACE
; 355  :                 ReportOUT(*r);
; 356  : #endif
; 357  :                 return (PMC_STATUS_OK);

	xor	eax, eax
	jmp	$LN1@ModulePowe
$LN28@ModulePowe:

; 358  :             }
; 359  :         }
; 360  : #ifdef DO_TRACE
; 361  :         ReportDump("w", u_ptr, u_count);
; 362  : #endif
; 363  : 
; 364  : #ifdef DO_TRACE
; 365  :         ReportLabel("e のビット検査");
; 366  :         ReportDump("e", e->BLOCK, e->UNIT_WORD_COUNT);
; 367  :         ReportVar("e_count", e_count);
; 368  :         ReportVar("e_mask", e_mask);
; 369  :         ReportVar("e_mask & e->BLOCK[e_count - 1]", e_mask & e->BLOCK[e_count - 1]);
; 370  : #endif
; 371  :         if (e_mask & e->BLOCK[e_count - 1])

	mov	ecx, DWORD PTR _e$[ebp]
	mov	edx, DWORD PTR [ecx+36]
	mov	eax, DWORD PTR _e_count$[ebp]
	mov	ecx, DWORD PTR _e_mask$[ebp]
	and	ecx, DWORD PTR [edx+eax*4-4]
	je	$LN33@ModulePowe

; 372  :         {
; 373  :             // e の当該桁のビットが立っている場合
; 374  : 
; 375  : #ifdef DO_TRACE
; 376  :             ReportLabel("w := u * v");
; 377  :             ReportDump("u", u_ptr, u_count);
; 378  :             ReportDump("v", v_ptr, v_count);
; 379  : #endif
; 380  : 
; 381  :             // w := u * v を計算する
; 382  :             _ZERO_MEMORY_UNIT(w_ptr, work_1_buf_words);

	mov	edx, DWORD PTR _work_1_buf_words$[ebp]
	push	edx
	mov	eax, DWORD PTR _w_ptr$[ebp]
	push	eax
	call	__ZERO_MEMORY_UNIT
	add	esp, 8

; 383  :             Multiply_X_X_Imp(u_ptr, u_count, v_ptr, v_count, w_ptr);

	mov	ecx, DWORD PTR _w_ptr$[ebp]
	push	ecx
	mov	edx, DWORD PTR _v_count$[ebp]
	push	edx
	mov	eax, DWORD PTR _v_ptr$[ebp]
	push	eax
	mov	ecx, DWORD PTR _u_count$[ebp]
	push	ecx
	mov	edx, DWORD PTR _u_ptr$[ebp]
	push	edx
	call	_Multiply_X_X_Imp
	add	esp, 20					; 00000014H

; 384  :             if ((result = CheckBlockLight(work_1_buf, work_1_buf_code)) != PMC_STATUS_OK)

	mov	eax, DWORD PTR _work_1_buf_code$[ebp]
	push	eax
	mov	ecx, DWORD PTR _work_1_buf$[ebp]
	push	ecx
	call	_CheckBlockLight
	add	esp, 8
	mov	DWORD PTR _result$[ebp], eax
	cmp	DWORD PTR _result$[ebp], 0
	je	SHORT $LN34@ModulePowe

; 385  :                 return (result);

	mov	eax, DWORD PTR _result$[ebp]
	jmp	$LN1@ModulePowe
$LN34@ModulePowe:

; 386  :             if ((result = CheckBlockLight(work_2_buf, work_2_buf_code)) != PMC_STATUS_OK)

	mov	edx, DWORD PTR _work_2_buf_code$[ebp]
	push	edx
	mov	eax, DWORD PTR _work_2_buf$[ebp]
	push	eax
	call	_CheckBlockLight
	add	esp, 8
	mov	DWORD PTR _result$[ebp], eax
	cmp	DWORD PTR _result$[ebp], 0
	je	SHORT $LN35@ModulePowe

; 387  :                 return (result);

	mov	eax, DWORD PTR _result$[ebp]
	jmp	$LN1@ModulePowe
$LN35@ModulePowe:

; 388  :             SwapPointer(&u_ptr, &w_ptr);

	lea	ecx, DWORD PTR _w_ptr$[ebp]
	push	ecx
	lea	edx, DWORD PTR _u_ptr$[ebp]
	push	edx
	call	_SwapPointer
	add	esp, 8

; 389  :             u_count += v_count;

	mov	eax, DWORD PTR _u_count$[ebp]
	add	eax, DWORD PTR _v_count$[ebp]
	mov	DWORD PTR _u_count$[ebp], eax

; 390  :             if (u_ptr[u_count - 1] == 0)

	mov	ecx, DWORD PTR _u_count$[ebp]
	mov	edx, DWORD PTR _u_ptr$[ebp]
	cmp	DWORD PTR [edx+ecx*4-4], 0
	jne	SHORT $LN36@ModulePowe

; 391  :                 --u_count;

	mov	eax, DWORD PTR _u_count$[ebp]
	sub	eax, 1
	mov	DWORD PTR _u_count$[ebp], eax
$LN36@ModulePowe:

; 392  : #ifdef DO_TRACE
; 393  :             ReportDump("w", u_ptr, u_count);
; 394  : #endif
; 395  : 
; 396  :             // w := u % m を計算する
; 397  : 
; 398  : #ifdef DO_TRACE
; 399  :             ReportLabel("w := u % m");
; 400  :             ReportDump("u", u_ptr, u_count);
; 401  :             ReportDump("m", m_buf, m_count);
; 402  : #endif
; 403  :             if (u_count >= m_count)

	mov	ecx, DWORD PTR _u_count$[ebp]
	cmp	ecx, DWORD PTR _m_count$[ebp]
	jb	$LN33@ModulePowe

; 404  :             {
; 405  :                 _ZERO_MEMORY_UNIT(work_v_buf, work_v_buf_words);

	mov	edx, DWORD PTR _work_v_buf_words$[ebp]
	push	edx
	mov	eax, DWORD PTR _work_v_buf$[ebp]
	push	eax
	call	__ZERO_MEMORY_UNIT
	add	esp, 8

; 406  :                 _ZERO_MEMORY_UNIT(w_ptr, work_1_buf_words);

	mov	ecx, DWORD PTR _work_1_buf_words$[ebp]
	push	ecx
	mov	edx, DWORD PTR _w_ptr$[ebp]
	push	edx
	call	__ZERO_MEMORY_UNIT
	add	esp, 8

; 407  :                 DivRem_X_X(u_ptr, u_count, m_buf, m_count, work_v_buf, NULL, w_ptr);

	mov	eax, DWORD PTR _w_ptr$[ebp]
	push	eax
	push	0
	mov	ecx, DWORD PTR _work_v_buf$[ebp]
	push	ecx
	mov	edx, DWORD PTR _m_count$[ebp]
	push	edx
	mov	eax, DWORD PTR _m_buf$[ebp]
	push	eax
	mov	ecx, DWORD PTR _u_count$[ebp]
	push	ecx
	mov	edx, DWORD PTR _u_ptr$[ebp]
	push	edx
	call	_DivRem_X_X
	add	esp, 28					; 0000001cH

; 408  :                 if ((result = CheckBlockLight(work_v_buf, work_v_buf_code)) != PMC_STATUS_OK)

	mov	eax, DWORD PTR _work_v_buf_code$[ebp]
	push	eax
	mov	ecx, DWORD PTR _work_v_buf$[ebp]
	push	ecx
	call	_CheckBlockLight
	add	esp, 8
	mov	DWORD PTR _result$[ebp], eax
	cmp	DWORD PTR _result$[ebp], 0
	je	SHORT $LN38@ModulePowe

; 409  :                     return (result);

	mov	eax, DWORD PTR _result$[ebp]
	jmp	$LN1@ModulePowe
$LN38@ModulePowe:

; 410  :                 if ((result = CheckBlockLight(work_1_buf, work_1_buf_code)) != PMC_STATUS_OK)

	mov	edx, DWORD PTR _work_1_buf_code$[ebp]
	push	edx
	mov	eax, DWORD PTR _work_1_buf$[ebp]
	push	eax
	call	_CheckBlockLight
	add	esp, 8
	mov	DWORD PTR _result$[ebp], eax
	cmp	DWORD PTR _result$[ebp], 0
	je	SHORT $LN39@ModulePowe

; 411  :                     return (result);

	mov	eax, DWORD PTR _result$[ebp]
	jmp	$LN1@ModulePowe
$LN39@ModulePowe:

; 412  :                 if ((result = CheckBlockLight(work_2_buf, work_2_buf_code)) != PMC_STATUS_OK)

	mov	ecx, DWORD PTR _work_2_buf_code$[ebp]
	push	ecx
	mov	edx, DWORD PTR _work_2_buf$[ebp]
	push	edx
	call	_CheckBlockLight
	add	esp, 8
	mov	DWORD PTR _result$[ebp], eax
	cmp	DWORD PTR _result$[ebp], 0
	je	SHORT $LN40@ModulePowe

; 413  :                     return (result);

	mov	eax, DWORD PTR _result$[ebp]
	jmp	$LN1@ModulePowe
$LN40@ModulePowe:

; 414  :                 SwapPointer(&u_ptr, &w_ptr);

	lea	eax, DWORD PTR _w_ptr$[ebp]
	push	eax
	lea	ecx, DWORD PTR _u_ptr$[ebp]
	push	ecx
	call	_SwapPointer
	add	esp, 8

; 415  :                 u_count = m_count;

	mov	edx, DWORD PTR _m_count$[ebp]
	mov	DWORD PTR _u_count$[ebp], edx
$LN8@ModulePowe:

; 416  :                 while (u_count > 0 && u_ptr[u_count - 1] == 0)

	cmp	DWORD PTR _u_count$[ebp], 0
	jbe	SHORT $LN9@ModulePowe
	mov	eax, DWORD PTR _u_count$[ebp]
	mov	ecx, DWORD PTR _u_ptr$[ebp]
	cmp	DWORD PTR [ecx+eax*4-4], 0
	jne	SHORT $LN9@ModulePowe

; 417  :                     --u_count;

	mov	edx, DWORD PTR _u_count$[ebp]
	sub	edx, 1
	mov	DWORD PTR _u_count$[ebp], edx
	jmp	SHORT $LN8@ModulePowe
$LN9@ModulePowe:

; 418  : 
; 419  :                 if (u_count <= 0)

	cmp	DWORD PTR _u_count$[ebp], 0
	ja	SHORT $LN33@ModulePowe

; 420  :                 {
; 421  :                     // 剰余が 0 になった場合はこれ以上続行しても解が 0 以外にはならないので、処理を中断して 0 を返す
; 422  :                     DeallocateNumber(*r);

	mov	eax, DWORD PTR _r$[ebp]
	mov	ecx, DWORD PTR [eax]
	push	ecx
	call	_DeallocateNumber
	add	esp, 4

; 423  :                     DeallocateBlock(work_v_buf, work_v_buf_words);

	mov	edx, DWORD PTR _work_v_buf_words$[ebp]
	push	edx
	mov	eax, DWORD PTR _work_v_buf$[ebp]
	push	eax
	call	_DeallocateBlock
	add	esp, 8

; 424  :                     DeallocateBlock(work_2_buf, work_2_buf_words);

	mov	ecx, DWORD PTR _work_2_buf_words$[ebp]
	push	ecx
	mov	edx, DWORD PTR _work_2_buf$[ebp]
	push	edx
	call	_DeallocateBlock
	add	esp, 8

; 425  :                     DeallocateBlock(work_1_buf, work_1_buf_words);

	mov	eax, DWORD PTR _work_1_buf_words$[ebp]
	push	eax
	mov	ecx, DWORD PTR _work_1_buf$[ebp]
	push	ecx
	call	_DeallocateBlock
	add	esp, 8

; 426  :                     DeallocateBlock(v_2_buf, v_2_buf_words);

	mov	edx, DWORD PTR _v_2_buf_words$[ebp]
	push	edx
	mov	eax, DWORD PTR _v_2_buf$[ebp]
	push	eax
	call	_DeallocateBlock
	add	esp, 8

; 427  :                     *r = &number_zero;

	mov	ecx, DWORD PTR _r$[ebp]
	mov	DWORD PTR [ecx], OFFSET _number_zero

; 428  : #ifdef DO_TRACE
; 429  :                     ReportOUT(*r);
; 430  : #endif
; 431  :                     return (PMC_STATUS_OK);

	xor	eax, eax
	jmp	$LN1@ModulePowe
$LN33@ModulePowe:

; 432  :                 }
; 433  :             }
; 434  : #ifdef DO_TRACE
; 435  :             ReportDump("w", u_ptr, u_count);
; 436  : #endif
; 437  :         }
; 438  :     }

	jmp	$LN4@ModulePowe
$LN5@ModulePowe:

; 439  : 
; 440  :     // 最下位桁まで達したので u_ptr と u_count を解として帰る
; 441  :     _COPY_MEMORY_UNIT((*r)->BLOCK, u_ptr, u_count);

	mov	edx, DWORD PTR _u_count$[ebp]
	push	edx
	mov	eax, DWORD PTR _u_ptr$[ebp]
	push	eax
	mov	ecx, DWORD PTR _r$[ebp]
	mov	edx, DWORD PTR [ecx]
	mov	eax, DWORD PTR [edx+36]
	push	eax
	call	__COPY_MEMORY_UNIT
	add	esp, 12					; 0000000cH

; 442  :     if ((result = CheckBlockLight((*r)->BLOCK, r_check_code)) != PMC_STATUS_OK)

	mov	ecx, DWORD PTR _r_check_code$[ebp]
	push	ecx
	mov	edx, DWORD PTR _r$[ebp]
	mov	eax, DWORD PTR [edx]
	mov	ecx, DWORD PTR [eax+36]
	push	ecx
	call	_CheckBlockLight
	add	esp, 8
	mov	DWORD PTR _result$[ebp], eax
	cmp	DWORD PTR _result$[ebp], 0
	je	SHORT $LN42@ModulePowe

; 443  :         return (result);

	mov	eax, DWORD PTR _result$[ebp]
	jmp	SHORT $LN1@ModulePowe
$LN42@ModulePowe:

; 444  :     CommitNumber(*r);

	mov	edx, DWORD PTR _r$[ebp]
	mov	eax, DWORD PTR [edx]
	push	eax
	call	_CommitNumber
	add	esp, 4

; 445  :     DeallocateBlock(work_v_buf, work_v_buf_words);

	mov	ecx, DWORD PTR _work_v_buf_words$[ebp]
	push	ecx
	mov	edx, DWORD PTR _work_v_buf$[ebp]
	push	edx
	call	_DeallocateBlock
	add	esp, 8

; 446  :     DeallocateBlock(work_2_buf, work_2_buf_words);

	mov	eax, DWORD PTR _work_2_buf_words$[ebp]
	push	eax
	mov	ecx, DWORD PTR _work_2_buf$[ebp]
	push	ecx
	call	_DeallocateBlock
	add	esp, 8

; 447  :     DeallocateBlock(work_1_buf, work_1_buf_words);

	mov	edx, DWORD PTR _work_1_buf_words$[ebp]
	push	edx
	mov	eax, DWORD PTR _work_1_buf$[ebp]
	push	eax
	call	_DeallocateBlock
	add	esp, 8

; 448  :     DeallocateBlock(v_2_buf, v_2_buf_words);

	mov	ecx, DWORD PTR _v_2_buf_words$[ebp]
	push	ecx
	mov	edx, DWORD PTR _v_2_buf$[ebp]
	push	edx
	call	_DeallocateBlock
	add	esp, 8

; 449  : #ifdef DO_TRACE
; 450  :     ReportOUT(*r);
; 451  : #endif
; 452  :     return (PMC_STATUS_OK);

	xor	eax, eax
$LN1@ModulePowe:

; 453  : }

	push	edx
	mov	ecx, ebp
	push	eax
	lea	edx, DWORD PTR $LN56@ModulePowe
	call	@_RTC_CheckStackVars@8
	pop	eax
	pop	edx
	pop	edi
	add	esp, 204				; 000000ccH
	cmp	ebp, esp
	call	__RTC_CheckEsp
	mov	esp, ebp
	pop	ebp
	ret	0
$LN56@ModulePowe:
	DD	11					; 0000000bH
	DD	$LN55@ModulePowe
$LN55@ModulePowe:
	DD	-24					; ffffffe8H
	DD	4
	DD	$LN44@ModulePowe
	DD	-36					; ffffffdcH
	DD	4
	DD	$LN45@ModulePowe
	DD	-56					; ffffffc8H
	DD	4
	DD	$LN46@ModulePowe
	DD	-68					; ffffffbcH
	DD	4
	DD	$LN47@ModulePowe
	DD	-88					; ffffffa8H
	DD	4
	DD	$LN48@ModulePowe
	DD	-100					; ffffff9cH
	DD	4
	DD	$LN49@ModulePowe
	DD	-120					; ffffff88H
	DD	4
	DD	$LN50@ModulePowe
	DD	-132					; ffffff7cH
	DD	4
	DD	$LN51@ModulePowe
	DD	-152					; ffffff68H
	DD	4
	DD	$LN52@ModulePowe
	DD	-180					; ffffff4cH
	DD	4
	DD	$LN53@ModulePowe
	DD	-196					; ffffff3cH
	DD	4
	DD	$LN54@ModulePowe
$LN54@ModulePowe:
	DB	119					; 00000077H
	DB	95					; 0000005fH
	DB	112					; 00000070H
	DB	116					; 00000074H
	DB	114					; 00000072H
	DB	0
$LN53@ModulePowe:
	DB	117					; 00000075H
	DB	95					; 0000005fH
	DB	112					; 00000070H
	DB	116					; 00000074H
	DB	114					; 00000072H
	DB	0
$LN52@ModulePowe:
	DB	114					; 00000072H
	DB	95					; 0000005fH
	DB	99					; 00000063H
	DB	104					; 00000068H
	DB	101					; 00000065H
	DB	99					; 00000063H
	DB	107					; 0000006bH
	DB	95					; 0000005fH
	DB	99					; 00000063H
	DB	111					; 0000006fH
	DB	100					; 00000064H
	DB	101					; 00000065H
	DB	0
$LN51@ModulePowe:
	DB	119					; 00000077H
	DB	111					; 0000006fH
	DB	114					; 00000072H
	DB	107					; 0000006bH
	DB	95					; 0000005fH
	DB	118					; 00000076H
	DB	95					; 0000005fH
	DB	98					; 00000062H
	DB	117					; 00000075H
	DB	102					; 00000066H
	DB	95					; 0000005fH
	DB	119					; 00000077H
	DB	111					; 0000006fH
	DB	114					; 00000072H
	DB	100					; 00000064H
	DB	115					; 00000073H
	DB	0
$LN50@ModulePowe:
	DB	119					; 00000077H
	DB	111					; 0000006fH
	DB	114					; 00000072H
	DB	107					; 0000006bH
	DB	95					; 0000005fH
	DB	118					; 00000076H
	DB	95					; 0000005fH
	DB	98					; 00000062H
	DB	117					; 00000075H
	DB	102					; 00000066H
	DB	95					; 0000005fH
	DB	99					; 00000063H
	DB	111					; 0000006fH
	DB	100					; 00000064H
	DB	101					; 00000065H
	DB	0
$LN49@ModulePowe:
	DB	119					; 00000077H
	DB	111					; 0000006fH
	DB	114					; 00000072H
	DB	107					; 0000006bH
	DB	95					; 0000005fH
	DB	50					; 00000032H
	DB	95					; 0000005fH
	DB	98					; 00000062H
	DB	117					; 00000075H
	DB	102					; 00000066H
	DB	95					; 0000005fH
	DB	119					; 00000077H
	DB	111					; 0000006fH
	DB	114					; 00000072H
	DB	100					; 00000064H
	DB	115					; 00000073H
	DB	0
$LN48@ModulePowe:
	DB	119					; 00000077H
	DB	111					; 0000006fH
	DB	114					; 00000072H
	DB	107					; 0000006bH
	DB	95					; 0000005fH
	DB	50					; 00000032H
	DB	95					; 0000005fH
	DB	98					; 00000062H
	DB	117					; 00000075H
	DB	102					; 00000066H
	DB	95					; 0000005fH
	DB	99					; 00000063H
	DB	111					; 0000006fH
	DB	100					; 00000064H
	DB	101					; 00000065H
	DB	0
$LN47@ModulePowe:
	DB	119					; 00000077H
	DB	111					; 0000006fH
	DB	114					; 00000072H
	DB	107					; 0000006bH
	DB	95					; 0000005fH
	DB	49					; 00000031H
	DB	95					; 0000005fH
	DB	98					; 00000062H
	DB	117					; 00000075H
	DB	102					; 00000066H
	DB	95					; 0000005fH
	DB	119					; 00000077H
	DB	111					; 0000006fH
	DB	114					; 00000072H
	DB	100					; 00000064H
	DB	115					; 00000073H
	DB	0
$LN46@ModulePowe:
	DB	119					; 00000077H
	DB	111					; 0000006fH
	DB	114					; 00000072H
	DB	107					; 0000006bH
	DB	95					; 0000005fH
	DB	49					; 00000031H
	DB	95					; 0000005fH
	DB	98					; 00000062H
	DB	117					; 00000075H
	DB	102					; 00000066H
	DB	95					; 0000005fH
	DB	99					; 00000063H
	DB	111					; 0000006fH
	DB	100					; 00000064H
	DB	101					; 00000065H
	DB	0
$LN45@ModulePowe:
	DB	118					; 00000076H
	DB	95					; 0000005fH
	DB	50					; 00000032H
	DB	95					; 0000005fH
	DB	98					; 00000062H
	DB	117					; 00000075H
	DB	102					; 00000066H
	DB	95					; 0000005fH
	DB	119					; 00000077H
	DB	111					; 0000006fH
	DB	114					; 00000072H
	DB	100					; 00000064H
	DB	115					; 00000073H
	DB	0
$LN44@ModulePowe:
	DB	118					; 00000076H
	DB	95					; 0000005fH
	DB	50					; 00000032H
	DB	95					; 0000005fH
	DB	98					; 00000062H
	DB	117					; 00000075H
	DB	102					; 00000066H
	DB	95					; 0000005fH
	DB	99					; 00000063H
	DB	111					; 0000006fH
	DB	100					; 00000064H
	DB	101					; 00000065H
	DB	0
_ModulePower ENDP
_TEXT	ENDS
; Function compile flags: /Odtp /RTCsu
; File z:\sources\lunor\repos\rougemeilland\palmtree.math.core.uint\palmtree.math.core.uint\pmc_modpow.c
_TEXT	SEGMENT
_r_check_code$1 = -40					; size = 4
_work_v_buf$2 = -32					; size = 4
_work_v_buf_words$3 = -24				; size = 4
_work_v_buf_code$4 = -12				; size = 4
_result$ = -4						; size = 4
_u$ = 8							; size = 4
_v$ = 12						; size = 4
_r$ = 16						; size = 4
_Remainder PROC

; 98   : {

	push	ebp
	mov	ebp, esp
	sub	esp, 44					; 0000002cH
	push	edi
	lea	edi, DWORD PTR [ebp-44]
	mov	ecx, 11					; 0000000bH
	mov	eax, -858993460				; ccccccccH
	rep stosd
	mov	ecx, OFFSET __6553949D_pmc_modpow@c
	call	@__CheckForDebuggerJustMyCode@4

; 99   :     PMC_STATUS_CODE result;
; 100  : 
; 101  :     if (u->UNIT_BIT_COUNT < v->UNIT_BIT_COUNT)

	mov	eax, DWORD PTR _u$[ebp]
	mov	ecx, DWORD PTR _v$[ebp]
	mov	edx, DWORD PTR [eax+16]
	cmp	edx, DWORD PTR [ecx+16]
	jae	SHORT $LN2@Remainder

; 102  :     {
; 103  :         if ((result = DuplicateNumber(u, r)) != PMC_STATUS_OK)

	mov	eax, DWORD PTR _r$[ebp]
	push	eax
	mov	ecx, DWORD PTR _u$[ebp]
	push	ecx
	call	_DuplicateNumber
	add	esp, 8
	mov	DWORD PTR _result$[ebp], eax
	cmp	DWORD PTR _result$[ebp], 0
	je	SHORT $LN4@Remainder

; 104  :             return (result);

	mov	eax, DWORD PTR _result$[ebp]
	jmp	$LN1@Remainder
$LN4@Remainder:

; 105  :     }

	jmp	$LN3@Remainder
$LN2@Remainder:

; 106  :     else
; 107  :     {
; 108  :         __UNIT_TYPE work_v_buf_code;
; 109  :         __UNIT_TYPE work_v_buf_words;
; 110  :         __UNIT_TYPE* work_v_buf = AllocateBlock(v->UNIT_BIT_COUNT, &work_v_buf_words, &work_v_buf_code);

	lea	edx, DWORD PTR _work_v_buf_code$4[ebp]
	push	edx
	lea	eax, DWORD PTR _work_v_buf_words$3[ebp]
	push	eax
	mov	ecx, DWORD PTR _v$[ebp]
	mov	edx, DWORD PTR [ecx+16]
	push	edx
	call	_AllocateBlock
	add	esp, 12					; 0000000cH
	mov	DWORD PTR _work_v_buf$2[ebp], eax

; 111  :         if (work_v_buf == NULL)

	cmp	DWORD PTR _work_v_buf$2[ebp], 0
	jne	SHORT $LN5@Remainder

; 112  :             return (PMC_STATUS_NOT_ENOUGH_MEMORY);

	mov	eax, -6					; fffffffaH
	jmp	$LN1@Remainder
$LN5@Remainder:

; 113  :         __UNIT_TYPE r_check_code;
; 114  :         if ((result = AllocateNumber(r, u->UNIT_BIT_COUNT + __UNIT_TYPE_BIT_COUNT, &r_check_code)) != PMC_STATUS_OK)

	lea	eax, DWORD PTR _r_check_code$1[ebp]
	push	eax
	mov	ecx, DWORD PTR _u$[ebp]
	mov	edx, DWORD PTR [ecx+16]
	add	edx, 32					; 00000020H
	push	edx
	mov	eax, DWORD PTR _r$[ebp]
	push	eax
	call	_AllocateNumber
	add	esp, 12					; 0000000cH
	mov	DWORD PTR _result$[ebp], eax
	cmp	DWORD PTR _result$[ebp], 0
	je	SHORT $LN6@Remainder

; 115  :         {
; 116  :             DeallocateBlock(work_v_buf, work_v_buf_words);

	mov	ecx, DWORD PTR _work_v_buf_words$3[ebp]
	push	ecx
	mov	edx, DWORD PTR _work_v_buf$2[ebp]
	push	edx
	call	_DeallocateBlock
	add	esp, 8

; 117  :             return (PMC_STATUS_NOT_ENOUGH_MEMORY);

	mov	eax, -6					; fffffffaH
	jmp	$LN1@Remainder
$LN6@Remainder:

; 118  :         }
; 119  : 
; 120  :         if (u->UNIT_WORD_COUNT < v->UNIT_WORD_COUNT)

	mov	eax, DWORD PTR _u$[ebp]
	mov	ecx, DWORD PTR _v$[ebp]
	mov	edx, DWORD PTR [eax+12]
	cmp	edx, DWORD PTR [ecx+12]
	jae	SHORT $LN7@Remainder

; 121  :             _COPY_MEMORY_UNIT((*r)->BLOCK, u->BLOCK, u->UNIT_WORD_COUNT);

	mov	eax, DWORD PTR _u$[ebp]
	mov	ecx, DWORD PTR [eax+12]
	push	ecx
	mov	edx, DWORD PTR _u$[ebp]
	mov	eax, DWORD PTR [edx+36]
	push	eax
	mov	ecx, DWORD PTR _r$[ebp]
	mov	edx, DWORD PTR [ecx]
	mov	eax, DWORD PTR [edx+36]
	push	eax
	call	__COPY_MEMORY_UNIT
	add	esp, 12					; 0000000cH
	jmp	SHORT $LN8@Remainder
$LN7@Remainder:

; 122  :         else
; 123  :         {
; 124  :             DivRem_X_X(u->BLOCK, u->UNIT_WORD_COUNT, v->BLOCK, v->UNIT_WORD_COUNT, work_v_buf, NULL, (*r)->BLOCK);

	mov	ecx, DWORD PTR _r$[ebp]
	mov	edx, DWORD PTR [ecx]
	mov	eax, DWORD PTR [edx+36]
	push	eax
	push	0
	mov	ecx, DWORD PTR _work_v_buf$2[ebp]
	push	ecx
	mov	edx, DWORD PTR _v$[ebp]
	mov	eax, DWORD PTR [edx+12]
	push	eax
	mov	ecx, DWORD PTR _v$[ebp]
	mov	edx, DWORD PTR [ecx+36]
	push	edx
	mov	eax, DWORD PTR _u$[ebp]
	mov	ecx, DWORD PTR [eax+12]
	push	ecx
	mov	edx, DWORD PTR _u$[ebp]
	mov	eax, DWORD PTR [edx+36]
	push	eax
	call	_DivRem_X_X
	add	esp, 28					; 0000001cH

; 125  :             if ((result = CheckBlockLight(work_v_buf, work_v_buf_code)) != PMC_STATUS_OK)

	mov	ecx, DWORD PTR _work_v_buf_code$4[ebp]
	push	ecx
	mov	edx, DWORD PTR _work_v_buf$2[ebp]
	push	edx
	call	_CheckBlockLight
	add	esp, 8
	mov	DWORD PTR _result$[ebp], eax
	cmp	DWORD PTR _result$[ebp], 0
	je	SHORT $LN9@Remainder

; 126  :                 return (result);

	mov	eax, DWORD PTR _result$[ebp]
	jmp	SHORT $LN1@Remainder
$LN9@Remainder:

; 127  :             if ((result = CheckBlockLight((*r)->BLOCK, r_check_code)) != PMC_STATUS_OK)

	mov	eax, DWORD PTR _r_check_code$1[ebp]
	push	eax
	mov	ecx, DWORD PTR _r$[ebp]
	mov	edx, DWORD PTR [ecx]
	mov	eax, DWORD PTR [edx+36]
	push	eax
	call	_CheckBlockLight
	add	esp, 8
	mov	DWORD PTR _result$[ebp], eax
	cmp	DWORD PTR _result$[ebp], 0
	je	SHORT $LN8@Remainder

; 128  :                 return (result);

	mov	eax, DWORD PTR _result$[ebp]
	jmp	SHORT $LN1@Remainder
$LN8@Remainder:

; 129  :         }
; 130  : 
; 131  :         DeallocateBlock(work_v_buf, work_v_buf_words);

	mov	ecx, DWORD PTR _work_v_buf_words$3[ebp]
	push	ecx
	mov	edx, DWORD PTR _work_v_buf$2[ebp]
	push	edx
	call	_DeallocateBlock
	add	esp, 8

; 132  :         CommitNumber(*r);

	mov	eax, DWORD PTR _r$[ebp]
	mov	ecx, DWORD PTR [eax]
	push	ecx
	call	_CommitNumber
	add	esp, 4
$LN3@Remainder:

; 133  :     }
; 134  :     return (PMC_STATUS_OK);

	xor	eax, eax
$LN1@Remainder:

; 135  : }

	push	edx
	mov	ecx, ebp
	push	eax
	lea	edx, DWORD PTR $LN16@Remainder
	call	@_RTC_CheckStackVars@8
	pop	eax
	pop	edx
	pop	edi
	add	esp, 44					; 0000002cH
	cmp	ebp, esp
	call	__RTC_CheckEsp
	mov	esp, ebp
	pop	ebp
	ret	0
	npad	2
$LN16@Remainder:
	DD	3
	DD	$LN15@Remainder
$LN15@Remainder:
	DD	-12					; fffffff4H
	DD	4
	DD	$LN12@Remainder
	DD	-24					; ffffffe8H
	DD	4
	DD	$LN13@Remainder
	DD	-40					; ffffffd8H
	DD	4
	DD	$LN14@Remainder
$LN14@Remainder:
	DB	114					; 00000072H
	DB	95					; 0000005fH
	DB	99					; 00000063H
	DB	104					; 00000068H
	DB	101					; 00000065H
	DB	99					; 00000063H
	DB	107					; 0000006bH
	DB	95					; 0000005fH
	DB	99					; 00000063H
	DB	111					; 0000006fH
	DB	100					; 00000064H
	DB	101					; 00000065H
	DB	0
$LN13@Remainder:
	DB	119					; 00000077H
	DB	111					; 0000006fH
	DB	114					; 00000072H
	DB	107					; 0000006bH
	DB	95					; 0000005fH
	DB	118					; 00000076H
	DB	95					; 0000005fH
	DB	98					; 00000062H
	DB	117					; 00000075H
	DB	102					; 00000066H
	DB	95					; 0000005fH
	DB	119					; 00000077H
	DB	111					; 0000006fH
	DB	114					; 00000072H
	DB	100					; 00000064H
	DB	115					; 00000073H
	DB	0
$LN12@Remainder:
	DB	119					; 00000077H
	DB	111					; 0000006fH
	DB	114					; 00000072H
	DB	107					; 0000006bH
	DB	95					; 0000005fH
	DB	118					; 00000076H
	DB	95					; 0000005fH
	DB	98					; 00000062H
	DB	117					; 00000075H
	DB	102					; 00000066H
	DB	95					; 0000005fH
	DB	99					; 00000063H
	DB	111					; 0000006fH
	DB	100					; 00000064H
	DB	101					; 00000065H
	DB	0
_Remainder ENDP
_TEXT	ENDS
; Function compile flags: /Odtp /RTCsu
; File z:\sources\lunor\repos\rougemeilland\palmtree.math.core.uint\palmtree.math.core.uint\pmc_modpow.c
_TEXT	SEGMENT
_t$ = -4						; size = 4
_u$ = 8							; size = 4
_v$ = 12						; size = 4
_SwapPointer PROC

; 91   : {

	push	ebp
	mov	ebp, esp
	push	ecx
	mov	DWORD PTR [ebp-4], -858993460		; ccccccccH
	mov	ecx, OFFSET __6553949D_pmc_modpow@c
	call	@__CheckForDebuggerJustMyCode@4

; 92   :     __UNIT_TYPE* t = *u;

	mov	eax, DWORD PTR _u$[ebp]
	mov	ecx, DWORD PTR [eax]
	mov	DWORD PTR _t$[ebp], ecx

; 93   :     *u = *v;

	mov	edx, DWORD PTR _u$[ebp]
	mov	eax, DWORD PTR _v$[ebp]
	mov	ecx, DWORD PTR [eax]
	mov	DWORD PTR [edx], ecx

; 94   :     *v = t;

	mov	edx, DWORD PTR _v$[ebp]
	mov	eax, DWORD PTR _t$[ebp]
	mov	DWORD PTR [edx], eax

; 95   : }

	add	esp, 4
	cmp	ebp, esp
	call	__RTC_CheckEsp
	mov	esp, ebp
	pop	ebp
	ret	0
_SwapPointer ENDP
_TEXT	ENDS
; Function compile flags: /Odtp /RTCsu
; File z:\sources\lunor\repos\rougemeilland\palmtree.math.core.uint\palmtree.math.core.uint\pmc_modpow.c
_TEXT	SEGMENT
_u$ = 8							; size = 4
_u_count$ = 12						; size = 4
_v$ = 16						; size = 4
_v_count$ = 20						; size = 4
_Compare_Easy PROC

; 81   : {

	push	ebp
	mov	ebp, esp
	mov	ecx, OFFSET __6553949D_pmc_modpow@c
	call	@__CheckForDebuggerJustMyCode@4

; 82   :     if (u_count > v_count)

	mov	eax, DWORD PTR _u_count$[ebp]
	cmp	eax, DWORD PTR _v_count$[ebp]
	jbe	SHORT $LN2@Compare_Ea

; 83   :         return (1);

	mov	eax, 1
	jmp	SHORT $LN1@Compare_Ea
	jmp	SHORT $LN1@Compare_Ea
$LN2@Compare_Ea:

; 84   :     else if (u_count < v_count)

	mov	ecx, DWORD PTR _u_count$[ebp]
	cmp	ecx, DWORD PTR _v_count$[ebp]
	jae	SHORT $LN4@Compare_Ea

; 85   :         return (-1);

	or	eax, -1
	jmp	SHORT $LN1@Compare_Ea
	jmp	SHORT $LN1@Compare_Ea
$LN4@Compare_Ea:

; 86   :     else
; 87   :         return (Compare_Imp(u, v, u_count));

	mov	edx, DWORD PTR _u_count$[ebp]
	push	edx
	mov	eax, DWORD PTR _v$[ebp]
	push	eax
	mov	ecx, DWORD PTR _u$[ebp]
	push	ecx
	call	_Compare_Imp
	add	esp, 12					; 0000000cH
$LN1@Compare_Ea:

; 88   : }

	cmp	ebp, esp
	call	__RTC_CheckEsp
	pop	ebp
	ret	0
_Compare_Easy ENDP
_TEXT	ENDS
; Function compile flags: /Odtp /RTCsu
; File z:\sources\lunor\repos\rougemeilland\palmtree.math.core.uint\palmtree.math.core.uint\pmc_inline_func.h
_TEXT	SEGMENT
_pos$ = -8						; size = 4
_x$ = 8							; size = 4
__LZCNT_ALT_UNIT PROC

; 623  :     {

	push	ebp
	mov	ebp, esp
	sub	esp, 12					; 0000000cH
	mov	DWORD PTR [ebp-12], -858993460		; ccccccccH
	mov	DWORD PTR [ebp-8], -858993460		; ccccccccH
	mov	DWORD PTR [ebp-4], -858993460		; ccccccccH
	mov	ecx, OFFSET __8CA3E54E_pmc_inline_func@h
	call	@__CheckForDebuggerJustMyCode@4

; 624  :         if (x == 0)

	cmp	DWORD PTR _x$[ebp], 0
	jne	SHORT $LN2@LZCNT_ALT_

; 625  :             return (sizeof(x) * 8);

	mov	eax, 32					; 00000020H
	jmp	SHORT $LN1@LZCNT_ALT_
$LN2@LZCNT_ALT_:

; 626  : #ifdef _M_IX86
; 627  :         _UINT32_T pos;
; 628  : #ifdef _MSC_VER
; 629  :         _BitScanReverse(&pos, x);

	bsr	eax, DWORD PTR _x$[ebp]
	mov	DWORD PTR _pos$[ebp], eax

; 630  : #elif defined(__GNUC__)
; 631  :         __asm__("bsrl %1, %0" : "=r"(pos) : "rm"(x));
; 632  : #else
; 633  : #error unknown compiler
; 634  : #endif
; 635  : #elif defined(_M_X64)
; 636  : #ifdef _MSC_VER
; 637  :         _UINT32_T pos;
; 638  :         _BitScanReverse64(&pos, x);
; 639  : #elif defined(__GNUC__)
; 640  :         _UINT64_T pos;
; 641  :         __asm__("bsrq %1, %0" : "=r"(pos) : "rm"(x));
; 642  : #else
; 643  : #error unknown compiler
; 644  : #endif
; 645  : #else
; 646  : #error unknown platform
; 647  : #endif
; 648  :         return (sizeof(x) * 8 - 1 - pos);

	mov	eax, 31					; 0000001fH
	sub	eax, DWORD PTR _pos$[ebp]
$LN1@LZCNT_ALT_:

; 649  :     }

	push	edx
	mov	ecx, ebp
	push	eax
	lea	edx, DWORD PTR $LN6@LZCNT_ALT_
	call	@_RTC_CheckStackVars@8
	pop	eax
	pop	edx
	add	esp, 12					; 0000000cH
	cmp	ebp, esp
	call	__RTC_CheckEsp
	mov	esp, ebp
	pop	ebp
	ret	0
$LN6@LZCNT_ALT_:
	DD	1
	DD	$LN5@LZCNT_ALT_
$LN5@LZCNT_ALT_:
	DD	-8					; fffffff8H
	DD	4
	DD	$LN4@LZCNT_ALT_
$LN4@LZCNT_ALT_:
	DB	112					; 00000070H
	DB	111					; 0000006fH
	DB	115					; 00000073H
	DB	0
__LZCNT_ALT_UNIT ENDP
_TEXT	ENDS
; Function compile flags: /Odtp /RTCsu
; File z:\sources\lunor\repos\rougemeilland\palmtree.math.core.uint\palmtree.math.core.uint\pmc_inline_func.h
_TEXT	SEGMENT
_d$ = 8							; size = 4
_count$ = 12						; size = 4
__ZERO_MEMORY_UNIT PROC

; 110  :     {

	push	ebp
	mov	ebp, esp
	push	edi
	mov	ecx, OFFSET __8CA3E54E_pmc_inline_func@h
	call	@__CheckForDebuggerJustMyCode@4

; 111  : #ifdef _M_IX86
; 112  :         __stosd((unsigned long*)d, 0, (unsigned long)count);

	mov	edi, DWORD PTR _d$[ebp]
	xor	eax, eax
	mov	ecx, DWORD PTR _count$[ebp]
	rep stosd

; 113  : #elif defined(_M_X64)
; 114  :         __stosq(d, 0, count);
; 115  : #else
; 116  : #error unknown platform
; 117  : #endif
; 118  :     }

	pop	edi
	cmp	ebp, esp
	call	__RTC_CheckEsp
	pop	ebp
	ret	0
__ZERO_MEMORY_UNIT ENDP
_TEXT	ENDS
; Function compile flags: /Odtp /RTCsu
; File z:\sources\lunor\repos\rougemeilland\palmtree.math.core.uint\palmtree.math.core.uint\pmc_inline_func.h
_TEXT	SEGMENT
_d$ = 8							; size = 4
_s$ = 12						; size = 4
_count$ = 16						; size = 4
__COPY_MEMORY_UNIT PROC

; 60   :     {

	push	ebp
	mov	ebp, esp
	push	esi
	push	edi
	mov	ecx, OFFSET __8CA3E54E_pmc_inline_func@h
	call	@__CheckForDebuggerJustMyCode@4

; 61   : #ifdef _M_IX86
; 62   :         __movsd((unsigned long *)d, (unsigned long *)s, (unsigned long)count);

	mov	edi, DWORD PTR _d$[ebp]
	mov	esi, DWORD PTR _s$[ebp]
	mov	ecx, DWORD PTR _count$[ebp]
	rep movsd

; 63   : #elif defined(_M_X64)
; 64   :         __movsq(d, s, count);
; 65   : #else
; 66   : #error unknown platform
; 67   : #endif
; 68   :     }

	pop	edi
	pop	esi
	cmp	ebp, esp
	call	__RTC_CheckEsp
	pop	ebp
	ret	0
__COPY_MEMORY_UNIT ENDP
_TEXT	ENDS
; Function compile flags: /Odtp /RTCsu
; File z:\sources\lunor\repos\rougemeilland\palmtree.math.core.uint\palmtree.math.core.uint\pmc_modpow.c
_TEXT	SEGMENT
_result$ = -4						; size = 4
_v$ = 8							; size = 4
_e$ = 12						; size = 4
_m$ = 16						; size = 4
_r$ = 20						; size = 4
_PMC_ModPow_X_X_X@16 PROC

; 551  : {

	push	ebp
	mov	ebp, esp
	push	ecx
	mov	DWORD PTR [ebp-4], -858993460		; ccccccccH
	mov	ecx, OFFSET __6553949D_pmc_modpow@c
	call	@__CheckForDebuggerJustMyCode@4

; 552  :     if (v == NULL)

	cmp	DWORD PTR _v$[ebp], 0
	jne	SHORT $LN2@PMC_ModPow

; 553  :         return (PMC_STATUS_ARGUMENT_ERROR);

	or	eax, -1
	jmp	$LN1@PMC_ModPow
$LN2@PMC_ModPow:

; 554  :     if (e == NULL)

	cmp	DWORD PTR _e$[ebp], 0
	jne	SHORT $LN3@PMC_ModPow

; 555  :         return (PMC_STATUS_ARGUMENT_ERROR);

	or	eax, -1
	jmp	$LN1@PMC_ModPow
$LN3@PMC_ModPow:

; 556  :     if (m == NULL)

	cmp	DWORD PTR _m$[ebp], 0
	jne	SHORT $LN4@PMC_ModPow

; 557  :         return (PMC_STATUS_ARGUMENT_ERROR);

	or	eax, -1
	jmp	$LN1@PMC_ModPow
$LN4@PMC_ModPow:

; 558  :     if (r == NULL)

	cmp	DWORD PTR _r$[ebp], 0
	jne	SHORT $LN5@PMC_ModPow

; 559  :         return (PMC_STATUS_ARGUMENT_ERROR);

	or	eax, -1
	jmp	$LN1@PMC_ModPow
$LN5@PMC_ModPow:

; 560  :     PMC_STATUS_CODE result;
; 561  :     if ((result = CheckNumber((NUMBER_HEADER*)v)) != PMC_STATUS_OK)

	mov	eax, DWORD PTR _v$[ebp]
	push	eax
	call	_CheckNumber
	add	esp, 4
	mov	DWORD PTR _result$[ebp], eax
	cmp	DWORD PTR _result$[ebp], 0
	je	SHORT $LN6@PMC_ModPow

; 562  :         return (result);

	mov	eax, DWORD PTR _result$[ebp]
	jmp	SHORT $LN1@PMC_ModPow
$LN6@PMC_ModPow:

; 563  :     if ((result = CheckNumber((NUMBER_HEADER*)e)) != PMC_STATUS_OK)

	mov	ecx, DWORD PTR _e$[ebp]
	push	ecx
	call	_CheckNumber
	add	esp, 4
	mov	DWORD PTR _result$[ebp], eax
	cmp	DWORD PTR _result$[ebp], 0
	je	SHORT $LN7@PMC_ModPow

; 564  :         return (result);

	mov	eax, DWORD PTR _result$[ebp]
	jmp	SHORT $LN1@PMC_ModPow
$LN7@PMC_ModPow:

; 565  :     if ((result = CheckNumber((NUMBER_HEADER*)m)) != PMC_STATUS_OK)

	mov	edx, DWORD PTR _m$[ebp]
	push	edx
	call	_CheckNumber
	add	esp, 4
	mov	DWORD PTR _result$[ebp], eax
	cmp	DWORD PTR _result$[ebp], 0
	je	SHORT $LN8@PMC_ModPow

; 566  :         return (result);

	mov	eax, DWORD PTR _result$[ebp]
	jmp	SHORT $LN1@PMC_ModPow
$LN8@PMC_ModPow:

; 567  :     if ((result = PMC_ModPow_X_X_X_Imp((NUMBER_HEADER*)v, (NUMBER_HEADER*)e, (NUMBER_HEADER*)m, (NUMBER_HEADER**)r)) != PMC_STATUS_OK)

	mov	eax, DWORD PTR _r$[ebp]
	push	eax
	mov	ecx, DWORD PTR _m$[ebp]
	push	ecx
	mov	edx, DWORD PTR _e$[ebp]
	push	edx
	mov	eax, DWORD PTR _v$[ebp]
	push	eax
	call	_PMC_ModPow_X_X_X_Imp
	add	esp, 16					; 00000010H
	mov	DWORD PTR _result$[ebp], eax
	cmp	DWORD PTR _result$[ebp], 0
	je	SHORT $LN9@PMC_ModPow

; 568  :         return (result);

	mov	eax, DWORD PTR _result$[ebp]
	jmp	SHORT $LN1@PMC_ModPow
$LN9@PMC_ModPow:

; 569  : #ifdef _DEBUG
; 570  :     if ((result = CheckNumber((NUMBER_HEADER*)*r)) != PMC_STATUS_OK)

	mov	ecx, DWORD PTR _r$[ebp]
	mov	edx, DWORD PTR [ecx]
	push	edx
	call	_CheckNumber
	add	esp, 4
	mov	DWORD PTR _result$[ebp], eax
	cmp	DWORD PTR _result$[ebp], 0
	je	SHORT $LN10@PMC_ModPow

; 571  :         return (result);

	mov	eax, DWORD PTR _result$[ebp]
	jmp	SHORT $LN1@PMC_ModPow
$LN10@PMC_ModPow:

; 572  : #endif
; 573  :     return (PMC_STATUS_OK);

	xor	eax, eax
$LN1@PMC_ModPow:

; 574  : }

	add	esp, 4
	cmp	ebp, esp
	call	__RTC_CheckEsp
	mov	esp, ebp
	pop	ebp
	ret	16					; 00000010H
_PMC_ModPow_X_X_X@16 ENDP
_TEXT	ENDS
; Function compile flags: /Odtp /RTCsu
; File z:\sources\lunor\repos\rougemeilland\palmtree.math.core.uint\palmtree.math.core.uint\pmc_modpow.c
_TEXT	SEGMENT
_feature$ = 8						; size = 4
_Initialize_ModPow PROC

; 577  : {

	push	ebp
	mov	ebp, esp
	mov	ecx, OFFSET __6553949D_pmc_modpow@c
	call	@__CheckForDebuggerJustMyCode@4

; 578  :     return (PMC_STATUS_OK);

	xor	eax, eax

; 579  : }

	cmp	ebp, esp
	call	__RTC_CheckEsp
	pop	ebp
	ret	0
_Initialize_ModPow ENDP
_TEXT	ENDS
END
