; Listing generated by Microsoft (R) Optimizing Compiler Version 19.16.27026.1 

	TITLE	Z:\Sources\Lunor\Repos\rougemeilland\Palmtree.Math.Core.Uint\Palmtree.Math.Core.Uint\pmc_getnumbertype.c
	.686P
	.XMM
	include listing.inc
	.model	flat

INCLUDELIB MSVCRTD
INCLUDELIB OLDNAMES

msvcjmc	SEGMENT
__7B7A869E_ctype@h DB 01H
__457DD326_basetsd@h DB 01H
__4384A2D9_corecrt_memcpy_s@h DB 01H
__4E51A221_corecrt_wstring@h DB 01H
__2140C079_string@h DB 01H
__1887E595_winnt@h DB 01H
__9FC7C64B_processthreadsapi@h DB 01H
__FA470AEC_memoryapi@h DB 01H
__F37DAFF1_winerror@h DB 01H
__7A450CCC_winbase@h DB 01H
__B4B40122_winioctl@h DB 01H
__86261D59_stralign@h DB 01H
__BB6D3116_pmc_uint_internal@h DB 01H
__F8B0263E_pmc_getnumbertype@c DB 01H
msvcjmc	ENDS
PUBLIC	_Initialize_GetPropertyValue
PUBLIC	_PMC_GetNumberType_X@8
PUBLIC	__JustMyCode_Default
EXTRN	_CheckNumber:PROC
EXTRN	@__CheckForDebuggerJustMyCode@4:PROC
EXTRN	__RTC_CheckEsp:PROC
EXTRN	__RTC_InitBase:PROC
EXTRN	__RTC_Shutdown:PROC
;	COMDAT rtc$TMZ
rtc$TMZ	SEGMENT
__RTC_Shutdown.rtc$TMZ DD FLAT:__RTC_Shutdown
rtc$TMZ	ENDS
;	COMDAT rtc$IMZ
rtc$IMZ	SEGMENT
__RTC_InitBase.rtc$IMZ DD FLAT:__RTC_InitBase
rtc$IMZ	ENDS
; Function compile flags: /Odt
;	COMDAT __JustMyCode_Default
_TEXT	SEGMENT
__JustMyCode_Default PROC				; COMDAT
	push	ebp
	mov	ebp, esp
	pop	ebp
	ret	0
__JustMyCode_Default ENDP
_TEXT	ENDS
; Function compile flags: /Odtp /RTCsu
; File z:\sources\lunor\repos\rougemeilland\palmtree.math.core.uint\palmtree.math.core.uint\pmc_getnumbertype.c
_TEXT	SEGMENT
_value$ = -12						; size = 4
_nx$ = -8						; size = 4
_result$ = -4						; size = 4
_x$ = 8							; size = 4
_o$ = 12						; size = 4
_PMC_GetNumberType_X@8 PROC

; 31   : {

	push	ebp
	mov	ebp, esp
	sub	esp, 12					; 0000000cH
	mov	DWORD PTR [ebp-12], -858993460		; ccccccccH
	mov	DWORD PTR [ebp-8], -858993460		; ccccccccH
	mov	DWORD PTR [ebp-4], -858993460		; ccccccccH
	mov	ecx, OFFSET __F8B0263E_pmc_getnumbertype@c
	call	@__CheckForDebuggerJustMyCode@4

; 32   :     if (x == NULL)

	cmp	DWORD PTR _x$[ebp], 0
	jne	SHORT $LN2@PMC_GetNum

; 33   :         return (PMC_STATUS_ARGUMENT_ERROR);

	or	eax, -1
	jmp	$LN1@PMC_GetNum
$LN2@PMC_GetNum:

; 34   :     if (o == NULL)

	cmp	DWORD PTR _o$[ebp], 0
	jne	SHORT $LN3@PMC_GetNum

; 35   :         return (PMC_STATUS_ARGUMENT_ERROR);

	or	eax, -1
	jmp	$LN1@PMC_GetNum
$LN3@PMC_GetNum:

; 36   :     PMC_STATUS_CODE result;
; 37   :     NUMBER_HEADER* nx = (NUMBER_HEADER*)x;

	mov	eax, DWORD PTR _x$[ebp]
	mov	DWORD PTR _nx$[ebp], eax

; 38   :     if ((result = CheckNumber(nx)) != PMC_STATUS_OK)

	mov	ecx, DWORD PTR _nx$[ebp]
	push	ecx
	call	_CheckNumber
	add	esp, 4
	mov	DWORD PTR _result$[ebp], eax
	cmp	DWORD PTR _result$[ebp], 0
	je	SHORT $LN4@PMC_GetNum

; 39   :         return (result);

	mov	eax, DWORD PTR _result$[ebp]
	jmp	SHORT $LN1@PMC_GetNum
$LN4@PMC_GetNum:

; 40   :     PMC_NUMBER_TYPE_CODE value = 0;

	mov	DWORD PTR _value$[ebp], 0

; 41   :     if (nx->IS_ZERO)

	mov	edx, DWORD PTR _nx$[ebp]
	mov	eax, DWORD PTR [edx+24]
	shr	eax, 1
	and	eax, 1
	je	SHORT $LN5@PMC_GetNum

; 42   :         value |= 0x01;

	mov	ecx, DWORD PTR _value$[ebp]
	or	ecx, 1
	mov	DWORD PTR _value$[ebp], ecx
$LN5@PMC_GetNum:

; 43   :     if (nx->IS_ONE)

	mov	edx, DWORD PTR _nx$[ebp]
	mov	eax, DWORD PTR [edx+24]
	shr	eax, 2
	and	eax, 1
	je	SHORT $LN6@PMC_GetNum

; 44   :         value |= 0x02;

	mov	ecx, DWORD PTR _value$[ebp]
	or	ecx, 2
	mov	DWORD PTR _value$[ebp], ecx
$LN6@PMC_GetNum:

; 45   :     if (nx->IS_EVEN)

	mov	edx, DWORD PTR _nx$[ebp]
	mov	eax, DWORD PTR [edx+24]
	shr	eax, 3
	and	eax, 1
	je	SHORT $LN7@PMC_GetNum

; 46   :         value |= 0x08;

	mov	ecx, DWORD PTR _value$[ebp]
	or	ecx, 8
	mov	DWORD PTR _value$[ebp], ecx
$LN7@PMC_GetNum:

; 47   :     if (nx->IS_POWER_OF_TWO)

	mov	edx, DWORD PTR _nx$[ebp]
	mov	eax, DWORD PTR [edx+24]
	shr	eax, 4
	and	eax, 1
	je	SHORT $LN8@PMC_GetNum

; 48   :         value |= 0x10;

	mov	ecx, DWORD PTR _value$[ebp]
	or	ecx, 16					; 00000010H
	mov	DWORD PTR _value$[ebp], ecx
$LN8@PMC_GetNum:

; 49   :     *o = value;

	mov	edx, DWORD PTR _o$[ebp]
	mov	eax, DWORD PTR _value$[ebp]
	mov	DWORD PTR [edx], eax

; 50   :     return (PMC_STATUS_OK);

	xor	eax, eax
$LN1@PMC_GetNum:

; 51   : }

	add	esp, 12					; 0000000cH
	cmp	ebp, esp
	call	__RTC_CheckEsp
	mov	esp, ebp
	pop	ebp
	ret	8
_PMC_GetNumberType_X@8 ENDP
_TEXT	ENDS
; Function compile flags: /Odtp /RTCsu
; File z:\sources\lunor\repos\rougemeilland\palmtree.math.core.uint\palmtree.math.core.uint\pmc_getnumbertype.c
_TEXT	SEGMENT
_feature$ = 8						; size = 4
_Initialize_GetPropertyValue PROC

; 54   : {

	push	ebp
	mov	ebp, esp
	mov	ecx, OFFSET __F8B0263E_pmc_getnumbertype@c
	call	@__CheckForDebuggerJustMyCode@4

; 55   :     return (PMC_STATUS_OK);

	xor	eax, eax

; 56   : }

	cmp	ebp, esp
	call	__RTC_CheckEsp
	pop	ebp
	ret	0
_Initialize_GetPropertyValue ENDP
_TEXT	ENDS
END
