; Listing generated by Microsoft (R) Optimizing Compiler Version 19.16.27027.1 

	TITLE	Z:\Sources\Lunor\Repos\rougemeilland\Palmtree.Math.Core.Uint\Palmtree.Math.Core.Uint\pmc_parse.cpp
	.686P
	.XMM
	include listing.inc
	.model	flat

INCLUDELIB MSVCRTD
INCLUDELIB OLDNAMES

msvcjmc	SEGMENT
__7B7A869E_ctype@h DB 01H
__457DD326_basetsd@h DB 01H
__4384A2D9_corecrt_memcpy_s@h DB 01H
__2088847F_corecrt_memory@h DB 01H
__4E51A221_corecrt_wstring@h DB 01H
__2140C079_string@h DB 01H
__E9FFF232_guiddef@h DB 01H
__1887E595_winnt@h DB 01H
__9FC7C64B_processthreadsapi@h DB 01H
__FA470AEC_memoryapi@h DB 01H
__F37DAFF1_winerror@h DB 01H
__7A450CCC_winbase@h DB 01H
__12AD47BB_winuser@h DB 01H
__B4B40122_winioctl@h DB 01H
__A73354DD_stdlib@h DB 01H
__25F3FB34_propidl@h DB 01H
__A40E48B8_oleauto@h DB 01H
__86261D59_stralign@h DB 01H
__2CC6E67D_corecrt_stdio_config@h DB 01H
__41381B41_corecrt_wconio@h DB 01H
__F0CC4AC4_corecrt_wio@h DB 01H
__05476D76_corecrt_wstdio@h DB 01H
__C0802A2B_corecrt_wtime@h DB 01H
__A40A425D_stat@h DB 01H
__5A74375D_wchar@h DB 01H
__6BC0FD35_vcruntime_new@h DB 01H
__77F53984_cstddef DB 01H
__188180DA_corecrt_math@h DB 01H
__D23EE329_cstdlib DB 01H
__5ECFF36E_type_traits DB 01H
__331E732B_malloc@h DB 01H
__9BB4E194_vcruntime_exception@h DB 01H
__7949CB39_exception DB 01H
__802FEEC0_pmc_exception@h DB 01H
__80E6779E_pmc_stringio@h DB 01H
__BB6D3116_pmc_uint_internal@h DB 01H
__1AB12E38_pmc_resourceholder@h DB 01H
__746E1CEC_xmmintrin@h DB 01H
__8CA3E54E_pmc_inline_func@h DB 01H
__F159A697_pmc_parse@cpp DB 01H
msvcjmc	ENDS
CONST	SEGMENT
$SG118525 DB	'p', 00H, 'm', 00H, 'c', 00H, '_', 00H, 'p', 00H, 'a', 00H
	DB	'r', 00H, 's', 00H, 'e', 00H, '.', 00H, 'c', 00H, 'p', 00H, 'p'
	DB	00H, ';', 00H, 'T', 00H, 'r', 00H, 'y', 00H, 'P', 00H, 'a', 00H
	DB	'r', 00H, 's', 00H, 'e', 00H, 'D', 00H, 'N', 00H, ';', 00H, '1'
	DB	00H, 00H, 00H
	ORG $+2
$SG118526 DB	085H, 'Q', 0e8H, 090H, 0a8H, '0', 0e9H, '0', 0fcH, '0L0zv'
	DB	01fH, 'uW0~0W0_0', 02H, '0', 00H, 00H
$SG118529 DB	'p', 00H, 'm', 00H, 'c', 00H, '_', 00H, 'p', 00H, 'a', 00H
	DB	'r', 00H, 's', 00H, 'e', 00H, '.', 00H, 'c', 00H, 'p', 00H, 'p'
	DB	00H, ';', 00H, 'T', 00H, 'r', 00H, 'y', 00H, 'P', 00H, 'a', 00H
	DB	'r', 00H, 's', 00H, 'e', 00H, 'D', 00H, 'N', 00H, ';', 00H, '2'
	DB	00H, 00H, 00H
	ORG $+2
$SG118530 DB	085H, 'Q', 0e8H, 090H, 0a8H, '0', 0e9H, '0', 0fcH, '0L0zv'
	DB	01fH, 'uW0~0W0_0', 02H, '0', 00H, 00H
$SG118533 DB	'p', 00H, 'm', 00H, 'c', 00H, '_', 00H, 'p', 00H, 'a', 00H
	DB	'r', 00H, 's', 00H, 'e', 00H, '.', 00H, 'c', 00H, 'p', 00H, 'p'
	DB	00H, ';', 00H, 'T', 00H, 'r', 00H, 'y', 00H, 'P', 00H, 'a', 00H
	DB	'r', 00H, 's', 00H, 'e', 00H, 'D', 00H, 'N', 00H, ';', 00H, '3'
	DB	00H, 00H, 00H
	ORG $+2
$SG118534 DB	085H, 'Q', 0e8H, 090H, 0a8H, '0', 0e9H, '0', 0fcH, '0L0zv'
	DB	01fH, 'uW0~0W0_0', 02H, '0', 00H, 00H
$SG118666 DB	015H, '_pek0n', 00H, 'u', 00H, 'l', 00H, 'l', 00H, 'p', 00H
	DB	't', 00H, 'r', 00H, 'L0', 0eH, 'NH0', 089H, '0', 08cH, '0f0D0~'
	DB	'0Y0', 02H, '0', 00H, 00H
	ORG $+2
$SG118639 DB	015H, '_pen', 00H, 'u', 00H, 'm', 00H, 'b', 00H, 'e', 00H
	DB	'r', 00H, '_', 00H, 's', 00H, 't', 00H, 'y', 00H, 'l', 00H, 'e'
	DB	00H, 's', 00H, 'k01', 08aH, 0efH, 'SU0', 08cH, '0f0D0j0D0D}', 07fH
	DB	'0', 08H, 'T', 08fH, '0[0n0', 0d5H, '0', 0e9H, '0', 0b0H, '0L0'
	DB	07H, 'c', 09aH, '[U0', 08cH, '0~0W0_0', 02H, '0', 00H, 00H
	ORG $+2
$SG118665 DB	's', 00H, 'o', 00H, 'u', 00H, 'r', 00H, 'c', 00H, 'e', 00H
	DB	00H, 00H
	ORG $+2
$SG118669 DB	'o', 00H, 00H, 00H
$SG118670 DB	015H, '_pek0n', 00H, 'u', 00H, 'l', 00H, 'l', 00H, 'p', 00H
	DB	't', 00H, 'r', 00H, 'L0', 0eH, 'NH0', 089H, '0', 08cH, '0f0D0~'
	DB	'0Y0', 02H, '0', 00H, 00H
	ORG $+2
$SG118691 DB	's', 00H, 'o', 00H, 'u', 00H, 'r', 00H, 'c', 00H, 'e', 00H
	DB	00H, 00H
	ORG $+2
$SG118692 DB	015H, '_pek0n', 00H, 'u', 00H, 'l', 00H, 'l', 00H, 'p', 00H
	DB	't', 00H, 'r', 00H, 'L0', 0eH, 'NH0', 089H, '0', 08cH, '0f0D0~'
	DB	'0Y0', 02H, '0', 00H, 00H
	ORG $+2
$SG118695 DB	'o', 00H, '_', 00H, 's', 00H, 'i', 00H, 'g', 00H, 'n', 00H
	DB	00H, 00H
	ORG $+2
$SG118696 DB	015H, '_pek0n', 00H, 'u', 00H, 'l', 00H, 'l', 00H, 'p', 00H
	DB	't', 00H, 'r', 00H, 'L0', 0eH, 'NH0', 089H, '0', 08cH, '0f0D0~'
	DB	'0Y0', 02H, '0', 00H, 00H
	ORG $+2
$SG118699 DB	'o', 00H, '_', 00H, 'a', 00H, 'b', 00H, 's', 00H, 00H, 00H
$SG118700 DB	015H, '_pek0n', 00H, 'u', 00H, 'l', 00H, 'l', 00H, 'p', 00H
	DB	't', 00H, 'r', 00H, 'L0', 0eH, 'NH0', 089H, '0', 08cH, '0f0D0~'
	DB	'0Y0', 02H, '0', 00H, 00H
CONST	ENDS
PUBLIC	??0exception@std@@QAE@XZ			; std::exception::exception
PUBLIC	??1exception@std@@UAE@XZ			; std::exception::~exception
PUBLIC	?what@exception@std@@UBEPBDXZ			; std::exception::what
PUBLIC	??_Gexception@std@@UAEPAXI@Z			; std::exception::`scalar deleting destructor'
PUBLIC	??0Exception@Internal@Core@Math@Palmtree@@IAE@HPB_W@Z ; Palmtree::Math::Core::Internal::Exception::Exception
PUBLIC	??0Exception@Internal@Core@Math@Palmtree@@IAE@HPB_W0@Z ; Palmtree::Math::Core::Internal::Exception::Exception
PUBLIC	??0Exception@Internal@Core@Math@Palmtree@@QAE@ABV01234@@Z ; Palmtree::Math::Core::Internal::Exception::Exception
PUBLIC	??1Exception@Internal@Core@Math@Palmtree@@UAE@XZ ; Palmtree::Math::Core::Internal::Exception::~Exception
PUBLIC	??_GException@Internal@Core@Math@Palmtree@@UAEPAXI@Z ; Palmtree::Math::Core::Internal::Exception::`scalar deleting destructor'
PUBLIC	??0ArgumentException@Internal@Core@Math@Palmtree@@QAE@PB_W@Z ; Palmtree::Math::Core::Internal::ArgumentException::ArgumentException
PUBLIC	??0ArgumentException@Internal@Core@Math@Palmtree@@QAE@ABV01234@@Z ; Palmtree::Math::Core::Internal::ArgumentException::ArgumentException
PUBLIC	??1ArgumentException@Internal@Core@Math@Palmtree@@UAE@XZ ; Palmtree::Math::Core::Internal::ArgumentException::~ArgumentException
PUBLIC	??_GArgumentException@Internal@Core@Math@Palmtree@@UAEPAXI@Z ; Palmtree::Math::Core::Internal::ArgumentException::`scalar deleting destructor'
PUBLIC	??0ArgumentNullException@Internal@Core@Math@Palmtree@@QAE@PB_W0@Z ; Palmtree::Math::Core::Internal::ArgumentNullException::ArgumentNullException
PUBLIC	??0ArgumentNullException@Internal@Core@Math@Palmtree@@QAE@ABV01234@@Z ; Palmtree::Math::Core::Internal::ArgumentNullException::ArgumentNullException
PUBLIC	??1ArgumentNullException@Internal@Core@Math@Palmtree@@UAE@XZ ; Palmtree::Math::Core::Internal::ArgumentNullException::~ArgumentNullException
PUBLIC	??_GArgumentNullException@Internal@Core@Math@Palmtree@@UAEPAXI@Z ; Palmtree::Math::Core::Internal::ArgumentNullException::`scalar deleting destructor'
PUBLIC	??0InsufficientBufferException@Internal@Core@Math@Palmtree@@QAE@PB_W@Z ; Palmtree::Math::Core::Internal::InsufficientBufferException::InsufficientBufferException
PUBLIC	??0InsufficientBufferException@Internal@Core@Math@Palmtree@@QAE@ABV01234@@Z ; Palmtree::Math::Core::Internal::InsufficientBufferException::InsufficientBufferException
PUBLIC	??1InsufficientBufferException@Internal@Core@Math@Palmtree@@UAE@XZ ; Palmtree::Math::Core::Internal::InsufficientBufferException::~InsufficientBufferException
PUBLIC	??_GInsufficientBufferException@Internal@Core@Math@Palmtree@@UAEPAXI@Z ; Palmtree::Math::Core::Internal::InsufficientBufferException::`scalar deleting destructor'
PUBLIC	??0InternalErrorException@Internal@Core@Math@Palmtree@@QAE@PB_W0@Z ; Palmtree::Math::Core::Internal::InternalErrorException::InternalErrorException
PUBLIC	??0InternalErrorException@Internal@Core@Math@Palmtree@@QAE@ABV01234@@Z ; Palmtree::Math::Core::Internal::InternalErrorException::InternalErrorException
PUBLIC	??1InternalErrorException@Internal@Core@Math@Palmtree@@UAE@XZ ; Palmtree::Math::Core::Internal::InternalErrorException::~InternalErrorException
PUBLIC	??_GInternalErrorException@Internal@Core@Math@Palmtree@@UAEPAXI@Z ; Palmtree::Math::Core::Internal::InternalErrorException::`scalar deleting destructor'
PUBLIC	??0StringReader@Internal@Core@Math@Palmtree@@QAE@PB_W@Z ; Palmtree::Math::Core::Internal::StringReader::StringReader
PUBLIC	?PeekChar@StringReader@Internal@Core@Math@Palmtree@@UAE_WXZ ; Palmtree::Math::Core::Internal::StringReader::PeekChar
PUBLIC	?Progress@StringReader@Internal@Core@Math@Palmtree@@UAEXXZ ; Palmtree::Math::Core::Internal::StringReader::Progress
PUBLIC	?StartsWith@StringReader@Internal@Core@Math@Palmtree@@UAEHPB_W@Z ; Palmtree::Math::Core::Internal::StringReader::StartsWith
PUBLIC	?SkipSpace@StringReader@Internal@Core@Math@Palmtree@@QAEXXZ ; Palmtree::Math::Core::Internal::StringReader::SkipSpace
PUBLIC	?SkipString@StringReader@Internal@Core@Math@Palmtree@@UAEXPB_W@Z ; Palmtree::Math::Core::Internal::StringReader::SkipString
PUBLIC	?StartsWith@StringReader@Internal@Core@Math@Palmtree@@CAHPB_W0@Z ; Palmtree::Math::Core::Internal::StringReader::StartsWith
PUBLIC	??0StringWriter@Internal@Core@Math@Palmtree@@IAE@PA_W00@Z ; Palmtree::Math::Core::Internal::StringWriter::StringWriter
PUBLIC	??0StringWriter@Internal@Core@Math@Palmtree@@QAE@PA_WI@Z ; Palmtree::Math::Core::Internal::StringWriter::StringWriter
PUBLIC	?Write@StringWriter@Internal@Core@Math@Palmtree@@UAEX_W@Z ; Palmtree::Math::Core::Internal::StringWriter::Write
PUBLIC	?Write@StringWriter@Internal@Core@Math@Palmtree@@UAEXPB_W@Z ; Palmtree::Math::Core::Internal::StringWriter::Write
PUBLIC	?GetString@StringWriter@Internal@Core@Math@Palmtree@@UAEPA_WXZ ; Palmtree::Math::Core::Internal::StringWriter::GetString
PUBLIC	?Initialize_Parse@Internal@Core@Math@Palmtree@@YAHPAU_tag_PROCESSOR_FEATURES@1234@@Z ; Palmtree::Math::Core::Internal::Initialize_Parse
PUBLIC	?PMC_TryParse@Internal@Core@Math@Palmtree@@YGHPB_WHPBU__tag_PMC_NUMBER_FORMAT_INFO@1234@PAPAU__tag_PMC_HANDLE_UINT@1234@PAI@Z ; Palmtree::Math::Core::Internal::PMC_TryParse
PUBLIC	?PMC_TryParseForSINT@Internal@Core@Math@Palmtree@@YGHPB_WHPBU__tag_PMC_NUMBER_FORMAT_INFO@1234@PADPAPAU__tag_PMC_HANDLE_UINT@1234@PAI@Z ; Palmtree::Math::Core::Internal::PMC_TryParseForSINT
PUBLIC	??0ParserState@Internal@Core@Math@Palmtree@@QAE@PB_WIPBU__tag_PMC_NUMBER_FORMAT_INFO@1234@PADPA_WI3I@Z ; Palmtree::Math::Core::Internal::ParserState::ParserState
PUBLIC	??1ParserState@Internal@Core@Math@Palmtree@@QAE@XZ ; Palmtree::Math::Core::Internal::ParserState::~ParserState
PUBLIC	?ParseAsDecimalNumberString@ParserState@Internal@Core@Math@Palmtree@@QAEHXZ ; Palmtree::Math::Core::Internal::ParserState::ParseAsDecimalNumberString
PUBLIC	?ParseAsHexNumberString@ParserState@Internal@Core@Math@Palmtree@@QAEHXZ ; Palmtree::Math::Core::Internal::ParserState::ParseAsHexNumberString
PUBLIC	?ParseAsIntegerPartNumberSequence@ParserState@Internal@Core@Math@Palmtree@@AAEXXZ ; Palmtree::Math::Core::Internal::ParserState::ParseAsIntegerPartNumberSequence
PUBLIC	?ParseAsFractionPartNumberSequence@ParserState@Internal@Core@Math@Palmtree@@AAEXXZ ; Palmtree::Math::Core::Internal::ParserState::ParseAsFractionPartNumberSequence
PUBLIC	__JustMyCode_Default
PUBLIC	??_7exception@std@@6B@				; std::exception::`vftable'
PUBLIC	??_C@_0BC@EOODALEL@Unknown?5exception@		; `string'
PUBLIC	??_7Exception@Internal@Core@Math@Palmtree@@6B@	; Palmtree::Math::Core::Internal::Exception::`vftable'
PUBLIC	??_7ArgumentException@Internal@Core@Math@Palmtree@@6B@ ; Palmtree::Math::Core::Internal::ArgumentException::`vftable'
PUBLIC	??_7ArgumentNullException@Internal@Core@Math@Palmtree@@6B@ ; Palmtree::Math::Core::Internal::ArgumentNullException::`vftable'
PUBLIC	??_7InsufficientBufferException@Internal@Core@Math@Palmtree@@6B@ ; Palmtree::Math::Core::Internal::InsufficientBufferException::`vftable'
PUBLIC	??_7InternalErrorException@Internal@Core@Math@Palmtree@@6B@ ; Palmtree::Math::Core::Internal::InternalErrorException::`vftable'
PUBLIC	??_7StringReader@Internal@Core@Math@Palmtree@@6B@ ; Palmtree::Math::Core::Internal::StringReader::`vftable'
PUBLIC	__TI2?AVInternalErrorException@Internal@Core@Math@Palmtree@@
PUBLIC	__CTA2?AVInternalErrorException@Internal@Core@Math@Palmtree@@
PUBLIC	??_R0?AVInternalErrorException@Internal@Core@Math@Palmtree@@@8 ; Palmtree::Math::Core::Internal::InternalErrorException `RTTI Type Descriptor'
PUBLIC	__CT??_R0?AVInternalErrorException@Internal@Core@Math@Palmtree@@@8??0InternalErrorException@Internal@Core@Math@Palmtree@@QAE@ABV01234@@Z24
PUBLIC	??_R0?AVException@Internal@Core@Math@Palmtree@@@8 ; Palmtree::Math::Core::Internal::Exception `RTTI Type Descriptor'
PUBLIC	__CT??_R0?AVException@Internal@Core@Math@Palmtree@@@8??0Exception@Internal@Core@Math@Palmtree@@QAE@ABV01234@@Z24
PUBLIC	??_C@_1FA@CNGEABBJ@?$AAp?$AAm?$AAc?$AA_?$AAs?$AAt?$AAr?$AAi?$AAn?$AAg?$AAi?$AAo?$AA?4?$AAh?$AA?$DL@ ; `string'
PUBLIC	??_C@_1BM@FCPAHMHB@?$PP?$IF?$PP?h?$PP?$KI?$PP?i?$PP?$PM?$AAL?$AAz?$AA?$BP?$AAW?$AA?$HO?$AAW?$AA_?$AA?$AC@ ; `string'
PUBLIC	??_C@_1FE@KONPIGEM@?$AAp?$AAm?$AAc?$AA_?$AAs?$AAt?$AAr?$AAi?$AAn?$AAg?$AAi?$AAo?$AA?4?$AAh?$AA?$DL@ ; `string'
PUBLIC	??_7StringWriter@Internal@Core@Math@Palmtree@@6B@ ; Palmtree::Math::Core::Internal::StringWriter::`vftable'
PUBLIC	__TI2?AVInsufficientBufferException@Internal@Core@Math@Palmtree@@
PUBLIC	__CTA2?AVInsufficientBufferException@Internal@Core@Math@Palmtree@@
PUBLIC	??_R0?AVInsufficientBufferException@Internal@Core@Math@Palmtree@@@8 ; Palmtree::Math::Core::Internal::InsufficientBufferException `RTTI Type Descriptor'
PUBLIC	__CT??_R0?AVInsufficientBufferException@Internal@Core@Math@Palmtree@@@8??0InsufficientBufferException@Internal@Core@Math@Palmtree@@QAE@ABV01234@@Z24
PUBLIC	??_C@_1CO@JABAMCFP@?$PP?x?$AAM?$PP?$LM?$AA?$HP?$AAH?$PP?P?$PP?C?$PP?U?$PP?$KB?$AAn?$PP?$LF?$PP?$KE?$PP?$LK?$AAL?$AA?$AN@ ; `string'
PUBLIC	??_C@_1EK@OBHKPMHI@?$AAp?$AAm?$AAc?$AA_?$AAp?$AAa?$AAr?$AAs?$AAe?$AA?$DL?$AAP?$AAa?$AAr?$AAs?$AAe@ ; `string'
PUBLIC	??_C@_1EK@PDMPFDJG@?$AAp?$AAm?$AAc?$AA_?$AAp?$AAa?$AAr?$AAs?$AAe?$AA?$DL?$AAP?$AAa?$AAr?$AAs?$AAe@ ; `string'
PUBLIC	??_C@_1EK@ELHDDEPD@?$AAp?$AAm?$AAc?$AA_?$AAp?$AAa?$AAr?$AAs?$AAe?$AA?$DL?$AAP?$AAa?$AAr?$AAs?$AAe@ ; `string'
PUBLIC	??_C@_1EK@NGKEAMEK@?$AAp?$AAm?$AAc?$AA_?$AAp?$AAa?$AAr?$AAs?$AAe?$AA?$DL?$AAP?$AAa?$AAr?$AAs?$AAe@ ; `string'
PUBLIC	??_C@_1EK@GOBIGLCP@?$AAp?$AAm?$AAc?$AA_?$AAp?$AAa?$AAr?$AAs?$AAe?$AA?$DL?$AAP?$AAa?$AAr?$AAs?$AAe@ ; `string'
PUBLIC	??_C@_1EK@HMKNMEMB@?$AAp?$AAm?$AAc?$AA_?$AAp?$AAa?$AAr?$AAs?$AAe?$AA?$DL?$AAP?$AAa?$AAr?$AAs?$AAe@ ; `string'
PUBLIC	??_C@_1EK@MEBBKDKE@?$AAp?$AAm?$AAc?$AA_?$AAp?$AAa?$AAr?$AAs?$AAe?$AA?$DL?$AAP?$AAa?$AAr?$AAs?$AAe@ ; `string'
PUBLIC	??_C@_13JDNADJOG@?$PP?$KA@			; `string'
PUBLIC	??_C@_13HOIJIPNN@?$AA?5@			; `string'
PUBLIC	??_C@_13LLDNKHDC@?$AA?$CI@			; `string'
PUBLIC	??_C@_13DIBMAFH@?$AA?$CJ@			; `string'
PUBLIC	__TI2?AVArgumentException@Internal@Core@Math@Palmtree@@
PUBLIC	__CTA2?AVArgumentException@Internal@Core@Math@Palmtree@@
PUBLIC	??_R0?AVArgumentException@Internal@Core@Math@Palmtree@@@8 ; Palmtree::Math::Core::Internal::ArgumentException `RTTI Type Descriptor'
PUBLIC	__CT??_R0?AVArgumentException@Internal@Core@Math@Palmtree@@@8??0ArgumentException@Internal@Core@Math@Palmtree@@QAE@ABV01234@@Z24
PUBLIC	__TI2?AVArgumentNullException@Internal@Core@Math@Palmtree@@
PUBLIC	__CTA2?AVArgumentNullException@Internal@Core@Math@Palmtree@@
PUBLIC	??_R0?AVArgumentNullException@Internal@Core@Math@Palmtree@@@8 ; Palmtree::Math::Core::Internal::ArgumentNullException `RTTI Type Descriptor'
PUBLIC	__CT??_R0?AVArgumentNullException@Internal@Core@Math@Palmtree@@@8??0ArgumentNullException@Internal@Core@Math@Palmtree@@QAE@ABV01234@@Z24
PUBLIC	??_R4exception@std@@6B@				; std::exception::`RTTI Complete Object Locator'
PUBLIC	??_R0?AVexception@std@@@8			; std::exception `RTTI Type Descriptor'
PUBLIC	??_R3exception@std@@8				; std::exception::`RTTI Class Hierarchy Descriptor'
PUBLIC	??_R2exception@std@@8				; std::exception::`RTTI Base Class Array'
PUBLIC	??_R1A@?0A@EA@exception@std@@8			; std::exception::`RTTI Base Class Descriptor at (0,-1,0,64)'
PUBLIC	??_R4Exception@Internal@Core@Math@Palmtree@@6B@	; Palmtree::Math::Core::Internal::Exception::`RTTI Complete Object Locator'
PUBLIC	??_R3Exception@Internal@Core@Math@Palmtree@@8	; Palmtree::Math::Core::Internal::Exception::`RTTI Class Hierarchy Descriptor'
PUBLIC	??_R2Exception@Internal@Core@Math@Palmtree@@8	; Palmtree::Math::Core::Internal::Exception::`RTTI Base Class Array'
PUBLIC	??_R1A@?0A@EA@Exception@Internal@Core@Math@Palmtree@@8 ; Palmtree::Math::Core::Internal::Exception::`RTTI Base Class Descriptor at (0,-1,0,64)'
PUBLIC	??_R1A@?0A@EN@exception@std@@8			; std::exception::`RTTI Base Class Descriptor at (0,-1,0,77)'
PUBLIC	??_R4ArgumentException@Internal@Core@Math@Palmtree@@6B@ ; Palmtree::Math::Core::Internal::ArgumentException::`RTTI Complete Object Locator'
PUBLIC	??_R3ArgumentException@Internal@Core@Math@Palmtree@@8 ; Palmtree::Math::Core::Internal::ArgumentException::`RTTI Class Hierarchy Descriptor'
PUBLIC	??_R2ArgumentException@Internal@Core@Math@Palmtree@@8 ; Palmtree::Math::Core::Internal::ArgumentException::`RTTI Base Class Array'
PUBLIC	??_R1A@?0A@EA@ArgumentException@Internal@Core@Math@Palmtree@@8 ; Palmtree::Math::Core::Internal::ArgumentException::`RTTI Base Class Descriptor at (0,-1,0,64)'
PUBLIC	??_R4ArgumentNullException@Internal@Core@Math@Palmtree@@6B@ ; Palmtree::Math::Core::Internal::ArgumentNullException::`RTTI Complete Object Locator'
PUBLIC	??_R3ArgumentNullException@Internal@Core@Math@Palmtree@@8 ; Palmtree::Math::Core::Internal::ArgumentNullException::`RTTI Class Hierarchy Descriptor'
PUBLIC	??_R2ArgumentNullException@Internal@Core@Math@Palmtree@@8 ; Palmtree::Math::Core::Internal::ArgumentNullException::`RTTI Base Class Array'
PUBLIC	??_R1A@?0A@EA@ArgumentNullException@Internal@Core@Math@Palmtree@@8 ; Palmtree::Math::Core::Internal::ArgumentNullException::`RTTI Base Class Descriptor at (0,-1,0,64)'
PUBLIC	??_R4InsufficientBufferException@Internal@Core@Math@Palmtree@@6B@ ; Palmtree::Math::Core::Internal::InsufficientBufferException::`RTTI Complete Object Locator'
PUBLIC	??_R3InsufficientBufferException@Internal@Core@Math@Palmtree@@8 ; Palmtree::Math::Core::Internal::InsufficientBufferException::`RTTI Class Hierarchy Descriptor'
PUBLIC	??_R2InsufficientBufferException@Internal@Core@Math@Palmtree@@8 ; Palmtree::Math::Core::Internal::InsufficientBufferException::`RTTI Base Class Array'
PUBLIC	??_R1A@?0A@EA@InsufficientBufferException@Internal@Core@Math@Palmtree@@8 ; Palmtree::Math::Core::Internal::InsufficientBufferException::`RTTI Base Class Descriptor at (0,-1,0,64)'
PUBLIC	??_R4InternalErrorException@Internal@Core@Math@Palmtree@@6B@ ; Palmtree::Math::Core::Internal::InternalErrorException::`RTTI Complete Object Locator'
PUBLIC	??_R3InternalErrorException@Internal@Core@Math@Palmtree@@8 ; Palmtree::Math::Core::Internal::InternalErrorException::`RTTI Class Hierarchy Descriptor'
PUBLIC	??_R2InternalErrorException@Internal@Core@Math@Palmtree@@8 ; Palmtree::Math::Core::Internal::InternalErrorException::`RTTI Base Class Array'
PUBLIC	??_R1A@?0A@EA@InternalErrorException@Internal@Core@Math@Palmtree@@8 ; Palmtree::Math::Core::Internal::InternalErrorException::`RTTI Base Class Descriptor at (0,-1,0,64)'
PUBLIC	??_R4StringReader@Internal@Core@Math@Palmtree@@6B@ ; Palmtree::Math::Core::Internal::StringReader::`RTTI Complete Object Locator'
PUBLIC	??_R0?AVStringReader@Internal@Core@Math@Palmtree@@@8 ; Palmtree::Math::Core::Internal::StringReader `RTTI Type Descriptor'
PUBLIC	??_R3StringReader@Internal@Core@Math@Palmtree@@8 ; Palmtree::Math::Core::Internal::StringReader::`RTTI Class Hierarchy Descriptor'
PUBLIC	??_R2StringReader@Internal@Core@Math@Palmtree@@8 ; Palmtree::Math::Core::Internal::StringReader::`RTTI Base Class Array'
PUBLIC	??_R1A@?0A@EA@StringReader@Internal@Core@Math@Palmtree@@8 ; Palmtree::Math::Core::Internal::StringReader::`RTTI Base Class Descriptor at (0,-1,0,64)'
PUBLIC	??_R4StringWriter@Internal@Core@Math@Palmtree@@6B@ ; Palmtree::Math::Core::Internal::StringWriter::`RTTI Complete Object Locator'
PUBLIC	??_R0?AVStringWriter@Internal@Core@Math@Palmtree@@@8 ; Palmtree::Math::Core::Internal::StringWriter `RTTI Type Descriptor'
PUBLIC	??_R3StringWriter@Internal@Core@Math@Palmtree@@8 ; Palmtree::Math::Core::Internal::StringWriter::`RTTI Class Hierarchy Descriptor'
PUBLIC	??_R2StringWriter@Internal@Core@Math@Palmtree@@8 ; Palmtree::Math::Core::Internal::StringWriter::`RTTI Base Class Array'
PUBLIC	??_R1A@?0A@EA@StringWriter@Internal@Core@Math@Palmtree@@8 ; Palmtree::Math::Core::Internal::StringWriter::`RTTI Base Class Descriptor at (0,-1,0,64)'
EXTRN	??3@YAXPAXI@Z:PROC				; operator delete
EXTRN	__imp__lstrcmpW@8:PROC
EXTRN	__imp__lstrcpyW@8:PROC
EXTRN	__imp__lstrlenW@4:PROC
EXTRN	___std_exception_destroy:PROC
EXTRN	??_Eexception@std@@UAEPAXI@Z:PROC		; std::exception::`vector deleting destructor'
EXTRN	??_EException@Internal@Core@Math@Palmtree@@UAEPAXI@Z:PROC ; Palmtree::Math::Core::Internal::Exception::`vector deleting destructor'
EXTRN	??_EArgumentException@Internal@Core@Math@Palmtree@@UAEPAXI@Z:PROC ; Palmtree::Math::Core::Internal::ArgumentException::`vector deleting destructor'
EXTRN	??_EArgumentNullException@Internal@Core@Math@Palmtree@@UAEPAXI@Z:PROC ; Palmtree::Math::Core::Internal::ArgumentNullException::`vector deleting destructor'
EXTRN	??_EInsufficientBufferException@Internal@Core@Math@Palmtree@@UAEPAXI@Z:PROC ; Palmtree::Math::Core::Internal::InsufficientBufferException::`vector deleting destructor'
EXTRN	??_EInternalErrorException@Internal@Core@Math@Palmtree@@UAEPAXI@Z:PROC ; Palmtree::Math::Core::Internal::InternalErrorException::`vector deleting destructor'
EXTRN	?CommitNumber@Internal@Core@Math@Palmtree@@YAXPAU__tag_NUMBER_HEADER@1234@@Z:PROC ; Palmtree::Math::Core::Internal::CommitNumber
EXTRN	?CheckNumber@Internal@Core@Math@Palmtree@@YAXPAU__tag_NUMBER_HEADER@1234@@Z:PROC ; Palmtree::Math::Core::Internal::CheckNumber
EXTRN	?InitializeNumberFormatoInfo@Internal@Core@Math@Palmtree@@YAXPAU__tag_PMC_NUMBER_FORMAT_INFO@1234@@Z:PROC ; Palmtree::Math::Core::Internal::InitializeNumberFormatoInfo
EXTRN	??0ResourceHolderUINT@Internal@Core@Math@Palmtree@@QAE@XZ:PROC ; Palmtree::Math::Core::Internal::ResourceHolderUINT::ResourceHolderUINT
EXTRN	??1ResourceHolderUINT@Internal@Core@Math@Palmtree@@UAE@XZ:PROC ; Palmtree::Math::Core::Internal::ResourceHolderUINT::~ResourceHolderUINT
EXTRN	?AllocateBlock@ResourceHolderUINT@Internal@Core@Math@Palmtree@@QAEPAII@Z:PROC ; Palmtree::Math::Core::Internal::ResourceHolderUINT::AllocateBlock
EXTRN	?DeallocateBlock@ResourceHolderUINT@Internal@Core@Math@Palmtree@@QAEXPAI@Z:PROC ; Palmtree::Math::Core::Internal::ResourceHolderUINT::DeallocateBlock
EXTRN	?CheckBlock@ResourceHolderUINT@Internal@Core@Math@Palmtree@@QAEXPAI@Z:PROC ; Palmtree::Math::Core::Internal::ResourceHolderUINT::CheckBlock
EXTRN	?AllocateString@ResourceHolderUINT@Internal@Core@Math@Palmtree@@QAEPA_WI@Z:PROC ; Palmtree::Math::Core::Internal::ResourceHolderUINT::AllocateString
EXTRN	?DeallocateString@ResourceHolderUINT@Internal@Core@Math@Palmtree@@QAEXPA_W@Z:PROC ; Palmtree::Math::Core::Internal::ResourceHolderUINT::DeallocateString
EXTRN	?CheckString@ResourceHolderUINT@Internal@Core@Math@Palmtree@@QAEXPA_W@Z:PROC ; Palmtree::Math::Core::Internal::ResourceHolderUINT::CheckString
EXTRN	?AllocateNumber@ResourceHolderUINT@Internal@Core@Math@Palmtree@@QAEPAU__tag_NUMBER_HEADER@2345@I@Z:PROC ; Palmtree::Math::Core::Internal::ResourceHolderUINT::AllocateNumber
EXTRN	?HookNumber@ResourceHolderUINT@Internal@Core@Math@Palmtree@@QAEXPAU__tag_NUMBER_HEADER@2345@@Z:PROC ; Palmtree::Math::Core::Internal::ResourceHolderUINT::HookNumber
EXTRN	?DeallocateNumber@ResourceHolderUINT@Internal@Core@Math@Palmtree@@QAEXPAU__tag_NUMBER_HEADER@2345@@Z:PROC ; Palmtree::Math::Core::Internal::ResourceHolderUINT::DeallocateNumber
EXTRN	?CheckNumber@ResourceHolderUINT@Internal@Core@Math@Palmtree@@QAEXPAU__tag_NUMBER_HEADER@2345@@Z:PROC ; Palmtree::Math::Core::Internal::ResourceHolderUINT::CheckNumber
EXTRN	?UnlinkNumber@ResourceHolderUINT@Internal@Core@Math@Palmtree@@QAEXPAU__tag_NUMBER_HEADER@2345@@Z:PROC ; Palmtree::Math::Core::Internal::ResourceHolderUINT::UnlinkNumber
EXTRN	@_RTC_CheckStackVars@8:PROC
EXTRN	@__CheckForDebuggerJustMyCode@4:PROC
EXTRN	@__security_check_cookie@4:PROC
EXTRN	__CxxThrowException@8:PROC
EXTRN	__RTC_CheckEsp:PROC
EXTRN	__RTC_InitBase:PROC
EXTRN	__RTC_Shutdown:PROC
EXTRN	___CxxFrameHandler3:PROC
EXTRN	__aullshr:PROC
EXTRN	??_7type_info@@6B@:QWORD			; type_info::`vftable'
EXTRN	?number_zero@Internal@Core@Math@Palmtree@@3U__tag_NUMBER_HEADER@1234@A:BYTE ; Palmtree::Math::Core::Internal::number_zero
EXTRN	?statistics_info@Internal@Core@Math@Palmtree@@3U__tag_PMC_STATISTICS_INFO@1234@A:BYTE ; Palmtree::Math::Core::Internal::statistics_info
EXTRN	___security_cookie:DWORD
_BSS	SEGMENT
?default_number_format_option@Internal@Core@Math@Palmtree@@3U__tag_PMC_NUMBER_FORMAT_INFO@1234@A DB 01e4H DUP (?) ; Palmtree::Math::Core::Internal::default_number_format_option
?fp_MultiplyAndAdd@Internal@Core@Math@Palmtree@@3P6APAIPAIII@ZA DD 01H DUP (?) ; Palmtree::Math::Core::Internal::fp_MultiplyAndAdd
_BSS	ENDS
;	COMDAT rtc$TMZ
rtc$TMZ	SEGMENT
__RTC_Shutdown.rtc$TMZ DD FLAT:__RTC_Shutdown
rtc$TMZ	ENDS
;	COMDAT rtc$IMZ
rtc$IMZ	SEGMENT
__RTC_InitBase.rtc$IMZ DD FLAT:__RTC_InitBase
rtc$IMZ	ENDS
;	COMDAT ??_R1A@?0A@EA@StringWriter@Internal@Core@Math@Palmtree@@8
rdata$r	SEGMENT
??_R1A@?0A@EA@StringWriter@Internal@Core@Math@Palmtree@@8 DD FLAT:??_R0?AVStringWriter@Internal@Core@Math@Palmtree@@@8 ; Palmtree::Math::Core::Internal::StringWriter::`RTTI Base Class Descriptor at (0,-1,0,64)'
	DD	00H
	DD	00H
	DD	0ffffffffH
	DD	00H
	DD	040H
	DD	FLAT:??_R3StringWriter@Internal@Core@Math@Palmtree@@8
rdata$r	ENDS
;	COMDAT ??_R2StringWriter@Internal@Core@Math@Palmtree@@8
rdata$r	SEGMENT
??_R2StringWriter@Internal@Core@Math@Palmtree@@8 DD FLAT:??_R1A@?0A@EA@StringWriter@Internal@Core@Math@Palmtree@@8 ; Palmtree::Math::Core::Internal::StringWriter::`RTTI Base Class Array'
rdata$r	ENDS
;	COMDAT ??_R3StringWriter@Internal@Core@Math@Palmtree@@8
rdata$r	SEGMENT
??_R3StringWriter@Internal@Core@Math@Palmtree@@8 DD 00H	; Palmtree::Math::Core::Internal::StringWriter::`RTTI Class Hierarchy Descriptor'
	DD	00H
	DD	01H
	DD	FLAT:??_R2StringWriter@Internal@Core@Math@Palmtree@@8
rdata$r	ENDS
;	COMDAT ??_R0?AVStringWriter@Internal@Core@Math@Palmtree@@@8
data$r	SEGMENT
??_R0?AVStringWriter@Internal@Core@Math@Palmtree@@@8 DD FLAT:??_7type_info@@6B@ ; Palmtree::Math::Core::Internal::StringWriter `RTTI Type Descriptor'
	DD	00H
	DB	'.?AVStringWriter@Internal@Core@Math@Palmtree@@', 00H
data$r	ENDS
;	COMDAT ??_R4StringWriter@Internal@Core@Math@Palmtree@@6B@
rdata$r	SEGMENT
??_R4StringWriter@Internal@Core@Math@Palmtree@@6B@ DD 00H ; Palmtree::Math::Core::Internal::StringWriter::`RTTI Complete Object Locator'
	DD	00H
	DD	00H
	DD	FLAT:??_R0?AVStringWriter@Internal@Core@Math@Palmtree@@@8
	DD	FLAT:??_R3StringWriter@Internal@Core@Math@Palmtree@@8
rdata$r	ENDS
;	COMDAT ??_R1A@?0A@EA@StringReader@Internal@Core@Math@Palmtree@@8
rdata$r	SEGMENT
??_R1A@?0A@EA@StringReader@Internal@Core@Math@Palmtree@@8 DD FLAT:??_R0?AVStringReader@Internal@Core@Math@Palmtree@@@8 ; Palmtree::Math::Core::Internal::StringReader::`RTTI Base Class Descriptor at (0,-1,0,64)'
	DD	00H
	DD	00H
	DD	0ffffffffH
	DD	00H
	DD	040H
	DD	FLAT:??_R3StringReader@Internal@Core@Math@Palmtree@@8
rdata$r	ENDS
;	COMDAT ??_R2StringReader@Internal@Core@Math@Palmtree@@8
rdata$r	SEGMENT
??_R2StringReader@Internal@Core@Math@Palmtree@@8 DD FLAT:??_R1A@?0A@EA@StringReader@Internal@Core@Math@Palmtree@@8 ; Palmtree::Math::Core::Internal::StringReader::`RTTI Base Class Array'
rdata$r	ENDS
;	COMDAT ??_R3StringReader@Internal@Core@Math@Palmtree@@8
rdata$r	SEGMENT
??_R3StringReader@Internal@Core@Math@Palmtree@@8 DD 00H	; Palmtree::Math::Core::Internal::StringReader::`RTTI Class Hierarchy Descriptor'
	DD	00H
	DD	01H
	DD	FLAT:??_R2StringReader@Internal@Core@Math@Palmtree@@8
rdata$r	ENDS
;	COMDAT ??_R0?AVStringReader@Internal@Core@Math@Palmtree@@@8
data$r	SEGMENT
??_R0?AVStringReader@Internal@Core@Math@Palmtree@@@8 DD FLAT:??_7type_info@@6B@ ; Palmtree::Math::Core::Internal::StringReader `RTTI Type Descriptor'
	DD	00H
	DB	'.?AVStringReader@Internal@Core@Math@Palmtree@@', 00H
data$r	ENDS
;	COMDAT ??_R4StringReader@Internal@Core@Math@Palmtree@@6B@
rdata$r	SEGMENT
??_R4StringReader@Internal@Core@Math@Palmtree@@6B@ DD 00H ; Palmtree::Math::Core::Internal::StringReader::`RTTI Complete Object Locator'
	DD	00H
	DD	00H
	DD	FLAT:??_R0?AVStringReader@Internal@Core@Math@Palmtree@@@8
	DD	FLAT:??_R3StringReader@Internal@Core@Math@Palmtree@@8
rdata$r	ENDS
;	COMDAT ??_R1A@?0A@EA@InternalErrorException@Internal@Core@Math@Palmtree@@8
rdata$r	SEGMENT
??_R1A@?0A@EA@InternalErrorException@Internal@Core@Math@Palmtree@@8 DD FLAT:??_R0?AVInternalErrorException@Internal@Core@Math@Palmtree@@@8 ; Palmtree::Math::Core::Internal::InternalErrorException::`RTTI Base Class Descriptor at (0,-1,0,64)'
	DD	02H
	DD	00H
	DD	0ffffffffH
	DD	00H
	DD	040H
	DD	FLAT:??_R3InternalErrorException@Internal@Core@Math@Palmtree@@8
rdata$r	ENDS
;	COMDAT ??_R2InternalErrorException@Internal@Core@Math@Palmtree@@8
rdata$r	SEGMENT
??_R2InternalErrorException@Internal@Core@Math@Palmtree@@8 DD FLAT:??_R1A@?0A@EA@InternalErrorException@Internal@Core@Math@Palmtree@@8 ; Palmtree::Math::Core::Internal::InternalErrorException::`RTTI Base Class Array'
	DD	FLAT:??_R1A@?0A@EA@Exception@Internal@Core@Math@Palmtree@@8
	DD	FLAT:??_R1A@?0A@EN@exception@std@@8
rdata$r	ENDS
;	COMDAT ??_R3InternalErrorException@Internal@Core@Math@Palmtree@@8
rdata$r	SEGMENT
??_R3InternalErrorException@Internal@Core@Math@Palmtree@@8 DD 00H ; Palmtree::Math::Core::Internal::InternalErrorException::`RTTI Class Hierarchy Descriptor'
	DD	00H
	DD	03H
	DD	FLAT:??_R2InternalErrorException@Internal@Core@Math@Palmtree@@8
rdata$r	ENDS
;	COMDAT ??_R4InternalErrorException@Internal@Core@Math@Palmtree@@6B@
rdata$r	SEGMENT
??_R4InternalErrorException@Internal@Core@Math@Palmtree@@6B@ DD 00H ; Palmtree::Math::Core::Internal::InternalErrorException::`RTTI Complete Object Locator'
	DD	00H
	DD	00H
	DD	FLAT:??_R0?AVInternalErrorException@Internal@Core@Math@Palmtree@@@8
	DD	FLAT:??_R3InternalErrorException@Internal@Core@Math@Palmtree@@8
rdata$r	ENDS
;	COMDAT ??_R1A@?0A@EA@InsufficientBufferException@Internal@Core@Math@Palmtree@@8
rdata$r	SEGMENT
??_R1A@?0A@EA@InsufficientBufferException@Internal@Core@Math@Palmtree@@8 DD FLAT:??_R0?AVInsufficientBufferException@Internal@Core@Math@Palmtree@@@8 ; Palmtree::Math::Core::Internal::InsufficientBufferException::`RTTI Base Class Descriptor at (0,-1,0,64)'
	DD	02H
	DD	00H
	DD	0ffffffffH
	DD	00H
	DD	040H
	DD	FLAT:??_R3InsufficientBufferException@Internal@Core@Math@Palmtree@@8
rdata$r	ENDS
;	COMDAT ??_R2InsufficientBufferException@Internal@Core@Math@Palmtree@@8
rdata$r	SEGMENT
??_R2InsufficientBufferException@Internal@Core@Math@Palmtree@@8 DD FLAT:??_R1A@?0A@EA@InsufficientBufferException@Internal@Core@Math@Palmtree@@8 ; Palmtree::Math::Core::Internal::InsufficientBufferException::`RTTI Base Class Array'
	DD	FLAT:??_R1A@?0A@EA@Exception@Internal@Core@Math@Palmtree@@8
	DD	FLAT:??_R1A@?0A@EN@exception@std@@8
rdata$r	ENDS
;	COMDAT ??_R3InsufficientBufferException@Internal@Core@Math@Palmtree@@8
rdata$r	SEGMENT
??_R3InsufficientBufferException@Internal@Core@Math@Palmtree@@8 DD 00H ; Palmtree::Math::Core::Internal::InsufficientBufferException::`RTTI Class Hierarchy Descriptor'
	DD	00H
	DD	03H
	DD	FLAT:??_R2InsufficientBufferException@Internal@Core@Math@Palmtree@@8
rdata$r	ENDS
;	COMDAT ??_R4InsufficientBufferException@Internal@Core@Math@Palmtree@@6B@
rdata$r	SEGMENT
??_R4InsufficientBufferException@Internal@Core@Math@Palmtree@@6B@ DD 00H ; Palmtree::Math::Core::Internal::InsufficientBufferException::`RTTI Complete Object Locator'
	DD	00H
	DD	00H
	DD	FLAT:??_R0?AVInsufficientBufferException@Internal@Core@Math@Palmtree@@@8
	DD	FLAT:??_R3InsufficientBufferException@Internal@Core@Math@Palmtree@@8
rdata$r	ENDS
;	COMDAT ??_R1A@?0A@EA@ArgumentNullException@Internal@Core@Math@Palmtree@@8
rdata$r	SEGMENT
??_R1A@?0A@EA@ArgumentNullException@Internal@Core@Math@Palmtree@@8 DD FLAT:??_R0?AVArgumentNullException@Internal@Core@Math@Palmtree@@@8 ; Palmtree::Math::Core::Internal::ArgumentNullException::`RTTI Base Class Descriptor at (0,-1,0,64)'
	DD	02H
	DD	00H
	DD	0ffffffffH
	DD	00H
	DD	040H
	DD	FLAT:??_R3ArgumentNullException@Internal@Core@Math@Palmtree@@8
rdata$r	ENDS
;	COMDAT ??_R2ArgumentNullException@Internal@Core@Math@Palmtree@@8
rdata$r	SEGMENT
??_R2ArgumentNullException@Internal@Core@Math@Palmtree@@8 DD FLAT:??_R1A@?0A@EA@ArgumentNullException@Internal@Core@Math@Palmtree@@8 ; Palmtree::Math::Core::Internal::ArgumentNullException::`RTTI Base Class Array'
	DD	FLAT:??_R1A@?0A@EA@Exception@Internal@Core@Math@Palmtree@@8
	DD	FLAT:??_R1A@?0A@EN@exception@std@@8
rdata$r	ENDS
;	COMDAT ??_R3ArgumentNullException@Internal@Core@Math@Palmtree@@8
rdata$r	SEGMENT
??_R3ArgumentNullException@Internal@Core@Math@Palmtree@@8 DD 00H ; Palmtree::Math::Core::Internal::ArgumentNullException::`RTTI Class Hierarchy Descriptor'
	DD	00H
	DD	03H
	DD	FLAT:??_R2ArgumentNullException@Internal@Core@Math@Palmtree@@8
rdata$r	ENDS
;	COMDAT ??_R4ArgumentNullException@Internal@Core@Math@Palmtree@@6B@
rdata$r	SEGMENT
??_R4ArgumentNullException@Internal@Core@Math@Palmtree@@6B@ DD 00H ; Palmtree::Math::Core::Internal::ArgumentNullException::`RTTI Complete Object Locator'
	DD	00H
	DD	00H
	DD	FLAT:??_R0?AVArgumentNullException@Internal@Core@Math@Palmtree@@@8
	DD	FLAT:??_R3ArgumentNullException@Internal@Core@Math@Palmtree@@8
rdata$r	ENDS
;	COMDAT ??_R1A@?0A@EA@ArgumentException@Internal@Core@Math@Palmtree@@8
rdata$r	SEGMENT
??_R1A@?0A@EA@ArgumentException@Internal@Core@Math@Palmtree@@8 DD FLAT:??_R0?AVArgumentException@Internal@Core@Math@Palmtree@@@8 ; Palmtree::Math::Core::Internal::ArgumentException::`RTTI Base Class Descriptor at (0,-1,0,64)'
	DD	02H
	DD	00H
	DD	0ffffffffH
	DD	00H
	DD	040H
	DD	FLAT:??_R3ArgumentException@Internal@Core@Math@Palmtree@@8
rdata$r	ENDS
;	COMDAT ??_R2ArgumentException@Internal@Core@Math@Palmtree@@8
rdata$r	SEGMENT
??_R2ArgumentException@Internal@Core@Math@Palmtree@@8 DD FLAT:??_R1A@?0A@EA@ArgumentException@Internal@Core@Math@Palmtree@@8 ; Palmtree::Math::Core::Internal::ArgumentException::`RTTI Base Class Array'
	DD	FLAT:??_R1A@?0A@EA@Exception@Internal@Core@Math@Palmtree@@8
	DD	FLAT:??_R1A@?0A@EN@exception@std@@8
rdata$r	ENDS
;	COMDAT ??_R3ArgumentException@Internal@Core@Math@Palmtree@@8
rdata$r	SEGMENT
??_R3ArgumentException@Internal@Core@Math@Palmtree@@8 DD 00H ; Palmtree::Math::Core::Internal::ArgumentException::`RTTI Class Hierarchy Descriptor'
	DD	00H
	DD	03H
	DD	FLAT:??_R2ArgumentException@Internal@Core@Math@Palmtree@@8
rdata$r	ENDS
;	COMDAT ??_R4ArgumentException@Internal@Core@Math@Palmtree@@6B@
rdata$r	SEGMENT
??_R4ArgumentException@Internal@Core@Math@Palmtree@@6B@ DD 00H ; Palmtree::Math::Core::Internal::ArgumentException::`RTTI Complete Object Locator'
	DD	00H
	DD	00H
	DD	FLAT:??_R0?AVArgumentException@Internal@Core@Math@Palmtree@@@8
	DD	FLAT:??_R3ArgumentException@Internal@Core@Math@Palmtree@@8
rdata$r	ENDS
;	COMDAT ??_R1A@?0A@EN@exception@std@@8
rdata$r	SEGMENT
??_R1A@?0A@EN@exception@std@@8 DD FLAT:??_R0?AVexception@std@@@8 ; std::exception::`RTTI Base Class Descriptor at (0,-1,0,77)'
	DD	00H
	DD	00H
	DD	0ffffffffH
	DD	00H
	DD	04dH
	DD	FLAT:??_R3exception@std@@8
rdata$r	ENDS
;	COMDAT ??_R1A@?0A@EA@Exception@Internal@Core@Math@Palmtree@@8
rdata$r	SEGMENT
??_R1A@?0A@EA@Exception@Internal@Core@Math@Palmtree@@8 DD FLAT:??_R0?AVException@Internal@Core@Math@Palmtree@@@8 ; Palmtree::Math::Core::Internal::Exception::`RTTI Base Class Descriptor at (0,-1,0,64)'
	DD	01H
	DD	00H
	DD	0ffffffffH
	DD	00H
	DD	040H
	DD	FLAT:??_R3Exception@Internal@Core@Math@Palmtree@@8
rdata$r	ENDS
;	COMDAT ??_R2Exception@Internal@Core@Math@Palmtree@@8
rdata$r	SEGMENT
??_R2Exception@Internal@Core@Math@Palmtree@@8 DD FLAT:??_R1A@?0A@EA@Exception@Internal@Core@Math@Palmtree@@8 ; Palmtree::Math::Core::Internal::Exception::`RTTI Base Class Array'
	DD	FLAT:??_R1A@?0A@EN@exception@std@@8
rdata$r	ENDS
;	COMDAT ??_R3Exception@Internal@Core@Math@Palmtree@@8
rdata$r	SEGMENT
??_R3Exception@Internal@Core@Math@Palmtree@@8 DD 00H	; Palmtree::Math::Core::Internal::Exception::`RTTI Class Hierarchy Descriptor'
	DD	00H
	DD	02H
	DD	FLAT:??_R2Exception@Internal@Core@Math@Palmtree@@8
rdata$r	ENDS
;	COMDAT ??_R4Exception@Internal@Core@Math@Palmtree@@6B@
rdata$r	SEGMENT
??_R4Exception@Internal@Core@Math@Palmtree@@6B@ DD 00H	; Palmtree::Math::Core::Internal::Exception::`RTTI Complete Object Locator'
	DD	00H
	DD	00H
	DD	FLAT:??_R0?AVException@Internal@Core@Math@Palmtree@@@8
	DD	FLAT:??_R3Exception@Internal@Core@Math@Palmtree@@8
rdata$r	ENDS
;	COMDAT ??_R1A@?0A@EA@exception@std@@8
rdata$r	SEGMENT
??_R1A@?0A@EA@exception@std@@8 DD FLAT:??_R0?AVexception@std@@@8 ; std::exception::`RTTI Base Class Descriptor at (0,-1,0,64)'
	DD	00H
	DD	00H
	DD	0ffffffffH
	DD	00H
	DD	040H
	DD	FLAT:??_R3exception@std@@8
rdata$r	ENDS
;	COMDAT ??_R2exception@std@@8
rdata$r	SEGMENT
??_R2exception@std@@8 DD FLAT:??_R1A@?0A@EA@exception@std@@8 ; std::exception::`RTTI Base Class Array'
rdata$r	ENDS
;	COMDAT ??_R3exception@std@@8
rdata$r	SEGMENT
??_R3exception@std@@8 DD 00H				; std::exception::`RTTI Class Hierarchy Descriptor'
	DD	00H
	DD	01H
	DD	FLAT:??_R2exception@std@@8
rdata$r	ENDS
;	COMDAT ??_R0?AVexception@std@@@8
data$r	SEGMENT
??_R0?AVexception@std@@@8 DD FLAT:??_7type_info@@6B@	; std::exception `RTTI Type Descriptor'
	DD	00H
	DB	'.?AVexception@std@@', 00H
data$r	ENDS
;	COMDAT ??_R4exception@std@@6B@
rdata$r	SEGMENT
??_R4exception@std@@6B@ DD 00H				; std::exception::`RTTI Complete Object Locator'
	DD	00H
	DD	00H
	DD	FLAT:??_R0?AVexception@std@@@8
	DD	FLAT:??_R3exception@std@@8
rdata$r	ENDS
;	COMDAT __CT??_R0?AVArgumentNullException@Internal@Core@Math@Palmtree@@@8??0ArgumentNullException@Internal@Core@Math@Palmtree@@QAE@ABV01234@@Z24
xdata$x	SEGMENT
__CT??_R0?AVArgumentNullException@Internal@Core@Math@Palmtree@@@8??0ArgumentNullException@Internal@Core@Math@Palmtree@@QAE@ABV01234@@Z24 DD 00H
	DD	FLAT:??_R0?AVArgumentNullException@Internal@Core@Math@Palmtree@@@8
	DD	00H
	DD	0ffffffffH
	ORG $+4
	DD	018H
	DD	FLAT:??0ArgumentNullException@Internal@Core@Math@Palmtree@@QAE@ABV01234@@Z
xdata$x	ENDS
;	COMDAT ??_R0?AVArgumentNullException@Internal@Core@Math@Palmtree@@@8
data$r	SEGMENT
??_R0?AVArgumentNullException@Internal@Core@Math@Palmtree@@@8 DD FLAT:??_7type_info@@6B@ ; Palmtree::Math::Core::Internal::ArgumentNullException `RTTI Type Descriptor'
	DD	00H
	DB	'.?AVArgumentNullException@Internal@Core@Math@Palmtree@@', 00H
data$r	ENDS
;	COMDAT __CTA2?AVArgumentNullException@Internal@Core@Math@Palmtree@@
xdata$x	SEGMENT
__CTA2?AVArgumentNullException@Internal@Core@Math@Palmtree@@ DD 02H
	DD	FLAT:__CT??_R0?AVArgumentNullException@Internal@Core@Math@Palmtree@@@8??0ArgumentNullException@Internal@Core@Math@Palmtree@@QAE@ABV01234@@Z24
	DD	FLAT:__CT??_R0?AVException@Internal@Core@Math@Palmtree@@@8??0Exception@Internal@Core@Math@Palmtree@@QAE@ABV01234@@Z24
xdata$x	ENDS
;	COMDAT __TI2?AVArgumentNullException@Internal@Core@Math@Palmtree@@
xdata$x	SEGMENT
__TI2?AVArgumentNullException@Internal@Core@Math@Palmtree@@ DD 00H
	DD	FLAT:??1ArgumentNullException@Internal@Core@Math@Palmtree@@UAE@XZ
	DD	00H
	DD	FLAT:__CTA2?AVArgumentNullException@Internal@Core@Math@Palmtree@@
xdata$x	ENDS
;	COMDAT __CT??_R0?AVArgumentException@Internal@Core@Math@Palmtree@@@8??0ArgumentException@Internal@Core@Math@Palmtree@@QAE@ABV01234@@Z24
xdata$x	SEGMENT
__CT??_R0?AVArgumentException@Internal@Core@Math@Palmtree@@@8??0ArgumentException@Internal@Core@Math@Palmtree@@QAE@ABV01234@@Z24 DD 00H
	DD	FLAT:??_R0?AVArgumentException@Internal@Core@Math@Palmtree@@@8
	DD	00H
	DD	0ffffffffH
	ORG $+4
	DD	018H
	DD	FLAT:??0ArgumentException@Internal@Core@Math@Palmtree@@QAE@ABV01234@@Z
xdata$x	ENDS
;	COMDAT ??_R0?AVArgumentException@Internal@Core@Math@Palmtree@@@8
data$r	SEGMENT
??_R0?AVArgumentException@Internal@Core@Math@Palmtree@@@8 DD FLAT:??_7type_info@@6B@ ; Palmtree::Math::Core::Internal::ArgumentException `RTTI Type Descriptor'
	DD	00H
	DB	'.?AVArgumentException@Internal@Core@Math@Palmtree@@', 00H
data$r	ENDS
;	COMDAT __CTA2?AVArgumentException@Internal@Core@Math@Palmtree@@
xdata$x	SEGMENT
__CTA2?AVArgumentException@Internal@Core@Math@Palmtree@@ DD 02H
	DD	FLAT:__CT??_R0?AVArgumentException@Internal@Core@Math@Palmtree@@@8??0ArgumentException@Internal@Core@Math@Palmtree@@QAE@ABV01234@@Z24
	DD	FLAT:__CT??_R0?AVException@Internal@Core@Math@Palmtree@@@8??0Exception@Internal@Core@Math@Palmtree@@QAE@ABV01234@@Z24
xdata$x	ENDS
;	COMDAT __TI2?AVArgumentException@Internal@Core@Math@Palmtree@@
xdata$x	SEGMENT
__TI2?AVArgumentException@Internal@Core@Math@Palmtree@@ DD 00H
	DD	FLAT:??1ArgumentException@Internal@Core@Math@Palmtree@@UAE@XZ
	DD	00H
	DD	FLAT:__CTA2?AVArgumentException@Internal@Core@Math@Palmtree@@
xdata$x	ENDS
;	COMDAT ??_C@_13DIBMAFH@?$AA?$CJ@
CONST	SEGMENT
??_C@_13DIBMAFH@?$AA?$CJ@ DB ')', 00H, 00H, 00H		; `string'
CONST	ENDS
;	COMDAT ??_C@_13LLDNKHDC@?$AA?$CI@
CONST	SEGMENT
??_C@_13LLDNKHDC@?$AA?$CI@ DB '(', 00H, 00H, 00H	; `string'
CONST	ENDS
;	COMDAT ??_C@_13HOIJIPNN@?$AA?5@
CONST	SEGMENT
??_C@_13HOIJIPNN@?$AA?5@ DB ' ', 00H, 00H, 00H		; `string'
CONST	ENDS
;	COMDAT ??_C@_13JDNADJOG@?$PP?$KA@
CONST	SEGMENT
??_C@_13JDNADJOG@?$PP?$KA@ DB 0a0H, 00H, 00H, 00H	; `string'
CONST	ENDS
;	COMDAT ??_C@_1EK@MEBBKDKE@?$AAp?$AAm?$AAc?$AA_?$AAp?$AAa?$AAr?$AAs?$AAe?$AA?$DL?$AAP?$AAa?$AAr?$AAs?$AAe@
CONST	SEGMENT
??_C@_1EK@MEBBKDKE@?$AAp?$AAm?$AAc?$AA_?$AAp?$AAa?$AAr?$AAs?$AAe?$AA?$DL?$AAP?$AAa?$AAr?$AAs?$AAe@ DB 'p'
	DB	00H, 'm', 00H, 'c', 00H, '_', 00H, 'p', 00H, 'a', 00H, 'r', 00H
	DB	's', 00H, 'e', 00H, ';', 00H, 'P', 00H, 'a', 00H, 'r', 00H, 's'
	DB	00H, 'e', 00H, 'r', 00H, 'S', 00H, 't', 00H, 'a', 00H, 't', 00H
	DB	'e', 00H, ':', 00H, ':', 00H, 'P', 00H, 'a', 00H, 'r', 00H, 's'
	DB	00H, 'e', 00H, 'r', 00H, 'S', 00H, 't', 00H, 'a', 00H, 't', 00H
	DB	'e', 00H, ';', 00H, '7', 00H, 00H, 00H	; `string'
CONST	ENDS
;	COMDAT ??_C@_1EK@HMKNMEMB@?$AAp?$AAm?$AAc?$AA_?$AAp?$AAa?$AAr?$AAs?$AAe?$AA?$DL?$AAP?$AAa?$AAr?$AAs?$AAe@
CONST	SEGMENT
??_C@_1EK@HMKNMEMB@?$AAp?$AAm?$AAc?$AA_?$AAp?$AAa?$AAr?$AAs?$AAe?$AA?$DL?$AAP?$AAa?$AAr?$AAs?$AAe@ DB 'p'
	DB	00H, 'm', 00H, 'c', 00H, '_', 00H, 'p', 00H, 'a', 00H, 'r', 00H
	DB	's', 00H, 'e', 00H, ';', 00H, 'P', 00H, 'a', 00H, 'r', 00H, 's'
	DB	00H, 'e', 00H, 'r', 00H, 'S', 00H, 't', 00H, 'a', 00H, 't', 00H
	DB	'e', 00H, ':', 00H, ':', 00H, 'P', 00H, 'a', 00H, 'r', 00H, 's'
	DB	00H, 'e', 00H, 'r', 00H, 'S', 00H, 't', 00H, 'a', 00H, 't', 00H
	DB	'e', 00H, ';', 00H, '6', 00H, 00H, 00H	; `string'
CONST	ENDS
;	COMDAT ??_C@_1EK@GOBIGLCP@?$AAp?$AAm?$AAc?$AA_?$AAp?$AAa?$AAr?$AAs?$AAe?$AA?$DL?$AAP?$AAa?$AAr?$AAs?$AAe@
CONST	SEGMENT
??_C@_1EK@GOBIGLCP@?$AAp?$AAm?$AAc?$AA_?$AAp?$AAa?$AAr?$AAs?$AAe?$AA?$DL?$AAP?$AAa?$AAr?$AAs?$AAe@ DB 'p'
	DB	00H, 'm', 00H, 'c', 00H, '_', 00H, 'p', 00H, 'a', 00H, 'r', 00H
	DB	's', 00H, 'e', 00H, ';', 00H, 'P', 00H, 'a', 00H, 'r', 00H, 's'
	DB	00H, 'e', 00H, 'r', 00H, 'S', 00H, 't', 00H, 'a', 00H, 't', 00H
	DB	'e', 00H, ':', 00H, ':', 00H, 'P', 00H, 'a', 00H, 'r', 00H, 's'
	DB	00H, 'e', 00H, 'r', 00H, 'S', 00H, 't', 00H, 'a', 00H, 't', 00H
	DB	'e', 00H, ';', 00H, '5', 00H, 00H, 00H	; `string'
CONST	ENDS
;	COMDAT ??_C@_1EK@NGKEAMEK@?$AAp?$AAm?$AAc?$AA_?$AAp?$AAa?$AAr?$AAs?$AAe?$AA?$DL?$AAP?$AAa?$AAr?$AAs?$AAe@
CONST	SEGMENT
??_C@_1EK@NGKEAMEK@?$AAp?$AAm?$AAc?$AA_?$AAp?$AAa?$AAr?$AAs?$AAe?$AA?$DL?$AAP?$AAa?$AAr?$AAs?$AAe@ DB 'p'
	DB	00H, 'm', 00H, 'c', 00H, '_', 00H, 'p', 00H, 'a', 00H, 'r', 00H
	DB	's', 00H, 'e', 00H, ';', 00H, 'P', 00H, 'a', 00H, 'r', 00H, 's'
	DB	00H, 'e', 00H, 'r', 00H, 'S', 00H, 't', 00H, 'a', 00H, 't', 00H
	DB	'e', 00H, ':', 00H, ':', 00H, 'P', 00H, 'a', 00H, 'r', 00H, 's'
	DB	00H, 'e', 00H, 'r', 00H, 'S', 00H, 't', 00H, 'a', 00H, 't', 00H
	DB	'e', 00H, ';', 00H, '4', 00H, 00H, 00H	; `string'
CONST	ENDS
;	COMDAT ??_C@_1EK@ELHDDEPD@?$AAp?$AAm?$AAc?$AA_?$AAp?$AAa?$AAr?$AAs?$AAe?$AA?$DL?$AAP?$AAa?$AAr?$AAs?$AAe@
CONST	SEGMENT
??_C@_1EK@ELHDDEPD@?$AAp?$AAm?$AAc?$AA_?$AAp?$AAa?$AAr?$AAs?$AAe?$AA?$DL?$AAP?$AAa?$AAr?$AAs?$AAe@ DB 'p'
	DB	00H, 'm', 00H, 'c', 00H, '_', 00H, 'p', 00H, 'a', 00H, 'r', 00H
	DB	's', 00H, 'e', 00H, ';', 00H, 'P', 00H, 'a', 00H, 'r', 00H, 's'
	DB	00H, 'e', 00H, 'r', 00H, 'S', 00H, 't', 00H, 'a', 00H, 't', 00H
	DB	'e', 00H, ':', 00H, ':', 00H, 'P', 00H, 'a', 00H, 'r', 00H, 's'
	DB	00H, 'e', 00H, 'r', 00H, 'S', 00H, 't', 00H, 'a', 00H, 't', 00H
	DB	'e', 00H, ';', 00H, '3', 00H, 00H, 00H	; `string'
CONST	ENDS
;	COMDAT ??_C@_1EK@PDMPFDJG@?$AAp?$AAm?$AAc?$AA_?$AAp?$AAa?$AAr?$AAs?$AAe?$AA?$DL?$AAP?$AAa?$AAr?$AAs?$AAe@
CONST	SEGMENT
??_C@_1EK@PDMPFDJG@?$AAp?$AAm?$AAc?$AA_?$AAp?$AAa?$AAr?$AAs?$AAe?$AA?$DL?$AAP?$AAa?$AAr?$AAs?$AAe@ DB 'p'
	DB	00H, 'm', 00H, 'c', 00H, '_', 00H, 'p', 00H, 'a', 00H, 'r', 00H
	DB	's', 00H, 'e', 00H, ';', 00H, 'P', 00H, 'a', 00H, 'r', 00H, 's'
	DB	00H, 'e', 00H, 'r', 00H, 'S', 00H, 't', 00H, 'a', 00H, 't', 00H
	DB	'e', 00H, ':', 00H, ':', 00H, 'P', 00H, 'a', 00H, 'r', 00H, 's'
	DB	00H, 'e', 00H, 'r', 00H, 'S', 00H, 't', 00H, 'a', 00H, 't', 00H
	DB	'e', 00H, ';', 00H, '2', 00H, 00H, 00H	; `string'
CONST	ENDS
;	COMDAT ??_C@_1EK@OBHKPMHI@?$AAp?$AAm?$AAc?$AA_?$AAp?$AAa?$AAr?$AAs?$AAe?$AA?$DL?$AAP?$AAa?$AAr?$AAs?$AAe@
CONST	SEGMENT
??_C@_1EK@OBHKPMHI@?$AAp?$AAm?$AAc?$AA_?$AAp?$AAa?$AAr?$AAs?$AAe?$AA?$DL?$AAP?$AAa?$AAr?$AAs?$AAe@ DB 'p'
	DB	00H, 'm', 00H, 'c', 00H, '_', 00H, 'p', 00H, 'a', 00H, 'r', 00H
	DB	's', 00H, 'e', 00H, ';', 00H, 'P', 00H, 'a', 00H, 'r', 00H, 's'
	DB	00H, 'e', 00H, 'r', 00H, 'S', 00H, 't', 00H, 'a', 00H, 't', 00H
	DB	'e', 00H, ':', 00H, ':', 00H, 'P', 00H, 'a', 00H, 'r', 00H, 's'
	DB	00H, 'e', 00H, 'r', 00H, 'S', 00H, 't', 00H, 'a', 00H, 't', 00H
	DB	'e', 00H, ';', 00H, '1', 00H, 00H, 00H	; `string'
CONST	ENDS
;	COMDAT ??_C@_1CO@JABAMCFP@?$PP?x?$AAM?$PP?$LM?$AA?$HP?$AAH?$PP?P?$PP?C?$PP?U?$PP?$KB?$AAn?$PP?$LF?$PP?$KE?$PP?$LK?$AAL?$AA?$AN@
CONST	SEGMENT
??_C@_1CO@JABAMCFP@?$PP?x?$AAM?$PP?$LM?$AA?$HP?$AAH?$PP?P?$PP?C?$PP?U?$PP?$KB?$AAn?$PP?$LF?$PP?$KE?$PP?$LK?$AAL?$AA?$AN@ DB 0f8H
	DB	'fM0', 0bcH, 08fH, 07fH, '0HQ', 0d0H, '0', 0c3H, '0', 0d5H, '0'
	DB	0a1H, '0n0', 0b5H, '0', 0a4H, '0', 0baH, '0L0', 0dH, 'N', 0b3H
	DB	08dH, 'W0f0D0~0Y0', 02H, '0', 00H, 00H	; `string'
CONST	ENDS
;	COMDAT __CT??_R0?AVInsufficientBufferException@Internal@Core@Math@Palmtree@@@8??0InsufficientBufferException@Internal@Core@Math@Palmtree@@QAE@ABV01234@@Z24
xdata$x	SEGMENT
__CT??_R0?AVInsufficientBufferException@Internal@Core@Math@Palmtree@@@8??0InsufficientBufferException@Internal@Core@Math@Palmtree@@QAE@ABV01234@@Z24 DD 00H
	DD	FLAT:??_R0?AVInsufficientBufferException@Internal@Core@Math@Palmtree@@@8
	DD	00H
	DD	0ffffffffH
	ORG $+4
	DD	018H
	DD	FLAT:??0InsufficientBufferException@Internal@Core@Math@Palmtree@@QAE@ABV01234@@Z
xdata$x	ENDS
;	COMDAT ??_R0?AVInsufficientBufferException@Internal@Core@Math@Palmtree@@@8
data$r	SEGMENT
??_R0?AVInsufficientBufferException@Internal@Core@Math@Palmtree@@@8 DD FLAT:??_7type_info@@6B@ ; Palmtree::Math::Core::Internal::InsufficientBufferException `RTTI Type Descriptor'
	DD	00H
	DB	'.?AVInsufficientBufferException@Internal@Core@Math@Palmt'
	DB	'ree@@', 00H
data$r	ENDS
;	COMDAT __CTA2?AVInsufficientBufferException@Internal@Core@Math@Palmtree@@
xdata$x	SEGMENT
__CTA2?AVInsufficientBufferException@Internal@Core@Math@Palmtree@@ DD 02H
	DD	FLAT:__CT??_R0?AVInsufficientBufferException@Internal@Core@Math@Palmtree@@@8??0InsufficientBufferException@Internal@Core@Math@Palmtree@@QAE@ABV01234@@Z24
	DD	FLAT:__CT??_R0?AVException@Internal@Core@Math@Palmtree@@@8??0Exception@Internal@Core@Math@Palmtree@@QAE@ABV01234@@Z24
xdata$x	ENDS
;	COMDAT __TI2?AVInsufficientBufferException@Internal@Core@Math@Palmtree@@
xdata$x	SEGMENT
__TI2?AVInsufficientBufferException@Internal@Core@Math@Palmtree@@ DD 00H
	DD	FLAT:??1InsufficientBufferException@Internal@Core@Math@Palmtree@@UAE@XZ
	DD	00H
	DD	FLAT:__CTA2?AVInsufficientBufferException@Internal@Core@Math@Palmtree@@
xdata$x	ENDS
;	COMDAT ??_7StringWriter@Internal@Core@Math@Palmtree@@6B@
CONST	SEGMENT
??_7StringWriter@Internal@Core@Math@Palmtree@@6B@ DD FLAT:??_R4StringWriter@Internal@Core@Math@Palmtree@@6B@ ; Palmtree::Math::Core::Internal::StringWriter::`vftable'
	DD	FLAT:?Write@StringWriter@Internal@Core@Math@Palmtree@@UAEXPB_W@Z
	DD	FLAT:?Write@StringWriter@Internal@Core@Math@Palmtree@@UAEX_W@Z
	DD	FLAT:?GetString@StringWriter@Internal@Core@Math@Palmtree@@UAEPA_WXZ
CONST	ENDS
;	COMDAT ??_C@_1FE@KONPIGEM@?$AAp?$AAm?$AAc?$AA_?$AAs?$AAt?$AAr?$AAi?$AAn?$AAg?$AAi?$AAo?$AA?4?$AAh?$AA?$DL@
CONST	SEGMENT
??_C@_1FE@KONPIGEM@?$AAp?$AAm?$AAc?$AA_?$AAs?$AAt?$AAr?$AAi?$AAn?$AAg?$AAi?$AAo?$AA?4?$AAh?$AA?$DL@ DB 'p'
	DB	00H, 'm', 00H, 'c', 00H, '_', 00H, 's', 00H, 't', 00H, 'r', 00H
	DB	'i', 00H, 'n', 00H, 'g', 00H, 'i', 00H, 'o', 00H, '.', 00H, 'h'
	DB	00H, ';', 00H, 'S', 00H, 't', 00H, 'r', 00H, 'i', 00H, 'n', 00H
	DB	'g', 00H, 'R', 00H, 'e', 00H, 'a', 00H, 'd', 00H, 'e', 00H, 'r'
	DB	00H, ':', 00H, ':', 00H, 'S', 00H, 'k', 00H, 'i', 00H, 'p', 00H
	DB	'S', 00H, 't', 00H, 'r', 00H, 'i', 00H, 'n', 00H, 'g', 00H, ';'
	DB	00H, '1', 00H, 00H, 00H			; `string'
CONST	ENDS
;	COMDAT ??_C@_1BM@FCPAHMHB@?$PP?$IF?$PP?h?$PP?$KI?$PP?i?$PP?$PM?$AAL?$AAz?$AA?$BP?$AAW?$AA?$HO?$AAW?$AA_?$AA?$AC@
CONST	SEGMENT
??_C@_1BM@FCPAHMHB@?$PP?$IF?$PP?h?$PP?$KI?$PP?i?$PP?$PM?$AAL?$AAz?$AA?$BP?$AAW?$AA?$HO?$AAW?$AA_?$AA?$AC@ DB 085H
	DB	'Q', 0e8H, 090H, 0a8H, '0', 0e9H, '0', 0fcH, '0L0zv', 01fH, 'u'
	DB	'W0~0W0_0', 02H, '0', 00H, 00H		; `string'
CONST	ENDS
;	COMDAT ??_C@_1FA@CNGEABBJ@?$AAp?$AAm?$AAc?$AA_?$AAs?$AAt?$AAr?$AAi?$AAn?$AAg?$AAi?$AAo?$AA?4?$AAh?$AA?$DL@
CONST	SEGMENT
??_C@_1FA@CNGEABBJ@?$AAp?$AAm?$AAc?$AA_?$AAs?$AAt?$AAr?$AAi?$AAn?$AAg?$AAi?$AAo?$AA?4?$AAh?$AA?$DL@ DB 'p'
	DB	00H, 'm', 00H, 'c', 00H, '_', 00H, 's', 00H, 't', 00H, 'r', 00H
	DB	'i', 00H, 'n', 00H, 'g', 00H, 'i', 00H, 'o', 00H, '.', 00H, 'h'
	DB	00H, ';', 00H, 'S', 00H, 't', 00H, 'r', 00H, 'i', 00H, 'n', 00H
	DB	'g', 00H, 'R', 00H, 'e', 00H, 'a', 00H, 'd', 00H, 'e', 00H, 'r'
	DB	00H, ':', 00H, ':', 00H, 'P', 00H, 'r', 00H, 'o', 00H, 'g', 00H
	DB	'r', 00H, 'e', 00H, 's', 00H, 's', 00H, ';', 00H, '1', 00H, 00H
	DB	00H						; `string'
CONST	ENDS
;	COMDAT __CT??_R0?AVException@Internal@Core@Math@Palmtree@@@8??0Exception@Internal@Core@Math@Palmtree@@QAE@ABV01234@@Z24
xdata$x	SEGMENT
__CT??_R0?AVException@Internal@Core@Math@Palmtree@@@8??0Exception@Internal@Core@Math@Palmtree@@QAE@ABV01234@@Z24 DD 00H
	DD	FLAT:??_R0?AVException@Internal@Core@Math@Palmtree@@@8
	DD	00H
	DD	0ffffffffH
	ORG $+4
	DD	018H
	DD	FLAT:??0Exception@Internal@Core@Math@Palmtree@@QAE@ABV01234@@Z
xdata$x	ENDS
;	COMDAT ??_R0?AVException@Internal@Core@Math@Palmtree@@@8
data$r	SEGMENT
??_R0?AVException@Internal@Core@Math@Palmtree@@@8 DD FLAT:??_7type_info@@6B@ ; Palmtree::Math::Core::Internal::Exception `RTTI Type Descriptor'
	DD	00H
	DB	'.?AVException@Internal@Core@Math@Palmtree@@', 00H
data$r	ENDS
;	COMDAT __CT??_R0?AVInternalErrorException@Internal@Core@Math@Palmtree@@@8??0InternalErrorException@Internal@Core@Math@Palmtree@@QAE@ABV01234@@Z24
xdata$x	SEGMENT
__CT??_R0?AVInternalErrorException@Internal@Core@Math@Palmtree@@@8??0InternalErrorException@Internal@Core@Math@Palmtree@@QAE@ABV01234@@Z24 DD 00H
	DD	FLAT:??_R0?AVInternalErrorException@Internal@Core@Math@Palmtree@@@8
	DD	00H
	DD	0ffffffffH
	ORG $+4
	DD	018H
	DD	FLAT:??0InternalErrorException@Internal@Core@Math@Palmtree@@QAE@ABV01234@@Z
xdata$x	ENDS
;	COMDAT ??_R0?AVInternalErrorException@Internal@Core@Math@Palmtree@@@8
data$r	SEGMENT
??_R0?AVInternalErrorException@Internal@Core@Math@Palmtree@@@8 DD FLAT:??_7type_info@@6B@ ; Palmtree::Math::Core::Internal::InternalErrorException `RTTI Type Descriptor'
	DD	00H
	DB	'.?AVInternalErrorException@Internal@Core@Math@Palmtree@@'
	DB	00H
data$r	ENDS
;	COMDAT __CTA2?AVInternalErrorException@Internal@Core@Math@Palmtree@@
xdata$x	SEGMENT
__CTA2?AVInternalErrorException@Internal@Core@Math@Palmtree@@ DD 02H
	DD	FLAT:__CT??_R0?AVInternalErrorException@Internal@Core@Math@Palmtree@@@8??0InternalErrorException@Internal@Core@Math@Palmtree@@QAE@ABV01234@@Z24
	DD	FLAT:__CT??_R0?AVException@Internal@Core@Math@Palmtree@@@8??0Exception@Internal@Core@Math@Palmtree@@QAE@ABV01234@@Z24
xdata$x	ENDS
;	COMDAT __TI2?AVInternalErrorException@Internal@Core@Math@Palmtree@@
xdata$x	SEGMENT
__TI2?AVInternalErrorException@Internal@Core@Math@Palmtree@@ DD 00H
	DD	FLAT:??1InternalErrorException@Internal@Core@Math@Palmtree@@UAE@XZ
	DD	00H
	DD	FLAT:__CTA2?AVInternalErrorException@Internal@Core@Math@Palmtree@@
xdata$x	ENDS
;	COMDAT ??_7StringReader@Internal@Core@Math@Palmtree@@6B@
CONST	SEGMENT
??_7StringReader@Internal@Core@Math@Palmtree@@6B@ DD FLAT:??_R4StringReader@Internal@Core@Math@Palmtree@@6B@ ; Palmtree::Math::Core::Internal::StringReader::`vftable'
	DD	FLAT:?PeekChar@StringReader@Internal@Core@Math@Palmtree@@UAE_WXZ
	DD	FLAT:?Progress@StringReader@Internal@Core@Math@Palmtree@@UAEXXZ
	DD	FLAT:?StartsWith@StringReader@Internal@Core@Math@Palmtree@@UAEHPB_W@Z
	DD	FLAT:?SkipString@StringReader@Internal@Core@Math@Palmtree@@UAEXPB_W@Z
CONST	ENDS
;	COMDAT ??_7InternalErrorException@Internal@Core@Math@Palmtree@@6B@
CONST	SEGMENT
??_7InternalErrorException@Internal@Core@Math@Palmtree@@6B@ DD FLAT:??_R4InternalErrorException@Internal@Core@Math@Palmtree@@6B@ ; Palmtree::Math::Core::Internal::InternalErrorException::`vftable'
	DD	FLAT:??_EInternalErrorException@Internal@Core@Math@Palmtree@@UAEPAXI@Z
	DD	FLAT:?what@exception@std@@UBEPBDXZ
CONST	ENDS
;	COMDAT ??_7InsufficientBufferException@Internal@Core@Math@Palmtree@@6B@
CONST	SEGMENT
??_7InsufficientBufferException@Internal@Core@Math@Palmtree@@6B@ DD FLAT:??_R4InsufficientBufferException@Internal@Core@Math@Palmtree@@6B@ ; Palmtree::Math::Core::Internal::InsufficientBufferException::`vftable'
	DD	FLAT:??_EInsufficientBufferException@Internal@Core@Math@Palmtree@@UAEPAXI@Z
	DD	FLAT:?what@exception@std@@UBEPBDXZ
CONST	ENDS
;	COMDAT ??_7ArgumentNullException@Internal@Core@Math@Palmtree@@6B@
CONST	SEGMENT
??_7ArgumentNullException@Internal@Core@Math@Palmtree@@6B@ DD FLAT:??_R4ArgumentNullException@Internal@Core@Math@Palmtree@@6B@ ; Palmtree::Math::Core::Internal::ArgumentNullException::`vftable'
	DD	FLAT:??_EArgumentNullException@Internal@Core@Math@Palmtree@@UAEPAXI@Z
	DD	FLAT:?what@exception@std@@UBEPBDXZ
CONST	ENDS
;	COMDAT ??_7ArgumentException@Internal@Core@Math@Palmtree@@6B@
CONST	SEGMENT
??_7ArgumentException@Internal@Core@Math@Palmtree@@6B@ DD FLAT:??_R4ArgumentException@Internal@Core@Math@Palmtree@@6B@ ; Palmtree::Math::Core::Internal::ArgumentException::`vftable'
	DD	FLAT:??_EArgumentException@Internal@Core@Math@Palmtree@@UAEPAXI@Z
	DD	FLAT:?what@exception@std@@UBEPBDXZ
CONST	ENDS
;	COMDAT ??_7Exception@Internal@Core@Math@Palmtree@@6B@
CONST	SEGMENT
??_7Exception@Internal@Core@Math@Palmtree@@6B@ DD FLAT:??_R4Exception@Internal@Core@Math@Palmtree@@6B@ ; Palmtree::Math::Core::Internal::Exception::`vftable'
	DD	FLAT:??_EException@Internal@Core@Math@Palmtree@@UAEPAXI@Z
	DD	FLAT:?what@exception@std@@UBEPBDXZ
CONST	ENDS
;	COMDAT ??_C@_0BC@EOODALEL@Unknown?5exception@
CONST	SEGMENT
??_C@_0BC@EOODALEL@Unknown?5exception@ DB 'Unknown exception', 00H ; `string'
CONST	ENDS
;	COMDAT ??_7exception@std@@6B@
CONST	SEGMENT
??_7exception@std@@6B@ DD FLAT:??_R4exception@std@@6B@	; std::exception::`vftable'
	DD	FLAT:??_Eexception@std@@UAEPAXI@Z
	DD	FLAT:?what@exception@std@@UBEPBDXZ
CONST	ENDS
;	COMDAT xdata$x
xdata$x	SEGMENT
__ehfuncinfo$??1ParserState@Internal@Core@Math@Palmtree@@QAE@XZ DD 019930522H
	DD	00H
	DD	00H
	DD	2 DUP(00H)
	DD	2 DUP(00H)
	DD	00H
	DD	04H
xdata$x	ENDS
xdata$x	SEGMENT
__unwindtable$?PMC_TryParse_Imp@Internal@Core@Math@Palmtree@@YAHPB_WHPBU__tag_PMC_NUMBER_FORMAT_INFO@1234@PADPAPAU__tag_NUMBER_HEADER@1234@PAI@Z DD 0ffffffffH
	DD	FLAT:__unwindfunclet$?PMC_TryParse_Imp@Internal@Core@Math@Palmtree@@YAHPB_WHPBU__tag_PMC_NUMBER_FORMAT_INFO@1234@PADPAPAU__tag_NUMBER_HEADER@1234@PAI@Z$0
__unwindtable$?TryParseX@Internal@Core@Math@Palmtree@@YAHPB_WIPBU__tag_PMC_NUMBER_FORMAT_INFO@1234@PADPAPAU__tag_NUMBER_HEADER@1234@PAI@Z DD 0ffffffffH
	DD	FLAT:__unwindfunclet$?TryParseX@Internal@Core@Math@Palmtree@@YAHPB_WIPBU__tag_PMC_NUMBER_FORMAT_INFO@1234@PADPAPAU__tag_NUMBER_HEADER@1234@PAI@Z$0
__unwindtable$?ParseAsHexNumberString@Internal@Core@Math@Palmtree@@YAHPB_WIPBU__tag_PMC_NUMBER_FORMAT_INFO@1234@PA_WI@Z DD 0ffffffffH
	DD	FLAT:__unwindfunclet$?ParseAsHexNumberString@Internal@Core@Math@Palmtree@@YAHPB_WIPBU__tag_PMC_NUMBER_FORMAT_INFO@1234@PA_WI@Z$0
__unwindtable$?TryParseDN@Internal@Core@Math@Palmtree@@YAHPB_WIPBU__tag_PMC_NUMBER_FORMAT_INFO@1234@PADPAPAU__tag_NUMBER_HEADER@1234@PAI@Z DD 0ffffffffH
	DD	FLAT:__unwindfunclet$?TryParseDN@Internal@Core@Math@Palmtree@@YAHPB_WIPBU__tag_PMC_NUMBER_FORMAT_INFO@1234@PADPAPAU__tag_NUMBER_HEADER@1234@PAI@Z$0
__unwindtable$?ConvertCardinalNumber@Internal@Core@Math@Palmtree@@YAXPAII0@Z DD 0ffffffffH
	DD	FLAT:__unwindfunclet$?ConvertCardinalNumber@Internal@Core@Math@Palmtree@@YAXPAII0@Z$0
__unwindtable$?ParseAsDecimalNumberString@Internal@Core@Math@Palmtree@@YAHPB_WIPBU__tag_PMC_NUMBER_FORMAT_INFO@1234@PADPA_WI3I@Z DD 0ffffffffH
	DD	FLAT:__unwindfunclet$?ParseAsDecimalNumberString@Internal@Core@Math@Palmtree@@YAHPB_WIPBU__tag_PMC_NUMBER_FORMAT_INFO@1234@PADPA_WI3I@Z$0
__unwindtable$?PMC_TryParse@Internal@Core@Math@Palmtree@@YGHPB_WHPBU__tag_PMC_NUMBER_FORMAT_INFO@1234@PAPAU__tag_PMC_HANDLE_UINT@1234@PAI@Z DD 0ffffffffH
	DD	FLAT:__unwindfunclet$?PMC_TryParse@Internal@Core@Math@Palmtree@@YGHPB_WHPBU__tag_PMC_NUMBER_FORMAT_INFO@1234@PAPAU__tag_PMC_HANDLE_UINT@1234@PAI@Z$0
__ehfuncinfo$?PMC_TryParse_Imp@Internal@Core@Math@Palmtree@@YAHPB_WHPBU__tag_PMC_NUMBER_FORMAT_INFO@1234@PADPAPAU__tag_NUMBER_HEADER@1234@PAI@Z DD 019930522H
	DD	01H
	DD	FLAT:__unwindtable$?PMC_TryParse_Imp@Internal@Core@Math@Palmtree@@YAHPB_WHPBU__tag_PMC_NUMBER_FORMAT_INFO@1234@PADPAPAU__tag_NUMBER_HEADER@1234@PAI@Z
	DD	2 DUP(00H)
	DD	2 DUP(00H)
	DD	00H
	DD	00H
__ehfuncinfo$?TryParseX@Internal@Core@Math@Palmtree@@YAHPB_WIPBU__tag_PMC_NUMBER_FORMAT_INFO@1234@PADPAPAU__tag_NUMBER_HEADER@1234@PAI@Z DD 019930522H
	DD	01H
	DD	FLAT:__unwindtable$?TryParseX@Internal@Core@Math@Palmtree@@YAHPB_WIPBU__tag_PMC_NUMBER_FORMAT_INFO@1234@PADPAPAU__tag_NUMBER_HEADER@1234@PAI@Z
	DD	2 DUP(00H)
	DD	2 DUP(00H)
	DD	00H
	DD	00H
__ehfuncinfo$?ParseAsHexNumberString@Internal@Core@Math@Palmtree@@YAHPB_WIPBU__tag_PMC_NUMBER_FORMAT_INFO@1234@PA_WI@Z DD 019930522H
	DD	01H
	DD	FLAT:__unwindtable$?ParseAsHexNumberString@Internal@Core@Math@Palmtree@@YAHPB_WIPBU__tag_PMC_NUMBER_FORMAT_INFO@1234@PA_WI@Z
	DD	2 DUP(00H)
	DD	2 DUP(00H)
	DD	00H
	DD	00H
__ehfuncinfo$?TryParseDN@Internal@Core@Math@Palmtree@@YAHPB_WIPBU__tag_PMC_NUMBER_FORMAT_INFO@1234@PADPAPAU__tag_NUMBER_HEADER@1234@PAI@Z DD 019930522H
	DD	01H
	DD	FLAT:__unwindtable$?TryParseDN@Internal@Core@Math@Palmtree@@YAHPB_WIPBU__tag_PMC_NUMBER_FORMAT_INFO@1234@PADPAPAU__tag_NUMBER_HEADER@1234@PAI@Z
	DD	2 DUP(00H)
	DD	2 DUP(00H)
	DD	00H
	DD	00H
__ehfuncinfo$?ConvertCardinalNumber@Internal@Core@Math@Palmtree@@YAXPAII0@Z DD 019930522H
	DD	01H
	DD	FLAT:__unwindtable$?ConvertCardinalNumber@Internal@Core@Math@Palmtree@@YAXPAII0@Z
	DD	2 DUP(00H)
	DD	2 DUP(00H)
	DD	00H
	DD	00H
__ehfuncinfo$?ParseAsDecimalNumberString@Internal@Core@Math@Palmtree@@YAHPB_WIPBU__tag_PMC_NUMBER_FORMAT_INFO@1234@PADPA_WI3I@Z DD 019930522H
	DD	01H
	DD	FLAT:__unwindtable$?ParseAsDecimalNumberString@Internal@Core@Math@Palmtree@@YAHPB_WIPBU__tag_PMC_NUMBER_FORMAT_INFO@1234@PADPA_WI3I@Z
	DD	2 DUP(00H)
	DD	2 DUP(00H)
	DD	00H
	DD	00H
__ehfuncinfo$?PMC_TryParse@Internal@Core@Math@Palmtree@@YGHPB_WHPBU__tag_PMC_NUMBER_FORMAT_INFO@1234@PAPAU__tag_PMC_HANDLE_UINT@1234@PAI@Z DD 019930522H
	DD	01H
	DD	FLAT:__unwindtable$?PMC_TryParse@Internal@Core@Math@Palmtree@@YGHPB_WHPBU__tag_PMC_NUMBER_FORMAT_INFO@1234@PAPAU__tag_PMC_HANDLE_UINT@1234@PAI@Z
	DD	2 DUP(00H)
	DD	2 DUP(00H)
	DD	00H
	DD	00H
xdata$x	ENDS
;	COMDAT xdata$x
xdata$x	SEGMENT
__unwindtable$??1InternalErrorException@Internal@Core@Math@Palmtree@@UAE@XZ DD 0ffffffffH
	DD	FLAT:__unwindfunclet$??1InternalErrorException@Internal@Core@Math@Palmtree@@UAE@XZ$0
__ehfuncinfo$??1InternalErrorException@Internal@Core@Math@Palmtree@@UAE@XZ DD 019930522H
	DD	01H
	DD	FLAT:__unwindtable$??1InternalErrorException@Internal@Core@Math@Palmtree@@UAE@XZ
	DD	2 DUP(00H)
	DD	2 DUP(00H)
	DD	00H
	DD	04H
xdata$x	ENDS
;	COMDAT xdata$x
xdata$x	SEGMENT
__unwindtable$??0InternalErrorException@Internal@Core@Math@Palmtree@@QAE@ABV01234@@Z DD 0ffffffffH
	DD	FLAT:__unwindfunclet$??0InternalErrorException@Internal@Core@Math@Palmtree@@QAE@ABV01234@@Z$0
__ehfuncinfo$??0InternalErrorException@Internal@Core@Math@Palmtree@@QAE@ABV01234@@Z DD 019930522H
	DD	01H
	DD	FLAT:__unwindtable$??0InternalErrorException@Internal@Core@Math@Palmtree@@QAE@ABV01234@@Z
	DD	2 DUP(00H)
	DD	2 DUP(00H)
	DD	00H
	DD	04H
xdata$x	ENDS
;	COMDAT xdata$x
xdata$x	SEGMENT
__unwindtable$??0InternalErrorException@Internal@Core@Math@Palmtree@@QAE@PB_W0@Z DD 0ffffffffH
	DD	FLAT:__unwindfunclet$??0InternalErrorException@Internal@Core@Math@Palmtree@@QAE@PB_W0@Z$0
__ehfuncinfo$??0InternalErrorException@Internal@Core@Math@Palmtree@@QAE@PB_W0@Z DD 019930522H
	DD	01H
	DD	FLAT:__unwindtable$??0InternalErrorException@Internal@Core@Math@Palmtree@@QAE@PB_W0@Z
	DD	2 DUP(00H)
	DD	2 DUP(00H)
	DD	00H
	DD	04H
xdata$x	ENDS
;	COMDAT xdata$x
xdata$x	SEGMENT
__unwindtable$??1InsufficientBufferException@Internal@Core@Math@Palmtree@@UAE@XZ DD 0ffffffffH
	DD	FLAT:__unwindfunclet$??1InsufficientBufferException@Internal@Core@Math@Palmtree@@UAE@XZ$0
__ehfuncinfo$??1InsufficientBufferException@Internal@Core@Math@Palmtree@@UAE@XZ DD 019930522H
	DD	01H
	DD	FLAT:__unwindtable$??1InsufficientBufferException@Internal@Core@Math@Palmtree@@UAE@XZ
	DD	2 DUP(00H)
	DD	2 DUP(00H)
	DD	00H
	DD	04H
xdata$x	ENDS
;	COMDAT xdata$x
xdata$x	SEGMENT
__unwindtable$??0InsufficientBufferException@Internal@Core@Math@Palmtree@@QAE@ABV01234@@Z DD 0ffffffffH
	DD	FLAT:__unwindfunclet$??0InsufficientBufferException@Internal@Core@Math@Palmtree@@QAE@ABV01234@@Z$0
__ehfuncinfo$??0InsufficientBufferException@Internal@Core@Math@Palmtree@@QAE@ABV01234@@Z DD 019930522H
	DD	01H
	DD	FLAT:__unwindtable$??0InsufficientBufferException@Internal@Core@Math@Palmtree@@QAE@ABV01234@@Z
	DD	2 DUP(00H)
	DD	2 DUP(00H)
	DD	00H
	DD	04H
xdata$x	ENDS
;	COMDAT xdata$x
xdata$x	SEGMENT
__unwindtable$??0InsufficientBufferException@Internal@Core@Math@Palmtree@@QAE@PB_W@Z DD 0ffffffffH
	DD	FLAT:__unwindfunclet$??0InsufficientBufferException@Internal@Core@Math@Palmtree@@QAE@PB_W@Z$0
__ehfuncinfo$??0InsufficientBufferException@Internal@Core@Math@Palmtree@@QAE@PB_W@Z DD 019930522H
	DD	01H
	DD	FLAT:__unwindtable$??0InsufficientBufferException@Internal@Core@Math@Palmtree@@QAE@PB_W@Z
	DD	2 DUP(00H)
	DD	2 DUP(00H)
	DD	00H
	DD	00H
xdata$x	ENDS
;	COMDAT xdata$x
xdata$x	SEGMENT
__unwindtable$??1ArgumentNullException@Internal@Core@Math@Palmtree@@UAE@XZ DD 0ffffffffH
	DD	FLAT:__unwindfunclet$??1ArgumentNullException@Internal@Core@Math@Palmtree@@UAE@XZ$0
__ehfuncinfo$??1ArgumentNullException@Internal@Core@Math@Palmtree@@UAE@XZ DD 019930522H
	DD	01H
	DD	FLAT:__unwindtable$??1ArgumentNullException@Internal@Core@Math@Palmtree@@UAE@XZ
	DD	2 DUP(00H)
	DD	2 DUP(00H)
	DD	00H
	DD	04H
xdata$x	ENDS
;	COMDAT xdata$x
xdata$x	SEGMENT
__unwindtable$??0ArgumentNullException@Internal@Core@Math@Palmtree@@QAE@ABV01234@@Z DD 0ffffffffH
	DD	FLAT:__unwindfunclet$??0ArgumentNullException@Internal@Core@Math@Palmtree@@QAE@ABV01234@@Z$0
__ehfuncinfo$??0ArgumentNullException@Internal@Core@Math@Palmtree@@QAE@ABV01234@@Z DD 019930522H
	DD	01H
	DD	FLAT:__unwindtable$??0ArgumentNullException@Internal@Core@Math@Palmtree@@QAE@ABV01234@@Z
	DD	2 DUP(00H)
	DD	2 DUP(00H)
	DD	00H
	DD	04H
xdata$x	ENDS
;	COMDAT xdata$x
xdata$x	SEGMENT
__unwindtable$??0ArgumentNullException@Internal@Core@Math@Palmtree@@QAE@PB_W0@Z DD 0ffffffffH
	DD	FLAT:__unwindfunclet$??0ArgumentNullException@Internal@Core@Math@Palmtree@@QAE@PB_W0@Z$0
__ehfuncinfo$??0ArgumentNullException@Internal@Core@Math@Palmtree@@QAE@PB_W0@Z DD 019930522H
	DD	01H
	DD	FLAT:__unwindtable$??0ArgumentNullException@Internal@Core@Math@Palmtree@@QAE@PB_W0@Z
	DD	2 DUP(00H)
	DD	2 DUP(00H)
	DD	00H
	DD	04H
xdata$x	ENDS
;	COMDAT xdata$x
xdata$x	SEGMENT
__unwindtable$??1ArgumentException@Internal@Core@Math@Palmtree@@UAE@XZ DD 0ffffffffH
	DD	FLAT:__unwindfunclet$??1ArgumentException@Internal@Core@Math@Palmtree@@UAE@XZ$0
__ehfuncinfo$??1ArgumentException@Internal@Core@Math@Palmtree@@UAE@XZ DD 019930522H
	DD	01H
	DD	FLAT:__unwindtable$??1ArgumentException@Internal@Core@Math@Palmtree@@UAE@XZ
	DD	2 DUP(00H)
	DD	2 DUP(00H)
	DD	00H
	DD	04H
xdata$x	ENDS
;	COMDAT xdata$x
xdata$x	SEGMENT
__unwindtable$??0ArgumentException@Internal@Core@Math@Palmtree@@QAE@ABV01234@@Z DD 0ffffffffH
	DD	FLAT:__unwindfunclet$??0ArgumentException@Internal@Core@Math@Palmtree@@QAE@ABV01234@@Z$0
__ehfuncinfo$??0ArgumentException@Internal@Core@Math@Palmtree@@QAE@ABV01234@@Z DD 019930522H
	DD	01H
	DD	FLAT:__unwindtable$??0ArgumentException@Internal@Core@Math@Palmtree@@QAE@ABV01234@@Z
	DD	2 DUP(00H)
	DD	2 DUP(00H)
	DD	00H
	DD	04H
xdata$x	ENDS
;	COMDAT xdata$x
xdata$x	SEGMENT
__unwindtable$??0ArgumentException@Internal@Core@Math@Palmtree@@QAE@PB_W@Z DD 0ffffffffH
	DD	FLAT:__unwindfunclet$??0ArgumentException@Internal@Core@Math@Palmtree@@QAE@PB_W@Z$0
__ehfuncinfo$??0ArgumentException@Internal@Core@Math@Palmtree@@QAE@PB_W@Z DD 019930522H
	DD	01H
	DD	FLAT:__unwindtable$??0ArgumentException@Internal@Core@Math@Palmtree@@QAE@PB_W@Z
	DD	2 DUP(00H)
	DD	2 DUP(00H)
	DD	00H
	DD	04H
xdata$x	ENDS
;	COMDAT xdata$x
xdata$x	SEGMENT
__unwindtable$??1Exception@Internal@Core@Math@Palmtree@@UAE@XZ DD 0ffffffffH
	DD	FLAT:__unwindfunclet$??1Exception@Internal@Core@Math@Palmtree@@UAE@XZ$0
__ehfuncinfo$??1Exception@Internal@Core@Math@Palmtree@@UAE@XZ DD 019930522H
	DD	01H
	DD	FLAT:__unwindtable$??1Exception@Internal@Core@Math@Palmtree@@UAE@XZ
	DD	2 DUP(00H)
	DD	2 DUP(00H)
	DD	00H
	DD	04H
xdata$x	ENDS
;	COMDAT xdata$x
xdata$x	SEGMENT
__unwindtable$??0Exception@Internal@Core@Math@Palmtree@@QAE@ABV01234@@Z DD 0ffffffffH
	DD	FLAT:__unwindfunclet$??0Exception@Internal@Core@Math@Palmtree@@QAE@ABV01234@@Z$0
__ehfuncinfo$??0Exception@Internal@Core@Math@Palmtree@@QAE@ABV01234@@Z DD 019930522H
	DD	01H
	DD	FLAT:__unwindtable$??0Exception@Internal@Core@Math@Palmtree@@QAE@ABV01234@@Z
	DD	2 DUP(00H)
	DD	2 DUP(00H)
	DD	00H
	DD	04H
xdata$x	ENDS
;	COMDAT xdata$x
xdata$x	SEGMENT
__unwindtable$??0Exception@Internal@Core@Math@Palmtree@@IAE@HPB_W0@Z DD 0ffffffffH
	DD	FLAT:__unwindfunclet$??0Exception@Internal@Core@Math@Palmtree@@IAE@HPB_W0@Z$0
__ehfuncinfo$??0Exception@Internal@Core@Math@Palmtree@@IAE@HPB_W0@Z DD 019930522H
	DD	01H
	DD	FLAT:__unwindtable$??0Exception@Internal@Core@Math@Palmtree@@IAE@HPB_W0@Z
	DD	2 DUP(00H)
	DD	2 DUP(00H)
	DD	00H
	DD	04H
xdata$x	ENDS
;	COMDAT xdata$x
xdata$x	SEGMENT
__unwindtable$??0Exception@Internal@Core@Math@Palmtree@@IAE@HPB_W@Z DD 0ffffffffH
	DD	FLAT:__unwindfunclet$??0Exception@Internal@Core@Math@Palmtree@@IAE@HPB_W@Z$0
__ehfuncinfo$??0Exception@Internal@Core@Math@Palmtree@@IAE@HPB_W@Z DD 019930522H
	DD	01H
	DD	FLAT:__unwindtable$??0Exception@Internal@Core@Math@Palmtree@@IAE@HPB_W@Z
	DD	2 DUP(00H)
	DD	2 DUP(00H)
	DD	00H
	DD	04H
xdata$x	ENDS
;	COMDAT xdata$x
xdata$x	SEGMENT
__ehfuncinfo$??1exception@std@@UAE@XZ DD 019930522H
	DD	00H
	DD	00H
	DD	2 DUP(00H)
	DD	2 DUP(00H)
	DD	00H
	DD	04H
xdata$x	ENDS
;	COMDAT xdata$x
xdata$x	SEGMENT
__ehfuncinfo$??0exception@std@@QAE@XZ DD 019930522H
	DD	00H
	DD	00H
	DD	2 DUP(00H)
	DD	2 DUP(00H)
	DD	00H
	DD	04H
xdata$x	ENDS
; Function compile flags: /Odt
;	COMDAT __JustMyCode_Default
_TEXT	SEGMENT
__JustMyCode_Default PROC				; COMDAT
  00000	55		 push	 ebp
  00001	8b ec		 mov	 ebp, esp
  00003	5d		 pop	 ebp
  00004	c3		 ret	 0
__JustMyCode_Default ENDP
_TEXT	ENDS
; Function compile flags: /Odtp /RTCsu
; File z:\sources\lunor\repos\rougemeilland\palmtree.math.core.uint\palmtree.math.core.uint\pmc_parse.cpp
_TEXT	SEGMENT
$T2 = -84						; size = 4
$T3 = -80						; size = 4
$T4 = -76						; size = 4
$T5 = -72						; size = 24
_err$6 = -48						; size = 4
_err$7 = -44						; size = 4
_mask$8 = -40						; size = 4
_root$ = -32						; size = 16
__$EHRec$ = -12						; size = 12
_source$ = 8						; size = 4
_number_styles$ = 12					; size = 4
_format_option$ = 16					; size = 4
_o_sign$ = 20						; size = 4
_o_abs$ = 24						; size = 4
_result$ = 28						; size = 4
?PMC_TryParse_Imp@Internal@Core@Math@Palmtree@@YAHPB_WHPBU__tag_PMC_NUMBER_FORMAT_INFO@1234@PADPAPAU__tag_NUMBER_HEADER@1234@PAI@Z PROC ; Palmtree::Math::Core::Internal::PMC_TryParse_Imp

; 1271 :     {

  00000	55		 push	 ebp
  00001	8b ec		 mov	 ebp, esp
  00003	6a ff		 push	 -1
  00005	68 00 00 00 00	 push	 __ehhandler$?PMC_TryParse_Imp@Internal@Core@Math@Palmtree@@YAHPB_WHPBU__tag_PMC_NUMBER_FORMAT_INFO@1234@PADPAPAU__tag_NUMBER_HEADER@1234@PAI@Z
  0000a	64 a1 00 00 00
	00		 mov	 eax, DWORD PTR fs:0
  00010	50		 push	 eax
  00011	83 ec 48	 sub	 esp, 72			; 00000048H
  00014	57		 push	 edi
  00015	8d 7d ac	 lea	 edi, DWORD PTR [ebp-84]
  00018	b9 12 00 00 00	 mov	 ecx, 18			; 00000012H
  0001d	b8 cc cc cc cc	 mov	 eax, -858993460		; ccccccccH
  00022	f3 ab		 rep stosd
  00024	a1 00 00 00 00	 mov	 eax, DWORD PTR ___security_cookie
  00029	33 c5		 xor	 eax, ebp
  0002b	50		 push	 eax
  0002c	8d 45 f4	 lea	 eax, DWORD PTR __$EHRec$[ebp]
  0002f	64 a3 00 00 00
	00		 mov	 DWORD PTR fs:0, eax
  00035	b9 00 00 00 00	 mov	 ecx, OFFSET __F159A697_pmc_parse@cpp
  0003a	e8 00 00 00 00	 call	 @__CheckForDebuggerJustMyCode@4

; 1272 :         ResourceHolderUINT root;

  0003f	8d 4d e0	 lea	 ecx, DWORD PTR _root$[ebp]
  00042	e8 00 00 00 00	 call	 ??0ResourceHolderUINT@Internal@Core@Math@Palmtree@@QAE@XZ ; Palmtree::Math::Core::Internal::ResourceHolderUINT::ResourceHolderUINT
  00047	c7 45 fc 00 00
	00 00		 mov	 DWORD PTR __$EHRec$[ebp+8], 0

; 1273 :         if (number_styles & PMC_NUMBER_STYLE_ALLOW_HEX_SPECIFIER)

  0004e	8b 45 0c	 mov	 eax, DWORD PTR _number_styles$[ebp]
  00051	25 00 02 00 00	 and	 eax, 512		; 00000200H
  00056	0f 84 8a 00 00
	00		 je	 $LN2@PMC_TryPar

; 1274 :         {
; 1275 :             // 16
; 1276 : 
; 1277 :             // 
; 1278 :             _UINT32_T mask = PMC_NUMBER_STYLE_ALLOW_HEX_SPECIFIER | PMC_NUMBER_STYLE_ALLOW_LEADING_WHITE | PMC_NUMBER_STYLE_ALLOW_TRAILING_WHITE | PMC_NUMBER_STYLE_ALLOW_EXCEPTION_THROWING | PMC_NUMBER_STYLE_ALLOW_SIGNED_INTEGER;

  0005c	c7 45 d8 03 02
	00 03		 mov	 DWORD PTR _mask$8[ebp], 50332163 ; 03000203H

; 1279 : 
; 1280 :             // 
; 1281 :             if (number_styles & ~mask)

  00063	8b 4d d8	 mov	 ecx, DWORD PTR _mask$8[ebp]
  00066	f7 d1		 not	 ecx
  00068	23 4d 0c	 and	 ecx, DWORD PTR _number_styles$[ebp]
  0006b	74 1b		 je	 SHORT $LN4@PMC_TryPar

; 1282 :                 throw ArgumentException(L"number_styles");

  0006d	68 00 00 00 00	 push	 OFFSET $SG118639
  00072	8d 4d b8	 lea	 ecx, DWORD PTR $T5[ebp]
  00075	e8 00 00 00 00	 call	 ??0ArgumentException@Internal@Core@Math@Palmtree@@QAE@PB_W@Z ; Palmtree::Math::Core::Internal::ArgumentException::ArgumentException
  0007a	68 00 00 00 00	 push	 OFFSET __TI2?AVArgumentException@Internal@Core@Math@Palmtree@@
  0007f	8d 55 b8	 lea	 edx, DWORD PTR $T5[ebp]
  00082	52		 push	 edx
  00083	e8 00 00 00 00	 call	 __CxxThrowException@8
$LN4@PMC_TryPar:

; 1283 : 
; 1284 :             PMC_STATUS_CODE err = TryParseX(source, number_styles, format_option, o_sign, o_abs, result);

  00088	8b 45 1c	 mov	 eax, DWORD PTR _result$[ebp]
  0008b	50		 push	 eax
  0008c	8b 4d 18	 mov	 ecx, DWORD PTR _o_abs$[ebp]
  0008f	51		 push	 ecx
  00090	8b 55 14	 mov	 edx, DWORD PTR _o_sign$[ebp]
  00093	52		 push	 edx
  00094	8b 45 10	 mov	 eax, DWORD PTR _format_option$[ebp]
  00097	50		 push	 eax
  00098	8b 4d 0c	 mov	 ecx, DWORD PTR _number_styles$[ebp]
  0009b	51		 push	 ecx
  0009c	8b 55 08	 mov	 edx, DWORD PTR _source$[ebp]
  0009f	52		 push	 edx
  000a0	e8 00 00 00 00	 call	 ?TryParseX@Internal@Core@Math@Palmtree@@YAHPB_WIPBU__tag_PMC_NUMBER_FORMAT_INFO@1234@PADPAPAU__tag_NUMBER_HEADER@1234@PAI@Z ; Palmtree::Math::Core::Internal::TryParseX
  000a5	83 c4 18	 add	 esp, 24			; 00000018H
  000a8	89 45 d4	 mov	 DWORD PTR _err$7[ebp], eax

; 1285 :             if (err != PMC_STATUS_OK || !*result)

  000ab	83 7d d4 00	 cmp	 DWORD PTR _err$7[ebp], 0
  000af	75 08		 jne	 SHORT $LN6@PMC_TryPar
  000b1	8b 45 1c	 mov	 eax, DWORD PTR _result$[ebp]
  000b4	83 38 00	 cmp	 DWORD PTR [eax], 0
  000b7	75 1d		 jne	 SHORT $LN5@PMC_TryPar
$LN6@PMC_TryPar:

; 1286 :                 return (err);

  000b9	8b 4d d4	 mov	 ecx, DWORD PTR _err$7[ebp]
  000bc	89 4d b4	 mov	 DWORD PTR $T4[ebp], ecx
  000bf	c7 45 fc ff ff
	ff ff		 mov	 DWORD PTR __$EHRec$[ebp+8], -1
  000c6	8d 4d e0	 lea	 ecx, DWORD PTR _root$[ebp]
  000c9	e8 00 00 00 00	 call	 ??1ResourceHolderUINT@Internal@Core@Math@Palmtree@@UAE@XZ ; Palmtree::Math::Core::Internal::ResourceHolderUINT::~ResourceHolderUINT
  000ce	8b 45 b4	 mov	 eax, DWORD PTR $T4[ebp]
  000d1	e9 a7 00 00 00	 jmp	 $LN9@PMC_TryPar
$LN5@PMC_TryPar:

; 1287 :             root.HookNumber(*o_abs);

  000d6	8b 55 18	 mov	 edx, DWORD PTR _o_abs$[ebp]
  000d9	8b 02		 mov	 eax, DWORD PTR [edx]
  000db	50		 push	 eax
  000dc	8d 4d e0	 lea	 ecx, DWORD PTR _root$[ebp]
  000df	e8 00 00 00 00	 call	 ?HookNumber@ResourceHolderUINT@Internal@Core@Math@Palmtree@@QAEXPAU__tag_NUMBER_HEADER@2345@@Z ; Palmtree::Math::Core::Internal::ResourceHolderUINT::HookNumber

; 1288 :         }
; 1289 :         else

  000e4	eb 59		 jmp	 SHORT $LN3@PMC_TryPar
$LN2@PMC_TryPar:

; 1290 :         {
; 1291 :             // 10
; 1292 :             PMC_STATUS_CODE err = TryParseDN(source, number_styles, format_option, o_sign, o_abs, result);

  000e6	8b 4d 1c	 mov	 ecx, DWORD PTR _result$[ebp]
  000e9	51		 push	 ecx
  000ea	8b 55 18	 mov	 edx, DWORD PTR _o_abs$[ebp]
  000ed	52		 push	 edx
  000ee	8b 45 14	 mov	 eax, DWORD PTR _o_sign$[ebp]
  000f1	50		 push	 eax
  000f2	8b 4d 10	 mov	 ecx, DWORD PTR _format_option$[ebp]
  000f5	51		 push	 ecx
  000f6	8b 55 0c	 mov	 edx, DWORD PTR _number_styles$[ebp]
  000f9	52		 push	 edx
  000fa	8b 45 08	 mov	 eax, DWORD PTR _source$[ebp]
  000fd	50		 push	 eax
  000fe	e8 00 00 00 00	 call	 ?TryParseDN@Internal@Core@Math@Palmtree@@YAHPB_WIPBU__tag_PMC_NUMBER_FORMAT_INFO@1234@PADPAPAU__tag_NUMBER_HEADER@1234@PAI@Z ; Palmtree::Math::Core::Internal::TryParseDN
  00103	83 c4 18	 add	 esp, 24			; 00000018H
  00106	89 45 d0	 mov	 DWORD PTR _err$6[ebp], eax

; 1293 :             if (err != PMC_STATUS_OK || !*result)

  00109	83 7d d0 00	 cmp	 DWORD PTR _err$6[ebp], 0
  0010d	75 08		 jne	 SHORT $LN8@PMC_TryPar
  0010f	8b 4d 1c	 mov	 ecx, DWORD PTR _result$[ebp]
  00112	83 39 00	 cmp	 DWORD PTR [ecx], 0
  00115	75 1a		 jne	 SHORT $LN7@PMC_TryPar
$LN8@PMC_TryPar:

; 1294 :                 return (err);

  00117	8b 55 d0	 mov	 edx, DWORD PTR _err$6[ebp]
  0011a	89 55 b0	 mov	 DWORD PTR $T3[ebp], edx
  0011d	c7 45 fc ff ff
	ff ff		 mov	 DWORD PTR __$EHRec$[ebp+8], -1
  00124	8d 4d e0	 lea	 ecx, DWORD PTR _root$[ebp]
  00127	e8 00 00 00 00	 call	 ??1ResourceHolderUINT@Internal@Core@Math@Palmtree@@UAE@XZ ; Palmtree::Math::Core::Internal::ResourceHolderUINT::~ResourceHolderUINT
  0012c	8b 45 b0	 mov	 eax, DWORD PTR $T3[ebp]
  0012f	eb 4c		 jmp	 SHORT $LN9@PMC_TryPar
$LN7@PMC_TryPar:

; 1295 :             root.HookNumber(*o_abs);

  00131	8b 45 18	 mov	 eax, DWORD PTR _o_abs$[ebp]
  00134	8b 08		 mov	 ecx, DWORD PTR [eax]
  00136	51		 push	 ecx
  00137	8d 4d e0	 lea	 ecx, DWORD PTR _root$[ebp]
  0013a	e8 00 00 00 00	 call	 ?HookNumber@ResourceHolderUINT@Internal@Core@Math@Palmtree@@QAEXPAU__tag_NUMBER_HEADER@2345@@Z ; Palmtree::Math::Core::Internal::ResourceHolderUINT::HookNumber
$LN3@PMC_TryPar:

; 1296 :         }
; 1297 : #ifdef _DEBUG
; 1298 :         CheckNumber(*o_abs);

  0013f	8b 55 18	 mov	 edx, DWORD PTR _o_abs$[ebp]
  00142	8b 02		 mov	 eax, DWORD PTR [edx]
  00144	50		 push	 eax
  00145	e8 00 00 00 00	 call	 ?CheckNumber@Internal@Core@Math@Palmtree@@YAXPAU__tag_NUMBER_HEADER@1234@@Z ; Palmtree::Math::Core::Internal::CheckNumber
  0014a	83 c4 04	 add	 esp, 4

; 1299 : #endif
; 1300 :         root.UnlinkNumber(*o_abs);

  0014d	8b 4d 18	 mov	 ecx, DWORD PTR _o_abs$[ebp]
  00150	8b 11		 mov	 edx, DWORD PTR [ecx]
  00152	52		 push	 edx
  00153	8d 4d e0	 lea	 ecx, DWORD PTR _root$[ebp]
  00156	e8 00 00 00 00	 call	 ?UnlinkNumber@ResourceHolderUINT@Internal@Core@Math@Palmtree@@QAEXPAU__tag_NUMBER_HEADER@2345@@Z ; Palmtree::Math::Core::Internal::ResourceHolderUINT::UnlinkNumber

; 1301 :         *result = 1;

  0015b	8b 45 1c	 mov	 eax, DWORD PTR _result$[ebp]
  0015e	c7 00 01 00 00
	00		 mov	 DWORD PTR [eax], 1

; 1302 :         return (PMC_STATUS_OK);

  00164	c7 45 ac 00 00
	00 00		 mov	 DWORD PTR $T2[ebp], 0
  0016b	c7 45 fc ff ff
	ff ff		 mov	 DWORD PTR __$EHRec$[ebp+8], -1
  00172	8d 4d e0	 lea	 ecx, DWORD PTR _root$[ebp]
  00175	e8 00 00 00 00	 call	 ??1ResourceHolderUINT@Internal@Core@Math@Palmtree@@UAE@XZ ; Palmtree::Math::Core::Internal::ResourceHolderUINT::~ResourceHolderUINT
  0017a	8b 45 ac	 mov	 eax, DWORD PTR $T2[ebp]
$LN9@PMC_TryPar:

; 1303 :     }

  0017d	52		 push	 edx
  0017e	8b cd		 mov	 ecx, ebp
  00180	50		 push	 eax
  00181	8d 15 00 00 00
	00		 lea	 edx, DWORD PTR $LN14@PMC_TryPar
  00187	e8 00 00 00 00	 call	 @_RTC_CheckStackVars@8
  0018c	58		 pop	 eax
  0018d	5a		 pop	 edx
  0018e	8b 4d f4	 mov	 ecx, DWORD PTR __$EHRec$[ebp]
  00191	64 89 0d 00 00
	00 00		 mov	 DWORD PTR fs:0, ecx
  00198	59		 pop	 ecx
  00199	5f		 pop	 edi
  0019a	83 c4 54	 add	 esp, 84			; 00000054H
  0019d	3b ec		 cmp	 ebp, esp
  0019f	e8 00 00 00 00	 call	 __RTC_CheckEsp
  001a4	8b e5		 mov	 esp, ebp
  001a6	5d		 pop	 ebp
  001a7	c3		 ret	 0
$LN14@PMC_TryPar:
  001a8	01 00 00 00	 DD	 1
  001ac	00 00 00 00	 DD	 $LN13@PMC_TryPar
$LN13@PMC_TryPar:
  001b0	e0 ff ff ff	 DD	 -32			; ffffffe0H
  001b4	10 00 00 00	 DD	 16			; 00000010H
  001b8	00 00 00 00	 DD	 $LN11@PMC_TryPar
$LN11@PMC_TryPar:
  001bc	72		 DB	 114			; 00000072H
  001bd	6f		 DB	 111			; 0000006fH
  001be	6f		 DB	 111			; 0000006fH
  001bf	74		 DB	 116			; 00000074H
  001c0	00		 DB	 0
_TEXT	ENDS
text$x	SEGMENT
__unwindfunclet$?PMC_TryParse_Imp@Internal@Core@Math@Palmtree@@YAHPB_WHPBU__tag_PMC_NUMBER_FORMAT_INFO@1234@PADPAPAU__tag_NUMBER_HEADER@1234@PAI@Z$0:
  00000	8d 4d e0	 lea	 ecx, DWORD PTR _root$[ebp]
  00003	e9 00 00 00 00	 jmp	 ??1ResourceHolderUINT@Internal@Core@Math@Palmtree@@UAE@XZ ; Palmtree::Math::Core::Internal::ResourceHolderUINT::~ResourceHolderUINT
__ehhandler$?PMC_TryParse_Imp@Internal@Core@Math@Palmtree@@YAHPB_WHPBU__tag_PMC_NUMBER_FORMAT_INFO@1234@PADPAPAU__tag_NUMBER_HEADER@1234@PAI@Z:
  00008	8b 54 24 08	 mov	 edx, DWORD PTR [esp+8]
  0000c	8d 42 0c	 lea	 eax, DWORD PTR [edx+12]
  0000f	8b 4a b0	 mov	 ecx, DWORD PTR [edx-80]
  00012	33 c8		 xor	 ecx, eax
  00014	e8 00 00 00 00	 call	 @__security_check_cookie@4
  00019	b8 00 00 00 00	 mov	 eax, OFFSET __ehfuncinfo$?PMC_TryParse_Imp@Internal@Core@Math@Palmtree@@YAHPB_WHPBU__tag_PMC_NUMBER_FORMAT_INFO@1234@PADPAPAU__tag_NUMBER_HEADER@1234@PAI@Z
  0001e	e9 00 00 00 00	 jmp	 ___CxxFrameHandler3
text$x	ENDS
?PMC_TryParse_Imp@Internal@Core@Math@Palmtree@@YAHPB_WHPBU__tag_PMC_NUMBER_FORMAT_INFO@1234@PADPAPAU__tag_NUMBER_HEADER@1234@PAI@Z ENDP ; Palmtree::Math::Core::Internal::PMC_TryParse_Imp
; Function compile flags: /Odtp /RTCsu
; File z:\sources\lunor\repos\rougemeilland\palmtree.math.core.uint\palmtree.math.core.uint\pmc_parse.cpp
_TEXT	SEGMENT
$T2 = -88						; size = 4
$T3 = -84						; size = 4
$T4 = -80						; size = 4
_count$5 = -76						; size = 4
_p$6 = -72						; size = 4
_carry$7 = -65						; size = 1
_padding$8 = -64					; size = 4
_lzcnt$9 = -60						; size = 4
_o_bit_count$ = -56					; size = 4
_result_parsing$ = -52					; size = 4
_int_part_buf$ = -48					; size = 4
_int_part_buf_size$ = -44				; size = 4
_source_len$ = -40					; size = 4
_root$ = -32						; size = 16
__$EHRec$ = -12						; size = 12
_source$ = 8						; size = 4
_number_styles$ = 12					; size = 4
_format_option$ = 16					; size = 4
_o_sign$ = 20						; size = 4
_o_abs$ = 24						; size = 4
_result$ = 28						; size = 4
?TryParseX@Internal@Core@Math@Palmtree@@YAHPB_WIPBU__tag_PMC_NUMBER_FORMAT_INFO@1234@PADPAPAU__tag_NUMBER_HEADER@1234@PAI@Z PROC ; Palmtree::Math::Core::Internal::TryParseX

; 1190 :     {

  00000	55		 push	 ebp
  00001	8b ec		 mov	 ebp, esp
  00003	6a ff		 push	 -1
  00005	68 00 00 00 00	 push	 __ehhandler$?TryParseX@Internal@Core@Math@Palmtree@@YAHPB_WIPBU__tag_PMC_NUMBER_FORMAT_INFO@1234@PADPAPAU__tag_NUMBER_HEADER@1234@PAI@Z
  0000a	64 a1 00 00 00
	00		 mov	 eax, DWORD PTR fs:0
  00010	50		 push	 eax
  00011	83 ec 4c	 sub	 esp, 76			; 0000004cH
  00014	56		 push	 esi
  00015	57		 push	 edi
  00016	8d 7d a8	 lea	 edi, DWORD PTR [ebp-88]
  00019	b9 13 00 00 00	 mov	 ecx, 19			; 00000013H
  0001e	b8 cc cc cc cc	 mov	 eax, -858993460		; ccccccccH
  00023	f3 ab		 rep stosd
  00025	a1 00 00 00 00	 mov	 eax, DWORD PTR ___security_cookie
  0002a	33 c5		 xor	 eax, ebp
  0002c	50		 push	 eax
  0002d	8d 45 f4	 lea	 eax, DWORD PTR __$EHRec$[ebp]
  00030	64 a3 00 00 00
	00		 mov	 DWORD PTR fs:0, eax
  00036	b9 00 00 00 00	 mov	 ecx, OFFSET __F159A697_pmc_parse@cpp
  0003b	e8 00 00 00 00	 call	 @__CheckForDebuggerJustMyCode@4

; 1191 :         ResourceHolderUINT root;

  00040	8d 4d e0	 lea	 ecx, DWORD PTR _root$[ebp]
  00043	e8 00 00 00 00	 call	 ??0ResourceHolderUINT@Internal@Core@Math@Palmtree@@QAE@XZ ; Palmtree::Math::Core::Internal::ResourceHolderUINT::ResourceHolderUINT
  00048	c7 45 fc 00 00
	00 00		 mov	 DWORD PTR __$EHRec$[ebp+8], 0

; 1192 :         __UNIT_TYPE source_len = lstrlenW(source);

  0004f	8b f4		 mov	 esi, esp
  00051	8b 45 08	 mov	 eax, DWORD PTR _source$[ebp]
  00054	50		 push	 eax
  00055	ff 15 00 00 00
	00		 call	 DWORD PTR __imp__lstrlenW@4
  0005b	3b f4		 cmp	 esi, esp
  0005d	e8 00 00 00 00	 call	 __RTC_CheckEsp
  00062	89 45 d8	 mov	 DWORD PTR _source_len$[ebp], eax

; 1193 :         size_t int_part_buf_size = source_len + 1;

  00065	8b 4d d8	 mov	 ecx, DWORD PTR _source_len$[ebp]
  00068	83 c1 01	 add	 ecx, 1
  0006b	89 4d d4	 mov	 DWORD PTR _int_part_buf_size$[ebp], ecx

; 1194 :         wchar_t* int_part_buf = root.AllocateString(source_len + 1);

  0006e	8b 55 d8	 mov	 edx, DWORD PTR _source_len$[ebp]
  00071	83 c2 01	 add	 edx, 1
  00074	52		 push	 edx
  00075	8d 4d e0	 lea	 ecx, DWORD PTR _root$[ebp]
  00078	e8 00 00 00 00	 call	 ?AllocateString@ResourceHolderUINT@Internal@Core@Math@Palmtree@@QAEPA_WI@Z ; Palmtree::Math::Core::Internal::ResourceHolderUINT::AllocateString
  0007d	89 45 d0	 mov	 DWORD PTR _int_part_buf$[ebp], eax

; 1195 :         int result_parsing = ParseAsHexNumberString(source, number_styles, format_option, int_part_buf, int_part_buf_size);

  00080	8b 45 d4	 mov	 eax, DWORD PTR _int_part_buf_size$[ebp]
  00083	50		 push	 eax
  00084	8b 4d d0	 mov	 ecx, DWORD PTR _int_part_buf$[ebp]
  00087	51		 push	 ecx
  00088	8b 55 10	 mov	 edx, DWORD PTR _format_option$[ebp]
  0008b	52		 push	 edx
  0008c	8b 45 0c	 mov	 eax, DWORD PTR _number_styles$[ebp]
  0008f	50		 push	 eax
  00090	8b 4d 08	 mov	 ecx, DWORD PTR _source$[ebp]
  00093	51		 push	 ecx
  00094	e8 00 00 00 00	 call	 ?ParseAsHexNumberString@Internal@Core@Math@Palmtree@@YAHPB_WIPBU__tag_PMC_NUMBER_FORMAT_INFO@1234@PA_WI@Z ; Palmtree::Math::Core::Internal::ParseAsHexNumberString
  00099	83 c4 14	 add	 esp, 20			; 00000014H
  0009c	89 45 cc	 mov	 DWORD PTR _result_parsing$[ebp], eax

; 1196 :         root.CheckString(int_part_buf);

  0009f	8b 55 d0	 mov	 edx, DWORD PTR _int_part_buf$[ebp]
  000a2	52		 push	 edx
  000a3	8d 4d e0	 lea	 ecx, DWORD PTR _root$[ebp]
  000a6	e8 00 00 00 00	 call	 ?CheckString@ResourceHolderUINT@Internal@Core@Math@Palmtree@@QAEXPA_W@Z ; Palmtree::Math::Core::Internal::ResourceHolderUINT::CheckString

; 1197 :         if (!result_parsing || int_part_buf[0] == L'\0')

  000ab	83 7d cc 00	 cmp	 DWORD PTR _result_parsing$[ebp], 0
  000af	74 13		 je	 SHORT $LN5@TryParseX
  000b1	b8 02 00 00 00	 mov	 eax, 2
  000b6	6b c8 00	 imul	 ecx, eax, 0
  000b9	8b 55 d0	 mov	 edx, DWORD PTR _int_part_buf$[ebp]
  000bc	0f b7 04 0a	 movzx	 eax, WORD PTR [edx+ecx]
  000c0	85 c0		 test	 eax, eax
  000c2	75 50		 jne	 SHORT $LN4@TryParseX
$LN5@TryParseX:

; 1198 :         {
; 1199 :             *result = 0;

  000c4	8b 4d 1c	 mov	 ecx, DWORD PTR _result$[ebp]
  000c7	c7 01 00 00 00
	00		 mov	 DWORD PTR [ecx], 0

; 1200 :             if (number_styles & PMC_NUMBER_STYLE_ALLOW_EXCEPTION_THROWING)

  000cd	8b 55 0c	 mov	 edx, DWORD PTR _number_styles$[ebp]
  000d0	81 e2 00 00 00
	02		 and	 edx, 33554432		; 02000000H
  000d6	74 1e		 je	 SHORT $LN6@TryParseX

; 1201 :                 return (PMC_STATUS_FORMAT_ERROR);

  000d8	c7 45 b0 f9 ff
	ff ff		 mov	 DWORD PTR $T4[ebp], -7	; fffffff9H
  000df	c7 45 fc ff ff
	ff ff		 mov	 DWORD PTR __$EHRec$[ebp+8], -1
  000e6	8d 4d e0	 lea	 ecx, DWORD PTR _root$[ebp]
  000e9	e8 00 00 00 00	 call	 ??1ResourceHolderUINT@Internal@Core@Math@Palmtree@@UAE@XZ ; Palmtree::Math::Core::Internal::ResourceHolderUINT::~ResourceHolderUINT
  000ee	8b 45 b0	 mov	 eax, DWORD PTR $T4[ebp]
  000f1	e9 ca 01 00 00	 jmp	 $LN1@TryParseX
$LN6@TryParseX:

; 1202 :             return (PMC_STATUS_OK);

  000f6	c7 45 ac 00 00
	00 00		 mov	 DWORD PTR $T3[ebp], 0
  000fd	c7 45 fc ff ff
	ff ff		 mov	 DWORD PTR __$EHRec$[ebp+8], -1
  00104	8d 4d e0	 lea	 ecx, DWORD PTR _root$[ebp]
  00107	e8 00 00 00 00	 call	 ??1ResourceHolderUINT@Internal@Core@Math@Palmtree@@UAE@XZ ; Palmtree::Math::Core::Internal::ResourceHolderUINT::~ResourceHolderUINT
  0010c	8b 45 ac	 mov	 eax, DWORD PTR $T3[ebp]
  0010f	e9 ac 01 00 00	 jmp	 $LN1@TryParseX
$LN4@TryParseX:

; 1203 :         }
; 1204 : 
; 1205 :         //  1  8F 
; 1206 :         if (ParseHexDigit(int_part_buf[0]) >= 8)

  00114	b8 02 00 00 00	 mov	 eax, 2
  00119	6b c8 00	 imul	 ecx, eax, 0
  0011c	8b 55 d0	 mov	 edx, DWORD PTR _int_part_buf$[ebp]
  0011f	0f b7 04 0a	 movzx	 eax, WORD PTR [edx+ecx]
  00123	50		 push	 eax
  00124	e8 00 00 00 00	 call	 ?ParseHexDigit@Internal@Core@Math@Palmtree@@YAH_W@Z ; Palmtree::Math::Core::Internal::ParseHexDigit
  00129	83 c4 04	 add	 esp, 4
  0012c	83 f8 08	 cmp	 eax, 8
  0012f	7c 1b		 jl	 SHORT $LN7@TryParseX

; 1207 :         {
; 1208 :             //  1  8F 
; 1209 :             if (!(number_styles & PMC_NUMBER_STYLE_ALLOW_SIGNED_INTEGER))

  00131	8b 4d 0c	 mov	 ecx, DWORD PTR _number_styles$[ebp]
  00134	81 e1 00 00 00
	01		 and	 ecx, 16777216		; 01000000H
  0013a	75 08		 jne	 SHORT $LN9@TryParseX

; 1210 :             {
; 1211 :                 // '8''F'
; 1212 : 
; 1213 :                 // 
; 1214 :                 *o_sign = 1;

  0013c	8b 55 14	 mov	 edx, DWORD PTR _o_sign$[ebp]
  0013f	c6 02 01	 mov	 BYTE PTR [edx], 1

; 1215 :             }
; 1216 :             else

  00142	eb 06		 jmp	 SHORT $LN10@TryParseX
$LN9@TryParseX:

; 1217 :             {
; 1218 :                 // '8''F'
; 1219 : 
; 1220 :                 // 
; 1221 :                 *o_sign = -1;

  00144	8b 45 14	 mov	 eax, DWORD PTR _o_sign$[ebp]
  00147	c6 00 ff	 mov	 BYTE PTR [eax], -1
$LN10@TryParseX:

; 1222 :             }
; 1223 :         }
; 1224 :         else

  0014a	eb 06		 jmp	 SHORT $LN8@TryParseX
$LN7@TryParseX:

; 1225 :         {
; 1226 :             //  1  07 
; 1227 :             *o_sign = 1;

  0014c	8b 4d 14	 mov	 ecx, DWORD PTR _o_sign$[ebp]
  0014f	c6 01 01	 mov	 BYTE PTR [ecx], 1
$LN8@TryParseX:

; 1228 :         }
; 1229 : 
; 1230 :         __UNIT_TYPE o_bit_count = lstrlenW(int_part_buf) * 4;

  00152	8b f4		 mov	 esi, esp
  00154	8b 55 d0	 mov	 edx, DWORD PTR _int_part_buf$[ebp]
  00157	52		 push	 edx
  00158	ff 15 00 00 00
	00		 call	 DWORD PTR __imp__lstrlenW@4
  0015e	3b f4		 cmp	 esi, esp
  00160	e8 00 00 00 00	 call	 __RTC_CheckEsp
  00165	c1 e0 02	 shl	 eax, 2
  00168	89 45 c8	 mov	 DWORD PTR _o_bit_count$[ebp], eax

; 1231 :         *o_abs = root.AllocateNumber(o_bit_count);

  0016b	8b 45 c8	 mov	 eax, DWORD PTR _o_bit_count$[ebp]
  0016e	50		 push	 eax
  0016f	8d 4d e0	 lea	 ecx, DWORD PTR _root$[ebp]
  00172	e8 00 00 00 00	 call	 ?AllocateNumber@ResourceHolderUINT@Internal@Core@Math@Palmtree@@QAEPAU__tag_NUMBER_HEADER@2345@I@Z ; Palmtree::Math::Core::Internal::ResourceHolderUINT::AllocateNumber
  00177	8b 4d 18	 mov	 ecx, DWORD PTR _o_abs$[ebp]
  0017a	89 01		 mov	 DWORD PTR [ecx], eax

; 1232 :         BuildBinaryFromHexString(int_part_buf, (*o_abs)->BLOCK);

  0017c	8b 55 18	 mov	 edx, DWORD PTR _o_abs$[ebp]
  0017f	8b 02		 mov	 eax, DWORD PTR [edx]
  00181	8b 48 24	 mov	 ecx, DWORD PTR [eax+36]
  00184	51		 push	 ecx
  00185	8b 55 d0	 mov	 edx, DWORD PTR _int_part_buf$[ebp]
  00188	52		 push	 edx
  00189	e8 00 00 00 00	 call	 ?BuildBinaryFromHexString@Internal@Core@Math@Palmtree@@YAXPA_WPAI@Z ; Palmtree::Math::Core::Internal::BuildBinaryFromHexString
  0018e	83 c4 08	 add	 esp, 8

; 1233 :         root.CheckNumber(*o_abs);

  00191	8b 45 18	 mov	 eax, DWORD PTR _o_abs$[ebp]
  00194	8b 08		 mov	 ecx, DWORD PTR [eax]
  00196	51		 push	 ecx
  00197	8d 4d e0	 lea	 ecx, DWORD PTR _root$[ebp]
  0019a	e8 00 00 00 00	 call	 ?CheckNumber@ResourceHolderUINT@Internal@Core@Math@Palmtree@@QAEXPAU__tag_NUMBER_HEADER@2345@@Z ; Palmtree::Math::Core::Internal::ResourceHolderUINT::CheckNumber

; 1234 :         root.DeallocateString(int_part_buf);

  0019f	8b 55 d0	 mov	 edx, DWORD PTR _int_part_buf$[ebp]
  001a2	52		 push	 edx
  001a3	8d 4d e0	 lea	 ecx, DWORD PTR _root$[ebp]
  001a6	e8 00 00 00 00	 call	 ?DeallocateString@ResourceHolderUINT@Internal@Core@Math@Palmtree@@QAEXPA_W@Z ; Palmtree::Math::Core::Internal::ResourceHolderUINT::DeallocateString

; 1235 :         if (*o_sign < 0)

  001ab	8b 45 14	 mov	 eax, DWORD PTR _o_sign$[ebp]
  001ae	0f be 08	 movsx	 ecx, BYTE PTR [eax]
  001b1	85 c9		 test	 ecx, ecx
  001b3	0f 8d 9d 00 00
	00		 jge	 $LN11@TryParseX

; 1236 :         {
; 1237 :             // 
; 1238 : 
; 1239 :             int lzcnt = o_bit_count % __UNIT_TYPE_BIT_COUNT;

  001b9	8b 45 c8	 mov	 eax, DWORD PTR _o_bit_count$[ebp]
  001bc	33 d2		 xor	 edx, edx
  001be	b9 20 00 00 00	 mov	 ecx, 32			; 00000020H
  001c3	f7 f1		 div	 ecx
  001c5	89 55 c4	 mov	 DWORD PTR _lzcnt$9[ebp], edx

; 1240 :             if (lzcnt != 0)

  001c8	83 7d c4 00	 cmp	 DWORD PTR _lzcnt$9[ebp], 0
  001cc	74 36		 je	 SHORT $LN12@TryParseX

; 1241 :             {
; 1242 :                 __UNIT_TYPE padding = (__UNIT_TYPE)-1 << lzcnt;

  001ce	83 ca ff	 or	 edx, -1
  001d1	8b 4d c4	 mov	 ecx, DWORD PTR _lzcnt$9[ebp]
  001d4	d3 e2		 shl	 edx, cl
  001d6	89 55 c0	 mov	 DWORD PTR _padding$8[ebp], edx

; 1243 :                 (*o_abs)->BLOCK[(*o_abs)->BLOCK_COUNT - 1] |= padding;

  001d9	8b 45 18	 mov	 eax, DWORD PTR _o_abs$[ebp]
  001dc	8b 08		 mov	 ecx, DWORD PTR [eax]
  001de	8b 55 18	 mov	 edx, DWORD PTR _o_abs$[ebp]
  001e1	8b 02		 mov	 eax, DWORD PTR [edx]
  001e3	8b 50 20	 mov	 edx, DWORD PTR [eax+32]
  001e6	8b 41 24	 mov	 eax, DWORD PTR [ecx+36]
  001e9	8b 4c 90 fc	 mov	 ecx, DWORD PTR [eax+edx*4-4]
  001ed	0b 4d c0	 or	 ecx, DWORD PTR _padding$8[ebp]
  001f0	8b 55 18	 mov	 edx, DWORD PTR _o_abs$[ebp]
  001f3	8b 02		 mov	 eax, DWORD PTR [edx]
  001f5	8b 55 18	 mov	 edx, DWORD PTR _o_abs$[ebp]
  001f8	8b 12		 mov	 edx, DWORD PTR [edx]
  001fa	8b 52 20	 mov	 edx, DWORD PTR [edx+32]
  001fd	8b 40 24	 mov	 eax, DWORD PTR [eax+36]
  00200	89 4c 90 fc	 mov	 DWORD PTR [eax+edx*4-4], ecx
$LN12@TryParseX:

; 1244 :             }
; 1245 : 
; 1246 :             //  (*o_abs)->BLOCK 
; 1247 :             char carry = 1;

  00204	c6 45 bf 01	 mov	 BYTE PTR _carry$7[ebp], 1

; 1248 :             __UNIT_TYPE* p = (*o_abs)->BLOCK;

  00208	8b 4d 18	 mov	 ecx, DWORD PTR _o_abs$[ebp]
  0020b	8b 11		 mov	 edx, DWORD PTR [ecx]
  0020d	8b 42 24	 mov	 eax, DWORD PTR [edx+36]
  00210	89 45 b8	 mov	 DWORD PTR _p$6[ebp], eax

; 1249 :             __UNIT_TYPE count = (*o_abs)->BLOCK_COUNT;

  00213	8b 4d 18	 mov	 ecx, DWORD PTR _o_abs$[ebp]
  00216	8b 11		 mov	 edx, DWORD PTR [ecx]
  00218	8b 42 20	 mov	 eax, DWORD PTR [edx+32]
  0021b	89 45 b4	 mov	 DWORD PTR _count$5[ebp], eax
$LN2@TryParseX:

; 1250 :             while (count > 0)

  0021e	83 7d b4 00	 cmp	 DWORD PTR _count$5[ebp], 0
  00222	76 32		 jbe	 SHORT $LN11@TryParseX

; 1251 :             {
; 1252 :                 carry = _ADD_UNIT(carry, ~*p, 0, p);

  00224	8b 4d b8	 mov	 ecx, DWORD PTR _p$6[ebp]
  00227	51		 push	 ecx
  00228	6a 00		 push	 0
  0022a	8b 55 b8	 mov	 edx, DWORD PTR _p$6[ebp]
  0022d	8b 02		 mov	 eax, DWORD PTR [edx]
  0022f	f7 d0		 not	 eax
  00231	50		 push	 eax
  00232	0f b6 4d bf	 movzx	 ecx, BYTE PTR _carry$7[ebp]
  00236	51		 push	 ecx
  00237	e8 00 00 00 00	 call	 __ADD_UNIT
  0023c	83 c4 10	 add	 esp, 16			; 00000010H
  0023f	88 45 bf	 mov	 BYTE PTR _carry$7[ebp], al

; 1253 :                 ++p;

  00242	8b 55 b8	 mov	 edx, DWORD PTR _p$6[ebp]
  00245	83 c2 04	 add	 edx, 4
  00248	89 55 b8	 mov	 DWORD PTR _p$6[ebp], edx

; 1254 :                 --count;

  0024b	8b 45 b4	 mov	 eax, DWORD PTR _count$5[ebp]
  0024e	83 e8 01	 sub	 eax, 1
  00251	89 45 b4	 mov	 DWORD PTR _count$5[ebp], eax

; 1255 :             }

  00254	eb c8		 jmp	 SHORT $LN2@TryParseX
$LN11@TryParseX:

; 1256 :         }
; 1257 :         CommitNumber(*o_abs);

  00256	8b 4d 18	 mov	 ecx, DWORD PTR _o_abs$[ebp]
  00259	8b 11		 mov	 edx, DWORD PTR [ecx]
  0025b	52		 push	 edx
  0025c	e8 00 00 00 00	 call	 ?CommitNumber@Internal@Core@Math@Palmtree@@YAXPAU__tag_NUMBER_HEADER@1234@@Z ; Palmtree::Math::Core::Internal::CommitNumber
  00261	83 c4 04	 add	 esp, 4

; 1258 :         if ((*o_abs)->IS_ZERO)

  00264	8b 45 18	 mov	 eax, DWORD PTR _o_abs$[ebp]
  00267	8b 08		 mov	 ecx, DWORD PTR [eax]
  00269	8b 51 04	 mov	 edx, DWORD PTR [ecx+4]
  0026c	83 e2 01	 and	 edx, 1
  0026f	74 1f		 je	 SHORT $LN13@TryParseX

; 1259 :         {
; 1260 :             root.DeallocateNumber(*o_abs);

  00271	8b 45 18	 mov	 eax, DWORD PTR _o_abs$[ebp]
  00274	8b 08		 mov	 ecx, DWORD PTR [eax]
  00276	51		 push	 ecx
  00277	8d 4d e0	 lea	 ecx, DWORD PTR _root$[ebp]
  0027a	e8 00 00 00 00	 call	 ?DeallocateNumber@ResourceHolderUINT@Internal@Core@Math@Palmtree@@QAEXPAU__tag_NUMBER_HEADER@2345@@Z ; Palmtree::Math::Core::Internal::ResourceHolderUINT::DeallocateNumber

; 1261 :             *o_sign = 0;

  0027f	8b 55 14	 mov	 edx, DWORD PTR _o_sign$[ebp]
  00282	c6 02 00	 mov	 BYTE PTR [edx], 0

; 1262 :             *o_abs = &number_zero;

  00285	8b 45 18	 mov	 eax, DWORD PTR _o_abs$[ebp]
  00288	c7 00 00 00 00
	00		 mov	 DWORD PTR [eax], OFFSET ?number_zero@Internal@Core@Math@Palmtree@@3U__tag_NUMBER_HEADER@1234@A ; Palmtree::Math::Core::Internal::number_zero

; 1263 :         }
; 1264 :         else

  0028e	eb 0e		 jmp	 SHORT $LN14@TryParseX
$LN13@TryParseX:

; 1265 :             root.UnlinkNumber(*o_abs);

  00290	8b 4d 18	 mov	 ecx, DWORD PTR _o_abs$[ebp]
  00293	8b 11		 mov	 edx, DWORD PTR [ecx]
  00295	52		 push	 edx
  00296	8d 4d e0	 lea	 ecx, DWORD PTR _root$[ebp]
  00299	e8 00 00 00 00	 call	 ?UnlinkNumber@ResourceHolderUINT@Internal@Core@Math@Palmtree@@QAEXPAU__tag_NUMBER_HEADER@2345@@Z ; Palmtree::Math::Core::Internal::ResourceHolderUINT::UnlinkNumber
$LN14@TryParseX:

; 1266 :         *result = 1;

  0029e	8b 45 1c	 mov	 eax, DWORD PTR _result$[ebp]
  002a1	c7 00 01 00 00
	00		 mov	 DWORD PTR [eax], 1

; 1267 :         return (PMC_STATUS_OK);

  002a7	c7 45 a8 00 00
	00 00		 mov	 DWORD PTR $T2[ebp], 0
  002ae	c7 45 fc ff ff
	ff ff		 mov	 DWORD PTR __$EHRec$[ebp+8], -1
  002b5	8d 4d e0	 lea	 ecx, DWORD PTR _root$[ebp]
  002b8	e8 00 00 00 00	 call	 ??1ResourceHolderUINT@Internal@Core@Math@Palmtree@@UAE@XZ ; Palmtree::Math::Core::Internal::ResourceHolderUINT::~ResourceHolderUINT
  002bd	8b 45 a8	 mov	 eax, DWORD PTR $T2[ebp]
$LN1@TryParseX:

; 1268 :     }

  002c0	52		 push	 edx
  002c1	8b cd		 mov	 ecx, ebp
  002c3	50		 push	 eax
  002c4	8d 15 00 00 00
	00		 lea	 edx, DWORD PTR $LN20@TryParseX
  002ca	e8 00 00 00 00	 call	 @_RTC_CheckStackVars@8
  002cf	58		 pop	 eax
  002d0	5a		 pop	 edx
  002d1	8b 4d f4	 mov	 ecx, DWORD PTR __$EHRec$[ebp]
  002d4	64 89 0d 00 00
	00 00		 mov	 DWORD PTR fs:0, ecx
  002db	59		 pop	 ecx
  002dc	5f		 pop	 edi
  002dd	5e		 pop	 esi
  002de	83 c4 58	 add	 esp, 88			; 00000058H
  002e1	3b ec		 cmp	 ebp, esp
  002e3	e8 00 00 00 00	 call	 __RTC_CheckEsp
  002e8	8b e5		 mov	 esp, ebp
  002ea	5d		 pop	 ebp
  002eb	c3		 ret	 0
$LN20@TryParseX:
  002ec	01 00 00 00	 DD	 1
  002f0	00 00 00 00	 DD	 $LN19@TryParseX
$LN19@TryParseX:
  002f4	e0 ff ff ff	 DD	 -32			; ffffffe0H
  002f8	10 00 00 00	 DD	 16			; 00000010H
  002fc	00 00 00 00	 DD	 $LN17@TryParseX
$LN17@TryParseX:
  00300	72		 DB	 114			; 00000072H
  00301	6f		 DB	 111			; 0000006fH
  00302	6f		 DB	 111			; 0000006fH
  00303	74		 DB	 116			; 00000074H
  00304	00		 DB	 0
_TEXT	ENDS
text$x	SEGMENT
__unwindfunclet$?TryParseX@Internal@Core@Math@Palmtree@@YAHPB_WIPBU__tag_PMC_NUMBER_FORMAT_INFO@1234@PADPAPAU__tag_NUMBER_HEADER@1234@PAI@Z$0:
  00000	8d 4d e0	 lea	 ecx, DWORD PTR _root$[ebp]
  00003	e9 00 00 00 00	 jmp	 ??1ResourceHolderUINT@Internal@Core@Math@Palmtree@@UAE@XZ ; Palmtree::Math::Core::Internal::ResourceHolderUINT::~ResourceHolderUINT
__ehhandler$?TryParseX@Internal@Core@Math@Palmtree@@YAHPB_WIPBU__tag_PMC_NUMBER_FORMAT_INFO@1234@PADPAPAU__tag_NUMBER_HEADER@1234@PAI@Z:
  00008	8b 54 24 08	 mov	 edx, DWORD PTR [esp+8]
  0000c	8d 42 0c	 lea	 eax, DWORD PTR [edx+12]
  0000f	8b 4a a8	 mov	 ecx, DWORD PTR [edx-88]
  00012	33 c8		 xor	 ecx, eax
  00014	e8 00 00 00 00	 call	 @__security_check_cookie@4
  00019	b8 00 00 00 00	 mov	 eax, OFFSET __ehfuncinfo$?TryParseX@Internal@Core@Math@Palmtree@@YAHPB_WIPBU__tag_PMC_NUMBER_FORMAT_INFO@1234@PADPAPAU__tag_NUMBER_HEADER@1234@PAI@Z
  0001e	e9 00 00 00 00	 jmp	 ___CxxFrameHandler3
text$x	ENDS
?TryParseX@Internal@Core@Math@Palmtree@@YAHPB_WIPBU__tag_PMC_NUMBER_FORMAT_INFO@1234@PADPAPAU__tag_NUMBER_HEADER@1234@PAI@Z ENDP ; Palmtree::Math::Core::Internal::TryParseX
; Function compile flags: /Odtp /RTCsu
; File z:\sources\lunor\repos\rougemeilland\palmtree.math.core.uint\palmtree.math.core.uint\pmc_parse.cpp
_TEXT	SEGMENT
$T2 = -300						; size = 4
_state$ = -292						; size = 260
_dummy_sign$ = -21					; size = 1
__$ArrayPad$ = -16					; size = 4
__$EHRec$ = -12						; size = 12
_in_ptr$ = 8						; size = 4
_number_styles$ = 12					; size = 4
_format_option$ = 16					; size = 4
_int_part_buf$ = 20					; size = 4
_int_part_buf_size$ = 24				; size = 4
?ParseAsHexNumberString@Internal@Core@Math@Palmtree@@YAHPB_WIPBU__tag_PMC_NUMBER_FORMAT_INFO@1234@PA_WI@Z PROC ; Palmtree::Math::Core::Internal::ParseAsHexNumberString

; 1183 :     {

  00000	55		 push	 ebp
  00001	8b ec		 mov	 ebp, esp
  00003	6a ff		 push	 -1
  00005	68 00 00 00 00	 push	 __ehhandler$?ParseAsHexNumberString@Internal@Core@Math@Palmtree@@YAHPB_WIPBU__tag_PMC_NUMBER_FORMAT_INFO@1234@PA_WI@Z
  0000a	64 a1 00 00 00
	00		 mov	 eax, DWORD PTR fs:0
  00010	50		 push	 eax
  00011	81 ec 20 01 00
	00		 sub	 esp, 288		; 00000120H
  00017	57		 push	 edi
  00018	8d bd d4 fe ff
	ff		 lea	 edi, DWORD PTR [ebp-300]
  0001e	b9 48 00 00 00	 mov	 ecx, 72			; 00000048H
  00023	b8 cc cc cc cc	 mov	 eax, -858993460		; ccccccccH
  00028	f3 ab		 rep stosd
  0002a	a1 00 00 00 00	 mov	 eax, DWORD PTR ___security_cookie
  0002f	33 c5		 xor	 eax, ebp
  00031	89 45 f0	 mov	 DWORD PTR __$ArrayPad$[ebp], eax
  00034	50		 push	 eax
  00035	8d 45 f4	 lea	 eax, DWORD PTR __$EHRec$[ebp]
  00038	64 a3 00 00 00
	00		 mov	 DWORD PTR fs:0, eax
  0003e	b9 00 00 00 00	 mov	 ecx, OFFSET __F159A697_pmc_parse@cpp
  00043	e8 00 00 00 00	 call	 @__CheckForDebuggerJustMyCode@4

; 1184 :         char dummy_sign;
; 1185 :         ParserState state(in_ptr, number_styles, format_option, &dummy_sign, int_part_buf, int_part_buf_size, nullptr, 0);

  00048	6a 00		 push	 0
  0004a	6a 00		 push	 0
  0004c	8b 45 18	 mov	 eax, DWORD PTR _int_part_buf_size$[ebp]
  0004f	50		 push	 eax
  00050	8b 4d 14	 mov	 ecx, DWORD PTR _int_part_buf$[ebp]
  00053	51		 push	 ecx
  00054	8d 55 eb	 lea	 edx, DWORD PTR _dummy_sign$[ebp]
  00057	52		 push	 edx
  00058	8b 45 10	 mov	 eax, DWORD PTR _format_option$[ebp]
  0005b	50		 push	 eax
  0005c	8b 4d 0c	 mov	 ecx, DWORD PTR _number_styles$[ebp]
  0005f	51		 push	 ecx
  00060	8b 55 08	 mov	 edx, DWORD PTR _in_ptr$[ebp]
  00063	52		 push	 edx
  00064	8d 8d dc fe ff
	ff		 lea	 ecx, DWORD PTR _state$[ebp]
  0006a	e8 00 00 00 00	 call	 ??0ParserState@Internal@Core@Math@Palmtree@@QAE@PB_WIPBU__tag_PMC_NUMBER_FORMAT_INFO@1234@PADPA_WI3I@Z ; Palmtree::Math::Core::Internal::ParserState::ParserState
  0006f	c7 45 fc 00 00
	00 00		 mov	 DWORD PTR __$EHRec$[ebp+8], 0

; 1186 :         return (state.ParseAsHexNumberString());

  00076	8d 8d dc fe ff
	ff		 lea	 ecx, DWORD PTR _state$[ebp]
  0007c	e8 00 00 00 00	 call	 ?ParseAsHexNumberString@ParserState@Internal@Core@Math@Palmtree@@QAEHXZ ; Palmtree::Math::Core::Internal::ParserState::ParseAsHexNumberString
  00081	89 85 d4 fe ff
	ff		 mov	 DWORD PTR $T2[ebp], eax
  00087	c7 45 fc ff ff
	ff ff		 mov	 DWORD PTR __$EHRec$[ebp+8], -1
  0008e	8d 8d dc fe ff
	ff		 lea	 ecx, DWORD PTR _state$[ebp]
  00094	e8 00 00 00 00	 call	 ??1ParserState@Internal@Core@Math@Palmtree@@QAE@XZ ; Palmtree::Math::Core::Internal::ParserState::~ParserState
  00099	8b 85 d4 fe ff
	ff		 mov	 eax, DWORD PTR $T2[ebp]

; 1187 :     }

  0009f	52		 push	 edx
  000a0	8b cd		 mov	 ecx, ebp
  000a2	50		 push	 eax
  000a3	8d 15 00 00 00
	00		 lea	 edx, DWORD PTR $LN8@ParseAsHex
  000a9	e8 00 00 00 00	 call	 @_RTC_CheckStackVars@8
  000ae	58		 pop	 eax
  000af	5a		 pop	 edx
  000b0	8b 4d f4	 mov	 ecx, DWORD PTR __$EHRec$[ebp]
  000b3	64 89 0d 00 00
	00 00		 mov	 DWORD PTR fs:0, ecx
  000ba	59		 pop	 ecx
  000bb	5f		 pop	 edi
  000bc	8b 4d f0	 mov	 ecx, DWORD PTR __$ArrayPad$[ebp]
  000bf	33 cd		 xor	 ecx, ebp
  000c1	e8 00 00 00 00	 call	 @__security_check_cookie@4
  000c6	81 c4 2c 01 00
	00		 add	 esp, 300		; 0000012cH
  000cc	3b ec		 cmp	 ebp, esp
  000ce	e8 00 00 00 00	 call	 __RTC_CheckEsp
  000d3	8b e5		 mov	 esp, ebp
  000d5	5d		 pop	 ebp
  000d6	c3		 ret	 0
  000d7	90		 npad	 1
$LN8@ParseAsHex:
  000d8	02 00 00 00	 DD	 2
  000dc	00 00 00 00	 DD	 $LN7@ParseAsHex
$LN7@ParseAsHex:
  000e0	eb ff ff ff	 DD	 -21			; ffffffebH
  000e4	01 00 00 00	 DD	 1
  000e8	00 00 00 00	 DD	 $LN4@ParseAsHex
  000ec	dc fe ff ff	 DD	 -292			; fffffedcH
  000f0	04 01 00 00	 DD	 260			; 00000104H
  000f4	00 00 00 00	 DD	 $LN5@ParseAsHex
$LN5@ParseAsHex:
  000f8	73		 DB	 115			; 00000073H
  000f9	74		 DB	 116			; 00000074H
  000fa	61		 DB	 97			; 00000061H
  000fb	74		 DB	 116			; 00000074H
  000fc	65		 DB	 101			; 00000065H
  000fd	00		 DB	 0
$LN4@ParseAsHex:
  000fe	64		 DB	 100			; 00000064H
  000ff	75		 DB	 117			; 00000075H
  00100	6d		 DB	 109			; 0000006dH
  00101	6d		 DB	 109			; 0000006dH
  00102	79		 DB	 121			; 00000079H
  00103	5f		 DB	 95			; 0000005fH
  00104	73		 DB	 115			; 00000073H
  00105	69		 DB	 105			; 00000069H
  00106	67		 DB	 103			; 00000067H
  00107	6e		 DB	 110			; 0000006eH
  00108	00		 DB	 0
_TEXT	ENDS
text$x	SEGMENT
__unwindfunclet$?ParseAsHexNumberString@Internal@Core@Math@Palmtree@@YAHPB_WIPBU__tag_PMC_NUMBER_FORMAT_INFO@1234@PA_WI@Z$0:
  00000	8d 8d dc fe ff
	ff		 lea	 ecx, DWORD PTR _state$[ebp]
  00006	e9 00 00 00 00	 jmp	 ??1ParserState@Internal@Core@Math@Palmtree@@QAE@XZ ; Palmtree::Math::Core::Internal::ParserState::~ParserState
__ehhandler$?ParseAsHexNumberString@Internal@Core@Math@Palmtree@@YAHPB_WIPBU__tag_PMC_NUMBER_FORMAT_INFO@1234@PA_WI@Z:
  0000b	8b 54 24 08	 mov	 edx, DWORD PTR [esp+8]
  0000f	8d 42 0c	 lea	 eax, DWORD PTR [edx+12]
  00012	8b 8a d8 fe ff
	ff		 mov	 ecx, DWORD PTR [edx-296]
  00018	33 c8		 xor	 ecx, eax
  0001a	e8 00 00 00 00	 call	 @__security_check_cookie@4
  0001f	8b 4a fc	 mov	 ecx, DWORD PTR [edx-4]
  00022	33 c8		 xor	 ecx, eax
  00024	e8 00 00 00 00	 call	 @__security_check_cookie@4
  00029	b8 00 00 00 00	 mov	 eax, OFFSET __ehfuncinfo$?ParseAsHexNumberString@Internal@Core@Math@Palmtree@@YAHPB_WIPBU__tag_PMC_NUMBER_FORMAT_INFO@1234@PA_WI@Z
  0002e	e9 00 00 00 00	 jmp	 ___CxxFrameHandler3
text$x	ENDS
?ParseAsHexNumberString@Internal@Core@Math@Palmtree@@YAHPB_WIPBU__tag_PMC_NUMBER_FORMAT_INFO@1234@PA_WI@Z ENDP ; Palmtree::Math::Core::Internal::ParseAsHexNumberString
; Function compile flags: /Odtp /RTCsu
; File z:\sources\lunor\repos\rougemeilland\palmtree.math.core.uint\palmtree.math.core.uint\pmc_parse.cpp
_TEXT	SEGMENT
_r$ = -20						; size = 4
_out_ptr$ = -16						; size = 4
_in_ptr$ = -12						; size = 4
_source_count$ = -8					; size = 4
_word_digit_count$ = -4					; size = 4
_source$ = 8						; size = 4
_out_buf$ = 12						; size = 4
?BuildBinaryFromHexString@Internal@Core@Math@Palmtree@@YAXPA_WPAI@Z PROC ; Palmtree::Math::Core::Internal::BuildBinaryFromHexString

; 1162 :     {

  00000	55		 push	 ebp
  00001	8b ec		 mov	 ebp, esp
  00003	83 ec 14	 sub	 esp, 20			; 00000014H
  00006	56		 push	 esi
  00007	b8 cc cc cc cc	 mov	 eax, -858993460		; ccccccccH
  0000c	89 45 ec	 mov	 DWORD PTR [ebp-20], eax
  0000f	89 45 f0	 mov	 DWORD PTR [ebp-16], eax
  00012	89 45 f4	 mov	 DWORD PTR [ebp-12], eax
  00015	89 45 f8	 mov	 DWORD PTR [ebp-8], eax
  00018	89 45 fc	 mov	 DWORD PTR [ebp-4], eax
  0001b	b9 00 00 00 00	 mov	 ecx, OFFSET __F159A697_pmc_parse@cpp
  00020	e8 00 00 00 00	 call	 @__CheckForDebuggerJustMyCode@4

; 1163 :         int word_digit_count = __UNIT_TYPE_BIT_COUNT / 4;

  00025	c7 45 fc 08 00
	00 00		 mov	 DWORD PTR _word_digit_count$[ebp], 8

; 1164 :         __UNIT_TYPE source_count = lstrlenW(source);

  0002c	8b f4		 mov	 esi, esp
  0002e	8b 45 08	 mov	 eax, DWORD PTR _source$[ebp]
  00031	50		 push	 eax
  00032	ff 15 00 00 00
	00		 call	 DWORD PTR __imp__lstrlenW@4
  00038	3b f4		 cmp	 esi, esp
  0003a	e8 00 00 00 00	 call	 __RTC_CheckEsp
  0003f	89 45 f8	 mov	 DWORD PTR _source_count$[ebp], eax

; 1165 :         wchar_t* in_ptr = source;

  00042	8b 4d 08	 mov	 ecx, DWORD PTR _source$[ebp]
  00045	89 4d f4	 mov	 DWORD PTR _in_ptr$[ebp], ecx

; 1166 :         __UNIT_TYPE* out_ptr = out_buf + _DIVIDE_CEILING_UNIT(source_count, word_digit_count) - 1;

  00048	8b 55 fc	 mov	 edx, DWORD PTR _word_digit_count$[ebp]
  0004b	52		 push	 edx
  0004c	8b 45 f8	 mov	 eax, DWORD PTR _source_count$[ebp]
  0004f	50		 push	 eax
  00050	e8 00 00 00 00	 call	 __DIVIDE_CEILING_UNIT
  00055	83 c4 08	 add	 esp, 8
  00058	8b 4d 0c	 mov	 ecx, DWORD PTR _out_buf$[ebp]
  0005b	8d 54 81 fc	 lea	 edx, DWORD PTR [ecx+eax*4-4]
  0005f	89 55 f0	 mov	 DWORD PTR _out_ptr$[ebp], edx

; 1167 :         int r = source_count % word_digit_count;

  00062	8b 45 f8	 mov	 eax, DWORD PTR _source_count$[ebp]
  00065	33 d2		 xor	 edx, edx
  00067	f7 75 fc	 div	 DWORD PTR _word_digit_count$[ebp]
  0006a	89 55 ec	 mov	 DWORD PTR _r$[ebp], edx

; 1168 :         if (r > 0)

  0006d	83 7d ec 00	 cmp	 DWORD PTR _r$[ebp], 0
  00071	7e 33		 jle	 SHORT $LN2@BuildBinar

; 1169 :         {
; 1170 :             *out_ptr-- = BuildLeading1WordFromHexString(in_ptr, r);

  00073	8b 45 ec	 mov	 eax, DWORD PTR _r$[ebp]
  00076	50		 push	 eax
  00077	8b 4d f4	 mov	 ecx, DWORD PTR _in_ptr$[ebp]
  0007a	51		 push	 ecx
  0007b	e8 00 00 00 00	 call	 ?BuildLeading1WordFromHexString@Internal@Core@Math@Palmtree@@YAIPA_WI@Z ; Palmtree::Math::Core::Internal::BuildLeading1WordFromHexString
  00080	83 c4 08	 add	 esp, 8
  00083	8b 55 f0	 mov	 edx, DWORD PTR _out_ptr$[ebp]
  00086	89 02		 mov	 DWORD PTR [edx], eax
  00088	8b 45 f0	 mov	 eax, DWORD PTR _out_ptr$[ebp]
  0008b	83 e8 04	 sub	 eax, 4
  0008e	89 45 f0	 mov	 DWORD PTR _out_ptr$[ebp], eax

; 1171 :             in_ptr += r;

  00091	8b 4d ec	 mov	 ecx, DWORD PTR _r$[ebp]
  00094	8b 55 f4	 mov	 edx, DWORD PTR _in_ptr$[ebp]
  00097	8d 04 4a	 lea	 eax, DWORD PTR [edx+ecx*2]
  0009a	89 45 f4	 mov	 DWORD PTR _in_ptr$[ebp], eax

; 1172 :             source_count -= r;

  0009d	8b 4d f8	 mov	 ecx, DWORD PTR _source_count$[ebp]
  000a0	2b 4d ec	 sub	 ecx, DWORD PTR _r$[ebp]
  000a3	89 4d f8	 mov	 DWORD PTR _source_count$[ebp], ecx
$LN2@BuildBinar:

; 1173 :         }
; 1174 :         while (source_count > 0)

  000a6	83 7d f8 00	 cmp	 DWORD PTR _source_count$[ebp], 0
  000aa	76 31		 jbe	 SHORT $LN1@BuildBinar

; 1175 :         {
; 1176 :             *out_ptr-- = Build1WordFromHexString(in_ptr);

  000ac	8b 55 f4	 mov	 edx, DWORD PTR _in_ptr$[ebp]
  000af	52		 push	 edx
  000b0	e8 00 00 00 00	 call	 ?Build1WordFromHexString@Internal@Core@Math@Palmtree@@YAIPA_W@Z ; Palmtree::Math::Core::Internal::Build1WordFromHexString
  000b5	83 c4 04	 add	 esp, 4
  000b8	8b 4d f0	 mov	 ecx, DWORD PTR _out_ptr$[ebp]
  000bb	89 01		 mov	 DWORD PTR [ecx], eax
  000bd	8b 55 f0	 mov	 edx, DWORD PTR _out_ptr$[ebp]
  000c0	83 ea 04	 sub	 edx, 4
  000c3	89 55 f0	 mov	 DWORD PTR _out_ptr$[ebp], edx

; 1177 :             in_ptr += word_digit_count;

  000c6	8b 45 fc	 mov	 eax, DWORD PTR _word_digit_count$[ebp]
  000c9	8b 4d f4	 mov	 ecx, DWORD PTR _in_ptr$[ebp]
  000cc	8d 14 41	 lea	 edx, DWORD PTR [ecx+eax*2]
  000cf	89 55 f4	 mov	 DWORD PTR _in_ptr$[ebp], edx

; 1178 :             source_count -= word_digit_count;

  000d2	8b 45 f8	 mov	 eax, DWORD PTR _source_count$[ebp]
  000d5	2b 45 fc	 sub	 eax, DWORD PTR _word_digit_count$[ebp]
  000d8	89 45 f8	 mov	 DWORD PTR _source_count$[ebp], eax

; 1179 :         }

  000db	eb c9		 jmp	 SHORT $LN2@BuildBinar
$LN1@BuildBinar:

; 1180 :     }

  000dd	5e		 pop	 esi
  000de	83 c4 14	 add	 esp, 20			; 00000014H
  000e1	3b ec		 cmp	 ebp, esp
  000e3	e8 00 00 00 00	 call	 __RTC_CheckEsp
  000e8	8b e5		 mov	 esp, ebp
  000ea	5d		 pop	 ebp
  000eb	c3		 ret	 0
?BuildBinaryFromHexString@Internal@Core@Math@Palmtree@@YAXPA_WPAI@Z ENDP ; Palmtree::Math::Core::Internal::BuildBinaryFromHexString
_TEXT	ENDS
; Function compile flags: /Odtp /RTCsu
; File z:\sources\lunor\repos\rougemeilland\palmtree.math.core.uint\palmtree.math.core.uint\pmc_parse.cpp
_TEXT	SEGMENT
tv191 = -36						; size = 2
tv184 = -34						; size = 2
tv178 = -32						; size = 2
tv171 = -30						; size = 2
tv165 = -28						; size = 2
tv159 = -26						; size = 2
tv153 = -24						; size = 2
tv146 = -22						; size = 2
tv140 = -20						; size = 2
tv134 = -18						; size = 2
tv128 = -16						; size = 2
tv90 = -14						; size = 2
tv84 = -12						; size = 2
tv78 = -10						; size = 2
tv72 = -8						; size = 2
tv66 = -6						; size = 2
_x$ = -4						; size = 4
_in_ptr$ = 8						; size = 4
?Build1WordFromHexString@Internal@Core@Math@Palmtree@@YAIPA_W@Z PROC ; Palmtree::Math::Core::Internal::Build1WordFromHexString

; 1129 :     {

  00000	55		 push	 ebp
  00001	8b ec		 mov	 ebp, esp
  00003	83 ec 24	 sub	 esp, 36			; 00000024H
  00006	b8 cc cc cc cc	 mov	 eax, -858993460		; ccccccccH
  0000b	89 45 dc	 mov	 DWORD PTR [ebp-36], eax
  0000e	89 45 e0	 mov	 DWORD PTR [ebp-32], eax
  00011	89 45 e4	 mov	 DWORD PTR [ebp-28], eax
  00014	89 45 e8	 mov	 DWORD PTR [ebp-24], eax
  00017	89 45 ec	 mov	 DWORD PTR [ebp-20], eax
  0001a	89 45 f0	 mov	 DWORD PTR [ebp-16], eax
  0001d	89 45 f4	 mov	 DWORD PTR [ebp-12], eax
  00020	89 45 f8	 mov	 DWORD PTR [ebp-8], eax
  00023	89 45 fc	 mov	 DWORD PTR [ebp-4], eax
  00026	b9 00 00 00 00	 mov	 ecx, OFFSET __F159A697_pmc_parse@cpp
  0002b	e8 00 00 00 00	 call	 @__CheckForDebuggerJustMyCode@4

; 1130 :         __UNIT_TYPE x = ParseHexDigit(*in_ptr++);

  00030	8b 45 08	 mov	 eax, DWORD PTR _in_ptr$[ebp]
  00033	66 8b 08	 mov	 cx, WORD PTR [eax]
  00036	66 89 4d fa	 mov	 WORD PTR tv66[ebp], cx
  0003a	8b 55 08	 mov	 edx, DWORD PTR _in_ptr$[ebp]
  0003d	83 c2 02	 add	 edx, 2
  00040	89 55 08	 mov	 DWORD PTR _in_ptr$[ebp], edx
  00043	0f b7 45 fa	 movzx	 eax, WORD PTR tv66[ebp]
  00047	50		 push	 eax
  00048	e8 00 00 00 00	 call	 ?ParseHexDigit@Internal@Core@Math@Palmtree@@YAH_W@Z ; Palmtree::Math::Core::Internal::ParseHexDigit
  0004d	83 c4 04	 add	 esp, 4
  00050	89 45 fc	 mov	 DWORD PTR _x$[ebp], eax

; 1131 :         if (sizeof(__UNIT_TYPE) >= sizeof(_UINT64_T))

  00053	33 c9		 xor	 ecx, ecx
  00055	0f 84 58 01 00
	00		 je	 $LN2@Build1Word

; 1132 :         {
; 1133 :             x = x * 16 + ParseHexDigit(*in_ptr++);

  0005b	8b 55 08	 mov	 edx, DWORD PTR _in_ptr$[ebp]
  0005e	66 8b 02	 mov	 ax, WORD PTR [edx]
  00061	66 89 45 f8	 mov	 WORD PTR tv72[ebp], ax
  00065	8b 4d 08	 mov	 ecx, DWORD PTR _in_ptr$[ebp]
  00068	83 c1 02	 add	 ecx, 2
  0006b	89 4d 08	 mov	 DWORD PTR _in_ptr$[ebp], ecx
  0006e	0f b7 55 f8	 movzx	 edx, WORD PTR tv72[ebp]
  00072	52		 push	 edx
  00073	e8 00 00 00 00	 call	 ?ParseHexDigit@Internal@Core@Math@Palmtree@@YAH_W@Z ; Palmtree::Math::Core::Internal::ParseHexDigit
  00078	83 c4 04	 add	 esp, 4
  0007b	8b 4d fc	 mov	 ecx, DWORD PTR _x$[ebp]
  0007e	c1 e1 04	 shl	 ecx, 4
  00081	03 c8		 add	 ecx, eax
  00083	89 4d fc	 mov	 DWORD PTR _x$[ebp], ecx

; 1134 :             x = x * 16 + ParseHexDigit(*in_ptr++);

  00086	8b 55 08	 mov	 edx, DWORD PTR _in_ptr$[ebp]
  00089	66 8b 02	 mov	 ax, WORD PTR [edx]
  0008c	66 89 45 f6	 mov	 WORD PTR tv78[ebp], ax
  00090	8b 4d 08	 mov	 ecx, DWORD PTR _in_ptr$[ebp]
  00093	83 c1 02	 add	 ecx, 2
  00096	89 4d 08	 mov	 DWORD PTR _in_ptr$[ebp], ecx
  00099	0f b7 55 f6	 movzx	 edx, WORD PTR tv78[ebp]
  0009d	52		 push	 edx
  0009e	e8 00 00 00 00	 call	 ?ParseHexDigit@Internal@Core@Math@Palmtree@@YAH_W@Z ; Palmtree::Math::Core::Internal::ParseHexDigit
  000a3	83 c4 04	 add	 esp, 4
  000a6	8b 4d fc	 mov	 ecx, DWORD PTR _x$[ebp]
  000a9	c1 e1 04	 shl	 ecx, 4
  000ac	03 c8		 add	 ecx, eax
  000ae	89 4d fc	 mov	 DWORD PTR _x$[ebp], ecx

; 1135 :             x = x * 16 + ParseHexDigit(*in_ptr++);

  000b1	8b 55 08	 mov	 edx, DWORD PTR _in_ptr$[ebp]
  000b4	66 8b 02	 mov	 ax, WORD PTR [edx]
  000b7	66 89 45 f4	 mov	 WORD PTR tv84[ebp], ax
  000bb	8b 4d 08	 mov	 ecx, DWORD PTR _in_ptr$[ebp]
  000be	83 c1 02	 add	 ecx, 2
  000c1	89 4d 08	 mov	 DWORD PTR _in_ptr$[ebp], ecx
  000c4	0f b7 55 f4	 movzx	 edx, WORD PTR tv84[ebp]
  000c8	52		 push	 edx
  000c9	e8 00 00 00 00	 call	 ?ParseHexDigit@Internal@Core@Math@Palmtree@@YAH_W@Z ; Palmtree::Math::Core::Internal::ParseHexDigit
  000ce	83 c4 04	 add	 esp, 4
  000d1	8b 4d fc	 mov	 ecx, DWORD PTR _x$[ebp]
  000d4	c1 e1 04	 shl	 ecx, 4
  000d7	03 c8		 add	 ecx, eax
  000d9	89 4d fc	 mov	 DWORD PTR _x$[ebp], ecx

; 1136 :             x = x * 16 + ParseHexDigit(*in_ptr++);

  000dc	8b 55 08	 mov	 edx, DWORD PTR _in_ptr$[ebp]
  000df	66 8b 02	 mov	 ax, WORD PTR [edx]
  000e2	66 89 45 f2	 mov	 WORD PTR tv90[ebp], ax
  000e6	8b 4d 08	 mov	 ecx, DWORD PTR _in_ptr$[ebp]
  000e9	83 c1 02	 add	 ecx, 2
  000ec	89 4d 08	 mov	 DWORD PTR _in_ptr$[ebp], ecx
  000ef	0f b7 55 f2	 movzx	 edx, WORD PTR tv90[ebp]
  000f3	52		 push	 edx
  000f4	e8 00 00 00 00	 call	 ?ParseHexDigit@Internal@Core@Math@Palmtree@@YAH_W@Z ; Palmtree::Math::Core::Internal::ParseHexDigit
  000f9	83 c4 04	 add	 esp, 4
  000fc	8b 4d fc	 mov	 ecx, DWORD PTR _x$[ebp]
  000ff	c1 e1 04	 shl	 ecx, 4
  00102	03 c8		 add	 ecx, eax
  00104	89 4d fc	 mov	 DWORD PTR _x$[ebp], ecx

; 1137 :             x = x * 16 + ParseHexDigit(*in_ptr++);

  00107	8b 55 08	 mov	 edx, DWORD PTR _in_ptr$[ebp]
  0010a	66 8b 02	 mov	 ax, WORD PTR [edx]
  0010d	66 89 45 f0	 mov	 WORD PTR tv128[ebp], ax
  00111	8b 4d 08	 mov	 ecx, DWORD PTR _in_ptr$[ebp]
  00114	83 c1 02	 add	 ecx, 2
  00117	89 4d 08	 mov	 DWORD PTR _in_ptr$[ebp], ecx
  0011a	0f b7 55 f0	 movzx	 edx, WORD PTR tv128[ebp]
  0011e	52		 push	 edx
  0011f	e8 00 00 00 00	 call	 ?ParseHexDigit@Internal@Core@Math@Palmtree@@YAH_W@Z ; Palmtree::Math::Core::Internal::ParseHexDigit
  00124	83 c4 04	 add	 esp, 4
  00127	8b 4d fc	 mov	 ecx, DWORD PTR _x$[ebp]
  0012a	c1 e1 04	 shl	 ecx, 4
  0012d	03 c8		 add	 ecx, eax
  0012f	89 4d fc	 mov	 DWORD PTR _x$[ebp], ecx

; 1138 :             x = x * 16 + ParseHexDigit(*in_ptr++);

  00132	8b 55 08	 mov	 edx, DWORD PTR _in_ptr$[ebp]
  00135	66 8b 02	 mov	 ax, WORD PTR [edx]
  00138	66 89 45 ee	 mov	 WORD PTR tv134[ebp], ax
  0013c	8b 4d 08	 mov	 ecx, DWORD PTR _in_ptr$[ebp]
  0013f	83 c1 02	 add	 ecx, 2
  00142	89 4d 08	 mov	 DWORD PTR _in_ptr$[ebp], ecx
  00145	0f b7 55 ee	 movzx	 edx, WORD PTR tv134[ebp]
  00149	52		 push	 edx
  0014a	e8 00 00 00 00	 call	 ?ParseHexDigit@Internal@Core@Math@Palmtree@@YAH_W@Z ; Palmtree::Math::Core::Internal::ParseHexDigit
  0014f	83 c4 04	 add	 esp, 4
  00152	8b 4d fc	 mov	 ecx, DWORD PTR _x$[ebp]
  00155	c1 e1 04	 shl	 ecx, 4
  00158	03 c8		 add	 ecx, eax
  0015a	89 4d fc	 mov	 DWORD PTR _x$[ebp], ecx

; 1139 :             x = x * 16 + ParseHexDigit(*in_ptr++);

  0015d	8b 55 08	 mov	 edx, DWORD PTR _in_ptr$[ebp]
  00160	66 8b 02	 mov	 ax, WORD PTR [edx]
  00163	66 89 45 ec	 mov	 WORD PTR tv140[ebp], ax
  00167	8b 4d 08	 mov	 ecx, DWORD PTR _in_ptr$[ebp]
  0016a	83 c1 02	 add	 ecx, 2
  0016d	89 4d 08	 mov	 DWORD PTR _in_ptr$[ebp], ecx
  00170	0f b7 55 ec	 movzx	 edx, WORD PTR tv140[ebp]
  00174	52		 push	 edx
  00175	e8 00 00 00 00	 call	 ?ParseHexDigit@Internal@Core@Math@Palmtree@@YAH_W@Z ; Palmtree::Math::Core::Internal::ParseHexDigit
  0017a	83 c4 04	 add	 esp, 4
  0017d	8b 4d fc	 mov	 ecx, DWORD PTR _x$[ebp]
  00180	c1 e1 04	 shl	 ecx, 4
  00183	03 c8		 add	 ecx, eax
  00185	89 4d fc	 mov	 DWORD PTR _x$[ebp], ecx

; 1140 :             x = x * 16 + ParseHexDigit(*in_ptr++);

  00188	8b 55 08	 mov	 edx, DWORD PTR _in_ptr$[ebp]
  0018b	66 8b 02	 mov	 ax, WORD PTR [edx]
  0018e	66 89 45 ea	 mov	 WORD PTR tv146[ebp], ax
  00192	8b 4d 08	 mov	 ecx, DWORD PTR _in_ptr$[ebp]
  00195	83 c1 02	 add	 ecx, 2
  00198	89 4d 08	 mov	 DWORD PTR _in_ptr$[ebp], ecx
  0019b	0f b7 55 ea	 movzx	 edx, WORD PTR tv146[ebp]
  0019f	52		 push	 edx
  001a0	e8 00 00 00 00	 call	 ?ParseHexDigit@Internal@Core@Math@Palmtree@@YAH_W@Z ; Palmtree::Math::Core::Internal::ParseHexDigit
  001a5	83 c4 04	 add	 esp, 4
  001a8	8b 4d fc	 mov	 ecx, DWORD PTR _x$[ebp]
  001ab	c1 e1 04	 shl	 ecx, 4
  001ae	03 c8		 add	 ecx, eax
  001b0	89 4d fc	 mov	 DWORD PTR _x$[ebp], ecx
$LN2@Build1Word:

; 1141 :         }
; 1142 :         if (sizeof(__UNIT_TYPE) >= sizeof(_UINT32_T))

  001b3	ba 01 00 00 00	 mov	 edx, 1
  001b8	85 d2		 test	 edx, edx
  001ba	0f 84 ac 00 00
	00		 je	 $LN3@Build1Word

; 1143 :         {
; 1144 :             x = x * 16 + ParseHexDigit(*in_ptr++);

  001c0	8b 45 08	 mov	 eax, DWORD PTR _in_ptr$[ebp]
  001c3	66 8b 08	 mov	 cx, WORD PTR [eax]
  001c6	66 89 4d e8	 mov	 WORD PTR tv153[ebp], cx
  001ca	8b 55 08	 mov	 edx, DWORD PTR _in_ptr$[ebp]
  001cd	83 c2 02	 add	 edx, 2
  001d0	89 55 08	 mov	 DWORD PTR _in_ptr$[ebp], edx
  001d3	0f b7 45 e8	 movzx	 eax, WORD PTR tv153[ebp]
  001d7	50		 push	 eax
  001d8	e8 00 00 00 00	 call	 ?ParseHexDigit@Internal@Core@Math@Palmtree@@YAH_W@Z ; Palmtree::Math::Core::Internal::ParseHexDigit
  001dd	83 c4 04	 add	 esp, 4
  001e0	8b 4d fc	 mov	 ecx, DWORD PTR _x$[ebp]
  001e3	c1 e1 04	 shl	 ecx, 4
  001e6	03 c8		 add	 ecx, eax
  001e8	89 4d fc	 mov	 DWORD PTR _x$[ebp], ecx

; 1145 :             x = x * 16 + ParseHexDigit(*in_ptr++);

  001eb	8b 55 08	 mov	 edx, DWORD PTR _in_ptr$[ebp]
  001ee	66 8b 02	 mov	 ax, WORD PTR [edx]
  001f1	66 89 45 e6	 mov	 WORD PTR tv159[ebp], ax
  001f5	8b 4d 08	 mov	 ecx, DWORD PTR _in_ptr$[ebp]
  001f8	83 c1 02	 add	 ecx, 2
  001fb	89 4d 08	 mov	 DWORD PTR _in_ptr$[ebp], ecx
  001fe	0f b7 55 e6	 movzx	 edx, WORD PTR tv159[ebp]
  00202	52		 push	 edx
  00203	e8 00 00 00 00	 call	 ?ParseHexDigit@Internal@Core@Math@Palmtree@@YAH_W@Z ; Palmtree::Math::Core::Internal::ParseHexDigit
  00208	83 c4 04	 add	 esp, 4
  0020b	8b 4d fc	 mov	 ecx, DWORD PTR _x$[ebp]
  0020e	c1 e1 04	 shl	 ecx, 4
  00211	03 c8		 add	 ecx, eax
  00213	89 4d fc	 mov	 DWORD PTR _x$[ebp], ecx

; 1146 :             x = x * 16 + ParseHexDigit(*in_ptr++);

  00216	8b 55 08	 mov	 edx, DWORD PTR _in_ptr$[ebp]
  00219	66 8b 02	 mov	 ax, WORD PTR [edx]
  0021c	66 89 45 e4	 mov	 WORD PTR tv165[ebp], ax
  00220	8b 4d 08	 mov	 ecx, DWORD PTR _in_ptr$[ebp]
  00223	83 c1 02	 add	 ecx, 2
  00226	89 4d 08	 mov	 DWORD PTR _in_ptr$[ebp], ecx
  00229	0f b7 55 e4	 movzx	 edx, WORD PTR tv165[ebp]
  0022d	52		 push	 edx
  0022e	e8 00 00 00 00	 call	 ?ParseHexDigit@Internal@Core@Math@Palmtree@@YAH_W@Z ; Palmtree::Math::Core::Internal::ParseHexDigit
  00233	83 c4 04	 add	 esp, 4
  00236	8b 4d fc	 mov	 ecx, DWORD PTR _x$[ebp]
  00239	c1 e1 04	 shl	 ecx, 4
  0023c	03 c8		 add	 ecx, eax
  0023e	89 4d fc	 mov	 DWORD PTR _x$[ebp], ecx

; 1147 :             x = x * 16 + ParseHexDigit(*in_ptr++);

  00241	8b 55 08	 mov	 edx, DWORD PTR _in_ptr$[ebp]
  00244	66 8b 02	 mov	 ax, WORD PTR [edx]
  00247	66 89 45 e2	 mov	 WORD PTR tv171[ebp], ax
  0024b	8b 4d 08	 mov	 ecx, DWORD PTR _in_ptr$[ebp]
  0024e	83 c1 02	 add	 ecx, 2
  00251	89 4d 08	 mov	 DWORD PTR _in_ptr$[ebp], ecx
  00254	0f b7 55 e2	 movzx	 edx, WORD PTR tv171[ebp]
  00258	52		 push	 edx
  00259	e8 00 00 00 00	 call	 ?ParseHexDigit@Internal@Core@Math@Palmtree@@YAH_W@Z ; Palmtree::Math::Core::Internal::ParseHexDigit
  0025e	83 c4 04	 add	 esp, 4
  00261	8b 4d fc	 mov	 ecx, DWORD PTR _x$[ebp]
  00264	c1 e1 04	 shl	 ecx, 4
  00267	03 c8		 add	 ecx, eax
  00269	89 4d fc	 mov	 DWORD PTR _x$[ebp], ecx
$LN3@Build1Word:

; 1148 :         }
; 1149 :         if (sizeof(__UNIT_TYPE) >= sizeof(_UINT16_T))

  0026c	ba 01 00 00 00	 mov	 edx, 1
  00271	85 d2		 test	 edx, edx
  00273	74 56		 je	 SHORT $LN4@Build1Word

; 1150 :         {
; 1151 :             x = x * 16 + ParseHexDigit(*in_ptr++);

  00275	8b 45 08	 mov	 eax, DWORD PTR _in_ptr$[ebp]
  00278	66 8b 08	 mov	 cx, WORD PTR [eax]
  0027b	66 89 4d e0	 mov	 WORD PTR tv178[ebp], cx
  0027f	8b 55 08	 mov	 edx, DWORD PTR _in_ptr$[ebp]
  00282	83 c2 02	 add	 edx, 2
  00285	89 55 08	 mov	 DWORD PTR _in_ptr$[ebp], edx
  00288	0f b7 45 e0	 movzx	 eax, WORD PTR tv178[ebp]
  0028c	50		 push	 eax
  0028d	e8 00 00 00 00	 call	 ?ParseHexDigit@Internal@Core@Math@Palmtree@@YAH_W@Z ; Palmtree::Math::Core::Internal::ParseHexDigit
  00292	83 c4 04	 add	 esp, 4
  00295	8b 4d fc	 mov	 ecx, DWORD PTR _x$[ebp]
  00298	c1 e1 04	 shl	 ecx, 4
  0029b	03 c8		 add	 ecx, eax
  0029d	89 4d fc	 mov	 DWORD PTR _x$[ebp], ecx

; 1152 :             x = x * 16 + ParseHexDigit(*in_ptr++);

  002a0	8b 55 08	 mov	 edx, DWORD PTR _in_ptr$[ebp]
  002a3	66 8b 02	 mov	 ax, WORD PTR [edx]
  002a6	66 89 45 de	 mov	 WORD PTR tv184[ebp], ax
  002aa	8b 4d 08	 mov	 ecx, DWORD PTR _in_ptr$[ebp]
  002ad	83 c1 02	 add	 ecx, 2
  002b0	89 4d 08	 mov	 DWORD PTR _in_ptr$[ebp], ecx
  002b3	0f b7 55 de	 movzx	 edx, WORD PTR tv184[ebp]
  002b7	52		 push	 edx
  002b8	e8 00 00 00 00	 call	 ?ParseHexDigit@Internal@Core@Math@Palmtree@@YAH_W@Z ; Palmtree::Math::Core::Internal::ParseHexDigit
  002bd	83 c4 04	 add	 esp, 4
  002c0	8b 4d fc	 mov	 ecx, DWORD PTR _x$[ebp]
  002c3	c1 e1 04	 shl	 ecx, 4
  002c6	03 c8		 add	 ecx, eax
  002c8	89 4d fc	 mov	 DWORD PTR _x$[ebp], ecx
$LN4@Build1Word:

; 1153 :         }
; 1154 :         if (sizeof(__UNIT_TYPE) >= sizeof(_BYTE_T))

  002cb	ba 01 00 00 00	 mov	 edx, 1
  002d0	85 d2		 test	 edx, edx
  002d2	74 2b		 je	 SHORT $LN5@Build1Word

; 1155 :         {
; 1156 :             x = x * 16 + ParseHexDigit(*in_ptr++);

  002d4	8b 45 08	 mov	 eax, DWORD PTR _in_ptr$[ebp]
  002d7	66 8b 08	 mov	 cx, WORD PTR [eax]
  002da	66 89 4d dc	 mov	 WORD PTR tv191[ebp], cx
  002de	8b 55 08	 mov	 edx, DWORD PTR _in_ptr$[ebp]
  002e1	83 c2 02	 add	 edx, 2
  002e4	89 55 08	 mov	 DWORD PTR _in_ptr$[ebp], edx
  002e7	0f b7 45 dc	 movzx	 eax, WORD PTR tv191[ebp]
  002eb	50		 push	 eax
  002ec	e8 00 00 00 00	 call	 ?ParseHexDigit@Internal@Core@Math@Palmtree@@YAH_W@Z ; Palmtree::Math::Core::Internal::ParseHexDigit
  002f1	83 c4 04	 add	 esp, 4
  002f4	8b 4d fc	 mov	 ecx, DWORD PTR _x$[ebp]
  002f7	c1 e1 04	 shl	 ecx, 4
  002fa	03 c8		 add	 ecx, eax
  002fc	89 4d fc	 mov	 DWORD PTR _x$[ebp], ecx
$LN5@Build1Word:

; 1157 :         }
; 1158 :         return (x);

  002ff	8b 45 fc	 mov	 eax, DWORD PTR _x$[ebp]

; 1159 :     }

  00302	83 c4 24	 add	 esp, 36			; 00000024H
  00305	3b ec		 cmp	 ebp, esp
  00307	e8 00 00 00 00	 call	 __RTC_CheckEsp
  0030c	8b e5		 mov	 esp, ebp
  0030e	5d		 pop	 ebp
  0030f	c3		 ret	 0
?Build1WordFromHexString@Internal@Core@Math@Palmtree@@YAIPA_W@Z ENDP ; Palmtree::Math::Core::Internal::Build1WordFromHexString
_TEXT	ENDS
; Function compile flags: /Odtp /RTCsu
; File z:\sources\lunor\repos\rougemeilland\palmtree.math.core.uint\palmtree.math.core.uint\pmc_parse.cpp
_TEXT	SEGMENT
_x$ = -4						; size = 4
_in_ptr$ = 8						; size = 4
_count$ = 12						; size = 4
?BuildLeading1WordFromHexString@Internal@Core@Math@Palmtree@@YAIPA_WI@Z PROC ; Palmtree::Math::Core::Internal::BuildLeading1WordFromHexString

; 1115 :     {

  00000	55		 push	 ebp
  00001	8b ec		 mov	 ebp, esp
  00003	51		 push	 ecx
  00004	56		 push	 esi
  00005	c7 45 fc cc cc
	cc cc		 mov	 DWORD PTR [ebp-4], -858993460 ; ccccccccH
  0000c	b9 00 00 00 00	 mov	 ecx, OFFSET __F159A697_pmc_parse@cpp
  00011	e8 00 00 00 00	 call	 @__CheckForDebuggerJustMyCode@4

; 1116 :         __UNIT_TYPE x = ParseHexDigit(*in_ptr);

  00016	8b 45 08	 mov	 eax, DWORD PTR _in_ptr$[ebp]
  00019	0f b7 08	 movzx	 ecx, WORD PTR [eax]
  0001c	51		 push	 ecx
  0001d	e8 00 00 00 00	 call	 ?ParseHexDigit@Internal@Core@Math@Palmtree@@YAH_W@Z ; Palmtree::Math::Core::Internal::ParseHexDigit
  00022	83 c4 04	 add	 esp, 4
  00025	89 45 fc	 mov	 DWORD PTR _x$[ebp], eax

; 1117 :         ++in_ptr;

  00028	8b 55 08	 mov	 edx, DWORD PTR _in_ptr$[ebp]
  0002b	83 c2 02	 add	 edx, 2
  0002e	89 55 08	 mov	 DWORD PTR _in_ptr$[ebp], edx

; 1118 :         --count;

  00031	8b 45 0c	 mov	 eax, DWORD PTR _count$[ebp]
  00034	83 e8 01	 sub	 eax, 1
  00037	89 45 0c	 mov	 DWORD PTR _count$[ebp], eax
$LN2@BuildLeadi:

; 1119 :         while (count > 0)

  0003a	83 7d 0c 00	 cmp	 DWORD PTR _count$[ebp], 0
  0003e	76 2e		 jbe	 SHORT $LN3@BuildLeadi

; 1120 :         {
; 1121 :             x = x * 16 + ParseHexDigit(*in_ptr);

  00040	8b 75 fc	 mov	 esi, DWORD PTR _x$[ebp]
  00043	c1 e6 04	 shl	 esi, 4
  00046	8b 4d 08	 mov	 ecx, DWORD PTR _in_ptr$[ebp]
  00049	0f b7 11	 movzx	 edx, WORD PTR [ecx]
  0004c	52		 push	 edx
  0004d	e8 00 00 00 00	 call	 ?ParseHexDigit@Internal@Core@Math@Palmtree@@YAH_W@Z ; Palmtree::Math::Core::Internal::ParseHexDigit
  00052	83 c4 04	 add	 esp, 4
  00055	03 f0		 add	 esi, eax
  00057	89 75 fc	 mov	 DWORD PTR _x$[ebp], esi

; 1122 :             ++in_ptr;

  0005a	8b 45 08	 mov	 eax, DWORD PTR _in_ptr$[ebp]
  0005d	83 c0 02	 add	 eax, 2
  00060	89 45 08	 mov	 DWORD PTR _in_ptr$[ebp], eax

; 1123 :             --count;

  00063	8b 4d 0c	 mov	 ecx, DWORD PTR _count$[ebp]
  00066	83 e9 01	 sub	 ecx, 1
  00069	89 4d 0c	 mov	 DWORD PTR _count$[ebp], ecx

; 1124 :         }

  0006c	eb cc		 jmp	 SHORT $LN2@BuildLeadi
$LN3@BuildLeadi:

; 1125 :         return (x);

  0006e	8b 45 fc	 mov	 eax, DWORD PTR _x$[ebp]

; 1126 :     }

  00071	5e		 pop	 esi
  00072	83 c4 04	 add	 esp, 4
  00075	3b ec		 cmp	 ebp, esp
  00077	e8 00 00 00 00	 call	 __RTC_CheckEsp
  0007c	8b e5		 mov	 esp, ebp
  0007e	5d		 pop	 ebp
  0007f	c3		 ret	 0
?BuildLeading1WordFromHexString@Internal@Core@Math@Palmtree@@YAIPA_WI@Z ENDP ; Palmtree::Math::Core::Internal::BuildLeading1WordFromHexString
_TEXT	ENDS
; Function compile flags: /Odtp /RTCsu
; File z:\sources\lunor\repos\rougemeilland\palmtree.math.core.uint\palmtree.math.core.uint\pmc_parse.cpp
_TEXT	SEGMENT
tv87 = -213						; size = 1
$T2 = -212						; size = 4
$T3 = -208						; size = 24
$T4 = -184						; size = 24
$T5 = -160						; size = 24
$T6 = -136						; size = 4
$T7 = -132						; size = 4
$T8 = -128						; size = 4
$T9 = -124						; size = 4
$T10 = -120						; size = 4
$T11 = -116						; size = 4
$T12 = -112						; size = 4
$T13 = -108						; size = 4
$T14 = -104						; size = 4
$T15 = -100						; size = 4
_o_bit_count$ = -96					; size = 4
_bin_buf_count$ = -88					; size = 4
_bin_buf$ = -80						; size = 4
_frac_ptr$ = -76					; size = 4
_d_ptr$16 = -72						; size = 4
_s_ptr$17 = -68						; size = 4
_result_parsing$ = -61					; size = 1
_frac_part_buf$ = -60					; size = 4
_frac_part_buf_count$ = -56				; size = 4
_int_part_buf$ = -52					; size = 4
_int_part_buf_count$ = -48				; size = 4
_source_len$ = -44					; size = 4
_root$ = -36						; size = 16
_word_digit_count$ = -16				; size = 4
__$EHRec$ = -12						; size = 12
_source$ = 8						; size = 4
_number_styles$ = 12					; size = 4
_format_option$ = 16					; size = 4
_o_sign$ = 20						; size = 4
_o_abs$ = 24						; size = 4
_result$ = 28						; size = 4
?TryParseDN@Internal@Core@Math@Palmtree@@YAHPB_WIPBU__tag_PMC_NUMBER_FORMAT_INFO@1234@PADPAPAU__tag_NUMBER_HEADER@1234@PAI@Z PROC ; Palmtree::Math::Core::Internal::TryParseDN

; 967  :     {

  00000	55		 push	 ebp
  00001	8b ec		 mov	 ebp, esp
  00003	6a ff		 push	 -1
  00005	68 00 00 00 00	 push	 __ehhandler$?TryParseDN@Internal@Core@Math@Palmtree@@YAHPB_WIPBU__tag_PMC_NUMBER_FORMAT_INFO@1234@PADPAPAU__tag_NUMBER_HEADER@1234@PAI@Z
  0000a	64 a1 00 00 00
	00		 mov	 eax, DWORD PTR fs:0
  00010	50		 push	 eax
  00011	81 ec cc 00 00
	00		 sub	 esp, 204		; 000000ccH
  00017	56		 push	 esi
  00018	57		 push	 edi
  00019	8d bd 28 ff ff
	ff		 lea	 edi, DWORD PTR [ebp-216]
  0001f	b9 33 00 00 00	 mov	 ecx, 51			; 00000033H
  00024	b8 cc cc cc cc	 mov	 eax, -858993460		; ccccccccH
  00029	f3 ab		 rep stosd
  0002b	a1 00 00 00 00	 mov	 eax, DWORD PTR ___security_cookie
  00030	33 c5		 xor	 eax, ebp
  00032	50		 push	 eax
  00033	8d 45 f4	 lea	 eax, DWORD PTR __$EHRec$[ebp]
  00036	64 a3 00 00 00
	00		 mov	 DWORD PTR fs:0, eax
  0003c	b9 00 00 00 00	 mov	 ecx, OFFSET __F159A697_pmc_parse@cpp
  00041	e8 00 00 00 00	 call	 @__CheckForDebuggerJustMyCode@4

; 968  : #ifdef _M_IX86
; 969  :         int word_digit_count = 9;

  00046	c7 45 f0 09 00
	00 00		 mov	 DWORD PTR _word_digit_count$[ebp], 9

; 970  : #elif defined(_M_X64)
; 971  :         int word_digit_count = 19;
; 972  : #else
; 973  : #error unknown platform
; 974  : #endif
; 975  : 
; 976  :         ResourceHolderUINT root;

  0004d	8d 4d dc	 lea	 ecx, DWORD PTR _root$[ebp]
  00050	e8 00 00 00 00	 call	 ??0ResourceHolderUINT@Internal@Core@Math@Palmtree@@QAE@XZ ; Palmtree::Math::Core::Internal::ResourceHolderUINT::ResourceHolderUINT
  00055	c7 45 fc 00 00
	00 00		 mov	 DWORD PTR __$EHRec$[ebp+8], 0

; 977  : 
; 978  :         __UNIT_TYPE source_len = lstrlenW(source);

  0005c	8b f4		 mov	 esi, esp
  0005e	8b 45 08	 mov	 eax, DWORD PTR _source$[ebp]
  00061	50		 push	 eax
  00062	ff 15 00 00 00
	00		 call	 DWORD PTR __imp__lstrlenW@4
  00068	3b f4		 cmp	 esi, esp
  0006a	e8 00 00 00 00	 call	 __RTC_CheckEsp
  0006f	89 45 d4	 mov	 DWORD PTR _source_len$[ebp], eax

; 979  : 
; 980  :         size_t int_part_buf_count = source_len + 1;

  00072	8b 4d d4	 mov	 ecx, DWORD PTR _source_len$[ebp]
  00075	83 c1 01	 add	 ecx, 1
  00078	89 4d d0	 mov	 DWORD PTR _int_part_buf_count$[ebp], ecx

; 981  :         wchar_t* int_part_buf = root.AllocateString(int_part_buf_count);

  0007b	8b 55 d0	 mov	 edx, DWORD PTR _int_part_buf_count$[ebp]
  0007e	52		 push	 edx
  0007f	8d 4d dc	 lea	 ecx, DWORD PTR _root$[ebp]
  00082	e8 00 00 00 00	 call	 ?AllocateString@ResourceHolderUINT@Internal@Core@Math@Palmtree@@QAEPA_WI@Z ; Palmtree::Math::Core::Internal::ResourceHolderUINT::AllocateString
  00087	89 45 cc	 mov	 DWORD PTR _int_part_buf$[ebp], eax

; 982  :         size_t frac_part_buf_count = source_len + 1;

  0008a	8b 45 d4	 mov	 eax, DWORD PTR _source_len$[ebp]
  0008d	83 c0 01	 add	 eax, 1
  00090	89 45 c8	 mov	 DWORD PTR _frac_part_buf_count$[ebp], eax

; 983  :         wchar_t* frac_part_buf = root.AllocateString(frac_part_buf_count);

  00093	8b 4d c8	 mov	 ecx, DWORD PTR _frac_part_buf_count$[ebp]
  00096	51		 push	 ecx
  00097	8d 4d dc	 lea	 ecx, DWORD PTR _root$[ebp]
  0009a	e8 00 00 00 00	 call	 ?AllocateString@ResourceHolderUINT@Internal@Core@Math@Palmtree@@QAEPA_WI@Z ; Palmtree::Math::Core::Internal::ResourceHolderUINT::AllocateString
  0009f	89 45 c4	 mov	 DWORD PTR _frac_part_buf$[ebp], eax

; 984  :         bool result_parsing = ParseAsDecimalNumberString(source, number_styles, format_option, o_sign, int_part_buf, int_part_buf_count, frac_part_buf, frac_part_buf_count);

  000a2	8b 55 c8	 mov	 edx, DWORD PTR _frac_part_buf_count$[ebp]
  000a5	52		 push	 edx
  000a6	8b 45 c4	 mov	 eax, DWORD PTR _frac_part_buf$[ebp]
  000a9	50		 push	 eax
  000aa	8b 4d d0	 mov	 ecx, DWORD PTR _int_part_buf_count$[ebp]
  000ad	51		 push	 ecx
  000ae	8b 55 cc	 mov	 edx, DWORD PTR _int_part_buf$[ebp]
  000b1	52		 push	 edx
  000b2	8b 45 14	 mov	 eax, DWORD PTR _o_sign$[ebp]
  000b5	50		 push	 eax
  000b6	8b 4d 10	 mov	 ecx, DWORD PTR _format_option$[ebp]
  000b9	51		 push	 ecx
  000ba	8b 55 0c	 mov	 edx, DWORD PTR _number_styles$[ebp]
  000bd	52		 push	 edx
  000be	8b 45 08	 mov	 eax, DWORD PTR _source$[ebp]
  000c1	50		 push	 eax
  000c2	e8 00 00 00 00	 call	 ?ParseAsDecimalNumberString@Internal@Core@Math@Palmtree@@YAHPB_WIPBU__tag_PMC_NUMBER_FORMAT_INFO@1234@PADPA_WI3I@Z ; Palmtree::Math::Core::Internal::ParseAsDecimalNumberString
  000c7	83 c4 20	 add	 esp, 32			; 00000020H
  000ca	85 c0		 test	 eax, eax
  000cc	74 09		 je	 SHORT $LN32@TryParseDN
  000ce	c6 85 2b ff ff
	ff 01		 mov	 BYTE PTR tv87[ebp], 1
  000d5	eb 07		 jmp	 SHORT $LN33@TryParseDN
$LN32@TryParseDN:
  000d7	c6 85 2b ff ff
	ff 00		 mov	 BYTE PTR tv87[ebp], 0
$LN33@TryParseDN:
  000de	8a 8d 2b ff ff
	ff		 mov	 cl, BYTE PTR tv87[ebp]
  000e4	88 4d c3	 mov	 BYTE PTR _result_parsing$[ebp], cl

; 985  :         root.CheckString(int_part_buf);

  000e7	8b 55 cc	 mov	 edx, DWORD PTR _int_part_buf$[ebp]
  000ea	52		 push	 edx
  000eb	8d 4d dc	 lea	 ecx, DWORD PTR _root$[ebp]
  000ee	e8 00 00 00 00	 call	 ?CheckString@ResourceHolderUINT@Internal@Core@Math@Palmtree@@QAEXPA_W@Z ; Palmtree::Math::Core::Internal::ResourceHolderUINT::CheckString

; 986  :         root.CheckString(frac_part_buf);

  000f3	8b 45 c4	 mov	 eax, DWORD PTR _frac_part_buf$[ebp]
  000f6	50		 push	 eax
  000f7	8d 4d dc	 lea	 ecx, DWORD PTR _root$[ebp]
  000fa	e8 00 00 00 00	 call	 ?CheckString@ResourceHolderUINT@Internal@Core@Math@Palmtree@@QAEXPA_W@Z ; Palmtree::Math::Core::Internal::ResourceHolderUINT::CheckString

; 987  :         if (!result_parsing)

  000ff	0f b6 4d c3	 movzx	 ecx, BYTE PTR _result_parsing$[ebp]
  00103	85 c9		 test	 ecx, ecx
  00105	75 4f		 jne	 SHORT $LN9@TryParseDN

; 988  :         {
; 989  :             *result = 0;

  00107	8b 55 1c	 mov	 edx, DWORD PTR _result$[ebp]
  0010a	c7 02 00 00 00
	00		 mov	 DWORD PTR [edx], 0

; 990  :             if (number_styles & PMC_NUMBER_STYLE_ALLOW_EXCEPTION_THROWING)

  00110	8b 45 0c	 mov	 eax, DWORD PTR _number_styles$[ebp]
  00113	25 00 00 00 02	 and	 eax, 33554432		; 02000000H
  00118	74 1e		 je	 SHORT $LN10@TryParseDN

; 991  :                 return (PMC_STATUS_FORMAT_ERROR);

  0011a	c7 45 9c f9 ff
	ff ff		 mov	 DWORD PTR $T15[ebp], -7	; fffffff9H
  00121	c7 45 fc ff ff
	ff ff		 mov	 DWORD PTR __$EHRec$[ebp+8], -1
  00128	8d 4d dc	 lea	 ecx, DWORD PTR _root$[ebp]
  0012b	e8 00 00 00 00	 call	 ??1ResourceHolderUINT@Internal@Core@Math@Palmtree@@UAE@XZ ; Palmtree::Math::Core::Internal::ResourceHolderUINT::~ResourceHolderUINT
  00130	8b 45 9c	 mov	 eax, DWORD PTR $T15[ebp]
  00133	e9 f8 04 00 00	 jmp	 $LN31@TryParseDN
$LN10@TryParseDN:

; 992  :             return (PMC_STATUS_OK);

  00138	c7 45 98 00 00
	00 00		 mov	 DWORD PTR $T14[ebp], 0
  0013f	c7 45 fc ff ff
	ff ff		 mov	 DWORD PTR __$EHRec$[ebp+8], -1
  00146	8d 4d dc	 lea	 ecx, DWORD PTR _root$[ebp]
  00149	e8 00 00 00 00	 call	 ??1ResourceHolderUINT@Internal@Core@Math@Palmtree@@UAE@XZ ; Palmtree::Math::Core::Internal::ResourceHolderUINT::~ResourceHolderUINT
  0014e	8b 45 98	 mov	 eax, DWORD PTR $T14[ebp]
  00151	e9 da 04 00 00	 jmp	 $LN31@TryParseDN
$LN9@TryParseDN:

; 993  :         }
; 994  :         if (int_part_buf[0] == L'\0' && (frac_part_buf[0] == L'\0' || frac_part_buf[0] == L'.' && frac_part_buf[1] == L'\0'))

  00156	b9 02 00 00 00	 mov	 ecx, 2
  0015b	6b d1 00	 imul	 edx, ecx, 0
  0015e	8b 45 cc	 mov	 eax, DWORD PTR _int_part_buf$[ebp]
  00161	0f b7 0c 10	 movzx	 ecx, WORD PTR [eax+edx]
  00165	85 c9		 test	 ecx, ecx
  00167	0f 85 8a 00 00
	00		 jne	 $LN11@TryParseDN
  0016d	ba 02 00 00 00	 mov	 edx, 2
  00172	6b c2 00	 imul	 eax, edx, 0
  00175	8b 4d c4	 mov	 ecx, DWORD PTR _frac_part_buf$[ebp]
  00178	0f b7 14 01	 movzx	 edx, WORD PTR [ecx+eax]
  0017c	85 d2		 test	 edx, edx
  0017e	74 27		 je	 SHORT $LN12@TryParseDN
  00180	b8 02 00 00 00	 mov	 eax, 2
  00185	6b c8 00	 imul	 ecx, eax, 0
  00188	8b 55 c4	 mov	 edx, DWORD PTR _frac_part_buf$[ebp]
  0018b	0f b7 04 0a	 movzx	 eax, WORD PTR [edx+ecx]
  0018f	83 f8 2e	 cmp	 eax, 46			; 0000002eH
  00192	75 63		 jne	 SHORT $LN11@TryParseDN
  00194	b9 02 00 00 00	 mov	 ecx, 2
  00199	c1 e1 00	 shl	 ecx, 0
  0019c	8b 55 c4	 mov	 edx, DWORD PTR _frac_part_buf$[ebp]
  0019f	0f b7 04 0a	 movzx	 eax, WORD PTR [edx+ecx]
  001a3	85 c0		 test	 eax, eax
  001a5	75 50		 jne	 SHORT $LN11@TryParseDN
$LN12@TryParseDN:

; 995  :         {
; 996  :             // 
; 997  :             *result = 0;

  001a7	8b 4d 1c	 mov	 ecx, DWORD PTR _result$[ebp]
  001aa	c7 01 00 00 00
	00		 mov	 DWORD PTR [ecx], 0

; 998  :             if (number_styles & PMC_NUMBER_STYLE_ALLOW_EXCEPTION_THROWING)

  001b0	8b 55 0c	 mov	 edx, DWORD PTR _number_styles$[ebp]
  001b3	81 e2 00 00 00
	02		 and	 edx, 33554432		; 02000000H
  001b9	74 1e		 je	 SHORT $LN13@TryParseDN

; 999  :                 return (PMC_STATUS_FORMAT_ERROR);

  001bb	c7 45 94 f9 ff
	ff ff		 mov	 DWORD PTR $T13[ebp], -7	; fffffff9H
  001c2	c7 45 fc ff ff
	ff ff		 mov	 DWORD PTR __$EHRec$[ebp+8], -1
  001c9	8d 4d dc	 lea	 ecx, DWORD PTR _root$[ebp]
  001cc	e8 00 00 00 00	 call	 ??1ResourceHolderUINT@Internal@Core@Math@Palmtree@@UAE@XZ ; Palmtree::Math::Core::Internal::ResourceHolderUINT::~ResourceHolderUINT
  001d1	8b 45 94	 mov	 eax, DWORD PTR $T13[ebp]
  001d4	e9 57 04 00 00	 jmp	 $LN31@TryParseDN
$LN13@TryParseDN:

; 1000 :             return (PMC_STATUS_OK);

  001d9	c7 45 90 00 00
	00 00		 mov	 DWORD PTR $T12[ebp], 0
  001e0	c7 45 fc ff ff
	ff ff		 mov	 DWORD PTR __$EHRec$[ebp+8], -1
  001e7	8d 4d dc	 lea	 ecx, DWORD PTR _root$[ebp]
  001ea	e8 00 00 00 00	 call	 ??1ResourceHolderUINT@Internal@Core@Math@Palmtree@@UAE@XZ ; Palmtree::Math::Core::Internal::ResourceHolderUINT::~ResourceHolderUINT
  001ef	8b 45 90	 mov	 eax, DWORD PTR $T12[ebp]
  001f2	e9 39 04 00 00	 jmp	 $LN31@TryParseDN
$LN11@TryParseDN:

; 1001 :         }
; 1002 : 
; 1003 :         if (*o_sign < 0 && frac_part_buf[0] != L'\0')

  001f7	8b 45 14	 mov	 eax, DWORD PTR _o_sign$[ebp]
  001fa	0f be 08	 movsx	 ecx, BYTE PTR [eax]
  001fd	85 c9		 test	 ecx, ecx
  001ff	7d 6d		 jge	 SHORT $LN14@TryParseDN
  00201	ba 02 00 00 00	 mov	 edx, 2
  00206	6b c2 00	 imul	 eax, edx, 0
  00209	8b 4d c4	 mov	 ecx, DWORD PTR _frac_part_buf$[ebp]
  0020c	0f b7 14 01	 movzx	 edx, WORD PTR [ecx+eax]
  00210	85 d2		 test	 edx, edx
  00212	74 5a		 je	 SHORT $LN14@TryParseDN

; 1004 :         {
; 1005 :             //  (OverflowException) ( '0' )
; 1006 :             //  uint.Parse 
; 1007 : 
; 1008 :             if ((number_styles & PMC_NUMBER_STYLE_ALLOW_SIGNED_INTEGER) == 0)

  00214	8b 45 0c	 mov	 eax, DWORD PTR _number_styles$[ebp]
  00217	25 00 00 00 01	 and	 eax, 16777216		; 01000000H
  0021c	75 50		 jne	 SHORT $LN14@TryParseDN

; 1009 :             {
; 1010 :                 // 
; 1011 : 
; 1012 :                 *result = 0;

  0021e	8b 4d 1c	 mov	 ecx, DWORD PTR _result$[ebp]
  00221	c7 01 00 00 00
	00		 mov	 DWORD PTR [ecx], 0

; 1013 :                 if (number_styles & PMC_NUMBER_STYLE_ALLOW_EXCEPTION_THROWING)

  00227	8b 55 0c	 mov	 edx, DWORD PTR _number_styles$[ebp]
  0022a	81 e2 00 00 00
	02		 and	 edx, 33554432		; 02000000H
  00230	74 1e		 je	 SHORT $LN16@TryParseDN

; 1014 :                     return (PMC_STATUS_OVERFLOW);

  00232	c7 45 8c fc ff
	ff ff		 mov	 DWORD PTR $T11[ebp], -4	; fffffffcH
  00239	c7 45 fc ff ff
	ff ff		 mov	 DWORD PTR __$EHRec$[ebp+8], -1
  00240	8d 4d dc	 lea	 ecx, DWORD PTR _root$[ebp]
  00243	e8 00 00 00 00	 call	 ??1ResourceHolderUINT@Internal@Core@Math@Palmtree@@UAE@XZ ; Palmtree::Math::Core::Internal::ResourceHolderUINT::~ResourceHolderUINT
  00248	8b 45 8c	 mov	 eax, DWORD PTR $T11[ebp]
  0024b	e9 e0 03 00 00	 jmp	 $LN31@TryParseDN
$LN16@TryParseDN:

; 1015 :                 return (PMC_STATUS_OK);

  00250	c7 45 88 00 00
	00 00		 mov	 DWORD PTR $T10[ebp], 0
  00257	c7 45 fc ff ff
	ff ff		 mov	 DWORD PTR __$EHRec$[ebp+8], -1
  0025e	8d 4d dc	 lea	 ecx, DWORD PTR _root$[ebp]
  00261	e8 00 00 00 00	 call	 ??1ResourceHolderUINT@Internal@Core@Math@Palmtree@@UAE@XZ ; Palmtree::Math::Core::Internal::ResourceHolderUINT::~ResourceHolderUINT
  00266	8b 45 88	 mov	 eax, DWORD PTR $T10[ebp]
  00269	e9 c2 03 00 00	 jmp	 $LN31@TryParseDN
$LN14@TryParseDN:

; 1016 :             }
; 1017 :         }
; 1018 : 
; 1019 :         if (int_part_buf[0] == L'0')

  0026e	b8 02 00 00 00	 mov	 eax, 2
  00273	6b c8 00	 imul	 ecx, eax, 0
  00276	8b 55 cc	 mov	 edx, DWORD PTR _int_part_buf$[ebp]
  00279	0f b7 04 0a	 movzx	 eax, WORD PTR [edx+ecx]
  0027d	83 f8 30	 cmp	 eax, 48			; 00000030H
  00280	75 4e		 jne	 SHORT $LN17@TryParseDN

; 1020 :         {
; 1021 :             //  0 
; 1022 :             wchar_t* s_ptr = int_part_buf;

  00282	8b 4d cc	 mov	 ecx, DWORD PTR _int_part_buf$[ebp]
  00285	89 4d bc	 mov	 DWORD PTR _s_ptr$17[ebp], ecx

; 1023 :             wchar_t* d_ptr = int_part_buf;

  00288	8b 55 cc	 mov	 edx, DWORD PTR _int_part_buf$[ebp]
  0028b	89 55 b8	 mov	 DWORD PTR _d_ptr$16[ebp], edx
$LN2@TryParseDN:

; 1024 :             while (*s_ptr == L'0')

  0028e	8b 45 bc	 mov	 eax, DWORD PTR _s_ptr$17[ebp]
  00291	0f b7 08	 movzx	 ecx, WORD PTR [eax]
  00294	83 f9 30	 cmp	 ecx, 48			; 00000030H
  00297	75 0b		 jne	 SHORT $LN6@TryParseDN

; 1025 :                 ++s_ptr;

  00299	8b 55 bc	 mov	 edx, DWORD PTR _s_ptr$17[ebp]
  0029c	83 c2 02	 add	 edx, 2
  0029f	89 55 bc	 mov	 DWORD PTR _s_ptr$17[ebp], edx
  002a2	eb ea		 jmp	 SHORT $LN2@TryParseDN
$LN6@TryParseDN:

; 1026 :             for (;;)
; 1027 :             {
; 1028 :                 *d_ptr = *s_ptr;

  002a4	8b 45 b8	 mov	 eax, DWORD PTR _d_ptr$16[ebp]
  002a7	8b 4d bc	 mov	 ecx, DWORD PTR _s_ptr$17[ebp]
  002aa	66 8b 11	 mov	 dx, WORD PTR [ecx]
  002ad	66 89 10	 mov	 WORD PTR [eax], dx

; 1029 :                 if (*s_ptr == L'\0')

  002b0	8b 45 bc	 mov	 eax, DWORD PTR _s_ptr$17[ebp]
  002b3	0f b7 08	 movzx	 ecx, WORD PTR [eax]
  002b6	85 c9		 test	 ecx, ecx
  002b8	75 02		 jne	 SHORT $LN18@TryParseDN

; 1030 :                     break;

  002ba	eb 14		 jmp	 SHORT $LN17@TryParseDN
$LN18@TryParseDN:

; 1031 :                 ++s_ptr;

  002bc	8b 55 bc	 mov	 edx, DWORD PTR _s_ptr$17[ebp]
  002bf	83 c2 02	 add	 edx, 2
  002c2	89 55 bc	 mov	 DWORD PTR _s_ptr$17[ebp], edx

; 1032 :                 ++d_ptr;

  002c5	8b 45 b8	 mov	 eax, DWORD PTR _d_ptr$16[ebp]
  002c8	83 c0 02	 add	 eax, 2
  002cb	89 45 b8	 mov	 DWORD PTR _d_ptr$16[ebp], eax

; 1033 :             }

  002ce	eb d4		 jmp	 SHORT $LN6@TryParseDN
$LN17@TryParseDN:

; 1034 :         }
; 1035 : 
; 1036 :         //  0 
; 1037 :         wchar_t* frac_ptr = frac_part_buf + lstrlenW(frac_part_buf);

  002d0	8b f4		 mov	 esi, esp
  002d2	8b 4d c4	 mov	 ecx, DWORD PTR _frac_part_buf$[ebp]
  002d5	51		 push	 ecx
  002d6	ff 15 00 00 00
	00		 call	 DWORD PTR __imp__lstrlenW@4
  002dc	3b f4		 cmp	 esi, esp
  002de	e8 00 00 00 00	 call	 __RTC_CheckEsp
  002e3	8b 55 c4	 mov	 edx, DWORD PTR _frac_part_buf$[ebp]
  002e6	8d 04 42	 lea	 eax, DWORD PTR [edx+eax*2]
  002e9	89 45 b4	 mov	 DWORD PTR _frac_ptr$[ebp], eax
$LN7@TryParseDN:

; 1038 :         while (frac_ptr > frac_part_buf && frac_ptr[-1] == L'0')

  002ec	8b 4d b4	 mov	 ecx, DWORD PTR _frac_ptr$[ebp]
  002ef	3b 4d c4	 cmp	 ecx, DWORD PTR _frac_part_buf$[ebp]
  002f2	76 1f		 jbe	 SHORT $LN8@TryParseDN
  002f4	ba 02 00 00 00	 mov	 edx, 2
  002f9	6b c2 ff	 imul	 eax, edx, -1
  002fc	8b 4d b4	 mov	 ecx, DWORD PTR _frac_ptr$[ebp]
  002ff	0f b7 14 01	 movzx	 edx, WORD PTR [ecx+eax]
  00303	83 fa 30	 cmp	 edx, 48			; 00000030H
  00306	75 0b		 jne	 SHORT $LN8@TryParseDN

; 1039 :             --frac_ptr;

  00308	8b 45 b4	 mov	 eax, DWORD PTR _frac_ptr$[ebp]
  0030b	83 e8 02	 sub	 eax, 2
  0030e	89 45 b4	 mov	 DWORD PTR _frac_ptr$[ebp], eax
  00311	eb d9		 jmp	 SHORT $LN7@TryParseDN
$LN8@TryParseDN:

; 1040 :         *frac_ptr = L'\0';

  00313	33 c9		 xor	 ecx, ecx
  00315	8b 55 b4	 mov	 edx, DWORD PTR _frac_ptr$[ebp]
  00318	66 89 0a	 mov	 WORD PTR [edx], cx

; 1041 : 
; 1042 :         //  0 
; 1043 :         if (!(frac_part_buf[0] == L'\0' || frac_part_buf[0] == L'.' && frac_part_buf[1] == L'\0'))

  0031b	b8 02 00 00 00	 mov	 eax, 2
  00320	6b c8 00	 imul	 ecx, eax, 0
  00323	8b 55 c4	 mov	 edx, DWORD PTR _frac_part_buf$[ebp]
  00326	0f b7 04 0a	 movzx	 eax, WORD PTR [edx+ecx]
  0032a	85 c0		 test	 eax, eax
  0032c	74 76		 je	 SHORT $LN19@TryParseDN
  0032e	b9 02 00 00 00	 mov	 ecx, 2
  00333	6b d1 00	 imul	 edx, ecx, 0
  00336	8b 45 c4	 mov	 eax, DWORD PTR _frac_part_buf$[ebp]
  00339	0f b7 0c 10	 movzx	 ecx, WORD PTR [eax+edx]
  0033d	83 f9 2e	 cmp	 ecx, 46			; 0000002eH
  00340	75 13		 jne	 SHORT $LN20@TryParseDN
  00342	ba 02 00 00 00	 mov	 edx, 2
  00347	c1 e2 00	 shl	 edx, 0
  0034a	8b 45 c4	 mov	 eax, DWORD PTR _frac_part_buf$[ebp]
  0034d	0f b7 0c 10	 movzx	 ecx, WORD PTR [eax+edx]
  00351	85 c9		 test	 ecx, ecx
  00353	74 4f		 je	 SHORT $LN19@TryParseDN
$LN20@TryParseDN:

; 1044 :         {
; 1045 :             *result = 0;

  00355	8b 55 1c	 mov	 edx, DWORD PTR _result$[ebp]
  00358	c7 02 00 00 00
	00		 mov	 DWORD PTR [edx], 0

; 1046 :             if (number_styles & PMC_NUMBER_STYLE_ALLOW_EXCEPTION_THROWING)

  0035e	8b 45 0c	 mov	 eax, DWORD PTR _number_styles$[ebp]
  00361	25 00 00 00 02	 and	 eax, 33554432		; 02000000H
  00366	74 1e		 je	 SHORT $LN21@TryParseDN

; 1047 :                 return (PMC_STATUS_OVERFLOW);

  00368	c7 45 84 fc ff
	ff ff		 mov	 DWORD PTR $T9[ebp], -4	; fffffffcH
  0036f	c7 45 fc ff ff
	ff ff		 mov	 DWORD PTR __$EHRec$[ebp+8], -1
  00376	8d 4d dc	 lea	 ecx, DWORD PTR _root$[ebp]
  00379	e8 00 00 00 00	 call	 ??1ResourceHolderUINT@Internal@Core@Math@Palmtree@@UAE@XZ ; Palmtree::Math::Core::Internal::ResourceHolderUINT::~ResourceHolderUINT
  0037e	8b 45 84	 mov	 eax, DWORD PTR $T9[ebp]
  00381	e9 aa 02 00 00	 jmp	 $LN31@TryParseDN
$LN21@TryParseDN:

; 1048 :             return (PMC_STATUS_OK);

  00386	c7 45 80 00 00
	00 00		 mov	 DWORD PTR $T8[ebp], 0
  0038d	c7 45 fc ff ff
	ff ff		 mov	 DWORD PTR __$EHRec$[ebp+8], -1
  00394	8d 4d dc	 lea	 ecx, DWORD PTR _root$[ebp]
  00397	e8 00 00 00 00	 call	 ??1ResourceHolderUINT@Internal@Core@Math@Palmtree@@UAE@XZ ; Palmtree::Math::Core::Internal::ResourceHolderUINT::~ResourceHolderUINT
  0039c	8b 45 80	 mov	 eax, DWORD PTR $T8[ebp]
  0039f	e9 8c 02 00 00	 jmp	 $LN31@TryParseDN
$LN19@TryParseDN:

; 1049 :         }
; 1050 : 
; 1051 :         if (int_part_buf[0] == L'\0')

  003a4	b9 02 00 00 00	 mov	 ecx, 2
  003a9	6b d1 00	 imul	 edx, ecx, 0
  003ac	8b 45 cc	 mov	 eax, DWORD PTR _int_part_buf$[ebp]
  003af	0f b7 0c 10	 movzx	 ecx, WORD PTR [eax+edx]
  003b3	85 c9		 test	 ecx, ecx
  003b5	75 2b		 jne	 SHORT $LN22@TryParseDN

; 1052 :         {
; 1053 :             // 
; 1054 : 
; 1055 :             //  0  
; 1056 :             *o_sign = 0;

  003b7	8b 55 14	 mov	 edx, DWORD PTR _o_sign$[ebp]
  003ba	c6 02 00	 mov	 BYTE PTR [edx], 0

; 1057 : 
; 1058 :             //  0 
; 1059 :             int_part_buf[0] = L'0';

  003bd	b8 02 00 00 00	 mov	 eax, 2
  003c2	6b c8 00	 imul	 ecx, eax, 0
  003c5	ba 30 00 00 00	 mov	 edx, 48			; 00000030H
  003ca	8b 45 cc	 mov	 eax, DWORD PTR _int_part_buf$[ebp]
  003cd	66 89 14 08	 mov	 WORD PTR [eax+ecx], dx

; 1060 :             int_part_buf[1] = L'\0';

  003d1	b9 02 00 00 00	 mov	 ecx, 2
  003d6	c1 e1 00	 shl	 ecx, 0
  003d9	33 d2		 xor	 edx, edx
  003db	8b 45 cc	 mov	 eax, DWORD PTR _int_part_buf$[ebp]
  003de	66 89 14 08	 mov	 WORD PTR [eax+ecx], dx
$LN22@TryParseDN:

; 1061 :         }
; 1062 : 
; 1063 :         if (*o_sign < 0)

  003e2	8b 4d 14	 mov	 ecx, DWORD PTR _o_sign$[ebp]
  003e5	0f be 11	 movsx	 edx, BYTE PTR [ecx]
  003e8	85 d2		 test	 edx, edx
  003ea	7d 66		 jge	 SHORT $LN23@TryParseDN

; 1064 :         {
; 1065 :             // 
; 1066 : 
; 1067 :             if ((number_styles & PMC_NUMBER_STYLE_ALLOW_SIGNED_INTEGER) == 0)

  003ec	8b 45 0c	 mov	 eax, DWORD PTR _number_styles$[ebp]
  003ef	25 00 00 00 01	 and	 eax, 16777216		; 01000000H
  003f4	75 5c		 jne	 SHORT $LN23@TryParseDN

; 1068 :             {
; 1069 :                 // 
; 1070 : 
; 1071 :                 *result = 0;

  003f6	8b 4d 1c	 mov	 ecx, DWORD PTR _result$[ebp]
  003f9	c7 01 00 00 00
	00		 mov	 DWORD PTR [ecx], 0

; 1072 :                 if (number_styles & PMC_NUMBER_STYLE_ALLOW_EXCEPTION_THROWING)

  003ff	8b 55 0c	 mov	 edx, DWORD PTR _number_styles$[ebp]
  00402	81 e2 00 00 00
	02		 and	 edx, 33554432		; 02000000H
  00408	74 24		 je	 SHORT $LN25@TryParseDN

; 1073 :                     return (PMC_STATUS_OVERFLOW);

  0040a	c7 85 7c ff ff
	ff fc ff ff ff	 mov	 DWORD PTR $T7[ebp], -4	; fffffffcH
  00414	c7 45 fc ff ff
	ff ff		 mov	 DWORD PTR __$EHRec$[ebp+8], -1
  0041b	8d 4d dc	 lea	 ecx, DWORD PTR _root$[ebp]
  0041e	e8 00 00 00 00	 call	 ??1ResourceHolderUINT@Internal@Core@Math@Palmtree@@UAE@XZ ; Palmtree::Math::Core::Internal::ResourceHolderUINT::~ResourceHolderUINT
  00423	8b 85 7c ff ff
	ff		 mov	 eax, DWORD PTR $T7[ebp]
  00429	e9 02 02 00 00	 jmp	 $LN31@TryParseDN
$LN25@TryParseDN:

; 1074 :                 return (PMC_STATUS_OK);

  0042e	c7 85 78 ff ff
	ff 00 00 00 00	 mov	 DWORD PTR $T6[ebp], 0
  00438	c7 45 fc ff ff
	ff ff		 mov	 DWORD PTR __$EHRec$[ebp+8], -1
  0043f	8d 4d dc	 lea	 ecx, DWORD PTR _root$[ebp]
  00442	e8 00 00 00 00	 call	 ??1ResourceHolderUINT@Internal@Core@Math@Palmtree@@UAE@XZ ; Palmtree::Math::Core::Internal::ResourceHolderUINT::~ResourceHolderUINT
  00447	8b 85 78 ff ff
	ff		 mov	 eax, DWORD PTR $T6[ebp]
  0044d	e9 de 01 00 00	 jmp	 $LN31@TryParseDN
$LN23@TryParseDN:

; 1075 :             }
; 1076 :         }
; 1077 : 
; 1078 :         // 
; 1079 :         root.DeallocateString(frac_part_buf);

  00452	8b 45 c4	 mov	 eax, DWORD PTR _frac_part_buf$[ebp]
  00455	50		 push	 eax
  00456	8d 4d dc	 lea	 ecx, DWORD PTR _root$[ebp]
  00459	e8 00 00 00 00	 call	 ?DeallocateString@ResourceHolderUINT@Internal@Core@Math@Palmtree@@QAEXPA_W@Z ; Palmtree::Math::Core::Internal::ResourceHolderUINT::DeallocateString

; 1080 : 
; 1081 :         //  10^word_digit_count 
; 1082 :         __UNIT_TYPE* bin_buf = root.AllocateBlock(_DIVIDE_CEILING_SIZE(lstrlenW(int_part_buf), word_digit_count) * __UNIT_TYPE_BIT_COUNT);

  0045e	8b 4d f0	 mov	 ecx, DWORD PTR _word_digit_count$[ebp]
  00461	51		 push	 ecx
  00462	8b f4		 mov	 esi, esp
  00464	8b 55 cc	 mov	 edx, DWORD PTR _int_part_buf$[ebp]
  00467	52		 push	 edx
  00468	ff 15 00 00 00
	00		 call	 DWORD PTR __imp__lstrlenW@4
  0046e	3b f4		 cmp	 esi, esp
  00470	e8 00 00 00 00	 call	 __RTC_CheckEsp
  00475	50		 push	 eax
  00476	e8 00 00 00 00	 call	 __DIVIDE_CEILING_SIZE
  0047b	83 c4 08	 add	 esp, 8
  0047e	c1 e0 05	 shl	 eax, 5
  00481	50		 push	 eax
  00482	8d 4d dc	 lea	 ecx, DWORD PTR _root$[ebp]
  00485	e8 00 00 00 00	 call	 ?AllocateBlock@ResourceHolderUINT@Internal@Core@Math@Palmtree@@QAEPAII@Z ; Palmtree::Math::Core::Internal::ResourceHolderUINT::AllocateBlock
  0048a	89 45 b0	 mov	 DWORD PTR _bin_buf$[ebp], eax

; 1083 :         __UNIT_TYPE bin_buf_count;
; 1084 :         BuildBinaryFromDecimalString(int_part_buf, bin_buf, &bin_buf_count);

  0048d	8d 45 a8	 lea	 eax, DWORD PTR _bin_buf_count$[ebp]
  00490	50		 push	 eax
  00491	8b 4d b0	 mov	 ecx, DWORD PTR _bin_buf$[ebp]
  00494	51		 push	 ecx
  00495	8b 55 cc	 mov	 edx, DWORD PTR _int_part_buf$[ebp]
  00498	52		 push	 edx
  00499	e8 00 00 00 00	 call	 ?BuildBinaryFromDecimalString@Internal@Core@Math@Palmtree@@YAXPA_WPAI1@Z ; Palmtree::Math::Core::Internal::BuildBinaryFromDecimalString
  0049e	83 c4 0c	 add	 esp, 12			; 0000000cH

; 1085 :         root.CheckBlock(bin_buf);

  004a1	8b 45 b0	 mov	 eax, DWORD PTR _bin_buf$[ebp]
  004a4	50		 push	 eax
  004a5	8d 4d dc	 lea	 ecx, DWORD PTR _root$[ebp]
  004a8	e8 00 00 00 00	 call	 ?CheckBlock@ResourceHolderUINT@Internal@Core@Math@Palmtree@@QAEXPAI@Z ; Palmtree::Math::Core::Internal::ResourceHolderUINT::CheckBlock

; 1086 :         root.DeallocateString(int_part_buf);

  004ad	8b 4d cc	 mov	 ecx, DWORD PTR _int_part_buf$[ebp]
  004b0	51		 push	 ecx
  004b1	8d 4d dc	 lea	 ecx, DWORD PTR _root$[ebp]
  004b4	e8 00 00 00 00	 call	 ?DeallocateString@ResourceHolderUINT@Internal@Core@Math@Palmtree@@QAEXPA_W@Z ; Palmtree::Math::Core::Internal::ResourceHolderUINT::DeallocateString

; 1087 : 
; 1088 :         // 10^word_digit_count  10 
; 1089 :         __UNIT_TYPE o_bit_count = bin_buf_count * __UNIT_TYPE_BIT_COUNT;

  004b9	8b 55 a8	 mov	 edx, DWORD PTR _bin_buf_count$[ebp]
  004bc	c1 e2 05	 shl	 edx, 5
  004bf	89 55 a0	 mov	 DWORD PTR _o_bit_count$[ebp], edx

; 1090 :         *o_abs = root.AllocateNumber(o_bit_count);

  004c2	8b 45 a0	 mov	 eax, DWORD PTR _o_bit_count$[ebp]
  004c5	50		 push	 eax
  004c6	8d 4d dc	 lea	 ecx, DWORD PTR _root$[ebp]
  004c9	e8 00 00 00 00	 call	 ?AllocateNumber@ResourceHolderUINT@Internal@Core@Math@Palmtree@@QAEPAU__tag_NUMBER_HEADER@2345@I@Z ; Palmtree::Math::Core::Internal::ResourceHolderUINT::AllocateNumber
  004ce	8b 4d 18	 mov	 ecx, DWORD PTR _o_abs$[ebp]
  004d1	89 01		 mov	 DWORD PTR [ecx], eax

; 1091 :         ConvertCardinalNumber(bin_buf, bin_buf_count, (*o_abs)->BLOCK);

  004d3	8b 55 18	 mov	 edx, DWORD PTR _o_abs$[ebp]
  004d6	8b 02		 mov	 eax, DWORD PTR [edx]
  004d8	8b 48 24	 mov	 ecx, DWORD PTR [eax+36]
  004db	51		 push	 ecx
  004dc	8b 55 a8	 mov	 edx, DWORD PTR _bin_buf_count$[ebp]
  004df	52		 push	 edx
  004e0	8b 45 b0	 mov	 eax, DWORD PTR _bin_buf$[ebp]
  004e3	50		 push	 eax
  004e4	e8 00 00 00 00	 call	 ?ConvertCardinalNumber@Internal@Core@Math@Palmtree@@YAXPAII0@Z ; Palmtree::Math::Core::Internal::ConvertCardinalNumber
  004e9	83 c4 0c	 add	 esp, 12			; 0000000cH

; 1092 :         root.CheckNumber(*o_abs);

  004ec	8b 4d 18	 mov	 ecx, DWORD PTR _o_abs$[ebp]
  004ef	8b 11		 mov	 edx, DWORD PTR [ecx]
  004f1	52		 push	 edx
  004f2	8d 4d dc	 lea	 ecx, DWORD PTR _root$[ebp]
  004f5	e8 00 00 00 00	 call	 ?CheckNumber@ResourceHolderUINT@Internal@Core@Math@Palmtree@@QAEXPAU__tag_NUMBER_HEADER@2345@@Z ; Palmtree::Math::Core::Internal::ResourceHolderUINT::CheckNumber

; 1093 :         root.DeallocateBlock(bin_buf);

  004fa	8b 45 b0	 mov	 eax, DWORD PTR _bin_buf$[ebp]
  004fd	50		 push	 eax
  004fe	8d 4d dc	 lea	 ecx, DWORD PTR _root$[ebp]
  00501	e8 00 00 00 00	 call	 ?DeallocateBlock@ResourceHolderUINT@Internal@Core@Math@Palmtree@@QAEXPAI@Z ; Palmtree::Math::Core::Internal::ResourceHolderUINT::DeallocateBlock

; 1094 :         CommitNumber(*o_abs);

  00506	8b 4d 18	 mov	 ecx, DWORD PTR _o_abs$[ebp]
  00509	8b 11		 mov	 edx, DWORD PTR [ecx]
  0050b	52		 push	 edx
  0050c	e8 00 00 00 00	 call	 ?CommitNumber@Internal@Core@Math@Palmtree@@YAXPAU__tag_NUMBER_HEADER@1234@@Z ; Palmtree::Math::Core::Internal::CommitNumber
  00511	83 c4 04	 add	 esp, 4

; 1095 :         if ((*o_abs)->IS_ZERO)

  00514	8b 45 18	 mov	 eax, DWORD PTR _o_abs$[ebp]
  00517	8b 08		 mov	 ecx, DWORD PTR [eax]
  00519	8b 51 04	 mov	 edx, DWORD PTR [ecx+4]
  0051c	83 e2 01	 and	 edx, 1
  0051f	74 19		 je	 SHORT $LN26@TryParseDN

; 1096 :         {
; 1097 :             root.DeallocateNumber(*o_abs);

  00521	8b 45 18	 mov	 eax, DWORD PTR _o_abs$[ebp]
  00524	8b 08		 mov	 ecx, DWORD PTR [eax]
  00526	51		 push	 ecx
  00527	8d 4d dc	 lea	 ecx, DWORD PTR _root$[ebp]
  0052a	e8 00 00 00 00	 call	 ?DeallocateNumber@ResourceHolderUINT@Internal@Core@Math@Palmtree@@QAEXPAU__tag_NUMBER_HEADER@2345@@Z ; Palmtree::Math::Core::Internal::ResourceHolderUINT::DeallocateNumber

; 1098 :             *o_abs = &number_zero;

  0052f	8b 55 18	 mov	 edx, DWORD PTR _o_abs$[ebp]
  00532	c7 02 00 00 00
	00		 mov	 DWORD PTR [edx], OFFSET ?number_zero@Internal@Core@Math@Palmtree@@3U__tag_NUMBER_HEADER@1234@A ; Palmtree::Math::Core::Internal::number_zero

; 1099 :         }
; 1100 :         else

  00538	eb 0e		 jmp	 SHORT $LN27@TryParseDN
$LN26@TryParseDN:

; 1101 :             root.UnlinkNumber(*o_abs);

  0053a	8b 45 18	 mov	 eax, DWORD PTR _o_abs$[ebp]
  0053d	8b 08		 mov	 ecx, DWORD PTR [eax]
  0053f	51		 push	 ecx
  00540	8d 4d dc	 lea	 ecx, DWORD PTR _root$[ebp]
  00543	e8 00 00 00 00	 call	 ?UnlinkNumber@ResourceHolderUINT@Internal@Core@Math@Palmtree@@QAEXPAU__tag_NUMBER_HEADER@2345@@Z ; Palmtree::Math::Core::Internal::ResourceHolderUINT::UnlinkNumber
$LN27@TryParseDN:

; 1102 : #ifdef _DEBUG
; 1103 :         if (*o_sign != 0 && *o_sign != 1 && *o_sign != -1)

  00548	8b 55 14	 mov	 edx, DWORD PTR _o_sign$[ebp]
  0054b	0f be 02	 movsx	 eax, BYTE PTR [edx]
  0054e	85 c0		 test	 eax, eax
  00550	74 3c		 je	 SHORT $LN28@TryParseDN
  00552	8b 4d 14	 mov	 ecx, DWORD PTR _o_sign$[ebp]
  00555	0f be 11	 movsx	 edx, BYTE PTR [ecx]
  00558	83 fa 01	 cmp	 edx, 1
  0055b	74 31		 je	 SHORT $LN28@TryParseDN
  0055d	8b 45 14	 mov	 eax, DWORD PTR _o_sign$[ebp]
  00560	0f be 08	 movsx	 ecx, BYTE PTR [eax]
  00563	83 f9 ff	 cmp	 ecx, -1
  00566	74 26		 je	 SHORT $LN28@TryParseDN

; 1104 :             throw InternalErrorException(L"", L"pmc_parse.cpp;TryParseDN;1");

  00568	68 00 00 00 00	 push	 OFFSET $SG118525
  0056d	68 00 00 00 00	 push	 OFFSET $SG118526
  00572	8d 8d 60 ff ff
	ff		 lea	 ecx, DWORD PTR $T5[ebp]
  00578	e8 00 00 00 00	 call	 ??0InternalErrorException@Internal@Core@Math@Palmtree@@QAE@PB_W0@Z ; Palmtree::Math::Core::Internal::InternalErrorException::InternalErrorException
  0057d	68 00 00 00 00	 push	 OFFSET __TI2?AVInternalErrorException@Internal@Core@Math@Palmtree@@
  00582	8d 95 60 ff ff
	ff		 lea	 edx, DWORD PTR $T5[ebp]
  00588	52		 push	 edx
  00589	e8 00 00 00 00	 call	 __CxxThrowException@8
$LN28@TryParseDN:

; 1105 :         if (*o_sign == 0 && !(*o_abs)->IS_ZERO)

  0058e	8b 45 14	 mov	 eax, DWORD PTR _o_sign$[ebp]
  00591	0f be 08	 movsx	 ecx, BYTE PTR [eax]
  00594	85 c9		 test	 ecx, ecx
  00596	75 33		 jne	 SHORT $LN29@TryParseDN
  00598	8b 55 18	 mov	 edx, DWORD PTR _o_abs$[ebp]
  0059b	8b 02		 mov	 eax, DWORD PTR [edx]
  0059d	8b 48 04	 mov	 ecx, DWORD PTR [eax+4]
  005a0	83 e1 01	 and	 ecx, 1
  005a3	75 26		 jne	 SHORT $LN29@TryParseDN

; 1106 :             throw InternalErrorException(L"", L"pmc_parse.cpp;TryParseDN;2");

  005a5	68 00 00 00 00	 push	 OFFSET $SG118529
  005aa	68 00 00 00 00	 push	 OFFSET $SG118530
  005af	8d 8d 48 ff ff
	ff		 lea	 ecx, DWORD PTR $T4[ebp]
  005b5	e8 00 00 00 00	 call	 ??0InternalErrorException@Internal@Core@Math@Palmtree@@QAE@PB_W0@Z ; Palmtree::Math::Core::Internal::InternalErrorException::InternalErrorException
  005ba	68 00 00 00 00	 push	 OFFSET __TI2?AVInternalErrorException@Internal@Core@Math@Palmtree@@
  005bf	8d 95 48 ff ff
	ff		 lea	 edx, DWORD PTR $T4[ebp]
  005c5	52		 push	 edx
  005c6	e8 00 00 00 00	 call	 __CxxThrowException@8
$LN29@TryParseDN:

; 1107 :         if (*o_sign != 0 && (*o_abs)->IS_ZERO)

  005cb	8b 45 14	 mov	 eax, DWORD PTR _o_sign$[ebp]
  005ce	0f be 08	 movsx	 ecx, BYTE PTR [eax]
  005d1	85 c9		 test	 ecx, ecx
  005d3	74 33		 je	 SHORT $LN30@TryParseDN
  005d5	8b 55 18	 mov	 edx, DWORD PTR _o_abs$[ebp]
  005d8	8b 02		 mov	 eax, DWORD PTR [edx]
  005da	8b 48 04	 mov	 ecx, DWORD PTR [eax+4]
  005dd	83 e1 01	 and	 ecx, 1
  005e0	74 26		 je	 SHORT $LN30@TryParseDN

; 1108 :             throw InternalErrorException(L"", L"pmc_parse.cpp;TryParseDN;3");

  005e2	68 00 00 00 00	 push	 OFFSET $SG118533
  005e7	68 00 00 00 00	 push	 OFFSET $SG118534
  005ec	8d 8d 30 ff ff
	ff		 lea	 ecx, DWORD PTR $T3[ebp]
  005f2	e8 00 00 00 00	 call	 ??0InternalErrorException@Internal@Core@Math@Palmtree@@QAE@PB_W0@Z ; Palmtree::Math::Core::Internal::InternalErrorException::InternalErrorException
  005f7	68 00 00 00 00	 push	 OFFSET __TI2?AVInternalErrorException@Internal@Core@Math@Palmtree@@
  005fc	8d 95 30 ff ff
	ff		 lea	 edx, DWORD PTR $T3[ebp]
  00602	52		 push	 edx
  00603	e8 00 00 00 00	 call	 __CxxThrowException@8
$LN30@TryParseDN:

; 1109 : #endif
; 1110 :         *result = 1;

  00608	8b 45 1c	 mov	 eax, DWORD PTR _result$[ebp]
  0060b	c7 00 01 00 00
	00		 mov	 DWORD PTR [eax], 1

; 1111 :         return (PMC_STATUS_OK);

  00611	c7 85 2c ff ff
	ff 00 00 00 00	 mov	 DWORD PTR $T2[ebp], 0
  0061b	c7 45 fc ff ff
	ff ff		 mov	 DWORD PTR __$EHRec$[ebp+8], -1
  00622	8d 4d dc	 lea	 ecx, DWORD PTR _root$[ebp]
  00625	e8 00 00 00 00	 call	 ??1ResourceHolderUINT@Internal@Core@Math@Palmtree@@UAE@XZ ; Palmtree::Math::Core::Internal::ResourceHolderUINT::~ResourceHolderUINT
  0062a	8b 85 2c ff ff
	ff		 mov	 eax, DWORD PTR $T2[ebp]
$LN31@TryParseDN:

; 1112 :     }

  00630	52		 push	 edx
  00631	8b cd		 mov	 ecx, ebp
  00633	50		 push	 eax
  00634	8d 15 00 00 00
	00		 lea	 edx, DWORD PTR $LN39@TryParseDN
  0063a	e8 00 00 00 00	 call	 @_RTC_CheckStackVars@8
  0063f	58		 pop	 eax
  00640	5a		 pop	 edx
  00641	8b 4d f4	 mov	 ecx, DWORD PTR __$EHRec$[ebp]
  00644	64 89 0d 00 00
	00 00		 mov	 DWORD PTR fs:0, ecx
  0064b	59		 pop	 ecx
  0064c	5f		 pop	 edi
  0064d	5e		 pop	 esi
  0064e	81 c4 d8 00 00
	00		 add	 esp, 216		; 000000d8H
  00654	3b ec		 cmp	 ebp, esp
  00656	e8 00 00 00 00	 call	 __RTC_CheckEsp
  0065b	8b e5		 mov	 esp, ebp
  0065d	5d		 pop	 ebp
  0065e	c3		 ret	 0
  0065f	90		 npad	 1
$LN39@TryParseDN:
  00660	02 00 00 00	 DD	 2
  00664	00 00 00 00	 DD	 $LN38@TryParseDN
$LN38@TryParseDN:
  00668	dc ff ff ff	 DD	 -36			; ffffffdcH
  0066c	10 00 00 00	 DD	 16			; 00000010H
  00670	00 00 00 00	 DD	 $LN35@TryParseDN
  00674	a8 ff ff ff	 DD	 -88			; ffffffa8H
  00678	04 00 00 00	 DD	 4
  0067c	00 00 00 00	 DD	 $LN36@TryParseDN
$LN36@TryParseDN:
  00680	62		 DB	 98			; 00000062H
  00681	69		 DB	 105			; 00000069H
  00682	6e		 DB	 110			; 0000006eH
  00683	5f		 DB	 95			; 0000005fH
  00684	62		 DB	 98			; 00000062H
  00685	75		 DB	 117			; 00000075H
  00686	66		 DB	 102			; 00000066H
  00687	5f		 DB	 95			; 0000005fH
  00688	63		 DB	 99			; 00000063H
  00689	6f		 DB	 111			; 0000006fH
  0068a	75		 DB	 117			; 00000075H
  0068b	6e		 DB	 110			; 0000006eH
  0068c	74		 DB	 116			; 00000074H
  0068d	00		 DB	 0
$LN35@TryParseDN:
  0068e	72		 DB	 114			; 00000072H
  0068f	6f		 DB	 111			; 0000006fH
  00690	6f		 DB	 111			; 0000006fH
  00691	74		 DB	 116			; 00000074H
  00692	00		 DB	 0
_TEXT	ENDS
text$x	SEGMENT
__unwindfunclet$?TryParseDN@Internal@Core@Math@Palmtree@@YAHPB_WIPBU__tag_PMC_NUMBER_FORMAT_INFO@1234@PADPAPAU__tag_NUMBER_HEADER@1234@PAI@Z$0:
  00000	8d 4d dc	 lea	 ecx, DWORD PTR _root$[ebp]
  00003	e9 00 00 00 00	 jmp	 ??1ResourceHolderUINT@Internal@Core@Math@Palmtree@@UAE@XZ ; Palmtree::Math::Core::Internal::ResourceHolderUINT::~ResourceHolderUINT
__ehhandler$?TryParseDN@Internal@Core@Math@Palmtree@@YAHPB_WIPBU__tag_PMC_NUMBER_FORMAT_INFO@1234@PADPAPAU__tag_NUMBER_HEADER@1234@PAI@Z:
  00008	8b 54 24 08	 mov	 edx, DWORD PTR [esp+8]
  0000c	8d 42 0c	 lea	 eax, DWORD PTR [edx+12]
  0000f	8b 8a 28 ff ff
	ff		 mov	 ecx, DWORD PTR [edx-216]
  00015	33 c8		 xor	 ecx, eax
  00017	e8 00 00 00 00	 call	 @__security_check_cookie@4
  0001c	b8 00 00 00 00	 mov	 eax, OFFSET __ehfuncinfo$?TryParseDN@Internal@Core@Math@Palmtree@@YAHPB_WIPBU__tag_PMC_NUMBER_FORMAT_INFO@1234@PADPAPAU__tag_NUMBER_HEADER@1234@PAI@Z
  00021	e9 00 00 00 00	 jmp	 ___CxxFrameHandler3
text$x	ENDS
?TryParseDN@Internal@Core@Math@Palmtree@@YAHPB_WIPBU__tag_PMC_NUMBER_FORMAT_INFO@1234@PADPAPAU__tag_NUMBER_HEADER@1234@PAI@Z ENDP ; Palmtree::Math::Core::Internal::TryParseDN
; Function compile flags: /Odtp /RTCsu
; File z:\sources\lunor\repos\rougemeilland\palmtree.math.core.uint\palmtree.math.core.uint\pmc_parse.cpp
_TEXT	SEGMENT
tv84 = -52						; size = 4
_w_tail$2 = -48						; size = 4
_work_buf_count$ = -44					; size = 4
_work_buf$ = -40					; size = 4
_root$ = -32						; size = 16
__$EHRec$ = -12						; size = 12
_in_buf$ = 8						; size = 4
_in_buf_count$ = 12					; size = 4
_out_buf$ = 16						; size = 4
?ConvertCardinalNumber@Internal@Core@Math@Palmtree@@YAXPAII0@Z PROC ; Palmtree::Math::Core::Internal::ConvertCardinalNumber

; 948  :     {

  00000	55		 push	 ebp
  00001	8b ec		 mov	 ebp, esp
  00003	6a ff		 push	 -1
  00005	68 00 00 00 00	 push	 __ehhandler$?ConvertCardinalNumber@Internal@Core@Math@Palmtree@@YAXPAII0@Z
  0000a	64 a1 00 00 00
	00		 mov	 eax, DWORD PTR fs:0
  00010	50		 push	 eax
  00011	83 ec 28	 sub	 esp, 40			; 00000028H
  00014	56		 push	 esi
  00015	57		 push	 edi
  00016	8d 7d cc	 lea	 edi, DWORD PTR [ebp-52]
  00019	b9 0a 00 00 00	 mov	 ecx, 10			; 0000000aH
  0001e	b8 cc cc cc cc	 mov	 eax, -858993460		; ccccccccH
  00023	f3 ab		 rep stosd
  00025	a1 00 00 00 00	 mov	 eax, DWORD PTR ___security_cookie
  0002a	33 c5		 xor	 eax, ebp
  0002c	50		 push	 eax
  0002d	8d 45 f4	 lea	 eax, DWORD PTR __$EHRec$[ebp]
  00030	64 a3 00 00 00
	00		 mov	 DWORD PTR fs:0, eax
  00036	b9 00 00 00 00	 mov	 ecx, OFFSET __F159A697_pmc_parse@cpp
  0003b	e8 00 00 00 00	 call	 @__CheckForDebuggerJustMyCode@4

; 949  :         ResourceHolderUINT root;

  00040	8d 4d e0	 lea	 ecx, DWORD PTR _root$[ebp]
  00043	e8 00 00 00 00	 call	 ??0ResourceHolderUINT@Internal@Core@Math@Palmtree@@QAE@XZ ; Palmtree::Math::Core::Internal::ResourceHolderUINT::ResourceHolderUINT
  00048	c7 45 fc 00 00
	00 00		 mov	 DWORD PTR __$EHRec$[ebp+8], 0

; 950  :         __UNIT_TYPE* work_buf = root.AllocateBlock(__UNIT_TYPE_BIT_COUNT * (in_buf_count + 1));

  0004f	8b 45 0c	 mov	 eax, DWORD PTR _in_buf_count$[ebp]
  00052	83 c0 01	 add	 eax, 1
  00055	c1 e0 05	 shl	 eax, 5
  00058	50		 push	 eax
  00059	8d 4d e0	 lea	 ecx, DWORD PTR _root$[ebp]
  0005c	e8 00 00 00 00	 call	 ?AllocateBlock@ResourceHolderUINT@Internal@Core@Math@Palmtree@@QAEPAII@Z ; Palmtree::Math::Core::Internal::ResourceHolderUINT::AllocateBlock
  00061	89 45 d8	 mov	 DWORD PTR _work_buf$[ebp], eax

; 951  :         __UNIT_TYPE work_buf_count = 1;

  00064	c7 45 d4 01 00
	00 00		 mov	 DWORD PTR _work_buf_count$[ebp], 1

; 952  :         work_buf[0] = in_buf[0];

  0006b	b9 04 00 00 00	 mov	 ecx, 4
  00070	6b d1 00	 imul	 edx, ecx, 0
  00073	b8 04 00 00 00	 mov	 eax, 4
  00078	6b c8 00	 imul	 ecx, eax, 0
  0007b	8b 45 d8	 mov	 eax, DWORD PTR _work_buf$[ebp]
  0007e	8b 75 08	 mov	 esi, DWORD PTR _in_buf$[ebp]
  00081	8b 14 16	 mov	 edx, DWORD PTR [esi+edx]
  00084	89 14 08	 mov	 DWORD PTR [eax+ecx], edx

; 953  :         ++in_buf;

  00087	8b 45 08	 mov	 eax, DWORD PTR _in_buf$[ebp]
  0008a	83 c0 04	 add	 eax, 4
  0008d	89 45 08	 mov	 DWORD PTR _in_buf$[ebp], eax

; 954  :         --in_buf_count;

  00090	8b 4d 0c	 mov	 ecx, DWORD PTR _in_buf_count$[ebp]
  00093	83 e9 01	 sub	 ecx, 1
  00096	89 4d 0c	 mov	 DWORD PTR _in_buf_count$[ebp], ecx
$LN2@ConvertCar:

; 955  :         while (in_buf_count > 0)

  00099	83 7d 0c 00	 cmp	 DWORD PTR _in_buf_count$[ebp], 0
  0009d	76 49		 jbe	 SHORT $LN3@ConvertCar

; 956  :         {
; 957  :             __UNIT_TYPE* w_tail = (*fp_MultiplyAndAdd)(work_buf, work_buf_count, *in_buf);

  0009f	8b 15 00 00 00
	00		 mov	 edx, DWORD PTR ?fp_MultiplyAndAdd@Internal@Core@Math@Palmtree@@3P6APAIPAIII@ZA
  000a5	89 55 cc	 mov	 DWORD PTR tv84[ebp], edx
  000a8	8b f4		 mov	 esi, esp
  000aa	8b 45 08	 mov	 eax, DWORD PTR _in_buf$[ebp]
  000ad	8b 08		 mov	 ecx, DWORD PTR [eax]
  000af	51		 push	 ecx
  000b0	8b 55 d4	 mov	 edx, DWORD PTR _work_buf_count$[ebp]
  000b3	52		 push	 edx
  000b4	8b 45 d8	 mov	 eax, DWORD PTR _work_buf$[ebp]
  000b7	50		 push	 eax
  000b8	ff 55 cc	 call	 DWORD PTR tv84[ebp]
  000bb	83 c4 0c	 add	 esp, 12			; 0000000cH
  000be	3b f4		 cmp	 esi, esp
  000c0	e8 00 00 00 00	 call	 __RTC_CheckEsp
  000c5	89 45 d0	 mov	 DWORD PTR _w_tail$2[ebp], eax

; 958  :             work_buf_count = w_tail - work_buf;

  000c8	8b 4d d0	 mov	 ecx, DWORD PTR _w_tail$2[ebp]
  000cb	2b 4d d8	 sub	 ecx, DWORD PTR _work_buf$[ebp]
  000ce	c1 f9 02	 sar	 ecx, 2
  000d1	89 4d d4	 mov	 DWORD PTR _work_buf_count$[ebp], ecx

; 959  :             ++in_buf;

  000d4	8b 55 08	 mov	 edx, DWORD PTR _in_buf$[ebp]
  000d7	83 c2 04	 add	 edx, 4
  000da	89 55 08	 mov	 DWORD PTR _in_buf$[ebp], edx

; 960  :             --in_buf_count;

  000dd	8b 45 0c	 mov	 eax, DWORD PTR _in_buf_count$[ebp]
  000e0	83 e8 01	 sub	 eax, 1
  000e3	89 45 0c	 mov	 DWORD PTR _in_buf_count$[ebp], eax

; 961  :         }

  000e6	eb b1		 jmp	 SHORT $LN2@ConvertCar
$LN3@ConvertCar:

; 962  :         root.CheckBlock(work_buf);

  000e8	8b 4d d8	 mov	 ecx, DWORD PTR _work_buf$[ebp]
  000eb	51		 push	 ecx
  000ec	8d 4d e0	 lea	 ecx, DWORD PTR _root$[ebp]
  000ef	e8 00 00 00 00	 call	 ?CheckBlock@ResourceHolderUINT@Internal@Core@Math@Palmtree@@QAEXPAI@Z ; Palmtree::Math::Core::Internal::ResourceHolderUINT::CheckBlock

; 963  :         _COPY_MEMORY_UNIT(out_buf, work_buf, work_buf_count);

  000f4	8b 55 d4	 mov	 edx, DWORD PTR _work_buf_count$[ebp]
  000f7	52		 push	 edx
  000f8	8b 45 d8	 mov	 eax, DWORD PTR _work_buf$[ebp]
  000fb	50		 push	 eax
  000fc	8b 4d 10	 mov	 ecx, DWORD PTR _out_buf$[ebp]
  000ff	51		 push	 ecx
  00100	e8 00 00 00 00	 call	 __COPY_MEMORY_UNIT
  00105	83 c4 0c	 add	 esp, 12			; 0000000cH

; 964  :     }

  00108	c7 45 fc ff ff
	ff ff		 mov	 DWORD PTR __$EHRec$[ebp+8], -1
  0010f	8d 4d e0	 lea	 ecx, DWORD PTR _root$[ebp]
  00112	e8 00 00 00 00	 call	 ??1ResourceHolderUINT@Internal@Core@Math@Palmtree@@UAE@XZ ; Palmtree::Math::Core::Internal::ResourceHolderUINT::~ResourceHolderUINT
  00117	52		 push	 edx
  00118	8b cd		 mov	 ecx, ebp
  0011a	50		 push	 eax
  0011b	8d 15 00 00 00
	00		 lea	 edx, DWORD PTR $LN9@ConvertCar
  00121	e8 00 00 00 00	 call	 @_RTC_CheckStackVars@8
  00126	58		 pop	 eax
  00127	5a		 pop	 edx
  00128	8b 4d f4	 mov	 ecx, DWORD PTR __$EHRec$[ebp]
  0012b	64 89 0d 00 00
	00 00		 mov	 DWORD PTR fs:0, ecx
  00132	59		 pop	 ecx
  00133	5f		 pop	 edi
  00134	5e		 pop	 esi
  00135	83 c4 34	 add	 esp, 52			; 00000034H
  00138	3b ec		 cmp	 ebp, esp
  0013a	e8 00 00 00 00	 call	 __RTC_CheckEsp
  0013f	8b e5		 mov	 esp, ebp
  00141	5d		 pop	 ebp
  00142	c3		 ret	 0
  00143	90		 npad	 1
$LN9@ConvertCar:
  00144	01 00 00 00	 DD	 1
  00148	00 00 00 00	 DD	 $LN8@ConvertCar
$LN8@ConvertCar:
  0014c	e0 ff ff ff	 DD	 -32			; ffffffe0H
  00150	10 00 00 00	 DD	 16			; 00000010H
  00154	00 00 00 00	 DD	 $LN6@ConvertCar
$LN6@ConvertCar:
  00158	72		 DB	 114			; 00000072H
  00159	6f		 DB	 111			; 0000006fH
  0015a	6f		 DB	 111			; 0000006fH
  0015b	74		 DB	 116			; 00000074H
  0015c	00		 DB	 0
_TEXT	ENDS
text$x	SEGMENT
__unwindfunclet$?ConvertCardinalNumber@Internal@Core@Math@Palmtree@@YAXPAII0@Z$0:
  00000	8d 4d e0	 lea	 ecx, DWORD PTR _root$[ebp]
  00003	e9 00 00 00 00	 jmp	 ??1ResourceHolderUINT@Internal@Core@Math@Palmtree@@UAE@XZ ; Palmtree::Math::Core::Internal::ResourceHolderUINT::~ResourceHolderUINT
__ehhandler$?ConvertCardinalNumber@Internal@Core@Math@Palmtree@@YAXPAII0@Z:
  00008	8b 54 24 08	 mov	 edx, DWORD PTR [esp+8]
  0000c	8d 42 0c	 lea	 eax, DWORD PTR [edx+12]
  0000f	8b 4a cc	 mov	 ecx, DWORD PTR [edx-52]
  00012	33 c8		 xor	 ecx, eax
  00014	e8 00 00 00 00	 call	 @__security_check_cookie@4
  00019	b8 00 00 00 00	 mov	 eax, OFFSET __ehfuncinfo$?ConvertCardinalNumber@Internal@Core@Math@Palmtree@@YAXPAII0@Z
  0001e	e9 00 00 00 00	 jmp	 ___CxxFrameHandler3
text$x	ENDS
?ConvertCardinalNumber@Internal@Core@Math@Palmtree@@YAXPAII0@Z ENDP ; Palmtree::Math::Core::Internal::ConvertCardinalNumber
; Function compile flags: /Odtp /RTCsu
; File z:\sources\lunor\repos\rougemeilland\palmtree.math.core.uint\palmtree.math.core.uint\pmc_parse.cpp
_TEXT	SEGMENT
_count$ = -8						; size = 4
_k$ = -4						; size = 4
_u_buf$ = 8						; size = 4
_u_count$ = 12						; size = 4
_x$ = 16						; size = 4
?MultiplyAndAdd_using_ADCX_MULX@Internal@Core@Math@Palmtree@@YAPAIPAIII@Z PROC ; Palmtree::Math::Core::Internal::MultiplyAndAdd_using_ADCX_MULX

; 805  :     {

  00000	55		 push	 ebp
  00001	8b ec		 mov	 ebp, esp
  00003	83 ec 08	 sub	 esp, 8
  00006	c7 45 f8 cc cc
	cc cc		 mov	 DWORD PTR [ebp-8], -858993460 ; ccccccccH
  0000d	c7 45 fc cc cc
	cc cc		 mov	 DWORD PTR [ebp-4], -858993460 ; ccccccccH
  00014	b9 00 00 00 00	 mov	 ecx, OFFSET __F159A697_pmc_parse@cpp
  00019	e8 00 00 00 00	 call	 @__CheckForDebuggerJustMyCode@4

; 806  :         __UNIT_TYPE k = x;

  0001e	8b 45 10	 mov	 eax, DWORD PTR _x$[ebp]
  00021	89 45 fc	 mov	 DWORD PTR _k$[ebp], eax

; 807  :         __UNIT_TYPE count = u_count >> 5;

  00024	8b 4d 0c	 mov	 ecx, DWORD PTR _u_count$[ebp]
  00027	c1 e9 05	 shr	 ecx, 5
  0002a	89 4d f8	 mov	 DWORD PTR _count$[ebp], ecx
$LN2@MultiplyAn:

; 808  :         while (count > 0)

  0002d	83 7d f8 00	 cmp	 DWORD PTR _count$[ebp], 0
  00031	0f 86 76 05 00
	00		 jbe	 $LN3@MultiplyAn

; 809  :         {
; 810  :             k = MultiplyAndAdd1Word_using_ADCX_MULX(k, u_buf[0], &u_buf[0]);

  00037	ba 04 00 00 00	 mov	 edx, 4
  0003c	6b c2 00	 imul	 eax, edx, 0
  0003f	03 45 08	 add	 eax, DWORD PTR _u_buf$[ebp]
  00042	50		 push	 eax
  00043	b9 04 00 00 00	 mov	 ecx, 4
  00048	6b d1 00	 imul	 edx, ecx, 0
  0004b	8b 45 08	 mov	 eax, DWORD PTR _u_buf$[ebp]
  0004e	8b 0c 10	 mov	 ecx, DWORD PTR [eax+edx]
  00051	51		 push	 ecx
  00052	8b 55 fc	 mov	 edx, DWORD PTR _k$[ebp]
  00055	52		 push	 edx
  00056	e8 00 00 00 00	 call	 ?MultiplyAndAdd1Word_using_ADCX_MULX@Internal@Core@Math@Palmtree@@YAIIIPAI@Z ; Palmtree::Math::Core::Internal::MultiplyAndAdd1Word_using_ADCX_MULX
  0005b	83 c4 0c	 add	 esp, 12			; 0000000cH
  0005e	89 45 fc	 mov	 DWORD PTR _k$[ebp], eax

; 811  :             k = MultiplyAndAdd1Word_using_ADCX_MULX(k, u_buf[1], &u_buf[1]);

  00061	b8 04 00 00 00	 mov	 eax, 4
  00066	c1 e0 00	 shl	 eax, 0
  00069	03 45 08	 add	 eax, DWORD PTR _u_buf$[ebp]
  0006c	50		 push	 eax
  0006d	b9 04 00 00 00	 mov	 ecx, 4
  00072	c1 e1 00	 shl	 ecx, 0
  00075	8b 55 08	 mov	 edx, DWORD PTR _u_buf$[ebp]
  00078	8b 04 0a	 mov	 eax, DWORD PTR [edx+ecx]
  0007b	50		 push	 eax
  0007c	8b 4d fc	 mov	 ecx, DWORD PTR _k$[ebp]
  0007f	51		 push	 ecx
  00080	e8 00 00 00 00	 call	 ?MultiplyAndAdd1Word_using_ADCX_MULX@Internal@Core@Math@Palmtree@@YAIIIPAI@Z ; Palmtree::Math::Core::Internal::MultiplyAndAdd1Word_using_ADCX_MULX
  00085	83 c4 0c	 add	 esp, 12			; 0000000cH
  00088	89 45 fc	 mov	 DWORD PTR _k$[ebp], eax

; 812  :             k = MultiplyAndAdd1Word_using_ADCX_MULX(k, u_buf[2], &u_buf[2]);

  0008b	ba 04 00 00 00	 mov	 edx, 4
  00090	d1 e2		 shl	 edx, 1
  00092	03 55 08	 add	 edx, DWORD PTR _u_buf$[ebp]
  00095	52		 push	 edx
  00096	b8 04 00 00 00	 mov	 eax, 4
  0009b	d1 e0		 shl	 eax, 1
  0009d	8b 4d 08	 mov	 ecx, DWORD PTR _u_buf$[ebp]
  000a0	8b 14 01	 mov	 edx, DWORD PTR [ecx+eax]
  000a3	52		 push	 edx
  000a4	8b 45 fc	 mov	 eax, DWORD PTR _k$[ebp]
  000a7	50		 push	 eax
  000a8	e8 00 00 00 00	 call	 ?MultiplyAndAdd1Word_using_ADCX_MULX@Internal@Core@Math@Palmtree@@YAIIIPAI@Z ; Palmtree::Math::Core::Internal::MultiplyAndAdd1Word_using_ADCX_MULX
  000ad	83 c4 0c	 add	 esp, 12			; 0000000cH
  000b0	89 45 fc	 mov	 DWORD PTR _k$[ebp], eax

; 813  :             k = MultiplyAndAdd1Word_using_ADCX_MULX(k, u_buf[3], &u_buf[3]);

  000b3	b9 04 00 00 00	 mov	 ecx, 4
  000b8	6b d1 03	 imul	 edx, ecx, 3
  000bb	03 55 08	 add	 edx, DWORD PTR _u_buf$[ebp]
  000be	52		 push	 edx
  000bf	b8 04 00 00 00	 mov	 eax, 4
  000c4	6b c8 03	 imul	 ecx, eax, 3
  000c7	8b 55 08	 mov	 edx, DWORD PTR _u_buf$[ebp]
  000ca	8b 04 0a	 mov	 eax, DWORD PTR [edx+ecx]
  000cd	50		 push	 eax
  000ce	8b 4d fc	 mov	 ecx, DWORD PTR _k$[ebp]
  000d1	51		 push	 ecx
  000d2	e8 00 00 00 00	 call	 ?MultiplyAndAdd1Word_using_ADCX_MULX@Internal@Core@Math@Palmtree@@YAIIIPAI@Z ; Palmtree::Math::Core::Internal::MultiplyAndAdd1Word_using_ADCX_MULX
  000d7	83 c4 0c	 add	 esp, 12			; 0000000cH
  000da	89 45 fc	 mov	 DWORD PTR _k$[ebp], eax

; 814  :             k = MultiplyAndAdd1Word_using_ADCX_MULX(k, u_buf[4], &u_buf[4]);

  000dd	ba 04 00 00 00	 mov	 edx, 4
  000e2	c1 e2 02	 shl	 edx, 2
  000e5	03 55 08	 add	 edx, DWORD PTR _u_buf$[ebp]
  000e8	52		 push	 edx
  000e9	b8 04 00 00 00	 mov	 eax, 4
  000ee	c1 e0 02	 shl	 eax, 2
  000f1	8b 4d 08	 mov	 ecx, DWORD PTR _u_buf$[ebp]
  000f4	8b 14 01	 mov	 edx, DWORD PTR [ecx+eax]
  000f7	52		 push	 edx
  000f8	8b 45 fc	 mov	 eax, DWORD PTR _k$[ebp]
  000fb	50		 push	 eax
  000fc	e8 00 00 00 00	 call	 ?MultiplyAndAdd1Word_using_ADCX_MULX@Internal@Core@Math@Palmtree@@YAIIIPAI@Z ; Palmtree::Math::Core::Internal::MultiplyAndAdd1Word_using_ADCX_MULX
  00101	83 c4 0c	 add	 esp, 12			; 0000000cH
  00104	89 45 fc	 mov	 DWORD PTR _k$[ebp], eax

; 815  :             k = MultiplyAndAdd1Word_using_ADCX_MULX(k, u_buf[5], &u_buf[5]);

  00107	b9 04 00 00 00	 mov	 ecx, 4
  0010c	6b d1 05	 imul	 edx, ecx, 5
  0010f	03 55 08	 add	 edx, DWORD PTR _u_buf$[ebp]
  00112	52		 push	 edx
  00113	b8 04 00 00 00	 mov	 eax, 4
  00118	6b c8 05	 imul	 ecx, eax, 5
  0011b	8b 55 08	 mov	 edx, DWORD PTR _u_buf$[ebp]
  0011e	8b 04 0a	 mov	 eax, DWORD PTR [edx+ecx]
  00121	50		 push	 eax
  00122	8b 4d fc	 mov	 ecx, DWORD PTR _k$[ebp]
  00125	51		 push	 ecx
  00126	e8 00 00 00 00	 call	 ?MultiplyAndAdd1Word_using_ADCX_MULX@Internal@Core@Math@Palmtree@@YAIIIPAI@Z ; Palmtree::Math::Core::Internal::MultiplyAndAdd1Word_using_ADCX_MULX
  0012b	83 c4 0c	 add	 esp, 12			; 0000000cH
  0012e	89 45 fc	 mov	 DWORD PTR _k$[ebp], eax

; 816  :             k = MultiplyAndAdd1Word_using_ADCX_MULX(k, u_buf[6], &u_buf[6]);

  00131	ba 04 00 00 00	 mov	 edx, 4
  00136	6b c2 06	 imul	 eax, edx, 6
  00139	03 45 08	 add	 eax, DWORD PTR _u_buf$[ebp]
  0013c	50		 push	 eax
  0013d	b9 04 00 00 00	 mov	 ecx, 4
  00142	6b d1 06	 imul	 edx, ecx, 6
  00145	8b 45 08	 mov	 eax, DWORD PTR _u_buf$[ebp]
  00148	8b 0c 10	 mov	 ecx, DWORD PTR [eax+edx]
  0014b	51		 push	 ecx
  0014c	8b 55 fc	 mov	 edx, DWORD PTR _k$[ebp]
  0014f	52		 push	 edx
  00150	e8 00 00 00 00	 call	 ?MultiplyAndAdd1Word_using_ADCX_MULX@Internal@Core@Math@Palmtree@@YAIIIPAI@Z ; Palmtree::Math::Core::Internal::MultiplyAndAdd1Word_using_ADCX_MULX
  00155	83 c4 0c	 add	 esp, 12			; 0000000cH
  00158	89 45 fc	 mov	 DWORD PTR _k$[ebp], eax

; 817  :             k = MultiplyAndAdd1Word_using_ADCX_MULX(k, u_buf[7], &u_buf[7]);

  0015b	b8 04 00 00 00	 mov	 eax, 4
  00160	6b c8 07	 imul	 ecx, eax, 7
  00163	03 4d 08	 add	 ecx, DWORD PTR _u_buf$[ebp]
  00166	51		 push	 ecx
  00167	ba 04 00 00 00	 mov	 edx, 4
  0016c	6b c2 07	 imul	 eax, edx, 7
  0016f	8b 4d 08	 mov	 ecx, DWORD PTR _u_buf$[ebp]
  00172	8b 14 01	 mov	 edx, DWORD PTR [ecx+eax]
  00175	52		 push	 edx
  00176	8b 45 fc	 mov	 eax, DWORD PTR _k$[ebp]
  00179	50		 push	 eax
  0017a	e8 00 00 00 00	 call	 ?MultiplyAndAdd1Word_using_ADCX_MULX@Internal@Core@Math@Palmtree@@YAIIIPAI@Z ; Palmtree::Math::Core::Internal::MultiplyAndAdd1Word_using_ADCX_MULX
  0017f	83 c4 0c	 add	 esp, 12			; 0000000cH
  00182	89 45 fc	 mov	 DWORD PTR _k$[ebp], eax

; 818  :             k = MultiplyAndAdd1Word_using_ADCX_MULX(k, u_buf[8], &u_buf[8]);

  00185	b9 04 00 00 00	 mov	 ecx, 4
  0018a	c1 e1 03	 shl	 ecx, 3
  0018d	03 4d 08	 add	 ecx, DWORD PTR _u_buf$[ebp]
  00190	51		 push	 ecx
  00191	ba 04 00 00 00	 mov	 edx, 4
  00196	c1 e2 03	 shl	 edx, 3
  00199	8b 45 08	 mov	 eax, DWORD PTR _u_buf$[ebp]
  0019c	8b 0c 10	 mov	 ecx, DWORD PTR [eax+edx]
  0019f	51		 push	 ecx
  001a0	8b 55 fc	 mov	 edx, DWORD PTR _k$[ebp]
  001a3	52		 push	 edx
  001a4	e8 00 00 00 00	 call	 ?MultiplyAndAdd1Word_using_ADCX_MULX@Internal@Core@Math@Palmtree@@YAIIIPAI@Z ; Palmtree::Math::Core::Internal::MultiplyAndAdd1Word_using_ADCX_MULX
  001a9	83 c4 0c	 add	 esp, 12			; 0000000cH
  001ac	89 45 fc	 mov	 DWORD PTR _k$[ebp], eax

; 819  :             k = MultiplyAndAdd1Word_using_ADCX_MULX(k, u_buf[9], &u_buf[9]);

  001af	b8 04 00 00 00	 mov	 eax, 4
  001b4	6b c8 09	 imul	 ecx, eax, 9
  001b7	03 4d 08	 add	 ecx, DWORD PTR _u_buf$[ebp]
  001ba	51		 push	 ecx
  001bb	ba 04 00 00 00	 mov	 edx, 4
  001c0	6b c2 09	 imul	 eax, edx, 9
  001c3	8b 4d 08	 mov	 ecx, DWORD PTR _u_buf$[ebp]
  001c6	8b 14 01	 mov	 edx, DWORD PTR [ecx+eax]
  001c9	52		 push	 edx
  001ca	8b 45 fc	 mov	 eax, DWORD PTR _k$[ebp]
  001cd	50		 push	 eax
  001ce	e8 00 00 00 00	 call	 ?MultiplyAndAdd1Word_using_ADCX_MULX@Internal@Core@Math@Palmtree@@YAIIIPAI@Z ; Palmtree::Math::Core::Internal::MultiplyAndAdd1Word_using_ADCX_MULX
  001d3	83 c4 0c	 add	 esp, 12			; 0000000cH
  001d6	89 45 fc	 mov	 DWORD PTR _k$[ebp], eax

; 820  :             k = MultiplyAndAdd1Word_using_ADCX_MULX(k, u_buf[10], &u_buf[10]);

  001d9	b9 04 00 00 00	 mov	 ecx, 4
  001de	6b d1 0a	 imul	 edx, ecx, 10
  001e1	03 55 08	 add	 edx, DWORD PTR _u_buf$[ebp]
  001e4	52		 push	 edx
  001e5	b8 04 00 00 00	 mov	 eax, 4
  001ea	6b c8 0a	 imul	 ecx, eax, 10
  001ed	8b 55 08	 mov	 edx, DWORD PTR _u_buf$[ebp]
  001f0	8b 04 0a	 mov	 eax, DWORD PTR [edx+ecx]
  001f3	50		 push	 eax
  001f4	8b 4d fc	 mov	 ecx, DWORD PTR _k$[ebp]
  001f7	51		 push	 ecx
  001f8	e8 00 00 00 00	 call	 ?MultiplyAndAdd1Word_using_ADCX_MULX@Internal@Core@Math@Palmtree@@YAIIIPAI@Z ; Palmtree::Math::Core::Internal::MultiplyAndAdd1Word_using_ADCX_MULX
  001fd	83 c4 0c	 add	 esp, 12			; 0000000cH
  00200	89 45 fc	 mov	 DWORD PTR _k$[ebp], eax

; 821  :             k = MultiplyAndAdd1Word_using_ADCX_MULX(k, u_buf[11], &u_buf[11]);

  00203	ba 04 00 00 00	 mov	 edx, 4
  00208	6b c2 0b	 imul	 eax, edx, 11
  0020b	03 45 08	 add	 eax, DWORD PTR _u_buf$[ebp]
  0020e	50		 push	 eax
  0020f	b9 04 00 00 00	 mov	 ecx, 4
  00214	6b d1 0b	 imul	 edx, ecx, 11
  00217	8b 45 08	 mov	 eax, DWORD PTR _u_buf$[ebp]
  0021a	8b 0c 10	 mov	 ecx, DWORD PTR [eax+edx]
  0021d	51		 push	 ecx
  0021e	8b 55 fc	 mov	 edx, DWORD PTR _k$[ebp]
  00221	52		 push	 edx
  00222	e8 00 00 00 00	 call	 ?MultiplyAndAdd1Word_using_ADCX_MULX@Internal@Core@Math@Palmtree@@YAIIIPAI@Z ; Palmtree::Math::Core::Internal::MultiplyAndAdd1Word_using_ADCX_MULX
  00227	83 c4 0c	 add	 esp, 12			; 0000000cH
  0022a	89 45 fc	 mov	 DWORD PTR _k$[ebp], eax

; 822  :             k = MultiplyAndAdd1Word_using_ADCX_MULX(k, u_buf[12], &u_buf[12]);

  0022d	b8 04 00 00 00	 mov	 eax, 4
  00232	6b c8 0c	 imul	 ecx, eax, 12
  00235	03 4d 08	 add	 ecx, DWORD PTR _u_buf$[ebp]
  00238	51		 push	 ecx
  00239	ba 04 00 00 00	 mov	 edx, 4
  0023e	6b c2 0c	 imul	 eax, edx, 12
  00241	8b 4d 08	 mov	 ecx, DWORD PTR _u_buf$[ebp]
  00244	8b 14 01	 mov	 edx, DWORD PTR [ecx+eax]
  00247	52		 push	 edx
  00248	8b 45 fc	 mov	 eax, DWORD PTR _k$[ebp]
  0024b	50		 push	 eax
  0024c	e8 00 00 00 00	 call	 ?MultiplyAndAdd1Word_using_ADCX_MULX@Internal@Core@Math@Palmtree@@YAIIIPAI@Z ; Palmtree::Math::Core::Internal::MultiplyAndAdd1Word_using_ADCX_MULX
  00251	83 c4 0c	 add	 esp, 12			; 0000000cH
  00254	89 45 fc	 mov	 DWORD PTR _k$[ebp], eax

; 823  :             k = MultiplyAndAdd1Word_using_ADCX_MULX(k, u_buf[13], &u_buf[13]);

  00257	b9 04 00 00 00	 mov	 ecx, 4
  0025c	6b d1 0d	 imul	 edx, ecx, 13
  0025f	03 55 08	 add	 edx, DWORD PTR _u_buf$[ebp]
  00262	52		 push	 edx
  00263	b8 04 00 00 00	 mov	 eax, 4
  00268	6b c8 0d	 imul	 ecx, eax, 13
  0026b	8b 55 08	 mov	 edx, DWORD PTR _u_buf$[ebp]
  0026e	8b 04 0a	 mov	 eax, DWORD PTR [edx+ecx]
  00271	50		 push	 eax
  00272	8b 4d fc	 mov	 ecx, DWORD PTR _k$[ebp]
  00275	51		 push	 ecx
  00276	e8 00 00 00 00	 call	 ?MultiplyAndAdd1Word_using_ADCX_MULX@Internal@Core@Math@Palmtree@@YAIIIPAI@Z ; Palmtree::Math::Core::Internal::MultiplyAndAdd1Word_using_ADCX_MULX
  0027b	83 c4 0c	 add	 esp, 12			; 0000000cH
  0027e	89 45 fc	 mov	 DWORD PTR _k$[ebp], eax

; 824  :             k = MultiplyAndAdd1Word_using_ADCX_MULX(k, u_buf[14], &u_buf[14]);

  00281	ba 04 00 00 00	 mov	 edx, 4
  00286	6b c2 0e	 imul	 eax, edx, 14
  00289	03 45 08	 add	 eax, DWORD PTR _u_buf$[ebp]
  0028c	50		 push	 eax
  0028d	b9 04 00 00 00	 mov	 ecx, 4
  00292	6b d1 0e	 imul	 edx, ecx, 14
  00295	8b 45 08	 mov	 eax, DWORD PTR _u_buf$[ebp]
  00298	8b 0c 10	 mov	 ecx, DWORD PTR [eax+edx]
  0029b	51		 push	 ecx
  0029c	8b 55 fc	 mov	 edx, DWORD PTR _k$[ebp]
  0029f	52		 push	 edx
  002a0	e8 00 00 00 00	 call	 ?MultiplyAndAdd1Word_using_ADCX_MULX@Internal@Core@Math@Palmtree@@YAIIIPAI@Z ; Palmtree::Math::Core::Internal::MultiplyAndAdd1Word_using_ADCX_MULX
  002a5	83 c4 0c	 add	 esp, 12			; 0000000cH
  002a8	89 45 fc	 mov	 DWORD PTR _k$[ebp], eax

; 825  :             k = MultiplyAndAdd1Word_using_ADCX_MULX(k, u_buf[15], &u_buf[15]);

  002ab	b8 04 00 00 00	 mov	 eax, 4
  002b0	6b c8 0f	 imul	 ecx, eax, 15
  002b3	03 4d 08	 add	 ecx, DWORD PTR _u_buf$[ebp]
  002b6	51		 push	 ecx
  002b7	ba 04 00 00 00	 mov	 edx, 4
  002bc	6b c2 0f	 imul	 eax, edx, 15
  002bf	8b 4d 08	 mov	 ecx, DWORD PTR _u_buf$[ebp]
  002c2	8b 14 01	 mov	 edx, DWORD PTR [ecx+eax]
  002c5	52		 push	 edx
  002c6	8b 45 fc	 mov	 eax, DWORD PTR _k$[ebp]
  002c9	50		 push	 eax
  002ca	e8 00 00 00 00	 call	 ?MultiplyAndAdd1Word_using_ADCX_MULX@Internal@Core@Math@Palmtree@@YAIIIPAI@Z ; Palmtree::Math::Core::Internal::MultiplyAndAdd1Word_using_ADCX_MULX
  002cf	83 c4 0c	 add	 esp, 12			; 0000000cH
  002d2	89 45 fc	 mov	 DWORD PTR _k$[ebp], eax

; 826  :             k = MultiplyAndAdd1Word_using_ADCX_MULX(k, u_buf[16], &u_buf[16]);

  002d5	b9 04 00 00 00	 mov	 ecx, 4
  002da	c1 e1 04	 shl	 ecx, 4
  002dd	03 4d 08	 add	 ecx, DWORD PTR _u_buf$[ebp]
  002e0	51		 push	 ecx
  002e1	ba 04 00 00 00	 mov	 edx, 4
  002e6	c1 e2 04	 shl	 edx, 4
  002e9	8b 45 08	 mov	 eax, DWORD PTR _u_buf$[ebp]
  002ec	8b 0c 10	 mov	 ecx, DWORD PTR [eax+edx]
  002ef	51		 push	 ecx
  002f0	8b 55 fc	 mov	 edx, DWORD PTR _k$[ebp]
  002f3	52		 push	 edx
  002f4	e8 00 00 00 00	 call	 ?MultiplyAndAdd1Word_using_ADCX_MULX@Internal@Core@Math@Palmtree@@YAIIIPAI@Z ; Palmtree::Math::Core::Internal::MultiplyAndAdd1Word_using_ADCX_MULX
  002f9	83 c4 0c	 add	 esp, 12			; 0000000cH
  002fc	89 45 fc	 mov	 DWORD PTR _k$[ebp], eax

; 827  :             k = MultiplyAndAdd1Word_using_ADCX_MULX(k, u_buf[17], &u_buf[17]);

  002ff	b8 04 00 00 00	 mov	 eax, 4
  00304	6b c8 11	 imul	 ecx, eax, 17
  00307	03 4d 08	 add	 ecx, DWORD PTR _u_buf$[ebp]
  0030a	51		 push	 ecx
  0030b	ba 04 00 00 00	 mov	 edx, 4
  00310	6b c2 11	 imul	 eax, edx, 17
  00313	8b 4d 08	 mov	 ecx, DWORD PTR _u_buf$[ebp]
  00316	8b 14 01	 mov	 edx, DWORD PTR [ecx+eax]
  00319	52		 push	 edx
  0031a	8b 45 fc	 mov	 eax, DWORD PTR _k$[ebp]
  0031d	50		 push	 eax
  0031e	e8 00 00 00 00	 call	 ?MultiplyAndAdd1Word_using_ADCX_MULX@Internal@Core@Math@Palmtree@@YAIIIPAI@Z ; Palmtree::Math::Core::Internal::MultiplyAndAdd1Word_using_ADCX_MULX
  00323	83 c4 0c	 add	 esp, 12			; 0000000cH
  00326	89 45 fc	 mov	 DWORD PTR _k$[ebp], eax

; 828  :             k = MultiplyAndAdd1Word_using_ADCX_MULX(k, u_buf[18], &u_buf[18]);

  00329	b9 04 00 00 00	 mov	 ecx, 4
  0032e	6b d1 12	 imul	 edx, ecx, 18
  00331	03 55 08	 add	 edx, DWORD PTR _u_buf$[ebp]
  00334	52		 push	 edx
  00335	b8 04 00 00 00	 mov	 eax, 4
  0033a	6b c8 12	 imul	 ecx, eax, 18
  0033d	8b 55 08	 mov	 edx, DWORD PTR _u_buf$[ebp]
  00340	8b 04 0a	 mov	 eax, DWORD PTR [edx+ecx]
  00343	50		 push	 eax
  00344	8b 4d fc	 mov	 ecx, DWORD PTR _k$[ebp]
  00347	51		 push	 ecx
  00348	e8 00 00 00 00	 call	 ?MultiplyAndAdd1Word_using_ADCX_MULX@Internal@Core@Math@Palmtree@@YAIIIPAI@Z ; Palmtree::Math::Core::Internal::MultiplyAndAdd1Word_using_ADCX_MULX
  0034d	83 c4 0c	 add	 esp, 12			; 0000000cH
  00350	89 45 fc	 mov	 DWORD PTR _k$[ebp], eax

; 829  :             k = MultiplyAndAdd1Word_using_ADCX_MULX(k, u_buf[19], &u_buf[19]);

  00353	ba 04 00 00 00	 mov	 edx, 4
  00358	6b c2 13	 imul	 eax, edx, 19
  0035b	03 45 08	 add	 eax, DWORD PTR _u_buf$[ebp]
  0035e	50		 push	 eax
  0035f	b9 04 00 00 00	 mov	 ecx, 4
  00364	6b d1 13	 imul	 edx, ecx, 19
  00367	8b 45 08	 mov	 eax, DWORD PTR _u_buf$[ebp]
  0036a	8b 0c 10	 mov	 ecx, DWORD PTR [eax+edx]
  0036d	51		 push	 ecx
  0036e	8b 55 fc	 mov	 edx, DWORD PTR _k$[ebp]
  00371	52		 push	 edx
  00372	e8 00 00 00 00	 call	 ?MultiplyAndAdd1Word_using_ADCX_MULX@Internal@Core@Math@Palmtree@@YAIIIPAI@Z ; Palmtree::Math::Core::Internal::MultiplyAndAdd1Word_using_ADCX_MULX
  00377	83 c4 0c	 add	 esp, 12			; 0000000cH
  0037a	89 45 fc	 mov	 DWORD PTR _k$[ebp], eax

; 830  :             k = MultiplyAndAdd1Word_using_ADCX_MULX(k, u_buf[20], &u_buf[20]);

  0037d	b8 04 00 00 00	 mov	 eax, 4
  00382	6b c8 14	 imul	 ecx, eax, 20
  00385	03 4d 08	 add	 ecx, DWORD PTR _u_buf$[ebp]
  00388	51		 push	 ecx
  00389	ba 04 00 00 00	 mov	 edx, 4
  0038e	6b c2 14	 imul	 eax, edx, 20
  00391	8b 4d 08	 mov	 ecx, DWORD PTR _u_buf$[ebp]
  00394	8b 14 01	 mov	 edx, DWORD PTR [ecx+eax]
  00397	52		 push	 edx
  00398	8b 45 fc	 mov	 eax, DWORD PTR _k$[ebp]
  0039b	50		 push	 eax
  0039c	e8 00 00 00 00	 call	 ?MultiplyAndAdd1Word_using_ADCX_MULX@Internal@Core@Math@Palmtree@@YAIIIPAI@Z ; Palmtree::Math::Core::Internal::MultiplyAndAdd1Word_using_ADCX_MULX
  003a1	83 c4 0c	 add	 esp, 12			; 0000000cH
  003a4	89 45 fc	 mov	 DWORD PTR _k$[ebp], eax

; 831  :             k = MultiplyAndAdd1Word_using_ADCX_MULX(k, u_buf[21], &u_buf[21]);

  003a7	b9 04 00 00 00	 mov	 ecx, 4
  003ac	6b d1 15	 imul	 edx, ecx, 21
  003af	03 55 08	 add	 edx, DWORD PTR _u_buf$[ebp]
  003b2	52		 push	 edx
  003b3	b8 04 00 00 00	 mov	 eax, 4
  003b8	6b c8 15	 imul	 ecx, eax, 21
  003bb	8b 55 08	 mov	 edx, DWORD PTR _u_buf$[ebp]
  003be	8b 04 0a	 mov	 eax, DWORD PTR [edx+ecx]
  003c1	50		 push	 eax
  003c2	8b 4d fc	 mov	 ecx, DWORD PTR _k$[ebp]
  003c5	51		 push	 ecx
  003c6	e8 00 00 00 00	 call	 ?MultiplyAndAdd1Word_using_ADCX_MULX@Internal@Core@Math@Palmtree@@YAIIIPAI@Z ; Palmtree::Math::Core::Internal::MultiplyAndAdd1Word_using_ADCX_MULX
  003cb	83 c4 0c	 add	 esp, 12			; 0000000cH
  003ce	89 45 fc	 mov	 DWORD PTR _k$[ebp], eax

; 832  :             k = MultiplyAndAdd1Word_using_ADCX_MULX(k, u_buf[22], &u_buf[22]);

  003d1	ba 04 00 00 00	 mov	 edx, 4
  003d6	6b c2 16	 imul	 eax, edx, 22
  003d9	03 45 08	 add	 eax, DWORD PTR _u_buf$[ebp]
  003dc	50		 push	 eax
  003dd	b9 04 00 00 00	 mov	 ecx, 4
  003e2	6b d1 16	 imul	 edx, ecx, 22
  003e5	8b 45 08	 mov	 eax, DWORD PTR _u_buf$[ebp]
  003e8	8b 0c 10	 mov	 ecx, DWORD PTR [eax+edx]
  003eb	51		 push	 ecx
  003ec	8b 55 fc	 mov	 edx, DWORD PTR _k$[ebp]
  003ef	52		 push	 edx
  003f0	e8 00 00 00 00	 call	 ?MultiplyAndAdd1Word_using_ADCX_MULX@Internal@Core@Math@Palmtree@@YAIIIPAI@Z ; Palmtree::Math::Core::Internal::MultiplyAndAdd1Word_using_ADCX_MULX
  003f5	83 c4 0c	 add	 esp, 12			; 0000000cH
  003f8	89 45 fc	 mov	 DWORD PTR _k$[ebp], eax

; 833  :             k = MultiplyAndAdd1Word_using_ADCX_MULX(k, u_buf[23], &u_buf[23]);

  003fb	b8 04 00 00 00	 mov	 eax, 4
  00400	6b c8 17	 imul	 ecx, eax, 23
  00403	03 4d 08	 add	 ecx, DWORD PTR _u_buf$[ebp]
  00406	51		 push	 ecx
  00407	ba 04 00 00 00	 mov	 edx, 4
  0040c	6b c2 17	 imul	 eax, edx, 23
  0040f	8b 4d 08	 mov	 ecx, DWORD PTR _u_buf$[ebp]
  00412	8b 14 01	 mov	 edx, DWORD PTR [ecx+eax]
  00415	52		 push	 edx
  00416	8b 45 fc	 mov	 eax, DWORD PTR _k$[ebp]
  00419	50		 push	 eax
  0041a	e8 00 00 00 00	 call	 ?MultiplyAndAdd1Word_using_ADCX_MULX@Internal@Core@Math@Palmtree@@YAIIIPAI@Z ; Palmtree::Math::Core::Internal::MultiplyAndAdd1Word_using_ADCX_MULX
  0041f	83 c4 0c	 add	 esp, 12			; 0000000cH
  00422	89 45 fc	 mov	 DWORD PTR _k$[ebp], eax

; 834  :             k = MultiplyAndAdd1Word_using_ADCX_MULX(k, u_buf[24], &u_buf[24]);

  00425	b9 04 00 00 00	 mov	 ecx, 4
  0042a	6b d1 18	 imul	 edx, ecx, 24
  0042d	03 55 08	 add	 edx, DWORD PTR _u_buf$[ebp]
  00430	52		 push	 edx
  00431	b8 04 00 00 00	 mov	 eax, 4
  00436	6b c8 18	 imul	 ecx, eax, 24
  00439	8b 55 08	 mov	 edx, DWORD PTR _u_buf$[ebp]
  0043c	8b 04 0a	 mov	 eax, DWORD PTR [edx+ecx]
  0043f	50		 push	 eax
  00440	8b 4d fc	 mov	 ecx, DWORD PTR _k$[ebp]
  00443	51		 push	 ecx
  00444	e8 00 00 00 00	 call	 ?MultiplyAndAdd1Word_using_ADCX_MULX@Internal@Core@Math@Palmtree@@YAIIIPAI@Z ; Palmtree::Math::Core::Internal::MultiplyAndAdd1Word_using_ADCX_MULX
  00449	83 c4 0c	 add	 esp, 12			; 0000000cH
  0044c	89 45 fc	 mov	 DWORD PTR _k$[ebp], eax

; 835  :             k = MultiplyAndAdd1Word_using_ADCX_MULX(k, u_buf[25], &u_buf[25]);

  0044f	ba 04 00 00 00	 mov	 edx, 4
  00454	6b c2 19	 imul	 eax, edx, 25
  00457	03 45 08	 add	 eax, DWORD PTR _u_buf$[ebp]
  0045a	50		 push	 eax
  0045b	b9 04 00 00 00	 mov	 ecx, 4
  00460	6b d1 19	 imul	 edx, ecx, 25
  00463	8b 45 08	 mov	 eax, DWORD PTR _u_buf$[ebp]
  00466	8b 0c 10	 mov	 ecx, DWORD PTR [eax+edx]
  00469	51		 push	 ecx
  0046a	8b 55 fc	 mov	 edx, DWORD PTR _k$[ebp]
  0046d	52		 push	 edx
  0046e	e8 00 00 00 00	 call	 ?MultiplyAndAdd1Word_using_ADCX_MULX@Internal@Core@Math@Palmtree@@YAIIIPAI@Z ; Palmtree::Math::Core::Internal::MultiplyAndAdd1Word_using_ADCX_MULX
  00473	83 c4 0c	 add	 esp, 12			; 0000000cH
  00476	89 45 fc	 mov	 DWORD PTR _k$[ebp], eax

; 836  :             k = MultiplyAndAdd1Word_using_ADCX_MULX(k, u_buf[26], &u_buf[26]);

  00479	b8 04 00 00 00	 mov	 eax, 4
  0047e	6b c8 1a	 imul	 ecx, eax, 26
  00481	03 4d 08	 add	 ecx, DWORD PTR _u_buf$[ebp]
  00484	51		 push	 ecx
  00485	ba 04 00 00 00	 mov	 edx, 4
  0048a	6b c2 1a	 imul	 eax, edx, 26
  0048d	8b 4d 08	 mov	 ecx, DWORD PTR _u_buf$[ebp]
  00490	8b 14 01	 mov	 edx, DWORD PTR [ecx+eax]
  00493	52		 push	 edx
  00494	8b 45 fc	 mov	 eax, DWORD PTR _k$[ebp]
  00497	50		 push	 eax
  00498	e8 00 00 00 00	 call	 ?MultiplyAndAdd1Word_using_ADCX_MULX@Internal@Core@Math@Palmtree@@YAIIIPAI@Z ; Palmtree::Math::Core::Internal::MultiplyAndAdd1Word_using_ADCX_MULX
  0049d	83 c4 0c	 add	 esp, 12			; 0000000cH
  004a0	89 45 fc	 mov	 DWORD PTR _k$[ebp], eax

; 837  :             k = MultiplyAndAdd1Word_using_ADCX_MULX(k, u_buf[27], &u_buf[27]);

  004a3	b9 04 00 00 00	 mov	 ecx, 4
  004a8	6b d1 1b	 imul	 edx, ecx, 27
  004ab	03 55 08	 add	 edx, DWORD PTR _u_buf$[ebp]
  004ae	52		 push	 edx
  004af	b8 04 00 00 00	 mov	 eax, 4
  004b4	6b c8 1b	 imul	 ecx, eax, 27
  004b7	8b 55 08	 mov	 edx, DWORD PTR _u_buf$[ebp]
  004ba	8b 04 0a	 mov	 eax, DWORD PTR [edx+ecx]
  004bd	50		 push	 eax
  004be	8b 4d fc	 mov	 ecx, DWORD PTR _k$[ebp]
  004c1	51		 push	 ecx
  004c2	e8 00 00 00 00	 call	 ?MultiplyAndAdd1Word_using_ADCX_MULX@Internal@Core@Math@Palmtree@@YAIIIPAI@Z ; Palmtree::Math::Core::Internal::MultiplyAndAdd1Word_using_ADCX_MULX
  004c7	83 c4 0c	 add	 esp, 12			; 0000000cH
  004ca	89 45 fc	 mov	 DWORD PTR _k$[ebp], eax

; 838  :             k = MultiplyAndAdd1Word_using_ADCX_MULX(k, u_buf[28], &u_buf[28]);

  004cd	ba 04 00 00 00	 mov	 edx, 4
  004d2	6b c2 1c	 imul	 eax, edx, 28
  004d5	03 45 08	 add	 eax, DWORD PTR _u_buf$[ebp]
  004d8	50		 push	 eax
  004d9	b9 04 00 00 00	 mov	 ecx, 4
  004de	6b d1 1c	 imul	 edx, ecx, 28
  004e1	8b 45 08	 mov	 eax, DWORD PTR _u_buf$[ebp]
  004e4	8b 0c 10	 mov	 ecx, DWORD PTR [eax+edx]
  004e7	51		 push	 ecx
  004e8	8b 55 fc	 mov	 edx, DWORD PTR _k$[ebp]
  004eb	52		 push	 edx
  004ec	e8 00 00 00 00	 call	 ?MultiplyAndAdd1Word_using_ADCX_MULX@Internal@Core@Math@Palmtree@@YAIIIPAI@Z ; Palmtree::Math::Core::Internal::MultiplyAndAdd1Word_using_ADCX_MULX
  004f1	83 c4 0c	 add	 esp, 12			; 0000000cH
  004f4	89 45 fc	 mov	 DWORD PTR _k$[ebp], eax

; 839  :             k = MultiplyAndAdd1Word_using_ADCX_MULX(k, u_buf[29], &u_buf[29]);

  004f7	b8 04 00 00 00	 mov	 eax, 4
  004fc	6b c8 1d	 imul	 ecx, eax, 29
  004ff	03 4d 08	 add	 ecx, DWORD PTR _u_buf$[ebp]
  00502	51		 push	 ecx
  00503	ba 04 00 00 00	 mov	 edx, 4
  00508	6b c2 1d	 imul	 eax, edx, 29
  0050b	8b 4d 08	 mov	 ecx, DWORD PTR _u_buf$[ebp]
  0050e	8b 14 01	 mov	 edx, DWORD PTR [ecx+eax]
  00511	52		 push	 edx
  00512	8b 45 fc	 mov	 eax, DWORD PTR _k$[ebp]
  00515	50		 push	 eax
  00516	e8 00 00 00 00	 call	 ?MultiplyAndAdd1Word_using_ADCX_MULX@Internal@Core@Math@Palmtree@@YAIIIPAI@Z ; Palmtree::Math::Core::Internal::MultiplyAndAdd1Word_using_ADCX_MULX
  0051b	83 c4 0c	 add	 esp, 12			; 0000000cH
  0051e	89 45 fc	 mov	 DWORD PTR _k$[ebp], eax

; 840  :             k = MultiplyAndAdd1Word_using_ADCX_MULX(k, u_buf[30], &u_buf[30]);

  00521	b9 04 00 00 00	 mov	 ecx, 4
  00526	6b d1 1e	 imul	 edx, ecx, 30
  00529	03 55 08	 add	 edx, DWORD PTR _u_buf$[ebp]
  0052c	52		 push	 edx
  0052d	b8 04 00 00 00	 mov	 eax, 4
  00532	6b c8 1e	 imul	 ecx, eax, 30
  00535	8b 55 08	 mov	 edx, DWORD PTR _u_buf$[ebp]
  00538	8b 04 0a	 mov	 eax, DWORD PTR [edx+ecx]
  0053b	50		 push	 eax
  0053c	8b 4d fc	 mov	 ecx, DWORD PTR _k$[ebp]
  0053f	51		 push	 ecx
  00540	e8 00 00 00 00	 call	 ?MultiplyAndAdd1Word_using_ADCX_MULX@Internal@Core@Math@Palmtree@@YAIIIPAI@Z ; Palmtree::Math::Core::Internal::MultiplyAndAdd1Word_using_ADCX_MULX
  00545	83 c4 0c	 add	 esp, 12			; 0000000cH
  00548	89 45 fc	 mov	 DWORD PTR _k$[ebp], eax

; 841  :             k = MultiplyAndAdd1Word_using_ADCX_MULX(k, u_buf[31], &u_buf[31]);

  0054b	ba 04 00 00 00	 mov	 edx, 4
  00550	6b c2 1f	 imul	 eax, edx, 31
  00553	03 45 08	 add	 eax, DWORD PTR _u_buf$[ebp]
  00556	50		 push	 eax
  00557	b9 04 00 00 00	 mov	 ecx, 4
  0055c	6b d1 1f	 imul	 edx, ecx, 31
  0055f	8b 45 08	 mov	 eax, DWORD PTR _u_buf$[ebp]
  00562	8b 0c 10	 mov	 ecx, DWORD PTR [eax+edx]
  00565	51		 push	 ecx
  00566	8b 55 fc	 mov	 edx, DWORD PTR _k$[ebp]
  00569	52		 push	 edx
  0056a	e8 00 00 00 00	 call	 ?MultiplyAndAdd1Word_using_ADCX_MULX@Internal@Core@Math@Palmtree@@YAIIIPAI@Z ; Palmtree::Math::Core::Internal::MultiplyAndAdd1Word_using_ADCX_MULX
  0056f	83 c4 0c	 add	 esp, 12			; 0000000cH
  00572	89 45 fc	 mov	 DWORD PTR _k$[ebp], eax

; 842  :             u_buf += 32;

  00575	8b 45 08	 mov	 eax, DWORD PTR _u_buf$[ebp]
  00578	05 80 00 00 00	 add	 eax, 128		; 00000080H
  0057d	89 45 08	 mov	 DWORD PTR _u_buf$[ebp], eax

; 843  :             --count;

  00580	8b 4d f8	 mov	 ecx, DWORD PTR _count$[ebp]
  00583	83 e9 01	 sub	 ecx, 1
  00586	89 4d f8	 mov	 DWORD PTR _count$[ebp], ecx

; 844  : #ifdef ENABLED_PERFORMANCE_COUNTER
; 845  :             if (sizeof(k) == sizeof(_UINT32_T))

  00589	ba 01 00 00 00	 mov	 edx, 1
  0058e	85 d2		 test	 edx, edx
  00590	74 0c		 je	 SHORT $LN4@MultiplyAn

; 846  :                 AddToMULTI32Counter(32);

  00592	6a 20		 push	 32			; 00000020H
  00594	e8 00 00 00 00	 call	 ?AddToMULTI32Counter@Internal@Core@Math@Palmtree@@YAXH@Z ; Palmtree::Math::Core::Internal::AddToMULTI32Counter
  00599	83 c4 04	 add	 esp, 4

; 847  :             else

  0059c	eb 0a		 jmp	 SHORT $LN5@MultiplyAn
$LN4@MultiplyAn:

; 848  :                 AddToMULTI64Counter(32);

  0059e	6a 20		 push	 32			; 00000020H
  005a0	e8 00 00 00 00	 call	 ?AddToMULTI64Counter@Internal@Core@Math@Palmtree@@YAXH@Z ; Palmtree::Math::Core::Internal::AddToMULTI64Counter
  005a5	83 c4 04	 add	 esp, 4
$LN5@MultiplyAn:

; 849  : #endif
; 850  :         }

  005a8	e9 80 fa ff ff	 jmp	 $LN2@MultiplyAn
$LN3@MultiplyAn:

; 851  : 
; 852  :         if (u_count & 0x10)

  005ad	8b 45 0c	 mov	 eax, DWORD PTR _u_count$[ebp]
  005b0	83 e0 10	 and	 eax, 16			; 00000010H
  005b3	0f 84 c6 02 00
	00		 je	 $LN6@MultiplyAn

; 853  :         {
; 854  :             k = MultiplyAndAdd1Word_using_ADCX_MULX(k, u_buf[0], &u_buf[0]);

  005b9	b9 04 00 00 00	 mov	 ecx, 4
  005be	6b d1 00	 imul	 edx, ecx, 0
  005c1	03 55 08	 add	 edx, DWORD PTR _u_buf$[ebp]
  005c4	52		 push	 edx
  005c5	b8 04 00 00 00	 mov	 eax, 4
  005ca	6b c8 00	 imul	 ecx, eax, 0
  005cd	8b 55 08	 mov	 edx, DWORD PTR _u_buf$[ebp]
  005d0	8b 04 0a	 mov	 eax, DWORD PTR [edx+ecx]
  005d3	50		 push	 eax
  005d4	8b 4d fc	 mov	 ecx, DWORD PTR _k$[ebp]
  005d7	51		 push	 ecx
  005d8	e8 00 00 00 00	 call	 ?MultiplyAndAdd1Word_using_ADCX_MULX@Internal@Core@Math@Palmtree@@YAIIIPAI@Z ; Palmtree::Math::Core::Internal::MultiplyAndAdd1Word_using_ADCX_MULX
  005dd	83 c4 0c	 add	 esp, 12			; 0000000cH
  005e0	89 45 fc	 mov	 DWORD PTR _k$[ebp], eax

; 855  :             k = MultiplyAndAdd1Word_using_ADCX_MULX(k, u_buf[1], &u_buf[1]);

  005e3	ba 04 00 00 00	 mov	 edx, 4
  005e8	c1 e2 00	 shl	 edx, 0
  005eb	03 55 08	 add	 edx, DWORD PTR _u_buf$[ebp]
  005ee	52		 push	 edx
  005ef	b8 04 00 00 00	 mov	 eax, 4
  005f4	c1 e0 00	 shl	 eax, 0
  005f7	8b 4d 08	 mov	 ecx, DWORD PTR _u_buf$[ebp]
  005fa	8b 14 01	 mov	 edx, DWORD PTR [ecx+eax]
  005fd	52		 push	 edx
  005fe	8b 45 fc	 mov	 eax, DWORD PTR _k$[ebp]
  00601	50		 push	 eax
  00602	e8 00 00 00 00	 call	 ?MultiplyAndAdd1Word_using_ADCX_MULX@Internal@Core@Math@Palmtree@@YAIIIPAI@Z ; Palmtree::Math::Core::Internal::MultiplyAndAdd1Word_using_ADCX_MULX
  00607	83 c4 0c	 add	 esp, 12			; 0000000cH
  0060a	89 45 fc	 mov	 DWORD PTR _k$[ebp], eax

; 856  :             k = MultiplyAndAdd1Word_using_ADCX_MULX(k, u_buf[2], &u_buf[2]);

  0060d	b9 04 00 00 00	 mov	 ecx, 4
  00612	d1 e1		 shl	 ecx, 1
  00614	03 4d 08	 add	 ecx, DWORD PTR _u_buf$[ebp]
  00617	51		 push	 ecx
  00618	ba 04 00 00 00	 mov	 edx, 4
  0061d	d1 e2		 shl	 edx, 1
  0061f	8b 45 08	 mov	 eax, DWORD PTR _u_buf$[ebp]
  00622	8b 0c 10	 mov	 ecx, DWORD PTR [eax+edx]
  00625	51		 push	 ecx
  00626	8b 55 fc	 mov	 edx, DWORD PTR _k$[ebp]
  00629	52		 push	 edx
  0062a	e8 00 00 00 00	 call	 ?MultiplyAndAdd1Word_using_ADCX_MULX@Internal@Core@Math@Palmtree@@YAIIIPAI@Z ; Palmtree::Math::Core::Internal::MultiplyAndAdd1Word_using_ADCX_MULX
  0062f	83 c4 0c	 add	 esp, 12			; 0000000cH
  00632	89 45 fc	 mov	 DWORD PTR _k$[ebp], eax

; 857  :             k = MultiplyAndAdd1Word_using_ADCX_MULX(k, u_buf[3], &u_buf[3]);

  00635	b8 04 00 00 00	 mov	 eax, 4
  0063a	6b c8 03	 imul	 ecx, eax, 3
  0063d	03 4d 08	 add	 ecx, DWORD PTR _u_buf$[ebp]
  00640	51		 push	 ecx
  00641	ba 04 00 00 00	 mov	 edx, 4
  00646	6b c2 03	 imul	 eax, edx, 3
  00649	8b 4d 08	 mov	 ecx, DWORD PTR _u_buf$[ebp]
  0064c	8b 14 01	 mov	 edx, DWORD PTR [ecx+eax]
  0064f	52		 push	 edx
  00650	8b 45 fc	 mov	 eax, DWORD PTR _k$[ebp]
  00653	50		 push	 eax
  00654	e8 00 00 00 00	 call	 ?MultiplyAndAdd1Word_using_ADCX_MULX@Internal@Core@Math@Palmtree@@YAIIIPAI@Z ; Palmtree::Math::Core::Internal::MultiplyAndAdd1Word_using_ADCX_MULX
  00659	83 c4 0c	 add	 esp, 12			; 0000000cH
  0065c	89 45 fc	 mov	 DWORD PTR _k$[ebp], eax

; 858  :             k = MultiplyAndAdd1Word_using_ADCX_MULX(k, u_buf[4], &u_buf[4]);

  0065f	b9 04 00 00 00	 mov	 ecx, 4
  00664	c1 e1 02	 shl	 ecx, 2
  00667	03 4d 08	 add	 ecx, DWORD PTR _u_buf$[ebp]
  0066a	51		 push	 ecx
  0066b	ba 04 00 00 00	 mov	 edx, 4
  00670	c1 e2 02	 shl	 edx, 2
  00673	8b 45 08	 mov	 eax, DWORD PTR _u_buf$[ebp]
  00676	8b 0c 10	 mov	 ecx, DWORD PTR [eax+edx]
  00679	51		 push	 ecx
  0067a	8b 55 fc	 mov	 edx, DWORD PTR _k$[ebp]
  0067d	52		 push	 edx
  0067e	e8 00 00 00 00	 call	 ?MultiplyAndAdd1Word_using_ADCX_MULX@Internal@Core@Math@Palmtree@@YAIIIPAI@Z ; Palmtree::Math::Core::Internal::MultiplyAndAdd1Word_using_ADCX_MULX
  00683	83 c4 0c	 add	 esp, 12			; 0000000cH
  00686	89 45 fc	 mov	 DWORD PTR _k$[ebp], eax

; 859  :             k = MultiplyAndAdd1Word_using_ADCX_MULX(k, u_buf[5], &u_buf[5]);

  00689	b8 04 00 00 00	 mov	 eax, 4
  0068e	6b c8 05	 imul	 ecx, eax, 5
  00691	03 4d 08	 add	 ecx, DWORD PTR _u_buf$[ebp]
  00694	51		 push	 ecx
  00695	ba 04 00 00 00	 mov	 edx, 4
  0069a	6b c2 05	 imul	 eax, edx, 5
  0069d	8b 4d 08	 mov	 ecx, DWORD PTR _u_buf$[ebp]
  006a0	8b 14 01	 mov	 edx, DWORD PTR [ecx+eax]
  006a3	52		 push	 edx
  006a4	8b 45 fc	 mov	 eax, DWORD PTR _k$[ebp]
  006a7	50		 push	 eax
  006a8	e8 00 00 00 00	 call	 ?MultiplyAndAdd1Word_using_ADCX_MULX@Internal@Core@Math@Palmtree@@YAIIIPAI@Z ; Palmtree::Math::Core::Internal::MultiplyAndAdd1Word_using_ADCX_MULX
  006ad	83 c4 0c	 add	 esp, 12			; 0000000cH
  006b0	89 45 fc	 mov	 DWORD PTR _k$[ebp], eax

; 860  :             k = MultiplyAndAdd1Word_using_ADCX_MULX(k, u_buf[6], &u_buf[6]);

  006b3	b9 04 00 00 00	 mov	 ecx, 4
  006b8	6b d1 06	 imul	 edx, ecx, 6
  006bb	03 55 08	 add	 edx, DWORD PTR _u_buf$[ebp]
  006be	52		 push	 edx
  006bf	b8 04 00 00 00	 mov	 eax, 4
  006c4	6b c8 06	 imul	 ecx, eax, 6
  006c7	8b 55 08	 mov	 edx, DWORD PTR _u_buf$[ebp]
  006ca	8b 04 0a	 mov	 eax, DWORD PTR [edx+ecx]
  006cd	50		 push	 eax
  006ce	8b 4d fc	 mov	 ecx, DWORD PTR _k$[ebp]
  006d1	51		 push	 ecx
  006d2	e8 00 00 00 00	 call	 ?MultiplyAndAdd1Word_using_ADCX_MULX@Internal@Core@Math@Palmtree@@YAIIIPAI@Z ; Palmtree::Math::Core::Internal::MultiplyAndAdd1Word_using_ADCX_MULX
  006d7	83 c4 0c	 add	 esp, 12			; 0000000cH
  006da	89 45 fc	 mov	 DWORD PTR _k$[ebp], eax

; 861  :             k = MultiplyAndAdd1Word_using_ADCX_MULX(k, u_buf[7], &u_buf[7]);

  006dd	ba 04 00 00 00	 mov	 edx, 4
  006e2	6b c2 07	 imul	 eax, edx, 7
  006e5	03 45 08	 add	 eax, DWORD PTR _u_buf$[ebp]
  006e8	50		 push	 eax
  006e9	b9 04 00 00 00	 mov	 ecx, 4
  006ee	6b d1 07	 imul	 edx, ecx, 7
  006f1	8b 45 08	 mov	 eax, DWORD PTR _u_buf$[ebp]
  006f4	8b 0c 10	 mov	 ecx, DWORD PTR [eax+edx]
  006f7	51		 push	 ecx
  006f8	8b 55 fc	 mov	 edx, DWORD PTR _k$[ebp]
  006fb	52		 push	 edx
  006fc	e8 00 00 00 00	 call	 ?MultiplyAndAdd1Word_using_ADCX_MULX@Internal@Core@Math@Palmtree@@YAIIIPAI@Z ; Palmtree::Math::Core::Internal::MultiplyAndAdd1Word_using_ADCX_MULX
  00701	83 c4 0c	 add	 esp, 12			; 0000000cH
  00704	89 45 fc	 mov	 DWORD PTR _k$[ebp], eax

; 862  :             k = MultiplyAndAdd1Word_using_ADCX_MULX(k, u_buf[8], &u_buf[8]);

  00707	b8 04 00 00 00	 mov	 eax, 4
  0070c	c1 e0 03	 shl	 eax, 3
  0070f	03 45 08	 add	 eax, DWORD PTR _u_buf$[ebp]
  00712	50		 push	 eax
  00713	b9 04 00 00 00	 mov	 ecx, 4
  00718	c1 e1 03	 shl	 ecx, 3
  0071b	8b 55 08	 mov	 edx, DWORD PTR _u_buf$[ebp]
  0071e	8b 04 0a	 mov	 eax, DWORD PTR [edx+ecx]
  00721	50		 push	 eax
  00722	8b 4d fc	 mov	 ecx, DWORD PTR _k$[ebp]
  00725	51		 push	 ecx
  00726	e8 00 00 00 00	 call	 ?MultiplyAndAdd1Word_using_ADCX_MULX@Internal@Core@Math@Palmtree@@YAIIIPAI@Z ; Palmtree::Math::Core::Internal::MultiplyAndAdd1Word_using_ADCX_MULX
  0072b	83 c4 0c	 add	 esp, 12			; 0000000cH
  0072e	89 45 fc	 mov	 DWORD PTR _k$[ebp], eax

; 863  :             k = MultiplyAndAdd1Word_using_ADCX_MULX(k, u_buf[9], &u_buf[9]);

  00731	ba 04 00 00 00	 mov	 edx, 4
  00736	6b c2 09	 imul	 eax, edx, 9
  00739	03 45 08	 add	 eax, DWORD PTR _u_buf$[ebp]
  0073c	50		 push	 eax
  0073d	b9 04 00 00 00	 mov	 ecx, 4
  00742	6b d1 09	 imul	 edx, ecx, 9
  00745	8b 45 08	 mov	 eax, DWORD PTR _u_buf$[ebp]
  00748	8b 0c 10	 mov	 ecx, DWORD PTR [eax+edx]
  0074b	51		 push	 ecx
  0074c	8b 55 fc	 mov	 edx, DWORD PTR _k$[ebp]
  0074f	52		 push	 edx
  00750	e8 00 00 00 00	 call	 ?MultiplyAndAdd1Word_using_ADCX_MULX@Internal@Core@Math@Palmtree@@YAIIIPAI@Z ; Palmtree::Math::Core::Internal::MultiplyAndAdd1Word_using_ADCX_MULX
  00755	83 c4 0c	 add	 esp, 12			; 0000000cH
  00758	89 45 fc	 mov	 DWORD PTR _k$[ebp], eax

; 864  :             k = MultiplyAndAdd1Word_using_ADCX_MULX(k, u_buf[10], &u_buf[10]);

  0075b	b8 04 00 00 00	 mov	 eax, 4
  00760	6b c8 0a	 imul	 ecx, eax, 10
  00763	03 4d 08	 add	 ecx, DWORD PTR _u_buf$[ebp]
  00766	51		 push	 ecx
  00767	ba 04 00 00 00	 mov	 edx, 4
  0076c	6b c2 0a	 imul	 eax, edx, 10
  0076f	8b 4d 08	 mov	 ecx, DWORD PTR _u_buf$[ebp]
  00772	8b 14 01	 mov	 edx, DWORD PTR [ecx+eax]
  00775	52		 push	 edx
  00776	8b 45 fc	 mov	 eax, DWORD PTR _k$[ebp]
  00779	50		 push	 eax
  0077a	e8 00 00 00 00	 call	 ?MultiplyAndAdd1Word_using_ADCX_MULX@Internal@Core@Math@Palmtree@@YAIIIPAI@Z ; Palmtree::Math::Core::Internal::MultiplyAndAdd1Word_using_ADCX_MULX
  0077f	83 c4 0c	 add	 esp, 12			; 0000000cH
  00782	89 45 fc	 mov	 DWORD PTR _k$[ebp], eax

; 865  :             k = MultiplyAndAdd1Word_using_ADCX_MULX(k, u_buf[11], &u_buf[11]);

  00785	b9 04 00 00 00	 mov	 ecx, 4
  0078a	6b d1 0b	 imul	 edx, ecx, 11
  0078d	03 55 08	 add	 edx, DWORD PTR _u_buf$[ebp]
  00790	52		 push	 edx
  00791	b8 04 00 00 00	 mov	 eax, 4
  00796	6b c8 0b	 imul	 ecx, eax, 11
  00799	8b 55 08	 mov	 edx, DWORD PTR _u_buf$[ebp]
  0079c	8b 04 0a	 mov	 eax, DWORD PTR [edx+ecx]
  0079f	50		 push	 eax
  007a0	8b 4d fc	 mov	 ecx, DWORD PTR _k$[ebp]
  007a3	51		 push	 ecx
  007a4	e8 00 00 00 00	 call	 ?MultiplyAndAdd1Word_using_ADCX_MULX@Internal@Core@Math@Palmtree@@YAIIIPAI@Z ; Palmtree::Math::Core::Internal::MultiplyAndAdd1Word_using_ADCX_MULX
  007a9	83 c4 0c	 add	 esp, 12			; 0000000cH
  007ac	89 45 fc	 mov	 DWORD PTR _k$[ebp], eax

; 866  :             k = MultiplyAndAdd1Word_using_ADCX_MULX(k, u_buf[12], &u_buf[12]);

  007af	ba 04 00 00 00	 mov	 edx, 4
  007b4	6b c2 0c	 imul	 eax, edx, 12
  007b7	03 45 08	 add	 eax, DWORD PTR _u_buf$[ebp]
  007ba	50		 push	 eax
  007bb	b9 04 00 00 00	 mov	 ecx, 4
  007c0	6b d1 0c	 imul	 edx, ecx, 12
  007c3	8b 45 08	 mov	 eax, DWORD PTR _u_buf$[ebp]
  007c6	8b 0c 10	 mov	 ecx, DWORD PTR [eax+edx]
  007c9	51		 push	 ecx
  007ca	8b 55 fc	 mov	 edx, DWORD PTR _k$[ebp]
  007cd	52		 push	 edx
  007ce	e8 00 00 00 00	 call	 ?MultiplyAndAdd1Word_using_ADCX_MULX@Internal@Core@Math@Palmtree@@YAIIIPAI@Z ; Palmtree::Math::Core::Internal::MultiplyAndAdd1Word_using_ADCX_MULX
  007d3	83 c4 0c	 add	 esp, 12			; 0000000cH
  007d6	89 45 fc	 mov	 DWORD PTR _k$[ebp], eax

; 867  :             k = MultiplyAndAdd1Word_using_ADCX_MULX(k, u_buf[13], &u_buf[13]);

  007d9	b8 04 00 00 00	 mov	 eax, 4
  007de	6b c8 0d	 imul	 ecx, eax, 13
  007e1	03 4d 08	 add	 ecx, DWORD PTR _u_buf$[ebp]
  007e4	51		 push	 ecx
  007e5	ba 04 00 00 00	 mov	 edx, 4
  007ea	6b c2 0d	 imul	 eax, edx, 13
  007ed	8b 4d 08	 mov	 ecx, DWORD PTR _u_buf$[ebp]
  007f0	8b 14 01	 mov	 edx, DWORD PTR [ecx+eax]
  007f3	52		 push	 edx
  007f4	8b 45 fc	 mov	 eax, DWORD PTR _k$[ebp]
  007f7	50		 push	 eax
  007f8	e8 00 00 00 00	 call	 ?MultiplyAndAdd1Word_using_ADCX_MULX@Internal@Core@Math@Palmtree@@YAIIIPAI@Z ; Palmtree::Math::Core::Internal::MultiplyAndAdd1Word_using_ADCX_MULX
  007fd	83 c4 0c	 add	 esp, 12			; 0000000cH
  00800	89 45 fc	 mov	 DWORD PTR _k$[ebp], eax

; 868  :             k = MultiplyAndAdd1Word_using_ADCX_MULX(k, u_buf[14], &u_buf[14]);

  00803	b9 04 00 00 00	 mov	 ecx, 4
  00808	6b d1 0e	 imul	 edx, ecx, 14
  0080b	03 55 08	 add	 edx, DWORD PTR _u_buf$[ebp]
  0080e	52		 push	 edx
  0080f	b8 04 00 00 00	 mov	 eax, 4
  00814	6b c8 0e	 imul	 ecx, eax, 14
  00817	8b 55 08	 mov	 edx, DWORD PTR _u_buf$[ebp]
  0081a	8b 04 0a	 mov	 eax, DWORD PTR [edx+ecx]
  0081d	50		 push	 eax
  0081e	8b 4d fc	 mov	 ecx, DWORD PTR _k$[ebp]
  00821	51		 push	 ecx
  00822	e8 00 00 00 00	 call	 ?MultiplyAndAdd1Word_using_ADCX_MULX@Internal@Core@Math@Palmtree@@YAIIIPAI@Z ; Palmtree::Math::Core::Internal::MultiplyAndAdd1Word_using_ADCX_MULX
  00827	83 c4 0c	 add	 esp, 12			; 0000000cH
  0082a	89 45 fc	 mov	 DWORD PTR _k$[ebp], eax

; 869  :             k = MultiplyAndAdd1Word_using_ADCX_MULX(k, u_buf[15], &u_buf[15]);

  0082d	ba 04 00 00 00	 mov	 edx, 4
  00832	6b c2 0f	 imul	 eax, edx, 15
  00835	03 45 08	 add	 eax, DWORD PTR _u_buf$[ebp]
  00838	50		 push	 eax
  00839	b9 04 00 00 00	 mov	 ecx, 4
  0083e	6b d1 0f	 imul	 edx, ecx, 15
  00841	8b 45 08	 mov	 eax, DWORD PTR _u_buf$[ebp]
  00844	8b 0c 10	 mov	 ecx, DWORD PTR [eax+edx]
  00847	51		 push	 ecx
  00848	8b 55 fc	 mov	 edx, DWORD PTR _k$[ebp]
  0084b	52		 push	 edx
  0084c	e8 00 00 00 00	 call	 ?MultiplyAndAdd1Word_using_ADCX_MULX@Internal@Core@Math@Palmtree@@YAIIIPAI@Z ; Palmtree::Math::Core::Internal::MultiplyAndAdd1Word_using_ADCX_MULX
  00851	83 c4 0c	 add	 esp, 12			; 0000000cH
  00854	89 45 fc	 mov	 DWORD PTR _k$[ebp], eax

; 870  :             u_buf += 16;

  00857	8b 45 08	 mov	 eax, DWORD PTR _u_buf$[ebp]
  0085a	83 c0 40	 add	 eax, 64			; 00000040H
  0085d	89 45 08	 mov	 DWORD PTR _u_buf$[ebp], eax

; 871  : #ifdef ENABLED_PERFORMANCE_COUNTER
; 872  :             if (sizeof(k) == sizeof(_UINT32_T))

  00860	b9 01 00 00 00	 mov	 ecx, 1
  00865	85 c9		 test	 ecx, ecx
  00867	74 0c		 je	 SHORT $LN7@MultiplyAn

; 873  :                 AddToMULTI32Counter(16);

  00869	6a 10		 push	 16			; 00000010H
  0086b	e8 00 00 00 00	 call	 ?AddToMULTI32Counter@Internal@Core@Math@Palmtree@@YAXH@Z ; Palmtree::Math::Core::Internal::AddToMULTI32Counter
  00870	83 c4 04	 add	 esp, 4

; 874  :             else

  00873	eb 0a		 jmp	 SHORT $LN6@MultiplyAn
$LN7@MultiplyAn:

; 875  :                 AddToMULTI64Counter(16);

  00875	6a 10		 push	 16			; 00000010H
  00877	e8 00 00 00 00	 call	 ?AddToMULTI64Counter@Internal@Core@Math@Palmtree@@YAXH@Z ; Palmtree::Math::Core::Internal::AddToMULTI64Counter
  0087c	83 c4 04	 add	 esp, 4
$LN6@MultiplyAn:

; 876  : #endif
; 877  :         }
; 878  : 
; 879  :         if (u_count & 0x8)

  0087f	8b 55 0c	 mov	 edx, DWORD PTR _u_count$[ebp]
  00882	83 e2 08	 and	 edx, 8
  00885	0f 84 76 01 00
	00		 je	 $LN9@MultiplyAn

; 880  :         {
; 881  :             k = MultiplyAndAdd1Word_using_ADCX_MULX(k, u_buf[0], &u_buf[0]);

  0088b	b8 04 00 00 00	 mov	 eax, 4
  00890	6b c8 00	 imul	 ecx, eax, 0
  00893	03 4d 08	 add	 ecx, DWORD PTR _u_buf$[ebp]
  00896	51		 push	 ecx
  00897	ba 04 00 00 00	 mov	 edx, 4
  0089c	6b c2 00	 imul	 eax, edx, 0
  0089f	8b 4d 08	 mov	 ecx, DWORD PTR _u_buf$[ebp]
  008a2	8b 14 01	 mov	 edx, DWORD PTR [ecx+eax]
  008a5	52		 push	 edx
  008a6	8b 45 fc	 mov	 eax, DWORD PTR _k$[ebp]
  008a9	50		 push	 eax
  008aa	e8 00 00 00 00	 call	 ?MultiplyAndAdd1Word_using_ADCX_MULX@Internal@Core@Math@Palmtree@@YAIIIPAI@Z ; Palmtree::Math::Core::Internal::MultiplyAndAdd1Word_using_ADCX_MULX
  008af	83 c4 0c	 add	 esp, 12			; 0000000cH
  008b2	89 45 fc	 mov	 DWORD PTR _k$[ebp], eax

; 882  :             k = MultiplyAndAdd1Word_using_ADCX_MULX(k, u_buf[1], &u_buf[1]);

  008b5	b9 04 00 00 00	 mov	 ecx, 4
  008ba	c1 e1 00	 shl	 ecx, 0
  008bd	03 4d 08	 add	 ecx, DWORD PTR _u_buf$[ebp]
  008c0	51		 push	 ecx
  008c1	ba 04 00 00 00	 mov	 edx, 4
  008c6	c1 e2 00	 shl	 edx, 0
  008c9	8b 45 08	 mov	 eax, DWORD PTR _u_buf$[ebp]
  008cc	8b 0c 10	 mov	 ecx, DWORD PTR [eax+edx]
  008cf	51		 push	 ecx
  008d0	8b 55 fc	 mov	 edx, DWORD PTR _k$[ebp]
  008d3	52		 push	 edx
  008d4	e8 00 00 00 00	 call	 ?MultiplyAndAdd1Word_using_ADCX_MULX@Internal@Core@Math@Palmtree@@YAIIIPAI@Z ; Palmtree::Math::Core::Internal::MultiplyAndAdd1Word_using_ADCX_MULX
  008d9	83 c4 0c	 add	 esp, 12			; 0000000cH
  008dc	89 45 fc	 mov	 DWORD PTR _k$[ebp], eax

; 883  :             k = MultiplyAndAdd1Word_using_ADCX_MULX(k, u_buf[2], &u_buf[2]);

  008df	b8 04 00 00 00	 mov	 eax, 4
  008e4	d1 e0		 shl	 eax, 1
  008e6	03 45 08	 add	 eax, DWORD PTR _u_buf$[ebp]
  008e9	50		 push	 eax
  008ea	b9 04 00 00 00	 mov	 ecx, 4
  008ef	d1 e1		 shl	 ecx, 1
  008f1	8b 55 08	 mov	 edx, DWORD PTR _u_buf$[ebp]
  008f4	8b 04 0a	 mov	 eax, DWORD PTR [edx+ecx]
  008f7	50		 push	 eax
  008f8	8b 4d fc	 mov	 ecx, DWORD PTR _k$[ebp]
  008fb	51		 push	 ecx
  008fc	e8 00 00 00 00	 call	 ?MultiplyAndAdd1Word_using_ADCX_MULX@Internal@Core@Math@Palmtree@@YAIIIPAI@Z ; Palmtree::Math::Core::Internal::MultiplyAndAdd1Word_using_ADCX_MULX
  00901	83 c4 0c	 add	 esp, 12			; 0000000cH
  00904	89 45 fc	 mov	 DWORD PTR _k$[ebp], eax

; 884  :             k = MultiplyAndAdd1Word_using_ADCX_MULX(k, u_buf[3], &u_buf[3]);

  00907	ba 04 00 00 00	 mov	 edx, 4
  0090c	6b c2 03	 imul	 eax, edx, 3
  0090f	03 45 08	 add	 eax, DWORD PTR _u_buf$[ebp]
  00912	50		 push	 eax
  00913	b9 04 00 00 00	 mov	 ecx, 4
  00918	6b d1 03	 imul	 edx, ecx, 3
  0091b	8b 45 08	 mov	 eax, DWORD PTR _u_buf$[ebp]
  0091e	8b 0c 10	 mov	 ecx, DWORD PTR [eax+edx]
  00921	51		 push	 ecx
  00922	8b 55 fc	 mov	 edx, DWORD PTR _k$[ebp]
  00925	52		 push	 edx
  00926	e8 00 00 00 00	 call	 ?MultiplyAndAdd1Word_using_ADCX_MULX@Internal@Core@Math@Palmtree@@YAIIIPAI@Z ; Palmtree::Math::Core::Internal::MultiplyAndAdd1Word_using_ADCX_MULX
  0092b	83 c4 0c	 add	 esp, 12			; 0000000cH
  0092e	89 45 fc	 mov	 DWORD PTR _k$[ebp], eax

; 885  :             k = MultiplyAndAdd1Word_using_ADCX_MULX(k, u_buf[4], &u_buf[4]);

  00931	b8 04 00 00 00	 mov	 eax, 4
  00936	c1 e0 02	 shl	 eax, 2
  00939	03 45 08	 add	 eax, DWORD PTR _u_buf$[ebp]
  0093c	50		 push	 eax
  0093d	b9 04 00 00 00	 mov	 ecx, 4
  00942	c1 e1 02	 shl	 ecx, 2
  00945	8b 55 08	 mov	 edx, DWORD PTR _u_buf$[ebp]
  00948	8b 04 0a	 mov	 eax, DWORD PTR [edx+ecx]
  0094b	50		 push	 eax
  0094c	8b 4d fc	 mov	 ecx, DWORD PTR _k$[ebp]
  0094f	51		 push	 ecx
  00950	e8 00 00 00 00	 call	 ?MultiplyAndAdd1Word_using_ADCX_MULX@Internal@Core@Math@Palmtree@@YAIIIPAI@Z ; Palmtree::Math::Core::Internal::MultiplyAndAdd1Word_using_ADCX_MULX
  00955	83 c4 0c	 add	 esp, 12			; 0000000cH
  00958	89 45 fc	 mov	 DWORD PTR _k$[ebp], eax

; 886  :             k = MultiplyAndAdd1Word_using_ADCX_MULX(k, u_buf[5], &u_buf[5]);

  0095b	ba 04 00 00 00	 mov	 edx, 4
  00960	6b c2 05	 imul	 eax, edx, 5
  00963	03 45 08	 add	 eax, DWORD PTR _u_buf$[ebp]
  00966	50		 push	 eax
  00967	b9 04 00 00 00	 mov	 ecx, 4
  0096c	6b d1 05	 imul	 edx, ecx, 5
  0096f	8b 45 08	 mov	 eax, DWORD PTR _u_buf$[ebp]
  00972	8b 0c 10	 mov	 ecx, DWORD PTR [eax+edx]
  00975	51		 push	 ecx
  00976	8b 55 fc	 mov	 edx, DWORD PTR _k$[ebp]
  00979	52		 push	 edx
  0097a	e8 00 00 00 00	 call	 ?MultiplyAndAdd1Word_using_ADCX_MULX@Internal@Core@Math@Palmtree@@YAIIIPAI@Z ; Palmtree::Math::Core::Internal::MultiplyAndAdd1Word_using_ADCX_MULX
  0097f	83 c4 0c	 add	 esp, 12			; 0000000cH
  00982	89 45 fc	 mov	 DWORD PTR _k$[ebp], eax

; 887  :             k = MultiplyAndAdd1Word_using_ADCX_MULX(k, u_buf[6], &u_buf[6]);

  00985	b8 04 00 00 00	 mov	 eax, 4
  0098a	6b c8 06	 imul	 ecx, eax, 6
  0098d	03 4d 08	 add	 ecx, DWORD PTR _u_buf$[ebp]
  00990	51		 push	 ecx
  00991	ba 04 00 00 00	 mov	 edx, 4
  00996	6b c2 06	 imul	 eax, edx, 6
  00999	8b 4d 08	 mov	 ecx, DWORD PTR _u_buf$[ebp]
  0099c	8b 14 01	 mov	 edx, DWORD PTR [ecx+eax]
  0099f	52		 push	 edx
  009a0	8b 45 fc	 mov	 eax, DWORD PTR _k$[ebp]
  009a3	50		 push	 eax
  009a4	e8 00 00 00 00	 call	 ?MultiplyAndAdd1Word_using_ADCX_MULX@Internal@Core@Math@Palmtree@@YAIIIPAI@Z ; Palmtree::Math::Core::Internal::MultiplyAndAdd1Word_using_ADCX_MULX
  009a9	83 c4 0c	 add	 esp, 12			; 0000000cH
  009ac	89 45 fc	 mov	 DWORD PTR _k$[ebp], eax

; 888  :             k = MultiplyAndAdd1Word_using_ADCX_MULX(k, u_buf[7], &u_buf[7]);

  009af	b9 04 00 00 00	 mov	 ecx, 4
  009b4	6b d1 07	 imul	 edx, ecx, 7
  009b7	03 55 08	 add	 edx, DWORD PTR _u_buf$[ebp]
  009ba	52		 push	 edx
  009bb	b8 04 00 00 00	 mov	 eax, 4
  009c0	6b c8 07	 imul	 ecx, eax, 7
  009c3	8b 55 08	 mov	 edx, DWORD PTR _u_buf$[ebp]
  009c6	8b 04 0a	 mov	 eax, DWORD PTR [edx+ecx]
  009c9	50		 push	 eax
  009ca	8b 4d fc	 mov	 ecx, DWORD PTR _k$[ebp]
  009cd	51		 push	 ecx
  009ce	e8 00 00 00 00	 call	 ?MultiplyAndAdd1Word_using_ADCX_MULX@Internal@Core@Math@Palmtree@@YAIIIPAI@Z ; Palmtree::Math::Core::Internal::MultiplyAndAdd1Word_using_ADCX_MULX
  009d3	83 c4 0c	 add	 esp, 12			; 0000000cH
  009d6	89 45 fc	 mov	 DWORD PTR _k$[ebp], eax

; 889  :             u_buf += 8;

  009d9	8b 55 08	 mov	 edx, DWORD PTR _u_buf$[ebp]
  009dc	83 c2 20	 add	 edx, 32			; 00000020H
  009df	89 55 08	 mov	 DWORD PTR _u_buf$[ebp], edx

; 890  : #ifdef ENABLED_PERFORMANCE_COUNTER
; 891  :             if (sizeof(k) == sizeof(_UINT32_T))

  009e2	b8 01 00 00 00	 mov	 eax, 1
  009e7	85 c0		 test	 eax, eax
  009e9	74 0c		 je	 SHORT $LN10@MultiplyAn

; 892  :                 AddToMULTI32Counter(8);

  009eb	6a 08		 push	 8
  009ed	e8 00 00 00 00	 call	 ?AddToMULTI32Counter@Internal@Core@Math@Palmtree@@YAXH@Z ; Palmtree::Math::Core::Internal::AddToMULTI32Counter
  009f2	83 c4 04	 add	 esp, 4

; 893  :             else

  009f5	eb 0a		 jmp	 SHORT $LN9@MultiplyAn
$LN10@MultiplyAn:

; 894  :                 AddToMULTI64Counter(8);

  009f7	6a 08		 push	 8
  009f9	e8 00 00 00 00	 call	 ?AddToMULTI64Counter@Internal@Core@Math@Palmtree@@YAXH@Z ; Palmtree::Math::Core::Internal::AddToMULTI64Counter
  009fe	83 c4 04	 add	 esp, 4
$LN9@MultiplyAn:

; 895  : #endif
; 896  :         }
; 897  : 
; 898  :         if (u_count & 0x4)

  00a01	8b 4d 0c	 mov	 ecx, DWORD PTR _u_count$[ebp]
  00a04	83 e1 04	 and	 ecx, 4
  00a07	0f 84 ce 00 00
	00		 je	 $LN12@MultiplyAn

; 899  :         {
; 900  :             k = MultiplyAndAdd1Word_using_ADCX_MULX(k, u_buf[0], &u_buf[0]);

  00a0d	ba 04 00 00 00	 mov	 edx, 4
  00a12	6b c2 00	 imul	 eax, edx, 0
  00a15	03 45 08	 add	 eax, DWORD PTR _u_buf$[ebp]
  00a18	50		 push	 eax
  00a19	b9 04 00 00 00	 mov	 ecx, 4
  00a1e	6b d1 00	 imul	 edx, ecx, 0
  00a21	8b 45 08	 mov	 eax, DWORD PTR _u_buf$[ebp]
  00a24	8b 0c 10	 mov	 ecx, DWORD PTR [eax+edx]
  00a27	51		 push	 ecx
  00a28	8b 55 fc	 mov	 edx, DWORD PTR _k$[ebp]
  00a2b	52		 push	 edx
  00a2c	e8 00 00 00 00	 call	 ?MultiplyAndAdd1Word_using_ADCX_MULX@Internal@Core@Math@Palmtree@@YAIIIPAI@Z ; Palmtree::Math::Core::Internal::MultiplyAndAdd1Word_using_ADCX_MULX
  00a31	83 c4 0c	 add	 esp, 12			; 0000000cH
  00a34	89 45 fc	 mov	 DWORD PTR _k$[ebp], eax

; 901  :             k = MultiplyAndAdd1Word_using_ADCX_MULX(k, u_buf[1], &u_buf[1]);

  00a37	b8 04 00 00 00	 mov	 eax, 4
  00a3c	c1 e0 00	 shl	 eax, 0
  00a3f	03 45 08	 add	 eax, DWORD PTR _u_buf$[ebp]
  00a42	50		 push	 eax
  00a43	b9 04 00 00 00	 mov	 ecx, 4
  00a48	c1 e1 00	 shl	 ecx, 0
  00a4b	8b 55 08	 mov	 edx, DWORD PTR _u_buf$[ebp]
  00a4e	8b 04 0a	 mov	 eax, DWORD PTR [edx+ecx]
  00a51	50		 push	 eax
  00a52	8b 4d fc	 mov	 ecx, DWORD PTR _k$[ebp]
  00a55	51		 push	 ecx
  00a56	e8 00 00 00 00	 call	 ?MultiplyAndAdd1Word_using_ADCX_MULX@Internal@Core@Math@Palmtree@@YAIIIPAI@Z ; Palmtree::Math::Core::Internal::MultiplyAndAdd1Word_using_ADCX_MULX
  00a5b	83 c4 0c	 add	 esp, 12			; 0000000cH
  00a5e	89 45 fc	 mov	 DWORD PTR _k$[ebp], eax

; 902  :             k = MultiplyAndAdd1Word_using_ADCX_MULX(k, u_buf[2], &u_buf[2]);

  00a61	ba 04 00 00 00	 mov	 edx, 4
  00a66	d1 e2		 shl	 edx, 1
  00a68	03 55 08	 add	 edx, DWORD PTR _u_buf$[ebp]
  00a6b	52		 push	 edx
  00a6c	b8 04 00 00 00	 mov	 eax, 4
  00a71	d1 e0		 shl	 eax, 1
  00a73	8b 4d 08	 mov	 ecx, DWORD PTR _u_buf$[ebp]
  00a76	8b 14 01	 mov	 edx, DWORD PTR [ecx+eax]
  00a79	52		 push	 edx
  00a7a	8b 45 fc	 mov	 eax, DWORD PTR _k$[ebp]
  00a7d	50		 push	 eax
  00a7e	e8 00 00 00 00	 call	 ?MultiplyAndAdd1Word_using_ADCX_MULX@Internal@Core@Math@Palmtree@@YAIIIPAI@Z ; Palmtree::Math::Core::Internal::MultiplyAndAdd1Word_using_ADCX_MULX
  00a83	83 c4 0c	 add	 esp, 12			; 0000000cH
  00a86	89 45 fc	 mov	 DWORD PTR _k$[ebp], eax

; 903  :             k = MultiplyAndAdd1Word_using_ADCX_MULX(k, u_buf[3], &u_buf[3]);

  00a89	b9 04 00 00 00	 mov	 ecx, 4
  00a8e	6b d1 03	 imul	 edx, ecx, 3
  00a91	03 55 08	 add	 edx, DWORD PTR _u_buf$[ebp]
  00a94	52		 push	 edx
  00a95	b8 04 00 00 00	 mov	 eax, 4
  00a9a	6b c8 03	 imul	 ecx, eax, 3
  00a9d	8b 55 08	 mov	 edx, DWORD PTR _u_buf$[ebp]
  00aa0	8b 04 0a	 mov	 eax, DWORD PTR [edx+ecx]
  00aa3	50		 push	 eax
  00aa4	8b 4d fc	 mov	 ecx, DWORD PTR _k$[ebp]
  00aa7	51		 push	 ecx
  00aa8	e8 00 00 00 00	 call	 ?MultiplyAndAdd1Word_using_ADCX_MULX@Internal@Core@Math@Palmtree@@YAIIIPAI@Z ; Palmtree::Math::Core::Internal::MultiplyAndAdd1Word_using_ADCX_MULX
  00aad	83 c4 0c	 add	 esp, 12			; 0000000cH
  00ab0	89 45 fc	 mov	 DWORD PTR _k$[ebp], eax

; 904  :             u_buf += 4;

  00ab3	8b 55 08	 mov	 edx, DWORD PTR _u_buf$[ebp]
  00ab6	83 c2 10	 add	 edx, 16			; 00000010H
  00ab9	89 55 08	 mov	 DWORD PTR _u_buf$[ebp], edx

; 905  : #ifdef ENABLED_PERFORMANCE_COUNTER
; 906  :             if (sizeof(k) == sizeof(_UINT32_T))

  00abc	b8 01 00 00 00	 mov	 eax, 1
  00ac1	85 c0		 test	 eax, eax
  00ac3	74 0c		 je	 SHORT $LN13@MultiplyAn

; 907  :                 AddToMULTI32Counter(4);

  00ac5	6a 04		 push	 4
  00ac7	e8 00 00 00 00	 call	 ?AddToMULTI32Counter@Internal@Core@Math@Palmtree@@YAXH@Z ; Palmtree::Math::Core::Internal::AddToMULTI32Counter
  00acc	83 c4 04	 add	 esp, 4

; 908  :             else

  00acf	eb 0a		 jmp	 SHORT $LN12@MultiplyAn
$LN13@MultiplyAn:

; 909  :                 AddToMULTI64Counter(4);

  00ad1	6a 04		 push	 4
  00ad3	e8 00 00 00 00	 call	 ?AddToMULTI64Counter@Internal@Core@Math@Palmtree@@YAXH@Z ; Palmtree::Math::Core::Internal::AddToMULTI64Counter
  00ad8	83 c4 04	 add	 esp, 4
$LN12@MultiplyAn:

; 910  : #endif
; 911  :         }
; 912  : 
; 913  :         if (u_count & 0x2)

  00adb	8b 4d 0c	 mov	 ecx, DWORD PTR _u_count$[ebp]
  00ade	83 e1 02	 and	 ecx, 2
  00ae1	74 7c		 je	 SHORT $LN15@MultiplyAn

; 914  :         {
; 915  :             k = MultiplyAndAdd1Word_using_ADCX_MULX(k, u_buf[0], &u_buf[0]);

  00ae3	ba 04 00 00 00	 mov	 edx, 4
  00ae8	6b c2 00	 imul	 eax, edx, 0
  00aeb	03 45 08	 add	 eax, DWORD PTR _u_buf$[ebp]
  00aee	50		 push	 eax
  00aef	b9 04 00 00 00	 mov	 ecx, 4
  00af4	6b d1 00	 imul	 edx, ecx, 0
  00af7	8b 45 08	 mov	 eax, DWORD PTR _u_buf$[ebp]
  00afa	8b 0c 10	 mov	 ecx, DWORD PTR [eax+edx]
  00afd	51		 push	 ecx
  00afe	8b 55 fc	 mov	 edx, DWORD PTR _k$[ebp]
  00b01	52		 push	 edx
  00b02	e8 00 00 00 00	 call	 ?MultiplyAndAdd1Word_using_ADCX_MULX@Internal@Core@Math@Palmtree@@YAIIIPAI@Z ; Palmtree::Math::Core::Internal::MultiplyAndAdd1Word_using_ADCX_MULX
  00b07	83 c4 0c	 add	 esp, 12			; 0000000cH
  00b0a	89 45 fc	 mov	 DWORD PTR _k$[ebp], eax

; 916  :             k = MultiplyAndAdd1Word_using_ADCX_MULX(k, u_buf[1], &u_buf[1]);

  00b0d	b8 04 00 00 00	 mov	 eax, 4
  00b12	c1 e0 00	 shl	 eax, 0
  00b15	03 45 08	 add	 eax, DWORD PTR _u_buf$[ebp]
  00b18	50		 push	 eax
  00b19	b9 04 00 00 00	 mov	 ecx, 4
  00b1e	c1 e1 00	 shl	 ecx, 0
  00b21	8b 55 08	 mov	 edx, DWORD PTR _u_buf$[ebp]
  00b24	8b 04 0a	 mov	 eax, DWORD PTR [edx+ecx]
  00b27	50		 push	 eax
  00b28	8b 4d fc	 mov	 ecx, DWORD PTR _k$[ebp]
  00b2b	51		 push	 ecx
  00b2c	e8 00 00 00 00	 call	 ?MultiplyAndAdd1Word_using_ADCX_MULX@Internal@Core@Math@Palmtree@@YAIIIPAI@Z ; Palmtree::Math::Core::Internal::MultiplyAndAdd1Word_using_ADCX_MULX
  00b31	83 c4 0c	 add	 esp, 12			; 0000000cH
  00b34	89 45 fc	 mov	 DWORD PTR _k$[ebp], eax

; 917  :             u_buf += 2;

  00b37	8b 55 08	 mov	 edx, DWORD PTR _u_buf$[ebp]
  00b3a	83 c2 08	 add	 edx, 8
  00b3d	89 55 08	 mov	 DWORD PTR _u_buf$[ebp], edx

; 918  : #ifdef ENABLED_PERFORMANCE_COUNTER
; 919  :             if (sizeof(k) == sizeof(_UINT32_T))

  00b40	b8 01 00 00 00	 mov	 eax, 1
  00b45	85 c0		 test	 eax, eax
  00b47	74 0c		 je	 SHORT $LN16@MultiplyAn

; 920  :                 AddToMULTI32Counter(2);

  00b49	6a 02		 push	 2
  00b4b	e8 00 00 00 00	 call	 ?AddToMULTI32Counter@Internal@Core@Math@Palmtree@@YAXH@Z ; Palmtree::Math::Core::Internal::AddToMULTI32Counter
  00b50	83 c4 04	 add	 esp, 4

; 921  :             else

  00b53	eb 0a		 jmp	 SHORT $LN15@MultiplyAn
$LN16@MultiplyAn:

; 922  :                 AddToMULTI64Counter(2);

  00b55	6a 02		 push	 2
  00b57	e8 00 00 00 00	 call	 ?AddToMULTI64Counter@Internal@Core@Math@Palmtree@@YAXH@Z ; Palmtree::Math::Core::Internal::AddToMULTI64Counter
  00b5c	83 c4 04	 add	 esp, 4
$LN15@MultiplyAn:

; 923  : #endif
; 924  :         }
; 925  : 
; 926  :         if (u_count & 0x1)

  00b5f	8b 4d 0c	 mov	 ecx, DWORD PTR _u_count$[ebp]
  00b62	83 e1 01	 and	 ecx, 1
  00b65	74 48		 je	 SHORT $LN18@MultiplyAn

; 927  :         {
; 928  :             k = MultiplyAndAdd1Word_using_ADCX_MULX(k, u_buf[0], &u_buf[0]);

  00b67	ba 04 00 00 00	 mov	 edx, 4
  00b6c	6b c2 00	 imul	 eax, edx, 0
  00b6f	03 45 08	 add	 eax, DWORD PTR _u_buf$[ebp]
  00b72	50		 push	 eax
  00b73	b9 04 00 00 00	 mov	 ecx, 4
  00b78	6b d1 00	 imul	 edx, ecx, 0
  00b7b	8b 45 08	 mov	 eax, DWORD PTR _u_buf$[ebp]
  00b7e	8b 0c 10	 mov	 ecx, DWORD PTR [eax+edx]
  00b81	51		 push	 ecx
  00b82	8b 55 fc	 mov	 edx, DWORD PTR _k$[ebp]
  00b85	52		 push	 edx
  00b86	e8 00 00 00 00	 call	 ?MultiplyAndAdd1Word_using_ADCX_MULX@Internal@Core@Math@Palmtree@@YAIIIPAI@Z ; Palmtree::Math::Core::Internal::MultiplyAndAdd1Word_using_ADCX_MULX
  00b8b	83 c4 0c	 add	 esp, 12			; 0000000cH
  00b8e	89 45 fc	 mov	 DWORD PTR _k$[ebp], eax

; 929  :             u_buf += 1;

  00b91	8b 45 08	 mov	 eax, DWORD PTR _u_buf$[ebp]
  00b94	83 c0 04	 add	 eax, 4
  00b97	89 45 08	 mov	 DWORD PTR _u_buf$[ebp], eax

; 930  : #ifdef ENABLED_PERFORMANCE_COUNTER
; 931  :             if (sizeof(k) == sizeof(_UINT32_T))

  00b9a	b9 01 00 00 00	 mov	 ecx, 1
  00b9f	85 c9		 test	 ecx, ecx
  00ba1	74 07		 je	 SHORT $LN19@MultiplyAn

; 932  :                 IncrementMULTI32Counter();

  00ba3	e8 00 00 00 00	 call	 ?IncrementMULTI32Counter@Internal@Core@Math@Palmtree@@YAXXZ ; Palmtree::Math::Core::Internal::IncrementMULTI32Counter

; 933  :             else

  00ba8	eb 05		 jmp	 SHORT $LN18@MultiplyAn
$LN19@MultiplyAn:

; 934  :                 IncrementMULTI64Counter();

  00baa	e8 00 00 00 00	 call	 ?IncrementMULTI64Counter@Internal@Core@Math@Palmtree@@YAXXZ ; Palmtree::Math::Core::Internal::IncrementMULTI64Counter
$LN18@MultiplyAn:

; 935  : #endif
; 936  :         }
; 937  : 
; 938  :         if (k > 0)

  00baf	83 7d fc 00	 cmp	 DWORD PTR _k$[ebp], 0
  00bb3	76 1a		 jbe	 SHORT $LN21@MultiplyAn

; 939  :         {
; 940  :             u_buf[0] = k;

  00bb5	ba 04 00 00 00	 mov	 edx, 4
  00bba	6b c2 00	 imul	 eax, edx, 0
  00bbd	8b 4d 08	 mov	 ecx, DWORD PTR _u_buf$[ebp]
  00bc0	8b 55 fc	 mov	 edx, DWORD PTR _k$[ebp]
  00bc3	89 14 01	 mov	 DWORD PTR [ecx+eax], edx

; 941  :             u_buf += 1;

  00bc6	8b 45 08	 mov	 eax, DWORD PTR _u_buf$[ebp]
  00bc9	83 c0 04	 add	 eax, 4
  00bcc	89 45 08	 mov	 DWORD PTR _u_buf$[ebp], eax
$LN21@MultiplyAn:

; 942  :         }
; 943  : 
; 944  :         return (u_buf);

  00bcf	8b 45 08	 mov	 eax, DWORD PTR _u_buf$[ebp]

; 945  :     }

  00bd2	83 c4 08	 add	 esp, 8
  00bd5	3b ec		 cmp	 ebp, esp
  00bd7	e8 00 00 00 00	 call	 __RTC_CheckEsp
  00bdc	8b e5		 mov	 esp, ebp
  00bde	5d		 pop	 ebp
  00bdf	c3		 ret	 0
?MultiplyAndAdd_using_ADCX_MULX@Internal@Core@Math@Palmtree@@YAPAIPAIII@Z ENDP ; Palmtree::Math::Core::Internal::MultiplyAndAdd_using_ADCX_MULX
_TEXT	ENDS
; Function compile flags: /Odtp /RTCsu
; File z:\sources\lunor\repos\rougemeilland\palmtree.math.core.uint\palmtree.math.core.uint\pmc_parse.cpp
_TEXT	SEGMENT
_count$ = -8						; size = 4
_k$ = -4						; size = 4
_u_buf$ = 8						; size = 4
_u_count$ = 12						; size = 4
_x$ = 16						; size = 4
?MultiplyAndAdd_using_ADC_MUL@Internal@Core@Math@Palmtree@@YAPAIPAIII@Z PROC ; Palmtree::Math::Core::Internal::MultiplyAndAdd_using_ADC_MUL

; 662  :     {

  00000	55		 push	 ebp
  00001	8b ec		 mov	 ebp, esp
  00003	83 ec 08	 sub	 esp, 8
  00006	c7 45 f8 cc cc
	cc cc		 mov	 DWORD PTR [ebp-8], -858993460 ; ccccccccH
  0000d	c7 45 fc cc cc
	cc cc		 mov	 DWORD PTR [ebp-4], -858993460 ; ccccccccH
  00014	b9 00 00 00 00	 mov	 ecx, OFFSET __F159A697_pmc_parse@cpp
  00019	e8 00 00 00 00	 call	 @__CheckForDebuggerJustMyCode@4

; 663  :         __UNIT_TYPE k = x;

  0001e	8b 45 10	 mov	 eax, DWORD PTR _x$[ebp]
  00021	89 45 fc	 mov	 DWORD PTR _k$[ebp], eax

; 664  :         __UNIT_TYPE count = u_count >> 5;

  00024	8b 4d 0c	 mov	 ecx, DWORD PTR _u_count$[ebp]
  00027	c1 e9 05	 shr	 ecx, 5
  0002a	89 4d f8	 mov	 DWORD PTR _count$[ebp], ecx
$LN2@MultiplyAn:

; 665  :         while (count > 0)

  0002d	83 7d f8 00	 cmp	 DWORD PTR _count$[ebp], 0
  00031	0f 86 76 05 00
	00		 jbe	 $LN3@MultiplyAn

; 666  :         {
; 667  :             k = MultiplyAndAdd1Word_using_ADC_MUL(k, u_buf[0], &u_buf[0]);

  00037	ba 04 00 00 00	 mov	 edx, 4
  0003c	6b c2 00	 imul	 eax, edx, 0
  0003f	03 45 08	 add	 eax, DWORD PTR _u_buf$[ebp]
  00042	50		 push	 eax
  00043	b9 04 00 00 00	 mov	 ecx, 4
  00048	6b d1 00	 imul	 edx, ecx, 0
  0004b	8b 45 08	 mov	 eax, DWORD PTR _u_buf$[ebp]
  0004e	8b 0c 10	 mov	 ecx, DWORD PTR [eax+edx]
  00051	51		 push	 ecx
  00052	8b 55 fc	 mov	 edx, DWORD PTR _k$[ebp]
  00055	52		 push	 edx
  00056	e8 00 00 00 00	 call	 ?MultiplyAndAdd1Word_using_ADC_MUL@Internal@Core@Math@Palmtree@@YAIIIPAI@Z ; Palmtree::Math::Core::Internal::MultiplyAndAdd1Word_using_ADC_MUL
  0005b	83 c4 0c	 add	 esp, 12			; 0000000cH
  0005e	89 45 fc	 mov	 DWORD PTR _k$[ebp], eax

; 668  :             k = MultiplyAndAdd1Word_using_ADC_MUL(k, u_buf[1], &u_buf[1]);

  00061	b8 04 00 00 00	 mov	 eax, 4
  00066	c1 e0 00	 shl	 eax, 0
  00069	03 45 08	 add	 eax, DWORD PTR _u_buf$[ebp]
  0006c	50		 push	 eax
  0006d	b9 04 00 00 00	 mov	 ecx, 4
  00072	c1 e1 00	 shl	 ecx, 0
  00075	8b 55 08	 mov	 edx, DWORD PTR _u_buf$[ebp]
  00078	8b 04 0a	 mov	 eax, DWORD PTR [edx+ecx]
  0007b	50		 push	 eax
  0007c	8b 4d fc	 mov	 ecx, DWORD PTR _k$[ebp]
  0007f	51		 push	 ecx
  00080	e8 00 00 00 00	 call	 ?MultiplyAndAdd1Word_using_ADC_MUL@Internal@Core@Math@Palmtree@@YAIIIPAI@Z ; Palmtree::Math::Core::Internal::MultiplyAndAdd1Word_using_ADC_MUL
  00085	83 c4 0c	 add	 esp, 12			; 0000000cH
  00088	89 45 fc	 mov	 DWORD PTR _k$[ebp], eax

; 669  :             k = MultiplyAndAdd1Word_using_ADC_MUL(k, u_buf[2], &u_buf[2]);

  0008b	ba 04 00 00 00	 mov	 edx, 4
  00090	d1 e2		 shl	 edx, 1
  00092	03 55 08	 add	 edx, DWORD PTR _u_buf$[ebp]
  00095	52		 push	 edx
  00096	b8 04 00 00 00	 mov	 eax, 4
  0009b	d1 e0		 shl	 eax, 1
  0009d	8b 4d 08	 mov	 ecx, DWORD PTR _u_buf$[ebp]
  000a0	8b 14 01	 mov	 edx, DWORD PTR [ecx+eax]
  000a3	52		 push	 edx
  000a4	8b 45 fc	 mov	 eax, DWORD PTR _k$[ebp]
  000a7	50		 push	 eax
  000a8	e8 00 00 00 00	 call	 ?MultiplyAndAdd1Word_using_ADC_MUL@Internal@Core@Math@Palmtree@@YAIIIPAI@Z ; Palmtree::Math::Core::Internal::MultiplyAndAdd1Word_using_ADC_MUL
  000ad	83 c4 0c	 add	 esp, 12			; 0000000cH
  000b0	89 45 fc	 mov	 DWORD PTR _k$[ebp], eax

; 670  :             k = MultiplyAndAdd1Word_using_ADC_MUL(k, u_buf[3], &u_buf[3]);

  000b3	b9 04 00 00 00	 mov	 ecx, 4
  000b8	6b d1 03	 imul	 edx, ecx, 3
  000bb	03 55 08	 add	 edx, DWORD PTR _u_buf$[ebp]
  000be	52		 push	 edx
  000bf	b8 04 00 00 00	 mov	 eax, 4
  000c4	6b c8 03	 imul	 ecx, eax, 3
  000c7	8b 55 08	 mov	 edx, DWORD PTR _u_buf$[ebp]
  000ca	8b 04 0a	 mov	 eax, DWORD PTR [edx+ecx]
  000cd	50		 push	 eax
  000ce	8b 4d fc	 mov	 ecx, DWORD PTR _k$[ebp]
  000d1	51		 push	 ecx
  000d2	e8 00 00 00 00	 call	 ?MultiplyAndAdd1Word_using_ADC_MUL@Internal@Core@Math@Palmtree@@YAIIIPAI@Z ; Palmtree::Math::Core::Internal::MultiplyAndAdd1Word_using_ADC_MUL
  000d7	83 c4 0c	 add	 esp, 12			; 0000000cH
  000da	89 45 fc	 mov	 DWORD PTR _k$[ebp], eax

; 671  :             k = MultiplyAndAdd1Word_using_ADC_MUL(k, u_buf[4], &u_buf[4]);

  000dd	ba 04 00 00 00	 mov	 edx, 4
  000e2	c1 e2 02	 shl	 edx, 2
  000e5	03 55 08	 add	 edx, DWORD PTR _u_buf$[ebp]
  000e8	52		 push	 edx
  000e9	b8 04 00 00 00	 mov	 eax, 4
  000ee	c1 e0 02	 shl	 eax, 2
  000f1	8b 4d 08	 mov	 ecx, DWORD PTR _u_buf$[ebp]
  000f4	8b 14 01	 mov	 edx, DWORD PTR [ecx+eax]
  000f7	52		 push	 edx
  000f8	8b 45 fc	 mov	 eax, DWORD PTR _k$[ebp]
  000fb	50		 push	 eax
  000fc	e8 00 00 00 00	 call	 ?MultiplyAndAdd1Word_using_ADC_MUL@Internal@Core@Math@Palmtree@@YAIIIPAI@Z ; Palmtree::Math::Core::Internal::MultiplyAndAdd1Word_using_ADC_MUL
  00101	83 c4 0c	 add	 esp, 12			; 0000000cH
  00104	89 45 fc	 mov	 DWORD PTR _k$[ebp], eax

; 672  :             k = MultiplyAndAdd1Word_using_ADC_MUL(k, u_buf[5], &u_buf[5]);

  00107	b9 04 00 00 00	 mov	 ecx, 4
  0010c	6b d1 05	 imul	 edx, ecx, 5
  0010f	03 55 08	 add	 edx, DWORD PTR _u_buf$[ebp]
  00112	52		 push	 edx
  00113	b8 04 00 00 00	 mov	 eax, 4
  00118	6b c8 05	 imul	 ecx, eax, 5
  0011b	8b 55 08	 mov	 edx, DWORD PTR _u_buf$[ebp]
  0011e	8b 04 0a	 mov	 eax, DWORD PTR [edx+ecx]
  00121	50		 push	 eax
  00122	8b 4d fc	 mov	 ecx, DWORD PTR _k$[ebp]
  00125	51		 push	 ecx
  00126	e8 00 00 00 00	 call	 ?MultiplyAndAdd1Word_using_ADC_MUL@Internal@Core@Math@Palmtree@@YAIIIPAI@Z ; Palmtree::Math::Core::Internal::MultiplyAndAdd1Word_using_ADC_MUL
  0012b	83 c4 0c	 add	 esp, 12			; 0000000cH
  0012e	89 45 fc	 mov	 DWORD PTR _k$[ebp], eax

; 673  :             k = MultiplyAndAdd1Word_using_ADC_MUL(k, u_buf[6], &u_buf[6]);

  00131	ba 04 00 00 00	 mov	 edx, 4
  00136	6b c2 06	 imul	 eax, edx, 6
  00139	03 45 08	 add	 eax, DWORD PTR _u_buf$[ebp]
  0013c	50		 push	 eax
  0013d	b9 04 00 00 00	 mov	 ecx, 4
  00142	6b d1 06	 imul	 edx, ecx, 6
  00145	8b 45 08	 mov	 eax, DWORD PTR _u_buf$[ebp]
  00148	8b 0c 10	 mov	 ecx, DWORD PTR [eax+edx]
  0014b	51		 push	 ecx
  0014c	8b 55 fc	 mov	 edx, DWORD PTR _k$[ebp]
  0014f	52		 push	 edx
  00150	e8 00 00 00 00	 call	 ?MultiplyAndAdd1Word_using_ADC_MUL@Internal@Core@Math@Palmtree@@YAIIIPAI@Z ; Palmtree::Math::Core::Internal::MultiplyAndAdd1Word_using_ADC_MUL
  00155	83 c4 0c	 add	 esp, 12			; 0000000cH
  00158	89 45 fc	 mov	 DWORD PTR _k$[ebp], eax

; 674  :             k = MultiplyAndAdd1Word_using_ADC_MUL(k, u_buf[7], &u_buf[7]);

  0015b	b8 04 00 00 00	 mov	 eax, 4
  00160	6b c8 07	 imul	 ecx, eax, 7
  00163	03 4d 08	 add	 ecx, DWORD PTR _u_buf$[ebp]
  00166	51		 push	 ecx
  00167	ba 04 00 00 00	 mov	 edx, 4
  0016c	6b c2 07	 imul	 eax, edx, 7
  0016f	8b 4d 08	 mov	 ecx, DWORD PTR _u_buf$[ebp]
  00172	8b 14 01	 mov	 edx, DWORD PTR [ecx+eax]
  00175	52		 push	 edx
  00176	8b 45 fc	 mov	 eax, DWORD PTR _k$[ebp]
  00179	50		 push	 eax
  0017a	e8 00 00 00 00	 call	 ?MultiplyAndAdd1Word_using_ADC_MUL@Internal@Core@Math@Palmtree@@YAIIIPAI@Z ; Palmtree::Math::Core::Internal::MultiplyAndAdd1Word_using_ADC_MUL
  0017f	83 c4 0c	 add	 esp, 12			; 0000000cH
  00182	89 45 fc	 mov	 DWORD PTR _k$[ebp], eax

; 675  :             k = MultiplyAndAdd1Word_using_ADC_MUL(k, u_buf[8], &u_buf[8]);

  00185	b9 04 00 00 00	 mov	 ecx, 4
  0018a	c1 e1 03	 shl	 ecx, 3
  0018d	03 4d 08	 add	 ecx, DWORD PTR _u_buf$[ebp]
  00190	51		 push	 ecx
  00191	ba 04 00 00 00	 mov	 edx, 4
  00196	c1 e2 03	 shl	 edx, 3
  00199	8b 45 08	 mov	 eax, DWORD PTR _u_buf$[ebp]
  0019c	8b 0c 10	 mov	 ecx, DWORD PTR [eax+edx]
  0019f	51		 push	 ecx
  001a0	8b 55 fc	 mov	 edx, DWORD PTR _k$[ebp]
  001a3	52		 push	 edx
  001a4	e8 00 00 00 00	 call	 ?MultiplyAndAdd1Word_using_ADC_MUL@Internal@Core@Math@Palmtree@@YAIIIPAI@Z ; Palmtree::Math::Core::Internal::MultiplyAndAdd1Word_using_ADC_MUL
  001a9	83 c4 0c	 add	 esp, 12			; 0000000cH
  001ac	89 45 fc	 mov	 DWORD PTR _k$[ebp], eax

; 676  :             k = MultiplyAndAdd1Word_using_ADC_MUL(k, u_buf[9], &u_buf[9]);

  001af	b8 04 00 00 00	 mov	 eax, 4
  001b4	6b c8 09	 imul	 ecx, eax, 9
  001b7	03 4d 08	 add	 ecx, DWORD PTR _u_buf$[ebp]
  001ba	51		 push	 ecx
  001bb	ba 04 00 00 00	 mov	 edx, 4
  001c0	6b c2 09	 imul	 eax, edx, 9
  001c3	8b 4d 08	 mov	 ecx, DWORD PTR _u_buf$[ebp]
  001c6	8b 14 01	 mov	 edx, DWORD PTR [ecx+eax]
  001c9	52		 push	 edx
  001ca	8b 45 fc	 mov	 eax, DWORD PTR _k$[ebp]
  001cd	50		 push	 eax
  001ce	e8 00 00 00 00	 call	 ?MultiplyAndAdd1Word_using_ADC_MUL@Internal@Core@Math@Palmtree@@YAIIIPAI@Z ; Palmtree::Math::Core::Internal::MultiplyAndAdd1Word_using_ADC_MUL
  001d3	83 c4 0c	 add	 esp, 12			; 0000000cH
  001d6	89 45 fc	 mov	 DWORD PTR _k$[ebp], eax

; 677  :             k = MultiplyAndAdd1Word_using_ADC_MUL(k, u_buf[10], &u_buf[10]);

  001d9	b9 04 00 00 00	 mov	 ecx, 4
  001de	6b d1 0a	 imul	 edx, ecx, 10
  001e1	03 55 08	 add	 edx, DWORD PTR _u_buf$[ebp]
  001e4	52		 push	 edx
  001e5	b8 04 00 00 00	 mov	 eax, 4
  001ea	6b c8 0a	 imul	 ecx, eax, 10
  001ed	8b 55 08	 mov	 edx, DWORD PTR _u_buf$[ebp]
  001f0	8b 04 0a	 mov	 eax, DWORD PTR [edx+ecx]
  001f3	50		 push	 eax
  001f4	8b 4d fc	 mov	 ecx, DWORD PTR _k$[ebp]
  001f7	51		 push	 ecx
  001f8	e8 00 00 00 00	 call	 ?MultiplyAndAdd1Word_using_ADC_MUL@Internal@Core@Math@Palmtree@@YAIIIPAI@Z ; Palmtree::Math::Core::Internal::MultiplyAndAdd1Word_using_ADC_MUL
  001fd	83 c4 0c	 add	 esp, 12			; 0000000cH
  00200	89 45 fc	 mov	 DWORD PTR _k$[ebp], eax

; 678  :             k = MultiplyAndAdd1Word_using_ADC_MUL(k, u_buf[11], &u_buf[11]);

  00203	ba 04 00 00 00	 mov	 edx, 4
  00208	6b c2 0b	 imul	 eax, edx, 11
  0020b	03 45 08	 add	 eax, DWORD PTR _u_buf$[ebp]
  0020e	50		 push	 eax
  0020f	b9 04 00 00 00	 mov	 ecx, 4
  00214	6b d1 0b	 imul	 edx, ecx, 11
  00217	8b 45 08	 mov	 eax, DWORD PTR _u_buf$[ebp]
  0021a	8b 0c 10	 mov	 ecx, DWORD PTR [eax+edx]
  0021d	51		 push	 ecx
  0021e	8b 55 fc	 mov	 edx, DWORD PTR _k$[ebp]
  00221	52		 push	 edx
  00222	e8 00 00 00 00	 call	 ?MultiplyAndAdd1Word_using_ADC_MUL@Internal@Core@Math@Palmtree@@YAIIIPAI@Z ; Palmtree::Math::Core::Internal::MultiplyAndAdd1Word_using_ADC_MUL
  00227	83 c4 0c	 add	 esp, 12			; 0000000cH
  0022a	89 45 fc	 mov	 DWORD PTR _k$[ebp], eax

; 679  :             k = MultiplyAndAdd1Word_using_ADC_MUL(k, u_buf[12], &u_buf[12]);

  0022d	b8 04 00 00 00	 mov	 eax, 4
  00232	6b c8 0c	 imul	 ecx, eax, 12
  00235	03 4d 08	 add	 ecx, DWORD PTR _u_buf$[ebp]
  00238	51		 push	 ecx
  00239	ba 04 00 00 00	 mov	 edx, 4
  0023e	6b c2 0c	 imul	 eax, edx, 12
  00241	8b 4d 08	 mov	 ecx, DWORD PTR _u_buf$[ebp]
  00244	8b 14 01	 mov	 edx, DWORD PTR [ecx+eax]
  00247	52		 push	 edx
  00248	8b 45 fc	 mov	 eax, DWORD PTR _k$[ebp]
  0024b	50		 push	 eax
  0024c	e8 00 00 00 00	 call	 ?MultiplyAndAdd1Word_using_ADC_MUL@Internal@Core@Math@Palmtree@@YAIIIPAI@Z ; Palmtree::Math::Core::Internal::MultiplyAndAdd1Word_using_ADC_MUL
  00251	83 c4 0c	 add	 esp, 12			; 0000000cH
  00254	89 45 fc	 mov	 DWORD PTR _k$[ebp], eax

; 680  :             k = MultiplyAndAdd1Word_using_ADC_MUL(k, u_buf[13], &u_buf[13]);

  00257	b9 04 00 00 00	 mov	 ecx, 4
  0025c	6b d1 0d	 imul	 edx, ecx, 13
  0025f	03 55 08	 add	 edx, DWORD PTR _u_buf$[ebp]
  00262	52		 push	 edx
  00263	b8 04 00 00 00	 mov	 eax, 4
  00268	6b c8 0d	 imul	 ecx, eax, 13
  0026b	8b 55 08	 mov	 edx, DWORD PTR _u_buf$[ebp]
  0026e	8b 04 0a	 mov	 eax, DWORD PTR [edx+ecx]
  00271	50		 push	 eax
  00272	8b 4d fc	 mov	 ecx, DWORD PTR _k$[ebp]
  00275	51		 push	 ecx
  00276	e8 00 00 00 00	 call	 ?MultiplyAndAdd1Word_using_ADC_MUL@Internal@Core@Math@Palmtree@@YAIIIPAI@Z ; Palmtree::Math::Core::Internal::MultiplyAndAdd1Word_using_ADC_MUL
  0027b	83 c4 0c	 add	 esp, 12			; 0000000cH
  0027e	89 45 fc	 mov	 DWORD PTR _k$[ebp], eax

; 681  :             k = MultiplyAndAdd1Word_using_ADC_MUL(k, u_buf[14], &u_buf[14]);

  00281	ba 04 00 00 00	 mov	 edx, 4
  00286	6b c2 0e	 imul	 eax, edx, 14
  00289	03 45 08	 add	 eax, DWORD PTR _u_buf$[ebp]
  0028c	50		 push	 eax
  0028d	b9 04 00 00 00	 mov	 ecx, 4
  00292	6b d1 0e	 imul	 edx, ecx, 14
  00295	8b 45 08	 mov	 eax, DWORD PTR _u_buf$[ebp]
  00298	8b 0c 10	 mov	 ecx, DWORD PTR [eax+edx]
  0029b	51		 push	 ecx
  0029c	8b 55 fc	 mov	 edx, DWORD PTR _k$[ebp]
  0029f	52		 push	 edx
  002a0	e8 00 00 00 00	 call	 ?MultiplyAndAdd1Word_using_ADC_MUL@Internal@Core@Math@Palmtree@@YAIIIPAI@Z ; Palmtree::Math::Core::Internal::MultiplyAndAdd1Word_using_ADC_MUL
  002a5	83 c4 0c	 add	 esp, 12			; 0000000cH
  002a8	89 45 fc	 mov	 DWORD PTR _k$[ebp], eax

; 682  :             k = MultiplyAndAdd1Word_using_ADC_MUL(k, u_buf[15], &u_buf[15]);

  002ab	b8 04 00 00 00	 mov	 eax, 4
  002b0	6b c8 0f	 imul	 ecx, eax, 15
  002b3	03 4d 08	 add	 ecx, DWORD PTR _u_buf$[ebp]
  002b6	51		 push	 ecx
  002b7	ba 04 00 00 00	 mov	 edx, 4
  002bc	6b c2 0f	 imul	 eax, edx, 15
  002bf	8b 4d 08	 mov	 ecx, DWORD PTR _u_buf$[ebp]
  002c2	8b 14 01	 mov	 edx, DWORD PTR [ecx+eax]
  002c5	52		 push	 edx
  002c6	8b 45 fc	 mov	 eax, DWORD PTR _k$[ebp]
  002c9	50		 push	 eax
  002ca	e8 00 00 00 00	 call	 ?MultiplyAndAdd1Word_using_ADC_MUL@Internal@Core@Math@Palmtree@@YAIIIPAI@Z ; Palmtree::Math::Core::Internal::MultiplyAndAdd1Word_using_ADC_MUL
  002cf	83 c4 0c	 add	 esp, 12			; 0000000cH
  002d2	89 45 fc	 mov	 DWORD PTR _k$[ebp], eax

; 683  :             k = MultiplyAndAdd1Word_using_ADC_MUL(k, u_buf[16], &u_buf[16]);

  002d5	b9 04 00 00 00	 mov	 ecx, 4
  002da	c1 e1 04	 shl	 ecx, 4
  002dd	03 4d 08	 add	 ecx, DWORD PTR _u_buf$[ebp]
  002e0	51		 push	 ecx
  002e1	ba 04 00 00 00	 mov	 edx, 4
  002e6	c1 e2 04	 shl	 edx, 4
  002e9	8b 45 08	 mov	 eax, DWORD PTR _u_buf$[ebp]
  002ec	8b 0c 10	 mov	 ecx, DWORD PTR [eax+edx]
  002ef	51		 push	 ecx
  002f0	8b 55 fc	 mov	 edx, DWORD PTR _k$[ebp]
  002f3	52		 push	 edx
  002f4	e8 00 00 00 00	 call	 ?MultiplyAndAdd1Word_using_ADC_MUL@Internal@Core@Math@Palmtree@@YAIIIPAI@Z ; Palmtree::Math::Core::Internal::MultiplyAndAdd1Word_using_ADC_MUL
  002f9	83 c4 0c	 add	 esp, 12			; 0000000cH
  002fc	89 45 fc	 mov	 DWORD PTR _k$[ebp], eax

; 684  :             k = MultiplyAndAdd1Word_using_ADC_MUL(k, u_buf[17], &u_buf[17]);

  002ff	b8 04 00 00 00	 mov	 eax, 4
  00304	6b c8 11	 imul	 ecx, eax, 17
  00307	03 4d 08	 add	 ecx, DWORD PTR _u_buf$[ebp]
  0030a	51		 push	 ecx
  0030b	ba 04 00 00 00	 mov	 edx, 4
  00310	6b c2 11	 imul	 eax, edx, 17
  00313	8b 4d 08	 mov	 ecx, DWORD PTR _u_buf$[ebp]
  00316	8b 14 01	 mov	 edx, DWORD PTR [ecx+eax]
  00319	52		 push	 edx
  0031a	8b 45 fc	 mov	 eax, DWORD PTR _k$[ebp]
  0031d	50		 push	 eax
  0031e	e8 00 00 00 00	 call	 ?MultiplyAndAdd1Word_using_ADC_MUL@Internal@Core@Math@Palmtree@@YAIIIPAI@Z ; Palmtree::Math::Core::Internal::MultiplyAndAdd1Word_using_ADC_MUL
  00323	83 c4 0c	 add	 esp, 12			; 0000000cH
  00326	89 45 fc	 mov	 DWORD PTR _k$[ebp], eax

; 685  :             k = MultiplyAndAdd1Word_using_ADC_MUL(k, u_buf[18], &u_buf[18]);

  00329	b9 04 00 00 00	 mov	 ecx, 4
  0032e	6b d1 12	 imul	 edx, ecx, 18
  00331	03 55 08	 add	 edx, DWORD PTR _u_buf$[ebp]
  00334	52		 push	 edx
  00335	b8 04 00 00 00	 mov	 eax, 4
  0033a	6b c8 12	 imul	 ecx, eax, 18
  0033d	8b 55 08	 mov	 edx, DWORD PTR _u_buf$[ebp]
  00340	8b 04 0a	 mov	 eax, DWORD PTR [edx+ecx]
  00343	50		 push	 eax
  00344	8b 4d fc	 mov	 ecx, DWORD PTR _k$[ebp]
  00347	51		 push	 ecx
  00348	e8 00 00 00 00	 call	 ?MultiplyAndAdd1Word_using_ADC_MUL@Internal@Core@Math@Palmtree@@YAIIIPAI@Z ; Palmtree::Math::Core::Internal::MultiplyAndAdd1Word_using_ADC_MUL
  0034d	83 c4 0c	 add	 esp, 12			; 0000000cH
  00350	89 45 fc	 mov	 DWORD PTR _k$[ebp], eax

; 686  :             k = MultiplyAndAdd1Word_using_ADC_MUL(k, u_buf[19], &u_buf[19]);

  00353	ba 04 00 00 00	 mov	 edx, 4
  00358	6b c2 13	 imul	 eax, edx, 19
  0035b	03 45 08	 add	 eax, DWORD PTR _u_buf$[ebp]
  0035e	50		 push	 eax
  0035f	b9 04 00 00 00	 mov	 ecx, 4
  00364	6b d1 13	 imul	 edx, ecx, 19
  00367	8b 45 08	 mov	 eax, DWORD PTR _u_buf$[ebp]
  0036a	8b 0c 10	 mov	 ecx, DWORD PTR [eax+edx]
  0036d	51		 push	 ecx
  0036e	8b 55 fc	 mov	 edx, DWORD PTR _k$[ebp]
  00371	52		 push	 edx
  00372	e8 00 00 00 00	 call	 ?MultiplyAndAdd1Word_using_ADC_MUL@Internal@Core@Math@Palmtree@@YAIIIPAI@Z ; Palmtree::Math::Core::Internal::MultiplyAndAdd1Word_using_ADC_MUL
  00377	83 c4 0c	 add	 esp, 12			; 0000000cH
  0037a	89 45 fc	 mov	 DWORD PTR _k$[ebp], eax

; 687  :             k = MultiplyAndAdd1Word_using_ADC_MUL(k, u_buf[20], &u_buf[20]);

  0037d	b8 04 00 00 00	 mov	 eax, 4
  00382	6b c8 14	 imul	 ecx, eax, 20
  00385	03 4d 08	 add	 ecx, DWORD PTR _u_buf$[ebp]
  00388	51		 push	 ecx
  00389	ba 04 00 00 00	 mov	 edx, 4
  0038e	6b c2 14	 imul	 eax, edx, 20
  00391	8b 4d 08	 mov	 ecx, DWORD PTR _u_buf$[ebp]
  00394	8b 14 01	 mov	 edx, DWORD PTR [ecx+eax]
  00397	52		 push	 edx
  00398	8b 45 fc	 mov	 eax, DWORD PTR _k$[ebp]
  0039b	50		 push	 eax
  0039c	e8 00 00 00 00	 call	 ?MultiplyAndAdd1Word_using_ADC_MUL@Internal@Core@Math@Palmtree@@YAIIIPAI@Z ; Palmtree::Math::Core::Internal::MultiplyAndAdd1Word_using_ADC_MUL
  003a1	83 c4 0c	 add	 esp, 12			; 0000000cH
  003a4	89 45 fc	 mov	 DWORD PTR _k$[ebp], eax

; 688  :             k = MultiplyAndAdd1Word_using_ADC_MUL(k, u_buf[21], &u_buf[21]);

  003a7	b9 04 00 00 00	 mov	 ecx, 4
  003ac	6b d1 15	 imul	 edx, ecx, 21
  003af	03 55 08	 add	 edx, DWORD PTR _u_buf$[ebp]
  003b2	52		 push	 edx
  003b3	b8 04 00 00 00	 mov	 eax, 4
  003b8	6b c8 15	 imul	 ecx, eax, 21
  003bb	8b 55 08	 mov	 edx, DWORD PTR _u_buf$[ebp]
  003be	8b 04 0a	 mov	 eax, DWORD PTR [edx+ecx]
  003c1	50		 push	 eax
  003c2	8b 4d fc	 mov	 ecx, DWORD PTR _k$[ebp]
  003c5	51		 push	 ecx
  003c6	e8 00 00 00 00	 call	 ?MultiplyAndAdd1Word_using_ADC_MUL@Internal@Core@Math@Palmtree@@YAIIIPAI@Z ; Palmtree::Math::Core::Internal::MultiplyAndAdd1Word_using_ADC_MUL
  003cb	83 c4 0c	 add	 esp, 12			; 0000000cH
  003ce	89 45 fc	 mov	 DWORD PTR _k$[ebp], eax

; 689  :             k = MultiplyAndAdd1Word_using_ADC_MUL(k, u_buf[22], &u_buf[22]);

  003d1	ba 04 00 00 00	 mov	 edx, 4
  003d6	6b c2 16	 imul	 eax, edx, 22
  003d9	03 45 08	 add	 eax, DWORD PTR _u_buf$[ebp]
  003dc	50		 push	 eax
  003dd	b9 04 00 00 00	 mov	 ecx, 4
  003e2	6b d1 16	 imul	 edx, ecx, 22
  003e5	8b 45 08	 mov	 eax, DWORD PTR _u_buf$[ebp]
  003e8	8b 0c 10	 mov	 ecx, DWORD PTR [eax+edx]
  003eb	51		 push	 ecx
  003ec	8b 55 fc	 mov	 edx, DWORD PTR _k$[ebp]
  003ef	52		 push	 edx
  003f0	e8 00 00 00 00	 call	 ?MultiplyAndAdd1Word_using_ADC_MUL@Internal@Core@Math@Palmtree@@YAIIIPAI@Z ; Palmtree::Math::Core::Internal::MultiplyAndAdd1Word_using_ADC_MUL
  003f5	83 c4 0c	 add	 esp, 12			; 0000000cH
  003f8	89 45 fc	 mov	 DWORD PTR _k$[ebp], eax

; 690  :             k = MultiplyAndAdd1Word_using_ADC_MUL(k, u_buf[23], &u_buf[23]);

  003fb	b8 04 00 00 00	 mov	 eax, 4
  00400	6b c8 17	 imul	 ecx, eax, 23
  00403	03 4d 08	 add	 ecx, DWORD PTR _u_buf$[ebp]
  00406	51		 push	 ecx
  00407	ba 04 00 00 00	 mov	 edx, 4
  0040c	6b c2 17	 imul	 eax, edx, 23
  0040f	8b 4d 08	 mov	 ecx, DWORD PTR _u_buf$[ebp]
  00412	8b 14 01	 mov	 edx, DWORD PTR [ecx+eax]
  00415	52		 push	 edx
  00416	8b 45 fc	 mov	 eax, DWORD PTR _k$[ebp]
  00419	50		 push	 eax
  0041a	e8 00 00 00 00	 call	 ?MultiplyAndAdd1Word_using_ADC_MUL@Internal@Core@Math@Palmtree@@YAIIIPAI@Z ; Palmtree::Math::Core::Internal::MultiplyAndAdd1Word_using_ADC_MUL
  0041f	83 c4 0c	 add	 esp, 12			; 0000000cH
  00422	89 45 fc	 mov	 DWORD PTR _k$[ebp], eax

; 691  :             k = MultiplyAndAdd1Word_using_ADC_MUL(k, u_buf[24], &u_buf[24]);

  00425	b9 04 00 00 00	 mov	 ecx, 4
  0042a	6b d1 18	 imul	 edx, ecx, 24
  0042d	03 55 08	 add	 edx, DWORD PTR _u_buf$[ebp]
  00430	52		 push	 edx
  00431	b8 04 00 00 00	 mov	 eax, 4
  00436	6b c8 18	 imul	 ecx, eax, 24
  00439	8b 55 08	 mov	 edx, DWORD PTR _u_buf$[ebp]
  0043c	8b 04 0a	 mov	 eax, DWORD PTR [edx+ecx]
  0043f	50		 push	 eax
  00440	8b 4d fc	 mov	 ecx, DWORD PTR _k$[ebp]
  00443	51		 push	 ecx
  00444	e8 00 00 00 00	 call	 ?MultiplyAndAdd1Word_using_ADC_MUL@Internal@Core@Math@Palmtree@@YAIIIPAI@Z ; Palmtree::Math::Core::Internal::MultiplyAndAdd1Word_using_ADC_MUL
  00449	83 c4 0c	 add	 esp, 12			; 0000000cH
  0044c	89 45 fc	 mov	 DWORD PTR _k$[ebp], eax

; 692  :             k = MultiplyAndAdd1Word_using_ADC_MUL(k, u_buf[25], &u_buf[25]);

  0044f	ba 04 00 00 00	 mov	 edx, 4
  00454	6b c2 19	 imul	 eax, edx, 25
  00457	03 45 08	 add	 eax, DWORD PTR _u_buf$[ebp]
  0045a	50		 push	 eax
  0045b	b9 04 00 00 00	 mov	 ecx, 4
  00460	6b d1 19	 imul	 edx, ecx, 25
  00463	8b 45 08	 mov	 eax, DWORD PTR _u_buf$[ebp]
  00466	8b 0c 10	 mov	 ecx, DWORD PTR [eax+edx]
  00469	51		 push	 ecx
  0046a	8b 55 fc	 mov	 edx, DWORD PTR _k$[ebp]
  0046d	52		 push	 edx
  0046e	e8 00 00 00 00	 call	 ?MultiplyAndAdd1Word_using_ADC_MUL@Internal@Core@Math@Palmtree@@YAIIIPAI@Z ; Palmtree::Math::Core::Internal::MultiplyAndAdd1Word_using_ADC_MUL
