; Listing generated by Microsoft (R) Optimizing Compiler Version 19.16.27026.1 

	TITLE	Z:\Sources\Lunor\Repos\rougemeilland\Palmtree.Math.Core.Uint\Palmtree.Math.Core.Uint\pmc_exclusiveor.c
	.686P
	.XMM
	include listing.inc
	.model	flat

INCLUDELIB MSVCRTD
INCLUDELIB OLDNAMES

msvcjmc	SEGMENT
__7B7A869E_ctype@h DB 01H
__457DD326_basetsd@h DB 01H
__4384A2D9_corecrt_memcpy_s@h DB 01H
__4E51A221_corecrt_wstring@h DB 01H
__2140C079_string@h DB 01H
__1887E595_winnt@h DB 01H
__9FC7C64B_processthreadsapi@h DB 01H
__FA470AEC_memoryapi@h DB 01H
__F37DAFF1_winerror@h DB 01H
__7A450CCC_winbase@h DB 01H
__B4B40122_winioctl@h DB 01H
__86261D59_stralign@h DB 01H
__BB6D3116_pmc_uint_internal@h DB 01H
__8CA3E54E_pmc_inline_func@h DB 01H
__8EA3BDF0_pmc_exclusiveor@c DB 01H
msvcjmc	ENDS
PUBLIC	_Initialize_ExclusiveOr
PUBLIC	_PMC_ExclusiveOr_I_X@12
PUBLIC	_PMC_ExclusiveOr_L_X@16
PUBLIC	_PMC_ExclusiveOr_X_I@12
PUBLIC	_PMC_ExclusiveOr_X_L@16
PUBLIC	_PMC_ExclusiveOr_X_X@12
PUBLIC	__JustMyCode_Default
EXTRN	_CheckBlockLight:PROC
EXTRN	_AllocateNumber:PROC
EXTRN	_DeallocateNumber:PROC
EXTRN	_CommitNumber:PROC
EXTRN	_CheckNumber:PROC
EXTRN	_DuplicateNumber:PROC
EXTRN	_From_I_Imp:PROC
EXTRN	_From_L_Imp:PROC
EXTRN	@_RTC_CheckStackVars@8:PROC
EXTRN	@__CheckForDebuggerJustMyCode@4:PROC
EXTRN	__RTC_CheckEsp:PROC
EXTRN	__RTC_InitBase:PROC
EXTRN	__RTC_Shutdown:PROC
EXTRN	__aullshr:PROC
EXTRN	_number_zero:BYTE
;	COMDAT rtc$TMZ
rtc$TMZ	SEGMENT
__RTC_Shutdown.rtc$TMZ DD FLAT:__RTC_Shutdown
rtc$TMZ	ENDS
;	COMDAT rtc$IMZ
rtc$IMZ	SEGMENT
__RTC_InitBase.rtc$IMZ DD FLAT:__RTC_InitBase
rtc$IMZ	ENDS
; Function compile flags: /Odt
;	COMDAT __JustMyCode_Default
_TEXT	SEGMENT
__JustMyCode_Default PROC				; COMDAT
	push	ebp
	mov	ebp, esp
	pop	ebp
	ret	0
__JustMyCode_Default ENDP
_TEXT	ENDS
; Function compile flags: /Odtp /RTCsu
; File z:\sources\lunor\repos\rougemeilland\palmtree.math.core.uint\palmtree.math.core.uint\pmc_exclusiveor.c
_TEXT	SEGMENT
_nw_light_check_code$1 = -84				; size = 4
_w_bit_count$2 = -76					; size = 4
_v_bit_count$3 = -72					; size = 4
_u_bit_count$4 = -68					; size = 4
_nw_light_check_code$5 = -60				; size = 4
_w_bit_count$6 = -52					; size = 4
_v_bit_count$7 = -48					; size = 4
_nw_light_check_code$8 = -40				; size = 4
_w_bit_count$9 = -32					; size = 4
_v_bit_count$10 = -28					; size = 4
_v_lo$11 = -24						; size = 4
_v_hi$12 = -16						; size = 4
_u_bit_count$13 = -8					; size = 4
_result$ = -4						; size = 4
_u$ = 8							; size = 4
_v$ = 12						; size = 8
_w$ = 20						; size = 4
_PMC_ExclusiveOr_X_L_Imp PROC

; 282  : {

	push	ebp
	mov	ebp, esp
	sub	esp, 88					; 00000058H
	push	edi
	lea	edi, DWORD PTR [ebp-88]
	mov	ecx, 22					; 00000016H
	mov	eax, -858993460				; ccccccccH
	rep stosd
	mov	ecx, OFFSET __8EA3BDF0_pmc_exclusiveor@c
	call	@__CheckForDebuggerJustMyCode@4

; 283  :     PMC_STATUS_CODE result;
; 284  :     if (u->IS_ZERO)

	mov	eax, DWORD PTR _u$[ebp]
	mov	ecx, DWORD PTR [eax+24]
	shr	ecx, 1
	and	ecx, 1
	je	SHORT $LN2@PMC_Exclus

; 285  :     {
; 286  :         // x が 0 である場合
; 287  :         if (v == 0)

	mov	edx, DWORD PTR _v$[ebp]
	or	edx, DWORD PTR _v$[ebp+4]
	jne	SHORT $LN4@PMC_Exclus

; 288  :         {
; 289  :             // v が 0 である場合
; 290  :             *w = &number_zero;

	mov	eax, DWORD PTR _w$[ebp]
	mov	DWORD PTR [eax], OFFSET _number_zero

; 291  :         }

	jmp	SHORT $LN5@PMC_Exclus
$LN4@PMC_Exclus:

; 292  :         else
; 293  :         {
; 294  :             // v が 0 でない場合
; 295  :             if ((result = From_L_Imp(v, w)) != PMC_STATUS_OK)

	mov	ecx, DWORD PTR _w$[ebp]
	push	ecx
	mov	edx, DWORD PTR _v$[ebp+4]
	push	edx
	mov	eax, DWORD PTR _v$[ebp]
	push	eax
	call	_From_L_Imp
	add	esp, 12					; 0000000cH
	mov	DWORD PTR _result$[ebp], eax
	cmp	DWORD PTR _result$[ebp], 0
	je	SHORT $LN5@PMC_Exclus

; 296  :                 return (result);

	mov	eax, DWORD PTR _result$[ebp]
	jmp	$LN1@PMC_Exclus
$LN5@PMC_Exclus:

; 297  :         }
; 298  :     }

	jmp	$LN3@PMC_Exclus
$LN2@PMC_Exclus:

; 299  :     else if (v == 0)

	mov	ecx, DWORD PTR _v$[ebp]
	or	ecx, DWORD PTR _v$[ebp+4]
	jne	SHORT $LN7@PMC_Exclus

; 300  :     {
; 301  :         // y が 0 である場合
; 302  :         if ((result = DuplicateNumber(u, w)) != PMC_STATUS_OK)

	mov	edx, DWORD PTR _w$[ebp]
	push	edx
	mov	eax, DWORD PTR _u$[ebp]
	push	eax
	call	_DuplicateNumber
	add	esp, 8
	mov	DWORD PTR _result$[ebp], eax
	cmp	DWORD PTR _result$[ebp], 0
	je	SHORT $LN9@PMC_Exclus

; 303  :             return (result);

	mov	eax, DWORD PTR _result$[ebp]
	jmp	$LN1@PMC_Exclus
$LN9@PMC_Exclus:

; 304  :     }

	jmp	$LN3@PMC_Exclus
$LN7@PMC_Exclus:

; 305  :     else
; 306  :     {
; 307  :         // u と v がともに 0 ではない場合
; 308  :         if (__UNIT_TYPE_BIT_COUNT < sizeof(v) * 8)

	mov	ecx, 1
	test	ecx, ecx
	je	$LN10@PMC_Exclus

; 309  :         {
; 310  :             // _UINT64_T が 1 ワードで表現しきれない場合
; 311  :             __UNIT_TYPE u_bit_count = u->UNIT_BIT_COUNT;

	mov	edx, DWORD PTR _u$[ebp]
	mov	eax, DWORD PTR [edx+12]
	mov	DWORD PTR _u_bit_count$13[ebp], eax

; 312  :             _UINT32_T v_hi;
; 313  :             _UINT32_T v_lo = _FROMDWORDTOWORD(v, &v_hi);

	lea	ecx, DWORD PTR _v_hi$12[ebp]
	push	ecx
	mov	edx, DWORD PTR _v$[ebp+4]
	push	edx
	mov	eax, DWORD PTR _v$[ebp]
	push	eax
	call	__FROMDWORDTOWORD
	add	esp, 12					; 0000000cH
	mov	DWORD PTR _v_lo$11[ebp], eax

; 314  :             if (v_hi == 0)

	cmp	DWORD PTR _v_hi$12[ebp], 0
	jne	$LN12@PMC_Exclus

; 315  :             {
; 316  :                 // v の値が 32bit で表現可能な場合
; 317  :                 __UNIT_TYPE v_bit_count = sizeof(v_lo) * 8 - _LZCNT_ALT_32(v_lo);

	mov	ecx, DWORD PTR _v_lo$11[ebp]
	push	ecx
	call	__LZCNT_ALT_32
	add	esp, 4
	mov	edx, 32					; 00000020H
	sub	edx, eax
	mov	DWORD PTR _v_bit_count$10[ebp], edx

; 318  :                 __UNIT_TYPE w_bit_count = _MAXIMUM_UNIT(u_bit_count, v_bit_count);

	mov	eax, DWORD PTR _v_bit_count$10[ebp]
	push	eax
	mov	ecx, DWORD PTR _u_bit_count$13[ebp]
	push	ecx
	call	__MAXIMUM_UNIT
	add	esp, 8
	mov	DWORD PTR _w_bit_count$9[ebp], eax

; 319  :                 __UNIT_TYPE nw_light_check_code;
; 320  :                 if ((result = AllocateNumber(w, w_bit_count, &nw_light_check_code)) != PMC_STATUS_OK)

	lea	edx, DWORD PTR _nw_light_check_code$8[ebp]
	push	edx
	mov	eax, DWORD PTR _w_bit_count$9[ebp]
	push	eax
	mov	ecx, DWORD PTR _w$[ebp]
	push	ecx
	call	_AllocateNumber
	add	esp, 12					; 0000000cH
	mov	DWORD PTR _result$[ebp], eax
	cmp	DWORD PTR _result$[ebp], 0
	je	SHORT $LN14@PMC_Exclus

; 321  :                     return (result);

	mov	eax, DWORD PTR _result$[ebp]
	jmp	$LN1@PMC_Exclus
$LN14@PMC_Exclus:

; 322  :                 ExclusiveOr_X_1W(u->BLOCK, u->UNIT_WORD_COUNT, v_lo, (*w)->BLOCK);

	mov	edx, DWORD PTR _w$[ebp]
	mov	eax, DWORD PTR [edx]
	mov	ecx, DWORD PTR [eax+32]
	push	ecx
	mov	edx, DWORD PTR _v_lo$11[ebp]
	push	edx
	mov	eax, DWORD PTR _u$[ebp]
	mov	ecx, DWORD PTR [eax+8]
	push	ecx
	mov	edx, DWORD PTR _u$[ebp]
	mov	eax, DWORD PTR [edx+32]
	push	eax
	call	_ExclusiveOr_X_1W
	add	esp, 16					; 00000010H

; 323  :                 if ((result = CheckBlockLight((*w)->BLOCK, nw_light_check_code)) != PMC_STATUS_OK)

	mov	ecx, DWORD PTR _nw_light_check_code$8[ebp]
	push	ecx
	mov	edx, DWORD PTR _w$[ebp]
	mov	eax, DWORD PTR [edx]
	mov	ecx, DWORD PTR [eax+32]
	push	ecx
	call	_CheckBlockLight
	add	esp, 8
	mov	DWORD PTR _result$[ebp], eax
	cmp	DWORD PTR _result$[ebp], 0
	je	SHORT $LN15@PMC_Exclus

; 324  :                     return (result);

	mov	eax, DWORD PTR _result$[ebp]
	jmp	$LN1@PMC_Exclus
$LN15@PMC_Exclus:

; 325  :             }

	jmp	$LN13@PMC_Exclus
$LN12@PMC_Exclus:

; 326  :             else
; 327  :             {
; 328  :                 // y の値が 32bit では表現できない場合
; 329  :                 __UNIT_TYPE v_bit_count = sizeof(v) * 8 - _LZCNT_ALT_32(v_hi);

	mov	edx, DWORD PTR _v_hi$12[ebp]
	push	edx
	call	__LZCNT_ALT_32
	add	esp, 4
	mov	ecx, 64					; 00000040H
	sub	ecx, eax
	mov	DWORD PTR _v_bit_count$7[ebp], ecx

; 330  :                 __UNIT_TYPE w_bit_count = _MAXIMUM_UNIT(u_bit_count, v_bit_count);

	mov	edx, DWORD PTR _v_bit_count$7[ebp]
	push	edx
	mov	eax, DWORD PTR _u_bit_count$13[ebp]
	push	eax
	call	__MAXIMUM_UNIT
	add	esp, 8
	mov	DWORD PTR _w_bit_count$6[ebp], eax

; 331  :                 __UNIT_TYPE nw_light_check_code;
; 332  :                 if ((result = AllocateNumber(w, w_bit_count, &nw_light_check_code)) != PMC_STATUS_OK)

	lea	ecx, DWORD PTR _nw_light_check_code$5[ebp]
	push	ecx
	mov	edx, DWORD PTR _w_bit_count$6[ebp]
	push	edx
	mov	eax, DWORD PTR _w$[ebp]
	push	eax
	call	_AllocateNumber
	add	esp, 12					; 0000000cH
	mov	DWORD PTR _result$[ebp], eax
	cmp	DWORD PTR _result$[ebp], 0
	je	SHORT $LN16@PMC_Exclus

; 333  :                     return (result);

	mov	eax, DWORD PTR _result$[ebp]
	jmp	$LN1@PMC_Exclus
$LN16@PMC_Exclus:

; 334  :                 ExclusiveOr_X_2W(u->BLOCK, u->UNIT_WORD_COUNT, v_hi, v_lo, (*w)->BLOCK);

	mov	ecx, DWORD PTR _w$[ebp]
	mov	edx, DWORD PTR [ecx]
	mov	eax, DWORD PTR [edx+32]
	push	eax
	mov	ecx, DWORD PTR _v_lo$11[ebp]
	push	ecx
	mov	edx, DWORD PTR _v_hi$12[ebp]
	push	edx
	mov	eax, DWORD PTR _u$[ebp]
	mov	ecx, DWORD PTR [eax+8]
	push	ecx
	mov	edx, DWORD PTR _u$[ebp]
	mov	eax, DWORD PTR [edx+32]
	push	eax
	call	_ExclusiveOr_X_2W
	add	esp, 20					; 00000014H

; 335  :                 if ((result = CheckBlockLight((*w)->BLOCK, nw_light_check_code)) != PMC_STATUS_OK)

	mov	ecx, DWORD PTR _nw_light_check_code$5[ebp]
	push	ecx
	mov	edx, DWORD PTR _w$[ebp]
	mov	eax, DWORD PTR [edx]
	mov	ecx, DWORD PTR [eax+32]
	push	ecx
	call	_CheckBlockLight
	add	esp, 8
	mov	DWORD PTR _result$[ebp], eax
	cmp	DWORD PTR _result$[ebp], 0
	je	SHORT $LN13@PMC_Exclus

; 336  :                     return (result);

	mov	eax, DWORD PTR _result$[ebp]
	jmp	$LN1@PMC_Exclus
$LN13@PMC_Exclus:

; 337  :             }
; 338  :         }

	jmp	$LN11@PMC_Exclus
$LN10@PMC_Exclus:

; 339  :         else
; 340  :         {
; 341  :             // _UINT64_T が 1 ワードで表現できる場合
; 342  : 
; 343  :             __UNIT_TYPE u_bit_count = u->UNIT_BIT_COUNT;

	mov	edx, DWORD PTR _u$[ebp]
	mov	eax, DWORD PTR [edx+12]
	mov	DWORD PTR _u_bit_count$4[ebp], eax

; 344  :             __UNIT_TYPE v_bit_count = sizeof(v) * 8 - _LZCNT_ALT_UNIT((__UNIT_TYPE)v);

	mov	ecx, DWORD PTR _v$[ebp]
	push	ecx
	call	__LZCNT_ALT_UNIT
	add	esp, 4
	mov	edx, 64					; 00000040H
	sub	edx, eax
	mov	DWORD PTR _v_bit_count$3[ebp], edx

; 345  :             __UNIT_TYPE w_bit_count = _MAXIMUM_UNIT(u_bit_count, v_bit_count) + 1;

	mov	eax, DWORD PTR _v_bit_count$3[ebp]
	push	eax
	mov	ecx, DWORD PTR _u_bit_count$4[ebp]
	push	ecx
	call	__MAXIMUM_UNIT
	add	esp, 8
	add	eax, 1
	mov	DWORD PTR _w_bit_count$2[ebp], eax

; 346  :             __UNIT_TYPE nw_light_check_code;
; 347  :             if ((result = AllocateNumber(w, w_bit_count, &nw_light_check_code)) != PMC_STATUS_OK)

	lea	edx, DWORD PTR _nw_light_check_code$1[ebp]
	push	edx
	mov	eax, DWORD PTR _w_bit_count$2[ebp]
	push	eax
	mov	ecx, DWORD PTR _w$[ebp]
	push	ecx
	call	_AllocateNumber
	add	esp, 12					; 0000000cH
	mov	DWORD PTR _result$[ebp], eax
	cmp	DWORD PTR _result$[ebp], 0
	je	SHORT $LN18@PMC_Exclus

; 348  :                 return (result);

	mov	eax, DWORD PTR _result$[ebp]
	jmp	SHORT $LN1@PMC_Exclus
$LN18@PMC_Exclus:

; 349  :             ExclusiveOr_X_1W(u->BLOCK, u->UNIT_WORD_COUNT, (__UNIT_TYPE)v, (*w)->BLOCK);

	mov	edx, DWORD PTR _w$[ebp]
	mov	eax, DWORD PTR [edx]
	mov	ecx, DWORD PTR [eax+32]
	push	ecx
	mov	edx, DWORD PTR _v$[ebp]
	push	edx
	mov	eax, DWORD PTR _u$[ebp]
	mov	ecx, DWORD PTR [eax+8]
	push	ecx
	mov	edx, DWORD PTR _u$[ebp]
	mov	eax, DWORD PTR [edx+32]
	push	eax
	call	_ExclusiveOr_X_1W
	add	esp, 16					; 00000010H

; 350  :             if ((result = CheckBlockLight((*w)->BLOCK, nw_light_check_code)) != PMC_STATUS_OK)

	mov	ecx, DWORD PTR _nw_light_check_code$1[ebp]
	push	ecx
	mov	edx, DWORD PTR _w$[ebp]
	mov	eax, DWORD PTR [edx]
	mov	ecx, DWORD PTR [eax+32]
	push	ecx
	call	_CheckBlockLight
	add	esp, 8
	mov	DWORD PTR _result$[ebp], eax
	cmp	DWORD PTR _result$[ebp], 0
	je	SHORT $LN11@PMC_Exclus

; 351  :                 return (result);

	mov	eax, DWORD PTR _result$[ebp]
	jmp	SHORT $LN1@PMC_Exclus
$LN11@PMC_Exclus:

; 352  :         }
; 353  :         CommitNumber(*w);

	mov	edx, DWORD PTR _w$[ebp]
	mov	eax, DWORD PTR [edx]
	push	eax
	call	_CommitNumber
	add	esp, 4

; 354  :         if ((*w)->IS_ZERO)

	mov	ecx, DWORD PTR _w$[ebp]
	mov	edx, DWORD PTR [ecx]
	mov	eax, DWORD PTR [edx+24]
	shr	eax, 1
	and	eax, 1
	je	SHORT $LN3@PMC_Exclus

; 355  :         {
; 356  :             DeallocateNumber(*w);

	mov	ecx, DWORD PTR _w$[ebp]
	mov	edx, DWORD PTR [ecx]
	push	edx
	call	_DeallocateNumber
	add	esp, 4

; 357  :             *w = &number_zero;

	mov	eax, DWORD PTR _w$[ebp]
	mov	DWORD PTR [eax], OFFSET _number_zero
$LN3@PMC_Exclus:

; 358  :         }
; 359  :     }
; 360  :     return (PMC_STATUS_OK);

	xor	eax, eax
$LN1@PMC_Exclus:

; 361  : }

	push	edx
	mov	ecx, ebp
	push	eax
	lea	edx, DWORD PTR $LN27@PMC_Exclus
	call	@_RTC_CheckStackVars@8
	pop	eax
	pop	edx
	pop	edi
	add	esp, 88					; 00000058H
	cmp	ebp, esp
	call	__RTC_CheckEsp
	mov	esp, ebp
	pop	ebp
	ret	0
	npad	2
$LN27@PMC_Exclus:
	DD	4
	DD	$LN26@PMC_Exclus
$LN26@PMC_Exclus:
	DD	-16					; fffffff0H
	DD	4
	DD	$LN22@PMC_Exclus
	DD	-40					; ffffffd8H
	DD	4
	DD	$LN23@PMC_Exclus
	DD	-60					; ffffffc4H
	DD	4
	DD	$LN24@PMC_Exclus
	DD	-84					; ffffffacH
	DD	4
	DD	$LN25@PMC_Exclus
$LN25@PMC_Exclus:
	DB	110					; 0000006eH
	DB	119					; 00000077H
	DB	95					; 0000005fH
	DB	108					; 0000006cH
	DB	105					; 00000069H
	DB	103					; 00000067H
	DB	104					; 00000068H
	DB	116					; 00000074H
	DB	95					; 0000005fH
	DB	99					; 00000063H
	DB	104					; 00000068H
	DB	101					; 00000065H
	DB	99					; 00000063H
	DB	107					; 0000006bH
	DB	95					; 0000005fH
	DB	99					; 00000063H
	DB	111					; 0000006fH
	DB	100					; 00000064H
	DB	101					; 00000065H
	DB	0
$LN24@PMC_Exclus:
	DB	110					; 0000006eH
	DB	119					; 00000077H
	DB	95					; 0000005fH
	DB	108					; 0000006cH
	DB	105					; 00000069H
	DB	103					; 00000067H
	DB	104					; 00000068H
	DB	116					; 00000074H
	DB	95					; 0000005fH
	DB	99					; 00000063H
	DB	104					; 00000068H
	DB	101					; 00000065H
	DB	99					; 00000063H
	DB	107					; 0000006bH
	DB	95					; 0000005fH
	DB	99					; 00000063H
	DB	111					; 0000006fH
	DB	100					; 00000064H
	DB	101					; 00000065H
	DB	0
$LN23@PMC_Exclus:
	DB	110					; 0000006eH
	DB	119					; 00000077H
	DB	95					; 0000005fH
	DB	108					; 0000006cH
	DB	105					; 00000069H
	DB	103					; 00000067H
	DB	104					; 00000068H
	DB	116					; 00000074H
	DB	95					; 0000005fH
	DB	99					; 00000063H
	DB	104					; 00000068H
	DB	101					; 00000065H
	DB	99					; 00000063H
	DB	107					; 0000006bH
	DB	95					; 0000005fH
	DB	99					; 00000063H
	DB	111					; 0000006fH
	DB	100					; 00000064H
	DB	101					; 00000065H
	DB	0
$LN22@PMC_Exclus:
	DB	118					; 00000076H
	DB	95					; 0000005fH
	DB	104					; 00000068H
	DB	105					; 00000069H
	DB	0
_PMC_ExclusiveOr_X_L_Imp ENDP
_TEXT	ENDS
; Function compile flags: /Odtp /RTCsu
; File z:\sources\lunor\repos\rougemeilland\palmtree.math.core.uint\palmtree.math.core.uint\pmc_exclusiveor.c
_TEXT	SEGMENT
_nz_check_code$1 = -24					; size = 4
_w_bit_count$2 = -16					; size = 4
_v_bit_count$3 = -12					; size = 4
_u_bit_count$4 = -8					; size = 4
_result$ = -4						; size = 4
_u$ = 8							; size = 4
_v$ = 12						; size = 4
_w$ = 16						; size = 4
_PMC_ExclusiveOr_X_I_Imp PROC

; 188  : {

	push	ebp
	mov	ebp, esp
	sub	esp, 28					; 0000001cH
	mov	eax, -858993460				; ccccccccH
	mov	DWORD PTR [ebp-28], eax
	mov	DWORD PTR [ebp-24], eax
	mov	DWORD PTR [ebp-20], eax
	mov	DWORD PTR [ebp-16], eax
	mov	DWORD PTR [ebp-12], eax
	mov	DWORD PTR [ebp-8], eax
	mov	DWORD PTR [ebp-4], eax
	mov	ecx, OFFSET __8EA3BDF0_pmc_exclusiveor@c
	call	@__CheckForDebuggerJustMyCode@4

; 189  :     PMC_STATUS_CODE result;
; 190  :     if (u->IS_ZERO)

	mov	eax, DWORD PTR _u$[ebp]
	mov	ecx, DWORD PTR [eax+24]
	shr	ecx, 1
	and	ecx, 1
	je	SHORT $LN2@PMC_Exclus

; 191  :     {
; 192  :         // u が 0 である場合
; 193  :         if (v == 0)

	cmp	DWORD PTR _v$[ebp], 0
	jne	SHORT $LN4@PMC_Exclus

; 194  :         {
; 195  :             // v が 0 である場合
; 196  :             *w = &number_zero;

	mov	edx, DWORD PTR _w$[ebp]
	mov	DWORD PTR [edx], OFFSET _number_zero

; 197  :         }

	jmp	SHORT $LN5@PMC_Exclus
$LN4@PMC_Exclus:

; 198  :         else
; 199  :         {
; 200  :             // v が 0 でない場合
; 201  :             if ((result = From_I_Imp(v, w)) != PMC_STATUS_OK)

	mov	eax, DWORD PTR _w$[ebp]
	push	eax
	mov	ecx, DWORD PTR _v$[ebp]
	push	ecx
	call	_From_I_Imp
	add	esp, 8
	mov	DWORD PTR _result$[ebp], eax
	cmp	DWORD PTR _result$[ebp], 0
	je	SHORT $LN5@PMC_Exclus

; 202  :                 return (result);

	mov	eax, DWORD PTR _result$[ebp]
	jmp	$LN1@PMC_Exclus
$LN5@PMC_Exclus:

; 203  :         }
; 204  :     }

	jmp	$LN3@PMC_Exclus
$LN2@PMC_Exclus:

; 205  :     else if (v == 0)

	cmp	DWORD PTR _v$[ebp], 0
	jne	SHORT $LN7@PMC_Exclus

; 206  :     {
; 207  :         // v が 0 である場合
; 208  :         if ((result = DuplicateNumber(u, w)) != PMC_STATUS_OK)

	mov	edx, DWORD PTR _w$[ebp]
	push	edx
	mov	eax, DWORD PTR _u$[ebp]
	push	eax
	call	_DuplicateNumber
	add	esp, 8
	mov	DWORD PTR _result$[ebp], eax
	cmp	DWORD PTR _result$[ebp], 0
	je	SHORT $LN9@PMC_Exclus

; 209  :             return (result);

	mov	eax, DWORD PTR _result$[ebp]
	jmp	$LN1@PMC_Exclus
$LN9@PMC_Exclus:

; 210  :     }

	jmp	$LN3@PMC_Exclus
$LN7@PMC_Exclus:

; 211  :     else
; 212  :     {
; 213  :         // x と y がともに 0 ではない場合
; 214  :         __UNIT_TYPE u_bit_count = u->UNIT_BIT_COUNT;

	mov	ecx, DWORD PTR _u$[ebp]
	mov	edx, DWORD PTR [ecx+12]
	mov	DWORD PTR _u_bit_count$4[ebp], edx

; 215  :         __UNIT_TYPE v_bit_count = sizeof(v) * 8 - _LZCNT_ALT_32(v);

	mov	eax, DWORD PTR _v$[ebp]
	push	eax
	call	__LZCNT_ALT_32
	add	esp, 4
	mov	ecx, 32					; 00000020H
	sub	ecx, eax
	mov	DWORD PTR _v_bit_count$3[ebp], ecx

; 216  :         __UNIT_TYPE w_bit_count = _MAXIMUM_UNIT(u_bit_count, v_bit_count) + 1;

	mov	edx, DWORD PTR _v_bit_count$3[ebp]
	push	edx
	mov	eax, DWORD PTR _u_bit_count$4[ebp]
	push	eax
	call	__MAXIMUM_UNIT
	add	esp, 8
	add	eax, 1
	mov	DWORD PTR _w_bit_count$2[ebp], eax

; 217  :         __UNIT_TYPE nz_check_code;
; 218  :         if ((result = AllocateNumber(w, w_bit_count, &nz_check_code)) != PMC_STATUS_OK)

	lea	ecx, DWORD PTR _nz_check_code$1[ebp]
	push	ecx
	mov	edx, DWORD PTR _w_bit_count$2[ebp]
	push	edx
	mov	eax, DWORD PTR _w$[ebp]
	push	eax
	call	_AllocateNumber
	add	esp, 12					; 0000000cH
	mov	DWORD PTR _result$[ebp], eax
	cmp	DWORD PTR _result$[ebp], 0
	je	SHORT $LN10@PMC_Exclus

; 219  :             return (result);

	mov	eax, DWORD PTR _result$[ebp]
	jmp	SHORT $LN1@PMC_Exclus
$LN10@PMC_Exclus:

; 220  :         ExclusiveOr_X_1W(u->BLOCK, u->UNIT_WORD_COUNT, v, (*w)->BLOCK);

	mov	ecx, DWORD PTR _w$[ebp]
	mov	edx, DWORD PTR [ecx]
	mov	eax, DWORD PTR [edx+32]
	push	eax
	mov	ecx, DWORD PTR _v$[ebp]
	push	ecx
	mov	edx, DWORD PTR _u$[ebp]
	mov	eax, DWORD PTR [edx+8]
	push	eax
	mov	ecx, DWORD PTR _u$[ebp]
	mov	edx, DWORD PTR [ecx+32]
	push	edx
	call	_ExclusiveOr_X_1W
	add	esp, 16					; 00000010H

; 221  :         if ((result = CheckBlockLight((*w)->BLOCK, nz_check_code)) != PMC_STATUS_OK)

	mov	eax, DWORD PTR _nz_check_code$1[ebp]
	push	eax
	mov	ecx, DWORD PTR _w$[ebp]
	mov	edx, DWORD PTR [ecx]
	mov	eax, DWORD PTR [edx+32]
	push	eax
	call	_CheckBlockLight
	add	esp, 8
	mov	DWORD PTR _result$[ebp], eax
	cmp	DWORD PTR _result$[ebp], 0
	je	SHORT $LN11@PMC_Exclus

; 222  :             return (result);

	mov	eax, DWORD PTR _result$[ebp]
	jmp	SHORT $LN1@PMC_Exclus
$LN11@PMC_Exclus:

; 223  :         CommitNumber(*w);

	mov	ecx, DWORD PTR _w$[ebp]
	mov	edx, DWORD PTR [ecx]
	push	edx
	call	_CommitNumber
	add	esp, 4

; 224  :         if ((*w)->IS_ZERO)

	mov	eax, DWORD PTR _w$[ebp]
	mov	ecx, DWORD PTR [eax]
	mov	edx, DWORD PTR [ecx+24]
	shr	edx, 1
	and	edx, 1
	je	SHORT $LN3@PMC_Exclus

; 225  :         {
; 226  :             DeallocateNumber(*w);

	mov	eax, DWORD PTR _w$[ebp]
	mov	ecx, DWORD PTR [eax]
	push	ecx
	call	_DeallocateNumber
	add	esp, 4

; 227  :             *w = &number_zero;

	mov	edx, DWORD PTR _w$[ebp]
	mov	DWORD PTR [edx], OFFSET _number_zero
$LN3@PMC_Exclus:

; 228  :         }
; 229  :     }
; 230  :     return (PMC_STATUS_OK);

	xor	eax, eax
$LN1@PMC_Exclus:

; 231  : }

	push	edx
	mov	ecx, ebp
	push	eax
	lea	edx, DWORD PTR $LN16@PMC_Exclus
	call	@_RTC_CheckStackVars@8
	pop	eax
	pop	edx
	add	esp, 28					; 0000001cH
	cmp	ebp, esp
	call	__RTC_CheckEsp
	mov	esp, ebp
	pop	ebp
	ret	0
$LN16@PMC_Exclus:
	DD	1
	DD	$LN15@PMC_Exclus
$LN15@PMC_Exclus:
	DD	-24					; ffffffe8H
	DD	4
	DD	$LN14@PMC_Exclus
$LN14@PMC_Exclus:
	DB	110					; 0000006eH
	DB	122					; 0000007aH
	DB	95					; 0000005fH
	DB	99					; 00000063H
	DB	104					; 00000068H
	DB	101					; 00000065H
	DB	99					; 00000063H
	DB	107					; 0000006bH
	DB	95					; 0000005fH
	DB	99					; 00000063H
	DB	111					; 0000006fH
	DB	100					; 00000064H
	DB	101					; 00000065H
	DB	0
_PMC_ExclusiveOr_X_I_Imp ENDP
_TEXT	ENDS
; Function compile flags: /Odtp /RTCsu
; File z:\sources\lunor\repos\rougemeilland\palmtree.math.core.uint\palmtree.math.core.uint\pmc_exclusiveor.c
_TEXT	SEGMENT
_count$ = -12						; size = 4
_cp_count$ = -8						; size = 4
_or_count$ = -4						; size = 4
_u$ = 8							; size = 4
_u_count$ = 12						; size = 4
_v$ = 16						; size = 4
_v_count$ = 20						; size = 4
_w$ = 24						; size = 4
_ExclusiveOr_X_X PROC

; 73   : {

	push	ebp
	mov	ebp, esp
	sub	esp, 12					; 0000000cH
	push	esi
	mov	DWORD PTR [ebp-12], -858993460		; ccccccccH
	mov	DWORD PTR [ebp-8], -858993460		; ccccccccH
	mov	DWORD PTR [ebp-4], -858993460		; ccccccccH
	mov	ecx, OFFSET __8EA3BDF0_pmc_exclusiveor@c
	call	@__CheckForDebuggerJustMyCode@4

; 74   :     __UNIT_TYPE or_count = v_count;

	mov	eax, DWORD PTR _v_count$[ebp]
	mov	DWORD PTR _or_count$[ebp], eax

; 75   :     __UNIT_TYPE cp_count = u_count - v_count;

	mov	ecx, DWORD PTR _u_count$[ebp]
	sub	ecx, DWORD PTR _v_count$[ebp]
	mov	DWORD PTR _cp_count$[ebp], ecx

; 76   : 
; 77   :     __UNIT_TYPE count = or_count >> 5;

	mov	edx, DWORD PTR _or_count$[ebp]
	shr	edx, 5
	mov	DWORD PTR _count$[ebp], edx
$LN2@ExclusiveO:

; 78   :     while (count > 0)

	cmp	DWORD PTR _count$[ebp], 0
	jbe	$LN3@ExclusiveO

; 79   :     {
; 80   :         w[0] = u[0] ^ v[0];

	mov	eax, 4
	imul	ecx, eax, 0
	mov	edx, 4
	imul	eax, edx, 0
	mov	edx, DWORD PTR _u$[ebp]
	mov	esi, DWORD PTR _v$[ebp]
	mov	ecx, DWORD PTR [edx+ecx]
	xor	ecx, DWORD PTR [esi+eax]
	mov	edx, 4
	imul	eax, edx, 0
	mov	edx, DWORD PTR _w$[ebp]
	mov	DWORD PTR [edx+eax], ecx

; 81   :         w[1] = u[1] ^ v[1];

	mov	eax, 4
	shl	eax, 0
	mov	ecx, 4
	shl	ecx, 0
	mov	edx, DWORD PTR _u$[ebp]
	mov	esi, DWORD PTR _v$[ebp]
	mov	eax, DWORD PTR [edx+eax]
	xor	eax, DWORD PTR [esi+ecx]
	mov	ecx, 4
	shl	ecx, 0
	mov	edx, DWORD PTR _w$[ebp]
	mov	DWORD PTR [edx+ecx], eax

; 82   :         w[2] = u[2] ^ v[2];

	mov	eax, 4
	shl	eax, 1
	mov	ecx, 4
	shl	ecx, 1
	mov	edx, DWORD PTR _u$[ebp]
	mov	esi, DWORD PTR _v$[ebp]
	mov	eax, DWORD PTR [edx+eax]
	xor	eax, DWORD PTR [esi+ecx]
	mov	ecx, 4
	shl	ecx, 1
	mov	edx, DWORD PTR _w$[ebp]
	mov	DWORD PTR [edx+ecx], eax

; 83   :         w[3] = u[3] ^ v[3];

	mov	eax, 4
	imul	ecx, eax, 3
	mov	edx, 4
	imul	eax, edx, 3
	mov	edx, DWORD PTR _u$[ebp]
	mov	esi, DWORD PTR _v$[ebp]
	mov	ecx, DWORD PTR [edx+ecx]
	xor	ecx, DWORD PTR [esi+eax]
	mov	edx, 4
	imul	eax, edx, 3
	mov	edx, DWORD PTR _w$[ebp]
	mov	DWORD PTR [edx+eax], ecx

; 84   :         w[4] = u[4] ^ v[4];

	mov	eax, 4
	shl	eax, 2
	mov	ecx, 4
	shl	ecx, 2
	mov	edx, DWORD PTR _u$[ebp]
	mov	esi, DWORD PTR _v$[ebp]
	mov	eax, DWORD PTR [edx+eax]
	xor	eax, DWORD PTR [esi+ecx]
	mov	ecx, 4
	shl	ecx, 2
	mov	edx, DWORD PTR _w$[ebp]
	mov	DWORD PTR [edx+ecx], eax

; 85   :         w[5] = u[5] ^ v[5];

	mov	eax, 4
	imul	ecx, eax, 5
	mov	edx, 4
	imul	eax, edx, 5
	mov	edx, DWORD PTR _u$[ebp]
	mov	esi, DWORD PTR _v$[ebp]
	mov	ecx, DWORD PTR [edx+ecx]
	xor	ecx, DWORD PTR [esi+eax]
	mov	edx, 4
	imul	eax, edx, 5
	mov	edx, DWORD PTR _w$[ebp]
	mov	DWORD PTR [edx+eax], ecx

; 86   :         w[6] = u[6] ^ v[6];

	mov	eax, 4
	imul	ecx, eax, 6
	mov	edx, 4
	imul	eax, edx, 6
	mov	edx, DWORD PTR _u$[ebp]
	mov	esi, DWORD PTR _v$[ebp]
	mov	ecx, DWORD PTR [edx+ecx]
	xor	ecx, DWORD PTR [esi+eax]
	mov	edx, 4
	imul	eax, edx, 6
	mov	edx, DWORD PTR _w$[ebp]
	mov	DWORD PTR [edx+eax], ecx

; 87   :         w[7] = u[7] ^ v[7];

	mov	eax, 4
	imul	ecx, eax, 7
	mov	edx, 4
	imul	eax, edx, 7
	mov	edx, DWORD PTR _u$[ebp]
	mov	esi, DWORD PTR _v$[ebp]
	mov	ecx, DWORD PTR [edx+ecx]
	xor	ecx, DWORD PTR [esi+eax]
	mov	edx, 4
	imul	eax, edx, 7
	mov	edx, DWORD PTR _w$[ebp]
	mov	DWORD PTR [edx+eax], ecx

; 88   :         w[8] = u[8] ^ v[8];

	mov	eax, 4
	shl	eax, 3
	mov	ecx, 4
	shl	ecx, 3
	mov	edx, DWORD PTR _u$[ebp]
	mov	esi, DWORD PTR _v$[ebp]
	mov	eax, DWORD PTR [edx+eax]
	xor	eax, DWORD PTR [esi+ecx]
	mov	ecx, 4
	shl	ecx, 3
	mov	edx, DWORD PTR _w$[ebp]
	mov	DWORD PTR [edx+ecx], eax

; 89   :         w[9] = u[9] ^ v[9];

	mov	eax, 4
	imul	ecx, eax, 9
	mov	edx, 4
	imul	eax, edx, 9
	mov	edx, DWORD PTR _u$[ebp]
	mov	esi, DWORD PTR _v$[ebp]
	mov	ecx, DWORD PTR [edx+ecx]
	xor	ecx, DWORD PTR [esi+eax]
	mov	edx, 4
	imul	eax, edx, 9
	mov	edx, DWORD PTR _w$[ebp]
	mov	DWORD PTR [edx+eax], ecx

; 90   :         w[10] = u[10] ^ v[10];

	mov	eax, 4
	imul	ecx, eax, 10
	mov	edx, 4
	imul	eax, edx, 10
	mov	edx, DWORD PTR _u$[ebp]
	mov	esi, DWORD PTR _v$[ebp]
	mov	ecx, DWORD PTR [edx+ecx]
	xor	ecx, DWORD PTR [esi+eax]
	mov	edx, 4
	imul	eax, edx, 10
	mov	edx, DWORD PTR _w$[ebp]
	mov	DWORD PTR [edx+eax], ecx

; 91   :         w[11] = u[11] ^ v[11];

	mov	eax, 4
	imul	ecx, eax, 11
	mov	edx, 4
	imul	eax, edx, 11
	mov	edx, DWORD PTR _u$[ebp]
	mov	esi, DWORD PTR _v$[ebp]
	mov	ecx, DWORD PTR [edx+ecx]
	xor	ecx, DWORD PTR [esi+eax]
	mov	edx, 4
	imul	eax, edx, 11
	mov	edx, DWORD PTR _w$[ebp]
	mov	DWORD PTR [edx+eax], ecx

; 92   :         w[12] = u[12] ^ v[12];

	mov	eax, 4
	imul	ecx, eax, 12
	mov	edx, 4
	imul	eax, edx, 12
	mov	edx, DWORD PTR _u$[ebp]
	mov	esi, DWORD PTR _v$[ebp]
	mov	ecx, DWORD PTR [edx+ecx]
	xor	ecx, DWORD PTR [esi+eax]
	mov	edx, 4
	imul	eax, edx, 12
	mov	edx, DWORD PTR _w$[ebp]
	mov	DWORD PTR [edx+eax], ecx

; 93   :         w[13] = u[13] ^ v[13];

	mov	eax, 4
	imul	ecx, eax, 13
	mov	edx, 4
	imul	eax, edx, 13
	mov	edx, DWORD PTR _u$[ebp]
	mov	esi, DWORD PTR _v$[ebp]
	mov	ecx, DWORD PTR [edx+ecx]
	xor	ecx, DWORD PTR [esi+eax]
	mov	edx, 4
	imul	eax, edx, 13
	mov	edx, DWORD PTR _w$[ebp]
	mov	DWORD PTR [edx+eax], ecx

; 94   :         w[14] = u[14] ^ v[14];

	mov	eax, 4
	imul	ecx, eax, 14
	mov	edx, 4
	imul	eax, edx, 14
	mov	edx, DWORD PTR _u$[ebp]
	mov	esi, DWORD PTR _v$[ebp]
	mov	ecx, DWORD PTR [edx+ecx]
	xor	ecx, DWORD PTR [esi+eax]
	mov	edx, 4
	imul	eax, edx, 14
	mov	edx, DWORD PTR _w$[ebp]
	mov	DWORD PTR [edx+eax], ecx

; 95   :         w[15] = u[15] ^ v[15];

	mov	eax, 4
	imul	ecx, eax, 15
	mov	edx, 4
	imul	eax, edx, 15
	mov	edx, DWORD PTR _u$[ebp]
	mov	esi, DWORD PTR _v$[ebp]
	mov	ecx, DWORD PTR [edx+ecx]
	xor	ecx, DWORD PTR [esi+eax]
	mov	edx, 4
	imul	eax, edx, 15
	mov	edx, DWORD PTR _w$[ebp]
	mov	DWORD PTR [edx+eax], ecx

; 96   :         w[16] = u[16] ^ v[16];

	mov	eax, 4
	shl	eax, 4
	mov	ecx, 4
	shl	ecx, 4
	mov	edx, DWORD PTR _u$[ebp]
	mov	esi, DWORD PTR _v$[ebp]
	mov	eax, DWORD PTR [edx+eax]
	xor	eax, DWORD PTR [esi+ecx]
	mov	ecx, 4
	shl	ecx, 4
	mov	edx, DWORD PTR _w$[ebp]
	mov	DWORD PTR [edx+ecx], eax

; 97   :         w[17] = u[17] ^ v[17];

	mov	eax, 4
	imul	ecx, eax, 17
	mov	edx, 4
	imul	eax, edx, 17
	mov	edx, DWORD PTR _u$[ebp]
	mov	esi, DWORD PTR _v$[ebp]
	mov	ecx, DWORD PTR [edx+ecx]
	xor	ecx, DWORD PTR [esi+eax]
	mov	edx, 4
	imul	eax, edx, 17
	mov	edx, DWORD PTR _w$[ebp]
	mov	DWORD PTR [edx+eax], ecx

; 98   :         w[18] = u[18] ^ v[18];

	mov	eax, 4
	imul	ecx, eax, 18
	mov	edx, 4
	imul	eax, edx, 18
	mov	edx, DWORD PTR _u$[ebp]
	mov	esi, DWORD PTR _v$[ebp]
	mov	ecx, DWORD PTR [edx+ecx]
	xor	ecx, DWORD PTR [esi+eax]
	mov	edx, 4
	imul	eax, edx, 18
	mov	edx, DWORD PTR _w$[ebp]
	mov	DWORD PTR [edx+eax], ecx

; 99   :         w[19] = u[19] ^ v[19];

	mov	eax, 4
	imul	ecx, eax, 19
	mov	edx, 4
	imul	eax, edx, 19
	mov	edx, DWORD PTR _u$[ebp]
	mov	esi, DWORD PTR _v$[ebp]
	mov	ecx, DWORD PTR [edx+ecx]
	xor	ecx, DWORD PTR [esi+eax]
	mov	edx, 4
	imul	eax, edx, 19
	mov	edx, DWORD PTR _w$[ebp]
	mov	DWORD PTR [edx+eax], ecx

; 100  :         w[20] = u[20] ^ v[20];

	mov	eax, 4
	imul	ecx, eax, 20
	mov	edx, 4
	imul	eax, edx, 20
	mov	edx, DWORD PTR _u$[ebp]
	mov	esi, DWORD PTR _v$[ebp]
	mov	ecx, DWORD PTR [edx+ecx]
	xor	ecx, DWORD PTR [esi+eax]
	mov	edx, 4
	imul	eax, edx, 20
	mov	edx, DWORD PTR _w$[ebp]
	mov	DWORD PTR [edx+eax], ecx

; 101  :         w[21] = u[21] ^ v[21];

	mov	eax, 4
	imul	ecx, eax, 21
	mov	edx, 4
	imul	eax, edx, 21
	mov	edx, DWORD PTR _u$[ebp]
	mov	esi, DWORD PTR _v$[ebp]
	mov	ecx, DWORD PTR [edx+ecx]
	xor	ecx, DWORD PTR [esi+eax]
	mov	edx, 4
	imul	eax, edx, 21
	mov	edx, DWORD PTR _w$[ebp]
	mov	DWORD PTR [edx+eax], ecx

; 102  :         w[22] = u[22] ^ v[22];

	mov	eax, 4
	imul	ecx, eax, 22
	mov	edx, 4
	imul	eax, edx, 22
	mov	edx, DWORD PTR _u$[ebp]
	mov	esi, DWORD PTR _v$[ebp]
	mov	ecx, DWORD PTR [edx+ecx]
	xor	ecx, DWORD PTR [esi+eax]
	mov	edx, 4
	imul	eax, edx, 22
	mov	edx, DWORD PTR _w$[ebp]
	mov	DWORD PTR [edx+eax], ecx

; 103  :         w[23] = u[23] ^ v[23];

	mov	eax, 4
	imul	ecx, eax, 23
	mov	edx, 4
	imul	eax, edx, 23
	mov	edx, DWORD PTR _u$[ebp]
	mov	esi, DWORD PTR _v$[ebp]
	mov	ecx, DWORD PTR [edx+ecx]
	xor	ecx, DWORD PTR [esi+eax]
	mov	edx, 4
	imul	eax, edx, 23
	mov	edx, DWORD PTR _w$[ebp]
	mov	DWORD PTR [edx+eax], ecx

; 104  :         w[24] = u[24] ^ v[24];

	mov	eax, 4
	imul	ecx, eax, 24
	mov	edx, 4
	imul	eax, edx, 24
	mov	edx, DWORD PTR _u$[ebp]
	mov	esi, DWORD PTR _v$[ebp]
	mov	ecx, DWORD PTR [edx+ecx]
	xor	ecx, DWORD PTR [esi+eax]
	mov	edx, 4
	imul	eax, edx, 24
	mov	edx, DWORD PTR _w$[ebp]
	mov	DWORD PTR [edx+eax], ecx

; 105  :         w[25] = u[25] ^ v[25];

	mov	eax, 4
	imul	ecx, eax, 25
	mov	edx, 4
	imul	eax, edx, 25
	mov	edx, DWORD PTR _u$[ebp]
	mov	esi, DWORD PTR _v$[ebp]
	mov	ecx, DWORD PTR [edx+ecx]
	xor	ecx, DWORD PTR [esi+eax]
	mov	edx, 4
	imul	eax, edx, 25
	mov	edx, DWORD PTR _w$[ebp]
	mov	DWORD PTR [edx+eax], ecx

; 106  :         w[26] = u[26] ^ v[26];

	mov	eax, 4
	imul	ecx, eax, 26
	mov	edx, 4
	imul	eax, edx, 26
	mov	edx, DWORD PTR _u$[ebp]
	mov	esi, DWORD PTR _v$[ebp]
	mov	ecx, DWORD PTR [edx+ecx]
	xor	ecx, DWORD PTR [esi+eax]
	mov	edx, 4
	imul	eax, edx, 26
	mov	edx, DWORD PTR _w$[ebp]
	mov	DWORD PTR [edx+eax], ecx

; 107  :         w[27] = u[27] ^ v[27];

	mov	eax, 4
	imul	ecx, eax, 27
	mov	edx, 4
	imul	eax, edx, 27
	mov	edx, DWORD PTR _u$[ebp]
	mov	esi, DWORD PTR _v$[ebp]
	mov	ecx, DWORD PTR [edx+ecx]
	xor	ecx, DWORD PTR [esi+eax]
	mov	edx, 4
	imul	eax, edx, 27
	mov	edx, DWORD PTR _w$[ebp]
	mov	DWORD PTR [edx+eax], ecx

; 108  :         w[28] = u[28] ^ v[28];

	mov	eax, 4
	imul	ecx, eax, 28
	mov	edx, 4
	imul	eax, edx, 28
	mov	edx, DWORD PTR _u$[ebp]
	mov	esi, DWORD PTR _v$[ebp]
	mov	ecx, DWORD PTR [edx+ecx]
	xor	ecx, DWORD PTR [esi+eax]
	mov	edx, 4
	imul	eax, edx, 28
	mov	edx, DWORD PTR _w$[ebp]
	mov	DWORD PTR [edx+eax], ecx

; 109  :         w[29] = u[29] ^ v[29];

	mov	eax, 4
	imul	ecx, eax, 29
	mov	edx, 4
	imul	eax, edx, 29
	mov	edx, DWORD PTR _u$[ebp]
	mov	esi, DWORD PTR _v$[ebp]
	mov	ecx, DWORD PTR [edx+ecx]
	xor	ecx, DWORD PTR [esi+eax]
	mov	edx, 4
	imul	eax, edx, 29
	mov	edx, DWORD PTR _w$[ebp]
	mov	DWORD PTR [edx+eax], ecx

; 110  :         w[30] = u[30] ^ v[30];

	mov	eax, 4
	imul	ecx, eax, 30
	mov	edx, 4
	imul	eax, edx, 30
	mov	edx, DWORD PTR _u$[ebp]
	mov	esi, DWORD PTR _v$[ebp]
	mov	ecx, DWORD PTR [edx+ecx]
	xor	ecx, DWORD PTR [esi+eax]
	mov	edx, 4
	imul	eax, edx, 30
	mov	edx, DWORD PTR _w$[ebp]
	mov	DWORD PTR [edx+eax], ecx

; 111  :         w[31] = u[31] ^ v[31];

	mov	eax, 4
	imul	ecx, eax, 31
	mov	edx, 4
	imul	eax, edx, 31
	mov	edx, DWORD PTR _u$[ebp]
	mov	esi, DWORD PTR _v$[ebp]
	mov	ecx, DWORD PTR [edx+ecx]
	xor	ecx, DWORD PTR [esi+eax]
	mov	edx, 4
	imul	eax, edx, 31
	mov	edx, DWORD PTR _w$[ebp]
	mov	DWORD PTR [edx+eax], ecx

; 112  :         u += 32;

	mov	eax, DWORD PTR _u$[ebp]
	add	eax, 128				; 00000080H
	mov	DWORD PTR _u$[ebp], eax

; 113  :         v += 32;

	mov	ecx, DWORD PTR _v$[ebp]
	add	ecx, 128				; 00000080H
	mov	DWORD PTR _v$[ebp], ecx

; 114  :         w += 32;

	mov	edx, DWORD PTR _w$[ebp]
	add	edx, 128				; 00000080H
	mov	DWORD PTR _w$[ebp], edx

; 115  :         --count;

	mov	eax, DWORD PTR _count$[ebp]
	sub	eax, 1
	mov	DWORD PTR _count$[ebp], eax

; 116  :     }

	jmp	$LN2@ExclusiveO
$LN3@ExclusiveO:

; 117  : 
; 118  :     if (or_count & 0x10)

	mov	ecx, DWORD PTR _or_count$[ebp]
	and	ecx, 16					; 00000010H
	je	$LN4@ExclusiveO

; 119  :     {
; 120  :         w[0] = u[0] ^ v[0];

	mov	edx, 4
	imul	eax, edx, 0
	mov	ecx, 4
	imul	edx, ecx, 0
	mov	ecx, DWORD PTR _u$[ebp]
	mov	esi, DWORD PTR _v$[ebp]
	mov	eax, DWORD PTR [ecx+eax]
	xor	eax, DWORD PTR [esi+edx]
	mov	ecx, 4
	imul	edx, ecx, 0
	mov	ecx, DWORD PTR _w$[ebp]
	mov	DWORD PTR [ecx+edx], eax

; 121  :         w[1] = u[1] ^ v[1];

	mov	edx, 4
	shl	edx, 0
	mov	eax, 4
	shl	eax, 0
	mov	ecx, DWORD PTR _u$[ebp]
	mov	esi, DWORD PTR _v$[ebp]
	mov	edx, DWORD PTR [ecx+edx]
	xor	edx, DWORD PTR [esi+eax]
	mov	eax, 4
	shl	eax, 0
	mov	ecx, DWORD PTR _w$[ebp]
	mov	DWORD PTR [ecx+eax], edx

; 122  :         w[2] = u[2] ^ v[2];

	mov	edx, 4
	shl	edx, 1
	mov	eax, 4
	shl	eax, 1
	mov	ecx, DWORD PTR _u$[ebp]
	mov	esi, DWORD PTR _v$[ebp]
	mov	edx, DWORD PTR [ecx+edx]
	xor	edx, DWORD PTR [esi+eax]
	mov	eax, 4
	shl	eax, 1
	mov	ecx, DWORD PTR _w$[ebp]
	mov	DWORD PTR [ecx+eax], edx

; 123  :         w[3] = u[3] ^ v[3];

	mov	edx, 4
	imul	eax, edx, 3
	mov	ecx, 4
	imul	edx, ecx, 3
	mov	ecx, DWORD PTR _u$[ebp]
	mov	esi, DWORD PTR _v$[ebp]
	mov	eax, DWORD PTR [ecx+eax]
	xor	eax, DWORD PTR [esi+edx]
	mov	ecx, 4
	imul	edx, ecx, 3
	mov	ecx, DWORD PTR _w$[ebp]
	mov	DWORD PTR [ecx+edx], eax

; 124  :         w[4] = u[4] ^ v[4];

	mov	edx, 4
	shl	edx, 2
	mov	eax, 4
	shl	eax, 2
	mov	ecx, DWORD PTR _u$[ebp]
	mov	esi, DWORD PTR _v$[ebp]
	mov	edx, DWORD PTR [ecx+edx]
	xor	edx, DWORD PTR [esi+eax]
	mov	eax, 4
	shl	eax, 2
	mov	ecx, DWORD PTR _w$[ebp]
	mov	DWORD PTR [ecx+eax], edx

; 125  :         w[5] = u[5] ^ v[5];

	mov	edx, 4
	imul	eax, edx, 5
	mov	ecx, 4
	imul	edx, ecx, 5
	mov	ecx, DWORD PTR _u$[ebp]
	mov	esi, DWORD PTR _v$[ebp]
	mov	eax, DWORD PTR [ecx+eax]
	xor	eax, DWORD PTR [esi+edx]
	mov	ecx, 4
	imul	edx, ecx, 5
	mov	ecx, DWORD PTR _w$[ebp]
	mov	DWORD PTR [ecx+edx], eax

; 126  :         w[6] = u[6] ^ v[6];

	mov	edx, 4
	imul	eax, edx, 6
	mov	ecx, 4
	imul	edx, ecx, 6
	mov	ecx, DWORD PTR _u$[ebp]
	mov	esi, DWORD PTR _v$[ebp]
	mov	eax, DWORD PTR [ecx+eax]
	xor	eax, DWORD PTR [esi+edx]
	mov	ecx, 4
	imul	edx, ecx, 6
	mov	ecx, DWORD PTR _w$[ebp]
	mov	DWORD PTR [ecx+edx], eax

; 127  :         w[7] = u[7] ^ v[7];

	mov	edx, 4
	imul	eax, edx, 7
	mov	ecx, 4
	imul	edx, ecx, 7
	mov	ecx, DWORD PTR _u$[ebp]
	mov	esi, DWORD PTR _v$[ebp]
	mov	eax, DWORD PTR [ecx+eax]
	xor	eax, DWORD PTR [esi+edx]
	mov	ecx, 4
	imul	edx, ecx, 7
	mov	ecx, DWORD PTR _w$[ebp]
	mov	DWORD PTR [ecx+edx], eax

; 128  :         w[8] = u[8] ^ v[8];

	mov	edx, 4
	shl	edx, 3
	mov	eax, 4
	shl	eax, 3
	mov	ecx, DWORD PTR _u$[ebp]
	mov	esi, DWORD PTR _v$[ebp]
	mov	edx, DWORD PTR [ecx+edx]
	xor	edx, DWORD PTR [esi+eax]
	mov	eax, 4
	shl	eax, 3
	mov	ecx, DWORD PTR _w$[ebp]
	mov	DWORD PTR [ecx+eax], edx

; 129  :         w[9] = u[9] ^ v[9];

	mov	edx, 4
	imul	eax, edx, 9
	mov	ecx, 4
	imul	edx, ecx, 9
	mov	ecx, DWORD PTR _u$[ebp]
	mov	esi, DWORD PTR _v$[ebp]
	mov	eax, DWORD PTR [ecx+eax]
	xor	eax, DWORD PTR [esi+edx]
	mov	ecx, 4
	imul	edx, ecx, 9
	mov	ecx, DWORD PTR _w$[ebp]
	mov	DWORD PTR [ecx+edx], eax

; 130  :         w[10] = u[10] ^ v[10];

	mov	edx, 4
	imul	eax, edx, 10
	mov	ecx, 4
	imul	edx, ecx, 10
	mov	ecx, DWORD PTR _u$[ebp]
	mov	esi, DWORD PTR _v$[ebp]
	mov	eax, DWORD PTR [ecx+eax]
	xor	eax, DWORD PTR [esi+edx]
	mov	ecx, 4
	imul	edx, ecx, 10
	mov	ecx, DWORD PTR _w$[ebp]
	mov	DWORD PTR [ecx+edx], eax

; 131  :         w[11] = u[11] ^ v[11];

	mov	edx, 4
	imul	eax, edx, 11
	mov	ecx, 4
	imul	edx, ecx, 11
	mov	ecx, DWORD PTR _u$[ebp]
	mov	esi, DWORD PTR _v$[ebp]
	mov	eax, DWORD PTR [ecx+eax]
	xor	eax, DWORD PTR [esi+edx]
	mov	ecx, 4
	imul	edx, ecx, 11
	mov	ecx, DWORD PTR _w$[ebp]
	mov	DWORD PTR [ecx+edx], eax

; 132  :         w[12] = u[12] ^ v[12];

	mov	edx, 4
	imul	eax, edx, 12
	mov	ecx, 4
	imul	edx, ecx, 12
	mov	ecx, DWORD PTR _u$[ebp]
	mov	esi, DWORD PTR _v$[ebp]
	mov	eax, DWORD PTR [ecx+eax]
	xor	eax, DWORD PTR [esi+edx]
	mov	ecx, 4
	imul	edx, ecx, 12
	mov	ecx, DWORD PTR _w$[ebp]
	mov	DWORD PTR [ecx+edx], eax

; 133  :         w[13] = u[13] ^ v[13];

	mov	edx, 4
	imul	eax, edx, 13
	mov	ecx, 4
	imul	edx, ecx, 13
	mov	ecx, DWORD PTR _u$[ebp]
	mov	esi, DWORD PTR _v$[ebp]
	mov	eax, DWORD PTR [ecx+eax]
	xor	eax, DWORD PTR [esi+edx]
	mov	ecx, 4
	imul	edx, ecx, 13
	mov	ecx, DWORD PTR _w$[ebp]
	mov	DWORD PTR [ecx+edx], eax

; 134  :         w[14] = u[14] ^ v[14];

	mov	edx, 4
	imul	eax, edx, 14
	mov	ecx, 4
	imul	edx, ecx, 14
	mov	ecx, DWORD PTR _u$[ebp]
	mov	esi, DWORD PTR _v$[ebp]
	mov	eax, DWORD PTR [ecx+eax]
	xor	eax, DWORD PTR [esi+edx]
	mov	ecx, 4
	imul	edx, ecx, 14
	mov	ecx, DWORD PTR _w$[ebp]
	mov	DWORD PTR [ecx+edx], eax

; 135  :         w[15] = u[15] ^ v[15];

	mov	edx, 4
	imul	eax, edx, 15
	mov	ecx, 4
	imul	edx, ecx, 15
	mov	ecx, DWORD PTR _u$[ebp]
	mov	esi, DWORD PTR _v$[ebp]
	mov	eax, DWORD PTR [ecx+eax]
	xor	eax, DWORD PTR [esi+edx]
	mov	ecx, 4
	imul	edx, ecx, 15
	mov	ecx, DWORD PTR _w$[ebp]
	mov	DWORD PTR [ecx+edx], eax

; 136  :         u += 16;

	mov	edx, DWORD PTR _u$[ebp]
	add	edx, 64					; 00000040H
	mov	DWORD PTR _u$[ebp], edx

; 137  :         v += 16;

	mov	eax, DWORD PTR _v$[ebp]
	add	eax, 64					; 00000040H
	mov	DWORD PTR _v$[ebp], eax

; 138  :         w += 16;

	mov	ecx, DWORD PTR _w$[ebp]
	add	ecx, 64					; 00000040H
	mov	DWORD PTR _w$[ebp], ecx
$LN4@ExclusiveO:

; 139  :     }
; 140  : 
; 141  :     if (or_count & 0x8)

	mov	edx, DWORD PTR _or_count$[ebp]
	and	edx, 8
	je	$LN5@ExclusiveO

; 142  :     {
; 143  :         w[0] = u[0] ^ v[0];

	mov	eax, 4
	imul	ecx, eax, 0
	mov	edx, 4
	imul	eax, edx, 0
	mov	edx, DWORD PTR _u$[ebp]
	mov	esi, DWORD PTR _v$[ebp]
	mov	ecx, DWORD PTR [edx+ecx]
	xor	ecx, DWORD PTR [esi+eax]
	mov	edx, 4
	imul	eax, edx, 0
	mov	edx, DWORD PTR _w$[ebp]
	mov	DWORD PTR [edx+eax], ecx

; 144  :         w[1] = u[1] ^ v[1];

	mov	eax, 4
	shl	eax, 0
	mov	ecx, 4
	shl	ecx, 0
	mov	edx, DWORD PTR _u$[ebp]
	mov	esi, DWORD PTR _v$[ebp]
	mov	eax, DWORD PTR [edx+eax]
	xor	eax, DWORD PTR [esi+ecx]
	mov	ecx, 4
	shl	ecx, 0
	mov	edx, DWORD PTR _w$[ebp]
	mov	DWORD PTR [edx+ecx], eax

; 145  :         w[2] = u[2] ^ v[2];

	mov	eax, 4
	shl	eax, 1
	mov	ecx, 4
	shl	ecx, 1
	mov	edx, DWORD PTR _u$[ebp]
	mov	esi, DWORD PTR _v$[ebp]
	mov	eax, DWORD PTR [edx+eax]
	xor	eax, DWORD PTR [esi+ecx]
	mov	ecx, 4
	shl	ecx, 1
	mov	edx, DWORD PTR _w$[ebp]
	mov	DWORD PTR [edx+ecx], eax

; 146  :         w[3] = u[3] ^ v[3];

	mov	eax, 4
	imul	ecx, eax, 3
	mov	edx, 4
	imul	eax, edx, 3
	mov	edx, DWORD PTR _u$[ebp]
	mov	esi, DWORD PTR _v$[ebp]
	mov	ecx, DWORD PTR [edx+ecx]
	xor	ecx, DWORD PTR [esi+eax]
	mov	edx, 4
	imul	eax, edx, 3
	mov	edx, DWORD PTR _w$[ebp]
	mov	DWORD PTR [edx+eax], ecx

; 147  :         w[4] = u[4] ^ v[4];

	mov	eax, 4
	shl	eax, 2
	mov	ecx, 4
	shl	ecx, 2
	mov	edx, DWORD PTR _u$[ebp]
	mov	esi, DWORD PTR _v$[ebp]
	mov	eax, DWORD PTR [edx+eax]
	xor	eax, DWORD PTR [esi+ecx]
	mov	ecx, 4
	shl	ecx, 2
	mov	edx, DWORD PTR _w$[ebp]
	mov	DWORD PTR [edx+ecx], eax

; 148  :         w[5] = u[5] ^ v[5];

	mov	eax, 4
	imul	ecx, eax, 5
	mov	edx, 4
	imul	eax, edx, 5
	mov	edx, DWORD PTR _u$[ebp]
	mov	esi, DWORD PTR _v$[ebp]
	mov	ecx, DWORD PTR [edx+ecx]
	xor	ecx, DWORD PTR [esi+eax]
	mov	edx, 4
	imul	eax, edx, 5
	mov	edx, DWORD PTR _w$[ebp]
	mov	DWORD PTR [edx+eax], ecx

; 149  :         w[6] = u[6] ^ v[6];

	mov	eax, 4
	imul	ecx, eax, 6
	mov	edx, 4
	imul	eax, edx, 6
	mov	edx, DWORD PTR _u$[ebp]
	mov	esi, DWORD PTR _v$[ebp]
	mov	ecx, DWORD PTR [edx+ecx]
	xor	ecx, DWORD PTR [esi+eax]
	mov	edx, 4
	imul	eax, edx, 6
	mov	edx, DWORD PTR _w$[ebp]
	mov	DWORD PTR [edx+eax], ecx

; 150  :         w[7] = u[7] ^ v[7];

	mov	eax, 4
	imul	ecx, eax, 7
	mov	edx, 4
	imul	eax, edx, 7
	mov	edx, DWORD PTR _u$[ebp]
	mov	esi, DWORD PTR _v$[ebp]
	mov	ecx, DWORD PTR [edx+ecx]
	xor	ecx, DWORD PTR [esi+eax]
	mov	edx, 4
	imul	eax, edx, 7
	mov	edx, DWORD PTR _w$[ebp]
	mov	DWORD PTR [edx+eax], ecx

; 151  :         u += 8;

	mov	eax, DWORD PTR _u$[ebp]
	add	eax, 32					; 00000020H
	mov	DWORD PTR _u$[ebp], eax

; 152  :         v += 8;

	mov	ecx, DWORD PTR _v$[ebp]
	add	ecx, 32					; 00000020H
	mov	DWORD PTR _v$[ebp], ecx

; 153  :         w += 8;

	mov	edx, DWORD PTR _w$[ebp]
	add	edx, 32					; 00000020H
	mov	DWORD PTR _w$[ebp], edx
$LN5@ExclusiveO:

; 154  :     }
; 155  : 
; 156  :     if (or_count & 0x4)

	mov	eax, DWORD PTR _or_count$[ebp]
	and	eax, 4
	je	$LN6@ExclusiveO

; 157  :     {
; 158  :         w[0] = u[0] ^ v[0];

	mov	ecx, 4
	imul	edx, ecx, 0
	mov	eax, 4
	imul	ecx, eax, 0
	mov	eax, DWORD PTR _u$[ebp]
	mov	esi, DWORD PTR _v$[ebp]
	mov	edx, DWORD PTR [eax+edx]
	xor	edx, DWORD PTR [esi+ecx]
	mov	eax, 4
	imul	ecx, eax, 0
	mov	eax, DWORD PTR _w$[ebp]
	mov	DWORD PTR [eax+ecx], edx

; 159  :         w[1] = u[1] ^ v[1];

	mov	ecx, 4
	shl	ecx, 0
	mov	edx, 4
	shl	edx, 0
	mov	eax, DWORD PTR _u$[ebp]
	mov	esi, DWORD PTR _v$[ebp]
	mov	ecx, DWORD PTR [eax+ecx]
	xor	ecx, DWORD PTR [esi+edx]
	mov	edx, 4
	shl	edx, 0
	mov	eax, DWORD PTR _w$[ebp]
	mov	DWORD PTR [eax+edx], ecx

; 160  :         w[2] = u[2] ^ v[2];

	mov	ecx, 4
	shl	ecx, 1
	mov	edx, 4
	shl	edx, 1
	mov	eax, DWORD PTR _u$[ebp]
	mov	esi, DWORD PTR _v$[ebp]
	mov	ecx, DWORD PTR [eax+ecx]
	xor	ecx, DWORD PTR [esi+edx]
	mov	edx, 4
	shl	edx, 1
	mov	eax, DWORD PTR _w$[ebp]
	mov	DWORD PTR [eax+edx], ecx

; 161  :         w[3] = u[3] ^ v[3];

	mov	ecx, 4
	imul	edx, ecx, 3
	mov	eax, 4
	imul	ecx, eax, 3
	mov	eax, DWORD PTR _u$[ebp]
	mov	esi, DWORD PTR _v$[ebp]
	mov	edx, DWORD PTR [eax+edx]
	xor	edx, DWORD PTR [esi+ecx]
	mov	eax, 4
	imul	ecx, eax, 3
	mov	eax, DWORD PTR _w$[ebp]
	mov	DWORD PTR [eax+ecx], edx

; 162  :         u += 4;

	mov	ecx, DWORD PTR _u$[ebp]
	add	ecx, 16					; 00000010H
	mov	DWORD PTR _u$[ebp], ecx

; 163  :         v += 4;

	mov	edx, DWORD PTR _v$[ebp]
	add	edx, 16					; 00000010H
	mov	DWORD PTR _v$[ebp], edx

; 164  :         w += 4;

	mov	eax, DWORD PTR _w$[ebp]
	add	eax, 16					; 00000010H
	mov	DWORD PTR _w$[ebp], eax
$LN6@ExclusiveO:

; 165  :     }
; 166  : 
; 167  :     if (or_count & 0x2)

	mov	ecx, DWORD PTR _or_count$[ebp]
	and	ecx, 2
	je	SHORT $LN7@ExclusiveO

; 168  :     {
; 169  :         w[0] = u[0] ^ v[0];

	mov	edx, 4
	imul	eax, edx, 0
	mov	ecx, 4
	imul	edx, ecx, 0
	mov	ecx, DWORD PTR _u$[ebp]
	mov	esi, DWORD PTR _v$[ebp]
	mov	eax, DWORD PTR [ecx+eax]
	xor	eax, DWORD PTR [esi+edx]
	mov	ecx, 4
	imul	edx, ecx, 0
	mov	ecx, DWORD PTR _w$[ebp]
	mov	DWORD PTR [ecx+edx], eax

; 170  :         w[1] = u[1] ^ v[1];

	mov	edx, 4
	shl	edx, 0
	mov	eax, 4
	shl	eax, 0
	mov	ecx, DWORD PTR _u$[ebp]
	mov	esi, DWORD PTR _v$[ebp]
	mov	edx, DWORD PTR [ecx+edx]
	xor	edx, DWORD PTR [esi+eax]
	mov	eax, 4
	shl	eax, 0
	mov	ecx, DWORD PTR _w$[ebp]
	mov	DWORD PTR [ecx+eax], edx

; 171  :         u += 2;

	mov	edx, DWORD PTR _u$[ebp]
	add	edx, 8
	mov	DWORD PTR _u$[ebp], edx

; 172  :         v += 2;

	mov	eax, DWORD PTR _v$[ebp]
	add	eax, 8
	mov	DWORD PTR _v$[ebp], eax

; 173  :         w += 2;

	mov	ecx, DWORD PTR _w$[ebp]
	add	ecx, 8
	mov	DWORD PTR _w$[ebp], ecx
$LN7@ExclusiveO:

; 174  :     }
; 175  : 
; 176  :     if (or_count & 0x1)

	mov	edx, DWORD PTR _or_count$[ebp]
	and	edx, 1
	je	SHORT $LN8@ExclusiveO

; 177  :     {
; 178  :         w[0] = u[0] ^ v[0];

	mov	eax, 4
	imul	ecx, eax, 0
	mov	edx, 4
	imul	eax, edx, 0
	mov	edx, DWORD PTR _u$[ebp]
	mov	esi, DWORD PTR _v$[ebp]
	mov	ecx, DWORD PTR [edx+ecx]
	xor	ecx, DWORD PTR [esi+eax]
	mov	edx, 4
	imul	eax, edx, 0
	mov	edx, DWORD PTR _w$[ebp]
	mov	DWORD PTR [edx+eax], ecx

; 179  :         u += 1;

	mov	eax, DWORD PTR _u$[ebp]
	add	eax, 4
	mov	DWORD PTR _u$[ebp], eax

; 180  :         v += 1;

	mov	ecx, DWORD PTR _v$[ebp]
	add	ecx, 4
	mov	DWORD PTR _v$[ebp], ecx

; 181  :         w += 1;

	mov	edx, DWORD PTR _w$[ebp]
	add	edx, 4
	mov	DWORD PTR _w$[ebp], edx
$LN8@ExclusiveO:

; 182  :     }
; 183  : 
; 184  :     _COPY_MEMORY_UNIT(w, u, cp_count);

	mov	eax, DWORD PTR _cp_count$[ebp]
	push	eax
	mov	ecx, DWORD PTR _u$[ebp]
	push	ecx
	mov	edx, DWORD PTR _w$[ebp]
	push	edx
	call	__COPY_MEMORY_UNIT
	add	esp, 12					; 0000000cH

; 185  : }

	pop	esi
	add	esp, 12					; 0000000cH
	cmp	ebp, esp
	call	__RTC_CheckEsp
	mov	esp, ebp
	pop	ebp
	ret	0
_ExclusiveOr_X_X ENDP
_TEXT	ENDS
; Function compile flags: /Odtp /RTCsu
; File z:\sources\lunor\repos\rougemeilland\palmtree.math.core.uint\palmtree.math.core.uint\pmc_exclusiveor.c
_TEXT	SEGMENT
_u$ = 8							; size = 4
_u_count$ = 12						; size = 4
_v_hi$ = 16						; size = 4
_v_lo$ = 20						; size = 4
_w$ = 24						; size = 4
_ExclusiveOr_X_2W PROC

; 52   : {

	push	ebp
	mov	ebp, esp
	mov	ecx, OFFSET __8EA3BDF0_pmc_exclusiveor@c
	call	@__CheckForDebuggerJustMyCode@4

; 53   :     if (u_count == 1)

	cmp	DWORD PTR _u_count$[ebp], 1
	jne	SHORT $LN2@ExclusiveO

; 54   :     {
; 55   :         w[0] = u[0] ^ v_lo;

	mov	eax, 4
	imul	ecx, eax, 0
	mov	edx, DWORD PTR _u$[ebp]
	mov	eax, DWORD PTR [edx+ecx]
	xor	eax, DWORD PTR _v_lo$[ebp]
	mov	ecx, 4
	imul	edx, ecx, 0
	mov	ecx, DWORD PTR _w$[ebp]
	mov	DWORD PTR [ecx+edx], eax

; 56   :         w[1] = v_hi;

	mov	edx, 4
	shl	edx, 0
	mov	eax, DWORD PTR _w$[ebp]
	mov	ecx, DWORD PTR _v_hi$[ebp]
	mov	DWORD PTR [eax+edx], ecx

; 57   :     }

	jmp	$LN1@ExclusiveO
$LN2@ExclusiveO:

; 58   :     else if (u_count == 2)

	cmp	DWORD PTR _u_count$[ebp], 2
	jne	SHORT $LN4@ExclusiveO

; 59   :     {
; 60   :         w[0] = u[0] ^ v_lo;

	mov	edx, 4
	imul	eax, edx, 0
	mov	ecx, DWORD PTR _u$[ebp]
	mov	edx, DWORD PTR [ecx+eax]
	xor	edx, DWORD PTR _v_lo$[ebp]
	mov	eax, 4
	imul	ecx, eax, 0
	mov	eax, DWORD PTR _w$[ebp]
	mov	DWORD PTR [eax+ecx], edx

; 61   :         w[1] = u[1] ^ v_hi;

	mov	ecx, 4
	shl	ecx, 0
	mov	edx, DWORD PTR _u$[ebp]
	mov	eax, DWORD PTR [edx+ecx]
	xor	eax, DWORD PTR _v_hi$[ebp]
	mov	ecx, 4
	shl	ecx, 0
	mov	edx, DWORD PTR _w$[ebp]
	mov	DWORD PTR [edx+ecx], eax

; 62   :     }

	jmp	SHORT $LN1@ExclusiveO
$LN4@ExclusiveO:

; 63   :     else
; 64   :     {
; 65   :         w[0] = u[0] ^ v_lo;

	mov	eax, 4
	imul	ecx, eax, 0
	mov	edx, DWORD PTR _u$[ebp]
	mov	eax, DWORD PTR [edx+ecx]
	xor	eax, DWORD PTR _v_lo$[ebp]
	mov	ecx, 4
	imul	edx, ecx, 0
	mov	ecx, DWORD PTR _w$[ebp]
	mov	DWORD PTR [ecx+edx], eax

; 66   :         w[1] = u[1] ^ v_hi;

	mov	edx, 4
	shl	edx, 0
	mov	eax, DWORD PTR _u$[ebp]
	mov	ecx, DWORD PTR [eax+edx]
	xor	ecx, DWORD PTR _v_hi$[ebp]
	mov	edx, 4
	shl	edx, 0
	mov	eax, DWORD PTR _w$[ebp]
	mov	DWORD PTR [eax+edx], ecx

; 67   :         _COPY_MEMORY_UNIT(w + 2, u + 2, u_count - 2);

	mov	ecx, DWORD PTR _u_count$[ebp]
	sub	ecx, 2
	push	ecx
	mov	edx, DWORD PTR _u$[ebp]
	add	edx, 8
	push	edx
	mov	eax, DWORD PTR _w$[ebp]
	add	eax, 8
	push	eax
	call	__COPY_MEMORY_UNIT
	add	esp, 12					; 0000000cH
$LN1@ExclusiveO:

; 68   :     }
; 69   : }

	cmp	ebp, esp
	call	__RTC_CheckEsp
	pop	ebp
	ret	0
_ExclusiveOr_X_2W ENDP
_TEXT	ENDS
; Function compile flags: /Odtp /RTCsu
; File z:\sources\lunor\repos\rougemeilland\palmtree.math.core.uint\palmtree.math.core.uint\pmc_exclusiveor.c
_TEXT	SEGMENT
_u$ = 8							; size = 4
_u_count$ = 12						; size = 4
_v$ = 16						; size = 4
_w$ = 20						; size = 4
_ExclusiveOr_X_1W PROC

; 40   : {

	push	ebp
	mov	ebp, esp
	mov	ecx, OFFSET __8EA3BDF0_pmc_exclusiveor@c
	call	@__CheckForDebuggerJustMyCode@4

; 41   :     if (u_count == 1)

	cmp	DWORD PTR _u_count$[ebp], 1
	jne	SHORT $LN2@ExclusiveO

; 42   :         w[0] = u[0] ^ v;

	mov	eax, 4
	imul	ecx, eax, 0
	mov	edx, DWORD PTR _u$[ebp]
	mov	eax, DWORD PTR [edx+ecx]
	xor	eax, DWORD PTR _v$[ebp]
	mov	ecx, 4
	imul	edx, ecx, 0
	mov	ecx, DWORD PTR _w$[ebp]
	mov	DWORD PTR [ecx+edx], eax
	jmp	SHORT $LN1@ExclusiveO
$LN2@ExclusiveO:

; 43   :     else
; 44   :     {
; 45   :         w[0] = u[0] ^ v;

	mov	edx, 4
	imul	eax, edx, 0
	mov	ecx, DWORD PTR _u$[ebp]
	mov	edx, DWORD PTR [ecx+eax]
	xor	edx, DWORD PTR _v$[ebp]
	mov	eax, 4
	imul	ecx, eax, 0
	mov	eax, DWORD PTR _w$[ebp]
	mov	DWORD PTR [eax+ecx], edx

; 46   :         _COPY_MEMORY_UNIT(w + 1, u + 1, u_count - 1);

	mov	ecx, DWORD PTR _u_count$[ebp]
	sub	ecx, 1
	push	ecx
	mov	edx, DWORD PTR _u$[ebp]
	add	edx, 4
	push	edx
	mov	eax, DWORD PTR _w$[ebp]
	add	eax, 4
	push	eax
	call	__COPY_MEMORY_UNIT
	add	esp, 12					; 0000000cH
$LN1@ExclusiveO:

; 47   :     }
; 48   : }

	cmp	ebp, esp
	call	__RTC_CheckEsp
	pop	ebp
	ret	0
_ExclusiveOr_X_1W ENDP
_TEXT	ENDS
; Function compile flags: /Odtp /RTCsu
; File z:\sources\lunor\repos\rougemeilland\palmtree.math.core.uint\palmtree.math.core.uint\pmc_inline_func.h
_TEXT	SEGMENT
_pos$ = -8						; size = 4
_x$ = 8							; size = 4
__LZCNT_ALT_UNIT PROC

; 629  :     {

	push	ebp
	mov	ebp, esp
	sub	esp, 12					; 0000000cH
	mov	DWORD PTR [ebp-12], -858993460		; ccccccccH
	mov	DWORD PTR [ebp-8], -858993460		; ccccccccH
	mov	DWORD PTR [ebp-4], -858993460		; ccccccccH
	mov	ecx, OFFSET __8CA3E54E_pmc_inline_func@h
	call	@__CheckForDebuggerJustMyCode@4

; 630  :         if (x == 0)

	cmp	DWORD PTR _x$[ebp], 0
	jne	SHORT $LN2@LZCNT_ALT_

; 631  :             return (sizeof(x) * 8);

	mov	eax, 32					; 00000020H
	jmp	SHORT $LN1@LZCNT_ALT_
$LN2@LZCNT_ALT_:

; 632  : #ifdef _M_IX86
; 633  :         _UINT32_T pos;
; 634  : #ifdef _MSC_VER
; 635  :         _BitScanReverse(&pos, x);

	bsr	eax, DWORD PTR _x$[ebp]
	mov	DWORD PTR _pos$[ebp], eax

; 636  : #elif defined(__GNUC__)
; 637  :         __asm__("bsrl %1, %0" : "=r"(pos) : "rm"(x));
; 638  : #else
; 639  : #error unknown compiler
; 640  : #endif
; 641  : #elif defined(_M_X64)
; 642  : #ifdef _MSC_VER
; 643  :         _UINT32_T pos;
; 644  :         _BitScanReverse64(&pos, x);
; 645  : #elif defined(__GNUC__)
; 646  :         _UINT64_T pos;
; 647  :         __asm__("bsrq %1, %0" : "=r"(pos) : "rm"(x));
; 648  : #else
; 649  : #error unknown compiler
; 650  : #endif
; 651  : #else
; 652  : #error unknown platform
; 653  : #endif
; 654  :         return (sizeof(x) * 8 - 1 - pos);

	mov	eax, 31					; 0000001fH
	sub	eax, DWORD PTR _pos$[ebp]
$LN1@LZCNT_ALT_:

; 655  :     }

	push	edx
	mov	ecx, ebp
	push	eax
	lea	edx, DWORD PTR $LN6@LZCNT_ALT_
	call	@_RTC_CheckStackVars@8
	pop	eax
	pop	edx
	add	esp, 12					; 0000000cH
	cmp	ebp, esp
	call	__RTC_CheckEsp
	mov	esp, ebp
	pop	ebp
	ret	0
$LN6@LZCNT_ALT_:
	DD	1
	DD	$LN5@LZCNT_ALT_
$LN5@LZCNT_ALT_:
	DD	-8					; fffffff8H
	DD	4
	DD	$LN4@LZCNT_ALT_
$LN4@LZCNT_ALT_:
	DB	112					; 00000070H
	DB	111					; 0000006fH
	DB	115					; 00000073H
	DB	0
__LZCNT_ALT_UNIT ENDP
_TEXT	ENDS
; Function compile flags: /Odtp /RTCsu
; File z:\sources\lunor\repos\rougemeilland\palmtree.math.core.uint\palmtree.math.core.uint\pmc_inline_func.h
_TEXT	SEGMENT
_pos$ = -8						; size = 4
_x$ = 8							; size = 4
__LZCNT_ALT_32 PROC

; 596  :     {

	push	ebp
	mov	ebp, esp
	sub	esp, 12					; 0000000cH
	mov	DWORD PTR [ebp-12], -858993460		; ccccccccH
	mov	DWORD PTR [ebp-8], -858993460		; ccccccccH
	mov	DWORD PTR [ebp-4], -858993460		; ccccccccH
	mov	ecx, OFFSET __8CA3E54E_pmc_inline_func@h
	call	@__CheckForDebuggerJustMyCode@4

; 597  :         if (x == 0)

	cmp	DWORD PTR _x$[ebp], 0
	jne	SHORT $LN2@LZCNT_ALT_

; 598  :             return (sizeof(x) * 8);

	mov	eax, 32					; 00000020H
	jmp	SHORT $LN1@LZCNT_ALT_
$LN2@LZCNT_ALT_:

; 599  :         _UINT32_T pos;
; 600  : #ifdef _MSC_VER
; 601  :         _BitScanReverse(&pos, x);

	bsr	eax, DWORD PTR _x$[ebp]
	mov	DWORD PTR _pos$[ebp], eax

; 602  : #elif defined(__GNUC__)
; 603  :         __asm__("bsrl %1, %0" : "=r"(pos) : "rm"(x));
; 604  : #else
; 605  : #error unknown compiler
; 606  : #endif
; 607  :         return (sizeof(x) * 8 - 1 - pos);

	mov	eax, 31					; 0000001fH
	sub	eax, DWORD PTR _pos$[ebp]
$LN1@LZCNT_ALT_:

; 608  :     }

	push	edx
	mov	ecx, ebp
	push	eax
	lea	edx, DWORD PTR $LN6@LZCNT_ALT_
	call	@_RTC_CheckStackVars@8
	pop	eax
	pop	edx
	add	esp, 12					; 0000000cH
	cmp	ebp, esp
	call	__RTC_CheckEsp
	mov	esp, ebp
	pop	ebp
	ret	0
$LN6@LZCNT_ALT_:
	DD	1
	DD	$LN5@LZCNT_ALT_
$LN5@LZCNT_ALT_:
	DD	-8					; fffffff8H
	DD	4
	DD	$LN4@LZCNT_ALT_
$LN4@LZCNT_ALT_:
	DB	112					; 00000070H
	DB	111					; 0000006fH
	DB	115					; 00000073H
	DB	0
__LZCNT_ALT_32 ENDP
_TEXT	ENDS
; Function compile flags: /Odtp /RTCsu
; File z:\sources\lunor\repos\rougemeilland\palmtree.math.core.uint\palmtree.math.core.uint\pmc_inline_func.h
_TEXT	SEGMENT
tv65 = -4						; size = 4
_x$ = 8							; size = 4
_y$ = 12						; size = 4
__MAXIMUM_UNIT PROC

; 203  :     {

	push	ebp
	mov	ebp, esp
	push	ecx
	mov	DWORD PTR [ebp-4], -858993460		; ccccccccH
	mov	ecx, OFFSET __8CA3E54E_pmc_inline_func@h
	call	@__CheckForDebuggerJustMyCode@4

; 204  :         return (x >= y ? x : y);

	mov	eax, DWORD PTR _x$[ebp]
	cmp	eax, DWORD PTR _y$[ebp]
	jb	SHORT $LN3@MAXIMUM_UN
	mov	ecx, DWORD PTR _x$[ebp]
	mov	DWORD PTR tv65[ebp], ecx
	jmp	SHORT $LN4@MAXIMUM_UN
$LN3@MAXIMUM_UN:
	mov	edx, DWORD PTR _y$[ebp]
	mov	DWORD PTR tv65[ebp], edx
$LN4@MAXIMUM_UN:
	mov	eax, DWORD PTR tv65[ebp]

; 205  :     }

	add	esp, 4
	cmp	ebp, esp
	call	__RTC_CheckEsp
	mov	esp, ebp
	pop	ebp
	ret	0
__MAXIMUM_UNIT ENDP
_TEXT	ENDS
; Function compile flags: /Odtp /RTCsu
; File z:\sources\lunor\repos\rougemeilland\palmtree.math.core.uint\palmtree.math.core.uint\pmc_inline_func.h
_TEXT	SEGMENT
_value$ = 8						; size = 8
_result_high$ = 16					; size = 4
__FROMDWORDTOWORD PROC

; 182  :     {

	push	ebp
	mov	ebp, esp
	mov	ecx, OFFSET __8CA3E54E_pmc_inline_func@h
	call	@__CheckForDebuggerJustMyCode@4

; 183  :         *result_high = (_UINT32_T)(value >> 32);

	mov	eax, DWORD PTR _value$[ebp]
	mov	edx, DWORD PTR _value$[ebp+4]
	mov	cl, 32					; 00000020H
	call	__aullshr
	mov	ecx, DWORD PTR _result_high$[ebp]
	mov	DWORD PTR [ecx], eax

; 184  :         return ((_UINT32_T)value);

	mov	eax, DWORD PTR _value$[ebp]

; 185  :     }

	cmp	ebp, esp
	call	__RTC_CheckEsp
	pop	ebp
	ret	0
__FROMDWORDTOWORD ENDP
_TEXT	ENDS
; Function compile flags: /Odtp /RTCsu
; File z:\sources\lunor\repos\rougemeilland\palmtree.math.core.uint\palmtree.math.core.uint\pmc_inline_func.h
_TEXT	SEGMENT
_d$ = 8							; size = 4
_s$ = 12						; size = 4
_count$ = 16						; size = 4
__COPY_MEMORY_UNIT PROC

; 66   :     {

	push	ebp
	mov	ebp, esp
	push	esi
	push	edi
	mov	ecx, OFFSET __8CA3E54E_pmc_inline_func@h
	call	@__CheckForDebuggerJustMyCode@4

; 67   : #ifdef _M_IX86
; 68   :         __movsd((unsigned long *)d, (unsigned long *)s, (unsigned long)count);

	mov	edi, DWORD PTR _d$[ebp]
	mov	esi, DWORD PTR _s$[ebp]
	mov	ecx, DWORD PTR _count$[ebp]
	rep movsd

; 69   : #elif defined(_M_X64)
; 70   :         __movsq(d, s, count);
; 71   : #else
; 72   : #error unknown platform
; 73   : #endif
; 74   :     }

	pop	edi
	pop	esi
	cmp	ebp, esp
	call	__RTC_CheckEsp
	pop	ebp
	ret	0
__COPY_MEMORY_UNIT ENDP
_TEXT	ENDS
; Function compile flags: /Odtp /RTCsu
; File z:\sources\lunor\repos\rougemeilland\palmtree.math.core.uint\palmtree.math.core.uint\pmc_exclusiveor.c
_TEXT	SEGMENT
_nw_light_check_code$1 = -48				; size = 4
_w_bit_count$2 = -40					; size = 4
_v_bit_count$3 = -36					; size = 4
_u_bit_count$4 = -32					; size = 4
_t$5 = -28						; size = 4
_nw$ = -20						; size = 4
_result$ = -12						; size = 4
_nv$ = -8						; size = 4
_nu$ = -4						; size = 4
_u$ = 8							; size = 4
_v$ = 12						; size = 4
_w$ = 16						; size = 4
_PMC_ExclusiveOr_X_X@12 PROC

; 412  : {

	push	ebp
	mov	ebp, esp
	sub	esp, 52					; 00000034H
	push	edi
	lea	edi, DWORD PTR [ebp-52]
	mov	ecx, 13					; 0000000dH
	mov	eax, -858993460				; ccccccccH
	rep stosd
	mov	ecx, OFFSET __8EA3BDF0_pmc_exclusiveor@c
	call	@__CheckForDebuggerJustMyCode@4

; 413  :     if (u == NULL)

	cmp	DWORD PTR _u$[ebp], 0
	jne	SHORT $LN2@PMC_Exclus

; 414  :         return (PMC_STATUS_ARGUMENT_ERROR);

	or	eax, -1
	jmp	$LN1@PMC_Exclus
$LN2@PMC_Exclus:

; 415  :     if (v == NULL)

	cmp	DWORD PTR _v$[ebp], 0
	jne	SHORT $LN3@PMC_Exclus

; 416  :         return (PMC_STATUS_ARGUMENT_ERROR);

	or	eax, -1
	jmp	$LN1@PMC_Exclus
$LN3@PMC_Exclus:

; 417  :     if (w == NULL)

	cmp	DWORD PTR _w$[ebp], 0
	jne	SHORT $LN4@PMC_Exclus

; 418  :         return (PMC_STATUS_ARGUMENT_ERROR);

	or	eax, -1
	jmp	$LN1@PMC_Exclus
$LN4@PMC_Exclus:

; 419  :     NUMBER_HEADER* nu = (NUMBER_HEADER*)u;

	mov	eax, DWORD PTR _u$[ebp]
	mov	DWORD PTR _nu$[ebp], eax

; 420  :     NUMBER_HEADER* nv = (NUMBER_HEADER*)v;

	mov	ecx, DWORD PTR _v$[ebp]
	mov	DWORD PTR _nv$[ebp], ecx

; 421  :     PMC_STATUS_CODE result;
; 422  :     if ((result = CheckNumber(nu)) != PMC_STATUS_OK)

	mov	edx, DWORD PTR _nu$[ebp]
	push	edx
	call	_CheckNumber
	add	esp, 4
	mov	DWORD PTR _result$[ebp], eax
	cmp	DWORD PTR _result$[ebp], 0
	je	SHORT $LN5@PMC_Exclus

; 423  :         return (result);

	mov	eax, DWORD PTR _result$[ebp]
	jmp	$LN1@PMC_Exclus
$LN5@PMC_Exclus:

; 424  :     if ((result = CheckNumber(nv)) != PMC_STATUS_OK)

	mov	eax, DWORD PTR _nv$[ebp]
	push	eax
	call	_CheckNumber
	add	esp, 4
	mov	DWORD PTR _result$[ebp], eax
	cmp	DWORD PTR _result$[ebp], 0
	je	SHORT $LN6@PMC_Exclus

; 425  :         return (result);

	mov	eax, DWORD PTR _result$[ebp]
	jmp	$LN1@PMC_Exclus
$LN6@PMC_Exclus:

; 426  :     NUMBER_HEADER* nw;
; 427  :     if (nu->IS_ZERO)

	mov	ecx, DWORD PTR _nu$[ebp]
	mov	edx, DWORD PTR [ecx+24]
	shr	edx, 1
	and	edx, 1
	je	SHORT $LN7@PMC_Exclus

; 428  :     {
; 429  :         if ((result = DuplicateNumber(nv, &nw)) != PMC_STATUS_OK)

	lea	eax, DWORD PTR _nw$[ebp]
	push	eax
	mov	ecx, DWORD PTR _nv$[ebp]
	push	ecx
	call	_DuplicateNumber
	add	esp, 8
	mov	DWORD PTR _result$[ebp], eax
	cmp	DWORD PTR _result$[ebp], 0
	je	SHORT $LN9@PMC_Exclus

; 430  :             return (result);

	mov	eax, DWORD PTR _result$[ebp]
	jmp	$LN1@PMC_Exclus
$LN9@PMC_Exclus:

; 431  :     }

	jmp	$LN8@PMC_Exclus
$LN7@PMC_Exclus:

; 432  :     else if (nv->IS_ZERO)

	mov	edx, DWORD PTR _nv$[ebp]
	mov	eax, DWORD PTR [edx+24]
	shr	eax, 1
	and	eax, 1
	je	SHORT $LN10@PMC_Exclus

; 433  :     {
; 434  :         if ((result = DuplicateNumber(nu, &nw)) != PMC_STATUS_OK)

	lea	ecx, DWORD PTR _nw$[ebp]
	push	ecx
	mov	edx, DWORD PTR _nu$[ebp]
	push	edx
	call	_DuplicateNumber
	add	esp, 8
	mov	DWORD PTR _result$[ebp], eax
	cmp	DWORD PTR _result$[ebp], 0
	je	SHORT $LN12@PMC_Exclus

; 435  :             return (result);

	mov	eax, DWORD PTR _result$[ebp]
	jmp	$LN1@PMC_Exclus
$LN12@PMC_Exclus:

; 436  :     }

	jmp	$LN8@PMC_Exclus
$LN10@PMC_Exclus:

; 437  :     else
; 438  :     {
; 439  :         if (nu->UNIT_WORD_COUNT < nv->UNIT_WORD_COUNT)

	mov	eax, DWORD PTR _nu$[ebp]
	mov	ecx, DWORD PTR _nv$[ebp]
	mov	edx, DWORD PTR [eax+8]
	cmp	edx, DWORD PTR [ecx+8]
	jae	SHORT $LN13@PMC_Exclus

; 440  :         {
; 441  :             NUMBER_HEADER* t = nu;

	mov	eax, DWORD PTR _nu$[ebp]
	mov	DWORD PTR _t$5[ebp], eax

; 442  :             nu = nv;

	mov	ecx, DWORD PTR _nv$[ebp]
	mov	DWORD PTR _nu$[ebp], ecx

; 443  :             nv = t;

	mov	edx, DWORD PTR _t$5[ebp]
	mov	DWORD PTR _nv$[ebp], edx
$LN13@PMC_Exclus:

; 444  :         }
; 445  :         __UNIT_TYPE u_bit_count = nu->UNIT_BIT_COUNT;

	mov	eax, DWORD PTR _nu$[ebp]
	mov	ecx, DWORD PTR [eax+12]
	mov	DWORD PTR _u_bit_count$4[ebp], ecx

; 446  :         __UNIT_TYPE v_bit_count = nv->UNIT_BIT_COUNT;

	mov	edx, DWORD PTR _nv$[ebp]
	mov	eax, DWORD PTR [edx+12]
	mov	DWORD PTR _v_bit_count$3[ebp], eax

; 447  :         __UNIT_TYPE w_bit_count = _MAXIMUM_UNIT(u_bit_count, v_bit_count);

	mov	ecx, DWORD PTR _v_bit_count$3[ebp]
	push	ecx
	mov	edx, DWORD PTR _u_bit_count$4[ebp]
	push	edx
	call	__MAXIMUM_UNIT
	add	esp, 8
	mov	DWORD PTR _w_bit_count$2[ebp], eax

; 448  :         __UNIT_TYPE nw_light_check_code;
; 449  :         if ((result = AllocateNumber(&nw, w_bit_count, &nw_light_check_code)) != PMC_STATUS_OK)

	lea	eax, DWORD PTR _nw_light_check_code$1[ebp]
	push	eax
	mov	ecx, DWORD PTR _w_bit_count$2[ebp]
	push	ecx
	lea	edx, DWORD PTR _nw$[ebp]
	push	edx
	call	_AllocateNumber
	add	esp, 12					; 0000000cH
	mov	DWORD PTR _result$[ebp], eax
	cmp	DWORD PTR _result$[ebp], 0
	je	SHORT $LN14@PMC_Exclus

; 450  :             return (result);

	mov	eax, DWORD PTR _result$[ebp]
	jmp	$LN1@PMC_Exclus
$LN14@PMC_Exclus:

; 451  :         ExclusiveOr_X_X(nu->BLOCK, nu->UNIT_WORD_COUNT, nv->BLOCK, nv->UNIT_WORD_COUNT, nw->BLOCK);

	mov	eax, DWORD PTR _nw$[ebp]
	mov	ecx, DWORD PTR [eax+32]
	push	ecx
	mov	edx, DWORD PTR _nv$[ebp]
	mov	eax, DWORD PTR [edx+8]
	push	eax
	mov	ecx, DWORD PTR _nv$[ebp]
	mov	edx, DWORD PTR [ecx+32]
	push	edx
	mov	eax, DWORD PTR _nu$[ebp]
	mov	ecx, DWORD PTR [eax+8]
	push	ecx
	mov	edx, DWORD PTR _nu$[ebp]
	mov	eax, DWORD PTR [edx+32]
	push	eax
	call	_ExclusiveOr_X_X
	add	esp, 20					; 00000014H

; 452  :         if ((result = CheckBlockLight(nw->BLOCK, nw_light_check_code)) != PMC_STATUS_OK)

	mov	ecx, DWORD PTR _nw_light_check_code$1[ebp]
	push	ecx
	mov	edx, DWORD PTR _nw$[ebp]
	mov	eax, DWORD PTR [edx+32]
	push	eax
	call	_CheckBlockLight
	add	esp, 8
	mov	DWORD PTR _result$[ebp], eax
	cmp	DWORD PTR _result$[ebp], 0
	je	SHORT $LN15@PMC_Exclus

; 453  :             return (result);

	mov	eax, DWORD PTR _result$[ebp]
	jmp	SHORT $LN1@PMC_Exclus
$LN15@PMC_Exclus:

; 454  :         CommitNumber(nw);

	mov	ecx, DWORD PTR _nw$[ebp]
	push	ecx
	call	_CommitNumber
	add	esp, 4

; 455  :         if (nw->IS_ZERO)

	mov	edx, DWORD PTR _nw$[ebp]
	mov	eax, DWORD PTR [edx+24]
	shr	eax, 1
	and	eax, 1
	je	SHORT $LN8@PMC_Exclus

; 456  :         {
; 457  :             DeallocateNumber(nw);

	mov	ecx, DWORD PTR _nw$[ebp]
	push	ecx
	call	_DeallocateNumber
	add	esp, 4

; 458  :             nw = &number_zero;

	mov	DWORD PTR _nw$[ebp], OFFSET _number_zero
$LN8@PMC_Exclus:

; 459  :         }
; 460  :     }
; 461  :     *w = nw;

	mov	edx, DWORD PTR _w$[ebp]
	mov	eax, DWORD PTR _nw$[ebp]
	mov	DWORD PTR [edx], eax

; 462  : #ifdef _DEBUG
; 463  :     if ((result = CheckNumber(*w)) != PMC_STATUS_OK)

	mov	ecx, DWORD PTR _w$[ebp]
	mov	edx, DWORD PTR [ecx]
	push	edx
	call	_CheckNumber
	add	esp, 4
	mov	DWORD PTR _result$[ebp], eax
	cmp	DWORD PTR _result$[ebp], 0
	je	SHORT $LN17@PMC_Exclus

; 464  :         return (result);

	mov	eax, DWORD PTR _result$[ebp]
	jmp	SHORT $LN1@PMC_Exclus
$LN17@PMC_Exclus:

; 465  : #endif
; 466  :     return (PMC_STATUS_OK);

	xor	eax, eax
$LN1@PMC_Exclus:

; 467  : }

	push	edx
	mov	ecx, ebp
	push	eax
	lea	edx, DWORD PTR $LN22@PMC_Exclus
	call	@_RTC_CheckStackVars@8
	pop	eax
	pop	edx
	pop	edi
	add	esp, 52					; 00000034H
	cmp	ebp, esp
	call	__RTC_CheckEsp
	mov	esp, ebp
	pop	ebp
	ret	12					; 0000000cH
$LN22@PMC_Exclus:
	DD	2
	DD	$LN21@PMC_Exclus
$LN21@PMC_Exclus:
	DD	-20					; ffffffecH
	DD	4
	DD	$LN19@PMC_Exclus
	DD	-48					; ffffffd0H
	DD	4
	DD	$LN20@PMC_Exclus
$LN20@PMC_Exclus:
	DB	110					; 0000006eH
	DB	119					; 00000077H
	DB	95					; 0000005fH
	DB	108					; 0000006cH
	DB	105					; 00000069H
	DB	103					; 00000067H
	DB	104					; 00000068H
	DB	116					; 00000074H
	DB	95					; 0000005fH
	DB	99					; 00000063H
	DB	104					; 00000068H
	DB	101					; 00000065H
	DB	99					; 00000063H
	DB	107					; 0000006bH
	DB	95					; 0000005fH
	DB	99					; 00000063H
	DB	111					; 0000006fH
	DB	100					; 00000064H
	DB	101					; 00000065H
	DB	0
$LN19@PMC_Exclus:
	DB	110					; 0000006eH
	DB	119					; 00000077H
	DB	0
_PMC_ExclusiveOr_X_X@12 ENDP
_TEXT	ENDS
; Function compile flags: /Odtp /RTCsu
; File z:\sources\lunor\repos\rougemeilland\palmtree.math.core.uint\palmtree.math.core.uint\pmc_exclusiveor.c
_TEXT	SEGMENT
_result$ = -8						; size = 4
_nu$ = -4						; size = 4
_u$ = 8							; size = 4
_v$ = 12						; size = 8
_w$ = 20						; size = 4
_PMC_ExclusiveOr_X_L@16 PROC

; 388  : {

	push	ebp
	mov	ebp, esp
	sub	esp, 8
	mov	DWORD PTR [ebp-8], -858993460		; ccccccccH
	mov	DWORD PTR [ebp-4], -858993460		; ccccccccH
	mov	ecx, OFFSET __8EA3BDF0_pmc_exclusiveor@c
	call	@__CheckForDebuggerJustMyCode@4

; 389  :     if (__UNIT_TYPE_BIT_COUNT * 2 < sizeof(v) * 8)

	xor	eax, eax
	je	SHORT $LN2@PMC_Exclus

; 390  :     {
; 391  :         // _UINT64_T が 2 ワードで表現しきれない処理系には対応しない
; 392  :         return (PMC_STATUS_INTERNAL_ERROR);

	mov	eax, -256				; ffffff00H
	jmp	SHORT $LN1@PMC_Exclus
$LN2@PMC_Exclus:

; 393  :     }
; 394  :     if (u == NULL)

	cmp	DWORD PTR _u$[ebp], 0
	jne	SHORT $LN3@PMC_Exclus

; 395  :         return (PMC_STATUS_ARGUMENT_ERROR);

	or	eax, -1
	jmp	SHORT $LN1@PMC_Exclus
$LN3@PMC_Exclus:

; 396  :     if (w == NULL)

	cmp	DWORD PTR _w$[ebp], 0
	jne	SHORT $LN4@PMC_Exclus

; 397  :         return (PMC_STATUS_ARGUMENT_ERROR);

	or	eax, -1
	jmp	SHORT $LN1@PMC_Exclus
$LN4@PMC_Exclus:

; 398  :     NUMBER_HEADER* nu = (NUMBER_HEADER*)u;

	mov	ecx, DWORD PTR _u$[ebp]
	mov	DWORD PTR _nu$[ebp], ecx

; 399  :     PMC_STATUS_CODE result;
; 400  :     if ((result = CheckNumber(nu)) != PMC_STATUS_OK)

	mov	edx, DWORD PTR _nu$[ebp]
	push	edx
	call	_CheckNumber
	add	esp, 4
	mov	DWORD PTR _result$[ebp], eax
	cmp	DWORD PTR _result$[ebp], 0
	je	SHORT $LN5@PMC_Exclus

; 401  :         return (result);

	mov	eax, DWORD PTR _result$[ebp]
	jmp	SHORT $LN1@PMC_Exclus
$LN5@PMC_Exclus:

; 402  :     if ((result = PMC_ExclusiveOr_X_L_Imp((NUMBER_HEADER*)u, v, (NUMBER_HEADER**)w)) != PMC_STATUS_OK)

	mov	eax, DWORD PTR _w$[ebp]
	push	eax
	mov	ecx, DWORD PTR _v$[ebp+4]
	push	ecx
	mov	edx, DWORD PTR _v$[ebp]
	push	edx
	mov	eax, DWORD PTR _u$[ebp]
	push	eax
	call	_PMC_ExclusiveOr_X_L_Imp
	add	esp, 16					; 00000010H
	mov	DWORD PTR _result$[ebp], eax
	cmp	DWORD PTR _result$[ebp], 0
	je	SHORT $LN6@PMC_Exclus

; 403  :         return (result);

	mov	eax, DWORD PTR _result$[ebp]
	jmp	SHORT $LN1@PMC_Exclus
$LN6@PMC_Exclus:

; 404  : #ifdef _DEBUG
; 405  :     if ((result = CheckNumber(*w)) != PMC_STATUS_OK)

	mov	ecx, DWORD PTR _w$[ebp]
	mov	edx, DWORD PTR [ecx]
	push	edx
	call	_CheckNumber
	add	esp, 4
	mov	DWORD PTR _result$[ebp], eax
	cmp	DWORD PTR _result$[ebp], 0
	je	SHORT $LN7@PMC_Exclus

; 406  :         return (result);

	mov	eax, DWORD PTR _result$[ebp]
	jmp	SHORT $LN1@PMC_Exclus
$LN7@PMC_Exclus:

; 407  : #endif
; 408  :     return (PMC_STATUS_OK);

	xor	eax, eax
$LN1@PMC_Exclus:

; 409  : }

	add	esp, 8
	cmp	ebp, esp
	call	__RTC_CheckEsp
	mov	esp, ebp
	pop	ebp
	ret	16					; 00000010H
_PMC_ExclusiveOr_X_L@16 ENDP
_TEXT	ENDS
; Function compile flags: /Odtp /RTCsu
; File z:\sources\lunor\repos\rougemeilland\palmtree.math.core.uint\palmtree.math.core.uint\pmc_exclusiveor.c
_TEXT	SEGMENT
_result$ = -8						; size = 4
_nu$ = -4						; size = 4
_u$ = 8							; size = 4
_v$ = 12						; size = 4
_w$ = 16						; size = 4
_PMC_ExclusiveOr_X_I@12 PROC

; 258  : {

	push	ebp
	mov	ebp, esp
	sub	esp, 8
	mov	DWORD PTR [ebp-8], -858993460		; ccccccccH
	mov	DWORD PTR [ebp-4], -858993460		; ccccccccH
	mov	ecx, OFFSET __8EA3BDF0_pmc_exclusiveor@c
	call	@__CheckForDebuggerJustMyCode@4

; 259  :     if (__UNIT_TYPE_BIT_COUNT < sizeof(v) * 8)

	xor	eax, eax
	je	SHORT $LN2@PMC_Exclus

; 260  :     {
; 261  :         // _UINT32_T が 1 ワードで表現しきれない処理系には対応しない
; 262  :         return (PMC_STATUS_INTERNAL_ERROR);

	mov	eax, -256				; ffffff00H
	jmp	SHORT $LN1@PMC_Exclus
$LN2@PMC_Exclus:

; 263  :     }
; 264  :     if (u == NULL)

	cmp	DWORD PTR _u$[ebp], 0
	jne	SHORT $LN3@PMC_Exclus

; 265  :         return (PMC_STATUS_ARGUMENT_ERROR);

	or	eax, -1
	jmp	SHORT $LN1@PMC_Exclus
$LN3@PMC_Exclus:

; 266  :     if (w == NULL)

	cmp	DWORD PTR _w$[ebp], 0
	jne	SHORT $LN4@PMC_Exclus

; 267  :         return (PMC_STATUS_ARGUMENT_ERROR);

	or	eax, -1
	jmp	SHORT $LN1@PMC_Exclus
$LN4@PMC_Exclus:

; 268  :     NUMBER_HEADER* nu = (NUMBER_HEADER*)u;

	mov	ecx, DWORD PTR _u$[ebp]
	mov	DWORD PTR _nu$[ebp], ecx

; 269  :     PMC_STATUS_CODE result;
; 270  :     if ((result = CheckNumber(nu)) != PMC_STATUS_OK)

	mov	edx, DWORD PTR _nu$[ebp]
	push	edx
	call	_CheckNumber
	add	esp, 4
	mov	DWORD PTR _result$[ebp], eax
	cmp	DWORD PTR _result$[ebp], 0
	je	SHORT $LN5@PMC_Exclus

; 271  :         return (result);

	mov	eax, DWORD PTR _result$[ebp]
	jmp	SHORT $LN1@PMC_Exclus
$LN5@PMC_Exclus:

; 272  :     if ((result = PMC_ExclusiveOr_X_I_Imp((NUMBER_HEADER*)u, v, (NUMBER_HEADER**)w)) != PMC_STATUS_OK)

	mov	eax, DWORD PTR _w$[ebp]
	push	eax
	mov	ecx, DWORD PTR _v$[ebp]
	push	ecx
	mov	edx, DWORD PTR _u$[ebp]
	push	edx
	call	_PMC_ExclusiveOr_X_I_Imp
	add	esp, 12					; 0000000cH
	mov	DWORD PTR _result$[ebp], eax
	cmp	DWORD PTR _result$[ebp], 0
	je	SHORT $LN6@PMC_Exclus

; 273  :         return (result);

	mov	eax, DWORD PTR _result$[ebp]
	jmp	SHORT $LN1@PMC_Exclus
$LN6@PMC_Exclus:

; 274  : #ifdef _DEBUG
; 275  :     if ((result = CheckNumber(*w)) != PMC_STATUS_OK)

	mov	eax, DWORD PTR _w$[ebp]
	mov	ecx, DWORD PTR [eax]
	push	ecx
	call	_CheckNumber
	add	esp, 4
	mov	DWORD PTR _result$[ebp], eax
	cmp	DWORD PTR _result$[ebp], 0
	je	SHORT $LN7@PMC_Exclus

; 276  :         return (result);

	mov	eax, DWORD PTR _result$[ebp]
	jmp	SHORT $LN1@PMC_Exclus
$LN7@PMC_Exclus:

; 277  : #endif
; 278  :     return (PMC_STATUS_OK);

	xor	eax, eax
$LN1@PMC_Exclus:

; 279  : }

	add	esp, 8
	cmp	ebp, esp
	call	__RTC_CheckEsp
	mov	esp, ebp
	pop	ebp
	ret	12					; 0000000cH
_PMC_ExclusiveOr_X_I@12 ENDP
_TEXT	ENDS
; Function compile flags: /Odtp /RTCsu
; File z:\sources\lunor\repos\rougemeilland\palmtree.math.core.uint\palmtree.math.core.uint\pmc_exclusiveor.c
_TEXT	SEGMENT
_result$ = -8						; size = 4
_nu$ = -4						; size = 4
_u$ = 8							; size = 8
_v$ = 16						; size = 4
_w$ = 20						; size = 4
_PMC_ExclusiveOr_L_X@16 PROC

; 364  : {

	push	ebp
	mov	ebp, esp
	sub	esp, 8
	mov	DWORD PTR [ebp-8], -858993460		; ccccccccH
	mov	DWORD PTR [ebp-4], -858993460		; ccccccccH
	mov	ecx, OFFSET __8EA3BDF0_pmc_exclusiveor@c
	call	@__CheckForDebuggerJustMyCode@4

; 365  :     if (__UNIT_TYPE_BIT_COUNT * 2 < sizeof(u) * 8)

	xor	eax, eax
	je	SHORT $LN2@PMC_Exclus

; 366  :     {
; 367  :         // _UINT64_T が 2 ワードで表現しきれない処理系には対応しない
; 368  :         return (PMC_STATUS_INTERNAL_ERROR);

	mov	eax, -256				; ffffff00H
	jmp	SHORT $LN1@PMC_Exclus
$LN2@PMC_Exclus:

; 369  :     }
; 370  :     if (v == NULL)

	cmp	DWORD PTR _v$[ebp], 0
	jne	SHORT $LN3@PMC_Exclus

; 371  :         return (PMC_STATUS_ARGUMENT_ERROR);

	or	eax, -1
	jmp	SHORT $LN1@PMC_Exclus
$LN3@PMC_Exclus:

; 372  :     if (w == NULL)

	cmp	DWORD PTR _w$[ebp], 0
	jne	SHORT $LN4@PMC_Exclus

; 373  :         return (PMC_STATUS_ARGUMENT_ERROR);

	or	eax, -1
	jmp	SHORT $LN1@PMC_Exclus
$LN4@PMC_Exclus:

; 374  :     NUMBER_HEADER* nu = (NUMBER_HEADER*)v;

	mov	ecx, DWORD PTR _v$[ebp]
	mov	DWORD PTR _nu$[ebp], ecx

; 375  :     PMC_STATUS_CODE result;
; 376  :     if ((result = CheckNumber(nu)) != PMC_STATUS_OK)

	mov	edx, DWORD PTR _nu$[ebp]
	push	edx
	call	_CheckNumber
	add	esp, 4
	mov	DWORD PTR _result$[ebp], eax
	cmp	DWORD PTR _result$[ebp], 0
	je	SHORT $LN5@PMC_Exclus

; 377  :         return (result);

	mov	eax, DWORD PTR _result$[ebp]
	jmp	SHORT $LN1@PMC_Exclus
$LN5@PMC_Exclus:

; 378  :     if ((result = PMC_ExclusiveOr_X_L_Imp((NUMBER_HEADER*)v, u, (NUMBER_HEADER**)w)) != PMC_STATUS_OK)

	mov	eax, DWORD PTR _w$[ebp]
	push	eax
	mov	ecx, DWORD PTR _u$[ebp+4]
	push	ecx
	mov	edx, DWORD PTR _u$[ebp]
	push	edx
	mov	eax, DWORD PTR _v$[ebp]
	push	eax
	call	_PMC_ExclusiveOr_X_L_Imp
	add	esp, 16					; 00000010H
	mov	DWORD PTR _result$[ebp], eax
	cmp	DWORD PTR _result$[ebp], 0
	je	SHORT $LN6@PMC_Exclus

; 379  :         return (result);

	mov	eax, DWORD PTR _result$[ebp]
	jmp	SHORT $LN1@PMC_Exclus
$LN6@PMC_Exclus:

; 380  : #ifdef _DEBUG
; 381  :     if ((result = CheckNumber(*w)) != PMC_STATUS_OK)

	mov	ecx, DWORD PTR _w$[ebp]
	mov	edx, DWORD PTR [ecx]
	push	edx
	call	_CheckNumber
	add	esp, 4
	mov	DWORD PTR _result$[ebp], eax
	cmp	DWORD PTR _result$[ebp], 0
	je	SHORT $LN7@PMC_Exclus

; 382  :         return (result);

	mov	eax, DWORD PTR _result$[ebp]
	jmp	SHORT $LN1@PMC_Exclus
$LN7@PMC_Exclus:

; 383  : #endif
; 384  :     return (PMC_STATUS_OK);

	xor	eax, eax
$LN1@PMC_Exclus:

; 385  : }

	add	esp, 8
	cmp	ebp, esp
	call	__RTC_CheckEsp
	mov	esp, ebp
	pop	ebp
	ret	16					; 00000010H
_PMC_ExclusiveOr_L_X@16 ENDP
_TEXT	ENDS
; Function compile flags: /Odtp /RTCsu
; File z:\sources\lunor\repos\rougemeilland\palmtree.math.core.uint\palmtree.math.core.uint\pmc_exclusiveor.c
_TEXT	SEGMENT
_result$ = -8						; size = 4
_nu$ = -4						; size = 4
_u$ = 8							; size = 4
_v$ = 12						; size = 4
_w$ = 16						; size = 4
_PMC_ExclusiveOr_I_X@12 PROC

; 234  : {

	push	ebp
	mov	ebp, esp
	sub	esp, 8
	mov	DWORD PTR [ebp-8], -858993460		; ccccccccH
	mov	DWORD PTR [ebp-4], -858993460		; ccccccccH
	mov	ecx, OFFSET __8EA3BDF0_pmc_exclusiveor@c
	call	@__CheckForDebuggerJustMyCode@4

; 235  :     if (__UNIT_TYPE_BIT_COUNT < sizeof(u) * 8)

	xor	eax, eax
	je	SHORT $LN2@PMC_Exclus

; 236  :     {
; 237  :         // _UINT32_T が 1 ワードで表現しきれない処理系には対応しない
; 238  :         return (PMC_STATUS_INTERNAL_ERROR);

	mov	eax, -256				; ffffff00H
	jmp	SHORT $LN1@PMC_Exclus
$LN2@PMC_Exclus:

; 239  :     }
; 240  :     if (v == NULL)

	cmp	DWORD PTR _v$[ebp], 0
	jne	SHORT $LN3@PMC_Exclus

; 241  :         return (PMC_STATUS_ARGUMENT_ERROR);

	or	eax, -1
	jmp	SHORT $LN1@PMC_Exclus
$LN3@PMC_Exclus:

; 242  :     if (w == NULL)

	cmp	DWORD PTR _w$[ebp], 0
	jne	SHORT $LN4@PMC_Exclus

; 243  :         return (PMC_STATUS_ARGUMENT_ERROR);

	or	eax, -1
	jmp	SHORT $LN1@PMC_Exclus
$LN4@PMC_Exclus:

; 244  :     NUMBER_HEADER* nu = (NUMBER_HEADER*)v;

	mov	ecx, DWORD PTR _v$[ebp]
	mov	DWORD PTR _nu$[ebp], ecx

; 245  :     PMC_STATUS_CODE result;
; 246  :     if ((result = CheckNumber(nu)) != PMC_STATUS_OK)

	mov	edx, DWORD PTR _nu$[ebp]
	push	edx
	call	_CheckNumber
	add	esp, 4
	mov	DWORD PTR _result$[ebp], eax
	cmp	DWORD PTR _result$[ebp], 0
	je	SHORT $LN5@PMC_Exclus

; 247  :         return (result);

	mov	eax, DWORD PTR _result$[ebp]
	jmp	SHORT $LN1@PMC_Exclus
$LN5@PMC_Exclus:

; 248  :     if ((result = PMC_ExclusiveOr_X_I_Imp((NUMBER_HEADER*)v, u, (NUMBER_HEADER**)w)) != PMC_STATUS_OK)

	mov	eax, DWORD PTR _w$[ebp]
	push	eax
	mov	ecx, DWORD PTR _u$[ebp]
	push	ecx
	mov	edx, DWORD PTR _v$[ebp]
	push	edx
	call	_PMC_ExclusiveOr_X_I_Imp
	add	esp, 12					; 0000000cH
	mov	DWORD PTR _result$[ebp], eax
	cmp	DWORD PTR _result$[ebp], 0
	je	SHORT $LN6@PMC_Exclus

; 249  :         return (result);

	mov	eax, DWORD PTR _result$[ebp]
	jmp	SHORT $LN1@PMC_Exclus
$LN6@PMC_Exclus:

; 250  : #ifdef _DEBUG
; 251  :     if ((result = CheckNumber(*w)) != PMC_STATUS_OK)

	mov	eax, DWORD PTR _w$[ebp]
	mov	ecx, DWORD PTR [eax]
	push	ecx
	call	_CheckNumber
	add	esp, 4
	mov	DWORD PTR _result$[ebp], eax
	cmp	DWORD PTR _result$[ebp], 0
	je	SHORT $LN7@PMC_Exclus

; 252  :         return (result);

	mov	eax, DWORD PTR _result$[ebp]
	jmp	SHORT $LN1@PMC_Exclus
$LN7@PMC_Exclus:

; 253  : #endif
; 254  :     return (PMC_STATUS_OK);

	xor	eax, eax
$LN1@PMC_Exclus:

; 255  : }

	add	esp, 8
	cmp	ebp, esp
	call	__RTC_CheckEsp
	mov	esp, ebp
	pop	ebp
	ret	12					; 0000000cH
_PMC_ExclusiveOr_I_X@12 ENDP
_TEXT	ENDS
; Function compile flags: /Odtp /RTCsu
; File z:\sources\lunor\repos\rougemeilland\palmtree.math.core.uint\palmtree.math.core.uint\pmc_exclusiveor.c
_TEXT	SEGMENT
_feature$ = 8						; size = 4
_Initialize_ExclusiveOr PROC

; 470  : {

	push	ebp
	mov	ebp, esp
	mov	ecx, OFFSET __8EA3BDF0_pmc_exclusiveor@c
	call	@__CheckForDebuggerJustMyCode@4

; 471  :     return (PMC_STATUS_OK);

	xor	eax, eax

; 472  : }

	cmp	ebp, esp
	call	__RTC_CheckEsp
	pop	ebp
	ret	0
_Initialize_ExclusiveOr ENDP
_TEXT	ENDS
END
