; Listing generated by Microsoft (R) Optimizing Compiler Version 19.16.27026.1 

	TITLE	Z:\Sources\Lunor\Repos\rougemeilland\Palmtree.Math.Core.Uint\Palmtree.Math.Core.Uint\pmc_multiply.c
	.686P
	.XMM
	include listing.inc
	.model	flat

INCLUDELIB MSVCRTD
INCLUDELIB OLDNAMES

msvcjmc	SEGMENT
__7B7A869E_ctype@h DB 01H
__457DD326_basetsd@h DB 01H
__4384A2D9_corecrt_memcpy_s@h DB 01H
__4E51A221_corecrt_wstring@h DB 01H
__2140C079_string@h DB 01H
__1887E595_winnt@h DB 01H
__9FC7C64B_processthreadsapi@h DB 01H
__FA470AEC_memoryapi@h DB 01H
__F37DAFF1_winerror@h DB 01H
__7A450CCC_winbase@h DB 01H
__B4B40122_winioctl@h DB 01H
__86261D59_stralign@h DB 01H
__BB6D3116_pmc_uint_internal@h DB 01H
__8CA3E54E_pmc_inline_func@h DB 01H
__B6A081C3_pmc_multiply@c DB 01H
msvcjmc	ENDS
PUBLIC	_Multiply_X_X_Imp
PUBLIC	_Initialize_Multiply
PUBLIC	_PMC_Multiply_I_X@12
PUBLIC	_PMC_Multiply_L_X@16
PUBLIC	_PMC_Multiply_X_I@12
PUBLIC	_PMC_Multiply_X_L@16
PUBLIC	_PMC_Multiply_X_X@12
PUBLIC	__JustMyCode_Default
EXTRN	_CheckBlockLight:PROC
EXTRN	_AllocateNumber:PROC
EXTRN	_CommitNumber:PROC
EXTRN	_CheckNumber:PROC
EXTRN	_DuplicateNumber:PROC
EXTRN	_From_I_Imp:PROC
EXTRN	_From_L_Imp:PROC
EXTRN	@_RTC_CheckStackVars@8:PROC
EXTRN	@__CheckForDebuggerJustMyCode@4:PROC
EXTRN	__RTC_CheckEsp:PROC
EXTRN	__RTC_InitBase:PROC
EXTRN	__RTC_Shutdown:PROC
EXTRN	__aullshr:PROC
EXTRN	_number_zero:BYTE
EXTRN	_statistics_info:BYTE
_BSS	SEGMENT
_fp_Multiply_X_1W DD 01H DUP (?)
_fp_Multiply_X_2W DD 01H DUP (?)
_fp_Multiply_X_X DD 01H DUP (?)
_BSS	ENDS
;	COMDAT rtc$TMZ
rtc$TMZ	SEGMENT
__RTC_Shutdown.rtc$TMZ DD FLAT:__RTC_Shutdown
rtc$TMZ	ENDS
;	COMDAT rtc$IMZ
rtc$IMZ	SEGMENT
__RTC_InitBase.rtc$IMZ DD FLAT:__RTC_InitBase
rtc$IMZ	ENDS
; Function compile flags: /Odt
;	COMDAT __JustMyCode_Default
_TEXT	SEGMENT
__JustMyCode_Default PROC				; COMDAT
	push	ebp
	mov	ebp, esp
	pop	ebp
	ret	0
__JustMyCode_Default ENDP
_TEXT	ENDS
; Function compile flags: /Odtp /RTCsu
; File z:\sources\lunor\repos\rougemeilland\palmtree.math.core.uint\palmtree.math.core.uint\pmc_multiply.c
_TEXT	SEGMENT
_nz_light_check_code$1 = -84				; size = 4
_z_bit_count$2 = -76					; size = 4
_y_bit_count$3 = -72					; size = 4
_x_bit_count$4 = -68					; size = 4
_nz_light_check_code$5 = -60				; size = 4
_z_bit_count$6 = -52					; size = 4
_y_bit_count$7 = -48					; size = 4
_nz_light_check_code$8 = -40				; size = 4
_z_bit_count$9 = -32					; size = 4
_y_bit_count$10 = -28					; size = 4
_y_lo$11 = -24						; size = 4
_y_hi$12 = -16						; size = 4
_x_bit_count$13 = -8					; size = 4
_result$ = -4						; size = 4
_u$ = 8							; size = 4
_v$ = 12						; size = 8
_w$ = 20						; size = 4
_PMC_Multiply_X_L_Imp PROC

; 546  : {

	push	ebp
	mov	ebp, esp
	sub	esp, 88					; 00000058H
	push	esi
	push	edi
	lea	edi, DWORD PTR [ebp-88]
	mov	ecx, 22					; 00000016H
	mov	eax, -858993460				; ccccccccH
	rep stosd
	mov	ecx, OFFSET __B6A081C3_pmc_multiply@c
	call	@__CheckForDebuggerJustMyCode@4

; 547  :     PMC_STATUS_CODE result;
; 548  :     if (u->IS_ZERO)

	mov	eax, DWORD PTR _u$[ebp]
	mov	ecx, DWORD PTR [eax]
	and	ecx, 1
	je	SHORT $LN2@PMC_Multip

; 549  :     {
; 550  :         // x が 0 である場合
; 551  : 
; 552  :         // y の値にかかわらず 0 を返す。
; 553  :         *w = &number_zero;

	mov	edx, DWORD PTR _w$[ebp]
	mov	DWORD PTR [edx], OFFSET _number_zero

; 554  :     }

	jmp	$LN3@PMC_Multip
$LN2@PMC_Multip:

; 555  :     else if (u->IS_ONE)

	mov	eax, DWORD PTR _u$[ebp]
	mov	ecx, DWORD PTR [eax]
	shr	ecx, 1
	and	ecx, 1
	je	SHORT $LN4@PMC_Multip

; 556  :     {
; 557  :         // x が 1 である場合
; 558  :         if (v == 0)

	mov	edx, DWORD PTR _v$[ebp]
	or	edx, DWORD PTR _v$[ebp+4]
	jne	SHORT $LN6@PMC_Multip

; 559  :         {
; 560  :             // y が 0 である場合
; 561  : 
; 562  :             //  0  を返す。
; 563  :             *w = &number_zero;

	mov	eax, DWORD PTR _w$[ebp]
	mov	DWORD PTR [eax], OFFSET _number_zero

; 564  :         }

	jmp	SHORT $LN7@PMC_Multip
$LN6@PMC_Multip:

; 565  :         else
; 566  :         {
; 567  :             // y が 0 ではない場合
; 568  : 
; 569  :             // 乗算結果は y に等しいため、y の値を持つ NUMBER_HEADER 構造体を獲得し、呼び出し元へ返す。
; 570  :             if ((result = From_L_Imp(v, w)) != PMC_STATUS_OK)

	mov	ecx, DWORD PTR _w$[ebp]
	push	ecx
	mov	edx, DWORD PTR _v$[ebp+4]
	push	edx
	mov	eax, DWORD PTR _v$[ebp]
	push	eax
	call	_From_L_Imp
	add	esp, 12					; 0000000cH
	mov	DWORD PTR _result$[ebp], eax
	cmp	DWORD PTR _result$[ebp], 0
	je	SHORT $LN7@PMC_Multip

; 571  :                 return (result);

	mov	eax, DWORD PTR _result$[ebp]
	jmp	$LN1@PMC_Multip
$LN7@PMC_Multip:

; 572  :         }
; 573  :     }

	jmp	$LN3@PMC_Multip
$LN4@PMC_Multip:

; 574  :     else
; 575  :     {
; 576  :         // x が 0 と 1 のどちらでもない場合
; 577  : 
; 578  :         if (v == 0)

	mov	ecx, DWORD PTR _v$[ebp]
	or	ecx, DWORD PTR _v$[ebp+4]
	jne	SHORT $LN9@PMC_Multip

; 579  :         {
; 580  :             // y が 0 である場合
; 581  : 
; 582  :             //  0  を返す。
; 583  :             *w = &number_zero;

	mov	edx, DWORD PTR _w$[ebp]
	mov	DWORD PTR [edx], OFFSET _number_zero

; 584  :         }

	jmp	$LN3@PMC_Multip
$LN9@PMC_Multip:

; 585  :         else if (v == 1)

	cmp	DWORD PTR _v$[ebp], 1
	jne	SHORT $LN11@PMC_Multip
	cmp	DWORD PTR _v$[ebp+4], 0
	jne	SHORT $LN11@PMC_Multip

; 586  :         {
; 587  :             // y が 1 である場合
; 588  : 
; 589  :             // 乗算結果は x に等しいため、x の値を持つ NUMBER_HEADER 構造体を獲得し、呼び出し元へ返す。
; 590  :             if ((result = DuplicateNumber(u, w)) != PMC_STATUS_OK)

	mov	eax, DWORD PTR _w$[ebp]
	push	eax
	mov	ecx, DWORD PTR _u$[ebp]
	push	ecx
	call	_DuplicateNumber
	add	esp, 8
	mov	DWORD PTR _result$[ebp], eax
	cmp	DWORD PTR _result$[ebp], 0
	je	SHORT $LN13@PMC_Multip

; 591  :                 return (result);

	mov	eax, DWORD PTR _result$[ebp]
	jmp	$LN1@PMC_Multip
$LN13@PMC_Multip:

; 592  :         }

	jmp	$LN3@PMC_Multip
$LN11@PMC_Multip:

; 593  :         else
; 594  :         {
; 595  :             // x と y がともに 0 、1 のどちらでもない場合
; 596  : 
; 597  :             // x と y の積を計算する
; 598  :             if (__UNIT_TYPE_BIT_COUNT < sizeof(v) * 8)

	mov	edx, 1
	test	edx, edx
	je	$LN14@PMC_Multip

; 599  :             {
; 600  :                 // _UINT64_T が 1 ワードで表現しきれない場合
; 601  : 
; 602  :                 __UNIT_TYPE x_bit_count = u->UNIT_BIT_COUNT;

	mov	eax, DWORD PTR _u$[ebp]
	mov	ecx, DWORD PTR [eax+16]
	mov	DWORD PTR _x_bit_count$13[ebp], ecx

; 603  :                 _UINT32_T y_hi;
; 604  :                 _UINT32_T y_lo = _FROMDWORDTOWORD(v, &y_hi);

	lea	edx, DWORD PTR _y_hi$12[ebp]
	push	edx
	mov	eax, DWORD PTR _v$[ebp+4]
	push	eax
	mov	ecx, DWORD PTR _v$[ebp]
	push	ecx
	call	__FROMDWORDTOWORD
	add	esp, 12					; 0000000cH
	mov	DWORD PTR _y_lo$11[ebp], eax

; 605  :                 if (y_hi == 0)

	cmp	DWORD PTR _y_hi$12[ebp], 0
	jne	$LN16@PMC_Multip

; 606  :                 {
; 607  :                     // y の値が 32bit で表現可能な場合
; 608  :                     __UNIT_TYPE y_bit_count = sizeof(y_lo) * 8 - _LZCNT_ALT_32(y_lo);

	mov	edx, DWORD PTR _y_lo$11[ebp]
	push	edx
	call	__LZCNT_ALT_32
	add	esp, 4
	mov	ecx, 32					; 00000020H
	sub	ecx, eax
	mov	DWORD PTR _y_bit_count$10[ebp], ecx

; 609  :                     __UNIT_TYPE z_bit_count = x_bit_count + y_bit_count;

	mov	edx, DWORD PTR _x_bit_count$13[ebp]
	add	edx, DWORD PTR _y_bit_count$10[ebp]
	mov	DWORD PTR _z_bit_count$9[ebp], edx

; 610  :                     __UNIT_TYPE nz_light_check_code;
; 611  :                     if ((result = AllocateNumber(w, z_bit_count, &nz_light_check_code)) != PMC_STATUS_OK)

	lea	eax, DWORD PTR _nz_light_check_code$8[ebp]
	push	eax
	mov	ecx, DWORD PTR _z_bit_count$9[ebp]
	push	ecx
	mov	edx, DWORD PTR _w$[ebp]
	push	edx
	call	_AllocateNumber
	add	esp, 12					; 0000000cH
	mov	DWORD PTR _result$[ebp], eax
	cmp	DWORD PTR _result$[ebp], 0
	je	SHORT $LN18@PMC_Multip

; 612  :                         return (result);

	mov	eax, DWORD PTR _result$[ebp]
	jmp	$LN1@PMC_Multip
$LN18@PMC_Multip:

; 613  :                     (*fp_Multiply_X_1W)(u->BLOCK, u->UNIT_WORD_COUNT, y_lo, (*w)->BLOCK);

	mov	eax, DWORD PTR _w$[ebp]
	mov	ecx, DWORD PTR [eax]
	mov	esi, esp
	mov	edx, DWORD PTR [ecx+36]
	push	edx
	mov	eax, DWORD PTR _y_lo$11[ebp]
	push	eax
	mov	ecx, DWORD PTR _u$[ebp]
	mov	edx, DWORD PTR [ecx+12]
	push	edx
	mov	eax, DWORD PTR _u$[ebp]
	mov	ecx, DWORD PTR [eax+36]
	push	ecx
	call	DWORD PTR _fp_Multiply_X_1W
	add	esp, 16					; 00000010H
	cmp	esi, esp
	call	__RTC_CheckEsp

; 614  :                     if ((result = CheckBlockLight((*w)->BLOCK, nz_light_check_code)) != PMC_STATUS_OK)

	mov	edx, DWORD PTR _nz_light_check_code$8[ebp]
	push	edx
	mov	eax, DWORD PTR _w$[ebp]
	mov	ecx, DWORD PTR [eax]
	mov	edx, DWORD PTR [ecx+36]
	push	edx
	call	_CheckBlockLight
	add	esp, 8
	mov	DWORD PTR _result$[ebp], eax
	cmp	DWORD PTR _result$[ebp], 0
	je	SHORT $LN19@PMC_Multip

; 615  :                         return (result);

	mov	eax, DWORD PTR _result$[ebp]
	jmp	$LN1@PMC_Multip
$LN19@PMC_Multip:

; 616  :                 }

	jmp	$LN17@PMC_Multip
$LN16@PMC_Multip:

; 617  :                 else
; 618  :                 {
; 619  :                     // y の値が 32bit では表現できない場合
; 620  :                     __UNIT_TYPE y_bit_count = sizeof(v) * 8 - _LZCNT_ALT_32(y_hi);

	mov	eax, DWORD PTR _y_hi$12[ebp]
	push	eax
	call	__LZCNT_ALT_32
	add	esp, 4
	mov	ecx, 64					; 00000040H
	sub	ecx, eax
	mov	DWORD PTR _y_bit_count$7[ebp], ecx

; 621  :                     __UNIT_TYPE z_bit_count = x_bit_count + y_bit_count;

	mov	edx, DWORD PTR _x_bit_count$13[ebp]
	add	edx, DWORD PTR _y_bit_count$7[ebp]
	mov	DWORD PTR _z_bit_count$6[ebp], edx

; 622  :                     __UNIT_TYPE nz_light_check_code;
; 623  :                     if ((result = AllocateNumber(w, z_bit_count, &nz_light_check_code)) != PMC_STATUS_OK)

	lea	eax, DWORD PTR _nz_light_check_code$5[ebp]
	push	eax
	mov	ecx, DWORD PTR _z_bit_count$6[ebp]
	push	ecx
	mov	edx, DWORD PTR _w$[ebp]
	push	edx
	call	_AllocateNumber
	add	esp, 12					; 0000000cH
	mov	DWORD PTR _result$[ebp], eax
	cmp	DWORD PTR _result$[ebp], 0
	je	SHORT $LN20@PMC_Multip

; 624  :                         return (result);

	mov	eax, DWORD PTR _result$[ebp]
	jmp	$LN1@PMC_Multip
$LN20@PMC_Multip:

; 625  :                     (*fp_Multiply_X_2W)(u->BLOCK, u->UNIT_WORD_COUNT, y_hi, y_lo, (*w)->BLOCK);

	mov	eax, DWORD PTR _w$[ebp]
	mov	ecx, DWORD PTR [eax]
	mov	esi, esp
	mov	edx, DWORD PTR [ecx+36]
	push	edx
	mov	eax, DWORD PTR _y_lo$11[ebp]
	push	eax
	mov	ecx, DWORD PTR _y_hi$12[ebp]
	push	ecx
	mov	edx, DWORD PTR _u$[ebp]
	mov	eax, DWORD PTR [edx+12]
	push	eax
	mov	ecx, DWORD PTR _u$[ebp]
	mov	edx, DWORD PTR [ecx+36]
	push	edx
	call	DWORD PTR _fp_Multiply_X_2W
	add	esp, 20					; 00000014H
	cmp	esi, esp
	call	__RTC_CheckEsp

; 626  :                     if ((result = CheckBlockLight((*w)->BLOCK, nz_light_check_code)) != PMC_STATUS_OK)

	mov	eax, DWORD PTR _nz_light_check_code$5[ebp]
	push	eax
	mov	ecx, DWORD PTR _w$[ebp]
	mov	edx, DWORD PTR [ecx]
	mov	eax, DWORD PTR [edx+36]
	push	eax
	call	_CheckBlockLight
	add	esp, 8
	mov	DWORD PTR _result$[ebp], eax
	cmp	DWORD PTR _result$[ebp], 0
	je	SHORT $LN17@PMC_Multip

; 627  :                         return (result);

	mov	eax, DWORD PTR _result$[ebp]
	jmp	$LN1@PMC_Multip
$LN17@PMC_Multip:

; 628  :                 }
; 629  :                 CommitNumber(*w);

	mov	ecx, DWORD PTR _w$[ebp]
	mov	edx, DWORD PTR [ecx]
	push	edx
	call	_CommitNumber
	add	esp, 4

; 630  :             }

	jmp	$LN3@PMC_Multip
$LN14@PMC_Multip:

; 631  :             else
; 632  :             {
; 633  :                 // _UINT64_T が 1 ワードで表現できる場合
; 634  : 
; 635  :                 __UNIT_TYPE x_bit_count = u->UNIT_BIT_COUNT;

	mov	eax, DWORD PTR _u$[ebp]
	mov	ecx, DWORD PTR [eax+16]
	mov	DWORD PTR _x_bit_count$4[ebp], ecx

; 636  :                 __UNIT_TYPE y_bit_count = sizeof(v) * 8 - _LZCNT_ALT_UNIT((__UNIT_TYPE)v);

	mov	edx, DWORD PTR _v$[ebp]
	push	edx
	call	__LZCNT_ALT_UNIT
	add	esp, 4
	mov	ecx, 64					; 00000040H
	sub	ecx, eax
	mov	DWORD PTR _y_bit_count$3[ebp], ecx

; 637  :                 __UNIT_TYPE z_bit_count = x_bit_count + y_bit_count;

	mov	edx, DWORD PTR _x_bit_count$4[ebp]
	add	edx, DWORD PTR _y_bit_count$3[ebp]
	mov	DWORD PTR _z_bit_count$2[ebp], edx

; 638  :                 __UNIT_TYPE nz_light_check_code;
; 639  :                 if ((result = AllocateNumber(w, z_bit_count, &nz_light_check_code)) != PMC_STATUS_OK)

	lea	eax, DWORD PTR _nz_light_check_code$1[ebp]
	push	eax
	mov	ecx, DWORD PTR _z_bit_count$2[ebp]
	push	ecx
	mov	edx, DWORD PTR _w$[ebp]
	push	edx
	call	_AllocateNumber
	add	esp, 12					; 0000000cH
	mov	DWORD PTR _result$[ebp], eax
	cmp	DWORD PTR _result$[ebp], 0
	je	SHORT $LN22@PMC_Multip

; 640  :                     return (result);

	mov	eax, DWORD PTR _result$[ebp]
	jmp	SHORT $LN1@PMC_Multip
$LN22@PMC_Multip:

; 641  :                 (*fp_Multiply_X_1W)(u->BLOCK, u->UNIT_WORD_COUNT, (__UNIT_TYPE)v, (*w)->BLOCK);

	mov	eax, DWORD PTR _w$[ebp]
	mov	ecx, DWORD PTR [eax]
	mov	esi, esp
	mov	edx, DWORD PTR [ecx+36]
	push	edx
	mov	eax, DWORD PTR _v$[ebp]
	push	eax
	mov	ecx, DWORD PTR _u$[ebp]
	mov	edx, DWORD PTR [ecx+12]
	push	edx
	mov	eax, DWORD PTR _u$[ebp]
	mov	ecx, DWORD PTR [eax+36]
	push	ecx
	call	DWORD PTR _fp_Multiply_X_1W
	add	esp, 16					; 00000010H
	cmp	esi, esp
	call	__RTC_CheckEsp

; 642  :                 if ((result = CheckBlockLight((*w)->BLOCK, nz_light_check_code)) != PMC_STATUS_OK)

	mov	edx, DWORD PTR _nz_light_check_code$1[ebp]
	push	edx
	mov	eax, DWORD PTR _w$[ebp]
	mov	ecx, DWORD PTR [eax]
	mov	edx, DWORD PTR [ecx+36]
	push	edx
	call	_CheckBlockLight
	add	esp, 8
	mov	DWORD PTR _result$[ebp], eax
	cmp	DWORD PTR _result$[ebp], 0
	je	SHORT $LN23@PMC_Multip

; 643  :                     return (result);

	mov	eax, DWORD PTR _result$[ebp]
	jmp	SHORT $LN1@PMC_Multip
$LN23@PMC_Multip:

; 644  :                 CommitNumber(*w);

	mov	eax, DWORD PTR _w$[ebp]
	mov	ecx, DWORD PTR [eax]
	push	ecx
	call	_CommitNumber
	add	esp, 4
$LN3@PMC_Multip:

; 645  :             }
; 646  :         }
; 647  :     }
; 648  :     return (PMC_STATUS_OK);

	xor	eax, eax
$LN1@PMC_Multip:

; 649  : }

	push	edx
	mov	ecx, ebp
	push	eax
	lea	edx, DWORD PTR $LN30@PMC_Multip
	call	@_RTC_CheckStackVars@8
	pop	eax
	pop	edx
	pop	edi
	pop	esi
	add	esp, 88					; 00000058H
	cmp	ebp, esp
	call	__RTC_CheckEsp
	mov	esp, ebp
	pop	ebp
	ret	0
	npad	2
$LN30@PMC_Multip:
	DD	4
	DD	$LN29@PMC_Multip
$LN29@PMC_Multip:
	DD	-16					; fffffff0H
	DD	4
	DD	$LN25@PMC_Multip
	DD	-40					; ffffffd8H
	DD	4
	DD	$LN26@PMC_Multip
	DD	-60					; ffffffc4H
	DD	4
	DD	$LN27@PMC_Multip
	DD	-84					; ffffffacH
	DD	4
	DD	$LN28@PMC_Multip
$LN28@PMC_Multip:
	DB	110					; 0000006eH
	DB	122					; 0000007aH
	DB	95					; 0000005fH
	DB	108					; 0000006cH
	DB	105					; 00000069H
	DB	103					; 00000067H
	DB	104					; 00000068H
	DB	116					; 00000074H
	DB	95					; 0000005fH
	DB	99					; 00000063H
	DB	104					; 00000068H
	DB	101					; 00000065H
	DB	99					; 00000063H
	DB	107					; 0000006bH
	DB	95					; 0000005fH
	DB	99					; 00000063H
	DB	111					; 0000006fH
	DB	100					; 00000064H
	DB	101					; 00000065H
	DB	0
$LN27@PMC_Multip:
	DB	110					; 0000006eH
	DB	122					; 0000007aH
	DB	95					; 0000005fH
	DB	108					; 0000006cH
	DB	105					; 00000069H
	DB	103					; 00000067H
	DB	104					; 00000068H
	DB	116					; 00000074H
	DB	95					; 0000005fH
	DB	99					; 00000063H
	DB	104					; 00000068H
	DB	101					; 00000065H
	DB	99					; 00000063H
	DB	107					; 0000006bH
	DB	95					; 0000005fH
	DB	99					; 00000063H
	DB	111					; 0000006fH
	DB	100					; 00000064H
	DB	101					; 00000065H
	DB	0
$LN26@PMC_Multip:
	DB	110					; 0000006eH
	DB	122					; 0000007aH
	DB	95					; 0000005fH
	DB	108					; 0000006cH
	DB	105					; 00000069H
	DB	103					; 00000067H
	DB	104					; 00000068H
	DB	116					; 00000074H
	DB	95					; 0000005fH
	DB	99					; 00000063H
	DB	104					; 00000068H
	DB	101					; 00000065H
	DB	99					; 00000063H
	DB	107					; 0000006bH
	DB	95					; 0000005fH
	DB	99					; 00000063H
	DB	111					; 0000006fH
	DB	100					; 00000064H
	DB	101					; 00000065H
	DB	0
$LN25@PMC_Multip:
	DB	121					; 00000079H
	DB	95					; 0000005fH
	DB	104					; 00000068H
	DB	105					; 00000069H
	DB	0
_PMC_Multiply_X_L_Imp ENDP
_TEXT	ENDS
; Function compile flags: /Odtp /RTCsu
; File z:\sources\lunor\repos\rougemeilland\palmtree.math.core.uint\palmtree.math.core.uint\pmc_multiply.c
_TEXT	SEGMENT
_w_light_check_code$1 = -24				; size = 4
_w_bit_count$2 = -16					; size = 4
_v_bit_count$3 = -12					; size = 4
_u_bit_count$4 = -8					; size = 4
_result$ = -4						; size = 4
_u$ = 8							; size = 4
_v$ = 12						; size = 4
_w$ = 16						; size = 4
_PMC_Multiply_X_I_Imp PROC

; 432  : {

	push	ebp
	mov	ebp, esp
	sub	esp, 28					; 0000001cH
	push	esi
	mov	eax, -858993460				; ccccccccH
	mov	DWORD PTR [ebp-28], eax
	mov	DWORD PTR [ebp-24], eax
	mov	DWORD PTR [ebp-20], eax
	mov	DWORD PTR [ebp-16], eax
	mov	DWORD PTR [ebp-12], eax
	mov	DWORD PTR [ebp-8], eax
	mov	DWORD PTR [ebp-4], eax
	mov	ecx, OFFSET __B6A081C3_pmc_multiply@c
	call	@__CheckForDebuggerJustMyCode@4

; 433  :     PMC_STATUS_CODE result;
; 434  :     if (u->IS_ZERO)

	mov	eax, DWORD PTR _u$[ebp]
	mov	ecx, DWORD PTR [eax]
	and	ecx, 1
	je	SHORT $LN2@PMC_Multip

; 435  :     {
; 436  :         // u が 0 である場合
; 437  : 
; 438  :         // v の値にかかわらず 0 を返す。
; 439  :         *w = &number_zero;

	mov	edx, DWORD PTR _w$[ebp]
	mov	DWORD PTR [edx], OFFSET _number_zero

; 440  :     }

	jmp	$LN3@PMC_Multip
$LN2@PMC_Multip:

; 441  :     else if (u->IS_ONE)

	mov	eax, DWORD PTR _u$[ebp]
	mov	ecx, DWORD PTR [eax]
	shr	ecx, 1
	and	ecx, 1
	je	SHORT $LN4@PMC_Multip

; 442  :     {
; 443  :         // u が 1 である場合
; 444  :         if (v == 0)

	cmp	DWORD PTR _v$[ebp], 0
	jne	SHORT $LN6@PMC_Multip

; 445  :         {
; 446  :             // v が 0 である場合
; 447  : 
; 448  :             //  0  を返す。
; 449  :             *w = &number_zero;

	mov	edx, DWORD PTR _w$[ebp]
	mov	DWORD PTR [edx], OFFSET _number_zero

; 450  :         }

	jmp	SHORT $LN7@PMC_Multip
$LN6@PMC_Multip:

; 451  :         else
; 452  :         {
; 453  :             // y が 0 ではない場合
; 454  : 
; 455  :             // 乗算結果は v に等しいため、v の値を持つ NUMBER_HEADER 構造体を獲得し、呼び出し元へ返す。
; 456  :             if ((result = From_I_Imp(v, w)) != PMC_STATUS_OK)

	mov	eax, DWORD PTR _w$[ebp]
	push	eax
	mov	ecx, DWORD PTR _v$[ebp]
	push	ecx
	call	_From_I_Imp
	add	esp, 8
	mov	DWORD PTR _result$[ebp], eax
	cmp	DWORD PTR _result$[ebp], 0
	je	SHORT $LN7@PMC_Multip

; 457  :                 return (result);

	mov	eax, DWORD PTR _result$[ebp]
	jmp	$LN1@PMC_Multip
$LN7@PMC_Multip:

; 458  :         }
; 459  :     }

	jmp	$LN3@PMC_Multip
$LN4@PMC_Multip:

; 460  :     else
; 461  :     {
; 462  :         // u が 0 と 1 のどちらでもない場合
; 463  : 
; 464  :         if (v == 0)

	cmp	DWORD PTR _v$[ebp], 0
	jne	SHORT $LN9@PMC_Multip

; 465  :         {
; 466  :             // v が 0 である場合
; 467  : 
; 468  :             //  0  を返す。
; 469  :             *w = &number_zero;

	mov	edx, DWORD PTR _w$[ebp]
	mov	DWORD PTR [edx], OFFSET _number_zero

; 470  :         }

	jmp	$LN3@PMC_Multip
$LN9@PMC_Multip:

; 471  :         else if (v == 1)

	cmp	DWORD PTR _v$[ebp], 1
	jne	SHORT $LN11@PMC_Multip

; 472  :         {
; 473  :             // v が 1 である場合
; 474  : 
; 475  :             // 乗算結果は u に等しいため、u の値を持つ NUMBER_HEADER 構造体を獲得し、呼び出し元へ返す。
; 476  :             if ((result = DuplicateNumber(u, w)) != PMC_STATUS_OK)

	mov	eax, DWORD PTR _w$[ebp]
	push	eax
	mov	ecx, DWORD PTR _u$[ebp]
	push	ecx
	call	_DuplicateNumber
	add	esp, 8
	mov	DWORD PTR _result$[ebp], eax
	cmp	DWORD PTR _result$[ebp], 0
	je	SHORT $LN13@PMC_Multip

; 477  :                 return (result);

	mov	eax, DWORD PTR _result$[ebp]
	jmp	$LN1@PMC_Multip
$LN13@PMC_Multip:

; 478  :         }

	jmp	$LN3@PMC_Multip
$LN11@PMC_Multip:

; 479  :         else
; 480  :         {
; 481  :             // u と v がともに 0 、1 のどちらでもない場合
; 482  : 
; 483  :             // u と v の積を計算する
; 484  :             __UNIT_TYPE u_bit_count = u->UNIT_BIT_COUNT;

	mov	edx, DWORD PTR _u$[ebp]
	mov	eax, DWORD PTR [edx+16]
	mov	DWORD PTR _u_bit_count$4[ebp], eax

; 485  :             __UNIT_TYPE v_bit_count = sizeof(v) * 8 - _LZCNT_ALT_32(v);

	mov	ecx, DWORD PTR _v$[ebp]
	push	ecx
	call	__LZCNT_ALT_32
	add	esp, 4
	mov	edx, 32					; 00000020H
	sub	edx, eax
	mov	DWORD PTR _v_bit_count$3[ebp], edx

; 486  :             __UNIT_TYPE w_bit_count = u_bit_count + v_bit_count;

	mov	eax, DWORD PTR _u_bit_count$4[ebp]
	add	eax, DWORD PTR _v_bit_count$3[ebp]
	mov	DWORD PTR _w_bit_count$2[ebp], eax

; 487  :             __UNIT_TYPE w_light_check_code;
; 488  :             if ((result = AllocateNumber(w, w_bit_count, &w_light_check_code)) != PMC_STATUS_OK)

	lea	ecx, DWORD PTR _w_light_check_code$1[ebp]
	push	ecx
	mov	edx, DWORD PTR _w_bit_count$2[ebp]
	push	edx
	mov	eax, DWORD PTR _w$[ebp]
	push	eax
	call	_AllocateNumber
	add	esp, 12					; 0000000cH
	mov	DWORD PTR _result$[ebp], eax
	cmp	DWORD PTR _result$[ebp], 0
	je	SHORT $LN14@PMC_Multip

; 489  :                 return (result);

	mov	eax, DWORD PTR _result$[ebp]
	jmp	SHORT $LN1@PMC_Multip
$LN14@PMC_Multip:

; 490  :             (*fp_Multiply_X_1W)(u->BLOCK, u->UNIT_WORD_COUNT, v, (*w)->BLOCK);

	mov	ecx, DWORD PTR _w$[ebp]
	mov	edx, DWORD PTR [ecx]
	mov	esi, esp
	mov	eax, DWORD PTR [edx+36]
	push	eax
	mov	ecx, DWORD PTR _v$[ebp]
	push	ecx
	mov	edx, DWORD PTR _u$[ebp]
	mov	eax, DWORD PTR [edx+12]
	push	eax
	mov	ecx, DWORD PTR _u$[ebp]
	mov	edx, DWORD PTR [ecx+36]
	push	edx
	call	DWORD PTR _fp_Multiply_X_1W
	add	esp, 16					; 00000010H
	cmp	esi, esp
	call	__RTC_CheckEsp

; 491  :             if ((result = CheckBlockLight((*w)->BLOCK, w_light_check_code)) != PMC_STATUS_OK)

	mov	eax, DWORD PTR _w_light_check_code$1[ebp]
	push	eax
	mov	ecx, DWORD PTR _w$[ebp]
	mov	edx, DWORD PTR [ecx]
	mov	eax, DWORD PTR [edx+36]
	push	eax
	call	_CheckBlockLight
	add	esp, 8
	mov	DWORD PTR _result$[ebp], eax
	cmp	DWORD PTR _result$[ebp], 0
	je	SHORT $LN15@PMC_Multip

; 492  :                 return (result);

	mov	eax, DWORD PTR _result$[ebp]
	jmp	SHORT $LN1@PMC_Multip
$LN15@PMC_Multip:

; 493  :             CommitNumber(*w);

	mov	ecx, DWORD PTR _w$[ebp]
	mov	edx, DWORD PTR [ecx]
	push	edx
	call	_CommitNumber
	add	esp, 4
$LN3@PMC_Multip:

; 494  :         }
; 495  :     }
; 496  :     return (PMC_STATUS_OK);

	xor	eax, eax
$LN1@PMC_Multip:

; 497  : }

	push	edx
	mov	ecx, ebp
	push	eax
	lea	edx, DWORD PTR $LN19@PMC_Multip
	call	@_RTC_CheckStackVars@8
	pop	eax
	pop	edx
	pop	esi
	add	esp, 28					; 0000001cH
	cmp	ebp, esp
	call	__RTC_CheckEsp
	mov	esp, ebp
	pop	ebp
	ret	0
$LN19@PMC_Multip:
	DD	1
	DD	$LN18@PMC_Multip
$LN18@PMC_Multip:
	DD	-24					; ffffffe8H
	DD	4
	DD	$LN17@PMC_Multip
$LN17@PMC_Multip:
	DB	119					; 00000077H
	DB	95					; 0000005fH
	DB	108					; 0000006cH
	DB	105					; 00000069H
	DB	103					; 00000067H
	DB	104					; 00000068H
	DB	116					; 00000074H
	DB	95					; 0000005fH
	DB	99					; 00000063H
	DB	104					; 00000068H
	DB	101					; 00000065H
	DB	99					; 00000063H
	DB	107					; 0000006bH
	DB	95					; 0000005fH
	DB	99					; 00000063H
	DB	111					; 0000006fH
	DB	100					; 00000064H
	DB	101					; 00000065H
	DB	0
_PMC_Multiply_X_I_Imp ENDP
_TEXT	ENDS
; Function compile flags: /Odtp /RTCsu
; File z:\sources\lunor\repos\rougemeilland\palmtree.math.core.uint\palmtree.math.core.uint\pmc_multiply.c
_TEXT	SEGMENT
_wp$ = -20						; size = 4
_vp$ = -16						; size = 4
_up$ = -12						; size = 4
_t_count$1 = -8						; size = 4
_t_buf$2 = -4						; size = 4
_u_buf$ = 8						; size = 4
_u_count$ = 12						; size = 4
_v_buf$ = 16						; size = 4
_v_count$ = 20						; size = 4
_w_buf$ = 24						; size = 4
_Multiply_X_X_using_MULX_ADCX PROC

; 407  : {

	push	ebp
	mov	ebp, esp
	sub	esp, 20					; 00000014H
	mov	eax, -858993460				; ccccccccH
	mov	DWORD PTR [ebp-20], eax
	mov	DWORD PTR [ebp-16], eax
	mov	DWORD PTR [ebp-12], eax
	mov	DWORD PTR [ebp-8], eax
	mov	DWORD PTR [ebp-4], eax
	mov	ecx, OFFSET __B6A081C3_pmc_multiply@c
	call	@__CheckForDebuggerJustMyCode@4

; 408  :     // x のワード長が y のワード長以上であるようにする
; 409  :     if (u_count < v_count)

	mov	eax, DWORD PTR _u_count$[ebp]
	cmp	eax, DWORD PTR _v_count$[ebp]
	jae	SHORT $LN5@Multiply_X

; 410  :     {
; 411  :         __UNIT_TYPE* t_buf = u_buf;

	mov	ecx, DWORD PTR _u_buf$[ebp]
	mov	DWORD PTR _t_buf$2[ebp], ecx

; 412  :         u_buf = v_buf;

	mov	edx, DWORD PTR _v_buf$[ebp]
	mov	DWORD PTR _u_buf$[ebp], edx

; 413  :         v_buf = t_buf;

	mov	eax, DWORD PTR _t_buf$2[ebp]
	mov	DWORD PTR _v_buf$[ebp], eax

; 414  :         __UNIT_TYPE t_count = u_count;

	mov	ecx, DWORD PTR _u_count$[ebp]
	mov	DWORD PTR _t_count$1[ebp], ecx

; 415  :         u_count = v_count;

	mov	edx, DWORD PTR _v_count$[ebp]
	mov	DWORD PTR _u_count$[ebp], edx

; 416  :         v_count = t_count;

	mov	eax, DWORD PTR _t_count$1[ebp]
	mov	DWORD PTR _v_count$[ebp], eax
$LN5@Multiply_X:

; 417  :     }
; 418  :     __UNIT_TYPE* up = u_buf;

	mov	ecx, DWORD PTR _u_buf$[ebp]
	mov	DWORD PTR _up$[ebp], ecx

; 419  :     __UNIT_TYPE* vp = v_buf;

	mov	edx, DWORD PTR _v_buf$[ebp]
	mov	DWORD PTR _vp$[ebp], edx

; 420  :     __UNIT_TYPE* wp = w_buf;

	mov	eax, DWORD PTR _w_buf$[ebp]
	mov	DWORD PTR _wp$[ebp], eax
$LN4@Multiply_X:

; 421  : 
; 422  :     do
; 423  :     {
; 424  :         Multiply_WORD_using_MULX_ADCX(up, u_count, *vp, wp);

	mov	ecx, DWORD PTR _wp$[ebp]
	push	ecx
	mov	edx, DWORD PTR _vp$[ebp]
	mov	eax, DWORD PTR [edx]
	push	eax
	mov	ecx, DWORD PTR _u_count$[ebp]
	push	ecx
	mov	edx, DWORD PTR _up$[ebp]
	push	edx
	call	_Multiply_WORD_using_MULX_ADCX
	add	esp, 16					; 00000010H

; 425  :         ++vp;

	mov	eax, DWORD PTR _vp$[ebp]
	add	eax, 4
	mov	DWORD PTR _vp$[ebp], eax

; 426  :         ++wp;

	mov	ecx, DWORD PTR _wp$[ebp]
	add	ecx, 4
	mov	DWORD PTR _wp$[ebp], ecx

; 427  :         --v_count;

	mov	edx, DWORD PTR _v_count$[ebp]
	sub	edx, 1
	mov	DWORD PTR _v_count$[ebp], edx

; 428  :     } while (v_count != 0);

	jne	SHORT $LN4@Multiply_X

; 429  : }

	add	esp, 20					; 00000014H
	cmp	ebp, esp
	call	__RTC_CheckEsp
	mov	esp, ebp
	pop	ebp
	ret	0
_Multiply_X_X_using_MULX_ADCX ENDP
_TEXT	ENDS
; Function compile flags: /Odtp /RTCsu
; File z:\sources\lunor\repos\rougemeilland\palmtree.math.core.uint\palmtree.math.core.uint\pmc_multiply.c
_TEXT	SEGMENT
_wp$ = -20						; size = 4
_vp$ = -16						; size = 4
_up$ = -12						; size = 4
_t_count$1 = -8						; size = 4
_t_buf$2 = -4						; size = 4
_u_buf$ = 8						; size = 4
_u_count$ = 12						; size = 4
_v_buf$ = 16						; size = 4
_v_count$ = 20						; size = 4
_w_buf$ = 24						; size = 4
_Multiply_X_X_using_MUL_ADC PROC

; 382  : {

	push	ebp
	mov	ebp, esp
	sub	esp, 20					; 00000014H
	mov	eax, -858993460				; ccccccccH
	mov	DWORD PTR [ebp-20], eax
	mov	DWORD PTR [ebp-16], eax
	mov	DWORD PTR [ebp-12], eax
	mov	DWORD PTR [ebp-8], eax
	mov	DWORD PTR [ebp-4], eax
	mov	ecx, OFFSET __B6A081C3_pmc_multiply@c
	call	@__CheckForDebuggerJustMyCode@4

; 383  :     // x のワード長が y のワード長以上であるようにする
; 384  :     if (u_count < v_count)

	mov	eax, DWORD PTR _u_count$[ebp]
	cmp	eax, DWORD PTR _v_count$[ebp]
	jae	SHORT $LN5@Multiply_X

; 385  :     {
; 386  :         __UNIT_TYPE* t_buf = u_buf;

	mov	ecx, DWORD PTR _u_buf$[ebp]
	mov	DWORD PTR _t_buf$2[ebp], ecx

; 387  :         u_buf = v_buf;

	mov	edx, DWORD PTR _v_buf$[ebp]
	mov	DWORD PTR _u_buf$[ebp], edx

; 388  :         v_buf = t_buf;

	mov	eax, DWORD PTR _t_buf$2[ebp]
	mov	DWORD PTR _v_buf$[ebp], eax

; 389  :         __UNIT_TYPE t_count = u_count;

	mov	ecx, DWORD PTR _u_count$[ebp]
	mov	DWORD PTR _t_count$1[ebp], ecx

; 390  :         u_count = v_count;

	mov	edx, DWORD PTR _v_count$[ebp]
	mov	DWORD PTR _u_count$[ebp], edx

; 391  :         v_count = t_count;

	mov	eax, DWORD PTR _t_count$1[ebp]
	mov	DWORD PTR _v_count$[ebp], eax
$LN5@Multiply_X:

; 392  :     }
; 393  :     __UNIT_TYPE* up = u_buf;

	mov	ecx, DWORD PTR _u_buf$[ebp]
	mov	DWORD PTR _up$[ebp], ecx

; 394  :     __UNIT_TYPE* vp = v_buf;

	mov	edx, DWORD PTR _v_buf$[ebp]
	mov	DWORD PTR _vp$[ebp], edx

; 395  :     __UNIT_TYPE* wp = w_buf;

	mov	eax, DWORD PTR _w_buf$[ebp]
	mov	DWORD PTR _wp$[ebp], eax
$LN4@Multiply_X:

; 396  : 
; 397  :     do
; 398  :     {
; 399  :         Multiply_WORD_using_MUL_ADC(up, u_count, *vp, wp);

	mov	ecx, DWORD PTR _wp$[ebp]
	push	ecx
	mov	edx, DWORD PTR _vp$[ebp]
	mov	eax, DWORD PTR [edx]
	push	eax
	mov	ecx, DWORD PTR _u_count$[ebp]
	push	ecx
	mov	edx, DWORD PTR _up$[ebp]
	push	edx
	call	_Multiply_WORD_using_MUL_ADC
	add	esp, 16					; 00000010H

; 400  :         ++vp;

	mov	eax, DWORD PTR _vp$[ebp]
	add	eax, 4
	mov	DWORD PTR _vp$[ebp], eax

; 401  :         ++wp;

	mov	ecx, DWORD PTR _wp$[ebp]
	add	ecx, 4
	mov	DWORD PTR _wp$[ebp], ecx

; 402  :         --v_count;

	mov	edx, DWORD PTR _v_count$[ebp]
	sub	edx, 1
	mov	DWORD PTR _v_count$[ebp], edx

; 403  :     } while (v_count != 0);

	jne	SHORT $LN4@Multiply_X

; 404  : }

	add	esp, 20					; 00000014H
	cmp	ebp, esp
	call	__RTC_CheckEsp
	mov	esp, ebp
	pop	ebp
	ret	0
_Multiply_X_X_using_MUL_ADC ENDP
_TEXT	ENDS
; Function compile flags: /Odtp /RTCsu
; File z:\sources\lunor\repos\rougemeilland\palmtree.math.core.uint\palmtree.math.core.uint\pmc_multiply.c
_TEXT	SEGMENT
_u_buf$ = 8						; size = 4
_u_count$ = 12						; size = 4
_v_hi$ = 16						; size = 4
_v_lo$ = 20						; size = 4
_w_buf$ = 24						; size = 4
_Multiply_X_2W_using_MULX_ADCX PROC

; 376  : {

	push	ebp
	mov	ebp, esp
	mov	ecx, OFFSET __B6A081C3_pmc_multiply@c
	call	@__CheckForDebuggerJustMyCode@4

; 377  :     Multiply_WORD_using_MULX_ADCX(u_buf, u_count, v_lo, &w_buf[0]);

	mov	eax, 4
	imul	ecx, eax, 0
	add	ecx, DWORD PTR _w_buf$[ebp]
	push	ecx
	mov	edx, DWORD PTR _v_lo$[ebp]
	push	edx
	mov	eax, DWORD PTR _u_count$[ebp]
	push	eax
	mov	ecx, DWORD PTR _u_buf$[ebp]
	push	ecx
	call	_Multiply_WORD_using_MULX_ADCX
	add	esp, 16					; 00000010H

; 378  :     Multiply_WORD_using_MULX_ADCX(u_buf, u_count, v_hi, &w_buf[1]);

	mov	edx, 4
	shl	edx, 0
	add	edx, DWORD PTR _w_buf$[ebp]
	push	edx
	mov	eax, DWORD PTR _v_hi$[ebp]
	push	eax
	mov	ecx, DWORD PTR _u_count$[ebp]
	push	ecx
	mov	edx, DWORD PTR _u_buf$[ebp]
	push	edx
	call	_Multiply_WORD_using_MULX_ADCX
	add	esp, 16					; 00000010H

; 379  : }

	cmp	ebp, esp
	call	__RTC_CheckEsp
	pop	ebp
	ret	0
_Multiply_X_2W_using_MULX_ADCX ENDP
_TEXT	ENDS
; Function compile flags: /Odtp /RTCsu
; File z:\sources\lunor\repos\rougemeilland\palmtree.math.core.uint\palmtree.math.core.uint\pmc_multiply.c
_TEXT	SEGMENT
_u_buf$ = 8						; size = 4
_u_count$ = 12						; size = 4
_v_hi$ = 16						; size = 4
_v_lo$ = 20						; size = 4
_w_buf$ = 24						; size = 4
_Multiply_X_2W_using_MUL_ADC PROC

; 370  : {

	push	ebp
	mov	ebp, esp
	mov	ecx, OFFSET __B6A081C3_pmc_multiply@c
	call	@__CheckForDebuggerJustMyCode@4

; 371  :     Multiply_WORD_using_MUL_ADC(u_buf, u_count, v_lo, &w_buf[0]);

	mov	eax, 4
	imul	ecx, eax, 0
	add	ecx, DWORD PTR _w_buf$[ebp]
	push	ecx
	mov	edx, DWORD PTR _v_lo$[ebp]
	push	edx
	mov	eax, DWORD PTR _u_count$[ebp]
	push	eax
	mov	ecx, DWORD PTR _u_buf$[ebp]
	push	ecx
	call	_Multiply_WORD_using_MUL_ADC
	add	esp, 16					; 00000010H

; 372  :     Multiply_WORD_using_MUL_ADC(u_buf, u_count, v_hi, &w_buf[1]);

	mov	edx, 4
	shl	edx, 0
	add	edx, DWORD PTR _w_buf$[ebp]
	push	edx
	mov	eax, DWORD PTR _v_hi$[ebp]
	push	eax
	mov	ecx, DWORD PTR _u_count$[ebp]
	push	ecx
	mov	edx, DWORD PTR _u_buf$[ebp]
	push	edx
	call	_Multiply_WORD_using_MUL_ADC
	add	esp, 16					; 00000010H

; 373  : }

	cmp	ebp, esp
	call	__RTC_CheckEsp
	pop	ebp
	ret	0
_Multiply_X_2W_using_MUL_ADC ENDP
_TEXT	ENDS
; Function compile flags: /Odtp /RTCsu
; File z:\sources\lunor\repos\rougemeilland\palmtree.math.core.uint\palmtree.math.core.uint\pmc_multiply.c
_TEXT	SEGMENT
_u_buf$ = 8						; size = 4
_u_count$ = 12						; size = 4
_v$ = 16						; size = 4
_w_buf$ = 20						; size = 4
_Multiply_X_1W_using_MULX_ADCX PROC

; 365  : {

	push	ebp
	mov	ebp, esp
	mov	ecx, OFFSET __B6A081C3_pmc_multiply@c
	call	@__CheckForDebuggerJustMyCode@4

; 366  :     Multiply_WORD_using_MULX_ADCX(u_buf, u_count, v, w_buf);

	mov	eax, DWORD PTR _w_buf$[ebp]
	push	eax
	mov	ecx, DWORD PTR _v$[ebp]
	push	ecx
	mov	edx, DWORD PTR _u_count$[ebp]
	push	edx
	mov	eax, DWORD PTR _u_buf$[ebp]
	push	eax
	call	_Multiply_WORD_using_MULX_ADCX
	add	esp, 16					; 00000010H

; 367  : }

	cmp	ebp, esp
	call	__RTC_CheckEsp
	pop	ebp
	ret	0
_Multiply_X_1W_using_MULX_ADCX ENDP
_TEXT	ENDS
; Function compile flags: /Odtp /RTCsu
; File z:\sources\lunor\repos\rougemeilland\palmtree.math.core.uint\palmtree.math.core.uint\pmc_multiply.c
_TEXT	SEGMENT
_u_buf$ = 8						; size = 4
_u_count$ = 12						; size = 4
_v$ = 16						; size = 4
_w_buf$ = 20						; size = 4
_Multiply_X_1W_using_MUL_ADC PROC

; 360  : {

	push	ebp
	mov	ebp, esp
	mov	ecx, OFFSET __B6A081C3_pmc_multiply@c
	call	@__CheckForDebuggerJustMyCode@4

; 361  :     Multiply_WORD_using_MUL_ADC(u_buf, u_count, v, w_buf);

	mov	eax, DWORD PTR _w_buf$[ebp]
	push	eax
	mov	ecx, DWORD PTR _v$[ebp]
	push	ecx
	mov	edx, DWORD PTR _u_count$[ebp]
	push	edx
	mov	eax, DWORD PTR _u_buf$[ebp]
	push	eax
	call	_Multiply_WORD_using_MUL_ADC
	add	esp, 16					; 00000010H

; 362  : }

	cmp	ebp, esp
	call	__RTC_CheckEsp
	pop	ebp
	ret	0
_Multiply_X_1W_using_MUL_ADC ENDP
_TEXT	ENDS
; Function compile flags: /Odtp /RTCsu
; File z:\sources\lunor\repos\rougemeilland\palmtree.math.core.uint\palmtree.math.core.uint\pmc_multiply.c
_TEXT	SEGMENT
_count$ = -8						; size = 4
_k$ = -4						; size = 4
_up$ = 8						; size = 4
_u_count$ = 12						; size = 4
_v$ = 16						; size = 4
_wp$ = 20						; size = 4
_Multiply_WORD_using_MULX_ADCX PROC

; 212  : {

	push	ebp
	mov	ebp, esp
	sub	esp, 8
	mov	DWORD PTR [ebp-8], -858993460		; ccccccccH
	mov	DWORD PTR [ebp-4], -858993460		; ccccccccH
	mov	ecx, OFFSET __B6A081C3_pmc_multiply@c
	call	@__CheckForDebuggerJustMyCode@4

; 213  :     __UNIT_TYPE k = 0;

	mov	DWORD PTR _k$[ebp], 0

; 214  :     __UNIT_TYPE count = u_count >> 5;

	mov	eax, DWORD PTR _u_count$[ebp]
	shr	eax, 5
	mov	DWORD PTR _count$[ebp], eax
$LN2@Multiply_W:

; 215  : 
; 216  :     while (count != 0)

	cmp	DWORD PTR _count$[ebp], 0
	je	$LN3@Multiply_W

; 217  :     {
; 218  :         k = _MULTIPLYX_DIGIT_UNIT(k, &up[0], v, &wp[0]);

	mov	ecx, 4
	imul	edx, ecx, 0
	add	edx, DWORD PTR _wp$[ebp]
	push	edx
	mov	eax, DWORD PTR _v$[ebp]
	push	eax
	mov	ecx, 4
	imul	edx, ecx, 0
	add	edx, DWORD PTR _up$[ebp]
	push	edx
	mov	eax, DWORD PTR _k$[ebp]
	push	eax
	call	__MULTIPLYX_DIGIT_UNIT
	add	esp, 16					; 00000010H
	mov	DWORD PTR _k$[ebp], eax

; 219  :         k = _MULTIPLYX_DIGIT_UNIT(k, &up[1], v, &wp[1]);

	mov	ecx, 4
	shl	ecx, 0
	add	ecx, DWORD PTR _wp$[ebp]
	push	ecx
	mov	edx, DWORD PTR _v$[ebp]
	push	edx
	mov	eax, 4
	shl	eax, 0
	add	eax, DWORD PTR _up$[ebp]
	push	eax
	mov	ecx, DWORD PTR _k$[ebp]
	push	ecx
	call	__MULTIPLYX_DIGIT_UNIT
	add	esp, 16					; 00000010H
	mov	DWORD PTR _k$[ebp], eax

; 220  :         k = _MULTIPLYX_DIGIT_UNIT(k, &up[2], v, &wp[2]);

	mov	edx, 4
	shl	edx, 1
	add	edx, DWORD PTR _wp$[ebp]
	push	edx
	mov	eax, DWORD PTR _v$[ebp]
	push	eax
	mov	ecx, 4
	shl	ecx, 1
	add	ecx, DWORD PTR _up$[ebp]
	push	ecx
	mov	edx, DWORD PTR _k$[ebp]
	push	edx
	call	__MULTIPLYX_DIGIT_UNIT
	add	esp, 16					; 00000010H
	mov	DWORD PTR _k$[ebp], eax

; 221  :         k = _MULTIPLYX_DIGIT_UNIT(k, &up[3], v, &wp[3]);

	mov	eax, 4
	imul	ecx, eax, 3
	add	ecx, DWORD PTR _wp$[ebp]
	push	ecx
	mov	edx, DWORD PTR _v$[ebp]
	push	edx
	mov	eax, 4
	imul	ecx, eax, 3
	add	ecx, DWORD PTR _up$[ebp]
	push	ecx
	mov	edx, DWORD PTR _k$[ebp]
	push	edx
	call	__MULTIPLYX_DIGIT_UNIT
	add	esp, 16					; 00000010H
	mov	DWORD PTR _k$[ebp], eax

; 222  :         k = _MULTIPLYX_DIGIT_UNIT(k, &up[4], v, &wp[4]);

	mov	eax, 4
	shl	eax, 2
	add	eax, DWORD PTR _wp$[ebp]
	push	eax
	mov	ecx, DWORD PTR _v$[ebp]
	push	ecx
	mov	edx, 4
	shl	edx, 2
	add	edx, DWORD PTR _up$[ebp]
	push	edx
	mov	eax, DWORD PTR _k$[ebp]
	push	eax
	call	__MULTIPLYX_DIGIT_UNIT
	add	esp, 16					; 00000010H
	mov	DWORD PTR _k$[ebp], eax

; 223  :         k = _MULTIPLYX_DIGIT_UNIT(k, &up[5], v, &wp[5]);

	mov	ecx, 4
	imul	edx, ecx, 5
	add	edx, DWORD PTR _wp$[ebp]
	push	edx
	mov	eax, DWORD PTR _v$[ebp]
	push	eax
	mov	ecx, 4
	imul	edx, ecx, 5
	add	edx, DWORD PTR _up$[ebp]
	push	edx
	mov	eax, DWORD PTR _k$[ebp]
	push	eax
	call	__MULTIPLYX_DIGIT_UNIT
	add	esp, 16					; 00000010H
	mov	DWORD PTR _k$[ebp], eax

; 224  :         k = _MULTIPLYX_DIGIT_UNIT(k, &up[6], v, &wp[6]);

	mov	ecx, 4
	imul	edx, ecx, 6
	add	edx, DWORD PTR _wp$[ebp]
	push	edx
	mov	eax, DWORD PTR _v$[ebp]
	push	eax
	mov	ecx, 4
	imul	edx, ecx, 6
	add	edx, DWORD PTR _up$[ebp]
	push	edx
	mov	eax, DWORD PTR _k$[ebp]
	push	eax
	call	__MULTIPLYX_DIGIT_UNIT
	add	esp, 16					; 00000010H
	mov	DWORD PTR _k$[ebp], eax

; 225  :         k = _MULTIPLYX_DIGIT_UNIT(k, &up[7], v, &wp[7]);

	mov	ecx, 4
	imul	edx, ecx, 7
	add	edx, DWORD PTR _wp$[ebp]
	push	edx
	mov	eax, DWORD PTR _v$[ebp]
	push	eax
	mov	ecx, 4
	imul	edx, ecx, 7
	add	edx, DWORD PTR _up$[ebp]
	push	edx
	mov	eax, DWORD PTR _k$[ebp]
	push	eax
	call	__MULTIPLYX_DIGIT_UNIT
	add	esp, 16					; 00000010H
	mov	DWORD PTR _k$[ebp], eax

; 226  :         k = _MULTIPLYX_DIGIT_UNIT(k, &up[8], v, &wp[8]);

	mov	ecx, 4
	shl	ecx, 3
	add	ecx, DWORD PTR _wp$[ebp]
	push	ecx
	mov	edx, DWORD PTR _v$[ebp]
	push	edx
	mov	eax, 4
	shl	eax, 3
	add	eax, DWORD PTR _up$[ebp]
	push	eax
	mov	ecx, DWORD PTR _k$[ebp]
	push	ecx
	call	__MULTIPLYX_DIGIT_UNIT
	add	esp, 16					; 00000010H
	mov	DWORD PTR _k$[ebp], eax

; 227  :         k = _MULTIPLYX_DIGIT_UNIT(k, &up[9], v, &wp[9]);

	mov	edx, 4
	imul	eax, edx, 9
	add	eax, DWORD PTR _wp$[ebp]
	push	eax
	mov	ecx, DWORD PTR _v$[ebp]
	push	ecx
	mov	edx, 4
	imul	eax, edx, 9
	add	eax, DWORD PTR _up$[ebp]
	push	eax
	mov	ecx, DWORD PTR _k$[ebp]
	push	ecx
	call	__MULTIPLYX_DIGIT_UNIT
	add	esp, 16					; 00000010H
	mov	DWORD PTR _k$[ebp], eax

; 228  :         k = _MULTIPLYX_DIGIT_UNIT(k, &up[10], v, &wp[10]);

	mov	edx, 4
	imul	eax, edx, 10
	add	eax, DWORD PTR _wp$[ebp]
	push	eax
	mov	ecx, DWORD PTR _v$[ebp]
	push	ecx
	mov	edx, 4
	imul	eax, edx, 10
	add	eax, DWORD PTR _up$[ebp]
	push	eax
	mov	ecx, DWORD PTR _k$[ebp]
	push	ecx
	call	__MULTIPLYX_DIGIT_UNIT
	add	esp, 16					; 00000010H
	mov	DWORD PTR _k$[ebp], eax

; 229  :         k = _MULTIPLYX_DIGIT_UNIT(k, &up[11], v, &wp[11]);

	mov	edx, 4
	imul	eax, edx, 11
	add	eax, DWORD PTR _wp$[ebp]
	push	eax
	mov	ecx, DWORD PTR _v$[ebp]
	push	ecx
	mov	edx, 4
	imul	eax, edx, 11
	add	eax, DWORD PTR _up$[ebp]
	push	eax
	mov	ecx, DWORD PTR _k$[ebp]
	push	ecx
	call	__MULTIPLYX_DIGIT_UNIT
	add	esp, 16					; 00000010H
	mov	DWORD PTR _k$[ebp], eax

; 230  :         k = _MULTIPLYX_DIGIT_UNIT(k, &up[12], v, &wp[12]);

	mov	edx, 4
	imul	eax, edx, 12
	add	eax, DWORD PTR _wp$[ebp]
	push	eax
	mov	ecx, DWORD PTR _v$[ebp]
	push	ecx
	mov	edx, 4
	imul	eax, edx, 12
	add	eax, DWORD PTR _up$[ebp]
	push	eax
	mov	ecx, DWORD PTR _k$[ebp]
	push	ecx
	call	__MULTIPLYX_DIGIT_UNIT
	add	esp, 16					; 00000010H
	mov	DWORD PTR _k$[ebp], eax

; 231  :         k = _MULTIPLYX_DIGIT_UNIT(k, &up[13], v, &wp[13]);

	mov	edx, 4
	imul	eax, edx, 13
	add	eax, DWORD PTR _wp$[ebp]
	push	eax
	mov	ecx, DWORD PTR _v$[ebp]
	push	ecx
	mov	edx, 4
	imul	eax, edx, 13
	add	eax, DWORD PTR _up$[ebp]
	push	eax
	mov	ecx, DWORD PTR _k$[ebp]
	push	ecx
	call	__MULTIPLYX_DIGIT_UNIT
	add	esp, 16					; 00000010H
	mov	DWORD PTR _k$[ebp], eax

; 232  :         k = _MULTIPLYX_DIGIT_UNIT(k, &up[14], v, &wp[14]);

	mov	edx, 4
	imul	eax, edx, 14
	add	eax, DWORD PTR _wp$[ebp]
	push	eax
	mov	ecx, DWORD PTR _v$[ebp]
	push	ecx
	mov	edx, 4
	imul	eax, edx, 14
	add	eax, DWORD PTR _up$[ebp]
	push	eax
	mov	ecx, DWORD PTR _k$[ebp]
	push	ecx
	call	__MULTIPLYX_DIGIT_UNIT
	add	esp, 16					; 00000010H
	mov	DWORD PTR _k$[ebp], eax

; 233  :         k = _MULTIPLYX_DIGIT_UNIT(k, &up[15], v, &wp[15]);

	mov	edx, 4
	imul	eax, edx, 15
	add	eax, DWORD PTR _wp$[ebp]
	push	eax
	mov	ecx, DWORD PTR _v$[ebp]
	push	ecx
	mov	edx, 4
	imul	eax, edx, 15
	add	eax, DWORD PTR _up$[ebp]
	push	eax
	mov	ecx, DWORD PTR _k$[ebp]
	push	ecx
	call	__MULTIPLYX_DIGIT_UNIT
	add	esp, 16					; 00000010H
	mov	DWORD PTR _k$[ebp], eax

; 234  :         k = _MULTIPLYX_DIGIT_UNIT(k, &up[16], v, &wp[16]);

	mov	edx, 4
	shl	edx, 4
	add	edx, DWORD PTR _wp$[ebp]
	push	edx
	mov	eax, DWORD PTR _v$[ebp]
	push	eax
	mov	ecx, 4
	shl	ecx, 4
	add	ecx, DWORD PTR _up$[ebp]
	push	ecx
	mov	edx, DWORD PTR _k$[ebp]
	push	edx
	call	__MULTIPLYX_DIGIT_UNIT
	add	esp, 16					; 00000010H
	mov	DWORD PTR _k$[ebp], eax

; 235  :         k = _MULTIPLYX_DIGIT_UNIT(k, &up[17], v, &wp[17]);

	mov	eax, 4
	imul	ecx, eax, 17
	add	ecx, DWORD PTR _wp$[ebp]
	push	ecx
	mov	edx, DWORD PTR _v$[ebp]
	push	edx
	mov	eax, 4
	imul	ecx, eax, 17
	add	ecx, DWORD PTR _up$[ebp]
	push	ecx
	mov	edx, DWORD PTR _k$[ebp]
	push	edx
	call	__MULTIPLYX_DIGIT_UNIT
	add	esp, 16					; 00000010H
	mov	DWORD PTR _k$[ebp], eax

; 236  :         k = _MULTIPLYX_DIGIT_UNIT(k, &up[18], v, &wp[18]);

	mov	eax, 4
	imul	ecx, eax, 18
	add	ecx, DWORD PTR _wp$[ebp]
	push	ecx
	mov	edx, DWORD PTR _v$[ebp]
	push	edx
	mov	eax, 4
	imul	ecx, eax, 18
	add	ecx, DWORD PTR _up$[ebp]
	push	ecx
	mov	edx, DWORD PTR _k$[ebp]
	push	edx
	call	__MULTIPLYX_DIGIT_UNIT
	add	esp, 16					; 00000010H
	mov	DWORD PTR _k$[ebp], eax

; 237  :         k = _MULTIPLYX_DIGIT_UNIT(k, &up[19], v, &wp[19]);

	mov	eax, 4
	imul	ecx, eax, 19
	add	ecx, DWORD PTR _wp$[ebp]
	push	ecx
	mov	edx, DWORD PTR _v$[ebp]
	push	edx
	mov	eax, 4
	imul	ecx, eax, 19
	add	ecx, DWORD PTR _up$[ebp]
	push	ecx
	mov	edx, DWORD PTR _k$[ebp]
	push	edx
	call	__MULTIPLYX_DIGIT_UNIT
	add	esp, 16					; 00000010H
	mov	DWORD PTR _k$[ebp], eax

; 238  :         k = _MULTIPLYX_DIGIT_UNIT(k, &up[20], v, &wp[20]);

	mov	eax, 4
	imul	ecx, eax, 20
	add	ecx, DWORD PTR _wp$[ebp]
	push	ecx
	mov	edx, DWORD PTR _v$[ebp]
	push	edx
	mov	eax, 4
	imul	ecx, eax, 20
	add	ecx, DWORD PTR _up$[ebp]
	push	ecx
	mov	edx, DWORD PTR _k$[ebp]
	push	edx
	call	__MULTIPLYX_DIGIT_UNIT
	add	esp, 16					; 00000010H
	mov	DWORD PTR _k$[ebp], eax

; 239  :         k = _MULTIPLYX_DIGIT_UNIT(k, &up[21], v, &wp[21]);

	mov	eax, 4
	imul	ecx, eax, 21
	add	ecx, DWORD PTR _wp$[ebp]
	push	ecx
	mov	edx, DWORD PTR _v$[ebp]
	push	edx
	mov	eax, 4
	imul	ecx, eax, 21
	add	ecx, DWORD PTR _up$[ebp]
	push	ecx
	mov	edx, DWORD PTR _k$[ebp]
	push	edx
	call	__MULTIPLYX_DIGIT_UNIT
	add	esp, 16					; 00000010H
	mov	DWORD PTR _k$[ebp], eax

; 240  :         k = _MULTIPLYX_DIGIT_UNIT(k, &up[22], v, &wp[22]);

	mov	eax, 4
	imul	ecx, eax, 22
	add	ecx, DWORD PTR _wp$[ebp]
	push	ecx
	mov	edx, DWORD PTR _v$[ebp]
	push	edx
	mov	eax, 4
	imul	ecx, eax, 22
	add	ecx, DWORD PTR _up$[ebp]
	push	ecx
	mov	edx, DWORD PTR _k$[ebp]
	push	edx
	call	__MULTIPLYX_DIGIT_UNIT
	add	esp, 16					; 00000010H
	mov	DWORD PTR _k$[ebp], eax

; 241  :         k = _MULTIPLYX_DIGIT_UNIT(k, &up[23], v, &wp[23]);

	mov	eax, 4
	imul	ecx, eax, 23
	add	ecx, DWORD PTR _wp$[ebp]
	push	ecx
	mov	edx, DWORD PTR _v$[ebp]
	push	edx
	mov	eax, 4
	imul	ecx, eax, 23
	add	ecx, DWORD PTR _up$[ebp]
	push	ecx
	mov	edx, DWORD PTR _k$[ebp]
	push	edx
	call	__MULTIPLYX_DIGIT_UNIT
	add	esp, 16					; 00000010H
	mov	DWORD PTR _k$[ebp], eax

; 242  :         k = _MULTIPLYX_DIGIT_UNIT(k, &up[24], v, &wp[24]);

	mov	eax, 4
	imul	ecx, eax, 24
	add	ecx, DWORD PTR _wp$[ebp]
	push	ecx
	mov	edx, DWORD PTR _v$[ebp]
	push	edx
	mov	eax, 4
	imul	ecx, eax, 24
	add	ecx, DWORD PTR _up$[ebp]
	push	ecx
	mov	edx, DWORD PTR _k$[ebp]
	push	edx
	call	__MULTIPLYX_DIGIT_UNIT
	add	esp, 16					; 00000010H
	mov	DWORD PTR _k$[ebp], eax

; 243  :         k = _MULTIPLYX_DIGIT_UNIT(k, &up[25], v, &wp[25]);

	mov	eax, 4
	imul	ecx, eax, 25
	add	ecx, DWORD PTR _wp$[ebp]
	push	ecx
	mov	edx, DWORD PTR _v$[ebp]
	push	edx
	mov	eax, 4
	imul	ecx, eax, 25
	add	ecx, DWORD PTR _up$[ebp]
	push	ecx
	mov	edx, DWORD PTR _k$[ebp]
	push	edx
	call	__MULTIPLYX_DIGIT_UNIT
	add	esp, 16					; 00000010H
	mov	DWORD PTR _k$[ebp], eax

; 244  :         k = _MULTIPLYX_DIGIT_UNIT(k, &up[26], v, &wp[26]);

	mov	eax, 4
	imul	ecx, eax, 26
	add	ecx, DWORD PTR _wp$[ebp]
	push	ecx
	mov	edx, DWORD PTR _v$[ebp]
	push	edx
	mov	eax, 4
	imul	ecx, eax, 26
	add	ecx, DWORD PTR _up$[ebp]
	push	ecx
	mov	edx, DWORD PTR _k$[ebp]
	push	edx
	call	__MULTIPLYX_DIGIT_UNIT
	add	esp, 16					; 00000010H
	mov	DWORD PTR _k$[ebp], eax

; 245  :         k = _MULTIPLYX_DIGIT_UNIT(k, &up[27], v, &wp[27]);

	mov	eax, 4
	imul	ecx, eax, 27
	add	ecx, DWORD PTR _wp$[ebp]
	push	ecx
	mov	edx, DWORD PTR _v$[ebp]
	push	edx
	mov	eax, 4
	imul	ecx, eax, 27
	add	ecx, DWORD PTR _up$[ebp]
	push	ecx
	mov	edx, DWORD PTR _k$[ebp]
	push	edx
	call	__MULTIPLYX_DIGIT_UNIT
	add	esp, 16					; 00000010H
	mov	DWORD PTR _k$[ebp], eax

; 246  :         k = _MULTIPLYX_DIGIT_UNIT(k, &up[28], v, &wp[28]);

	mov	eax, 4
	imul	ecx, eax, 28
	add	ecx, DWORD PTR _wp$[ebp]
	push	ecx
	mov	edx, DWORD PTR _v$[ebp]
	push	edx
	mov	eax, 4
	imul	ecx, eax, 28
	add	ecx, DWORD PTR _up$[ebp]
	push	ecx
	mov	edx, DWORD PTR _k$[ebp]
	push	edx
	call	__MULTIPLYX_DIGIT_UNIT
	add	esp, 16					; 00000010H
	mov	DWORD PTR _k$[ebp], eax

; 247  :         k = _MULTIPLYX_DIGIT_UNIT(k, &up[29], v, &wp[29]);

	mov	eax, 4
	imul	ecx, eax, 29
	add	ecx, DWORD PTR _wp$[ebp]
	push	ecx
	mov	edx, DWORD PTR _v$[ebp]
	push	edx
	mov	eax, 4
	imul	ecx, eax, 29
	add	ecx, DWORD PTR _up$[ebp]
	push	ecx
	mov	edx, DWORD PTR _k$[ebp]
	push	edx
	call	__MULTIPLYX_DIGIT_UNIT
	add	esp, 16					; 00000010H
	mov	DWORD PTR _k$[ebp], eax

; 248  :         k = _MULTIPLYX_DIGIT_UNIT(k, &up[30], v, &wp[30]);

	mov	eax, 4
	imul	ecx, eax, 30
	add	ecx, DWORD PTR _wp$[ebp]
	push	ecx
	mov	edx, DWORD PTR _v$[ebp]
	push	edx
	mov	eax, 4
	imul	ecx, eax, 30
	add	ecx, DWORD PTR _up$[ebp]
	push	ecx
	mov	edx, DWORD PTR _k$[ebp]
	push	edx
	call	__MULTIPLYX_DIGIT_UNIT
	add	esp, 16					; 00000010H
	mov	DWORD PTR _k$[ebp], eax

; 249  :         k = _MULTIPLYX_DIGIT_UNIT(k, &up[31], v, &wp[31]);

	mov	eax, 4
	imul	ecx, eax, 31
	add	ecx, DWORD PTR _wp$[ebp]
	push	ecx
	mov	edx, DWORD PTR _v$[ebp]
	push	edx
	mov	eax, 4
	imul	ecx, eax, 31
	add	ecx, DWORD PTR _up$[ebp]
	push	ecx
	mov	edx, DWORD PTR _k$[ebp]
	push	edx
	call	__MULTIPLYX_DIGIT_UNIT
	add	esp, 16					; 00000010H
	mov	DWORD PTR _k$[ebp], eax

; 250  :         up += 32;

	mov	eax, DWORD PTR _up$[ebp]
	add	eax, 128				; 00000080H
	mov	DWORD PTR _up$[ebp], eax

; 251  :         wp += 32;

	mov	ecx, DWORD PTR _wp$[ebp]
	add	ecx, 128				; 00000080H
	mov	DWORD PTR _wp$[ebp], ecx

; 252  :         --count;

	mov	edx, DWORD PTR _count$[ebp]
	sub	edx, 1
	mov	DWORD PTR _count$[ebp], edx

; 253  : #ifdef ENABLED_PERFORMANCE_COUNTER
; 254  :         if (sizeof(k) == sizeof(_UINT32_T))

	mov	eax, 1
	test	eax, eax
	je	SHORT $LN4@Multiply_W

; 255  :             AddToMULTI32Counter(32);

	push	32					; 00000020H
	call	_AddToMULTI32Counter
	add	esp, 4
	jmp	SHORT $LN5@Multiply_W
$LN4@Multiply_W:

; 256  :         else
; 257  :             AddToMULTI64Counter(32);

	push	32					; 00000020H
	call	_AddToMULTI64Counter
	add	esp, 4
$LN5@Multiply_W:

; 258  : #endif
; 259  :     }

	jmp	$LN2@Multiply_W
$LN3@Multiply_W:

; 260  : 
; 261  :     if (u_count & 0x10)

	mov	ecx, DWORD PTR _u_count$[ebp]
	and	ecx, 16					; 00000010H
	je	$LN6@Multiply_W

; 262  :     {
; 263  :         k = _MULTIPLYX_DIGIT_UNIT(k, &up[0], v, &wp[0]);

	mov	edx, 4
	imul	eax, edx, 0
	add	eax, DWORD PTR _wp$[ebp]
	push	eax
	mov	ecx, DWORD PTR _v$[ebp]
	push	ecx
	mov	edx, 4
	imul	eax, edx, 0
	add	eax, DWORD PTR _up$[ebp]
	push	eax
	mov	ecx, DWORD PTR _k$[ebp]
	push	ecx
	call	__MULTIPLYX_DIGIT_UNIT
	add	esp, 16					; 00000010H
	mov	DWORD PTR _k$[ebp], eax

; 264  :         k = _MULTIPLYX_DIGIT_UNIT(k, &up[1], v, &wp[1]);

	mov	edx, 4
	shl	edx, 0
	add	edx, DWORD PTR _wp$[ebp]
	push	edx
	mov	eax, DWORD PTR _v$[ebp]
	push	eax
	mov	ecx, 4
	shl	ecx, 0
	add	ecx, DWORD PTR _up$[ebp]
	push	ecx
	mov	edx, DWORD PTR _k$[ebp]
	push	edx
	call	__MULTIPLYX_DIGIT_UNIT
	add	esp, 16					; 00000010H
	mov	DWORD PTR _k$[ebp], eax

; 265  :         k = _MULTIPLYX_DIGIT_UNIT(k, &up[2], v, &wp[2]);

	mov	eax, 4
	shl	eax, 1
	add	eax, DWORD PTR _wp$[ebp]
	push	eax
	mov	ecx, DWORD PTR _v$[ebp]
	push	ecx
	mov	edx, 4
	shl	edx, 1
	add	edx, DWORD PTR _up$[ebp]
	push	edx
	mov	eax, DWORD PTR _k$[ebp]
	push	eax
	call	__MULTIPLYX_DIGIT_UNIT
	add	esp, 16					; 00000010H
	mov	DWORD PTR _k$[ebp], eax

; 266  :         k = _MULTIPLYX_DIGIT_UNIT(k, &up[3], v, &wp[3]);

	mov	ecx, 4
	imul	edx, ecx, 3
	add	edx, DWORD PTR _wp$[ebp]
	push	edx
	mov	eax, DWORD PTR _v$[ebp]
	push	eax
	mov	ecx, 4
	imul	edx, ecx, 3
	add	edx, DWORD PTR _up$[ebp]
	push	edx
	mov	eax, DWORD PTR _k$[ebp]
	push	eax
	call	__MULTIPLYX_DIGIT_UNIT
	add	esp, 16					; 00000010H
	mov	DWORD PTR _k$[ebp], eax

; 267  :         k = _MULTIPLYX_DIGIT_UNIT(k, &up[4], v, &wp[4]);

	mov	ecx, 4
	shl	ecx, 2
	add	ecx, DWORD PTR _wp$[ebp]
	push	ecx
	mov	edx, DWORD PTR _v$[ebp]
	push	edx
	mov	eax, 4
	shl	eax, 2
	add	eax, DWORD PTR _up$[ebp]
	push	eax
	mov	ecx, DWORD PTR _k$[ebp]
	push	ecx
	call	__MULTIPLYX_DIGIT_UNIT
	add	esp, 16					; 00000010H
	mov	DWORD PTR _k$[ebp], eax

; 268  :         k = _MULTIPLYX_DIGIT_UNIT(k, &up[5], v, &wp[5]);

	mov	edx, 4
	imul	eax, edx, 5
	add	eax, DWORD PTR _wp$[ebp]
	push	eax
	mov	ecx, DWORD PTR _v$[ebp]
	push	ecx
	mov	edx, 4
	imul	eax, edx, 5
	add	eax, DWORD PTR _up$[ebp]
	push	eax
	mov	ecx, DWORD PTR _k$[ebp]
	push	ecx
	call	__MULTIPLYX_DIGIT_UNIT
	add	esp, 16					; 00000010H
	mov	DWORD PTR _k$[ebp], eax

; 269  :         k = _MULTIPLYX_DIGIT_UNIT(k, &up[6], v, &wp[6]);

	mov	edx, 4
	imul	eax, edx, 6
	add	eax, DWORD PTR _wp$[ebp]
	push	eax
	mov	ecx, DWORD PTR _v$[ebp]
	push	ecx
	mov	edx, 4
	imul	eax, edx, 6
	add	eax, DWORD PTR _up$[ebp]
	push	eax
	mov	ecx, DWORD PTR _k$[ebp]
	push	ecx
	call	__MULTIPLYX_DIGIT_UNIT
	add	esp, 16					; 00000010H
	mov	DWORD PTR _k$[ebp], eax

; 270  :         k = _MULTIPLYX_DIGIT_UNIT(k, &up[7], v, &wp[7]);

	mov	edx, 4
	imul	eax, edx, 7
	add	eax, DWORD PTR _wp$[ebp]
	push	eax
	mov	ecx, DWORD PTR _v$[ebp]
	push	ecx
	mov	edx, 4
	imul	eax, edx, 7
	add	eax, DWORD PTR _up$[ebp]
	push	eax
	mov	ecx, DWORD PTR _k$[ebp]
	push	ecx
	call	__MULTIPLYX_DIGIT_UNIT
	add	esp, 16					; 00000010H
	mov	DWORD PTR _k$[ebp], eax

; 271  :         k = _MULTIPLYX_DIGIT_UNIT(k, &up[8], v, &wp[8]);

	mov	edx, 4
	shl	edx, 3
	add	edx, DWORD PTR _wp$[ebp]
	push	edx
	mov	eax, DWORD PTR _v$[ebp]
	push	eax
	mov	ecx, 4
	shl	ecx, 3
	add	ecx, DWORD PTR _up$[ebp]
	push	ecx
	mov	edx, DWORD PTR _k$[ebp]
	push	edx
	call	__MULTIPLYX_DIGIT_UNIT
	add	esp, 16					; 00000010H
	mov	DWORD PTR _k$[ebp], eax

; 272  :         k = _MULTIPLYX_DIGIT_UNIT(k, &up[9], v, &wp[9]);

	mov	eax, 4
	imul	ecx, eax, 9
	add	ecx, DWORD PTR _wp$[ebp]
	push	ecx
	mov	edx, DWORD PTR _v$[ebp]
	push	edx
	mov	eax, 4
	imul	ecx, eax, 9
	add	ecx, DWORD PTR _up$[ebp]
	push	ecx
	mov	edx, DWORD PTR _k$[ebp]
	push	edx
	call	__MULTIPLYX_DIGIT_UNIT
	add	esp, 16					; 00000010H
	mov	DWORD PTR _k$[ebp], eax

; 273  :         k = _MULTIPLYX_DIGIT_UNIT(k, &up[10], v, &wp[10]);

	mov	eax, 4
	imul	ecx, eax, 10
	add	ecx, DWORD PTR _wp$[ebp]
	push	ecx
	mov	edx, DWORD PTR _v$[ebp]
	push	edx
	mov	eax, 4
	imul	ecx, eax, 10
	add	ecx, DWORD PTR _up$[ebp]
	push	ecx
	mov	edx, DWORD PTR _k$[ebp]
	push	edx
	call	__MULTIPLYX_DIGIT_UNIT
	add	esp, 16					; 00000010H
	mov	DWORD PTR _k$[ebp], eax

; 274  :         k = _MULTIPLYX_DIGIT_UNIT(k, &up[11], v, &wp[11]);

	mov	eax, 4
	imul	ecx, eax, 11
	add	ecx, DWORD PTR _wp$[ebp]
	push	ecx
	mov	edx, DWORD PTR _v$[ebp]
	push	edx
	mov	eax, 4
	imul	ecx, eax, 11
	add	ecx, DWORD PTR _up$[ebp]
	push	ecx
	mov	edx, DWORD PTR _k$[ebp]
	push	edx
	call	__MULTIPLYX_DIGIT_UNIT
	add	esp, 16					; 00000010H
	mov	DWORD PTR _k$[ebp], eax

; 275  :         k = _MULTIPLYX_DIGIT_UNIT(k, &up[12], v, &wp[12]);

	mov	eax, 4
	imul	ecx, eax, 12
	add	ecx, DWORD PTR _wp$[ebp]
	push	ecx
	mov	edx, DWORD PTR _v$[ebp]
	push	edx
	mov	eax, 4
	imul	ecx, eax, 12
	add	ecx, DWORD PTR _up$[ebp]
	push	ecx
	mov	edx, DWORD PTR _k$[ebp]
	push	edx
	call	__MULTIPLYX_DIGIT_UNIT
	add	esp, 16					; 00000010H
	mov	DWORD PTR _k$[ebp], eax

; 276  :         k = _MULTIPLYX_DIGIT_UNIT(k, &up[13], v, &wp[13]);

	mov	eax, 4
	imul	ecx, eax, 13
	add	ecx, DWORD PTR _wp$[ebp]
	push	ecx
	mov	edx, DWORD PTR _v$[ebp]
	push	edx
	mov	eax, 4
	imul	ecx, eax, 13
	add	ecx, DWORD PTR _up$[ebp]
	push	ecx
	mov	edx, DWORD PTR _k$[ebp]
	push	edx
	call	__MULTIPLYX_DIGIT_UNIT
	add	esp, 16					; 00000010H
	mov	DWORD PTR _k$[ebp], eax

; 277  :         k = _MULTIPLYX_DIGIT_UNIT(k, &up[14], v, &wp[14]);

	mov	eax, 4
	imul	ecx, eax, 14
	add	ecx, DWORD PTR _wp$[ebp]
	push	ecx
	mov	edx, DWORD PTR _v$[ebp]
	push	edx
	mov	eax, 4
	imul	ecx, eax, 14
	add	ecx, DWORD PTR _up$[ebp]
	push	ecx
	mov	edx, DWORD PTR _k$[ebp]
	push	edx
	call	__MULTIPLYX_DIGIT_UNIT
	add	esp, 16					; 00000010H
	mov	DWORD PTR _k$[ebp], eax

; 278  :         k = _MULTIPLYX_DIGIT_UNIT(k, &up[15], v, &wp[15]);

	mov	eax, 4
	imul	ecx, eax, 15
	add	ecx, DWORD PTR _wp$[ebp]
	push	ecx
	mov	edx, DWORD PTR _v$[ebp]
	push	edx
	mov	eax, 4
	imul	ecx, eax, 15
	add	ecx, DWORD PTR _up$[ebp]
	push	ecx
	mov	edx, DWORD PTR _k$[ebp]
	push	edx
	call	__MULTIPLYX_DIGIT_UNIT
	add	esp, 16					; 00000010H
	mov	DWORD PTR _k$[ebp], eax

; 279  :         up += 16;

	mov	eax, DWORD PTR _up$[ebp]
	add	eax, 64					; 00000040H
	mov	DWORD PTR _up$[ebp], eax

; 280  :         wp += 16;

	mov	ecx, DWORD PTR _wp$[ebp]
	add	ecx, 64					; 00000040H
	mov	DWORD PTR _wp$[ebp], ecx

; 281  : #ifdef ENABLED_PERFORMANCE_COUNTER
; 282  :         if (sizeof(k) == sizeof(_UINT32_T))

	mov	edx, 1
	test	edx, edx
	je	SHORT $LN7@Multiply_W

; 283  :             AddToMULTI32Counter(16);

	push	16					; 00000010H
	call	_AddToMULTI32Counter
	add	esp, 4
	jmp	SHORT $LN6@Multiply_W
$LN7@Multiply_W:

; 284  :         else
; 285  :             AddToMULTI64Counter(16);

	push	16					; 00000010H
	call	_AddToMULTI64Counter
	add	esp, 4
$LN6@Multiply_W:

; 286  : #endif
; 287  :     }
; 288  : 
; 289  :     if (u_count & 0x8)

	mov	eax, DWORD PTR _u_count$[ebp]
	and	eax, 8
	je	$LN9@Multiply_W

; 290  :     {
; 291  :         k = _MULTIPLYX_DIGIT_UNIT(k, &up[0], v, &wp[0]);

	mov	ecx, 4
	imul	edx, ecx, 0
	add	edx, DWORD PTR _wp$[ebp]
	push	edx
	mov	eax, DWORD PTR _v$[ebp]
	push	eax
	mov	ecx, 4
	imul	edx, ecx, 0
	add	edx, DWORD PTR _up$[ebp]
	push	edx
	mov	eax, DWORD PTR _k$[ebp]
	push	eax
	call	__MULTIPLYX_DIGIT_UNIT
	add	esp, 16					; 00000010H
	mov	DWORD PTR _k$[ebp], eax

; 292  :         k = _MULTIPLYX_DIGIT_UNIT(k, &up[1], v, &wp[1]);

	mov	ecx, 4
	shl	ecx, 0
	add	ecx, DWORD PTR _wp$[ebp]
	push	ecx
	mov	edx, DWORD PTR _v$[ebp]
	push	edx
	mov	eax, 4
	shl	eax, 0
	add	eax, DWORD PTR _up$[ebp]
	push	eax
	mov	ecx, DWORD PTR _k$[ebp]
	push	ecx
	call	__MULTIPLYX_DIGIT_UNIT
	add	esp, 16					; 00000010H
	mov	DWORD PTR _k$[ebp], eax

; 293  :         k = _MULTIPLYX_DIGIT_UNIT(k, &up[2], v, &wp[2]);

	mov	edx, 4
	shl	edx, 1
	add	edx, DWORD PTR _wp$[ebp]
	push	edx
	mov	eax, DWORD PTR _v$[ebp]
	push	eax
	mov	ecx, 4
	shl	ecx, 1
	add	ecx, DWORD PTR _up$[ebp]
	push	ecx
	mov	edx, DWORD PTR _k$[ebp]
	push	edx
	call	__MULTIPLYX_DIGIT_UNIT
	add	esp, 16					; 00000010H
	mov	DWORD PTR _k$[ebp], eax

; 294  :         k = _MULTIPLYX_DIGIT_UNIT(k, &up[3], v, &wp[3]);

	mov	eax, 4
	imul	ecx, eax, 3
	add	ecx, DWORD PTR _wp$[ebp]
	push	ecx
	mov	edx, DWORD PTR _v$[ebp]
	push	edx
	mov	eax, 4
	imul	ecx, eax, 3
	add	ecx, DWORD PTR _up$[ebp]
	push	ecx
	mov	edx, DWORD PTR _k$[ebp]
	push	edx
	call	__MULTIPLYX_DIGIT_UNIT
	add	esp, 16					; 00000010H
	mov	DWORD PTR _k$[ebp], eax

; 295  :         k = _MULTIPLYX_DIGIT_UNIT(k, &up[4], v, &wp[4]);

	mov	eax, 4
	shl	eax, 2
	add	eax, DWORD PTR _wp$[ebp]
	push	eax
	mov	ecx, DWORD PTR _v$[ebp]
	push	ecx
	mov	edx, 4
	shl	edx, 2
	add	edx, DWORD PTR _up$[ebp]
	push	edx
	mov	eax, DWORD PTR _k$[ebp]
	push	eax
	call	__MULTIPLYX_DIGIT_UNIT
	add	esp, 16					; 00000010H
	mov	DWORD PTR _k$[ebp], eax

; 296  :         k = _MULTIPLYX_DIGIT_UNIT(k, &up[5], v, &wp[5]);

	mov	ecx, 4
	imul	edx, ecx, 5
	add	edx, DWORD PTR _wp$[ebp]
	push	edx
	mov	eax, DWORD PTR _v$[ebp]
	push	eax
	mov	ecx, 4
	imul	edx, ecx, 5
	add	edx, DWORD PTR _up$[ebp]
	push	edx
	mov	eax, DWORD PTR _k$[ebp]
	push	eax
	call	__MULTIPLYX_DIGIT_UNIT
	add	esp, 16					; 00000010H
	mov	DWORD PTR _k$[ebp], eax

; 297  :         k = _MULTIPLYX_DIGIT_UNIT(k, &up[6], v, &wp[6]);

	mov	ecx, 4
	imul	edx, ecx, 6
	add	edx, DWORD PTR _wp$[ebp]
	push	edx
	mov	eax, DWORD PTR _v$[ebp]
	push	eax
	mov	ecx, 4
	imul	edx, ecx, 6
	add	edx, DWORD PTR _up$[ebp]
	push	edx
	mov	eax, DWORD PTR _k$[ebp]
	push	eax
	call	__MULTIPLYX_DIGIT_UNIT
	add	esp, 16					; 00000010H
	mov	DWORD PTR _k$[ebp], eax

; 298  :         k = _MULTIPLYX_DIGIT_UNIT(k, &up[7], v, &wp[7]);

	mov	ecx, 4
	imul	edx, ecx, 7
	add	edx, DWORD PTR _wp$[ebp]
	push	edx
	mov	eax, DWORD PTR _v$[ebp]
	push	eax
	mov	ecx, 4
	imul	edx, ecx, 7
	add	edx, DWORD PTR _up$[ebp]
	push	edx
	mov	eax, DWORD PTR _k$[ebp]
	push	eax
	call	__MULTIPLYX_DIGIT_UNIT
	add	esp, 16					; 00000010H
	mov	DWORD PTR _k$[ebp], eax

; 299  :         up += 8;

	mov	ecx, DWORD PTR _up$[ebp]
	add	ecx, 32					; 00000020H
	mov	DWORD PTR _up$[ebp], ecx

; 300  :         wp += 8;

	mov	edx, DWORD PTR _wp$[ebp]
	add	edx, 32					; 00000020H
	mov	DWORD PTR _wp$[ebp], edx

; 301  : #ifdef ENABLED_PERFORMANCE_COUNTER
; 302  :         if (sizeof(k) == sizeof(_UINT32_T))

	mov	eax, 1
	test	eax, eax
	je	SHORT $LN10@Multiply_W

; 303  :             AddToMULTI32Counter(8);

	push	8
	call	_AddToMULTI32Counter
	add	esp, 4
	jmp	SHORT $LN9@Multiply_W
$LN10@Multiply_W:

; 304  :         else
; 305  :             AddToMULTI64Counter(8);

	push	8
	call	_AddToMULTI64Counter
	add	esp, 4
$LN9@Multiply_W:

; 306  : #endif
; 307  :     }
; 308  : 
; 309  :     if (u_count & 0x4)

	mov	ecx, DWORD PTR _u_count$[ebp]
	and	ecx, 4
	je	$LN12@Multiply_W

; 310  :     {
; 311  :         k = _MULTIPLYX_DIGIT_UNIT(k, &up[0], v, &wp[0]);

	mov	edx, 4
	imul	eax, edx, 0
	add	eax, DWORD PTR _wp$[ebp]
	push	eax
	mov	ecx, DWORD PTR _v$[ebp]
	push	ecx
	mov	edx, 4
	imul	eax, edx, 0
	add	eax, DWORD PTR _up$[ebp]
	push	eax
	mov	ecx, DWORD PTR _k$[ebp]
	push	ecx
	call	__MULTIPLYX_DIGIT_UNIT
	add	esp, 16					; 00000010H
	mov	DWORD PTR _k$[ebp], eax

; 312  :         k = _MULTIPLYX_DIGIT_UNIT(k, &up[1], v, &wp[1]);

	mov	edx, 4
	shl	edx, 0
	add	edx, DWORD PTR _wp$[ebp]
	push	edx
	mov	eax, DWORD PTR _v$[ebp]
	push	eax
	mov	ecx, 4
	shl	ecx, 0
	add	ecx, DWORD PTR _up$[ebp]
	push	ecx
	mov	edx, DWORD PTR _k$[ebp]
	push	edx
	call	__MULTIPLYX_DIGIT_UNIT
	add	esp, 16					; 00000010H
	mov	DWORD PTR _k$[ebp], eax

; 313  :         k = _MULTIPLYX_DIGIT_UNIT(k, &up[2], v, &wp[2]);

	mov	eax, 4
	shl	eax, 1
	add	eax, DWORD PTR _wp$[ebp]
	push	eax
	mov	ecx, DWORD PTR _v$[ebp]
	push	ecx
	mov	edx, 4
	shl	edx, 1
	add	edx, DWORD PTR _up$[ebp]
	push	edx
	mov	eax, DWORD PTR _k$[ebp]
	push	eax
	call	__MULTIPLYX_DIGIT_UNIT
	add	esp, 16					; 00000010H
	mov	DWORD PTR _k$[ebp], eax

; 314  :         k = _MULTIPLYX_DIGIT_UNIT(k, &up[3], v, &wp[3]);

	mov	ecx, 4
	imul	edx, ecx, 3
	add	edx, DWORD PTR _wp$[ebp]
	push	edx
	mov	eax, DWORD PTR _v$[ebp]
	push	eax
	mov	ecx, 4
	imul	edx, ecx, 3
	add	edx, DWORD PTR _up$[ebp]
	push	edx
	mov	eax, DWORD PTR _k$[ebp]
	push	eax
	call	__MULTIPLYX_DIGIT_UNIT
	add	esp, 16					; 00000010H
	mov	DWORD PTR _k$[ebp], eax

; 315  :         up += 4;

	mov	ecx, DWORD PTR _up$[ebp]
	add	ecx, 16					; 00000010H
	mov	DWORD PTR _up$[ebp], ecx

; 316  :         wp += 4;

	mov	edx, DWORD PTR _wp$[ebp]
	add	edx, 16					; 00000010H
	mov	DWORD PTR _wp$[ebp], edx

; 317  : #ifdef ENABLED_PERFORMANCE_COUNTER
; 318  :         if (sizeof(k) == sizeof(_UINT32_T))

	mov	eax, 1
	test	eax, eax
	je	SHORT $LN13@Multiply_W

; 319  :             AddToMULTI32Counter(4);

	push	4
	call	_AddToMULTI32Counter
	add	esp, 4
	jmp	SHORT $LN12@Multiply_W
$LN13@Multiply_W:

; 320  :         else
; 321  :             AddToMULTI64Counter(4);

	push	4
	call	_AddToMULTI64Counter
	add	esp, 4
$LN12@Multiply_W:

; 322  : #endif
; 323  :     }
; 324  : 
; 325  :     if (u_count & 0x2)

	mov	ecx, DWORD PTR _u_count$[ebp]
	and	ecx, 2
	je	$LN15@Multiply_W

; 326  :     {
; 327  :         k = _MULTIPLYX_DIGIT_UNIT(k, &up[0], v, &wp[0]);

	mov	edx, 4
	imul	eax, edx, 0
	add	eax, DWORD PTR _wp$[ebp]
	push	eax
	mov	ecx, DWORD PTR _v$[ebp]
	push	ecx
	mov	edx, 4
	imul	eax, edx, 0
	add	eax, DWORD PTR _up$[ebp]
	push	eax
	mov	ecx, DWORD PTR _k$[ebp]
	push	ecx
	call	__MULTIPLYX_DIGIT_UNIT
	add	esp, 16					; 00000010H
	mov	DWORD PTR _k$[ebp], eax

; 328  :         k = _MULTIPLYX_DIGIT_UNIT(k, &up[1], v, &wp[1]);

	mov	edx, 4
	shl	edx, 0
	add	edx, DWORD PTR _wp$[ebp]
	push	edx
	mov	eax, DWORD PTR _v$[ebp]
	push	eax
	mov	ecx, 4
	shl	ecx, 0
	add	ecx, DWORD PTR _up$[ebp]
	push	ecx
	mov	edx, DWORD PTR _k$[ebp]
	push	edx
	call	__MULTIPLYX_DIGIT_UNIT
	add	esp, 16					; 00000010H
	mov	DWORD PTR _k$[ebp], eax

; 329  :         up += 2;

	mov	eax, DWORD PTR _up$[ebp]
	add	eax, 8
	mov	DWORD PTR _up$[ebp], eax

; 330  :         wp += 2;

	mov	ecx, DWORD PTR _wp$[ebp]
	add	ecx, 8
	mov	DWORD PTR _wp$[ebp], ecx

; 331  : #ifdef ENABLED_PERFORMANCE_COUNTER
; 332  :         if (sizeof(k) == sizeof(_UINT32_T))

	mov	edx, 1
	test	edx, edx
	je	SHORT $LN16@Multiply_W

; 333  :             AddToMULTI32Counter(2);

	push	2
	call	_AddToMULTI32Counter
	add	esp, 4
	jmp	SHORT $LN15@Multiply_W
$LN16@Multiply_W:

; 334  :         else
; 335  :             AddToMULTI64Counter(2);

	push	2
	call	_AddToMULTI64Counter
	add	esp, 4
$LN15@Multiply_W:

; 336  : #endif
; 337  :     }
; 338  : 
; 339  :     if (u_count & 0x1)

	mov	eax, DWORD PTR _u_count$[ebp]
	and	eax, 1
	je	SHORT $LN18@Multiply_W

; 340  :     {
; 341  :         k = _MULTIPLYX_DIGIT_UNIT(k, &up[0], v, &wp[0]);

	mov	ecx, 4
	imul	edx, ecx, 0
	add	edx, DWORD PTR _wp$[ebp]
	push	edx
	mov	eax, DWORD PTR _v$[ebp]
	push	eax
	mov	ecx, 4
	imul	edx, ecx, 0
	add	edx, DWORD PTR _up$[ebp]
	push	edx
	mov	eax, DWORD PTR _k$[ebp]
	push	eax
	call	__MULTIPLYX_DIGIT_UNIT
	add	esp, 16					; 00000010H
	mov	DWORD PTR _k$[ebp], eax

; 342  :         up += 1;

	mov	ecx, DWORD PTR _up$[ebp]
	add	ecx, 4
	mov	DWORD PTR _up$[ebp], ecx

; 343  :         wp += 1;

	mov	edx, DWORD PTR _wp$[ebp]
	add	edx, 4
	mov	DWORD PTR _wp$[ebp], edx

; 344  : #ifdef ENABLED_PERFORMANCE_COUNTER
; 345  :         if (sizeof(k) == sizeof(_UINT32_T))

	mov	eax, 1
	test	eax, eax
	je	SHORT $LN19@Multiply_W

; 346  :             IncrementMULTI32Counter();

	call	_IncrementMULTI32Counter
	jmp	SHORT $LN18@Multiply_W
$LN19@Multiply_W:

; 347  :         else
; 348  :             IncrementMULTI64Counter();

	call	_IncrementMULTI64Counter
$LN18@Multiply_W:

; 349  : #endif
; 350  :     }
; 351  : 
; 352  :     if (k != 0)

	cmp	DWORD PTR _k$[ebp], 0
	je	SHORT $LN21@Multiply_W

; 353  :         *wp = k;

	mov	ecx, DWORD PTR _wp$[ebp]
	mov	edx, DWORD PTR _k$[ebp]
	mov	DWORD PTR [ecx], edx
$LN21@Multiply_W:

; 354  : 
; 355  :     return (PMC_STATUS_OK);

	xor	eax, eax

; 356  : }

	add	esp, 8
	cmp	ebp, esp
	call	__RTC_CheckEsp
	mov	esp, ebp
	pop	ebp
	ret	0
_Multiply_WORD_using_MULX_ADCX ENDP
_TEXT	ENDS
; Function compile flags: /Odtp /RTCsu
; File z:\sources\lunor\repos\rougemeilland\palmtree.math.core.uint\palmtree.math.core.uint\pmc_multiply.c
_TEXT	SEGMENT
_count$ = -8						; size = 4
_k$ = -4						; size = 4
_up$ = 8						; size = 4
_u_count$ = 12						; size = 4
_v$ = 16						; size = 4
_wp$ = 20						; size = 4
_Multiply_WORD_using_MUL_ADC PROC

; 65   : {

	push	ebp
	mov	ebp, esp
	sub	esp, 8
	mov	DWORD PTR [ebp-8], -858993460		; ccccccccH
	mov	DWORD PTR [ebp-4], -858993460		; ccccccccH
	mov	ecx, OFFSET __B6A081C3_pmc_multiply@c
	call	@__CheckForDebuggerJustMyCode@4

; 66   :     __UNIT_TYPE k = 0;

	mov	DWORD PTR _k$[ebp], 0

; 67   :     __UNIT_TYPE count = u_count >> 5;

	mov	eax, DWORD PTR _u_count$[ebp]
	shr	eax, 5
	mov	DWORD PTR _count$[ebp], eax
$LN2@Multiply_W:

; 68   : 
; 69   :     while (count != 0)

	cmp	DWORD PTR _count$[ebp], 0
	je	$LN3@Multiply_W

; 70   :     {
; 71   :         k = _MULTIPLY_DIGIT_UNIT(k, &up[0], v, &wp[0]);

	mov	ecx, 4
	imul	edx, ecx, 0
	add	edx, DWORD PTR _wp$[ebp]
	push	edx
	mov	eax, DWORD PTR _v$[ebp]
	push	eax
	mov	ecx, 4
	imul	edx, ecx, 0
	add	edx, DWORD PTR _up$[ebp]
	push	edx
	mov	eax, DWORD PTR _k$[ebp]
	push	eax
	call	__MULTIPLY_DIGIT_UNIT
	add	esp, 16					; 00000010H
	mov	DWORD PTR _k$[ebp], eax

; 72   :         k = _MULTIPLY_DIGIT_UNIT(k, &up[1], v, &wp[1]);

	mov	ecx, 4
	shl	ecx, 0
	add	ecx, DWORD PTR _wp$[ebp]
	push	ecx
	mov	edx, DWORD PTR _v$[ebp]
	push	edx
	mov	eax, 4
	shl	eax, 0
	add	eax, DWORD PTR _up$[ebp]
	push	eax
	mov	ecx, DWORD PTR _k$[ebp]
	push	ecx
	call	__MULTIPLY_DIGIT_UNIT
	add	esp, 16					; 00000010H
	mov	DWORD PTR _k$[ebp], eax

; 73   :         k = _MULTIPLY_DIGIT_UNIT(k, &up[2], v, &wp[2]);

	mov	edx, 4
	shl	edx, 1
	add	edx, DWORD PTR _wp$[ebp]
	push	edx
	mov	eax, DWORD PTR _v$[ebp]
	push	eax
	mov	ecx, 4
	shl	ecx, 1
	add	ecx, DWORD PTR _up$[ebp]
	push	ecx
	mov	edx, DWORD PTR _k$[ebp]
	push	edx
	call	__MULTIPLY_DIGIT_UNIT
	add	esp, 16					; 00000010H
	mov	DWORD PTR _k$[ebp], eax

; 74   :         k = _MULTIPLY_DIGIT_UNIT(k, &up[3], v, &wp[3]);

	mov	eax, 4
	imul	ecx, eax, 3
	add	ecx, DWORD PTR _wp$[ebp]
	push	ecx
	mov	edx, DWORD PTR _v$[ebp]
	push	edx
	mov	eax, 4
	imul	ecx, eax, 3
	add	ecx, DWORD PTR _up$[ebp]
	push	ecx
	mov	edx, DWORD PTR _k$[ebp]
	push	edx
	call	__MULTIPLY_DIGIT_UNIT
	add	esp, 16					; 00000010H
	mov	DWORD PTR _k$[ebp], eax

; 75   :         k = _MULTIPLY_DIGIT_UNIT(k, &up[4], v, &wp[4]);

	mov	eax, 4
	shl	eax, 2
	add	eax, DWORD PTR _wp$[ebp]
	push	eax
	mov	ecx, DWORD PTR _v$[ebp]
	push	ecx
	mov	edx, 4
	shl	edx, 2
	add	edx, DWORD PTR _up$[ebp]
	push	edx
	mov	eax, DWORD PTR _k$[ebp]
	push	eax
	call	__MULTIPLY_DIGIT_UNIT
	add	esp, 16					; 00000010H
	mov	DWORD PTR _k$[ebp], eax

; 76   :         k = _MULTIPLY_DIGIT_UNIT(k, &up[5], v, &wp[5]);

	mov	ecx, 4
	imul	edx, ecx, 5
	add	edx, DWORD PTR _wp$[ebp]
	push	edx
	mov	eax, DWORD PTR _v$[ebp]
	push	eax
	mov	ecx, 4
	imul	edx, ecx, 5
	add	edx, DWORD PTR _up$[ebp]
	push	edx
	mov	eax, DWORD PTR _k$[ebp]
	push	eax
	call	__MULTIPLY_DIGIT_UNIT
	add	esp, 16					; 00000010H
	mov	DWORD PTR _k$[ebp], eax

; 77   :         k = _MULTIPLY_DIGIT_UNIT(k, &up[6], v, &wp[6]);

	mov	ecx, 4
	imul	edx, ecx, 6
	add	edx, DWORD PTR _wp$[ebp]
	push	edx
	mov	eax, DWORD PTR _v$[ebp]
	push	eax
	mov	ecx, 4
	imul	edx, ecx, 6
	add	edx, DWORD PTR _up$[ebp]
	push	edx
	mov	eax, DWORD PTR _k$[ebp]
	push	eax
	call	__MULTIPLY_DIGIT_UNIT
	add	esp, 16					; 00000010H
	mov	DWORD PTR _k$[ebp], eax

; 78   :         k = _MULTIPLY_DIGIT_UNIT(k, &up[7], v, &wp[7]);

	mov	ecx, 4
	imul	edx, ecx, 7
	add	edx, DWORD PTR _wp$[ebp]
	push	edx
	mov	eax, DWORD PTR _v$[ebp]
	push	eax
	mov	ecx, 4
	imul	edx, ecx, 7
	add	edx, DWORD PTR _up$[ebp]
	push	edx
	mov	eax, DWORD PTR _k$[ebp]
	push	eax
	call	__MULTIPLY_DIGIT_UNIT
	add	esp, 16					; 00000010H
	mov	DWORD PTR _k$[ebp], eax

; 79   :         k = _MULTIPLY_DIGIT_UNIT(k, &up[8], v, &wp[8]);

	mov	ecx, 4
	shl	ecx, 3
	add	ecx, DWORD PTR _wp$[ebp]
	push	ecx
	mov	edx, DWORD PTR _v$[ebp]
	push	edx
	mov	eax, 4
	shl	eax, 3
	add	eax, DWORD PTR _up$[ebp]
	push	eax
	mov	ecx, DWORD PTR _k$[ebp]
	push	ecx
	call	__MULTIPLY_DIGIT_UNIT
	add	esp, 16					; 00000010H
	mov	DWORD PTR _k$[ebp], eax

; 80   :         k = _MULTIPLY_DIGIT_UNIT(k, &up[9], v, &wp[9]);

	mov	edx, 4
	imul	eax, edx, 9
	add	eax, DWORD PTR _wp$[ebp]
	push	eax
	mov	ecx, DWORD PTR _v$[ebp]
	push	ecx
	mov	edx, 4
	imul	eax, edx, 9
	add	eax, DWORD PTR _up$[ebp]
	push	eax
	mov	ecx, DWORD PTR _k$[ebp]
	push	ecx
	call	__MULTIPLY_DIGIT_UNIT
	add	esp, 16					; 00000010H
	mov	DWORD PTR _k$[ebp], eax

; 81   :         k = _MULTIPLY_DIGIT_UNIT(k, &up[10], v, &wp[10]);

	mov	edx, 4
	imul	eax, edx, 10
	add	eax, DWORD PTR _wp$[ebp]
	push	eax
	mov	ecx, DWORD PTR _v$[ebp]
	push	ecx
	mov	edx, 4
	imul	eax, edx, 10
	add	eax, DWORD PTR _up$[ebp]
	push	eax
	mov	ecx, DWORD PTR _k$[ebp]
	push	ecx
	call	__MULTIPLY_DIGIT_UNIT
	add	esp, 16					; 00000010H
	mov	DWORD PTR _k$[ebp], eax

; 82   :         k = _MULTIPLY_DIGIT_UNIT(k, &up[11], v, &wp[11]);

	mov	edx, 4
	imul	eax, edx, 11
	add	eax, DWORD PTR _wp$[ebp]
	push	eax
	mov	ecx, DWORD PTR _v$[ebp]
	push	ecx
	mov	edx, 4
	imul	eax, edx, 11
	add	eax, DWORD PTR _up$[ebp]
	push	eax
	mov	ecx, DWORD PTR _k$[ebp]
	push	ecx
	call	__MULTIPLY_DIGIT_UNIT
	add	esp, 16					; 00000010H
	mov	DWORD PTR _k$[ebp], eax

; 83   :         k = _MULTIPLY_DIGIT_UNIT(k, &up[12], v, &wp[12]);

	mov	edx, 4
	imul	eax, edx, 12
	add	eax, DWORD PTR _wp$[ebp]
	push	eax
	mov	ecx, DWORD PTR _v$[ebp]
	push	ecx
	mov	edx, 4
	imul	eax, edx, 12
	add	eax, DWORD PTR _up$[ebp]
	push	eax
	mov	ecx, DWORD PTR _k$[ebp]
	push	ecx
	call	__MULTIPLY_DIGIT_UNIT
	add	esp, 16					; 00000010H
	mov	DWORD PTR _k$[ebp], eax

; 84   :         k = _MULTIPLY_DIGIT_UNIT(k, &up[13], v, &wp[13]);

	mov	edx, 4
	imul	eax, edx, 13
	add	eax, DWORD PTR _wp$[ebp]
	push	eax
	mov	ecx, DWORD PTR _v$[ebp]
	push	ecx
	mov	edx, 4
	imul	eax, edx, 13
	add	eax, DWORD PTR _up$[ebp]
	push	eax
	mov	ecx, DWORD PTR _k$[ebp]
	push	ecx
	call	__MULTIPLY_DIGIT_UNIT
	add	esp, 16					; 00000010H
	mov	DWORD PTR _k$[ebp], eax

; 85   :         k = _MULTIPLY_DIGIT_UNIT(k, &up[14], v, &wp[14]);

	mov	edx, 4
	imul	eax, edx, 14
	add	eax, DWORD PTR _wp$[ebp]
	push	eax
	mov	ecx, DWORD PTR _v$[ebp]
	push	ecx
	mov	edx, 4
	imul	eax, edx, 14
	add	eax, DWORD PTR _up$[ebp]
	push	eax
	mov	ecx, DWORD PTR _k$[ebp]
	push	ecx
	call	__MULTIPLY_DIGIT_UNIT
	add	esp, 16					; 00000010H
	mov	DWORD PTR _k$[ebp], eax

; 86   :         k = _MULTIPLY_DIGIT_UNIT(k, &up[15], v, &wp[15]);

	mov	edx, 4
	imul	eax, edx, 15
	add	eax, DWORD PTR _wp$[ebp]
	push	eax
	mov	ecx, DWORD PTR _v$[ebp]
	push	ecx
	mov	edx, 4
	imul	eax, edx, 15
	add	eax, DWORD PTR _up$[ebp]
	push	eax
	mov	ecx, DWORD PTR _k$[ebp]
	push	ecx
	call	__MULTIPLY_DIGIT_UNIT
	add	esp, 16					; 00000010H
	mov	DWORD PTR _k$[ebp], eax

; 87   :         k = _MULTIPLY_DIGIT_UNIT(k, &up[16], v, &wp[16]);

	mov	edx, 4
	shl	edx, 4
	add	edx, DWORD PTR _wp$[ebp]
	push	edx
	mov	eax, DWORD PTR _v$[ebp]
	push	eax
	mov	ecx, 4
	shl	ecx, 4
	add	ecx, DWORD PTR _up$[ebp]
	push	ecx
	mov	edx, DWORD PTR _k$[ebp]
	push	edx
	call	__MULTIPLY_DIGIT_UNIT
	add	esp, 16					; 00000010H
	mov	DWORD PTR _k$[ebp], eax

; 88   :         k = _MULTIPLY_DIGIT_UNIT(k, &up[17], v, &wp[17]);

	mov	eax, 4
	imul	ecx, eax, 17
	add	ecx, DWORD PTR _wp$[ebp]
	push	ecx
	mov	edx, DWORD PTR _v$[ebp]
	push	edx
	mov	eax, 4
	imul	ecx, eax, 17
	add	ecx, DWORD PTR _up$[ebp]
	push	ecx
	mov	edx, DWORD PTR _k$[ebp]
	push	edx
	call	__MULTIPLY_DIGIT_UNIT
	add	esp, 16					; 00000010H
	mov	DWORD PTR _k$[ebp], eax

; 89   :         k = _MULTIPLY_DIGIT_UNIT(k, &up[18], v, &wp[18]);

	mov	eax, 4
	imul	ecx, eax, 18
	add	ecx, DWORD PTR _wp$[ebp]
	push	ecx
	mov	edx, DWORD PTR _v$[ebp]
	push	edx
	mov	eax, 4
	imul	ecx, eax, 18
	add	ecx, DWORD PTR _up$[ebp]
	push	ecx
	mov	edx, DWORD PTR _k$[ebp]
	push	edx
	call	__MULTIPLY_DIGIT_UNIT
	add	esp, 16					; 00000010H
	mov	DWORD PTR _k$[ebp], eax

; 90   :         k = _MULTIPLY_DIGIT_UNIT(k, &up[19], v, &wp[19]);

	mov	eax, 4
	imul	ecx, eax, 19
	add	ecx, DWORD PTR _wp$[ebp]
	push	ecx
	mov	edx, DWORD PTR _v$[ebp]
	push	edx
	mov	eax, 4
	imul	ecx, eax, 19
	add	ecx, DWORD PTR _up$[ebp]
	push	ecx
	mov	edx, DWORD PTR _k$[ebp]
	push	edx
	call	__MULTIPLY_DIGIT_UNIT
	add	esp, 16					; 00000010H
	mov	DWORD PTR _k$[ebp], eax

; 91   :         k = _MULTIPLY_DIGIT_UNIT(k, &up[20], v, &wp[20]);

	mov	eax, 4
	imul	ecx, eax, 20
	add	ecx, DWORD PTR _wp$[ebp]
	push	ecx
	mov	edx, DWORD PTR _v$[ebp]
	push	edx
	mov	eax, 4
	imul	ecx, eax, 20
	add	ecx, DWORD PTR _up$[ebp]
	push	ecx
	mov	edx, DWORD PTR _k$[ebp]
	push	edx
	call	__MULTIPLY_DIGIT_UNIT
	add	esp, 16					; 00000010H
	mov	DWORD PTR _k$[ebp], eax

; 92   :         k = _MULTIPLY_DIGIT_UNIT(k, &up[21], v, &wp[21]);

	mov	eax, 4
	imul	ecx, eax, 21
	add	ecx, DWORD PTR _wp$[ebp]
	push	ecx
	mov	edx, DWORD PTR _v$[ebp]
	push	edx
	mov	eax, 4
	imul	ecx, eax, 21
	add	ecx, DWORD PTR _up$[ebp]
	push	ecx
	mov	edx, DWORD PTR _k$[ebp]
	push	edx
	call	__MULTIPLY_DIGIT_UNIT
	add	esp, 16					; 00000010H
	mov	DWORD PTR _k$[ebp], eax

; 93   :         k = _MULTIPLY_DIGIT_UNIT(k, &up[22], v, &wp[22]);

	mov	eax, 4
	imul	ecx, eax, 22
	add	ecx, DWORD PTR _wp$[ebp]
	push	ecx
	mov	edx, DWORD PTR _v$[ebp]
	push	edx
	mov	eax, 4
	imul	ecx, eax, 22
	add	ecx, DWORD PTR _up$[ebp]
	push	ecx
	mov	edx, DWORD PTR _k$[ebp]
	push	edx
	call	__MULTIPLY_DIGIT_UNIT
	add	esp, 16					; 00000010H
	mov	DWORD PTR _k$[ebp], eax

; 94   :         k = _MULTIPLY_DIGIT_UNIT(k, &up[23], v, &wp[23]);

	mov	eax, 4
	imul	ecx, eax, 23
	add	ecx, DWORD PTR _wp$[ebp]
	push	ecx
	mov	edx, DWORD PTR _v$[ebp]
	push	edx
	mov	eax, 4
	imul	ecx, eax, 23
	add	ecx, DWORD PTR _up$[ebp]
	push	ecx
	mov	edx, DWORD PTR _k$[ebp]
	push	edx
	call	__MULTIPLY_DIGIT_UNIT
	add	esp, 16					; 00000010H
	mov	DWORD PTR _k$[ebp], eax

; 95   :         k = _MULTIPLY_DIGIT_UNIT(k, &up[24], v, &wp[24]);

	mov	eax, 4
	imul	ecx, eax, 24
	add	ecx, DWORD PTR _wp$[ebp]
	push	ecx
	mov	edx, DWORD PTR _v$[ebp]
	push	edx
	mov	eax, 4
	imul	ecx, eax, 24
	add	ecx, DWORD PTR _up$[ebp]
	push	ecx
	mov	edx, DWORD PTR _k$[ebp]
	push	edx
	call	__MULTIPLY_DIGIT_UNIT
	add	esp, 16					; 00000010H
	mov	DWORD PTR _k$[ebp], eax

; 96   :         k = _MULTIPLY_DIGIT_UNIT(k, &up[25], v, &wp[25]);

	mov	eax, 4
	imul	ecx, eax, 25
	add	ecx, DWORD PTR _wp$[ebp]
	push	ecx
	mov	edx, DWORD PTR _v$[ebp]
	push	edx
	mov	eax, 4
	imul	ecx, eax, 25
	add	ecx, DWORD PTR _up$[ebp]
	push	ecx
	mov	edx, DWORD PTR _k$[ebp]
	push	edx
	call	__MULTIPLY_DIGIT_UNIT
	add	esp, 16					; 00000010H
	mov	DWORD PTR _k$[ebp], eax

; 97   :         k = _MULTIPLY_DIGIT_UNIT(k, &up[26], v, &wp[26]);

	mov	eax, 4
	imul	ecx, eax, 26
	add	ecx, DWORD PTR _wp$[ebp]
	push	ecx
	mov	edx, DWORD PTR _v$[ebp]
	push	edx
	mov	eax, 4
	imul	ecx, eax, 26
	add	ecx, DWORD PTR _up$[ebp]
	push	ecx
	mov	edx, DWORD PTR _k$[ebp]
	push	edx
	call	__MULTIPLY_DIGIT_UNIT
	add	esp, 16					; 00000010H
	mov	DWORD PTR _k$[ebp], eax

; 98   :         k = _MULTIPLY_DIGIT_UNIT(k, &up[27], v, &wp[27]);

	mov	eax, 4
	imul	ecx, eax, 27
	add	ecx, DWORD PTR _wp$[ebp]
	push	ecx
	mov	edx, DWORD PTR _v$[ebp]
	push	edx
	mov	eax, 4
	imul	ecx, eax, 27
	add	ecx, DWORD PTR _up$[ebp]
	push	ecx
	mov	edx, DWORD PTR _k$[ebp]
	push	edx
	call	__MULTIPLY_DIGIT_UNIT
	add	esp, 16					; 00000010H
	mov	DWORD PTR _k$[ebp], eax

; 99   :         k = _MULTIPLY_DIGIT_UNIT(k, &up[28], v, &wp[28]);

	mov	eax, 4
	imul	ecx, eax, 28
	add	ecx, DWORD PTR _wp$[ebp]
	push	ecx
	mov	edx, DWORD PTR _v$[ebp]
	push	edx
	mov	eax, 4
	imul	ecx, eax, 28
	add	ecx, DWORD PTR _up$[ebp]
	push	ecx
	mov	edx, DWORD PTR _k$[ebp]
	push	edx
	call	__MULTIPLY_DIGIT_UNIT
	add	esp, 16					; 00000010H
	mov	DWORD PTR _k$[ebp], eax

; 100  :         k = _MULTIPLY_DIGIT_UNIT(k, &up[29], v, &wp[29]);

	mov	eax, 4
	imul	ecx, eax, 29
	add	ecx, DWORD PTR _wp$[ebp]
	push	ecx
	mov	edx, DWORD PTR _v$[ebp]
	push	edx
	mov	eax, 4
	imul	ecx, eax, 29
	add	ecx, DWORD PTR _up$[ebp]
	push	ecx
	mov	edx, DWORD PTR _k$[ebp]
	push	edx
	call	__MULTIPLY_DIGIT_UNIT
	add	esp, 16					; 00000010H
	mov	DWORD PTR _k$[ebp], eax

; 101  :         k = _MULTIPLY_DIGIT_UNIT(k, &up[30], v, &wp[30]);

	mov	eax, 4
	imul	ecx, eax, 30
	add	ecx, DWORD PTR _wp$[ebp]
	push	ecx
	mov	edx, DWORD PTR _v$[ebp]
	push	edx
	mov	eax, 4
	imul	ecx, eax, 30
	add	ecx, DWORD PTR _up$[ebp]
	push	ecx
	mov	edx, DWORD PTR _k$[ebp]
	push	edx
	call	__MULTIPLY_DIGIT_UNIT
	add	esp, 16					; 00000010H
	mov	DWORD PTR _k$[ebp], eax

; 102  :         k = _MULTIPLY_DIGIT_UNIT(k, &up[31], v, &wp[31]);

	mov	eax, 4
	imul	ecx, eax, 31
	add	ecx, DWORD PTR _wp$[ebp]
	push	ecx
	mov	edx, DWORD PTR _v$[ebp]
	push	edx
	mov	eax, 4
	imul	ecx, eax, 31
	add	ecx, DWORD PTR _up$[ebp]
	push	ecx
	mov	edx, DWORD PTR _k$[ebp]
	push	edx
	call	__MULTIPLY_DIGIT_UNIT
	add	esp, 16					; 00000010H
	mov	DWORD PTR _k$[ebp], eax

; 103  :         up += 32;

	mov	eax, DWORD PTR _up$[ebp]
	add	eax, 128				; 00000080H
	mov	DWORD PTR _up$[ebp], eax

; 104  :         wp += 32;

	mov	ecx, DWORD PTR _wp$[ebp]
	add	ecx, 128				; 00000080H
	mov	DWORD PTR _wp$[ebp], ecx

; 105  :         --count;

	mov	edx, DWORD PTR _count$[ebp]
	sub	edx, 1
	mov	DWORD PTR _count$[ebp], edx

; 106  : #ifdef ENABLED_PERFORMANCE_COUNTER
; 107  :         if (sizeof(k) == sizeof(_UINT32_T))

	mov	eax, 1
	test	eax, eax
	je	SHORT $LN4@Multiply_W

; 108  :             AddToMULTI32Counter(32);

	push	32					; 00000020H
	call	_AddToMULTI32Counter
	add	esp, 4
	jmp	SHORT $LN5@Multiply_W
$LN4@Multiply_W:

; 109  :         else
; 110  :             AddToMULTI64Counter(32);

	push	32					; 00000020H
	call	_AddToMULTI64Counter
	add	esp, 4
$LN5@Multiply_W:

; 111  : #endif
; 112  :     }

	jmp	$LN2@Multiply_W
$LN3@Multiply_W:

; 113  : 
; 114  :     if (u_count & 0x10)

	mov	ecx, DWORD PTR _u_count$[ebp]
	and	ecx, 16					; 00000010H
	je	$LN6@Multiply_W

; 115  :     {
; 116  :         k = _MULTIPLY_DIGIT_UNIT(k, &up[0], v, &wp[0]);

	mov	edx, 4
	imul	eax, edx, 0
	add	eax, DWORD PTR _wp$[ebp]
	push	eax
	mov	ecx, DWORD PTR _v$[ebp]
	push	ecx
	mov	edx, 4
	imul	eax, edx, 0
	add	eax, DWORD PTR _up$[ebp]
	push	eax
	mov	ecx, DWORD PTR _k$[ebp]
	push	ecx
	call	__MULTIPLY_DIGIT_UNIT
	add	esp, 16					; 00000010H
	mov	DWORD PTR _k$[ebp], eax

; 117  :         k = _MULTIPLY_DIGIT_UNIT(k, &up[1], v, &wp[1]);

	mov	edx, 4
	shl	edx, 0
	add	edx, DWORD PTR _wp$[ebp]
	push	edx
	mov	eax, DWORD PTR _v$[ebp]
	push	eax
	mov	ecx, 4
	shl	ecx, 0
	add	ecx, DWORD PTR _up$[ebp]
	push	ecx
	mov	edx, DWORD PTR _k$[ebp]
	push	edx
	call	__MULTIPLY_DIGIT_UNIT
	add	esp, 16					; 00000010H
	mov	DWORD PTR _k$[ebp], eax

; 118  :         k = _MULTIPLY_DIGIT_UNIT(k, &up[2], v, &wp[2]);

	mov	eax, 4
	shl	eax, 1
	add	eax, DWORD PTR _wp$[ebp]
	push	eax
	mov	ecx, DWORD PTR _v$[ebp]
	push	ecx
	mov	edx, 4
	shl	edx, 1
	add	edx, DWORD PTR _up$[ebp]
	push	edx
	mov	eax, DWORD PTR _k$[ebp]
	push	eax
	call	__MULTIPLY_DIGIT_UNIT
	add	esp, 16					; 00000010H
	mov	DWORD PTR _k$[ebp], eax

; 119  :         k = _MULTIPLY_DIGIT_UNIT(k, &up[3], v, &wp[3]);

	mov	ecx, 4
	imul	edx, ecx, 3
	add	edx, DWORD PTR _wp$[ebp]
	push	edx
	mov	eax, DWORD PTR _v$[ebp]
	push	eax
	mov	ecx, 4
	imul	edx, ecx, 3
	add	edx, DWORD PTR _up$[ebp]
	push	edx
	mov	eax, DWORD PTR _k$[ebp]
	push	eax
	call	__MULTIPLY_DIGIT_UNIT
	add	esp, 16					; 00000010H
	mov	DWORD PTR _k$[ebp], eax

; 120  :         k = _MULTIPLY_DIGIT_UNIT(k, &up[4], v, &wp[4]);

	mov	ecx, 4
	shl	ecx, 2
	add	ecx, DWORD PTR _wp$[ebp]
	push	ecx
	mov	edx, DWORD PTR _v$[ebp]
	push	edx
	mov	eax, 4
	shl	eax, 2
	add	eax, DWORD PTR _up$[ebp]
	push	eax
	mov	ecx, DWORD PTR _k$[ebp]
	push	ecx
	call	__MULTIPLY_DIGIT_UNIT
	add	esp, 16					; 00000010H
	mov	DWORD PTR _k$[ebp], eax

; 121  :         k = _MULTIPLY_DIGIT_UNIT(k, &up[5], v, &wp[5]);

	mov	edx, 4
	imul	eax, edx, 5
	add	eax, DWORD PTR _wp$[ebp]
	push	eax
	mov	ecx, DWORD PTR _v$[ebp]
	push	ecx
	mov	edx, 4
	imul	eax, edx, 5
	add	eax, DWORD PTR _up$[ebp]
	push	eax
	mov	ecx, DWORD PTR _k$[ebp]
	push	ecx
	call	__MULTIPLY_DIGIT_UNIT
	add	esp, 16					; 00000010H
	mov	DWORD PTR _k$[ebp], eax

; 122  :         k = _MULTIPLY_DIGIT_UNIT(k, &up[6], v, &wp[6]);

	mov	edx, 4
	imul	eax, edx, 6
	add	eax, DWORD PTR _wp$[ebp]
	push	eax
	mov	ecx, DWORD PTR _v$[ebp]
	push	ecx
	mov	edx, 4
	imul	eax, edx, 6
	add	eax, DWORD PTR _up$[ebp]
	push	eax
	mov	ecx, DWORD PTR _k$[ebp]
	push	ecx
	call	__MULTIPLY_DIGIT_UNIT
	add	esp, 16					; 00000010H
	mov	DWORD PTR _k$[ebp], eax

; 123  :         k = _MULTIPLY_DIGIT_UNIT(k, &up[7], v, &wp[7]);

	mov	edx, 4
	imul	eax, edx, 7
	add	eax, DWORD PTR _wp$[ebp]
	push	eax
	mov	ecx, DWORD PTR _v$[ebp]
	push	ecx
	mov	edx, 4
	imul	eax, edx, 7
	add	eax, DWORD PTR _up$[ebp]
	push	eax
	mov	ecx, DWORD PTR _k$[ebp]
	push	ecx
	call	__MULTIPLY_DIGIT_UNIT
	add	esp, 16					; 00000010H
	mov	DWORD PTR _k$[ebp], eax

; 124  :         k = _MULTIPLY_DIGIT_UNIT(k, &up[8], v, &wp[8]);

	mov	edx, 4
	shl	edx, 3
	add	edx, DWORD PTR _wp$[ebp]
	push	edx
	mov	eax, DWORD PTR _v$[ebp]
	push	eax
	mov	ecx, 4
	shl	ecx, 3
	add	ecx, DWORD PTR _up$[ebp]
	push	ecx
	mov	edx, DWORD PTR _k$[ebp]
	push	edx
	call	__MULTIPLY_DIGIT_UNIT
	add	esp, 16					; 00000010H
	mov	DWORD PTR _k$[ebp], eax

; 125  :         k = _MULTIPLY_DIGIT_UNIT(k, &up[9], v, &wp[9]);

	mov	eax, 4
	imul	ecx, eax, 9
	add	ecx, DWORD PTR _wp$[ebp]
	push	ecx
	mov	edx, DWORD PTR _v$[ebp]
	push	edx
	mov	eax, 4
	imul	ecx, eax, 9
	add	ecx, DWORD PTR _up$[ebp]
	push	ecx
	mov	edx, DWORD PTR _k$[ebp]
	push	edx
	call	__MULTIPLY_DIGIT_UNIT
	add	esp, 16					; 00000010H
	mov	DWORD PTR _k$[ebp], eax

; 126  :         k = _MULTIPLY_DIGIT_UNIT(k, &up[10], v, &wp[10]);

	mov	eax, 4
	imul	ecx, eax, 10
	add	ecx, DWORD PTR _wp$[ebp]
	push	ecx
	mov	edx, DWORD PTR _v$[ebp]
	push	edx
	mov	eax, 4
	imul	ecx, eax, 10
	add	ecx, DWORD PTR _up$[ebp]
	push	ecx
	mov	edx, DWORD PTR _k$[ebp]
	push	edx
	call	__MULTIPLY_DIGIT_UNIT
	add	esp, 16					; 00000010H
	mov	DWORD PTR _k$[ebp], eax

; 127  :         k = _MULTIPLY_DIGIT_UNIT(k, &up[11], v, &wp[11]);

	mov	eax, 4
	imul	ecx, eax, 11
	add	ecx, DWORD PTR _wp$[ebp]
	push	ecx
	mov	edx, DWORD PTR _v$[ebp]
	push	edx
	mov	eax, 4
	imul	ecx, eax, 11
	add	ecx, DWORD PTR _up$[ebp]
	push	ecx
	mov	edx, DWORD PTR _k$[ebp]
	push	edx
	call	__MULTIPLY_DIGIT_UNIT
	add	esp, 16					; 00000010H
	mov	DWORD PTR _k$[ebp], eax

; 128  :         k = _MULTIPLY_DIGIT_UNIT(k, &up[12], v, &wp[12]);

	mov	eax, 4
	imul	ecx, eax, 12
	add	ecx, DWORD PTR _wp$[ebp]
	push	ecx
	mov	edx, DWORD PTR _v$[ebp]
	push	edx
	mov	eax, 4
	imul	ecx, eax, 12
	add	ecx, DWORD PTR _up$[ebp]
	push	ecx
	mov	edx, DWORD PTR _k$[ebp]
	push	edx
	call	__MULTIPLY_DIGIT_UNIT
	add	esp, 16					; 00000010H
	mov	DWORD PTR _k$[ebp], eax

; 129  :         k = _MULTIPLY_DIGIT_UNIT(k, &up[13], v, &wp[13]);

	mov	eax, 4
	imul	ecx, eax, 13
	add	ecx, DWORD PTR _wp$[ebp]
	push	ecx
	mov	edx, DWORD PTR _v$[ebp]
	push	edx
	mov	eax, 4
	imul	ecx, eax, 13
	add	ecx, DWORD PTR _up$[ebp]
	push	ecx
	mov	edx, DWORD PTR _k$[ebp]
	push	edx
	call	__MULTIPLY_DIGIT_UNIT
	add	esp, 16					; 00000010H
	mov	DWORD PTR _k$[ebp], eax

; 130  :         k = _MULTIPLY_DIGIT_UNIT(k, &up[14], v, &wp[14]);

	mov	eax, 4
	imul	ecx, eax, 14
	add	ecx, DWORD PTR _wp$[ebp]
	push	ecx
	mov	edx, DWORD PTR _v$[ebp]
	push	edx
	mov	eax, 4
	imul	ecx, eax, 14
	add	ecx, DWORD PTR _up$[ebp]
	push	ecx
	mov	edx, DWORD PTR _k$[ebp]
	push	edx
	call	__MULTIPLY_DIGIT_UNIT
	add	esp, 16					; 00000010H
	mov	DWORD PTR _k$[ebp], eax

; 131  :         k = _MULTIPLY_DIGIT_UNIT(k, &up[15], v, &wp[15]);

	mov	eax, 4
	imul	ecx, eax, 15
	add	ecx, DWORD PTR _wp$[ebp]
	push	ecx
	mov	edx, DWORD PTR _v$[ebp]
	push	edx
	mov	eax, 4
	imul	ecx, eax, 15
	add	ecx, DWORD PTR _up$[ebp]
	push	ecx
	mov	edx, DWORD PTR _k$[ebp]
	push	edx
	call	__MULTIPLY_DIGIT_UNIT
	add	esp, 16					; 00000010H
	mov	DWORD PTR _k$[ebp], eax

; 132  :         up += 16;

	mov	eax, DWORD PTR _up$[ebp]
	add	eax, 64					; 00000040H
	mov	DWORD PTR _up$[ebp], eax

; 133  :         wp += 16;

	mov	ecx, DWORD PTR _wp$[ebp]
	add	ecx, 64					; 00000040H
	mov	DWORD PTR _wp$[ebp], ecx

; 134  : #ifdef ENABLED_PERFORMANCE_COUNTER
; 135  :         if (sizeof(k) == sizeof(_UINT32_T))

	mov	edx, 1
	test	edx, edx
	je	SHORT $LN7@Multiply_W

; 136  :             AddToMULTI32Counter(16);

	push	16					; 00000010H
	call	_AddToMULTI32Counter
	add	esp, 4
	jmp	SHORT $LN6@Multiply_W
$LN7@Multiply_W:

; 137  :         else
; 138  :             AddToMULTI64Counter(16);

	push	16					; 00000010H
	call	_AddToMULTI64Counter
	add	esp, 4
$LN6@Multiply_W:

; 139  : #endif
; 140  :     }
; 141  : 
; 142  :     if (u_count & 0x8)

	mov	eax, DWORD PTR _u_count$[ebp]
	and	eax, 8
	je	$LN9@Multiply_W

; 143  :     {
; 144  :         k = _MULTIPLY_DIGIT_UNIT(k, &up[0], v, &wp[0]);

	mov	ecx, 4
	imul	edx, ecx, 0
	add	edx, DWORD PTR _wp$[ebp]
	push	edx
	mov	eax, DWORD PTR _v$[ebp]
	push	eax
	mov	ecx, 4
	imul	edx, ecx, 0
	add	edx, DWORD PTR _up$[ebp]
	push	edx
	mov	eax, DWORD PTR _k$[ebp]
	push	eax
	call	__MULTIPLY_DIGIT_UNIT
	add	esp, 16					; 00000010H
	mov	DWORD PTR _k$[ebp], eax

; 145  :         k = _MULTIPLY_DIGIT_UNIT(k, &up[1], v, &wp[1]);

	mov	ecx, 4
	shl	ecx, 0
	add	ecx, DWORD PTR _wp$[ebp]
	push	ecx
	mov	edx, DWORD PTR _v$[ebp]
	push	edx
	mov	eax, 4
	shl	eax, 0
	add	eax, DWORD PTR _up$[ebp]
	push	eax
	mov	ecx, DWORD PTR _k$[ebp]
	push	ecx
	call	__MULTIPLY_DIGIT_UNIT
	add	esp, 16					; 00000010H
	mov	DWORD PTR _k$[ebp], eax

; 146  :         k = _MULTIPLY_DIGIT_UNIT(k, &up[2], v, &wp[2]);

	mov	edx, 4
	shl	edx, 1
	add	edx, DWORD PTR _wp$[ebp]
	push	edx
	mov	eax, DWORD PTR _v$[ebp]
	push	eax
	mov	ecx, 4
	shl	ecx, 1
	add	ecx, DWORD PTR _up$[ebp]
	push	ecx
	mov	edx, DWORD PTR _k$[ebp]
	push	edx
	call	__MULTIPLY_DIGIT_UNIT
	add	esp, 16					; 00000010H
	mov	DWORD PTR _k$[ebp], eax

; 147  :         k = _MULTIPLY_DIGIT_UNIT(k, &up[3], v, &wp[3]);

	mov	eax, 4
	imul	ecx, eax, 3
	add	ecx, DWORD PTR _wp$[ebp]
	push	ecx
	mov	edx, DWORD PTR _v$[ebp]
	push	edx
	mov	eax, 4
	imul	ecx, eax, 3
	add	ecx, DWORD PTR _up$[ebp]
	push	ecx
	mov	edx, DWORD PTR _k$[ebp]
	push	edx
	call	__MULTIPLY_DIGIT_UNIT
	add	esp, 16					; 00000010H
	mov	DWORD PTR _k$[ebp], eax

; 148  :         k = _MULTIPLY_DIGIT_UNIT(k, &up[4], v, &wp[4]);

	mov	eax, 4
	shl	eax, 2
	add	eax, DWORD PTR _wp$[ebp]
	push	eax
	mov	ecx, DWORD PTR _v$[ebp]
	push	ecx
	mov	edx, 4
	shl	edx, 2
	add	edx, DWORD PTR _up$[ebp]
	push	edx
	mov	eax, DWORD PTR _k$[ebp]
	push	eax
	call	__MULTIPLY_DIGIT_UNIT
	add	esp, 16					; 00000010H
	mov	DWORD PTR _k$[ebp], eax

; 149  :         k = _MULTIPLY_DIGIT_UNIT(k, &up[5], v, &wp[5]);

	mov	ecx, 4
	imul	edx, ecx, 5
	add	edx, DWORD PTR _wp$[ebp]
	push	edx
	mov	eax, DWORD PTR _v$[ebp]
	push	eax
	mov	ecx, 4
	imul	edx, ecx, 5
	add	edx, DWORD PTR _up$[ebp]
	push	edx
	mov	eax, DWORD PTR _k$[ebp]
	push	eax
	call	__MULTIPLY_DIGIT_UNIT
	add	esp, 16					; 00000010H
	mov	DWORD PTR _k$[ebp], eax

; 150  :         k = _MULTIPLY_DIGIT_UNIT(k, &up[6], v, &wp[6]);

	mov	ecx, 4
	imul	edx, ecx, 6
	add	edx, DWORD PTR _wp$[ebp]
	push	edx
	mov	eax, DWORD PTR _v$[ebp]
	push	eax
	mov	ecx, 4
	imul	edx, ecx, 6
	add	edx, DWORD PTR _up$[ebp]
	push	edx
	mov	eax, DWORD PTR _k$[ebp]
	push	eax
	call	__MULTIPLY_DIGIT_UNIT
	add	esp, 16					; 00000010H
	mov	DWORD PTR _k$[ebp], eax

; 151  :         k = _MULTIPLY_DIGIT_UNIT(k, &up[7], v, &wp[7]);

	mov	ecx, 4
	imul	edx, ecx, 7
	add	edx, DWORD PTR _wp$[ebp]
	push	edx
	mov	eax, DWORD PTR _v$[ebp]
	push	eax
	mov	ecx, 4
	imul	edx, ecx, 7
	add	edx, DWORD PTR _up$[ebp]
	push	edx
	mov	eax, DWORD PTR _k$[ebp]
	push	eax
	call	__MULTIPLY_DIGIT_UNIT
	add	esp, 16					; 00000010H
	mov	DWORD PTR _k$[ebp], eax

; 152  :         up += 8;

	mov	ecx, DWORD PTR _up$[ebp]
	add	ecx, 32					; 00000020H
	mov	DWORD PTR _up$[ebp], ecx

; 153  :         wp += 8;

	mov	edx, DWORD PTR _wp$[ebp]
	add	edx, 32					; 00000020H
	mov	DWORD PTR _wp$[ebp], edx

; 154  : #ifdef ENABLED_PERFORMANCE_COUNTER
; 155  :         if (sizeof(k) == sizeof(_UINT32_T))

	mov	eax, 1
	test	eax, eax
	je	SHORT $LN10@Multiply_W

; 156  :             AddToMULTI32Counter(8);

	push	8
	call	_AddToMULTI32Counter
	add	esp, 4
	jmp	SHORT $LN9@Multiply_W
$LN10@Multiply_W:

; 157  :         else
; 158  :             AddToMULTI64Counter(8);

	push	8
	call	_AddToMULTI64Counter
	add	esp, 4
$LN9@Multiply_W:

; 159  : #endif
; 160  :     }
; 161  : 
; 162  :     if (u_count & 0x4)

	mov	ecx, DWORD PTR _u_count$[ebp]
	and	ecx, 4
	je	$LN12@Multiply_W

; 163  :     {
; 164  :         k = _MULTIPLY_DIGIT_UNIT(k, &up[0], v, &wp[0]);

	mov	edx, 4
	imul	eax, edx, 0
	add	eax, DWORD PTR _wp$[ebp]
	push	eax
	mov	ecx, DWORD PTR _v$[ebp]
	push	ecx
	mov	edx, 4
	imul	eax, edx, 0
	add	eax, DWORD PTR _up$[ebp]
	push	eax
	mov	ecx, DWORD PTR _k$[ebp]
	push	ecx
	call	__MULTIPLY_DIGIT_UNIT
	add	esp, 16					; 00000010H
	mov	DWORD PTR _k$[ebp], eax

; 165  :         k = _MULTIPLY_DIGIT_UNIT(k, &up[1], v, &wp[1]);

	mov	edx, 4
	shl	edx, 0
	add	edx, DWORD PTR _wp$[ebp]
	push	edx
	mov	eax, DWORD PTR _v$[ebp]
	push	eax
	mov	ecx, 4
	shl	ecx, 0
	add	ecx, DWORD PTR _up$[ebp]
	push	ecx
	mov	edx, DWORD PTR _k$[ebp]
	push	edx
	call	__MULTIPLY_DIGIT_UNIT
	add	esp, 16					; 00000010H
	mov	DWORD PTR _k$[ebp], eax

; 166  :         k = _MULTIPLY_DIGIT_UNIT(k, &up[2], v, &wp[2]);

	mov	eax, 4
	shl	eax, 1
	add	eax, DWORD PTR _wp$[ebp]
	push	eax
	mov	ecx, DWORD PTR _v$[ebp]
	push	ecx
	mov	edx, 4
	shl	edx, 1
	add	edx, DWORD PTR _up$[ebp]
	push	edx
	mov	eax, DWORD PTR _k$[ebp]
	push	eax
	call	__MULTIPLY_DIGIT_UNIT
	add	esp, 16					; 00000010H
	mov	DWORD PTR _k$[ebp], eax

; 167  :         k = _MULTIPLY_DIGIT_UNIT(k, &up[3], v, &wp[3]);

	mov	ecx, 4
	imul	edx, ecx, 3
	add	edx, DWORD PTR _wp$[ebp]
	push	edx
	mov	eax, DWORD PTR _v$[ebp]
	push	eax
	mov	ecx, 4
	imul	edx, ecx, 3
	add	edx, DWORD PTR _up$[ebp]
	push	edx
	mov	eax, DWORD PTR _k$[ebp]
	push	eax
	call	__MULTIPLY_DIGIT_UNIT
	add	esp, 16					; 00000010H
	mov	DWORD PTR _k$[ebp], eax

; 168  :         up += 4;

	mov	ecx, DWORD PTR _up$[ebp]
	add	ecx, 16					; 00000010H
	mov	DWORD PTR _up$[ebp], ecx

; 169  :         wp += 4;

	mov	edx, DWORD PTR _wp$[ebp]
	add	edx, 16					; 00000010H
	mov	DWORD PTR _wp$[ebp], edx

; 170  : #ifdef ENABLED_PERFORMANCE_COUNTER
; 171  :         if (sizeof(k) == sizeof(_UINT32_T))

	mov	eax, 1
	test	eax, eax
	je	SHORT $LN13@Multiply_W

; 172  :             AddToMULTI32Counter(4);

	push	4
	call	_AddToMULTI32Counter
	add	esp, 4
	jmp	SHORT $LN12@Multiply_W
$LN13@Multiply_W:

; 173  :         else
; 174  :             AddToMULTI64Counter(4);

	push	4
	call	_AddToMULTI64Counter
	add	esp, 4
$LN12@Multiply_W:

; 175  : #endif
; 176  :     }
; 177  : 
; 178  :     if (u_count & 0x2)

	mov	ecx, DWORD PTR _u_count$[ebp]
	and	ecx, 2
	je	$LN15@Multiply_W

; 179  :     {
; 180  :         k = _MULTIPLY_DIGIT_UNIT(k, &up[0], v, &wp[0]);

	mov	edx, 4
	imul	eax, edx, 0
	add	eax, DWORD PTR _wp$[ebp]
	push	eax
	mov	ecx, DWORD PTR _v$[ebp]
	push	ecx
	mov	edx, 4
	imul	eax, edx, 0
	add	eax, DWORD PTR _up$[ebp]
	push	eax
	mov	ecx, DWORD PTR _k$[ebp]
	push	ecx
	call	__MULTIPLY_DIGIT_UNIT
	add	esp, 16					; 00000010H
	mov	DWORD PTR _k$[ebp], eax

; 181  :         k = _MULTIPLY_DIGIT_UNIT(k, &up[1], v, &wp[1]);

	mov	edx, 4
	shl	edx, 0
	add	edx, DWORD PTR _wp$[ebp]
	push	edx
	mov	eax, DWORD PTR _v$[ebp]
	push	eax
	mov	ecx, 4
	shl	ecx, 0
	add	ecx, DWORD PTR _up$[ebp]
	push	ecx
	mov	edx, DWORD PTR _k$[ebp]
	push	edx
	call	__MULTIPLY_DIGIT_UNIT
	add	esp, 16					; 00000010H
	mov	DWORD PTR _k$[ebp], eax

; 182  :         up += 2;

	mov	eax, DWORD PTR _up$[ebp]
	add	eax, 8
	mov	DWORD PTR _up$[ebp], eax

; 183  :         wp += 2;

	mov	ecx, DWORD PTR _wp$[ebp]
	add	ecx, 8
	mov	DWORD PTR _wp$[ebp], ecx

; 184  : #ifdef ENABLED_PERFORMANCE_COUNTER
; 185  :         if (sizeof(k) == sizeof(_UINT32_T))

	mov	edx, 1
	test	edx, edx
	je	SHORT $LN16@Multiply_W

; 186  :             AddToMULTI32Counter(2);

	push	2
	call	_AddToMULTI32Counter
	add	esp, 4
	jmp	SHORT $LN15@Multiply_W
$LN16@Multiply_W:

; 187  :         else
; 188  :             AddToMULTI64Counter(2);

	push	2
	call	_AddToMULTI64Counter
	add	esp, 4
$LN15@Multiply_W:

; 189  : #endif
; 190  :     }
; 191  : 
; 192  :     if (u_count & 0x1)

	mov	eax, DWORD PTR _u_count$[ebp]
	and	eax, 1
	je	SHORT $LN18@Multiply_W

; 193  :     {
; 194  :         k = _MULTIPLY_DIGIT_UNIT(k, &up[0], v, &wp[0]);

	mov	ecx, 4
	imul	edx, ecx, 0
	add	edx, DWORD PTR _wp$[ebp]
	push	edx
	mov	eax, DWORD PTR _v$[ebp]
	push	eax
	mov	ecx, 4
	imul	edx, ecx, 0
	add	edx, DWORD PTR _up$[ebp]
	push	edx
	mov	eax, DWORD PTR _k$[ebp]
	push	eax
	call	__MULTIPLY_DIGIT_UNIT
	add	esp, 16					; 00000010H
	mov	DWORD PTR _k$[ebp], eax

; 195  :         up += 1;

	mov	ecx, DWORD PTR _up$[ebp]
	add	ecx, 4
	mov	DWORD PTR _up$[ebp], ecx

; 196  :         wp += 1;

	mov	edx, DWORD PTR _wp$[ebp]
	add	edx, 4
	mov	DWORD PTR _wp$[ebp], edx

; 197  : #ifdef ENABLED_PERFORMANCE_COUNTER
; 198  :         if (sizeof(k) == sizeof(_UINT32_T))

	mov	eax, 1
	test	eax, eax
	je	SHORT $LN19@Multiply_W

; 199  :             IncrementMULTI32Counter();

	call	_IncrementMULTI32Counter
	jmp	SHORT $LN18@Multiply_W
$LN19@Multiply_W:

; 200  :         else
; 201  :             IncrementMULTI64Counter();

	call	_IncrementMULTI64Counter
$LN18@Multiply_W:

; 202  : #endif
; 203  :     }
; 204  : 
; 205  :     if (k != 0)

	cmp	DWORD PTR _k$[ebp], 0
	je	SHORT $LN21@Multiply_W

; 206  :         *wp = k;

	mov	ecx, DWORD PTR _wp$[ebp]
	mov	edx, DWORD PTR _k$[ebp]
	mov	DWORD PTR [ecx], edx
$LN21@Multiply_W:

; 207  : 
; 208  :     return (PMC_STATUS_OK);

	xor	eax, eax

; 209  : }

	add	esp, 8
	cmp	ebp, esp
	call	__RTC_CheckEsp
	mov	esp, ebp
	pop	ebp
	ret	0
_Multiply_WORD_using_MUL_ADC ENDP
_TEXT	ENDS
; Function compile flags: /Odtp /RTCsu
; File z:\sources\lunor\repos\rougemeilland\palmtree.math.core.uint\palmtree.math.core.uint\pmc_multiply.c
_TEXT	SEGMENT
_t_lo$ = -20						; size = 4
_t_hi$ = -8						; size = 4
_k$ = 8							; size = 4
_up$ = 12						; size = 4
_v$ = 16						; size = 4
_wp$ = 20						; size = 4
__MULTIPLYX_DIGIT_UNIT PROC

; 53   : {

	push	ebp
	mov	ebp, esp
	sub	esp, 24					; 00000018H
	mov	eax, -858993460				; ccccccccH
	mov	DWORD PTR [ebp-24], eax
	mov	DWORD PTR [ebp-20], eax
	mov	DWORD PTR [ebp-16], eax
	mov	DWORD PTR [ebp-12], eax
	mov	DWORD PTR [ebp-8], eax
	mov	DWORD PTR [ebp-4], eax
	mov	ecx, OFFSET __B6A081C3_pmc_multiply@c
	call	@__CheckForDebuggerJustMyCode@4

; 54   :     __UNIT_TYPE t_hi;
; 55   :     __UNIT_TYPE t_lo;
; 56   :     t_lo = _MULTIPLYX_UNIT(*up, v, &t_hi);

	lea	eax, DWORD PTR _t_hi$[ebp]
	push	eax
	mov	ecx, DWORD PTR _v$[ebp]
	push	ecx
	mov	edx, DWORD PTR _up$[ebp]
	mov	eax, DWORD PTR [edx]
	push	eax
	call	__MULTIPLYX_UNIT
	add	esp, 12					; 0000000cH
	mov	DWORD PTR _t_lo$[ebp], eax

; 57   :     _ADDX_UNIT(_ADDX_UNIT(0, t_lo, *wp, &t_lo), t_hi, 0, &t_hi);

	lea	ecx, DWORD PTR _t_hi$[ebp]
	push	ecx
	push	0
	mov	edx, DWORD PTR _t_hi$[ebp]
	push	edx
	lea	eax, DWORD PTR _t_lo$[ebp]
	push	eax
	mov	ecx, DWORD PTR _wp$[ebp]
	mov	edx, DWORD PTR [ecx]
	push	edx
	mov	eax, DWORD PTR _t_lo$[ebp]
	push	eax
	push	0
	call	__ADDX_UNIT
	add	esp, 16					; 00000010H
	movzx	ecx, al
	push	ecx
	call	__ADDX_UNIT
	add	esp, 16					; 00000010H

; 58   :     _ADDX_UNIT(_ADDX_UNIT(0, t_lo, k, &t_lo), t_hi, 0, &t_hi);

	lea	edx, DWORD PTR _t_hi$[ebp]
	push	edx
	push	0
	mov	eax, DWORD PTR _t_hi$[ebp]
	push	eax
	lea	ecx, DWORD PTR _t_lo$[ebp]
	push	ecx
	mov	edx, DWORD PTR _k$[ebp]
	push	edx
	mov	eax, DWORD PTR _t_lo$[ebp]
	push	eax
	push	0
	call	__ADDX_UNIT
	add	esp, 16					; 00000010H
	movzx	ecx, al
	push	ecx
	call	__ADDX_UNIT
	add	esp, 16					; 00000010H

; 59   :     *wp = t_lo;

	mov	edx, DWORD PTR _wp$[ebp]
	mov	eax, DWORD PTR _t_lo$[ebp]
	mov	DWORD PTR [edx], eax

; 60   :     k = t_hi;

	mov	ecx, DWORD PTR _t_hi$[ebp]
	mov	DWORD PTR _k$[ebp], ecx

; 61   :     return (k);

	mov	eax, DWORD PTR _k$[ebp]

; 62   : }

	push	edx
	mov	ecx, ebp
	push	eax
	lea	edx, DWORD PTR $LN6@MULTIPLYX_
	call	@_RTC_CheckStackVars@8
	pop	eax
	pop	edx
	add	esp, 24					; 00000018H
	cmp	ebp, esp
	call	__RTC_CheckEsp
	mov	esp, ebp
	pop	ebp
	ret	0
	npad	2
$LN6@MULTIPLYX_:
	DD	2
	DD	$LN5@MULTIPLYX_
$LN5@MULTIPLYX_:
	DD	-8					; fffffff8H
	DD	4
	DD	$LN3@MULTIPLYX_
	DD	-20					; ffffffecH
	DD	4
	DD	$LN4@MULTIPLYX_
$LN4@MULTIPLYX_:
	DB	116					; 00000074H
	DB	95					; 0000005fH
	DB	108					; 0000006cH
	DB	111					; 0000006fH
	DB	0
$LN3@MULTIPLYX_:
	DB	116					; 00000074H
	DB	95					; 0000005fH
	DB	104					; 00000068H
	DB	105					; 00000069H
	DB	0
__MULTIPLYX_DIGIT_UNIT ENDP
_TEXT	ENDS
; Function compile flags: /Odtp /RTCsu
; File z:\sources\lunor\repos\rougemeilland\palmtree.math.core.uint\palmtree.math.core.uint\pmc_multiply.c
_TEXT	SEGMENT
_t_lo$ = -20						; size = 4
_t_hi$ = -8						; size = 4
_k$ = 8							; size = 4
_up$ = 12						; size = 4
_v$ = 16						; size = 4
_wp$ = 20						; size = 4
__MULTIPLY_DIGIT_UNIT PROC

; 41   : {

	push	ebp
	mov	ebp, esp
	sub	esp, 24					; 00000018H
	mov	eax, -858993460				; ccccccccH
	mov	DWORD PTR [ebp-24], eax
	mov	DWORD PTR [ebp-20], eax
	mov	DWORD PTR [ebp-16], eax
	mov	DWORD PTR [ebp-12], eax
	mov	DWORD PTR [ebp-8], eax
	mov	DWORD PTR [ebp-4], eax
	mov	ecx, OFFSET __B6A081C3_pmc_multiply@c
	call	@__CheckForDebuggerJustMyCode@4

; 42   :     __UNIT_TYPE t_hi;
; 43   :     __UNIT_TYPE t_lo;
; 44   :     t_lo = _MULTIPLY_UNIT(*up, v, &t_hi);

	lea	eax, DWORD PTR _t_hi$[ebp]
	push	eax
	mov	ecx, DWORD PTR _v$[ebp]
	push	ecx
	mov	edx, DWORD PTR _up$[ebp]
	mov	eax, DWORD PTR [edx]
	push	eax
	call	__MULTIPLY_UNIT
	add	esp, 12					; 0000000cH
	mov	DWORD PTR _t_lo$[ebp], eax

; 45   :     _ADD_UNIT(_ADD_UNIT(0, t_lo, *wp, &t_lo), t_hi, 0, &t_hi);

	lea	ecx, DWORD PTR _t_hi$[ebp]
	push	ecx
	push	0
	mov	edx, DWORD PTR _t_hi$[ebp]
	push	edx
	lea	eax, DWORD PTR _t_lo$[ebp]
	push	eax
	mov	ecx, DWORD PTR _wp$[ebp]
	mov	edx, DWORD PTR [ecx]
	push	edx
	mov	eax, DWORD PTR _t_lo$[ebp]
	push	eax
	push	0
	call	__ADD_UNIT
	add	esp, 16					; 00000010H
	movzx	ecx, al
	push	ecx
	call	__ADD_UNIT
	add	esp, 16					; 00000010H

; 46   :     _ADD_UNIT(_ADD_UNIT(0, t_lo, k, &t_lo), t_hi, 0, &t_hi);

	lea	edx, DWORD PTR _t_hi$[ebp]
	push	edx
	push	0
	mov	eax, DWORD PTR _t_hi$[ebp]
	push	eax
	lea	ecx, DWORD PTR _t_lo$[ebp]
	push	ecx
	mov	edx, DWORD PTR _k$[ebp]
	push	edx
	mov	eax, DWORD PTR _t_lo$[ebp]
	push	eax
	push	0
	call	__ADD_UNIT
	add	esp, 16					; 00000010H
	movzx	ecx, al
	push	ecx
	call	__ADD_UNIT
	add	esp, 16					; 00000010H

; 47   :     *wp = t_lo;

	mov	edx, DWORD PTR _wp$[ebp]
	mov	eax, DWORD PTR _t_lo$[ebp]
	mov	DWORD PTR [edx], eax

; 48   :     k = t_hi;

	mov	ecx, DWORD PTR _t_hi$[ebp]
	mov	DWORD PTR _k$[ebp], ecx

; 49   :     return (k);

	mov	eax, DWORD PTR _k$[ebp]

; 50   : }

	push	edx
	mov	ecx, ebp
	push	eax
	lea	edx, DWORD PTR $LN6@MULTIPLY_D
	call	@_RTC_CheckStackVars@8
	pop	eax
	pop	edx
	add	esp, 24					; 00000018H
	cmp	ebp, esp
	call	__RTC_CheckEsp
	mov	esp, ebp
	pop	ebp
	ret	0
	npad	2
$LN6@MULTIPLY_D:
	DD	2
	DD	$LN5@MULTIPLY_D
$LN5@MULTIPLY_D:
	DD	-8					; fffffff8H
	DD	4
	DD	$LN3@MULTIPLY_D
	DD	-20					; ffffffecH
	DD	4
	DD	$LN4@MULTIPLY_D
$LN4@MULTIPLY_D:
	DB	116					; 00000074H
	DB	95					; 0000005fH
	DB	108					; 0000006cH
	DB	111					; 0000006fH
	DB	0
$LN3@MULTIPLY_D:
	DB	116					; 00000074H
	DB	95					; 0000005fH
	DB	104					; 00000068H
	DB	105					; 00000069H
	DB	0
__MULTIPLY_DIGIT_UNIT ENDP
_TEXT	ENDS
; Function compile flags: /Odtp /RTCsu
; File z:\sources\lunor\repos\rougemeilland\palmtree.math.core.uint\palmtree.math.core.uint\pmc_inline_func.h
_TEXT	SEGMENT
_pos$ = -8						; size = 4
_x$ = 8							; size = 4
__LZCNT_ALT_UNIT PROC

; 623  :     {

	push	ebp
	mov	ebp, esp
	sub	esp, 12					; 0000000cH
	mov	DWORD PTR [ebp-12], -858993460		; ccccccccH
	mov	DWORD PTR [ebp-8], -858993460		; ccccccccH
	mov	DWORD PTR [ebp-4], -858993460		; ccccccccH
	mov	ecx, OFFSET __8CA3E54E_pmc_inline_func@h
	call	@__CheckForDebuggerJustMyCode@4

; 624  :         if (x == 0)

	cmp	DWORD PTR _x$[ebp], 0
	jne	SHORT $LN2@LZCNT_ALT_

; 625  :             return (sizeof(x) * 8);

	mov	eax, 32					; 00000020H
	jmp	SHORT $LN1@LZCNT_ALT_
$LN2@LZCNT_ALT_:

; 626  : #ifdef _M_IX86
; 627  :         _UINT32_T pos;
; 628  : #ifdef _MSC_VER
; 629  :         _BitScanReverse(&pos, x);

	bsr	eax, DWORD PTR _x$[ebp]
	mov	DWORD PTR _pos$[ebp], eax

; 630  : #elif defined(__GNUC__)
; 631  :         __asm__("bsrl %1, %0" : "=r"(pos) : "rm"(x));
; 632  : #else
; 633  : #error unknown compiler
; 634  : #endif
; 635  : #elif defined(_M_X64)
; 636  : #ifdef _MSC_VER
; 637  :         _UINT32_T pos;
; 638  :         _BitScanReverse64(&pos, x);
; 639  : #elif defined(__GNUC__)
; 640  :         _UINT64_T pos;
; 641  :         __asm__("bsrq %1, %0" : "=r"(pos) : "rm"(x));
; 642  : #else
; 643  : #error unknown compiler
; 644  : #endif
; 645  : #else
; 646  : #error unknown platform
; 647  : #endif
; 648  :         return (sizeof(x) * 8 - 1 - pos);

	mov	eax, 31					; 0000001fH
	sub	eax, DWORD PTR _pos$[ebp]
$LN1@LZCNT_ALT_:

; 649  :     }

	push	edx
	mov	ecx, ebp
	push	eax
	lea	edx, DWORD PTR $LN6@LZCNT_ALT_
	call	@_RTC_CheckStackVars@8
	pop	eax
	pop	edx
	add	esp, 12					; 0000000cH
	cmp	ebp, esp
	call	__RTC_CheckEsp
	mov	esp, ebp
	pop	ebp
	ret	0
$LN6@LZCNT_ALT_:
	DD	1
	DD	$LN5@LZCNT_ALT_
$LN5@LZCNT_ALT_:
	DD	-8					; fffffff8H
	DD	4
	DD	$LN4@LZCNT_ALT_
$LN4@LZCNT_ALT_:
	DB	112					; 00000070H
	DB	111					; 0000006fH
	DB	115					; 00000073H
	DB	0
__LZCNT_ALT_UNIT ENDP
_TEXT	ENDS
; Function compile flags: /Odtp /RTCsu
; File z:\sources\lunor\repos\rougemeilland\palmtree.math.core.uint\palmtree.math.core.uint\pmc_inline_func.h
_TEXT	SEGMENT
_pos$ = -8						; size = 4
_x$ = 8							; size = 4
__LZCNT_ALT_32 PROC

; 590  :     {

	push	ebp
	mov	ebp, esp
	sub	esp, 12					; 0000000cH
	mov	DWORD PTR [ebp-12], -858993460		; ccccccccH
	mov	DWORD PTR [ebp-8], -858993460		; ccccccccH
	mov	DWORD PTR [ebp-4], -858993460		; ccccccccH
	mov	ecx, OFFSET __8CA3E54E_pmc_inline_func@h
	call	@__CheckForDebuggerJustMyCode@4

; 591  :         if (x == 0)

	cmp	DWORD PTR _x$[ebp], 0
	jne	SHORT $LN2@LZCNT_ALT_

; 592  :             return (sizeof(x) * 8);

	mov	eax, 32					; 00000020H
	jmp	SHORT $LN1@LZCNT_ALT_
$LN2@LZCNT_ALT_:

; 593  :         _UINT32_T pos;
; 594  : #ifdef _MSC_VER
; 595  :         _BitScanReverse(&pos, x);

	bsr	eax, DWORD PTR _x$[ebp]
	mov	DWORD PTR _pos$[ebp], eax

; 596  : #elif defined(__GNUC__)
; 597  :         __asm__("bsrl %1, %0" : "=r"(pos) : "rm"(x));
; 598  : #else
; 599  : #error unknown compiler
; 600  : #endif
; 601  :         return (sizeof(x) * 8 - 1 - pos);

	mov	eax, 31					; 0000001fH
	sub	eax, DWORD PTR _pos$[ebp]
$LN1@LZCNT_ALT_:

; 602  :     }

	push	edx
	mov	ecx, ebp
	push	eax
	lea	edx, DWORD PTR $LN6@LZCNT_ALT_
	call	@_RTC_CheckStackVars@8
	pop	eax
	pop	edx
	add	esp, 12					; 0000000cH
	cmp	ebp, esp
	call	__RTC_CheckEsp
	mov	esp, ebp
	pop	ebp
	ret	0
$LN6@LZCNT_ALT_:
	DD	1
	DD	$LN5@LZCNT_ALT_
$LN5@LZCNT_ALT_:
	DD	-8					; fffffff8H
	DD	4
	DD	$LN4@LZCNT_ALT_
$LN4@LZCNT_ALT_:
	DB	112					; 00000070H
	DB	111					; 0000006fH
	DB	115					; 00000073H
	DB	0
__LZCNT_ALT_32 ENDP
_TEXT	ENDS
; Function compile flags: /Odtp /RTCsu
; File z:\sources\lunor\repos\rougemeilland\palmtree.math.core.uint\palmtree.math.core.uint\pmc_inline_func.h
_TEXT	SEGMENT
_u$ = 8							; size = 4
_v$ = 12						; size = 4
_w_hi$ = 16						; size = 4
__MULTIPLYX_UNIT PROC

; 329  :     {

	push	ebp
	mov	ebp, esp
	mov	ecx, OFFSET __8CA3E54E_pmc_inline_func@h
	call	@__CheckForDebuggerJustMyCode@4

; 330  : #ifdef _MSC_VER
; 331  : #ifdef _M_IX86
; 332  :         return (_FROMDWORDTOWORD((_UINT64_T)u * v, w_hi));

	mov	eax, DWORD PTR _w_hi$[ebp]
	push	eax
	mov	eax, DWORD PTR _u$[ebp]
	mul	DWORD PTR _v$[ebp]
	push	edx
	push	eax
	call	__FROMDWORDTOWORD
	add	esp, 12					; 0000000cH

; 333  : #elif defined(_M_X64)
; 334  :         return (_mulx_u64(u, v, w_hi));
; 335  : #else
; 336  : #error unknown platform
; 337  : #endif
; 338  : #elif defined(__GNUC__)
; 339  : #ifdef _M_IX86
; 340  :         _UINT32_T w_lo;
; 341  :         __asm__("mulxl %3, %0, %1" : "=r"(w_lo), "=r"(*w_hi), "+d"(u) : "rm"(v));
; 342  :         return (w_lo);
; 343  : #elif defined(_M_X64)
; 344  :         _UINT64_T w_lo;
; 345  :         __asm__("mulxq %3, %0, %1" : "=r"(w_lo), "=r"(*w_hi), "+d"(u) : "rm"(v));
; 346  :         return (w_lo);
; 347  : #else
; 348  : #error unknown platform
; 349  : #endif
; 350  : #else
; 351  : #error unknown compiler
; 352  : #endif
; 353  :     }

	cmp	ebp, esp
	call	__RTC_CheckEsp
	pop	ebp
	ret	0
__MULTIPLYX_UNIT ENDP
_TEXT	ENDS
; Function compile flags: /Odtp /RTCsu
; File z:\sources\lunor\repos\rougemeilland\palmtree.math.core.uint\palmtree.math.core.uint\pmc_inline_func.h
_TEXT	SEGMENT
_u$ = 8							; size = 4
_v$ = 12						; size = 4
_w_hi$ = 16						; size = 4
__MULTIPLY_UNIT PROC

; 291  :     {

	push	ebp
	mov	ebp, esp
	mov	ecx, OFFSET __8CA3E54E_pmc_inline_func@h
	call	@__CheckForDebuggerJustMyCode@4

; 292  : #ifdef _M_IX86
; 293  : #ifdef _MSC_VER
; 294  :         return (_FROMDWORDTOWORD((_UINT64_T)u * v, w_hi));

	mov	eax, DWORD PTR _w_hi$[ebp]
	push	eax
	mov	eax, DWORD PTR _u$[ebp]
	mul	DWORD PTR _v$[ebp]
	push	edx
	push	eax
	call	__FROMDWORDTOWORD
	add	esp, 12					; 0000000cH

; 295  : #elif defined(__GNUC__)
; 296  :         _UINT32_T w_lo;
; 297  :         __asm__("mull %3": "=a"(w_lo), "=d"(*w_hi) : "0"(u), "rm"(v));
; 298  :         return (w_lo);
; 299  : #else
; 300  : #error unknown compiler
; 301  : #endif
; 302  : #elif defined(_M_X64)
; 303  :         return (_umul128(u, v, w_hi));
; 304  : #else
; 305  : #error unknown platform
; 306  : #endif
; 307  :     }

	cmp	ebp, esp
	call	__RTC_CheckEsp
	pop	ebp
	ret	0
__MULTIPLY_UNIT ENDP
_TEXT	ENDS
; Function compile flags: /Odtp /RTCsu
; File z:\sources\lunor\repos\rougemeilland\palmtree.math.core.uint\palmtree.math.core.uint\pmc_inline_func.h
_TEXT	SEGMENT
_carry$ = 8						; size = 1
_u$ = 12						; size = 4
_v$ = 16						; size = 4
_w$ = 20						; size = 4
__ADDX_UNIT PROC

; 235  :     {

	push	ebp
	mov	ebp, esp
	push	ebx
	mov	ecx, OFFSET __8CA3E54E_pmc_inline_func@h
	call	@__CheckForDebuggerJustMyCode@4

; 236  : #ifdef _M_IX86
; 237  :         return (_addcarryx_u32(carry, u, v, w));

	mov	eax, DWORD PTR _w$[ebp]
	mov	ecx, DWORD PTR _v$[ebp]
	mov	edx, DWORD PTR _u$[ebp]
	mov	bl, BYTE PTR _carry$[ebp]
	add	bl, 255					; 000000ffH
	adcx	edx, ecx
	setb	cl
	mov	DWORD PTR [eax], edx
	mov	al, cl

; 238  : #elif defined(_M_X64)
; 239  :         return (_addcarryx_u64(carry, u, v, w));
; 240  : #else
; 241  : #error unknown platform
; 242  : #endif
; 243  :     }

	pop	ebx
	cmp	ebp, esp
	call	__RTC_CheckEsp
	pop	ebp
	ret	0
__ADDX_UNIT ENDP
_TEXT	ENDS
; Function compile flags: /Odtp /RTCsu
; File z:\sources\lunor\repos\rougemeilland\palmtree.math.core.uint\palmtree.math.core.uint\pmc_inline_func.h
_TEXT	SEGMENT
_carry$ = 8						; size = 1
_u$ = 12						; size = 4
_v$ = 16						; size = 4
_w$ = 20						; size = 4
__ADD_UNIT PROC

; 207  :     {

	push	ebp
	mov	ebp, esp
	push	ebx
	mov	ecx, OFFSET __8CA3E54E_pmc_inline_func@h
	call	@__CheckForDebuggerJustMyCode@4

; 208  : #ifdef _M_IX86
; 209  :         return (_addcarry_u32(carry, u, v, w));

	mov	eax, DWORD PTR _w$[ebp]
	mov	ecx, DWORD PTR _v$[ebp]
	mov	edx, DWORD PTR _u$[ebp]
	mov	bl, BYTE PTR _carry$[ebp]
	add	bl, 255					; 000000ffH
	adc	edx, ecx
	setb	cl
	mov	DWORD PTR [eax], edx
	mov	al, cl

; 210  : #elif defined(_M_X64)
; 211  :         return (_addcarry_u64(carry, u, v, w));
; 212  : #else
; 213  : #error unknown platform
; 214  : #endif
; 215  :     }

	pop	ebx
	cmp	ebp, esp
	call	__RTC_CheckEsp
	pop	ebp
	ret	0
__ADD_UNIT ENDP
_TEXT	ENDS
; Function compile flags: /Odtp /RTCsu
; File z:\sources\lunor\repos\rougemeilland\palmtree.math.core.uint\palmtree.math.core.uint\pmc_inline_func.h
_TEXT	SEGMENT
_value$ = 8						; size = 8
_result_high$ = 16					; size = 4
__FROMDWORDTOWORD PROC

; 176  :     {

	push	ebp
	mov	ebp, esp
	mov	ecx, OFFSET __8CA3E54E_pmc_inline_func@h
	call	@__CheckForDebuggerJustMyCode@4

; 177  :         *result_high = (_UINT32_T)(value >> 32);

	mov	eax, DWORD PTR _value$[ebp]
	mov	edx, DWORD PTR _value$[ebp+4]
	mov	cl, 32					; 00000020H
	call	__aullshr
	mov	ecx, DWORD PTR _result_high$[ebp]
	mov	DWORD PTR [ecx], eax

; 178  :         return ((_UINT32_T)value);

	mov	eax, DWORD PTR _value$[ebp]

; 179  :     }

	cmp	ebp, esp
	call	__RTC_CheckEsp
	pop	ebp
	ret	0
__FROMDWORDTOWORD ENDP
_TEXT	ENDS
; Function compile flags: /Odtp /RTCsu
; File z:\sources\lunor\repos\rougemeilland\palmtree.math.core.uint\palmtree.math.core.uint\pmc_uint_internal.h
_TEXT	SEGMENT
_value$ = 8						; size = 4
_AddToMULTI64Counter PROC

; 359  :     {

	push	ebp
	mov	ebp, esp
	mov	ecx, OFFSET __BB6D3116_pmc_uint_internal@h
	call	@__CheckForDebuggerJustMyCode@4

; 360  :         _InterlockedExchangeAdd(&statistics_info.COUNT_MULTI64, value);

	mov	eax, DWORD PTR _value$[ebp]
	mov	ecx, OFFSET _statistics_info
	lock	 xadd	 DWORD PTR [ecx], eax

; 361  :     }

	cmp	ebp, esp
	call	__RTC_CheckEsp
	pop	ebp
	ret	0
_AddToMULTI64Counter ENDP
_TEXT	ENDS
; Function compile flags: /Odtp /RTCsu
; File z:\sources\lunor\repos\rougemeilland\palmtree.math.core.uint\palmtree.math.core.uint\pmc_uint_internal.h
_TEXT	SEGMENT
_value$ = 8						; size = 4
_AddToMULTI32Counter PROC

; 353  :     {

	push	ebp
	mov	ebp, esp
	mov	ecx, OFFSET __BB6D3116_pmc_uint_internal@h
	call	@__CheckForDebuggerJustMyCode@4

; 354  :         _InterlockedExchangeAdd(&statistics_info.COUNT_MULTI32, value);

	mov	eax, DWORD PTR _value$[ebp]
	mov	ecx, OFFSET _statistics_info+4
	lock	 xadd	 DWORD PTR [ecx], eax

; 355  :     }

	cmp	ebp, esp
	call	__RTC_CheckEsp
	pop	ebp
	ret	0
_AddToMULTI32Counter ENDP
_TEXT	ENDS
; Function compile flags: /Odtp /RTCsu
; File z:\sources\lunor\repos\rougemeilland\palmtree.math.core.uint\palmtree.math.core.uint\pmc_uint_internal.h
_TEXT	SEGMENT
_IncrementMULTI64Counter PROC

; 336  :     {

	push	ebp
	mov	ebp, esp
	mov	ecx, OFFSET __BB6D3116_pmc_uint_internal@h
	call	@__CheckForDebuggerJustMyCode@4

; 337  :         _InterlockedIncrement(&statistics_info.COUNT_MULTI64);

	lock	 inc	 (null) PTR _statistics_info

; 338  :     }

	cmp	ebp, esp
	call	__RTC_CheckEsp
	pop	ebp
	ret	0
_IncrementMULTI64Counter ENDP
_TEXT	ENDS
; Function compile flags: /Odtp /RTCsu
; File z:\sources\lunor\repos\rougemeilland\palmtree.math.core.uint\palmtree.math.core.uint\pmc_uint_internal.h
_TEXT	SEGMENT
_IncrementMULTI32Counter PROC

; 330  :     {

	push	ebp
	mov	ebp, esp
	mov	ecx, OFFSET __BB6D3116_pmc_uint_internal@h
	call	@__CheckForDebuggerJustMyCode@4

; 331  :         _InterlockedIncrement(&statistics_info.COUNT_MULTI32);

	lock	 inc	 (null) PTR _statistics_info+4

; 332  :     }

	cmp	ebp, esp
	call	__RTC_CheckEsp
	pop	ebp
	ret	0
_IncrementMULTI32Counter ENDP
_TEXT	ENDS
; Function compile flags: /Odtp /RTCsu
; File z:\sources\lunor\repos\rougemeilland\palmtree.math.core.uint\palmtree.math.core.uint\pmc_multiply.c
_TEXT	SEGMENT
_w_light_check_code$1 = -44				; size = 4
_w_bit_count$2 = -36					; size = 4
_v_bit_count$3 = -32					; size = 4
_u_bit_count$4 = -28					; size = 4
_nw$ = -20						; size = 4
_result$ = -12						; size = 4
_nv$ = -8						; size = 4
_nu$ = -4						; size = 4
_u$ = 8							; size = 4
_v$ = 12						; size = 4
_w$ = 16						; size = 4
_PMC_Multiply_X_X@12 PROC

; 698  : {

	push	ebp
	mov	ebp, esp
	sub	esp, 48					; 00000030H
	push	esi
	push	edi
	lea	edi, DWORD PTR [ebp-48]
	mov	ecx, 12					; 0000000cH
	mov	eax, -858993460				; ccccccccH
	rep stosd
	mov	ecx, OFFSET __B6A081C3_pmc_multiply@c
	call	@__CheckForDebuggerJustMyCode@4

; 699  :     if (u == NULL)

	cmp	DWORD PTR _u$[ebp], 0
	jne	SHORT $LN2@PMC_Multip

; 700  :         return (PMC_STATUS_ARGUMENT_ERROR);

	or	eax, -1
	jmp	$LN1@PMC_Multip
$LN2@PMC_Multip:

; 701  :     if (v == NULL)

	cmp	DWORD PTR _v$[ebp], 0
	jne	SHORT $LN3@PMC_Multip

; 702  :         return (PMC_STATUS_ARGUMENT_ERROR);

	or	eax, -1
	jmp	$LN1@PMC_Multip
$LN3@PMC_Multip:

; 703  :     if (w == NULL)

	cmp	DWORD PTR _w$[ebp], 0
	jne	SHORT $LN4@PMC_Multip

; 704  :         return (PMC_STATUS_ARGUMENT_ERROR);

	or	eax, -1
	jmp	$LN1@PMC_Multip
$LN4@PMC_Multip:

; 705  :     NUMBER_HEADER* nu = (NUMBER_HEADER*)u;

	mov	eax, DWORD PTR _u$[ebp]
	mov	DWORD PTR _nu$[ebp], eax

; 706  :     NUMBER_HEADER* nv = (NUMBER_HEADER*)v;

	mov	ecx, DWORD PTR _v$[ebp]
	mov	DWORD PTR _nv$[ebp], ecx

; 707  :     PMC_STATUS_CODE result;
; 708  :     if ((result = CheckNumber(nu)) != PMC_STATUS_OK)

	mov	edx, DWORD PTR _nu$[ebp]
	push	edx
	call	_CheckNumber
	add	esp, 4
	mov	DWORD PTR _result$[ebp], eax
	cmp	DWORD PTR _result$[ebp], 0
	je	SHORT $LN5@PMC_Multip

; 709  :         return (result);

	mov	eax, DWORD PTR _result$[ebp]
	jmp	$LN1@PMC_Multip
$LN5@PMC_Multip:

; 710  :     if ((result = CheckNumber(nv)) != PMC_STATUS_OK)

	mov	eax, DWORD PTR _nv$[ebp]
	push	eax
	call	_CheckNumber
	add	esp, 4
	mov	DWORD PTR _result$[ebp], eax
	cmp	DWORD PTR _result$[ebp], 0
	je	SHORT $LN6@PMC_Multip

; 711  :         return (result);

	mov	eax, DWORD PTR _result$[ebp]
	jmp	$LN1@PMC_Multip
$LN6@PMC_Multip:

; 712  :     NUMBER_HEADER* nw;
; 713  :     if (nu->IS_ZERO)

	mov	ecx, DWORD PTR _nu$[ebp]
	mov	edx, DWORD PTR [ecx]
	and	edx, 1
	je	SHORT $LN7@PMC_Multip

; 714  :     {
; 715  :         // x が 0 である場合
; 716  : 
; 717  :         // y の値にかかわらず 0 を返す。
; 718  :         *w = (PMC_HANDLE_UINT)&number_zero;

	mov	eax, DWORD PTR _w$[ebp]
	mov	DWORD PTR [eax], OFFSET _number_zero

; 719  :     }

	jmp	$LN8@PMC_Multip
$LN7@PMC_Multip:

; 720  :     else if (nu->IS_ONE)

	mov	ecx, DWORD PTR _nu$[ebp]
	mov	edx, DWORD PTR [ecx]
	shr	edx, 1
	and	edx, 1
	je	SHORT $LN9@PMC_Multip

; 721  :     {
; 722  :         // x が 1 である場合
; 723  :         if (nv->IS_ZERO)

	mov	eax, DWORD PTR _nv$[ebp]
	mov	ecx, DWORD PTR [eax]
	and	ecx, 1
	je	SHORT $LN11@PMC_Multip

; 724  :         {
; 725  :             // y が 0 である場合
; 726  : 
; 727  :             //  0  を返す。
; 728  :             *w = (PMC_HANDLE_UINT)&number_zero;

	mov	edx, DWORD PTR _w$[ebp]
	mov	DWORD PTR [edx], OFFSET _number_zero

; 729  :         }

	jmp	SHORT $LN12@PMC_Multip
$LN11@PMC_Multip:

; 730  :         else
; 731  :         {
; 732  :             // y が 0 ではない場合
; 733  : 
; 734  :             // 乗算結果は y に等しいため、y の値を持つ NUMBER_HEADER 構造体を獲得し、呼び出し元へ返す。
; 735  :             if ((result = DuplicateNumber(nv, &nw)) != PMC_STATUS_OK)

	lea	eax, DWORD PTR _nw$[ebp]
	push	eax
	mov	ecx, DWORD PTR _nv$[ebp]
	push	ecx
	call	_DuplicateNumber
	add	esp, 8
	mov	DWORD PTR _result$[ebp], eax
	cmp	DWORD PTR _result$[ebp], 0
	je	SHORT $LN13@PMC_Multip

; 736  :                 return (result);

	mov	eax, DWORD PTR _result$[ebp]
	jmp	$LN1@PMC_Multip
$LN13@PMC_Multip:

; 737  :             *w = (PMC_HANDLE_UINT)nw;

	mov	edx, DWORD PTR _w$[ebp]
	mov	eax, DWORD PTR _nw$[ebp]
	mov	DWORD PTR [edx], eax
$LN12@PMC_Multip:

; 738  :         }
; 739  :     }

	jmp	$LN8@PMC_Multip
$LN9@PMC_Multip:

; 740  :     else
; 741  :     {
; 742  :         // x が 0 と 1 のどちらでもない場合
; 743  : 
; 744  :         if (nv->IS_ZERO)

	mov	ecx, DWORD PTR _nv$[ebp]
	mov	edx, DWORD PTR [ecx]
	and	edx, 1
	je	SHORT $LN14@PMC_Multip

; 745  :         {
; 746  :             // y が 0 である場合
; 747  : 
; 748  :             //  0  を返す。
; 749  :             nw = &number_zero;

	mov	DWORD PTR _nw$[ebp], OFFSET _number_zero

; 750  :         }

	jmp	$LN15@PMC_Multip
$LN14@PMC_Multip:

; 751  :         else if (nv->IS_ONE)

	mov	eax, DWORD PTR _nv$[ebp]
	mov	ecx, DWORD PTR [eax]
	shr	ecx, 1
	and	ecx, 1
	je	SHORT $LN16@PMC_Multip

; 752  :         {
; 753  :             // y が 1 である場合
; 754  : 
; 755  :             // 乗算結果は x に等しいため、x の値を持つ NUMBER_HEADER 構造体を獲得し、呼び出し元へ返す。
; 756  :             if ((result = DuplicateNumber(nu, &nw)) != PMC_STATUS_OK)

	lea	edx, DWORD PTR _nw$[ebp]
	push	edx
	mov	eax, DWORD PTR _nu$[ebp]
	push	eax
	call	_DuplicateNumber
	add	esp, 8
	mov	DWORD PTR _result$[ebp], eax
	cmp	DWORD PTR _result$[ebp], 0
	je	SHORT $LN18@PMC_Multip

; 757  :                 return (result);

	mov	eax, DWORD PTR _result$[ebp]
	jmp	$LN1@PMC_Multip
$LN18@PMC_Multip:

; 758  :         }

	jmp	$LN15@PMC_Multip
$LN16@PMC_Multip:

; 759  :         else
; 760  :         {
; 761  :             // x と y がともに 0 、1 のどちらでもない場合
; 762  : 
; 763  :             // x と y の積を計算する
; 764  :             __UNIT_TYPE u_bit_count = nu->UNIT_BIT_COUNT;

	mov	ecx, DWORD PTR _nu$[ebp]
	mov	edx, DWORD PTR [ecx+16]
	mov	DWORD PTR _u_bit_count$4[ebp], edx

; 765  :             __UNIT_TYPE v_bit_count = nv->UNIT_BIT_COUNT;

	mov	eax, DWORD PTR _nv$[ebp]
	mov	ecx, DWORD PTR [eax+16]
	mov	DWORD PTR _v_bit_count$3[ebp], ecx

; 766  :             __UNIT_TYPE w_bit_count = u_bit_count + v_bit_count;

	mov	edx, DWORD PTR _u_bit_count$4[ebp]
	add	edx, DWORD PTR _v_bit_count$3[ebp]
	mov	DWORD PTR _w_bit_count$2[ebp], edx

; 767  :             __UNIT_TYPE w_light_check_code;
; 768  :             if ((result = AllocateNumber(&nw, w_bit_count, &w_light_check_code)) != PMC_STATUS_OK)

	lea	eax, DWORD PTR _w_light_check_code$1[ebp]
	push	eax
	mov	ecx, DWORD PTR _w_bit_count$2[ebp]
	push	ecx
	lea	edx, DWORD PTR _nw$[ebp]
	push	edx
	call	_AllocateNumber
	add	esp, 12					; 0000000cH
	mov	DWORD PTR _result$[ebp], eax
	cmp	DWORD PTR _result$[ebp], 0
	je	SHORT $LN19@PMC_Multip

; 769  :                 return (result);

	mov	eax, DWORD PTR _result$[ebp]
	jmp	$LN1@PMC_Multip
$LN19@PMC_Multip:

; 770  :             (*fp_Multiply_X_X)(nu->BLOCK, nu->UNIT_WORD_COUNT, nv->BLOCK, nv->UNIT_WORD_COUNT, nw->BLOCK);

	mov	esi, esp
	mov	eax, DWORD PTR _nw$[ebp]
	mov	ecx, DWORD PTR [eax+36]
	push	ecx
	mov	edx, DWORD PTR _nv$[ebp]
	mov	eax, DWORD PTR [edx+12]
	push	eax
	mov	ecx, DWORD PTR _nv$[ebp]
	mov	edx, DWORD PTR [ecx+36]
	push	edx
	mov	eax, DWORD PTR _nu$[ebp]
	mov	ecx, DWORD PTR [eax+12]
	push	ecx
	mov	edx, DWORD PTR _nu$[ebp]
	mov	eax, DWORD PTR [edx+36]
	push	eax
	call	DWORD PTR _fp_Multiply_X_X
	add	esp, 20					; 00000014H
	cmp	esi, esp
	call	__RTC_CheckEsp

; 771  :             if ((result = CheckBlockLight(nw->BLOCK, w_light_check_code)) != PMC_STATUS_OK)

	mov	ecx, DWORD PTR _w_light_check_code$1[ebp]
	push	ecx
	mov	edx, DWORD PTR _nw$[ebp]
	mov	eax, DWORD PTR [edx+36]
	push	eax
	call	_CheckBlockLight
	add	esp, 8
	mov	DWORD PTR _result$[ebp], eax
	cmp	DWORD PTR _result$[ebp], 0
	je	SHORT $LN20@PMC_Multip

; 772  :                 return (result);

	mov	eax, DWORD PTR _result$[ebp]
	jmp	SHORT $LN1@PMC_Multip
$LN20@PMC_Multip:

; 773  :             CommitNumber(nw);

	mov	ecx, DWORD PTR _nw$[ebp]
	push	ecx
	call	_CommitNumber
	add	esp, 4
$LN15@PMC_Multip:

; 774  :         }
; 775  :         *w = (PMC_HANDLE_UINT)nw;

	mov	edx, DWORD PTR _w$[ebp]
	mov	eax, DWORD PTR _nw$[ebp]
	mov	DWORD PTR [edx], eax
$LN8@PMC_Multip:

; 776  :     }
; 777  : #ifdef _DEBUG
; 778  :     if ((result = CheckNumber((NUMBER_HEADER*)*w)) != PMC_STATUS_OK)

	mov	ecx, DWORD PTR _w$[ebp]
	mov	edx, DWORD PTR [ecx]
	push	edx
	call	_CheckNumber
	add	esp, 4
	mov	DWORD PTR _result$[ebp], eax
	cmp	DWORD PTR _result$[ebp], 0
	je	SHORT $LN21@PMC_Multip

; 779  :         return (result);

	mov	eax, DWORD PTR _result$[ebp]
	jmp	SHORT $LN1@PMC_Multip
$LN21@PMC_Multip:

; 780  : #endif
; 781  :     return (PMC_STATUS_OK);

	xor	eax, eax
$LN1@PMC_Multip:

; 782  : }

	push	edx
	mov	ecx, ebp
	push	eax
	lea	edx, DWORD PTR $LN26@PMC_Multip
	call	@_RTC_CheckStackVars@8
	pop	eax
	pop	edx
	pop	edi
	pop	esi
	add	esp, 48					; 00000030H
	cmp	ebp, esp
	call	__RTC_CheckEsp
	mov	esp, ebp
	pop	ebp
	ret	12					; 0000000cH
	npad	1
$LN26@PMC_Multip:
	DD	2
	DD	$LN25@PMC_Multip
$LN25@PMC_Multip:
	DD	-20					; ffffffecH
	DD	4
	DD	$LN23@PMC_Multip
	DD	-44					; ffffffd4H
	DD	4
	DD	$LN24@PMC_Multip
$LN24@PMC_Multip:
	DB	119					; 00000077H
	DB	95					; 0000005fH
	DB	108					; 0000006cH
	DB	105					; 00000069H
	DB	103					; 00000067H
	DB	104					; 00000068H
	DB	116					; 00000074H
	DB	95					; 0000005fH
	DB	99					; 00000063H
	DB	104					; 00000068H
	DB	101					; 00000065H
	DB	99					; 00000063H
	DB	107					; 0000006bH
	DB	95					; 0000005fH
	DB	99					; 00000063H
	DB	111					; 0000006fH
	DB	100					; 00000064H
	DB	101					; 00000065H
	DB	0
$LN23@PMC_Multip:
	DB	110					; 0000006eH
	DB	119					; 00000077H
	DB	0
_PMC_Multiply_X_X@12 ENDP
_TEXT	ENDS
; Function compile flags: /Odtp /RTCsu
; File z:\sources\lunor\repos\rougemeilland\palmtree.math.core.uint\palmtree.math.core.uint\pmc_multiply.c
_TEXT	SEGMENT
_result$ = -4						; size = 4
_u$ = 8							; size = 4
_v$ = 12						; size = 8
_w$ = 20						; size = 4
_PMC_Multiply_X_L@16 PROC

; 675  : {

	push	ebp
	mov	ebp, esp
	push	ecx
	mov	DWORD PTR [ebp-4], -858993460		; ccccccccH
	mov	ecx, OFFSET __B6A081C3_pmc_multiply@c
	call	@__CheckForDebuggerJustMyCode@4

; 676  :     if (__UNIT_TYPE_BIT_COUNT * 2 < sizeof(v) * 8)

	xor	eax, eax
	je	SHORT $LN2@PMC_Multip

; 677  :     {
; 678  :         // _UINT64_T が 2 ワードで表現しきれない処理系には対応しない
; 679  :         return (PMC_STATUS_INTERNAL_ERROR);

	mov	eax, -256				; ffffff00H
	jmp	SHORT $LN1@PMC_Multip
$LN2@PMC_Multip:

; 680  :     }
; 681  :     if (u == NULL)

	cmp	DWORD PTR _u$[ebp], 0
	jne	SHORT $LN3@PMC_Multip

; 682  :         return (PMC_STATUS_ARGUMENT_ERROR);

	or	eax, -1
	jmp	SHORT $LN1@PMC_Multip
$LN3@PMC_Multip:

; 683  :     if (w == NULL)

	cmp	DWORD PTR _w$[ebp], 0
	jne	SHORT $LN4@PMC_Multip

; 684  :         return (PMC_STATUS_ARGUMENT_ERROR);

	or	eax, -1
	jmp	SHORT $LN1@PMC_Multip
$LN4@PMC_Multip:

; 685  :     PMC_STATUS_CODE result;
; 686  :     if ((result = CheckNumber((NUMBER_HEADER*)u)) != PMC_STATUS_OK)

	mov	ecx, DWORD PTR _u$[ebp]
	push	ecx
	call	_CheckNumber
	add	esp, 4
	mov	DWORD PTR _result$[ebp], eax
	cmp	DWORD PTR _result$[ebp], 0
	je	SHORT $LN5@PMC_Multip

; 687  :         return (result);

	mov	eax, DWORD PTR _result$[ebp]
	jmp	SHORT $LN1@PMC_Multip
$LN5@PMC_Multip:

; 688  :     if ((result = PMC_Multiply_X_L_Imp((NUMBER_HEADER*)u, v, (NUMBER_HEADER**)w)) != PMC_STATUS_OK)

	mov	edx, DWORD PTR _w$[ebp]
	push	edx
	mov	eax, DWORD PTR _v$[ebp+4]
	push	eax
	mov	ecx, DWORD PTR _v$[ebp]
	push	ecx
	mov	edx, DWORD PTR _u$[ebp]
	push	edx
	call	_PMC_Multiply_X_L_Imp
	add	esp, 16					; 00000010H
	mov	DWORD PTR _result$[ebp], eax
	cmp	DWORD PTR _result$[ebp], 0
	je	SHORT $LN6@PMC_Multip

; 689  :         return (result);

	mov	eax, DWORD PTR _result$[ebp]
	jmp	SHORT $LN1@PMC_Multip
$LN6@PMC_Multip:

; 690  : #ifdef _DEBUG
; 691  :     if ((result = CheckNumber((NUMBER_HEADER*)*w)) != PMC_STATUS_OK)

	mov	eax, DWORD PTR _w$[ebp]
	mov	ecx, DWORD PTR [eax]
	push	ecx
	call	_CheckNumber
	add	esp, 4
	mov	DWORD PTR _result$[ebp], eax
	cmp	DWORD PTR _result$[ebp], 0
	je	SHORT $LN7@PMC_Multip

; 692  :         return (result);

	mov	eax, DWORD PTR _result$[ebp]
	jmp	SHORT $LN1@PMC_Multip
$LN7@PMC_Multip:

; 693  : #endif
; 694  :     return (PMC_STATUS_OK);

	xor	eax, eax
$LN1@PMC_Multip:

; 695  : }

	add	esp, 4
	cmp	ebp, esp
	call	__RTC_CheckEsp
	mov	esp, ebp
	pop	ebp
	ret	16					; 00000010H
_PMC_Multiply_X_L@16 ENDP
_TEXT	ENDS
; Function compile flags: /Odtp /RTCsu
; File z:\sources\lunor\repos\rougemeilland\palmtree.math.core.uint\palmtree.math.core.uint\pmc_multiply.c
_TEXT	SEGMENT
_result$ = -4						; size = 4
_u$ = 8							; size = 4
_v$ = 12						; size = 4
_w$ = 16						; size = 4
_PMC_Multiply_X_I@12 PROC

; 523  : {

	push	ebp
	mov	ebp, esp
	push	ecx
	mov	DWORD PTR [ebp-4], -858993460		; ccccccccH
	mov	ecx, OFFSET __B6A081C3_pmc_multiply@c
	call	@__CheckForDebuggerJustMyCode@4

; 524  :     if (__UNIT_TYPE_BIT_COUNT < sizeof(v) * 8)

	xor	eax, eax
	je	SHORT $LN2@PMC_Multip

; 525  :     {
; 526  :         // _UINT32_T が 1 ワードで表現しきれない処理系には対応しない
; 527  :         return (PMC_STATUS_INTERNAL_ERROR);

	mov	eax, -256				; ffffff00H
	jmp	SHORT $LN1@PMC_Multip
$LN2@PMC_Multip:

; 528  :     }
; 529  :     if (u == NULL)

	cmp	DWORD PTR _u$[ebp], 0
	jne	SHORT $LN3@PMC_Multip

; 530  :         return (PMC_STATUS_ARGUMENT_ERROR);

	or	eax, -1
	jmp	SHORT $LN1@PMC_Multip
$LN3@PMC_Multip:

; 531  :     if (w == NULL)

	cmp	DWORD PTR _w$[ebp], 0
	jne	SHORT $LN4@PMC_Multip

; 532  :         return (PMC_STATUS_ARGUMENT_ERROR);

	or	eax, -1
	jmp	SHORT $LN1@PMC_Multip
$LN4@PMC_Multip:

; 533  :     PMC_STATUS_CODE result;
; 534  :     if ((result = CheckNumber((NUMBER_HEADER*)u)) != PMC_STATUS_OK)

	mov	ecx, DWORD PTR _u$[ebp]
	push	ecx
	call	_CheckNumber
	add	esp, 4
	mov	DWORD PTR _result$[ebp], eax
	cmp	DWORD PTR _result$[ebp], 0
	je	SHORT $LN5@PMC_Multip

; 535  :         return (result);

	mov	eax, DWORD PTR _result$[ebp]
	jmp	SHORT $LN1@PMC_Multip
$LN5@PMC_Multip:

; 536  :     if ((result = PMC_Multiply_X_I_Imp((NUMBER_HEADER*)u, v, (NUMBER_HEADER**)w)) != PMC_STATUS_OK)

	mov	edx, DWORD PTR _w$[ebp]
	push	edx
	mov	eax, DWORD PTR _v$[ebp]
	push	eax
	mov	ecx, DWORD PTR _u$[ebp]
	push	ecx
	call	_PMC_Multiply_X_I_Imp
	add	esp, 12					; 0000000cH
	mov	DWORD PTR _result$[ebp], eax
	cmp	DWORD PTR _result$[ebp], 0
	je	SHORT $LN6@PMC_Multip

; 537  :         return (result);

	mov	eax, DWORD PTR _result$[ebp]
	jmp	SHORT $LN1@PMC_Multip
$LN6@PMC_Multip:

; 538  : #ifdef _DEBUG
; 539  :     if ((result = CheckNumber((NUMBER_HEADER*)*w)) != PMC_STATUS_OK)

	mov	edx, DWORD PTR _w$[ebp]
	mov	eax, DWORD PTR [edx]
	push	eax
	call	_CheckNumber
	add	esp, 4
	mov	DWORD PTR _result$[ebp], eax
	cmp	DWORD PTR _result$[ebp], 0
	je	SHORT $LN7@PMC_Multip

; 540  :         return (result);

	mov	eax, DWORD PTR _result$[ebp]
	jmp	SHORT $LN1@PMC_Multip
$LN7@PMC_Multip:

; 541  : #endif
; 542  :     return (PMC_STATUS_OK);

	xor	eax, eax
$LN1@PMC_Multip:

; 543  : }

	add	esp, 4
	cmp	ebp, esp
	call	__RTC_CheckEsp
	mov	esp, ebp
	pop	ebp
	ret	12					; 0000000cH
_PMC_Multiply_X_I@12 ENDP
_TEXT	ENDS
; Function compile flags: /Odtp /RTCsu
; File z:\sources\lunor\repos\rougemeilland\palmtree.math.core.uint\palmtree.math.core.uint\pmc_multiply.c
_TEXT	SEGMENT
_result$ = -4						; size = 4
_u$ = 8							; size = 8
_v$ = 16						; size = 4
_w$ = 20						; size = 4
_PMC_Multiply_L_X@16 PROC

; 652  : {

	push	ebp
	mov	ebp, esp
	push	ecx
	mov	DWORD PTR [ebp-4], -858993460		; ccccccccH
	mov	ecx, OFFSET __B6A081C3_pmc_multiply@c
	call	@__CheckForDebuggerJustMyCode@4

; 653  :     if (__UNIT_TYPE_BIT_COUNT * 2 < sizeof(u) * 8)

	xor	eax, eax
	je	SHORT $LN2@PMC_Multip

; 654  :     {
; 655  :         // _UINT64_T が 2 ワードで表現しきれない処理系には対応しない
; 656  :         return (PMC_STATUS_INTERNAL_ERROR);

	mov	eax, -256				; ffffff00H
	jmp	SHORT $LN1@PMC_Multip
$LN2@PMC_Multip:

; 657  :     }
; 658  :     if (v == NULL)

	cmp	DWORD PTR _v$[ebp], 0
	jne	SHORT $LN3@PMC_Multip

; 659  :         return (PMC_STATUS_ARGUMENT_ERROR);

	or	eax, -1
	jmp	SHORT $LN1@PMC_Multip
$LN3@PMC_Multip:

; 660  :     if (w == NULL)

	cmp	DWORD PTR _w$[ebp], 0
	jne	SHORT $LN4@PMC_Multip

; 661  :         return (PMC_STATUS_ARGUMENT_ERROR);

	or	eax, -1
	jmp	SHORT $LN1@PMC_Multip
$LN4@PMC_Multip:

; 662  :     PMC_STATUS_CODE result;
; 663  :     if ((result = CheckNumber((NUMBER_HEADER*)v)) != PMC_STATUS_OK)

	mov	ecx, DWORD PTR _v$[ebp]
	push	ecx
	call	_CheckNumber
	add	esp, 4
	mov	DWORD PTR _result$[ebp], eax
	cmp	DWORD PTR _result$[ebp], 0
	je	SHORT $LN5@PMC_Multip

; 664  :         return (result);

	mov	eax, DWORD PTR _result$[ebp]
	jmp	SHORT $LN1@PMC_Multip
$LN5@PMC_Multip:

; 665  :     if ((result = PMC_Multiply_X_L_Imp((NUMBER_HEADER*)v, u, (NUMBER_HEADER**)w)) != PMC_STATUS_OK)

	mov	edx, DWORD PTR _w$[ebp]
	push	edx
	mov	eax, DWORD PTR _u$[ebp+4]
	push	eax
	mov	ecx, DWORD PTR _u$[ebp]
	push	ecx
	mov	edx, DWORD PTR _v$[ebp]
	push	edx
	call	_PMC_Multiply_X_L_Imp
	add	esp, 16					; 00000010H
	mov	DWORD PTR _result$[ebp], eax
	cmp	DWORD PTR _result$[ebp], 0
	je	SHORT $LN6@PMC_Multip

; 666  :         return (result);

	mov	eax, DWORD PTR _result$[ebp]
	jmp	SHORT $LN1@PMC_Multip
$LN6@PMC_Multip:

; 667  : #ifdef _DEBUG
; 668  :     if ((result = CheckNumber((NUMBER_HEADER*)*w)) != PMC_STATUS_OK)

	mov	eax, DWORD PTR _w$[ebp]
	mov	ecx, DWORD PTR [eax]
	push	ecx
	call	_CheckNumber
	add	esp, 4
	mov	DWORD PTR _result$[ebp], eax
	cmp	DWORD PTR _result$[ebp], 0
	je	SHORT $LN7@PMC_Multip

; 669  :         return (result);

	mov	eax, DWORD PTR _result$[ebp]
	jmp	SHORT $LN1@PMC_Multip
$LN7@PMC_Multip:

; 670  : #endif
; 671  :     return (PMC_STATUS_OK);

	xor	eax, eax
$LN1@PMC_Multip:

; 672  : }

	add	esp, 4
	cmp	ebp, esp
	call	__RTC_CheckEsp
	mov	esp, ebp
	pop	ebp
	ret	16					; 00000010H
_PMC_Multiply_L_X@16 ENDP
_TEXT	ENDS
; Function compile flags: /Odtp /RTCsu
; File z:\sources\lunor\repos\rougemeilland\palmtree.math.core.uint\palmtree.math.core.uint\pmc_multiply.c
_TEXT	SEGMENT
_result$ = -4						; size = 4
_u$ = 8							; size = 4
_v$ = 12						; size = 4
_w$ = 16						; size = 4
_PMC_Multiply_I_X@12 PROC

; 500  : {

	push	ebp
	mov	ebp, esp
	push	ecx
	mov	DWORD PTR [ebp-4], -858993460		; ccccccccH
	mov	ecx, OFFSET __B6A081C3_pmc_multiply@c
	call	@__CheckForDebuggerJustMyCode@4

; 501  :     if (__UNIT_TYPE_BIT_COUNT < sizeof(u) * 8)

	xor	eax, eax
	je	SHORT $LN2@PMC_Multip

; 502  :     {
; 503  :         // _UINT32_T が 1 ワードで表現しきれない処理系には対応しない
; 504  :         return (PMC_STATUS_INTERNAL_ERROR);

	mov	eax, -256				; ffffff00H
	jmp	SHORT $LN1@PMC_Multip
$LN2@PMC_Multip:

; 505  :     }
; 506  :     if (v == NULL)

	cmp	DWORD PTR _v$[ebp], 0
	jne	SHORT $LN3@PMC_Multip

; 507  :         return (PMC_STATUS_ARGUMENT_ERROR);

	or	eax, -1
	jmp	SHORT $LN1@PMC_Multip
$LN3@PMC_Multip:

; 508  :     if (w == NULL)

	cmp	DWORD PTR _w$[ebp], 0
	jne	SHORT $LN4@PMC_Multip

; 509  :         return (PMC_STATUS_ARGUMENT_ERROR);

	or	eax, -1
	jmp	SHORT $LN1@PMC_Multip
$LN4@PMC_Multip:

; 510  :     PMC_STATUS_CODE result;
; 511  :     if ((result = CheckNumber((NUMBER_HEADER*)v)) != PMC_STATUS_OK)

	mov	ecx, DWORD PTR _v$[ebp]
	push	ecx
	call	_CheckNumber
	add	esp, 4
	mov	DWORD PTR _result$[ebp], eax
	cmp	DWORD PTR _result$[ebp], 0
	je	SHORT $LN5@PMC_Multip

; 512  :         return (result);

	mov	eax, DWORD PTR _result$[ebp]
	jmp	SHORT $LN1@PMC_Multip
$LN5@PMC_Multip:

; 513  :     if ((result = PMC_Multiply_X_I_Imp((NUMBER_HEADER*)v, u, (NUMBER_HEADER**)w)) != PMC_STATUS_OK)

	mov	edx, DWORD PTR _w$[ebp]
	push	edx
	mov	eax, DWORD PTR _u$[ebp]
	push	eax
	mov	ecx, DWORD PTR _v$[ebp]
	push	ecx
	call	_PMC_Multiply_X_I_Imp
	add	esp, 12					; 0000000cH
	mov	DWORD PTR _result$[ebp], eax
	cmp	DWORD PTR _result$[ebp], 0
	je	SHORT $LN6@PMC_Multip

; 514  :         return (result);

	mov	eax, DWORD PTR _result$[ebp]
	jmp	SHORT $LN1@PMC_Multip
$LN6@PMC_Multip:

; 515  : #ifdef _DEBUG
; 516  :     if ((result = CheckNumber((NUMBER_HEADER*)*w)) != PMC_STATUS_OK)

	mov	edx, DWORD PTR _w$[ebp]
	mov	eax, DWORD PTR [edx]
	push	eax
	call	_CheckNumber
	add	esp, 4
	mov	DWORD PTR _result$[ebp], eax
	cmp	DWORD PTR _result$[ebp], 0
	je	SHORT $LN7@PMC_Multip

; 517  :         return (result);

	mov	eax, DWORD PTR _result$[ebp]
	jmp	SHORT $LN1@PMC_Multip
$LN7@PMC_Multip:

; 518  : #endif
; 519  :     return (PMC_STATUS_OK);

	xor	eax, eax
$LN1@PMC_Multip:

; 520  : }

	add	esp, 4
	cmp	ebp, esp
	call	__RTC_CheckEsp
	mov	esp, ebp
	pop	ebp
	ret	12					; 0000000cH
_PMC_Multiply_I_X@12 ENDP
_TEXT	ENDS
; Function compile flags: /Odtp /RTCsu
; File z:\sources\lunor\repos\rougemeilland\palmtree.math.core.uint\palmtree.math.core.uint\pmc_multiply.c
_TEXT	SEGMENT
_feature$ = 8						; size = 4
_Initialize_Multiply PROC

; 785  : {

	push	ebp
	mov	ebp, esp
	mov	ecx, OFFSET __B6A081C3_pmc_multiply@c
	call	@__CheckForDebuggerJustMyCode@4

; 786  :     if (feature->PROCESSOR_FEATURE_ADX && feature->PROCESSOR_FEATURE_BMI2)

	mov	eax, DWORD PTR _feature$[ebp]
	mov	ecx, DWORD PTR [eax]
	shr	ecx, 1
	and	ecx, 1
	je	SHORT $LN2@Initialize
	mov	edx, DWORD PTR _feature$[ebp]
	mov	eax, DWORD PTR [edx]
	shr	eax, 3
	and	eax, 1
	je	SHORT $LN2@Initialize

; 787  :     {
; 788  :         fp_Multiply_X_1W = Multiply_X_1W_using_MULX_ADCX;

	mov	DWORD PTR _fp_Multiply_X_1W, OFFSET _Multiply_X_1W_using_MULX_ADCX

; 789  :         fp_Multiply_X_2W = Multiply_X_2W_using_MULX_ADCX;

	mov	DWORD PTR _fp_Multiply_X_2W, OFFSET _Multiply_X_2W_using_MULX_ADCX

; 790  :         fp_Multiply_X_X = Multiply_X_X_using_MULX_ADCX;

	mov	DWORD PTR _fp_Multiply_X_X, OFFSET _Multiply_X_X_using_MULX_ADCX

; 791  :     }

	jmp	SHORT $LN3@Initialize
$LN2@Initialize:

; 792  :     else
; 793  :     {
; 794  :         fp_Multiply_X_1W = Multiply_X_1W_using_MUL_ADC;

	mov	DWORD PTR _fp_Multiply_X_1W, OFFSET _Multiply_X_1W_using_MUL_ADC

; 795  :         fp_Multiply_X_2W = Multiply_X_2W_using_MUL_ADC;

	mov	DWORD PTR _fp_Multiply_X_2W, OFFSET _Multiply_X_2W_using_MUL_ADC

; 796  :         fp_Multiply_X_X = Multiply_X_X_using_MUL_ADC;

	mov	DWORD PTR _fp_Multiply_X_X, OFFSET _Multiply_X_X_using_MUL_ADC
$LN3@Initialize:

; 797  :     }
; 798  :     return (PMC_STATUS_OK);

	xor	eax, eax

; 799  : }

	cmp	ebp, esp
	call	__RTC_CheckEsp
	pop	ebp
	ret	0
_Initialize_Multiply ENDP
_TEXT	ENDS
; Function compile flags: /Odtp /RTCsu
; File z:\sources\lunor\repos\rougemeilland\palmtree.math.core.uint\palmtree.math.core.uint\pmc_multiply.c
_TEXT	SEGMENT
_u$ = 8							; size = 4
_u_count$ = 12						; size = 4
_v$ = 16						; size = 4
_v_count$ = 20						; size = 4
_w$ = 24						; size = 4
_Multiply_X_X_Imp PROC

; 36   : {

	push	ebp
	mov	ebp, esp
	push	esi
	mov	ecx, OFFSET __B6A081C3_pmc_multiply@c
	call	@__CheckForDebuggerJustMyCode@4

; 37   :     (*fp_Multiply_X_X)(u, u_count,  v,  v_count,  w);

	mov	esi, esp
	mov	eax, DWORD PTR _w$[ebp]
	push	eax
	mov	ecx, DWORD PTR _v_count$[ebp]
	push	ecx
	mov	edx, DWORD PTR _v$[ebp]
	push	edx
	mov	eax, DWORD PTR _u_count$[ebp]
	push	eax
	mov	ecx, DWORD PTR _u$[ebp]
	push	ecx
	call	DWORD PTR _fp_Multiply_X_X
	add	esp, 20					; 00000014H
	cmp	esi, esp
	call	__RTC_CheckEsp

; 38   : }

	pop	esi
	cmp	ebp, esp
	call	__RTC_CheckEsp
	pop	ebp
	ret	0
_Multiply_X_X_Imp ENDP
_TEXT	ENDS
END
