; Listing generated by Microsoft (R) Optimizing Compiler Version 19.16.27026.1 

	TITLE	Z:\Sources\Lunor\Repos\rougemeilland\Palmtree.Math.Core.Uint\Palmtree.Math.Core.Uint\pmc_modpow.c
	.686P
	.XMM
	include listing.inc
	.model	flat

INCLUDELIB MSVCRTD
INCLUDELIB OLDNAMES

msvcjmc	SEGMENT
__7B7A869E_ctype@h DB 01H
__457DD326_basetsd@h DB 01H
__4384A2D9_corecrt_memcpy_s@h DB 01H
__4E51A221_corecrt_wstring@h DB 01H
__2140C079_string@h DB 01H
__1887E595_winnt@h DB 01H
__9FC7C64B_processthreadsapi@h DB 01H
__FA470AEC_memoryapi@h DB 01H
__F37DAFF1_winerror@h DB 01H
__7A450CCC_winbase@h DB 01H
__B4B40122_winioctl@h DB 01H
__86261D59_stralign@h DB 01H
__BB6D3116_pmc_uint_internal@h DB 01H
__8CA3E54E_pmc_inline_func@h DB 01H
__6553949D_pmc_modpow@c DB 01H
msvcjmc	ENDS
PUBLIC	_Initialize_ModPow
PUBLIC	_PMC_ModPow_X_X_X@16
PUBLIC	__JustMyCode_Default
EXTRN	_AllocateBlock:PROC
EXTRN	_DeallocateBlock:PROC
EXTRN	_CheckBlockLight:PROC
EXTRN	_AllocateNumber:PROC
EXTRN	_DeallocateNumber:PROC
EXTRN	_CommitNumber:PROC
EXTRN	_CheckNumber:PROC
EXTRN	_DuplicateNumber:PROC
EXTRN	_Multiply_X_X_Imp:PROC
EXTRN	_DivRem_X_X:PROC
EXTRN	_Compare_Imp:PROC
EXTRN	@_RTC_CheckStackVars@8:PROC
EXTRN	@__CheckForDebuggerJustMyCode@4:PROC
EXTRN	__RTC_CheckEsp:PROC
EXTRN	__RTC_InitBase:PROC
EXTRN	__RTC_Shutdown:PROC
EXTRN	_number_zero:BYTE
EXTRN	_number_one:BYTE
;	COMDAT rtc$TMZ
rtc$TMZ	SEGMENT
__RTC_Shutdown.rtc$TMZ DD FLAT:__RTC_Shutdown
rtc$TMZ	ENDS
;	COMDAT rtc$IMZ
rtc$IMZ	SEGMENT
__RTC_InitBase.rtc$IMZ DD FLAT:__RTC_InitBase
rtc$IMZ	ENDS
; Function compile flags: /Odt
;	COMDAT __JustMyCode_Default
_TEXT	SEGMENT
__JustMyCode_Default PROC				; COMDAT
	push	ebp
	mov	ebp, esp
	pop	ebp
	ret	0
__JustMyCode_Default ENDP
_TEXT	ENDS
; Function compile flags: /Odtp /RTCsu
; File z:\sources\lunor\repos\rougemeilland\palmtree.math.core.uint\palmtree.math.core.uint\pmc_modpow.c
_TEXT	SEGMENT
_result$ = -4						; size = 4
_v$ = 8							; size = 4
_e$ = 12						; size = 4
_m$ = 16						; size = 4
_r$ = 20						; size = 4
_PMC_ModPow_X_X_X_Imp PROC

; 500  : {

	push	ebp
	mov	ebp, esp
	push	ecx
	mov	DWORD PTR [ebp-4], -858993460		; ccccccccH
	mov	ecx, OFFSET __6553949D_pmc_modpow@c
	call	@__CheckForDebuggerJustMyCode@4

; 501  :     PMC_STATUS_CODE result;
; 502  : 
; 503  :     if (m->IS_ZERO)

	mov	eax, DWORD PTR _m$[ebp]
	mov	ecx, DWORD PTR [eax+24]
	shr	ecx, 1
	and	ecx, 1
	je	SHORT $LN2@PMC_ModPow

; 504  :     {
; 505  :         // m が 0 の場合
; 506  : 
; 507  :         // 0 による除算は許されないのでエラーを通知する
; 508  :         return (PMC_STATUS_DIVISION_BY_ZERO);

	mov	eax, -3					; fffffffdH
	jmp	$LN1@PMC_ModPow

; 509  :     }

	jmp	$LN3@PMC_ModPow
$LN2@PMC_ModPow:

; 510  :     else if (m->IS_ONE)

	mov	edx, DWORD PTR _m$[ebp]
	mov	eax, DWORD PTR [edx+24]
	shr	eax, 2
	and	eax, 1
	je	SHORT $LN4@PMC_ModPow

; 511  :     {
; 512  :         // m が 1 の場合
; 513  :         if (v->IS_ZERO)

	mov	ecx, DWORD PTR _v$[ebp]
	mov	edx, DWORD PTR [ecx+24]
	shr	edx, 1
	and	edx, 1
	je	SHORT $LN6@PMC_ModPow

; 514  :         {
; 515  :             // v が 0 の場合
; 516  :             if (e->IS_ZERO)

	mov	eax, DWORD PTR _e$[ebp]
	mov	ecx, DWORD PTR [eax+24]
	shr	ecx, 1
	and	ecx, 1
	je	SHORT $LN8@PMC_ModPow

; 517  :             {
; 518  :                 // e が 0 の場合
; 519  : 
; 520  :                 // 0 の 0 乗となるので、エラーを返す
; 521  :                 return (PMC_STATUS_ARGUMENT_ERROR);

	or	eax, -1
	jmp	$LN1@PMC_ModPow

; 522  :             }

	jmp	SHORT $LN9@PMC_ModPow
$LN8@PMC_ModPow:

; 523  :             else
; 524  :             {
; 525  :                 // e が 0 ではない場合
; 526  : 
; 527  :                 // v の e 乗がどんな値であっても 1 では必ず割り切れるので剰余は 0 となる。
; 528  :                 *r = &number_zero;

	mov	edx, DWORD PTR _r$[ebp]
	mov	DWORD PTR [edx], OFFSET _number_zero
$LN9@PMC_ModPow:

; 529  :             }
; 530  :         }

	jmp	SHORT $LN7@PMC_ModPow
$LN6@PMC_ModPow:

; 531  :         else
; 532  :         {
; 533  :             // v が 0 ではない場合
; 534  : 
; 535  :             // v の e 乗がどんな値であっても 1 では必ず割り切れるので剰余は 0 となる。
; 536  :             *r = &number_zero;

	mov	eax, DWORD PTR _r$[ebp]
	mov	DWORD PTR [eax], OFFSET _number_zero
$LN7@PMC_ModPow:

; 537  :         }
; 538  :     }

	jmp	$LN3@PMC_ModPow
$LN4@PMC_ModPow:

; 539  :     else
; 540  :     {
; 541  :         // m が 2 以上の場合
; 542  :         if (v->IS_ZERO)

	mov	ecx, DWORD PTR _v$[ebp]
	mov	edx, DWORD PTR [ecx+24]
	shr	edx, 1
	and	edx, 1
	je	SHORT $LN10@PMC_ModPow

; 543  :         {
; 544  :             // v が 0 の場合
; 545  :             if (e->IS_ZERO)

	mov	eax, DWORD PTR _e$[ebp]
	mov	ecx, DWORD PTR [eax+24]
	shr	ecx, 1
	and	ecx, 1
	je	SHORT $LN12@PMC_ModPow

; 546  :             {
; 547  :                 // e が 0 の場合
; 548  : 
; 549  :                 // 0 の 0 乗となるので、エラーを返す
; 550  :                 return (PMC_STATUS_ARGUMENT_ERROR);

	or	eax, -1
	jmp	$LN1@PMC_ModPow

; 551  :             }

	jmp	SHORT $LN13@PMC_ModPow
$LN12@PMC_ModPow:

; 552  :             else
; 553  :             {
; 554  :                 // e が 0 ではない場合
; 555  : 
; 556  :                 *r = &number_zero;

	mov	edx, DWORD PTR _r$[ebp]
	mov	DWORD PTR [edx], OFFSET _number_zero
$LN13@PMC_ModPow:

; 557  :             }
; 558  :         }

	jmp	$LN3@PMC_ModPow
$LN10@PMC_ModPow:

; 559  :         else if (v->IS_ONE)

	mov	eax, DWORD PTR _v$[ebp]
	mov	ecx, DWORD PTR [eax+24]
	shr	ecx, 2
	and	ecx, 1
	je	SHORT $LN14@PMC_ModPow

; 560  :         {
; 561  :             // v が 1 の場合
; 562  : 
; 563  :             // 1 を何乗しても 1 であり、1 を 2 以上の数で割ればその剰余は必ず 1 となる
; 564  :             *r = &number_one;

	mov	edx, DWORD PTR _r$[ebp]
	mov	DWORD PTR [edx], OFFSET _number_one

; 565  :         }

	jmp	SHORT $LN3@PMC_ModPow
$LN14@PMC_ModPow:

; 566  :         else
; 567  :         {
; 568  :             // v が 2 以上の場合
; 569  :             if (e->IS_ZERO)

	mov	eax, DWORD PTR _e$[ebp]
	mov	ecx, DWORD PTR [eax+24]
	shr	ecx, 1
	and	ecx, 1
	je	SHORT $LN16@PMC_ModPow

; 570  :             {
; 571  :                 // e が 0 の場合
; 572  :                 *r = &number_one;

	mov	edx, DWORD PTR _r$[ebp]
	mov	DWORD PTR [edx], OFFSET _number_one

; 573  :             }

	jmp	SHORT $LN3@PMC_ModPow
$LN16@PMC_ModPow:

; 574  :             else if (e->IS_ONE)

	mov	eax, DWORD PTR _e$[ebp]
	mov	ecx, DWORD PTR [eax+24]
	shr	ecx, 2
	and	ecx, 1
	je	SHORT $LN18@PMC_ModPow

; 575  :             {
; 576  :                 // e が 1 の場合
; 577  : 
; 578  :                 // v % m を計算して返す
; 579  :                 if ((result = Remainder(v, m, r)) != PMC_STATUS_OK)

	mov	edx, DWORD PTR _r$[ebp]
	push	edx
	mov	eax, DWORD PTR _m$[ebp]
	push	eax
	mov	ecx, DWORD PTR _v$[ebp]
	push	ecx
	call	_Remainder
	add	esp, 12					; 0000000cH
	mov	DWORD PTR _result$[ebp], eax
	cmp	DWORD PTR _result$[ebp], 0
	je	SHORT $LN20@PMC_ModPow

; 580  :                     return (result);

	mov	eax, DWORD PTR _result$[ebp]
	jmp	SHORT $LN1@PMC_ModPow
$LN20@PMC_ModPow:

; 581  :             }

	jmp	SHORT $LN3@PMC_ModPow
$LN18@PMC_ModPow:

; 582  :             else
; 583  :             {
; 584  :                 // v、e、m がすべて 2 以上である場合
; 585  :                 // v の e 乗 の m による剰余を計算して返す
; 586  :                 if ((result = ModulePower(v, e, m, r)) != PMC_STATUS_OK)

	mov	edx, DWORD PTR _r$[ebp]
	push	edx
	mov	eax, DWORD PTR _m$[ebp]
	push	eax
	mov	ecx, DWORD PTR _e$[ebp]
	push	ecx
	mov	edx, DWORD PTR _v$[ebp]
	push	edx
	call	_ModulePower
	add	esp, 16					; 00000010H
	mov	DWORD PTR _result$[ebp], eax
	cmp	DWORD PTR _result$[ebp], 0
	je	SHORT $LN3@PMC_ModPow

; 587  :                     return (result);

	mov	eax, DWORD PTR _result$[ebp]
	jmp	SHORT $LN1@PMC_ModPow
$LN3@PMC_ModPow:

; 588  :             }
; 589  :         }
; 590  :     }
; 591  :     return (PMC_STATUS_OK);

	xor	eax, eax
$LN1@PMC_ModPow:

; 592  : }

	add	esp, 4
	cmp	ebp, esp
	call	__RTC_CheckEsp
	mov	esp, ebp
	pop	ebp
	ret	0
_PMC_ModPow_X_X_X_Imp ENDP
_TEXT	ENDS
; Function compile flags: /Odtp /RTCsu
; File z:\sources\lunor\repos\rougemeilland\palmtree.math.core.uint\palmtree.math.core.uint\pmc_modpow.c
_TEXT	SEGMENT
_u_count$ = -236					; size = 4
_w_ptr$ = -228						; size = 4
_v_ptr$ = -220						; size = 4
_u_ptr$ = -212						; size = 4
_e_mask$ = -204						; size = 4
_e_count$ = -200					; size = 4
_cmp$ = -196						; size = 4
_v_count$ = -192					; size = 4
_r_check_code$ = -184					; size = 4
_r_bit_count$ = -176					; size = 4
_q_buf$ = -172						; size = 4
_q_buf_words$ = -164					; size = 4
_q_buf_code$ = -152					; size = 4
_q_buf_bit_count$ = -144				; size = 4
_work_v_buf$ = -140					; size = 4
_work_v_buf_words$ = -132				; size = 4
_work_v_buf_code$ = -120				; size = 4
_work_v_bit_count$ = -112				; size = 4
_work_2_buf$ = -108					; size = 4
_work_2_buf_words$ = -100				; size = 4
_work_2_buf_code$ = -88					; size = 4
_work_2_bit_count$ = -80				; size = 4
_work_1_buf$ = -76					; size = 4
_work_1_buf_words$ = -68				; size = 4
_work_1_buf_code$ = -56					; size = 4
_work_1_bit_count$ = -48				; size = 4
_v_2_buf$ = -44						; size = 4
_v_2_buf_words$ = -36					; size = 4
_v_2_buf_code$ = -24					; size = 4
_v_2_bit_count$ = -16					; size = 4
_m_count$ = -12						; size = 4
_m_buf$ = -8						; size = 4
_result$ = -4						; size = 4
_v$ = 8							; size = 4
_e$ = 12						; size = 4
_m$ = 16						; size = 4
_r$ = 20						; size = 4
_ModulePower PROC

; 155  : {

	push	ebp
	mov	ebp, esp
	sub	esp, 236				; 000000ecH
	push	edi
	lea	edi, DWORD PTR [ebp-236]
	mov	ecx, 59					; 0000003bH
	mov	eax, -858993460				; ccccccccH
	rep stosd
	mov	ecx, OFFSET __6553949D_pmc_modpow@c
	call	@__CheckForDebuggerJustMyCode@4

; 156  : #ifdef DO_TRACE
; 157  :     ReportIN(v, e, m);
; 158  : #endif
; 159  :     PMC_STATUS_CODE result;
; 160  :     __UNIT_TYPE* m_buf = m->BLOCK;

	mov	eax, DWORD PTR _m$[ebp]
	mov	ecx, DWORD PTR [eax+32]
	mov	DWORD PTR _m_buf$[ebp], ecx

; 161  :     __UNIT_TYPE m_count = m->UNIT_WORD_COUNT;

	mov	edx, DWORD PTR _m$[ebp]
	mov	eax, DWORD PTR [edx+8]
	mov	DWORD PTR _m_count$[ebp], eax

; 162  : 
; 163  :     // 作業域を獲得する
; 164  : 
; 165  :     __UNIT_TYPE v_2_bit_count = v->UNIT_WORD_COUNT * __UNIT_TYPE_BIT_COUNT + __UNIT_TYPE_BIT_COUNT;

	mov	ecx, DWORD PTR _v$[ebp]
	mov	edx, DWORD PTR [ecx+8]
	shl	edx, 5
	add	edx, 32					; 00000020H
	mov	DWORD PTR _v_2_bit_count$[ebp], edx

; 166  :     __UNIT_TYPE v_2_buf_code;
; 167  :     __UNIT_TYPE v_2_buf_words;
; 168  :     __UNIT_TYPE* v_2_buf = AllocateBlock(v_2_bit_count, &v_2_buf_words, &v_2_buf_code);

	lea	eax, DWORD PTR _v_2_buf_code$[ebp]
	push	eax
	lea	ecx, DWORD PTR _v_2_buf_words$[ebp]
	push	ecx
	mov	edx, DWORD PTR _v_2_bit_count$[ebp]
	push	edx
	call	_AllocateBlock
	add	esp, 12					; 0000000cH
	mov	DWORD PTR _v_2_buf$[ebp], eax

; 169  :     if (v_2_buf == NULL)

	cmp	DWORD PTR _v_2_buf$[ebp], 0
	jne	SHORT $LN10@ModulePowe

; 170  :     {
; 171  :         return (PMC_STATUS_NOT_ENOUGH_MEMORY);

	mov	eax, -5					; fffffffbH
	jmp	$LN1@ModulePowe
$LN10@ModulePowe:

; 172  :     }
; 173  : 
; 174  :     __UNIT_TYPE work_1_bit_count = m_count * 2 * __UNIT_TYPE_BIT_COUNT + __UNIT_TYPE_BIT_COUNT;

	mov	eax, DWORD PTR _m_count$[ebp]
	shl	eax, 1
	shl	eax, 5
	add	eax, 32					; 00000020H
	mov	DWORD PTR _work_1_bit_count$[ebp], eax

; 175  :     __UNIT_TYPE work_1_buf_code;
; 176  :     __UNIT_TYPE work_1_buf_words;
; 177  :     __UNIT_TYPE* work_1_buf = AllocateBlock(work_1_bit_count, &work_1_buf_words, &work_1_buf_code);

	lea	ecx, DWORD PTR _work_1_buf_code$[ebp]
	push	ecx
	lea	edx, DWORD PTR _work_1_buf_words$[ebp]
	push	edx
	mov	eax, DWORD PTR _work_1_bit_count$[ebp]
	push	eax
	call	_AllocateBlock
	add	esp, 12					; 0000000cH
	mov	DWORD PTR _work_1_buf$[ebp], eax

; 178  :     if (work_1_buf == NULL)

	cmp	DWORD PTR _work_1_buf$[ebp], 0
	jne	SHORT $LN11@ModulePowe

; 179  :     {
; 180  :         DeallocateBlock(v_2_buf, v_2_buf_words);

	mov	ecx, DWORD PTR _v_2_buf_words$[ebp]
	push	ecx
	mov	edx, DWORD PTR _v_2_buf$[ebp]
	push	edx
	call	_DeallocateBlock
	add	esp, 8

; 181  :         return (PMC_STATUS_NOT_ENOUGH_MEMORY);

	mov	eax, -5					; fffffffbH
	jmp	$LN1@ModulePowe
$LN11@ModulePowe:

; 182  :     }
; 183  : 
; 184  :     __UNIT_TYPE work_2_bit_count = m_count * 2 * __UNIT_TYPE_BIT_COUNT + __UNIT_TYPE_BIT_COUNT;

	mov	eax, DWORD PTR _m_count$[ebp]
	shl	eax, 1
	shl	eax, 5
	add	eax, 32					; 00000020H
	mov	DWORD PTR _work_2_bit_count$[ebp], eax

; 185  :     __UNIT_TYPE work_2_buf_code;
; 186  :     __UNIT_TYPE work_2_buf_words;
; 187  :     __UNIT_TYPE* work_2_buf = AllocateBlock(work_2_bit_count, &work_2_buf_words, &work_2_buf_code);

	lea	ecx, DWORD PTR _work_2_buf_code$[ebp]
	push	ecx
	lea	edx, DWORD PTR _work_2_buf_words$[ebp]
	push	edx
	mov	eax, DWORD PTR _work_2_bit_count$[ebp]
	push	eax
	call	_AllocateBlock
	add	esp, 12					; 0000000cH
	mov	DWORD PTR _work_2_buf$[ebp], eax

; 188  :     if (work_2_buf == NULL)

	cmp	DWORD PTR _work_2_buf$[ebp], 0
	jne	SHORT $LN12@ModulePowe

; 189  :     {
; 190  :         DeallocateBlock(work_1_buf, work_1_buf_words);

	mov	ecx, DWORD PTR _work_1_buf_words$[ebp]
	push	ecx
	mov	edx, DWORD PTR _work_1_buf$[ebp]
	push	edx
	call	_DeallocateBlock
	add	esp, 8

; 191  :         DeallocateBlock(v_2_buf, v_2_buf_words);

	mov	eax, DWORD PTR _v_2_buf_words$[ebp]
	push	eax
	mov	ecx, DWORD PTR _v_2_buf$[ebp]
	push	ecx
	call	_DeallocateBlock
	add	esp, 8

; 192  :         return (PMC_STATUS_NOT_ENOUGH_MEMORY);

	mov	eax, -5					; fffffffbH
	jmp	$LN1@ModulePowe
$LN12@ModulePowe:

; 193  :     }
; 194  : 
; 195  :     __UNIT_TYPE work_v_bit_count = m_count * __UNIT_TYPE_BIT_COUNT;

	mov	edx, DWORD PTR _m_count$[ebp]
	shl	edx, 5
	mov	DWORD PTR _work_v_bit_count$[ebp], edx

; 196  :     __UNIT_TYPE work_v_buf_code;
; 197  :     __UNIT_TYPE work_v_buf_words;
; 198  :     __UNIT_TYPE* work_v_buf = AllocateBlock(work_v_bit_count, &work_v_buf_words, &work_v_buf_code);

	lea	eax, DWORD PTR _work_v_buf_code$[ebp]
	push	eax
	lea	ecx, DWORD PTR _work_v_buf_words$[ebp]
	push	ecx
	mov	edx, DWORD PTR _work_v_bit_count$[ebp]
	push	edx
	call	_AllocateBlock
	add	esp, 12					; 0000000cH
	mov	DWORD PTR _work_v_buf$[ebp], eax

; 199  :     if (work_v_buf == NULL)

	cmp	DWORD PTR _work_v_buf$[ebp], 0
	jne	SHORT $LN13@ModulePowe

; 200  :     {
; 201  :         DeallocateBlock(work_2_buf, work_2_buf_words);

	mov	eax, DWORD PTR _work_2_buf_words$[ebp]
	push	eax
	mov	ecx, DWORD PTR _work_2_buf$[ebp]
	push	ecx
	call	_DeallocateBlock
	add	esp, 8

; 202  :         DeallocateBlock(work_1_buf, work_1_buf_words);

	mov	edx, DWORD PTR _work_1_buf_words$[ebp]
	push	edx
	mov	eax, DWORD PTR _work_1_buf$[ebp]
	push	eax
	call	_DeallocateBlock
	add	esp, 8

; 203  :         DeallocateBlock(v_2_buf, v_2_buf_words);

	mov	ecx, DWORD PTR _v_2_buf_words$[ebp]
	push	ecx
	mov	edx, DWORD PTR _v_2_buf$[ebp]
	push	edx
	call	_DeallocateBlock
	add	esp, 8

; 204  :         return (PMC_STATUS_NOT_ENOUGH_MEMORY);

	mov	eax, -5					; fffffffbH
	jmp	$LN1@ModulePowe
$LN13@ModulePowe:

; 205  :     }
; 206  : 
; 207  :     __UNIT_TYPE q_buf_bit_count = _MAXIMUM_UNIT(v->UNIT_BIT_COUNT, m->UNIT_BIT_COUNT * 2) - m->UNIT_BIT_COUNT + 1 + __UNIT_TYPE_BIT_COUNT;

	mov	eax, DWORD PTR _m$[ebp]
	mov	ecx, DWORD PTR [eax+12]
	shl	ecx, 1
	push	ecx
	mov	edx, DWORD PTR _v$[ebp]
	mov	eax, DWORD PTR [edx+12]
	push	eax
	call	__MAXIMUM_UNIT
	add	esp, 8
	mov	ecx, DWORD PTR _m$[ebp]
	sub	eax, DWORD PTR [ecx+12]
	add	eax, 33					; 00000021H
	mov	DWORD PTR _q_buf_bit_count$[ebp], eax

; 208  :     __UNIT_TYPE q_buf_code;
; 209  :     __UNIT_TYPE q_buf_words;
; 210  :     __UNIT_TYPE* q_buf = AllocateBlock(q_buf_bit_count, &q_buf_words, &q_buf_code);

	lea	edx, DWORD PTR _q_buf_code$[ebp]
	push	edx
	lea	eax, DWORD PTR _q_buf_words$[ebp]
	push	eax
	mov	ecx, DWORD PTR _q_buf_bit_count$[ebp]
	push	ecx
	call	_AllocateBlock
	add	esp, 12					; 0000000cH
	mov	DWORD PTR _q_buf$[ebp], eax

; 211  :     if (q_buf == NULL)

	cmp	DWORD PTR _q_buf$[ebp], 0
	jne	SHORT $LN14@ModulePowe

; 212  :     {
; 213  :         DeallocateBlock(work_v_buf, work_v_buf_words);

	mov	edx, DWORD PTR _work_v_buf_words$[ebp]
	push	edx
	mov	eax, DWORD PTR _work_v_buf$[ebp]
	push	eax
	call	_DeallocateBlock
	add	esp, 8

; 214  :         DeallocateBlock(work_2_buf, work_2_buf_words);

	mov	ecx, DWORD PTR _work_2_buf_words$[ebp]
	push	ecx
	mov	edx, DWORD PTR _work_2_buf$[ebp]
	push	edx
	call	_DeallocateBlock
	add	esp, 8

; 215  :         DeallocateBlock(work_1_buf, work_1_buf_words);

	mov	eax, DWORD PTR _work_1_buf_words$[ebp]
	push	eax
	mov	ecx, DWORD PTR _work_1_buf$[ebp]
	push	ecx
	call	_DeallocateBlock
	add	esp, 8

; 216  :         DeallocateBlock(v_2_buf, v_2_buf_words);

	mov	edx, DWORD PTR _v_2_buf_words$[ebp]
	push	edx
	mov	eax, DWORD PTR _v_2_buf$[ebp]
	push	eax
	call	_DeallocateBlock
	add	esp, 8

; 217  :         return (PMC_STATUS_NOT_ENOUGH_MEMORY);

	mov	eax, -5					; fffffffbH
	jmp	$LN1@ModulePowe
$LN14@ModulePowe:

; 218  :     }
; 219  : 
; 220  :     __UNIT_TYPE r_bit_count = m->UNIT_BIT_COUNT;

	mov	ecx, DWORD PTR _m$[ebp]
	mov	edx, DWORD PTR [ecx+12]
	mov	DWORD PTR _r_bit_count$[ebp], edx

; 221  :     __UNIT_TYPE r_check_code;
; 222  :     if ((result = AllocateNumber(r, r_bit_count, &r_check_code)) != PMC_STATUS_OK)

	lea	eax, DWORD PTR _r_check_code$[ebp]
	push	eax
	mov	ecx, DWORD PTR _r_bit_count$[ebp]
	push	ecx
	mov	edx, DWORD PTR _r$[ebp]
	push	edx
	call	_AllocateNumber
	add	esp, 12					; 0000000cH
	mov	DWORD PTR _result$[ebp], eax
	cmp	DWORD PTR _result$[ebp], 0
	je	SHORT $LN15@ModulePowe

; 223  :     {
; 224  :         DeallocateBlock(q_buf, q_buf_words);

	mov	eax, DWORD PTR _q_buf_words$[ebp]
	push	eax
	mov	ecx, DWORD PTR _q_buf$[ebp]
	push	ecx
	call	_DeallocateBlock
	add	esp, 8

; 225  :         DeallocateBlock(work_v_buf, work_v_buf_words);

	mov	edx, DWORD PTR _work_v_buf_words$[ebp]
	push	edx
	mov	eax, DWORD PTR _work_v_buf$[ebp]
	push	eax
	call	_DeallocateBlock
	add	esp, 8

; 226  :         DeallocateBlock(work_2_buf, work_2_buf_words);

	mov	ecx, DWORD PTR _work_2_buf_words$[ebp]
	push	ecx
	mov	edx, DWORD PTR _work_2_buf$[ebp]
	push	edx
	call	_DeallocateBlock
	add	esp, 8

; 227  :         DeallocateBlock(work_1_buf, work_1_buf_words);

	mov	eax, DWORD PTR _work_1_buf_words$[ebp]
	push	eax
	mov	ecx, DWORD PTR _work_1_buf$[ebp]
	push	ecx
	call	_DeallocateBlock
	add	esp, 8

; 228  :         DeallocateBlock(v_2_buf, v_2_buf_words);

	mov	edx, DWORD PTR _v_2_buf_words$[ebp]
	push	edx
	mov	eax, DWORD PTR _v_2_buf$[ebp]
	push	eax
	call	_DeallocateBlock
	add	esp, 8

; 229  :         return (PMC_STATUS_NOT_ENOUGH_MEMORY);

	mov	eax, -5					; fffffffbH
	jmp	$LN1@ModulePowe
$LN15@ModulePowe:

; 230  :     }
; 231  : 
; 232  :     __UNIT_TYPE v_count;
; 233  :     int cmp = Compare_Easy(v->BLOCK, v->UNIT_WORD_COUNT, m_buf, m_count);

	mov	ecx, DWORD PTR _m_count$[ebp]
	push	ecx
	mov	edx, DWORD PTR _m_buf$[ebp]
	push	edx
	mov	eax, DWORD PTR _v$[ebp]
	mov	ecx, DWORD PTR [eax+8]
	push	ecx
	mov	edx, DWORD PTR _v$[ebp]
	mov	eax, DWORD PTR [edx+32]
	push	eax
	call	_Compare_Easy
	add	esp, 16					; 00000010H
	mov	DWORD PTR _cmp$[ebp], eax

; 234  :     if (cmp == 0)

	cmp	DWORD PTR _cmp$[ebp], 0
	jne	SHORT $LN16@ModulePowe

; 235  :     {
; 236  :         // v == m である場合
; 237  : 
; 238  :         // v を何乗してもその剰余は 0 であるため、0 を返す。
; 239  : 
; 240  :         DeallocateNumber(*r);

	mov	ecx, DWORD PTR _r$[ebp]
	mov	edx, DWORD PTR [ecx]
	push	edx
	call	_DeallocateNumber
	add	esp, 4

; 241  :         DeallocateBlock(q_buf, q_buf_words);

	mov	eax, DWORD PTR _q_buf_words$[ebp]
	push	eax
	mov	ecx, DWORD PTR _q_buf$[ebp]
	push	ecx
	call	_DeallocateBlock
	add	esp, 8

; 242  :         DeallocateBlock(work_v_buf, work_v_buf_words);

	mov	edx, DWORD PTR _work_v_buf_words$[ebp]
	push	edx
	mov	eax, DWORD PTR _work_v_buf$[ebp]
	push	eax
	call	_DeallocateBlock
	add	esp, 8

; 243  :         DeallocateBlock(work_2_buf, work_2_buf_words);

	mov	ecx, DWORD PTR _work_2_buf_words$[ebp]
	push	ecx
	mov	edx, DWORD PTR _work_2_buf$[ebp]
	push	edx
	call	_DeallocateBlock
	add	esp, 8

; 244  :         DeallocateBlock(work_1_buf, work_1_buf_words);

	mov	eax, DWORD PTR _work_1_buf_words$[ebp]
	push	eax
	mov	ecx, DWORD PTR _work_1_buf$[ebp]
	push	ecx
	call	_DeallocateBlock
	add	esp, 8

; 245  :         DeallocateBlock(v_2_buf, v_2_buf_words);

	mov	edx, DWORD PTR _v_2_buf_words$[ebp]
	push	edx
	mov	eax, DWORD PTR _v_2_buf$[ebp]
	push	eax
	call	_DeallocateBlock
	add	esp, 8

; 246  :         *r = &number_zero;

	mov	ecx, DWORD PTR _r$[ebp]
	mov	DWORD PTR [ecx], OFFSET _number_zero

; 247  : #ifdef DO_TRACE
; 248  :         ReportOUT(*r);
; 249  : #endif
; 250  :         return (PMC_STATUS_OK);

	xor	eax, eax
	jmp	$LN1@ModulePowe

; 251  :     }

	jmp	$LN17@ModulePowe
$LN16@ModulePowe:

; 252  :     else if (cmp > 0)

	cmp	DWORD PTR _cmp$[ebp], 0
	jle	$LN18@ModulePowe

; 253  :     {
; 254  :         // v > m である場合
; 255  : 
; 256  :         // v2 を v % m に設定する。
; 257  : 
; 258  :         DivRem_X_X(v->BLOCK, v->UNIT_WORD_COUNT, m_buf, m_count, work_v_buf, q_buf, v_2_buf);

	mov	edx, DWORD PTR _v_2_buf$[ebp]
	push	edx
	mov	eax, DWORD PTR _q_buf$[ebp]
	push	eax
	mov	ecx, DWORD PTR _work_v_buf$[ebp]
	push	ecx
	mov	edx, DWORD PTR _m_count$[ebp]
	push	edx
	mov	eax, DWORD PTR _m_buf$[ebp]
	push	eax
	mov	ecx, DWORD PTR _v$[ebp]
	mov	edx, DWORD PTR [ecx+8]
	push	edx
	mov	eax, DWORD PTR _v$[ebp]
	mov	ecx, DWORD PTR [eax+32]
	push	ecx
	call	_DivRem_X_X
	add	esp, 28					; 0000001cH

; 259  :         if ((result = CheckBlockLight(work_v_buf, work_v_buf_code)) != PMC_STATUS_OK)

	mov	edx, DWORD PTR _work_v_buf_code$[ebp]
	push	edx
	mov	eax, DWORD PTR _work_v_buf$[ebp]
	push	eax
	call	_CheckBlockLight
	add	esp, 8
	mov	DWORD PTR _result$[ebp], eax
	cmp	DWORD PTR _result$[ebp], 0
	je	SHORT $LN20@ModulePowe

; 260  :             return (result);

	mov	eax, DWORD PTR _result$[ebp]
	jmp	$LN1@ModulePowe
$LN20@ModulePowe:

; 261  :         if ((result = CheckBlockLight(q_buf, q_buf_code)) != PMC_STATUS_OK)

	mov	ecx, DWORD PTR _q_buf_code$[ebp]
	push	ecx
	mov	edx, DWORD PTR _q_buf$[ebp]
	push	edx
	call	_CheckBlockLight
	add	esp, 8
	mov	DWORD PTR _result$[ebp], eax
	cmp	DWORD PTR _result$[ebp], 0
	je	SHORT $LN21@ModulePowe

; 262  :             return (result);

	mov	eax, DWORD PTR _result$[ebp]
	jmp	$LN1@ModulePowe
$LN21@ModulePowe:

; 263  :         if ((result = CheckBlockLight(v_2_buf, v_2_buf_code)) != PMC_STATUS_OK)

	mov	eax, DWORD PTR _v_2_buf_code$[ebp]
	push	eax
	mov	ecx, DWORD PTR _v_2_buf$[ebp]
	push	ecx
	call	_CheckBlockLight
	add	esp, 8
	mov	DWORD PTR _result$[ebp], eax
	cmp	DWORD PTR _result$[ebp], 0
	je	SHORT $LN22@ModulePowe

; 264  :             return (result);

	mov	eax, DWORD PTR _result$[ebp]
	jmp	$LN1@ModulePowe
$LN22@ModulePowe:

; 265  :         v_count = m_count;

	mov	edx, DWORD PTR _m_count$[ebp]
	mov	DWORD PTR _v_count$[ebp], edx
$LN2@ModulePowe:

; 266  :         while (v_count > 0 && v_2_buf[v_count - 1] == 0)

	cmp	DWORD PTR _v_count$[ebp], 0
	jbe	SHORT $LN3@ModulePowe
	mov	eax, DWORD PTR _v_count$[ebp]
	mov	ecx, DWORD PTR _v_2_buf$[ebp]
	cmp	DWORD PTR [ecx+eax*4-4], 0
	jne	SHORT $LN3@ModulePowe

; 267  :             --v_count;

	mov	edx, DWORD PTR _v_count$[ebp]
	sub	edx, 1
	mov	DWORD PTR _v_count$[ebp], edx
	jmp	SHORT $LN2@ModulePowe
$LN3@ModulePowe:

; 268  : 
; 269  :         if (v_count <= 0)

	cmp	DWORD PTR _v_count$[ebp], 0
	ja	SHORT $LN23@ModulePowe

; 270  :         {
; 271  :             // v2 が 0 になってしまった場合はべき乗を繰り返しても 0 になることが確定なので 0 を返す
; 272  :             DeallocateNumber(*r);

	mov	eax, DWORD PTR _r$[ebp]
	mov	ecx, DWORD PTR [eax]
	push	ecx
	call	_DeallocateNumber
	add	esp, 4

; 273  :             DeallocateBlock(q_buf, q_buf_words);

	mov	edx, DWORD PTR _q_buf_words$[ebp]
	push	edx
	mov	eax, DWORD PTR _q_buf$[ebp]
	push	eax
	call	_DeallocateBlock
	add	esp, 8

; 274  :             DeallocateBlock(work_v_buf, work_v_buf_words);

	mov	ecx, DWORD PTR _work_v_buf_words$[ebp]
	push	ecx
	mov	edx, DWORD PTR _work_v_buf$[ebp]
	push	edx
	call	_DeallocateBlock
	add	esp, 8

; 275  :             DeallocateBlock(work_2_buf, work_2_buf_words);

	mov	eax, DWORD PTR _work_2_buf_words$[ebp]
	push	eax
	mov	ecx, DWORD PTR _work_2_buf$[ebp]
	push	ecx
	call	_DeallocateBlock
	add	esp, 8

; 276  :             DeallocateBlock(work_1_buf, work_1_buf_words);

	mov	edx, DWORD PTR _work_1_buf_words$[ebp]
	push	edx
	mov	eax, DWORD PTR _work_1_buf$[ebp]
	push	eax
	call	_DeallocateBlock
	add	esp, 8

; 277  :             DeallocateBlock(v_2_buf, v_2_buf_words);

	mov	ecx, DWORD PTR _v_2_buf_words$[ebp]
	push	ecx
	mov	edx, DWORD PTR _v_2_buf$[ebp]
	push	edx
	call	_DeallocateBlock
	add	esp, 8

; 278  :             *r = &number_zero;

	mov	eax, DWORD PTR _r$[ebp]
	mov	DWORD PTR [eax], OFFSET _number_zero

; 279  : #ifdef DO_TRACE
; 280  :             ReportOUT(*r);
; 281  : #endif
; 282  :             return (PMC_STATUS_OK);

	xor	eax, eax
	jmp	$LN1@ModulePowe
$LN23@ModulePowe:

; 283  :         }
; 284  :     }

	jmp	SHORT $LN17@ModulePowe
$LN18@ModulePowe:

; 285  :     else
; 286  :     {
; 287  :         // v2 を v に設定する。
; 288  : 
; 289  :         _COPY_MEMORY_UNIT(v_2_buf, v->BLOCK, v->UNIT_WORD_COUNT);

	mov	ecx, DWORD PTR _v$[ebp]
	mov	edx, DWORD PTR [ecx+8]
	push	edx
	mov	eax, DWORD PTR _v$[ebp]
	mov	ecx, DWORD PTR [eax+32]
	push	ecx
	mov	edx, DWORD PTR _v_2_buf$[ebp]
	push	edx
	call	__COPY_MEMORY_UNIT
	add	esp, 12					; 0000000cH

; 290  :         v_count = v->UNIT_WORD_COUNT;

	mov	eax, DWORD PTR _v$[ebp]
	mov	ecx, DWORD PTR [eax+8]
	mov	DWORD PTR _v_count$[ebp], ecx
$LN17@ModulePowe:

; 291  :     }
; 292  : 
; 293  : #ifdef DO_TRACE
; 294  :     ReportLabel("vの初期化");
; 295  :     ReportDump("v", v_2_buf, v_count);
; 296  : #endif
; 297  :     __UNIT_TYPE e_count = e->UNIT_WORD_COUNT;

	mov	edx, DWORD PTR _e$[ebp]
	mov	eax, DWORD PTR [edx+8]
	mov	DWORD PTR _e_count$[ebp], eax

; 298  :     __UNIT_TYPE e_mask = ~((__UNIT_TYPE)-1 >> 1);

	mov	DWORD PTR _e_mask$[ebp], -2147483648	; 80000000H

; 299  :     e_mask = e_mask >> _LZCNT_ALT_UNIT(e->BLOCK[e_count - 1]);

	mov	ecx, DWORD PTR _e$[ebp]
	mov	edx, DWORD PTR [ecx+32]
	mov	eax, DWORD PTR _e_count$[ebp]
	mov	ecx, DWORD PTR [edx+eax*4-4]
	push	ecx
	call	__LZCNT_ALT_UNIT
	add	esp, 4
	mov	edx, DWORD PTR _e_mask$[ebp]
	mov	ecx, eax
	shr	edx, cl
	mov	DWORD PTR _e_mask$[ebp], edx

; 300  :     // e_mask は e の最上位 bit を示しているはず
; 301  :     // かつ、e は 2以上であるので、同時に最下位 bit であることはあり得ない
; 302  :     _COPY_MEMORY_UNIT(work_1_buf, v_2_buf, m_count);

	mov	eax, DWORD PTR _m_count$[ebp]
	push	eax
	mov	ecx, DWORD PTR _v_2_buf$[ebp]
	push	ecx
	mov	edx, DWORD PTR _work_1_buf$[ebp]
	push	edx
	call	__COPY_MEMORY_UNIT
	add	esp, 12					; 0000000cH

; 303  : 
; 304  : #ifdef _DEBUG
; 305  :     if ((e_mask & e->BLOCK[e_count - 1]) == 0)

	mov	eax, DWORD PTR _e$[ebp]
	mov	ecx, DWORD PTR [eax+32]
	mov	edx, DWORD PTR _e_count$[ebp]
	mov	eax, DWORD PTR _e_mask$[ebp]
	and	eax, DWORD PTR [ecx+edx*4-4]
	jne	SHORT $LN24@ModulePowe

; 306  :         *((int*)0) = 0;

	mov	DWORD PTR ds:0, 0
$LN24@ModulePowe:

; 307  : #endif
; 308  : 
; 309  :     __UNIT_TYPE* u_ptr = work_1_buf;

	mov	ecx, DWORD PTR _work_1_buf$[ebp]
	mov	DWORD PTR _u_ptr$[ebp], ecx

; 310  :     __UNIT_TYPE* v_ptr = v_2_buf;

	mov	edx, DWORD PTR _v_2_buf$[ebp]
	mov	DWORD PTR _v_ptr$[ebp], edx

; 311  :     __UNIT_TYPE* w_ptr = work_2_buf;

	mov	eax, DWORD PTR _work_2_buf$[ebp]
	mov	DWORD PTR _w_ptr$[ebp], eax

; 312  :     __UNIT_TYPE u_count = v_count;

	mov	ecx, DWORD PTR _v_count$[ebp]
	mov	DWORD PTR _u_count$[ebp], ecx
$LN4@ModulePowe:

; 313  : 
; 314  :     while (e_count > 0)

	cmp	DWORD PTR _e_count$[ebp], 0
	jbe	$LN5@ModulePowe

; 315  :     {
; 316  : #ifdef DO_TRACE
; 317  :         ReportLabel("ループ開始");
; 318  :         ReportVar("e_count", e_count);
; 319  :         ReportVar("e_mask", e_mask);
; 320  : #endif
; 321  : 
; 322  :         // 次の桁の準備をする
; 323  :         e_mask >>= 1;

	mov	edx, DWORD PTR _e_mask$[ebp]
	shr	edx, 1
	mov	DWORD PTR _e_mask$[ebp], edx

; 324  :         if (e_mask == 0)

	jne	SHORT $LN25@ModulePowe

; 325  :         {
; 326  :             e_mask = ~((__UNIT_TYPE)-1 >> 1);

	mov	DWORD PTR _e_mask$[ebp], -2147483648	; 80000000H

; 327  :             --e_count;

	mov	eax, DWORD PTR _e_count$[ebp]
	sub	eax, 1
	mov	DWORD PTR _e_count$[ebp], eax
$LN25@ModulePowe:

; 328  :         }
; 329  : 
; 330  :         if (e_count <= 0)

	cmp	DWORD PTR _e_count$[ebp], 0
	ja	SHORT $LN26@ModulePowe

; 331  :             break;

	jmp	$LN5@ModulePowe
$LN26@ModulePowe:

; 332  : 
; 333  : #ifdef DO_TRACE
; 334  :         ReportLabel("e の更新");
; 335  :         ReportVar("e_count", e_count);
; 336  :         ReportVar("e_mask", e_mask);
; 337  : #endif
; 338  : 
; 339  :         // w := u * u を計算する
; 340  : #ifdef DO_TRACE
; 341  :         ReportLabel("w := u * u");
; 342  :         ReportDump("u", u_ptr, u_count);
; 343  : #endif
; 344  :         _ZERO_MEMORY_UNIT(w_ptr, work_1_buf_words);

	mov	ecx, DWORD PTR _work_1_buf_words$[ebp]
	push	ecx
	mov	edx, DWORD PTR _w_ptr$[ebp]
	push	edx
	call	__ZERO_MEMORY_UNIT
	add	esp, 8

; 345  :         Multiply_X_X_Imp(u_ptr, u_count, u_ptr, u_count, w_ptr);

	mov	eax, DWORD PTR _w_ptr$[ebp]
	push	eax
	mov	ecx, DWORD PTR _u_count$[ebp]
	push	ecx
	mov	edx, DWORD PTR _u_ptr$[ebp]
	push	edx
	mov	eax, DWORD PTR _u_count$[ebp]
	push	eax
	mov	ecx, DWORD PTR _u_ptr$[ebp]
	push	ecx
	call	_Multiply_X_X_Imp
	add	esp, 20					; 00000014H

; 346  :         if ((result = CheckBlockLight(work_1_buf, work_1_buf_code)) != PMC_STATUS_OK)

	mov	edx, DWORD PTR _work_1_buf_code$[ebp]
	push	edx
	mov	eax, DWORD PTR _work_1_buf$[ebp]
	push	eax
	call	_CheckBlockLight
	add	esp, 8
	mov	DWORD PTR _result$[ebp], eax
	cmp	DWORD PTR _result$[ebp], 0
	je	SHORT $LN27@ModulePowe

; 347  :             return (result);

	mov	eax, DWORD PTR _result$[ebp]
	jmp	$LN1@ModulePowe
$LN27@ModulePowe:

; 348  :         if ((result = CheckBlockLight(work_2_buf, work_2_buf_code)) != PMC_STATUS_OK)

	mov	ecx, DWORD PTR _work_2_buf_code$[ebp]
	push	ecx
	mov	edx, DWORD PTR _work_2_buf$[ebp]
	push	edx
	call	_CheckBlockLight
	add	esp, 8
	mov	DWORD PTR _result$[ebp], eax
	cmp	DWORD PTR _result$[ebp], 0
	je	SHORT $LN28@ModulePowe

; 349  :             return (result);

	mov	eax, DWORD PTR _result$[ebp]
	jmp	$LN1@ModulePowe
$LN28@ModulePowe:

; 350  :         SwapPointer(&u_ptr, &w_ptr);

	lea	eax, DWORD PTR _w_ptr$[ebp]
	push	eax
	lea	ecx, DWORD PTR _u_ptr$[ebp]
	push	ecx
	call	_SwapPointer
	add	esp, 8

; 351  :         u_count *= 2;

	mov	edx, DWORD PTR _u_count$[ebp]
	shl	edx, 1
	mov	DWORD PTR _u_count$[ebp], edx

; 352  :         if (u_ptr[u_count - 1] == 0)

	mov	eax, DWORD PTR _u_count$[ebp]
	mov	ecx, DWORD PTR _u_ptr$[ebp]
	cmp	DWORD PTR [ecx+eax*4-4], 0
	jne	SHORT $LN29@ModulePowe

; 353  :             --u_count;

	mov	edx, DWORD PTR _u_count$[ebp]
	sub	edx, 1
	mov	DWORD PTR _u_count$[ebp], edx
$LN29@ModulePowe:

; 354  : #ifdef DO_TRACE
; 355  :         ReportDump("w", u_ptr, u_count);
; 356  : #endif
; 357  : 
; 358  :         // w := u % m を計算する
; 359  : #ifdef DO_TRACE
; 360  :         ReportLabel("w := u % m");
; 361  :         ReportDump("u", u_ptr, u_count);
; 362  :         ReportDump("m", m_buf, m_count);
; 363  : #endif
; 364  :         if (u_count >= m_count)

	mov	eax, DWORD PTR _u_count$[ebp]
	cmp	eax, DWORD PTR _m_count$[ebp]
	jb	$LN30@ModulePowe

; 365  :         {
; 366  :             _ZERO_MEMORY_UNIT(work_v_buf, work_v_buf_words);

	mov	ecx, DWORD PTR _work_v_buf_words$[ebp]
	push	ecx
	mov	edx, DWORD PTR _work_v_buf$[ebp]
	push	edx
	call	__ZERO_MEMORY_UNIT
	add	esp, 8

; 367  :             _ZERO_MEMORY_UNIT(q_buf, q_buf_words);

	mov	eax, DWORD PTR _q_buf_words$[ebp]
	push	eax
	mov	ecx, DWORD PTR _q_buf$[ebp]
	push	ecx
	call	__ZERO_MEMORY_UNIT
	add	esp, 8

; 368  :             _ZERO_MEMORY_UNIT(w_ptr, work_1_buf_words);

	mov	edx, DWORD PTR _work_1_buf_words$[ebp]
	push	edx
	mov	eax, DWORD PTR _w_ptr$[ebp]
	push	eax
	call	__ZERO_MEMORY_UNIT
	add	esp, 8

; 369  :             DivRem_X_X(u_ptr, u_count, m_buf, m_count, work_v_buf, q_buf, w_ptr);

	mov	ecx, DWORD PTR _w_ptr$[ebp]
	push	ecx
	mov	edx, DWORD PTR _q_buf$[ebp]
	push	edx
	mov	eax, DWORD PTR _work_v_buf$[ebp]
	push	eax
	mov	ecx, DWORD PTR _m_count$[ebp]
	push	ecx
	mov	edx, DWORD PTR _m_buf$[ebp]
	push	edx
	mov	eax, DWORD PTR _u_count$[ebp]
	push	eax
	mov	ecx, DWORD PTR _u_ptr$[ebp]
	push	ecx
	call	_DivRem_X_X
	add	esp, 28					; 0000001cH

; 370  :             if ((result = CheckBlockLight(work_v_buf, work_v_buf_code)) != PMC_STATUS_OK)

	mov	edx, DWORD PTR _work_v_buf_code$[ebp]
	push	edx
	mov	eax, DWORD PTR _work_v_buf$[ebp]
	push	eax
	call	_CheckBlockLight
	add	esp, 8
	mov	DWORD PTR _result$[ebp], eax
	cmp	DWORD PTR _result$[ebp], 0
	je	SHORT $LN31@ModulePowe

; 371  :                 return (result);

	mov	eax, DWORD PTR _result$[ebp]
	jmp	$LN1@ModulePowe
$LN31@ModulePowe:

; 372  :             if ((result = CheckBlockLight(q_buf, q_buf_code)) != PMC_STATUS_OK)

	mov	ecx, DWORD PTR _q_buf_code$[ebp]
	push	ecx
	mov	edx, DWORD PTR _q_buf$[ebp]
	push	edx
	call	_CheckBlockLight
	add	esp, 8
	mov	DWORD PTR _result$[ebp], eax
	cmp	DWORD PTR _result$[ebp], 0
	je	SHORT $LN32@ModulePowe

; 373  :                 return (result);

	mov	eax, DWORD PTR _result$[ebp]
	jmp	$LN1@ModulePowe
$LN32@ModulePowe:

; 374  :             if ((result = CheckBlockLight(work_1_buf, work_1_buf_code)) != PMC_STATUS_OK)

	mov	eax, DWORD PTR _work_1_buf_code$[ebp]
	push	eax
	mov	ecx, DWORD PTR _work_1_buf$[ebp]
	push	ecx
	call	_CheckBlockLight
	add	esp, 8
	mov	DWORD PTR _result$[ebp], eax
	cmp	DWORD PTR _result$[ebp], 0
	je	SHORT $LN33@ModulePowe

; 375  :                 return (result);

	mov	eax, DWORD PTR _result$[ebp]
	jmp	$LN1@ModulePowe
$LN33@ModulePowe:

; 376  :             if ((result = CheckBlockLight(work_2_buf, work_2_buf_code)) != PMC_STATUS_OK)

	mov	edx, DWORD PTR _work_2_buf_code$[ebp]
	push	edx
	mov	eax, DWORD PTR _work_2_buf$[ebp]
	push	eax
	call	_CheckBlockLight
	add	esp, 8
	mov	DWORD PTR _result$[ebp], eax
	cmp	DWORD PTR _result$[ebp], 0
	je	SHORT $LN34@ModulePowe

; 377  :                 return (result);

	mov	eax, DWORD PTR _result$[ebp]
	jmp	$LN1@ModulePowe
$LN34@ModulePowe:

; 378  :             SwapPointer(&u_ptr, &w_ptr);

	lea	ecx, DWORD PTR _w_ptr$[ebp]
	push	ecx
	lea	edx, DWORD PTR _u_ptr$[ebp]
	push	edx
	call	_SwapPointer
	add	esp, 8

; 379  :             u_count = m_count;

	mov	eax, DWORD PTR _m_count$[ebp]
	mov	DWORD PTR _u_count$[ebp], eax
$LN6@ModulePowe:

; 380  :             while (u_count > 0 && u_ptr[u_count - 1] == 0)

	cmp	DWORD PTR _u_count$[ebp], 0
	jbe	SHORT $LN7@ModulePowe
	mov	ecx, DWORD PTR _u_count$[ebp]
	mov	edx, DWORD PTR _u_ptr$[ebp]
	cmp	DWORD PTR [edx+ecx*4-4], 0
	jne	SHORT $LN7@ModulePowe

; 381  :                 --u_count;

	mov	eax, DWORD PTR _u_count$[ebp]
	sub	eax, 1
	mov	DWORD PTR _u_count$[ebp], eax
	jmp	SHORT $LN6@ModulePowe
$LN7@ModulePowe:

; 382  : 
; 383  :             if (u_count <= 0)

	cmp	DWORD PTR _u_count$[ebp], 0
	ja	SHORT $LN30@ModulePowe

; 384  :             {
; 385  :                 // 剰余が 0 になった場合はこれ以上続行しても解が 0 以外にはならないので、処理を中断して 0 を返す
; 386  :                 DeallocateNumber(*r);

	mov	ecx, DWORD PTR _r$[ebp]
	mov	edx, DWORD PTR [ecx]
	push	edx
	call	_DeallocateNumber
	add	esp, 4

; 387  :                 DeallocateBlock(q_buf, q_buf_words);

	mov	eax, DWORD PTR _q_buf_words$[ebp]
	push	eax
	mov	ecx, DWORD PTR _q_buf$[ebp]
	push	ecx
	call	_DeallocateBlock
	add	esp, 8

; 388  :                 DeallocateBlock(work_v_buf, work_v_buf_words);

	mov	edx, DWORD PTR _work_v_buf_words$[ebp]
	push	edx
	mov	eax, DWORD PTR _work_v_buf$[ebp]
	push	eax
	call	_DeallocateBlock
	add	esp, 8

; 389  :                 DeallocateBlock(work_2_buf, work_2_buf_words);

	mov	ecx, DWORD PTR _work_2_buf_words$[ebp]
	push	ecx
	mov	edx, DWORD PTR _work_2_buf$[ebp]
	push	edx
	call	_DeallocateBlock
	add	esp, 8

; 390  :                 DeallocateBlock(work_1_buf, work_1_buf_words);

	mov	eax, DWORD PTR _work_1_buf_words$[ebp]
	push	eax
	mov	ecx, DWORD PTR _work_1_buf$[ebp]
	push	ecx
	call	_DeallocateBlock
	add	esp, 8

; 391  :                 DeallocateBlock(v_2_buf, v_2_buf_words);

	mov	edx, DWORD PTR _v_2_buf_words$[ebp]
	push	edx
	mov	eax, DWORD PTR _v_2_buf$[ebp]
	push	eax
	call	_DeallocateBlock
	add	esp, 8

; 392  :                 *r = &number_zero;

	mov	ecx, DWORD PTR _r$[ebp]
	mov	DWORD PTR [ecx], OFFSET _number_zero

; 393  : #ifdef DO_TRACE
; 394  :                 ReportOUT(*r);
; 395  : #endif
; 396  :                 return (PMC_STATUS_OK);

	xor	eax, eax
	jmp	$LN1@ModulePowe
$LN30@ModulePowe:

; 397  :             }
; 398  :         }
; 399  : #ifdef DO_TRACE
; 400  :         ReportDump("w", u_ptr, u_count);
; 401  : #endif
; 402  : 
; 403  : #ifdef DO_TRACE
; 404  :         ReportLabel("e のビット検査");
; 405  :         ReportDump("e", e->BLOCK, e->UNIT_WORD_COUNT);
; 406  :         ReportVar("e_count", e_count);
; 407  :         ReportVar("e_mask", e_mask);
; 408  :         ReportVar("e_mask & e->BLOCK[e_count - 1]", e_mask & e->BLOCK[e_count - 1]);
; 409  : #endif
; 410  :         if (e_mask & e->BLOCK[e_count - 1])

	mov	edx, DWORD PTR _e$[ebp]
	mov	eax, DWORD PTR [edx+32]
	mov	ecx, DWORD PTR _e_count$[ebp]
	mov	edx, DWORD PTR _e_mask$[ebp]
	and	edx, DWORD PTR [eax+ecx*4-4]
	je	$LN36@ModulePowe

; 411  :         {
; 412  :             // e の当該桁のビットが立っている場合
; 413  : 
; 414  : #ifdef DO_TRACE
; 415  :             ReportLabel("w := u * v");
; 416  :             ReportDump("u", u_ptr, u_count);
; 417  :             ReportDump("v", v_ptr, v_count);
; 418  : #endif
; 419  : 
; 420  :             // w := u * v を計算する
; 421  :             _ZERO_MEMORY_UNIT(w_ptr, work_1_buf_words);

	mov	eax, DWORD PTR _work_1_buf_words$[ebp]
	push	eax
	mov	ecx, DWORD PTR _w_ptr$[ebp]
	push	ecx
	call	__ZERO_MEMORY_UNIT
	add	esp, 8

; 422  :             Multiply_X_X_Imp(u_ptr, u_count, v_ptr, v_count, w_ptr);

	mov	edx, DWORD PTR _w_ptr$[ebp]
	push	edx
	mov	eax, DWORD PTR _v_count$[ebp]
	push	eax
	mov	ecx, DWORD PTR _v_ptr$[ebp]
	push	ecx
	mov	edx, DWORD PTR _u_count$[ebp]
	push	edx
	mov	eax, DWORD PTR _u_ptr$[ebp]
	push	eax
	call	_Multiply_X_X_Imp
	add	esp, 20					; 00000014H

; 423  :             if ((result = CheckBlockLight(work_1_buf, work_1_buf_code)) != PMC_STATUS_OK)

	mov	ecx, DWORD PTR _work_1_buf_code$[ebp]
	push	ecx
	mov	edx, DWORD PTR _work_1_buf$[ebp]
	push	edx
	call	_CheckBlockLight
	add	esp, 8
	mov	DWORD PTR _result$[ebp], eax
	cmp	DWORD PTR _result$[ebp], 0
	je	SHORT $LN37@ModulePowe

; 424  :                 return (result);

	mov	eax, DWORD PTR _result$[ebp]
	jmp	$LN1@ModulePowe
$LN37@ModulePowe:

; 425  :             if ((result = CheckBlockLight(work_2_buf, work_2_buf_code)) != PMC_STATUS_OK)

	mov	eax, DWORD PTR _work_2_buf_code$[ebp]
	push	eax
	mov	ecx, DWORD PTR _work_2_buf$[ebp]
	push	ecx
	call	_CheckBlockLight
	add	esp, 8
	mov	DWORD PTR _result$[ebp], eax
	cmp	DWORD PTR _result$[ebp], 0
	je	SHORT $LN38@ModulePowe

; 426  :                 return (result);

	mov	eax, DWORD PTR _result$[ebp]
	jmp	$LN1@ModulePowe
$LN38@ModulePowe:

; 427  :             SwapPointer(&u_ptr, &w_ptr);

	lea	edx, DWORD PTR _w_ptr$[ebp]
	push	edx
	lea	eax, DWORD PTR _u_ptr$[ebp]
	push	eax
	call	_SwapPointer
	add	esp, 8

; 428  :             u_count += v_count;

	mov	ecx, DWORD PTR _u_count$[ebp]
	add	ecx, DWORD PTR _v_count$[ebp]
	mov	DWORD PTR _u_count$[ebp], ecx

; 429  :             if (u_ptr[u_count - 1] == 0)

	mov	edx, DWORD PTR _u_count$[ebp]
	mov	eax, DWORD PTR _u_ptr$[ebp]
	cmp	DWORD PTR [eax+edx*4-4], 0
	jne	SHORT $LN39@ModulePowe

; 430  :                 --u_count;

	mov	ecx, DWORD PTR _u_count$[ebp]
	sub	ecx, 1
	mov	DWORD PTR _u_count$[ebp], ecx
$LN39@ModulePowe:

; 431  : #ifdef DO_TRACE
; 432  :             ReportDump("w", u_ptr, u_count);
; 433  : #endif
; 434  : 
; 435  :             // w := u % m を計算する
; 436  : 
; 437  : #ifdef DO_TRACE
; 438  :             ReportLabel("w := u % m");
; 439  :             ReportDump("u", u_ptr, u_count);
; 440  :             ReportDump("m", m_buf, m_count);
; 441  : #endif
; 442  :             if (u_count >= m_count)

	mov	edx, DWORD PTR _u_count$[ebp]
	cmp	edx, DWORD PTR _m_count$[ebp]
	jb	$LN36@ModulePowe

; 443  :             {
; 444  :                 _ZERO_MEMORY_UNIT(work_v_buf, work_v_buf_words);

	mov	eax, DWORD PTR _work_v_buf_words$[ebp]
	push	eax
	mov	ecx, DWORD PTR _work_v_buf$[ebp]
	push	ecx
	call	__ZERO_MEMORY_UNIT
	add	esp, 8

; 445  :                 _ZERO_MEMORY_UNIT(q_buf, q_buf_words);

	mov	edx, DWORD PTR _q_buf_words$[ebp]
	push	edx
	mov	eax, DWORD PTR _q_buf$[ebp]
	push	eax
	call	__ZERO_MEMORY_UNIT
	add	esp, 8

; 446  :                 _ZERO_MEMORY_UNIT(w_ptr, work_1_buf_words);

	mov	ecx, DWORD PTR _work_1_buf_words$[ebp]
	push	ecx
	mov	edx, DWORD PTR _w_ptr$[ebp]
	push	edx
	call	__ZERO_MEMORY_UNIT
	add	esp, 8

; 447  :                 DivRem_X_X(u_ptr, u_count, m_buf, m_count, work_v_buf, q_buf, w_ptr);

	mov	eax, DWORD PTR _w_ptr$[ebp]
	push	eax
	mov	ecx, DWORD PTR _q_buf$[ebp]
	push	ecx
	mov	edx, DWORD PTR _work_v_buf$[ebp]
	push	edx
	mov	eax, DWORD PTR _m_count$[ebp]
	push	eax
	mov	ecx, DWORD PTR _m_buf$[ebp]
	push	ecx
	mov	edx, DWORD PTR _u_count$[ebp]
	push	edx
	mov	eax, DWORD PTR _u_ptr$[ebp]
	push	eax
	call	_DivRem_X_X
	add	esp, 28					; 0000001cH

; 448  :                 if ((result = CheckBlockLight(work_v_buf, work_v_buf_code)) != PMC_STATUS_OK)

	mov	ecx, DWORD PTR _work_v_buf_code$[ebp]
	push	ecx
	mov	edx, DWORD PTR _work_v_buf$[ebp]
	push	edx
	call	_CheckBlockLight
	add	esp, 8
	mov	DWORD PTR _result$[ebp], eax
	cmp	DWORD PTR _result$[ebp], 0
	je	SHORT $LN41@ModulePowe

; 449  :                     return (result);

	mov	eax, DWORD PTR _result$[ebp]
	jmp	$LN1@ModulePowe
$LN41@ModulePowe:

; 450  :                 if ((result = CheckBlockLight(q_buf, q_buf_code)) != PMC_STATUS_OK)

	mov	eax, DWORD PTR _q_buf_code$[ebp]
	push	eax
	mov	ecx, DWORD PTR _q_buf$[ebp]
	push	ecx
	call	_CheckBlockLight
	add	esp, 8
	mov	DWORD PTR _result$[ebp], eax
	cmp	DWORD PTR _result$[ebp], 0
	je	SHORT $LN42@ModulePowe

; 451  :                     return (result);

	mov	eax, DWORD PTR _result$[ebp]
	jmp	$LN1@ModulePowe
$LN42@ModulePowe:

; 452  :                 if ((result = CheckBlockLight(work_1_buf, work_1_buf_code)) != PMC_STATUS_OK)

	mov	edx, DWORD PTR _work_1_buf_code$[ebp]
	push	edx
	mov	eax, DWORD PTR _work_1_buf$[ebp]
	push	eax
	call	_CheckBlockLight
	add	esp, 8
	mov	DWORD PTR _result$[ebp], eax
	cmp	DWORD PTR _result$[ebp], 0
	je	SHORT $LN43@ModulePowe

; 453  :                     return (result);

	mov	eax, DWORD PTR _result$[ebp]
	jmp	$LN1@ModulePowe
$LN43@ModulePowe:

; 454  :                 if ((result = CheckBlockLight(work_2_buf, work_2_buf_code)) != PMC_STATUS_OK)

	mov	ecx, DWORD PTR _work_2_buf_code$[ebp]
	push	ecx
	mov	edx, DWORD PTR _work_2_buf$[ebp]
	push	edx
	call	_CheckBlockLight
	add	esp, 8
	mov	DWORD PTR _result$[ebp], eax
	cmp	DWORD PTR _result$[ebp], 0
	je	SHORT $LN44@ModulePowe

; 455  :                     return (result);

	mov	eax, DWORD PTR _result$[ebp]
	jmp	$LN1@ModulePowe
$LN44@ModulePowe:

; 456  :                 SwapPointer(&u_ptr, &w_ptr);

	lea	eax, DWORD PTR _w_ptr$[ebp]
	push	eax
	lea	ecx, DWORD PTR _u_ptr$[ebp]
	push	ecx
	call	_SwapPointer
	add	esp, 8

; 457  :                 u_count = m_count;

	mov	edx, DWORD PTR _m_count$[ebp]
	mov	DWORD PTR _u_count$[ebp], edx
$LN8@ModulePowe:

; 458  :                 while (u_count > 0 && u_ptr[u_count - 1] == 0)

	cmp	DWORD PTR _u_count$[ebp], 0
	jbe	SHORT $LN9@ModulePowe
	mov	eax, DWORD PTR _u_count$[ebp]
	mov	ecx, DWORD PTR _u_ptr$[ebp]
	cmp	DWORD PTR [ecx+eax*4-4], 0
	jne	SHORT $LN9@ModulePowe

; 459  :                     --u_count;

	mov	edx, DWORD PTR _u_count$[ebp]
	sub	edx, 1
	mov	DWORD PTR _u_count$[ebp], edx
	jmp	SHORT $LN8@ModulePowe
$LN9@ModulePowe:

; 460  : 
; 461  :                 if (u_count <= 0)

	cmp	DWORD PTR _u_count$[ebp], 0
	ja	SHORT $LN36@ModulePowe

; 462  :                 {
; 463  :                     // 剰余が 0 になった場合はこれ以上続行しても解が 0 以外にはならないので、処理を中断して 0 を返す
; 464  :                     DeallocateNumber(*r);

	mov	eax, DWORD PTR _r$[ebp]
	mov	ecx, DWORD PTR [eax]
	push	ecx
	call	_DeallocateNumber
	add	esp, 4

; 465  :                     DeallocateBlock(q_buf, q_buf_words);

	mov	edx, DWORD PTR _q_buf_words$[ebp]
	push	edx
	mov	eax, DWORD PTR _q_buf$[ebp]
	push	eax
	call	_DeallocateBlock
	add	esp, 8

; 466  :                     DeallocateBlock(work_v_buf, work_v_buf_words);

	mov	ecx, DWORD PTR _work_v_buf_words$[ebp]
	push	ecx
	mov	edx, DWORD PTR _work_v_buf$[ebp]
	push	edx
	call	_DeallocateBlock
	add	esp, 8

; 467  :                     DeallocateBlock(work_2_buf, work_2_buf_words);

	mov	eax, DWORD PTR _work_2_buf_words$[ebp]
	push	eax
	mov	ecx, DWORD PTR _work_2_buf$[ebp]
	push	ecx
	call	_DeallocateBlock
	add	esp, 8

; 468  :                     DeallocateBlock(work_1_buf, work_1_buf_words);

	mov	edx, DWORD PTR _work_1_buf_words$[ebp]
	push	edx
	mov	eax, DWORD PTR _work_1_buf$[ebp]
	push	eax
	call	_DeallocateBlock
	add	esp, 8

; 469  :                     DeallocateBlock(v_2_buf, v_2_buf_words);

	mov	ecx, DWORD PTR _v_2_buf_words$[ebp]
	push	ecx
	mov	edx, DWORD PTR _v_2_buf$[ebp]
	push	edx
	call	_DeallocateBlock
	add	esp, 8

; 470  :                     *r = &number_zero;

	mov	eax, DWORD PTR _r$[ebp]
	mov	DWORD PTR [eax], OFFSET _number_zero

; 471  : #ifdef DO_TRACE
; 472  :                     ReportOUT(*r);
; 473  : #endif
; 474  :                     return (PMC_STATUS_OK);

	xor	eax, eax
	jmp	$LN1@ModulePowe
$LN36@ModulePowe:

; 475  :                 }
; 476  :             }
; 477  : #ifdef DO_TRACE
; 478  :             ReportDump("w", u_ptr, u_count);
; 479  : #endif
; 480  :         }
; 481  :     }

	jmp	$LN4@ModulePowe
$LN5@ModulePowe:

; 482  : 
; 483  :     // 最下位桁まで達したので u_ptr と u_count を解として帰る
; 484  :     _COPY_MEMORY_UNIT((*r)->BLOCK, u_ptr, u_count);

	mov	ecx, DWORD PTR _u_count$[ebp]
	push	ecx
	mov	edx, DWORD PTR _u_ptr$[ebp]
	push	edx
	mov	eax, DWORD PTR _r$[ebp]
	mov	ecx, DWORD PTR [eax]
	mov	edx, DWORD PTR [ecx+32]
	push	edx
	call	__COPY_MEMORY_UNIT
	add	esp, 12					; 0000000cH

; 485  :     if ((result = CheckBlockLight((*r)->BLOCK, r_check_code)) != PMC_STATUS_OK)

	mov	eax, DWORD PTR _r_check_code$[ebp]
	push	eax
	mov	ecx, DWORD PTR _r$[ebp]
	mov	edx, DWORD PTR [ecx]
	mov	eax, DWORD PTR [edx+32]
	push	eax
	call	_CheckBlockLight
	add	esp, 8
	mov	DWORD PTR _result$[ebp], eax
	cmp	DWORD PTR _result$[ebp], 0
	je	SHORT $LN46@ModulePowe

; 486  :         return (result);

	mov	eax, DWORD PTR _result$[ebp]
	jmp	SHORT $LN1@ModulePowe
$LN46@ModulePowe:

; 487  :     CommitNumber(*r);

	mov	ecx, DWORD PTR _r$[ebp]
	mov	edx, DWORD PTR [ecx]
	push	edx
	call	_CommitNumber
	add	esp, 4

; 488  :     DeallocateBlock(q_buf, q_buf_words);

	mov	eax, DWORD PTR _q_buf_words$[ebp]
	push	eax
	mov	ecx, DWORD PTR _q_buf$[ebp]
	push	ecx
	call	_DeallocateBlock
	add	esp, 8

; 489  :     DeallocateBlock(work_v_buf, work_v_buf_words);

	mov	edx, DWORD PTR _work_v_buf_words$[ebp]
	push	edx
	mov	eax, DWORD PTR _work_v_buf$[ebp]
	push	eax
	call	_DeallocateBlock
	add	esp, 8

; 490  :     DeallocateBlock(work_2_buf, work_2_buf_words);

	mov	ecx, DWORD PTR _work_2_buf_words$[ebp]
	push	ecx
	mov	edx, DWORD PTR _work_2_buf$[ebp]
	push	edx
	call	_DeallocateBlock
	add	esp, 8

; 491  :     DeallocateBlock(work_1_buf, work_1_buf_words);

	mov	eax, DWORD PTR _work_1_buf_words$[ebp]
	push	eax
	mov	ecx, DWORD PTR _work_1_buf$[ebp]
	push	ecx
	call	_DeallocateBlock
	add	esp, 8

; 492  :     DeallocateBlock(v_2_buf, v_2_buf_words);

	mov	edx, DWORD PTR _v_2_buf_words$[ebp]
	push	edx
	mov	eax, DWORD PTR _v_2_buf$[ebp]
	push	eax
	call	_DeallocateBlock
	add	esp, 8

; 493  : #ifdef DO_TRACE
; 494  :     ReportOUT(*r);
; 495  : #endif
; 496  :     return (PMC_STATUS_OK);

	xor	eax, eax
$LN1@ModulePowe:

; 497  : }

	push	edx
	mov	ecx, ebp
	push	eax
	lea	edx, DWORD PTR $LN62@ModulePowe
	call	@_RTC_CheckStackVars@8
	pop	eax
	pop	edx
	pop	edi
	add	esp, 236				; 000000ecH
	cmp	ebp, esp
	call	__RTC_CheckEsp
	mov	esp, ebp
	pop	ebp
	ret	0
	npad	1
$LN62@ModulePowe:
	DD	13					; 0000000dH
	DD	$LN61@ModulePowe
$LN61@ModulePowe:
	DD	-24					; ffffffe8H
	DD	4
	DD	$LN48@ModulePowe
	DD	-36					; ffffffdcH
	DD	4
	DD	$LN49@ModulePowe
	DD	-56					; ffffffc8H
	DD	4
	DD	$LN50@ModulePowe
	DD	-68					; ffffffbcH
	DD	4
	DD	$LN51@ModulePowe
	DD	-88					; ffffffa8H
	DD	4
	DD	$LN52@ModulePowe
	DD	-100					; ffffff9cH
	DD	4
	DD	$LN53@ModulePowe
	DD	-120					; ffffff88H
	DD	4
	DD	$LN54@ModulePowe
	DD	-132					; ffffff7cH
	DD	4
	DD	$LN55@ModulePowe
	DD	-152					; ffffff68H
	DD	4
	DD	$LN56@ModulePowe
	DD	-164					; ffffff5cH
	DD	4
	DD	$LN57@ModulePowe
	DD	-184					; ffffff48H
	DD	4
	DD	$LN58@ModulePowe
	DD	-212					; ffffff2cH
	DD	4
	DD	$LN59@ModulePowe
	DD	-228					; ffffff1cH
	DD	4
	DD	$LN60@ModulePowe
$LN60@ModulePowe:
	DB	119					; 00000077H
	DB	95					; 0000005fH
	DB	112					; 00000070H
	DB	116					; 00000074H
	DB	114					; 00000072H
	DB	0
$LN59@ModulePowe:
	DB	117					; 00000075H
	DB	95					; 0000005fH
	DB	112					; 00000070H
	DB	116					; 00000074H
	DB	114					; 00000072H
	DB	0
$LN58@ModulePowe:
	DB	114					; 00000072H
	DB	95					; 0000005fH
	DB	99					; 00000063H
	DB	104					; 00000068H
	DB	101					; 00000065H
	DB	99					; 00000063H
	DB	107					; 0000006bH
	DB	95					; 0000005fH
	DB	99					; 00000063H
	DB	111					; 0000006fH
	DB	100					; 00000064H
	DB	101					; 00000065H
	DB	0
$LN57@ModulePowe:
	DB	113					; 00000071H
	DB	95					; 0000005fH
	DB	98					; 00000062H
	DB	117					; 00000075H
	DB	102					; 00000066H
	DB	95					; 0000005fH
	DB	119					; 00000077H
	DB	111					; 0000006fH
	DB	114					; 00000072H
	DB	100					; 00000064H
	DB	115					; 00000073H
	DB	0
$LN56@ModulePowe:
	DB	113					; 00000071H
	DB	95					; 0000005fH
	DB	98					; 00000062H
	DB	117					; 00000075H
	DB	102					; 00000066H
	DB	95					; 0000005fH
	DB	99					; 00000063H
	DB	111					; 0000006fH
	DB	100					; 00000064H
	DB	101					; 00000065H
	DB	0
$LN55@ModulePowe:
	DB	119					; 00000077H
	DB	111					; 0000006fH
	DB	114					; 00000072H
	DB	107					; 0000006bH
	DB	95					; 0000005fH
	DB	118					; 00000076H
	DB	95					; 0000005fH
	DB	98					; 00000062H
	DB	117					; 00000075H
	DB	102					; 00000066H
	DB	95					; 0000005fH
	DB	119					; 00000077H
	DB	111					; 0000006fH
	DB	114					; 00000072H
	DB	100					; 00000064H
	DB	115					; 00000073H
	DB	0
$LN54@ModulePowe:
	DB	119					; 00000077H
	DB	111					; 0000006fH
	DB	114					; 00000072H
	DB	107					; 0000006bH
	DB	95					; 0000005fH
	DB	118					; 00000076H
	DB	95					; 0000005fH
	DB	98					; 00000062H
	DB	117					; 00000075H
	DB	102					; 00000066H
	DB	95					; 0000005fH
	DB	99					; 00000063H
	DB	111					; 0000006fH
	DB	100					; 00000064H
	DB	101					; 00000065H
	DB	0
$LN53@ModulePowe:
	DB	119					; 00000077H
	DB	111					; 0000006fH
	DB	114					; 00000072H
	DB	107					; 0000006bH
	DB	95					; 0000005fH
	DB	50					; 00000032H
	DB	95					; 0000005fH
	DB	98					; 00000062H
	DB	117					; 00000075H
	DB	102					; 00000066H
	DB	95					; 0000005fH
	DB	119					; 00000077H
	DB	111					; 0000006fH
	DB	114					; 00000072H
	DB	100					; 00000064H
	DB	115					; 00000073H
	DB	0
$LN52@ModulePowe:
	DB	119					; 00000077H
	DB	111					; 0000006fH
	DB	114					; 00000072H
	DB	107					; 0000006bH
	DB	95					; 0000005fH
	DB	50					; 00000032H
	DB	95					; 0000005fH
	DB	98					; 00000062H
	DB	117					; 00000075H
	DB	102					; 00000066H
	DB	95					; 0000005fH
	DB	99					; 00000063H
	DB	111					; 0000006fH
	DB	100					; 00000064H
	DB	101					; 00000065H
	DB	0
$LN51@ModulePowe:
	DB	119					; 00000077H
	DB	111					; 0000006fH
	DB	114					; 00000072H
	DB	107					; 0000006bH
	DB	95					; 0000005fH
	DB	49					; 00000031H
	DB	95					; 0000005fH
	DB	98					; 00000062H
	DB	117					; 00000075H
	DB	102					; 00000066H
	DB	95					; 0000005fH
	DB	119					; 00000077H
	DB	111					; 0000006fH
	DB	114					; 00000072H
	DB	100					; 00000064H
	DB	115					; 00000073H
	DB	0
$LN50@ModulePowe:
	DB	119					; 00000077H
	DB	111					; 0000006fH
	DB	114					; 00000072H
	DB	107					; 0000006bH
	DB	95					; 0000005fH
	DB	49					; 00000031H
	DB	95					; 0000005fH
	DB	98					; 00000062H
	DB	117					; 00000075H
	DB	102					; 00000066H
	DB	95					; 0000005fH
	DB	99					; 00000063H
	DB	111					; 0000006fH
	DB	100					; 00000064H
	DB	101					; 00000065H
	DB	0
$LN49@ModulePowe:
	DB	118					; 00000076H
	DB	95					; 0000005fH
	DB	50					; 00000032H
	DB	95					; 0000005fH
	DB	98					; 00000062H
	DB	117					; 00000075H
	DB	102					; 00000066H
	DB	95					; 0000005fH
	DB	119					; 00000077H
	DB	111					; 0000006fH
	DB	114					; 00000072H
	DB	100					; 00000064H
	DB	115					; 00000073H
	DB	0
$LN48@ModulePowe:
	DB	118					; 00000076H
	DB	95					; 0000005fH
	DB	50					; 00000032H
	DB	95					; 0000005fH
	DB	98					; 00000062H
	DB	117					; 00000075H
	DB	102					; 00000066H
	DB	95					; 0000005fH
	DB	99					; 00000063H
	DB	111					; 0000006fH
	DB	100					; 00000064H
	DB	101					; 00000065H
	DB	0
_ModulePower ENDP
_TEXT	ENDS
; Function compile flags: /Odtp /RTCsu
; File z:\sources\lunor\repos\rougemeilland\palmtree.math.core.uint\palmtree.math.core.uint\pmc_modpow.c
_TEXT	SEGMENT
_r_check_code$1 = -68					; size = 4
_q_buf$2 = -60						; size = 4
_q_buf_words$3 = -52					; size = 4
_q_buf_code$4 = -40					; size = 4
_work_v_buf$5 = -32					; size = 4
_work_v_buf_words$6 = -24				; size = 4
_work_v_buf_code$7 = -12				; size = 4
_result$ = -4						; size = 4
_u$ = 8							; size = 4
_v$ = 12						; size = 4
_r$ = 16						; size = 4
_Remainder PROC

; 98   : {

	push	ebp
	mov	ebp, esp
	sub	esp, 72					; 00000048H
	push	edi
	lea	edi, DWORD PTR [ebp-72]
	mov	ecx, 18					; 00000012H
	mov	eax, -858993460				; ccccccccH
	rep stosd
	mov	ecx, OFFSET __6553949D_pmc_modpow@c
	call	@__CheckForDebuggerJustMyCode@4

; 99   :     PMC_STATUS_CODE result;
; 100  : 
; 101  :     if (u->UNIT_BIT_COUNT < v->UNIT_BIT_COUNT)

	mov	eax, DWORD PTR _u$[ebp]
	mov	ecx, DWORD PTR _v$[ebp]
	mov	edx, DWORD PTR [eax+12]
	cmp	edx, DWORD PTR [ecx+12]
	jae	SHORT $LN2@Remainder

; 102  :     {
; 103  :         if ((result = DuplicateNumber(u, r)) != PMC_STATUS_OK)

	mov	eax, DWORD PTR _r$[ebp]
	push	eax
	mov	ecx, DWORD PTR _u$[ebp]
	push	ecx
	call	_DuplicateNumber
	add	esp, 8
	mov	DWORD PTR _result$[ebp], eax
	cmp	DWORD PTR _result$[ebp], 0
	je	SHORT $LN4@Remainder

; 104  :             return (result);

	mov	eax, DWORD PTR _result$[ebp]
	jmp	$LN1@Remainder
$LN4@Remainder:

; 105  :     }

	jmp	$LN3@Remainder
$LN2@Remainder:

; 106  :     else
; 107  :     {
; 108  :         __UNIT_TYPE work_v_buf_code;
; 109  :         __UNIT_TYPE work_v_buf_words;
; 110  :         __UNIT_TYPE* work_v_buf = AllocateBlock(v->UNIT_BIT_COUNT, &work_v_buf_words, &work_v_buf_code);

	lea	edx, DWORD PTR _work_v_buf_code$7[ebp]
	push	edx
	lea	eax, DWORD PTR _work_v_buf_words$6[ebp]
	push	eax
	mov	ecx, DWORD PTR _v$[ebp]
	mov	edx, DWORD PTR [ecx+12]
	push	edx
	call	_AllocateBlock
	add	esp, 12					; 0000000cH
	mov	DWORD PTR _work_v_buf$5[ebp], eax

; 111  :         if (work_v_buf == NULL)

	cmp	DWORD PTR _work_v_buf$5[ebp], 0
	jne	SHORT $LN5@Remainder

; 112  :         {
; 113  :             return (PMC_STATUS_NOT_ENOUGH_MEMORY);

	mov	eax, -5					; fffffffbH
	jmp	$LN1@Remainder
$LN5@Remainder:

; 114  :         }
; 115  :         __UNIT_TYPE q_buf_code;
; 116  :         __UNIT_TYPE q_buf_words;
; 117  :         __UNIT_TYPE* q_buf = AllocateBlock(u->UNIT_BIT_COUNT - v->UNIT_BIT_COUNT + 1 + __UNIT_TYPE_BIT_COUNT, &q_buf_words, &q_buf_code);

	lea	eax, DWORD PTR _q_buf_code$4[ebp]
	push	eax
	lea	ecx, DWORD PTR _q_buf_words$3[ebp]
	push	ecx
	mov	edx, DWORD PTR _u$[ebp]
	mov	eax, DWORD PTR _v$[ebp]
	mov	ecx, DWORD PTR [edx+12]
	sub	ecx, DWORD PTR [eax+12]
	add	ecx, 33					; 00000021H
	push	ecx
	call	_AllocateBlock
	add	esp, 12					; 0000000cH
	mov	DWORD PTR _q_buf$2[ebp], eax

; 118  :         if (q_buf == NULL)

	cmp	DWORD PTR _q_buf$2[ebp], 0
	jne	SHORT $LN6@Remainder

; 119  :         {
; 120  :             DeallocateBlock(work_v_buf, work_v_buf_words);

	mov	edx, DWORD PTR _work_v_buf_words$6[ebp]
	push	edx
	mov	eax, DWORD PTR _work_v_buf$5[ebp]
	push	eax
	call	_DeallocateBlock
	add	esp, 8

; 121  :             return (PMC_STATUS_NOT_ENOUGH_MEMORY);

	mov	eax, -5					; fffffffbH
	jmp	$LN1@Remainder
$LN6@Remainder:

; 122  :         }
; 123  :         __UNIT_TYPE r_check_code;
; 124  :         if ((result = AllocateNumber(r, u->UNIT_BIT_COUNT + __UNIT_TYPE_BIT_COUNT, &r_check_code)) != PMC_STATUS_OK)

	lea	ecx, DWORD PTR _r_check_code$1[ebp]
	push	ecx
	mov	edx, DWORD PTR _u$[ebp]
	mov	eax, DWORD PTR [edx+12]
	add	eax, 32					; 00000020H
	push	eax
	mov	ecx, DWORD PTR _r$[ebp]
	push	ecx
	call	_AllocateNumber
	add	esp, 12					; 0000000cH
	mov	DWORD PTR _result$[ebp], eax
	cmp	DWORD PTR _result$[ebp], 0
	je	SHORT $LN7@Remainder

; 125  :         {
; 126  :             DeallocateBlock(q_buf, q_buf_words);

	mov	edx, DWORD PTR _q_buf_words$3[ebp]
	push	edx
	mov	eax, DWORD PTR _q_buf$2[ebp]
	push	eax
	call	_DeallocateBlock
	add	esp, 8

; 127  :             DeallocateBlock(work_v_buf, work_v_buf_words);

	mov	ecx, DWORD PTR _work_v_buf_words$6[ebp]
	push	ecx
	mov	edx, DWORD PTR _work_v_buf$5[ebp]
	push	edx
	call	_DeallocateBlock
	add	esp, 8

; 128  :             return (PMC_STATUS_NOT_ENOUGH_MEMORY);

	mov	eax, -5					; fffffffbH
	jmp	$LN1@Remainder
$LN7@Remainder:

; 129  :         }
; 130  : 
; 131  :         if (u->UNIT_WORD_COUNT < v->UNIT_WORD_COUNT)

	mov	eax, DWORD PTR _u$[ebp]
	mov	ecx, DWORD PTR _v$[ebp]
	mov	edx, DWORD PTR [eax+8]
	cmp	edx, DWORD PTR [ecx+8]
	jae	SHORT $LN8@Remainder

; 132  :         {
; 133  :             q_buf[0] = 0;

	mov	eax, 4
	imul	ecx, eax, 0
	mov	edx, DWORD PTR _q_buf$2[ebp]
	mov	DWORD PTR [edx+ecx], 0

; 134  :             _COPY_MEMORY_UNIT((*r)->BLOCK, u->BLOCK, u->UNIT_WORD_COUNT);

	mov	eax, DWORD PTR _u$[ebp]
	mov	ecx, DWORD PTR [eax+8]
	push	ecx
	mov	edx, DWORD PTR _u$[ebp]
	mov	eax, DWORD PTR [edx+32]
	push	eax
	mov	ecx, DWORD PTR _r$[ebp]
	mov	edx, DWORD PTR [ecx]
	mov	eax, DWORD PTR [edx+32]
	push	eax
	call	__COPY_MEMORY_UNIT
	add	esp, 12					; 0000000cH

; 135  :         }

	jmp	$LN9@Remainder
$LN8@Remainder:

; 136  :         else
; 137  :         {
; 138  :             DivRem_X_X(u->BLOCK, u->UNIT_WORD_COUNT, v->BLOCK, v->UNIT_WORD_COUNT, work_v_buf, q_buf, (*r)->BLOCK);

	mov	ecx, DWORD PTR _r$[ebp]
	mov	edx, DWORD PTR [ecx]
	mov	eax, DWORD PTR [edx+32]
	push	eax
	mov	ecx, DWORD PTR _q_buf$2[ebp]
	push	ecx
	mov	edx, DWORD PTR _work_v_buf$5[ebp]
	push	edx
	mov	eax, DWORD PTR _v$[ebp]
	mov	ecx, DWORD PTR [eax+8]
	push	ecx
	mov	edx, DWORD PTR _v$[ebp]
	mov	eax, DWORD PTR [edx+32]
	push	eax
	mov	ecx, DWORD PTR _u$[ebp]
	mov	edx, DWORD PTR [ecx+8]
	push	edx
	mov	eax, DWORD PTR _u$[ebp]
	mov	ecx, DWORD PTR [eax+32]
	push	ecx
	call	_DivRem_X_X
	add	esp, 28					; 0000001cH

; 139  :             if ((result = CheckBlockLight(work_v_buf, work_v_buf_code)) != PMC_STATUS_OK)

	mov	edx, DWORD PTR _work_v_buf_code$7[ebp]
	push	edx
	mov	eax, DWORD PTR _work_v_buf$5[ebp]
	push	eax
	call	_CheckBlockLight
	add	esp, 8
	mov	DWORD PTR _result$[ebp], eax
	cmp	DWORD PTR _result$[ebp], 0
	je	SHORT $LN10@Remainder

; 140  :                 return (result);

	mov	eax, DWORD PTR _result$[ebp]
	jmp	SHORT $LN1@Remainder
$LN10@Remainder:

; 141  :             if ((result = CheckBlockLight(q_buf, q_buf_code)) != PMC_STATUS_OK)

	mov	ecx, DWORD PTR _q_buf_code$4[ebp]
	push	ecx
	mov	edx, DWORD PTR _q_buf$2[ebp]
	push	edx
	call	_CheckBlockLight
	add	esp, 8
	mov	DWORD PTR _result$[ebp], eax
	cmp	DWORD PTR _result$[ebp], 0
	je	SHORT $LN11@Remainder

; 142  :                 return (result);

	mov	eax, DWORD PTR _result$[ebp]
	jmp	SHORT $LN1@Remainder
$LN11@Remainder:

; 143  :             if ((result = CheckBlockLight((*r)->BLOCK, r_check_code)) != PMC_STATUS_OK)

	mov	eax, DWORD PTR _r_check_code$1[ebp]
	push	eax
	mov	ecx, DWORD PTR _r$[ebp]
	mov	edx, DWORD PTR [ecx]
	mov	eax, DWORD PTR [edx+32]
	push	eax
	call	_CheckBlockLight
	add	esp, 8
	mov	DWORD PTR _result$[ebp], eax
	cmp	DWORD PTR _result$[ebp], 0
	je	SHORT $LN9@Remainder

; 144  :                 return (result);

	mov	eax, DWORD PTR _result$[ebp]
	jmp	SHORT $LN1@Remainder
$LN9@Remainder:

; 145  :         }
; 146  : 
; 147  :         DeallocateBlock(q_buf, q_buf_words);

	mov	ecx, DWORD PTR _q_buf_words$3[ebp]
	push	ecx
	mov	edx, DWORD PTR _q_buf$2[ebp]
	push	edx
	call	_DeallocateBlock
	add	esp, 8

; 148  :         DeallocateBlock(work_v_buf, work_v_buf_words);

	mov	eax, DWORD PTR _work_v_buf_words$6[ebp]
	push	eax
	mov	ecx, DWORD PTR _work_v_buf$5[ebp]
	push	ecx
	call	_DeallocateBlock
	add	esp, 8

; 149  :         CommitNumber(*r);

	mov	edx, DWORD PTR _r$[ebp]
	mov	eax, DWORD PTR [edx]
	push	eax
	call	_CommitNumber
	add	esp, 4
$LN3@Remainder:

; 150  :     }
; 151  :     return (PMC_STATUS_OK);

	xor	eax, eax
$LN1@Remainder:

; 152  : }

	push	edx
	mov	ecx, ebp
	push	eax
	lea	edx, DWORD PTR $LN20@Remainder
	call	@_RTC_CheckStackVars@8
	pop	eax
	pop	edx
	pop	edi
	add	esp, 72					; 00000048H
	cmp	ebp, esp
	call	__RTC_CheckEsp
	mov	esp, ebp
	pop	ebp
	ret	0
	npad	2
$LN20@Remainder:
	DD	5
	DD	$LN19@Remainder
$LN19@Remainder:
	DD	-12					; fffffff4H
	DD	4
	DD	$LN14@Remainder
	DD	-24					; ffffffe8H
	DD	4
	DD	$LN15@Remainder
	DD	-40					; ffffffd8H
	DD	4
	DD	$LN16@Remainder
	DD	-52					; ffffffccH
	DD	4
	DD	$LN17@Remainder
	DD	-68					; ffffffbcH
	DD	4
	DD	$LN18@Remainder
$LN18@Remainder:
	DB	114					; 00000072H
	DB	95					; 0000005fH
	DB	99					; 00000063H
	DB	104					; 00000068H
	DB	101					; 00000065H
	DB	99					; 00000063H
	DB	107					; 0000006bH
	DB	95					; 0000005fH
	DB	99					; 00000063H
	DB	111					; 0000006fH
	DB	100					; 00000064H
	DB	101					; 00000065H
	DB	0
$LN17@Remainder:
	DB	113					; 00000071H
	DB	95					; 0000005fH
	DB	98					; 00000062H
	DB	117					; 00000075H
	DB	102					; 00000066H
	DB	95					; 0000005fH
	DB	119					; 00000077H
	DB	111					; 0000006fH
	DB	114					; 00000072H
	DB	100					; 00000064H
	DB	115					; 00000073H
	DB	0
$LN16@Remainder:
	DB	113					; 00000071H
	DB	95					; 0000005fH
	DB	98					; 00000062H
	DB	117					; 00000075H
	DB	102					; 00000066H
	DB	95					; 0000005fH
	DB	99					; 00000063H
	DB	111					; 0000006fH
	DB	100					; 00000064H
	DB	101					; 00000065H
	DB	0
$LN15@Remainder:
	DB	119					; 00000077H
	DB	111					; 0000006fH
	DB	114					; 00000072H
	DB	107					; 0000006bH
	DB	95					; 0000005fH
	DB	118					; 00000076H
	DB	95					; 0000005fH
	DB	98					; 00000062H
	DB	117					; 00000075H
	DB	102					; 00000066H
	DB	95					; 0000005fH
	DB	119					; 00000077H
	DB	111					; 0000006fH
	DB	114					; 00000072H
	DB	100					; 00000064H
	DB	115					; 00000073H
	DB	0
$LN14@Remainder:
	DB	119					; 00000077H
	DB	111					; 0000006fH
	DB	114					; 00000072H
	DB	107					; 0000006bH
	DB	95					; 0000005fH
	DB	118					; 00000076H
	DB	95					; 0000005fH
	DB	98					; 00000062H
	DB	117					; 00000075H
	DB	102					; 00000066H
	DB	95					; 0000005fH
	DB	99					; 00000063H
	DB	111					; 0000006fH
	DB	100					; 00000064H
	DB	101					; 00000065H
	DB	0
_Remainder ENDP
_TEXT	ENDS
; Function compile flags: /Odtp /RTCsu
; File z:\sources\lunor\repos\rougemeilland\palmtree.math.core.uint\palmtree.math.core.uint\pmc_modpow.c
_TEXT	SEGMENT
_t$ = -4						; size = 4
_u$ = 8							; size = 4
_v$ = 12						; size = 4
_SwapPointer PROC

; 91   : {

	push	ebp
	mov	ebp, esp
	push	ecx
	mov	DWORD PTR [ebp-4], -858993460		; ccccccccH
	mov	ecx, OFFSET __6553949D_pmc_modpow@c
	call	@__CheckForDebuggerJustMyCode@4

; 92   :     __UNIT_TYPE* t = *u;

	mov	eax, DWORD PTR _u$[ebp]
	mov	ecx, DWORD PTR [eax]
	mov	DWORD PTR _t$[ebp], ecx

; 93   :     *u = *v;

	mov	edx, DWORD PTR _u$[ebp]
	mov	eax, DWORD PTR _v$[ebp]
	mov	ecx, DWORD PTR [eax]
	mov	DWORD PTR [edx], ecx

; 94   :     *v = t;

	mov	edx, DWORD PTR _v$[ebp]
	mov	eax, DWORD PTR _t$[ebp]
	mov	DWORD PTR [edx], eax

; 95   : }

	add	esp, 4
	cmp	ebp, esp
	call	__RTC_CheckEsp
	mov	esp, ebp
	pop	ebp
	ret	0
_SwapPointer ENDP
_TEXT	ENDS
; Function compile flags: /Odtp /RTCsu
; File z:\sources\lunor\repos\rougemeilland\palmtree.math.core.uint\palmtree.math.core.uint\pmc_modpow.c
_TEXT	SEGMENT
_u$ = 8							; size = 4
_u_count$ = 12						; size = 4
_v$ = 16						; size = 4
_v_count$ = 20						; size = 4
_Compare_Easy PROC

; 81   : {

	push	ebp
	mov	ebp, esp
	mov	ecx, OFFSET __6553949D_pmc_modpow@c
	call	@__CheckForDebuggerJustMyCode@4

; 82   :     if (u_count > v_count)

	mov	eax, DWORD PTR _u_count$[ebp]
	cmp	eax, DWORD PTR _v_count$[ebp]
	jbe	SHORT $LN2@Compare_Ea

; 83   :         return (1);

	mov	eax, 1
	jmp	SHORT $LN1@Compare_Ea
	jmp	SHORT $LN1@Compare_Ea
$LN2@Compare_Ea:

; 84   :     else if (u_count < v_count)

	mov	ecx, DWORD PTR _u_count$[ebp]
	cmp	ecx, DWORD PTR _v_count$[ebp]
	jae	SHORT $LN4@Compare_Ea

; 85   :         return (-1);

	or	eax, -1
	jmp	SHORT $LN1@Compare_Ea
	jmp	SHORT $LN1@Compare_Ea
$LN4@Compare_Ea:

; 86   :     else
; 87   :         return (Compare_Imp(u, v, u_count));

	mov	edx, DWORD PTR _u_count$[ebp]
	push	edx
	mov	eax, DWORD PTR _v$[ebp]
	push	eax
	mov	ecx, DWORD PTR _u$[ebp]
	push	ecx
	call	_Compare_Imp
	add	esp, 12					; 0000000cH
$LN1@Compare_Ea:

; 88   : }

	cmp	ebp, esp
	call	__RTC_CheckEsp
	pop	ebp
	ret	0
_Compare_Easy ENDP
_TEXT	ENDS
; Function compile flags: /Odtp /RTCsu
; File z:\sources\lunor\repos\rougemeilland\palmtree.math.core.uint\palmtree.math.core.uint\pmc_inline_func.h
_TEXT	SEGMENT
_pos$ = -8						; size = 4
_x$ = 8							; size = 4
__LZCNT_ALT_UNIT PROC

; 622  :     {

	push	ebp
	mov	ebp, esp
	sub	esp, 12					; 0000000cH
	mov	DWORD PTR [ebp-12], -858993460		; ccccccccH
	mov	DWORD PTR [ebp-8], -858993460		; ccccccccH
	mov	DWORD PTR [ebp-4], -858993460		; ccccccccH
	mov	ecx, OFFSET __8CA3E54E_pmc_inline_func@h
	call	@__CheckForDebuggerJustMyCode@4

; 623  :         if (x == 0)

	cmp	DWORD PTR _x$[ebp], 0
	jne	SHORT $LN2@LZCNT_ALT_

; 624  :             return (sizeof(x) * 8);

	mov	eax, 32					; 00000020H
	jmp	SHORT $LN1@LZCNT_ALT_
$LN2@LZCNT_ALT_:

; 625  : #ifdef _M_IX86
; 626  :         _UINT32_T pos;
; 627  : #ifdef _MSC_VER
; 628  :         _BitScanReverse(&pos, x);

	bsr	eax, DWORD PTR _x$[ebp]
	mov	DWORD PTR _pos$[ebp], eax

; 629  : #elif defined(__GNUC__)
; 630  :         __asm__("bsrl %1, %0" : "=r"(pos) : "rm"(x));
; 631  : #else
; 632  : #error unknown compiler
; 633  : #endif
; 634  : #elif defined(_M_X64)
; 635  : #ifdef _MSC_VER
; 636  :         _UINT32_T pos;
; 637  :         _BitScanReverse64(&pos, x);
; 638  : #elif defined(__GNUC__)
; 639  :         _UINT64_T pos;
; 640  :         __asm__("bsrq %1, %0" : "=r"(pos) : "rm"(x));
; 641  : #else
; 642  : #error unknown compiler
; 643  : #endif
; 644  : #else
; 645  : #error unknown platform
; 646  : #endif
; 647  :         return (sizeof(x) * 8 - 1 - pos);

	mov	eax, 31					; 0000001fH
	sub	eax, DWORD PTR _pos$[ebp]
$LN1@LZCNT_ALT_:

; 648  :     }

	push	edx
	mov	ecx, ebp
	push	eax
	lea	edx, DWORD PTR $LN6@LZCNT_ALT_
	call	@_RTC_CheckStackVars@8
	pop	eax
	pop	edx
	add	esp, 12					; 0000000cH
	cmp	ebp, esp
	call	__RTC_CheckEsp
	mov	esp, ebp
	pop	ebp
	ret	0
$LN6@LZCNT_ALT_:
	DD	1
	DD	$LN5@LZCNT_ALT_
$LN5@LZCNT_ALT_:
	DD	-8					; fffffff8H
	DD	4
	DD	$LN4@LZCNT_ALT_
$LN4@LZCNT_ALT_:
	DB	112					; 00000070H
	DB	111					; 0000006fH
	DB	115					; 00000073H
	DB	0
__LZCNT_ALT_UNIT ENDP
_TEXT	ENDS
; Function compile flags: /Odtp /RTCsu
; File z:\sources\lunor\repos\rougemeilland\palmtree.math.core.uint\palmtree.math.core.uint\pmc_inline_func.h
_TEXT	SEGMENT
tv65 = -4						; size = 4
_x$ = 8							; size = 4
_y$ = 12						; size = 4
__MAXIMUM_UNIT PROC

; 196  :     {

	push	ebp
	mov	ebp, esp
	push	ecx
	mov	DWORD PTR [ebp-4], -858993460		; ccccccccH
	mov	ecx, OFFSET __8CA3E54E_pmc_inline_func@h
	call	@__CheckForDebuggerJustMyCode@4

; 197  :         return (x >= y ? x : y);

	mov	eax, DWORD PTR _x$[ebp]
	cmp	eax, DWORD PTR _y$[ebp]
	jb	SHORT $LN3@MAXIMUM_UN
	mov	ecx, DWORD PTR _x$[ebp]
	mov	DWORD PTR tv65[ebp], ecx
	jmp	SHORT $LN4@MAXIMUM_UN
$LN3@MAXIMUM_UN:
	mov	edx, DWORD PTR _y$[ebp]
	mov	DWORD PTR tv65[ebp], edx
$LN4@MAXIMUM_UN:
	mov	eax, DWORD PTR tv65[ebp]

; 198  :     }

	add	esp, 4
	cmp	ebp, esp
	call	__RTC_CheckEsp
	mov	esp, ebp
	pop	ebp
	ret	0
__MAXIMUM_UNIT ENDP
_TEXT	ENDS
; Function compile flags: /Odtp /RTCsu
; File z:\sources\lunor\repos\rougemeilland\palmtree.math.core.uint\palmtree.math.core.uint\pmc_inline_func.h
_TEXT	SEGMENT
_d$ = 8							; size = 4
_count$ = 12						; size = 4
__ZERO_MEMORY_UNIT PROC

; 109  :     {

	push	ebp
	mov	ebp, esp
	push	edi
	mov	ecx, OFFSET __8CA3E54E_pmc_inline_func@h
	call	@__CheckForDebuggerJustMyCode@4

; 110  : #ifdef _M_IX86
; 111  :         __stosd((unsigned long*)d, 0, (unsigned long)count);

	mov	edi, DWORD PTR _d$[ebp]
	xor	eax, eax
	mov	ecx, DWORD PTR _count$[ebp]
	rep stosd

; 112  : #elif defined(_M_X64)
; 113  :         __stosq(d, 0, count);
; 114  : #else
; 115  : #error unknown platform
; 116  : #endif
; 117  :     }

	pop	edi
	cmp	ebp, esp
	call	__RTC_CheckEsp
	pop	ebp
	ret	0
__ZERO_MEMORY_UNIT ENDP
_TEXT	ENDS
; Function compile flags: /Odtp /RTCsu
; File z:\sources\lunor\repos\rougemeilland\palmtree.math.core.uint\palmtree.math.core.uint\pmc_inline_func.h
_TEXT	SEGMENT
_d$ = 8							; size = 4
_s$ = 12						; size = 4
_count$ = 16						; size = 4
__COPY_MEMORY_UNIT PROC

; 59   :     {

	push	ebp
	mov	ebp, esp
	push	esi
	push	edi
	mov	ecx, OFFSET __8CA3E54E_pmc_inline_func@h
	call	@__CheckForDebuggerJustMyCode@4

; 60   : #ifdef _M_IX86
; 61   :         __movsd((unsigned long *)d, (unsigned long *)s, (unsigned long)count);

	mov	edi, DWORD PTR _d$[ebp]
	mov	esi, DWORD PTR _s$[ebp]
	mov	ecx, DWORD PTR _count$[ebp]
	rep movsd

; 62   : #elif defined(_M_X64)
; 63   :         __movsq(d, s, count);
; 64   : #else
; 65   : #error unknown platform
; 66   : #endif
; 67   :     }

	pop	edi
	pop	esi
	cmp	ebp, esp
	call	__RTC_CheckEsp
	pop	ebp
	ret	0
__COPY_MEMORY_UNIT ENDP
_TEXT	ENDS
; Function compile flags: /Odtp /RTCsu
; File z:\sources\lunor\repos\rougemeilland\palmtree.math.core.uint\palmtree.math.core.uint\pmc_modpow.c
_TEXT	SEGMENT
_result$ = -4						; size = 4
_v$ = 8							; size = 4
_e$ = 12						; size = 4
_m$ = 16						; size = 4
_r$ = 20						; size = 4
_PMC_ModPow_X_X_X@16 PROC

; 595  : {

	push	ebp
	mov	ebp, esp
	push	ecx
	mov	DWORD PTR [ebp-4], -858993460		; ccccccccH
	mov	ecx, OFFSET __6553949D_pmc_modpow@c
	call	@__CheckForDebuggerJustMyCode@4

; 596  :     if (v == NULL)

	cmp	DWORD PTR _v$[ebp], 0
	jne	SHORT $LN2@PMC_ModPow

; 597  :         return (PMC_STATUS_ARGUMENT_ERROR);

	or	eax, -1
	jmp	$LN1@PMC_ModPow
$LN2@PMC_ModPow:

; 598  :     if (e == NULL)

	cmp	DWORD PTR _e$[ebp], 0
	jne	SHORT $LN3@PMC_ModPow

; 599  :         return (PMC_STATUS_ARGUMENT_ERROR);

	or	eax, -1
	jmp	$LN1@PMC_ModPow
$LN3@PMC_ModPow:

; 600  :     if (m == NULL)

	cmp	DWORD PTR _m$[ebp], 0
	jne	SHORT $LN4@PMC_ModPow

; 601  :         return (PMC_STATUS_ARGUMENT_ERROR);

	or	eax, -1
	jmp	$LN1@PMC_ModPow
$LN4@PMC_ModPow:

; 602  :     if (r == NULL)

	cmp	DWORD PTR _r$[ebp], 0
	jne	SHORT $LN5@PMC_ModPow

; 603  :         return (PMC_STATUS_ARGUMENT_ERROR);

	or	eax, -1
	jmp	$LN1@PMC_ModPow
$LN5@PMC_ModPow:

; 604  :     PMC_STATUS_CODE result;
; 605  :     if ((result = CheckNumber((NUMBER_HEADER*)v)) != PMC_STATUS_OK)

	mov	eax, DWORD PTR _v$[ebp]
	push	eax
	call	_CheckNumber
	add	esp, 4
	mov	DWORD PTR _result$[ebp], eax
	cmp	DWORD PTR _result$[ebp], 0
	je	SHORT $LN6@PMC_ModPow

; 606  :         return (result);

	mov	eax, DWORD PTR _result$[ebp]
	jmp	SHORT $LN1@PMC_ModPow
$LN6@PMC_ModPow:

; 607  :     if ((result = CheckNumber((NUMBER_HEADER*)e)) != PMC_STATUS_OK)

	mov	ecx, DWORD PTR _e$[ebp]
	push	ecx
	call	_CheckNumber
	add	esp, 4
	mov	DWORD PTR _result$[ebp], eax
	cmp	DWORD PTR _result$[ebp], 0
	je	SHORT $LN7@PMC_ModPow

; 608  :         return (result);

	mov	eax, DWORD PTR _result$[ebp]
	jmp	SHORT $LN1@PMC_ModPow
$LN7@PMC_ModPow:

; 609  :     if ((result = CheckNumber((NUMBER_HEADER*)m)) != PMC_STATUS_OK)

	mov	edx, DWORD PTR _m$[ebp]
	push	edx
	call	_CheckNumber
	add	esp, 4
	mov	DWORD PTR _result$[ebp], eax
	cmp	DWORD PTR _result$[ebp], 0
	je	SHORT $LN8@PMC_ModPow

; 610  :         return (result);

	mov	eax, DWORD PTR _result$[ebp]
	jmp	SHORT $LN1@PMC_ModPow
$LN8@PMC_ModPow:

; 611  :     if ((result = PMC_ModPow_X_X_X_Imp((NUMBER_HEADER*)v, (NUMBER_HEADER*)e, (NUMBER_HEADER*)m, (NUMBER_HEADER**)r)) != PMC_STATUS_OK)

	mov	eax, DWORD PTR _r$[ebp]
	push	eax
	mov	ecx, DWORD PTR _m$[ebp]
	push	ecx
	mov	edx, DWORD PTR _e$[ebp]
	push	edx
	mov	eax, DWORD PTR _v$[ebp]
	push	eax
	call	_PMC_ModPow_X_X_X_Imp
	add	esp, 16					; 00000010H
	mov	DWORD PTR _result$[ebp], eax
	cmp	DWORD PTR _result$[ebp], 0
	je	SHORT $LN9@PMC_ModPow

; 612  :         return (result);

	mov	eax, DWORD PTR _result$[ebp]
	jmp	SHORT $LN1@PMC_ModPow
$LN9@PMC_ModPow:

; 613  : #ifdef _DEBUG
; 614  :     if ((result = CheckNumber((NUMBER_HEADER*)*r)) != PMC_STATUS_OK)

	mov	ecx, DWORD PTR _r$[ebp]
	mov	edx, DWORD PTR [ecx]
	push	edx
	call	_CheckNumber
	add	esp, 4
	mov	DWORD PTR _result$[ebp], eax
	cmp	DWORD PTR _result$[ebp], 0
	je	SHORT $LN10@PMC_ModPow

; 615  :         return (result);

	mov	eax, DWORD PTR _result$[ebp]
	jmp	SHORT $LN1@PMC_ModPow
$LN10@PMC_ModPow:

; 616  : #endif
; 617  :     return (PMC_STATUS_OK);

	xor	eax, eax
$LN1@PMC_ModPow:

; 618  : }

	add	esp, 4
	cmp	ebp, esp
	call	__RTC_CheckEsp
	mov	esp, ebp
	pop	ebp
	ret	16					; 00000010H
_PMC_ModPow_X_X_X@16 ENDP
_TEXT	ENDS
; Function compile flags: /Odtp /RTCsu
; File z:\sources\lunor\repos\rougemeilland\palmtree.math.core.uint\palmtree.math.core.uint\pmc_modpow.c
_TEXT	SEGMENT
_feature$ = 8						; size = 4
_Initialize_ModPow PROC

; 621  : {

	push	ebp
	mov	ebp, esp
	mov	ecx, OFFSET __6553949D_pmc_modpow@c
	call	@__CheckForDebuggerJustMyCode@4

; 622  :     return (PMC_STATUS_OK);

	xor	eax, eax

; 623  : }

	cmp	ebp, esp
	call	__RTC_CheckEsp
	pop	ebp
	ret	0
_Initialize_ModPow ENDP
_TEXT	ENDS
END
