; Listing generated by Microsoft (R) Optimizing Compiler Version 19.16.27026.1 

	TITLE	Z:\Sources\Lunor\Repos\rougemeilland\Palmtree.Math.Core.Uint\Palmtree.Math.Core.Uint\pmc_equals.c
	.686P
	.XMM
	include listing.inc
	.model	flat

INCLUDELIB MSVCRTD
INCLUDELIB OLDNAMES

msvcjmc	SEGMENT
__7B7A869E_ctype@h DB 01H
__457DD326_basetsd@h DB 01H
__4384A2D9_corecrt_memcpy_s@h DB 01H
__4E51A221_corecrt_wstring@h DB 01H
__2140C079_string@h DB 01H
__1887E595_winnt@h DB 01H
__9FC7C64B_processthreadsapi@h DB 01H
__FA470AEC_memoryapi@h DB 01H
__F37DAFF1_winerror@h DB 01H
__7A450CCC_winbase@h DB 01H
__B4B40122_winioctl@h DB 01H
__86261D59_stralign@h DB 01H
__BB6D3116_pmc_uint_internal@h DB 01H
__8CA3E54E_pmc_inline_func@h DB 01H
__01E10085_pmc_equals@c DB 01H
msvcjmc	ENDS
PUBLIC	_Initialize_Equals
PUBLIC	_PMC_Equals_I_X@12
PUBLIC	_PMC_Equals_L_X@16
PUBLIC	_PMC_Equals_X_I@12
PUBLIC	_PMC_Equals_X_L@16
PUBLIC	_PMC_Equals_X_X@12
PUBLIC	_Equals_X_X
PUBLIC	__JustMyCode_Default
EXTRN	_CheckNumber:PROC
EXTRN	@_RTC_CheckStackVars@8:PROC
EXTRN	@__CheckForDebuggerJustMyCode@4:PROC
EXTRN	__RTC_CheckEsp:PROC
EXTRN	__RTC_InitBase:PROC
EXTRN	__RTC_Shutdown:PROC
EXTRN	__aullshr:PROC
;	COMDAT rtc$TMZ
rtc$TMZ	SEGMENT
__RTC_Shutdown.rtc$TMZ DD FLAT:__RTC_Shutdown
rtc$TMZ	ENDS
;	COMDAT rtc$IMZ
rtc$IMZ	SEGMENT
__RTC_InitBase.rtc$IMZ DD FLAT:__RTC_InitBase
rtc$IMZ	ENDS
; Function compile flags: /Odt
;	COMDAT __JustMyCode_Default
_TEXT	SEGMENT
__JustMyCode_Default PROC				; COMDAT
	push	ebp
	mov	ebp, esp
	pop	ebp
	ret	0
__JustMyCode_Default ENDP
_TEXT	ENDS
; Function compile flags: /Odtp /RTCsu
; File z:\sources\lunor\repos\rougemeilland\palmtree.math.core.uint\palmtree.math.core.uint\pmc_equals.c
_TEXT	SEGMENT
tv140 = -56						; size = 4
tv199 = -52						; size = 8
tv128 = -44						; size = 4
tv83 = -40						; size = 4
_v_bit_count$1 = -36					; size = 4
_u_bit_count$2 = -32					; size = 4
_v_bit_count$3 = -28					; size = 4
_v_bit_count$4 = -24					; size = 4
_v_lo$5 = -20						; size = 4
_v_hi$6 = -12						; size = 4
_u_bit_count$7 = -4					; size = 4
_u$ = 8							; size = 4
_v$ = 12						; size = 8
_w$ = 20						; size = 4
_PMC_Equals_X_L_Imp PROC

; 125  : {

	push	ebp
	mov	ebp, esp
	sub	esp, 56					; 00000038H
	push	edi
	lea	edi, DWORD PTR [ebp-56]
	mov	ecx, 14					; 0000000eH
	mov	eax, -858993460				; ccccccccH
	rep stosd
	mov	ecx, OFFSET __01E10085_pmc_equals@c
	call	@__CheckForDebuggerJustMyCode@4

; 126  :     if (u->IS_ZERO)

	mov	eax, DWORD PTR _u$[ebp]
	mov	ecx, DWORD PTR [eax]
	and	ecx, 1
	je	SHORT $LN2@PMC_Equals

; 127  :     {
; 128  :         // u が 0 である場合
; 129  :         if (v == 0)

	mov	edx, DWORD PTR _v$[ebp]
	or	edx, DWORD PTR _v$[ebp+4]
	jne	SHORT $LN4@PMC_Equals

; 130  :         {
; 131  :             // v が 0 である場合
; 132  :             *w = 1;

	mov	eax, DWORD PTR _w$[ebp]
	mov	DWORD PTR [eax], 1

; 133  :         }

	jmp	SHORT $LN5@PMC_Equals
$LN4@PMC_Equals:

; 134  :         else
; 135  :         {
; 136  :             // v が 0 でない場合
; 137  :             *w = 0;

	mov	ecx, DWORD PTR _w$[ebp]
	mov	DWORD PTR [ecx], 0
$LN5@PMC_Equals:

; 138  :         }
; 139  :     }

	jmp	$LN3@PMC_Equals
$LN2@PMC_Equals:

; 140  :     else if (v == 0)

	mov	edx, DWORD PTR _v$[ebp]
	or	edx, DWORD PTR _v$[ebp+4]
	jne	SHORT $LN6@PMC_Equals

; 141  :     {
; 142  :         // v が 0 である場合
; 143  :         *w = 0;

	mov	eax, DWORD PTR _w$[ebp]
	mov	DWORD PTR [eax], 0

; 144  :     }

	jmp	$LN3@PMC_Equals
$LN6@PMC_Equals:

; 145  :     else
; 146  :     {
; 147  :         // u と v がともに 0 ではない場合
; 148  :         if (__UNIT_TYPE_BIT_COUNT < sizeof(v) * 8)

	mov	ecx, 1
	test	ecx, ecx
	je	$LN8@PMC_Equals

; 149  :         {
; 150  :             // _UINT64_T が 1 ワードで表現しきれない場合
; 151  :             __UNIT_TYPE u_bit_count = u->UNIT_BIT_COUNT;

	mov	edx, DWORD PTR _u$[ebp]
	mov	eax, DWORD PTR [edx+16]
	mov	DWORD PTR _u_bit_count$7[ebp], eax

; 152  :             _UINT32_T v_hi;
; 153  :             _UINT32_T v_lo = _FROMDWORDTOWORD(v, &v_hi);

	lea	ecx, DWORD PTR _v_hi$6[ebp]
	push	ecx
	mov	edx, DWORD PTR _v$[ebp+4]
	push	edx
	mov	eax, DWORD PTR _v$[ebp]
	push	eax
	call	__FROMDWORDTOWORD
	add	esp, 12					; 0000000cH
	mov	DWORD PTR _v_lo$5[ebp], eax

; 154  :             if (v_hi == 0)

	cmp	DWORD PTR _v_hi$6[ebp], 0
	jne	SHORT $LN10@PMC_Equals

; 155  :             {
; 156  :                 // v の値が 32bit では表現できる場合
; 157  :                 __UNIT_TYPE v_bit_count = sizeof(v_lo) * 8 - _LZCNT_ALT_32(v_lo);

	mov	ecx, DWORD PTR _v_lo$5[ebp]
	push	ecx
	call	__LZCNT_ALT_32
	add	esp, 4
	mov	edx, 32					; 00000020H
	sub	edx, eax
	mov	DWORD PTR _v_bit_count$4[ebp], edx

; 158  :                 if (u_bit_count != v_bit_count)

	mov	eax, DWORD PTR _u_bit_count$7[ebp]
	cmp	eax, DWORD PTR _v_bit_count$4[ebp]
	je	SHORT $LN12@PMC_Equals

; 159  :                 {
; 160  :                     // 明らかに u > v である場合
; 161  :                     *w = 0;

	mov	ecx, DWORD PTR _w$[ebp]
	mov	DWORD PTR [ecx], 0

; 162  :                 }

	jmp	SHORT $LN13@PMC_Equals
$LN12@PMC_Equals:

; 163  :                 else
; 164  :                 {
; 165  :                     // u > 0 && v > 0 かつ u のビット長と v のビット長が等しく、かつ v が 1 ワードで表現できる場合
; 166  :                     // ⇒ u と v はともに 1 ワードで表現できる
; 167  :                     *w = u->BLOCK[0] == v_lo;

	mov	edx, 4
	imul	eax, edx, 0
	mov	ecx, DWORD PTR _u$[ebp]
	mov	edx, DWORD PTR [ecx+36]
	mov	eax, DWORD PTR [eax+edx]
	cmp	eax, DWORD PTR _v_lo$5[ebp]
	jne	SHORT $LN19@PMC_Equals
	mov	DWORD PTR tv83[ebp], 1
	jmp	SHORT $LN20@PMC_Equals
$LN19@PMC_Equals:
	mov	DWORD PTR tv83[ebp], 0
$LN20@PMC_Equals:
	mov	ecx, DWORD PTR _w$[ebp]
	mov	edx, DWORD PTR tv83[ebp]
	mov	DWORD PTR [ecx], edx
$LN13@PMC_Equals:

; 168  :                 }
; 169  :             }

	jmp	SHORT $LN11@PMC_Equals
$LN10@PMC_Equals:

; 170  :             else
; 171  :             {
; 172  :                 // v の値が 32bit では表現できない場合
; 173  :                 __UNIT_TYPE v_bit_count = sizeof(v) * 8 - _LZCNT_ALT_32(v_hi);

	mov	eax, DWORD PTR _v_hi$6[ebp]
	push	eax
	call	__LZCNT_ALT_32
	add	esp, 4
	mov	ecx, 64					; 00000040H
	sub	ecx, eax
	mov	DWORD PTR _v_bit_count$3[ebp], ecx

; 174  :                 if (u_bit_count != v_bit_count)

	mov	edx, DWORD PTR _u_bit_count$7[ebp]
	cmp	edx, DWORD PTR _v_bit_count$3[ebp]
	je	SHORT $LN14@PMC_Equals

; 175  :                 {
; 176  :                     // 明らかに u > v である場合
; 177  :                     *w = 0;

	mov	eax, DWORD PTR _w$[ebp]
	mov	DWORD PTR [eax], 0

; 178  :                 }

	jmp	SHORT $LN11@PMC_Equals
$LN14@PMC_Equals:

; 179  :                 else
; 180  :                 {
; 181  :                     // u > 0 && v > 0 かつ u のビット長と v のビット長が等しく、かつ v が 2 ワードで表現できる場合
; 182  :                     // ⇒ u と v はともに 2 ワードで表現できる
; 183  :                     *w = u->BLOCK[1] == v_hi && u->BLOCK[0] == v_lo;

	mov	ecx, 4
	shl	ecx, 0
	mov	edx, DWORD PTR _u$[ebp]
	mov	eax, DWORD PTR [edx+36]
	mov	ecx, DWORD PTR [ecx+eax]
	cmp	ecx, DWORD PTR _v_hi$6[ebp]
	jne	SHORT $LN21@PMC_Equals
	mov	edx, 4
	imul	eax, edx, 0
	mov	ecx, DWORD PTR _u$[ebp]
	mov	edx, DWORD PTR [ecx+36]
	mov	eax, DWORD PTR [eax+edx]
	cmp	eax, DWORD PTR _v_lo$5[ebp]
	jne	SHORT $LN21@PMC_Equals
	mov	DWORD PTR tv128[ebp], 1
	jmp	SHORT $LN22@PMC_Equals
$LN21@PMC_Equals:
	mov	DWORD PTR tv128[ebp], 0
$LN22@PMC_Equals:
	mov	ecx, DWORD PTR _w$[ebp]
	mov	edx, DWORD PTR tv128[ebp]
	mov	DWORD PTR [ecx], edx
$LN11@PMC_Equals:

; 184  :                 }
; 185  :             }
; 186  :         }

	jmp	SHORT $LN3@PMC_Equals
$LN8@PMC_Equals:

; 187  :         else
; 188  :         {
; 189  :             // _UINT64_T が 1 ワードで表現できる場合
; 190  : 
; 191  :             __UNIT_TYPE u_bit_count = u->UNIT_BIT_COUNT;

	mov	eax, DWORD PTR _u$[ebp]
	mov	ecx, DWORD PTR [eax+16]
	mov	DWORD PTR _u_bit_count$2[ebp], ecx

; 192  :             __UNIT_TYPE v_bit_count = sizeof(v) * 8 - _LZCNT_ALT_UNIT((__UNIT_TYPE)v);

	mov	edx, DWORD PTR _v$[ebp]
	push	edx
	call	__LZCNT_ALT_UNIT
	add	esp, 4
	mov	ecx, 64					; 00000040H
	sub	ecx, eax
	mov	DWORD PTR _v_bit_count$1[ebp], ecx

; 193  :             if (u_bit_count != v_bit_count)

	mov	edx, DWORD PTR _u_bit_count$2[ebp]
	cmp	edx, DWORD PTR _v_bit_count$1[ebp]
	je	SHORT $LN16@PMC_Equals

; 194  :             {
; 195  :                 // 明らかに u > v である場合
; 196  :                 *w = 0;

	mov	eax, DWORD PTR _w$[ebp]
	mov	DWORD PTR [eax], 0

; 197  :             }

	jmp	SHORT $LN3@PMC_Equals
$LN16@PMC_Equals:

; 198  :             else
; 199  :             {
; 200  :                 // u > 0 && v > 0 かつ u のビット長と v のビット長が等しく、かつ v が 1 ワードで表現できる場合
; 201  :                 // ⇒ u と v はともに 1 ワードで表現できる
; 202  :                 *w = u->BLOCK[0] == v;

	mov	ecx, 4
	imul	edx, ecx, 0
	mov	eax, DWORD PTR _u$[ebp]
	mov	ecx, DWORD PTR [eax+36]
	mov	edx, DWORD PTR [ecx+edx]
	xor	eax, eax
	mov	DWORD PTR tv199[ebp], edx
	mov	DWORD PTR tv199[ebp+4], eax
	mov	ecx, DWORD PTR tv199[ebp]
	cmp	ecx, DWORD PTR _v$[ebp]
	jne	SHORT $LN23@PMC_Equals
	mov	edx, DWORD PTR tv199[ebp+4]
	cmp	edx, DWORD PTR _v$[ebp+4]
	jne	SHORT $LN23@PMC_Equals
	mov	DWORD PTR tv140[ebp], 1
	jmp	SHORT $LN24@PMC_Equals
$LN23@PMC_Equals:
	mov	DWORD PTR tv140[ebp], 0
$LN24@PMC_Equals:
	mov	eax, DWORD PTR _w$[ebp]
	mov	ecx, DWORD PTR tv140[ebp]
	mov	DWORD PTR [eax], ecx
$LN3@PMC_Equals:

; 203  :             }
; 204  :         }
; 205  :     }
; 206  :     return (PMC_STATUS_OK);

	xor	eax, eax

; 207  : }

	push	edx
	mov	ecx, ebp
	push	eax
	lea	edx, DWORD PTR $LN27@PMC_Equals
	call	@_RTC_CheckStackVars@8
	pop	eax
	pop	edx
	pop	edi
	add	esp, 56					; 00000038H
	cmp	ebp, esp
	call	__RTC_CheckEsp
	mov	esp, ebp
	pop	ebp
	ret	0
	npad	3
$LN27@PMC_Equals:
	DD	1
	DD	$LN26@PMC_Equals
$LN26@PMC_Equals:
	DD	-12					; fffffff4H
	DD	4
	DD	$LN25@PMC_Equals
$LN25@PMC_Equals:
	DB	118					; 00000076H
	DB	95					; 0000005fH
	DB	104					; 00000068H
	DB	105					; 00000069H
	DB	0
_PMC_Equals_X_L_Imp ENDP
_TEXT	ENDS
; Function compile flags: /Odtp /RTCsu
; File z:\sources\lunor\repos\rougemeilland\palmtree.math.core.uint\palmtree.math.core.uint\pmc_equals.c
_TEXT	SEGMENT
tv78 = -12						; size = 4
_v_bit_count$1 = -8					; size = 4
_u_bit_count$2 = -4					; size = 4
_u$ = 8							; size = 4
_v$ = 12						; size = 4
_w$ = 16						; size = 4
_PMC_Equals_X_I_Imp PROC

; 46   : {

	push	ebp
	mov	ebp, esp
	sub	esp, 12					; 0000000cH
	mov	DWORD PTR [ebp-12], -858993460		; ccccccccH
	mov	DWORD PTR [ebp-8], -858993460		; ccccccccH
	mov	DWORD PTR [ebp-4], -858993460		; ccccccccH
	mov	ecx, OFFSET __01E10085_pmc_equals@c
	call	@__CheckForDebuggerJustMyCode@4

; 47   :     if (u->IS_ZERO)

	mov	eax, DWORD PTR _u$[ebp]
	mov	ecx, DWORD PTR [eax]
	and	ecx, 1
	je	SHORT $LN2@PMC_Equals

; 48   :     {
; 49   :         // u が 0 である場合
; 50   :         if (v == 0)

	cmp	DWORD PTR _v$[ebp], 0
	jne	SHORT $LN4@PMC_Equals

; 51   :         {
; 52   :             // v が 0 である場合
; 53   :             *w = 1;

	mov	edx, DWORD PTR _w$[ebp]
	mov	DWORD PTR [edx], 1

; 54   :         }

	jmp	SHORT $LN5@PMC_Equals
$LN4@PMC_Equals:

; 55   :         else
; 56   :         {
; 57   :             // v が 0 でない場合
; 58   :             *w = 0;

	mov	eax, DWORD PTR _w$[ebp]
	mov	DWORD PTR [eax], 0
$LN5@PMC_Equals:

; 59   :         }
; 60   :     }

	jmp	SHORT $LN3@PMC_Equals
$LN2@PMC_Equals:

; 61   :     else if (v == 0)

	cmp	DWORD PTR _v$[ebp], 0
	jne	SHORT $LN6@PMC_Equals

; 62   :     {
; 63   :         // v が 0 である場合
; 64   :         *w = 0;

	mov	ecx, DWORD PTR _w$[ebp]
	mov	DWORD PTR [ecx], 0

; 65   :     }

	jmp	SHORT $LN3@PMC_Equals
$LN6@PMC_Equals:

; 66   :     else
; 67   :     {
; 68   :         // x と y がともに 0 ではない場合
; 69   :         __UNIT_TYPE u_bit_count = u->UNIT_BIT_COUNT;

	mov	edx, DWORD PTR _u$[ebp]
	mov	eax, DWORD PTR [edx+16]
	mov	DWORD PTR _u_bit_count$2[ebp], eax

; 70   :         __UNIT_TYPE v_bit_count = sizeof(v) * 8 - _LZCNT_ALT_32(v);

	mov	ecx, DWORD PTR _v$[ebp]
	push	ecx
	call	__LZCNT_ALT_32
	add	esp, 4
	mov	edx, 32					; 00000020H
	sub	edx, eax
	mov	DWORD PTR _v_bit_count$1[ebp], edx

; 71   :         if (u_bit_count != v_bit_count)

	mov	eax, DWORD PTR _u_bit_count$2[ebp]
	cmp	eax, DWORD PTR _v_bit_count$1[ebp]
	je	SHORT $LN8@PMC_Equals

; 72   :         {
; 73   :             // 明らかに u != v である場合
; 74   :             *w = 0;

	mov	ecx, DWORD PTR _w$[ebp]
	mov	DWORD PTR [ecx], 0

; 75   :         }

	jmp	SHORT $LN3@PMC_Equals
$LN8@PMC_Equals:

; 76   :         else
; 77   :         {
; 78   :             // u > 0 && v > 0 かつ u のビット長と v のビット長が等しい場合
; 79   :             // ⇒ u と v はともに 1 ワードで表現できる
; 80   :             *w = u->BLOCK[0] == v;

	mov	edx, 4
	imul	eax, edx, 0
	mov	ecx, DWORD PTR _u$[ebp]
	mov	edx, DWORD PTR [ecx+36]
	mov	eax, DWORD PTR [eax+edx]
	cmp	eax, DWORD PTR _v$[ebp]
	jne	SHORT $LN11@PMC_Equals
	mov	DWORD PTR tv78[ebp], 1
	jmp	SHORT $LN12@PMC_Equals
$LN11@PMC_Equals:
	mov	DWORD PTR tv78[ebp], 0
$LN12@PMC_Equals:
	mov	ecx, DWORD PTR _w$[ebp]
	mov	edx, DWORD PTR tv78[ebp]
	mov	DWORD PTR [ecx], edx
$LN3@PMC_Equals:

; 81   :         }
; 82   :     }
; 83   :     return (PMC_STATUS_OK);

	xor	eax, eax

; 84   : }

	add	esp, 12					; 0000000cH
	cmp	ebp, esp
	call	__RTC_CheckEsp
	mov	esp, ebp
	pop	ebp
	ret	0
_PMC_Equals_X_I_Imp ENDP
_TEXT	ENDS
; Function compile flags: /Odtp /RTCsu
; File z:\sources\lunor\repos\rougemeilland\palmtree.math.core.uint\palmtree.math.core.uint\pmc_equals.c
_TEXT	SEGMENT
_u$ = 8							; size = 4
_v$ = 12						; size = 4
_count$ = 16						; size = 4
_Equals_X_X PROC

; 32   : {

	push	ebp
	mov	ebp, esp
	mov	ecx, OFFSET __01E10085_pmc_equals@c
	call	@__CheckForDebuggerJustMyCode@4
$LN2@Equals_X_X:

; 33   :     while (count > 0)

	cmp	DWORD PTR _count$[ebp], 0
	jbe	SHORT $LN3@Equals_X_X

; 34   :     {
; 35   :         if (*u != *v)

	mov	eax, DWORD PTR _u$[ebp]
	mov	ecx, DWORD PTR _v$[ebp]
	mov	edx, DWORD PTR [eax]
	cmp	edx, DWORD PTR [ecx]
	je	SHORT $LN4@Equals_X_X

; 36   :             return (0);

	xor	eax, eax
	jmp	SHORT $LN1@Equals_X_X
$LN4@Equals_X_X:

; 37   :         ++u;

	mov	eax, DWORD PTR _u$[ebp]
	add	eax, 4
	mov	DWORD PTR _u$[ebp], eax

; 38   :         ++v;

	mov	ecx, DWORD PTR _v$[ebp]
	add	ecx, 4
	mov	DWORD PTR _v$[ebp], ecx

; 39   :         --count;

	mov	edx, DWORD PTR _count$[ebp]
	sub	edx, 1
	mov	DWORD PTR _count$[ebp], edx

; 40   :     }

	jmp	SHORT $LN2@Equals_X_X
$LN3@Equals_X_X:

; 41   :     return (1);

	mov	eax, 1
$LN1@Equals_X_X:

; 42   : }

	cmp	ebp, esp
	call	__RTC_CheckEsp
	pop	ebp
	ret	0
_Equals_X_X ENDP
_TEXT	ENDS
; Function compile flags: /Odtp /RTCsu
; File z:\sources\lunor\repos\rougemeilland\palmtree.math.core.uint\palmtree.math.core.uint\pmc_inline_func.h
_TEXT	SEGMENT
_pos$ = -8						; size = 4
_x$ = 8							; size = 4
__LZCNT_ALT_UNIT PROC

; 623  :     {

	push	ebp
	mov	ebp, esp
	sub	esp, 12					; 0000000cH
	mov	DWORD PTR [ebp-12], -858993460		; ccccccccH
	mov	DWORD PTR [ebp-8], -858993460		; ccccccccH
	mov	DWORD PTR [ebp-4], -858993460		; ccccccccH
	mov	ecx, OFFSET __8CA3E54E_pmc_inline_func@h
	call	@__CheckForDebuggerJustMyCode@4

; 624  :         if (x == 0)

	cmp	DWORD PTR _x$[ebp], 0
	jne	SHORT $LN2@LZCNT_ALT_

; 625  :             return (sizeof(x) * 8);

	mov	eax, 32					; 00000020H
	jmp	SHORT $LN1@LZCNT_ALT_
$LN2@LZCNT_ALT_:

; 626  : #ifdef _M_IX86
; 627  :         _UINT32_T pos;
; 628  : #ifdef _MSC_VER
; 629  :         _BitScanReverse(&pos, x);

	bsr	eax, DWORD PTR _x$[ebp]
	mov	DWORD PTR _pos$[ebp], eax

; 630  : #elif defined(__GNUC__)
; 631  :         __asm__("bsrl %1, %0" : "=r"(pos) : "rm"(x));
; 632  : #else
; 633  : #error unknown compiler
; 634  : #endif
; 635  : #elif defined(_M_X64)
; 636  : #ifdef _MSC_VER
; 637  :         _UINT32_T pos;
; 638  :         _BitScanReverse64(&pos, x);
; 639  : #elif defined(__GNUC__)
; 640  :         _UINT64_T pos;
; 641  :         __asm__("bsrq %1, %0" : "=r"(pos) : "rm"(x));
; 642  : #else
; 643  : #error unknown compiler
; 644  : #endif
; 645  : #else
; 646  : #error unknown platform
; 647  : #endif
; 648  :         return (sizeof(x) * 8 - 1 - pos);

	mov	eax, 31					; 0000001fH
	sub	eax, DWORD PTR _pos$[ebp]
$LN1@LZCNT_ALT_:

; 649  :     }

	push	edx
	mov	ecx, ebp
	push	eax
	lea	edx, DWORD PTR $LN6@LZCNT_ALT_
	call	@_RTC_CheckStackVars@8
	pop	eax
	pop	edx
	add	esp, 12					; 0000000cH
	cmp	ebp, esp
	call	__RTC_CheckEsp
	mov	esp, ebp
	pop	ebp
	ret	0
$LN6@LZCNT_ALT_:
	DD	1
	DD	$LN5@LZCNT_ALT_
$LN5@LZCNT_ALT_:
	DD	-8					; fffffff8H
	DD	4
	DD	$LN4@LZCNT_ALT_
$LN4@LZCNT_ALT_:
	DB	112					; 00000070H
	DB	111					; 0000006fH
	DB	115					; 00000073H
	DB	0
__LZCNT_ALT_UNIT ENDP
_TEXT	ENDS
; Function compile flags: /Odtp /RTCsu
; File z:\sources\lunor\repos\rougemeilland\palmtree.math.core.uint\palmtree.math.core.uint\pmc_inline_func.h
_TEXT	SEGMENT
_pos$ = -8						; size = 4
_x$ = 8							; size = 4
__LZCNT_ALT_32 PROC

; 590  :     {

	push	ebp
	mov	ebp, esp
	sub	esp, 12					; 0000000cH
	mov	DWORD PTR [ebp-12], -858993460		; ccccccccH
	mov	DWORD PTR [ebp-8], -858993460		; ccccccccH
	mov	DWORD PTR [ebp-4], -858993460		; ccccccccH
	mov	ecx, OFFSET __8CA3E54E_pmc_inline_func@h
	call	@__CheckForDebuggerJustMyCode@4

; 591  :         if (x == 0)

	cmp	DWORD PTR _x$[ebp], 0
	jne	SHORT $LN2@LZCNT_ALT_

; 592  :             return (sizeof(x) * 8);

	mov	eax, 32					; 00000020H
	jmp	SHORT $LN1@LZCNT_ALT_
$LN2@LZCNT_ALT_:

; 593  :         _UINT32_T pos;
; 594  : #ifdef _MSC_VER
; 595  :         _BitScanReverse(&pos, x);

	bsr	eax, DWORD PTR _x$[ebp]
	mov	DWORD PTR _pos$[ebp], eax

; 596  : #elif defined(__GNUC__)
; 597  :         __asm__("bsrl %1, %0" : "=r"(pos) : "rm"(x));
; 598  : #else
; 599  : #error unknown compiler
; 600  : #endif
; 601  :         return (sizeof(x) * 8 - 1 - pos);

	mov	eax, 31					; 0000001fH
	sub	eax, DWORD PTR _pos$[ebp]
$LN1@LZCNT_ALT_:

; 602  :     }

	push	edx
	mov	ecx, ebp
	push	eax
	lea	edx, DWORD PTR $LN6@LZCNT_ALT_
	call	@_RTC_CheckStackVars@8
	pop	eax
	pop	edx
	add	esp, 12					; 0000000cH
	cmp	ebp, esp
	call	__RTC_CheckEsp
	mov	esp, ebp
	pop	ebp
	ret	0
$LN6@LZCNT_ALT_:
	DD	1
	DD	$LN5@LZCNT_ALT_
$LN5@LZCNT_ALT_:
	DD	-8					; fffffff8H
	DD	4
	DD	$LN4@LZCNT_ALT_
$LN4@LZCNT_ALT_:
	DB	112					; 00000070H
	DB	111					; 0000006fH
	DB	115					; 00000073H
	DB	0
__LZCNT_ALT_32 ENDP
_TEXT	ENDS
; Function compile flags: /Odtp /RTCsu
; File z:\sources\lunor\repos\rougemeilland\palmtree.math.core.uint\palmtree.math.core.uint\pmc_inline_func.h
_TEXT	SEGMENT
_value$ = 8						; size = 8
_result_high$ = 16					; size = 4
__FROMDWORDTOWORD PROC

; 176  :     {

	push	ebp
	mov	ebp, esp
	mov	ecx, OFFSET __8CA3E54E_pmc_inline_func@h
	call	@__CheckForDebuggerJustMyCode@4

; 177  :         *result_high = (_UINT32_T)(value >> 32);

	mov	eax, DWORD PTR _value$[ebp]
	mov	edx, DWORD PTR _value$[ebp+4]
	mov	cl, 32					; 00000020H
	call	__aullshr
	mov	ecx, DWORD PTR _result_high$[ebp]
	mov	DWORD PTR [ecx], eax

; 178  :         return ((_UINT32_T)value);

	mov	eax, DWORD PTR _value$[ebp]

; 179  :     }

	cmp	ebp, esp
	call	__RTC_CheckEsp
	pop	ebp
	ret	0
__FROMDWORDTOWORD ENDP
_TEXT	ENDS
; Function compile flags: /Odtp /RTCsu
; File z:\sources\lunor\repos\rougemeilland\palmtree.math.core.uint\palmtree.math.core.uint\pmc_equals.c
_TEXT	SEGMENT
tv79 = -24						; size = 4
_v_bit_count$1 = -20					; size = 4
_u_bit_count$2 = -16					; size = 4
_result$ = -12						; size = 4
_nv$ = -8						; size = 4
_nu$ = -4						; size = 4
_u$ = 8							; size = 4
_v$ = 12						; size = 4
_w$ = 16						; size = 4
_PMC_Equals_X_X@12 PROC

; 248  : {

	push	ebp
	mov	ebp, esp
	sub	esp, 24					; 00000018H
	mov	eax, -858993460				; ccccccccH
	mov	DWORD PTR [ebp-24], eax
	mov	DWORD PTR [ebp-20], eax
	mov	DWORD PTR [ebp-16], eax
	mov	DWORD PTR [ebp-12], eax
	mov	DWORD PTR [ebp-8], eax
	mov	DWORD PTR [ebp-4], eax
	mov	ecx, OFFSET __01E10085_pmc_equals@c
	call	@__CheckForDebuggerJustMyCode@4

; 249  :     if (u == NULL)

	cmp	DWORD PTR _u$[ebp], 0
	jne	SHORT $LN2@PMC_Equals

; 250  :         return (PMC_STATUS_ARGUMENT_ERROR);

	or	eax, -1
	jmp	$LN1@PMC_Equals
$LN2@PMC_Equals:

; 251  :     if (v == NULL)

	cmp	DWORD PTR _v$[ebp], 0
	jne	SHORT $LN3@PMC_Equals

; 252  :         return (PMC_STATUS_ARGUMENT_ERROR);

	or	eax, -1
	jmp	$LN1@PMC_Equals
$LN3@PMC_Equals:

; 253  :     if (w == NULL)

	cmp	DWORD PTR _w$[ebp], 0
	jne	SHORT $LN4@PMC_Equals

; 254  :         return (PMC_STATUS_ARGUMENT_ERROR);

	or	eax, -1
	jmp	$LN1@PMC_Equals
$LN4@PMC_Equals:

; 255  :     NUMBER_HEADER* nu = (NUMBER_HEADER*)u;

	mov	eax, DWORD PTR _u$[ebp]
	mov	DWORD PTR _nu$[ebp], eax

; 256  :     NUMBER_HEADER* nv = (NUMBER_HEADER*)v;

	mov	ecx, DWORD PTR _v$[ebp]
	mov	DWORD PTR _nv$[ebp], ecx

; 257  :     PMC_STATUS_CODE result;
; 258  :     if ((result = CheckNumber(nu)) != PMC_STATUS_OK)

	mov	edx, DWORD PTR _nu$[ebp]
	push	edx
	call	_CheckNumber
	add	esp, 4
	mov	DWORD PTR _result$[ebp], eax
	cmp	DWORD PTR _result$[ebp], 0
	je	SHORT $LN5@PMC_Equals

; 259  :         return (result);

	mov	eax, DWORD PTR _result$[ebp]
	jmp	$LN1@PMC_Equals
$LN5@PMC_Equals:

; 260  :     if ((result = CheckNumber(nv)) != PMC_STATUS_OK)

	mov	eax, DWORD PTR _nv$[ebp]
	push	eax
	call	_CheckNumber
	add	esp, 4
	mov	DWORD PTR _result$[ebp], eax
	cmp	DWORD PTR _result$[ebp], 0
	je	SHORT $LN6@PMC_Equals

; 261  :         return (result);

	mov	eax, DWORD PTR _result$[ebp]
	jmp	$LN1@PMC_Equals
$LN6@PMC_Equals:

; 262  :     if (nu->IS_ZERO)

	mov	ecx, DWORD PTR _nu$[ebp]
	mov	edx, DWORD PTR [ecx]
	and	edx, 1
	je	SHORT $LN7@PMC_Equals

; 263  :     {
; 264  :         *w = nv->IS_ZERO ? 1 : 0;

	mov	eax, DWORD PTR _nv$[ebp]
	mov	ecx, DWORD PTR [eax]
	and	ecx, 1
	je	SHORT $LN14@PMC_Equals
	mov	DWORD PTR tv79[ebp], 1
	jmp	SHORT $LN15@PMC_Equals
$LN14@PMC_Equals:
	mov	DWORD PTR tv79[ebp], 0
$LN15@PMC_Equals:
	mov	edx, DWORD PTR _w$[ebp]
	mov	eax, DWORD PTR tv79[ebp]
	mov	DWORD PTR [edx], eax

; 265  :     }

	jmp	SHORT $LN8@PMC_Equals
$LN7@PMC_Equals:

; 266  :     else if (nv->IS_ZERO)

	mov	ecx, DWORD PTR _nv$[ebp]
	mov	edx, DWORD PTR [ecx]
	and	edx, 1
	je	SHORT $LN9@PMC_Equals

; 267  :     {
; 268  :         *w = 0;

	mov	eax, DWORD PTR _w$[ebp]
	mov	DWORD PTR [eax], 0

; 269  :     }

	jmp	SHORT $LN8@PMC_Equals
$LN9@PMC_Equals:

; 270  :     else
; 271  :     {
; 272  :         __UNIT_TYPE u_bit_count = nu->UNIT_BIT_COUNT;

	mov	ecx, DWORD PTR _nu$[ebp]
	mov	edx, DWORD PTR [ecx+16]
	mov	DWORD PTR _u_bit_count$2[ebp], edx

; 273  :         __UNIT_TYPE v_bit_count = nv->UNIT_BIT_COUNT;

	mov	eax, DWORD PTR _nv$[ebp]
	mov	ecx, DWORD PTR [eax+16]
	mov	DWORD PTR _v_bit_count$1[ebp], ecx

; 274  :         if (u_bit_count != v_bit_count)

	mov	edx, DWORD PTR _u_bit_count$2[ebp]
	cmp	edx, DWORD PTR _v_bit_count$1[ebp]
	je	SHORT $LN11@PMC_Equals

; 275  :         {
; 276  :             // 明らかに u > v である場合
; 277  :             *w = 0;

	mov	eax, DWORD PTR _w$[ebp]
	mov	DWORD PTR [eax], 0

; 278  :         }

	jmp	SHORT $LN8@PMC_Equals
$LN11@PMC_Equals:

; 279  :         else
; 280  :         {
; 281  :             // u > 0 && v > 0 かつ u のビット長と v のビット長が等しい場合
; 282  :             *w = Equals_X_X(nu->BLOCK, nv->BLOCK, nu->UNIT_WORD_COUNT);

	mov	ecx, DWORD PTR _nu$[ebp]
	mov	edx, DWORD PTR [ecx+12]
	push	edx
	mov	eax, DWORD PTR _nv$[ebp]
	mov	ecx, DWORD PTR [eax+36]
	push	ecx
	mov	edx, DWORD PTR _nu$[ebp]
	mov	eax, DWORD PTR [edx+36]
	push	eax
	call	_Equals_X_X
	add	esp, 12					; 0000000cH
	mov	ecx, DWORD PTR _w$[ebp]
	mov	DWORD PTR [ecx], eax
$LN8@PMC_Equals:

; 283  :         }
; 284  :     }
; 285  :     return (PMC_STATUS_OK);

	xor	eax, eax
$LN1@PMC_Equals:

; 286  : }

	add	esp, 24					; 00000018H
	cmp	ebp, esp
	call	__RTC_CheckEsp
	mov	esp, ebp
	pop	ebp
	ret	12					; 0000000cH
_PMC_Equals_X_X@12 ENDP
_TEXT	ENDS
; Function compile flags: /Odtp /RTCsu
; File z:\sources\lunor\repos\rougemeilland\palmtree.math.core.uint\palmtree.math.core.uint\pmc_equals.c
_TEXT	SEGMENT
_result$ = -4						; size = 4
_u$ = 8							; size = 4
_v$ = 12						; size = 8
_w$ = 20						; size = 4
_PMC_Equals_X_L@16 PROC

; 229  : {

	push	ebp
	mov	ebp, esp
	push	ecx
	mov	DWORD PTR [ebp-4], -858993460		; ccccccccH
	mov	ecx, OFFSET __01E10085_pmc_equals@c
	call	@__CheckForDebuggerJustMyCode@4

; 230  :     if (__UNIT_TYPE_BIT_COUNT * 2 < sizeof(v) * 8)

	xor	eax, eax
	je	SHORT $LN2@PMC_Equals

; 231  :     {
; 232  :         // _UINT64_T が 2 ワードで表現しきれない処理系には対応しない
; 233  :         return (PMC_STATUS_INTERNAL_ERROR);

	mov	eax, -256				; ffffff00H
	jmp	SHORT $LN1@PMC_Equals
$LN2@PMC_Equals:

; 234  :     }
; 235  :     if (u == NULL)

	cmp	DWORD PTR _u$[ebp], 0
	jne	SHORT $LN3@PMC_Equals

; 236  :         return (PMC_STATUS_ARGUMENT_ERROR);

	or	eax, -1
	jmp	SHORT $LN1@PMC_Equals
$LN3@PMC_Equals:

; 237  :     if (w == NULL)

	cmp	DWORD PTR _w$[ebp], 0
	jne	SHORT $LN4@PMC_Equals

; 238  :         return (PMC_STATUS_ARGUMENT_ERROR);

	or	eax, -1
	jmp	SHORT $LN1@PMC_Equals
$LN4@PMC_Equals:

; 239  :     PMC_STATUS_CODE result;
; 240  :     if ((result = CheckNumber((NUMBER_HEADER*)u)) != PMC_STATUS_OK)

	mov	ecx, DWORD PTR _u$[ebp]
	push	ecx
	call	_CheckNumber
	add	esp, 4
	mov	DWORD PTR _result$[ebp], eax
	cmp	DWORD PTR _result$[ebp], 0
	je	SHORT $LN5@PMC_Equals

; 241  :         return (result);

	mov	eax, DWORD PTR _result$[ebp]
	jmp	SHORT $LN1@PMC_Equals
$LN5@PMC_Equals:

; 242  :     if ((result = PMC_Equals_X_L_Imp((NUMBER_HEADER*)u, v, w)) != PMC_STATUS_OK)

	mov	edx, DWORD PTR _w$[ebp]
	push	edx
	mov	eax, DWORD PTR _v$[ebp+4]
	push	eax
	mov	ecx, DWORD PTR _v$[ebp]
	push	ecx
	mov	edx, DWORD PTR _u$[ebp]
	push	edx
	call	_PMC_Equals_X_L_Imp
	add	esp, 16					; 00000010H
	mov	DWORD PTR _result$[ebp], eax
	cmp	DWORD PTR _result$[ebp], 0
	je	SHORT $LN6@PMC_Equals

; 243  :         return (result);

	mov	eax, DWORD PTR _result$[ebp]
	jmp	SHORT $LN1@PMC_Equals
$LN6@PMC_Equals:

; 244  :     return (PMC_STATUS_OK);

	xor	eax, eax
$LN1@PMC_Equals:

; 245  : }

	add	esp, 4
	cmp	ebp, esp
	call	__RTC_CheckEsp
	mov	esp, ebp
	pop	ebp
	ret	16					; 00000010H
_PMC_Equals_X_L@16 ENDP
_TEXT	ENDS
; Function compile flags: /Odtp /RTCsu
; File z:\sources\lunor\repos\rougemeilland\palmtree.math.core.uint\palmtree.math.core.uint\pmc_equals.c
_TEXT	SEGMENT
_result$ = -4						; size = 4
_u$ = 8							; size = 4
_v$ = 12						; size = 4
_w$ = 16						; size = 4
_PMC_Equals_X_I@12 PROC

; 106  : {

	push	ebp
	mov	ebp, esp
	push	ecx
	mov	DWORD PTR [ebp-4], -858993460		; ccccccccH
	mov	ecx, OFFSET __01E10085_pmc_equals@c
	call	@__CheckForDebuggerJustMyCode@4

; 107  :     if (__UNIT_TYPE_BIT_COUNT < sizeof(v) * 8)

	xor	eax, eax
	je	SHORT $LN2@PMC_Equals

; 108  :     {
; 109  :         // _UINT32_T が 1 ワードで表現しきれない処理系には対応しない
; 110  :         return (PMC_STATUS_INTERNAL_ERROR);

	mov	eax, -256				; ffffff00H
	jmp	SHORT $LN1@PMC_Equals
$LN2@PMC_Equals:

; 111  :     }
; 112  :     if (u == NULL)

	cmp	DWORD PTR _u$[ebp], 0
	jne	SHORT $LN3@PMC_Equals

; 113  :         return (PMC_STATUS_ARGUMENT_ERROR);

	or	eax, -1
	jmp	SHORT $LN1@PMC_Equals
$LN3@PMC_Equals:

; 114  :     if (w == NULL)

	cmp	DWORD PTR _w$[ebp], 0
	jne	SHORT $LN4@PMC_Equals

; 115  :         return (PMC_STATUS_ARGUMENT_ERROR);

	or	eax, -1
	jmp	SHORT $LN1@PMC_Equals
$LN4@PMC_Equals:

; 116  :     PMC_STATUS_CODE result;
; 117  :     if ((result = CheckNumber((NUMBER_HEADER*)u)) != PMC_STATUS_OK)

	mov	ecx, DWORD PTR _u$[ebp]
	push	ecx
	call	_CheckNumber
	add	esp, 4
	mov	DWORD PTR _result$[ebp], eax
	cmp	DWORD PTR _result$[ebp], 0
	je	SHORT $LN5@PMC_Equals

; 118  :         return (result);

	mov	eax, DWORD PTR _result$[ebp]
	jmp	SHORT $LN1@PMC_Equals
$LN5@PMC_Equals:

; 119  :     if ((result = PMC_Equals_X_I_Imp((NUMBER_HEADER*)u, v, w)) != PMC_STATUS_OK)

	mov	edx, DWORD PTR _w$[ebp]
	push	edx
	mov	eax, DWORD PTR _v$[ebp]
	push	eax
	mov	ecx, DWORD PTR _u$[ebp]
	push	ecx
	call	_PMC_Equals_X_I_Imp
	add	esp, 12					; 0000000cH
	mov	DWORD PTR _result$[ebp], eax
	cmp	DWORD PTR _result$[ebp], 0
	je	SHORT $LN6@PMC_Equals

; 120  :         return (result);

	mov	eax, DWORD PTR _result$[ebp]
	jmp	SHORT $LN1@PMC_Equals
$LN6@PMC_Equals:

; 121  :     return (PMC_STATUS_OK);

	xor	eax, eax
$LN1@PMC_Equals:

; 122  : }

	add	esp, 4
	cmp	ebp, esp
	call	__RTC_CheckEsp
	mov	esp, ebp
	pop	ebp
	ret	12					; 0000000cH
_PMC_Equals_X_I@12 ENDP
_TEXT	ENDS
; Function compile flags: /Odtp /RTCsu
; File z:\sources\lunor\repos\rougemeilland\palmtree.math.core.uint\palmtree.math.core.uint\pmc_equals.c
_TEXT	SEGMENT
_result$ = -4						; size = 4
_u$ = 8							; size = 8
_v$ = 16						; size = 4
_w$ = 20						; size = 4
_PMC_Equals_L_X@16 PROC

; 210  : {

	push	ebp
	mov	ebp, esp
	push	ecx
	mov	DWORD PTR [ebp-4], -858993460		; ccccccccH
	mov	ecx, OFFSET __01E10085_pmc_equals@c
	call	@__CheckForDebuggerJustMyCode@4

; 211  :     if (__UNIT_TYPE_BIT_COUNT * 2 < sizeof(u) * 8)

	xor	eax, eax
	je	SHORT $LN2@PMC_Equals

; 212  :     {
; 213  :         // _UINT64_T が 2 ワードで表現しきれない処理系には対応しない
; 214  :         return (PMC_STATUS_INTERNAL_ERROR);

	mov	eax, -256				; ffffff00H
	jmp	SHORT $LN1@PMC_Equals
$LN2@PMC_Equals:

; 215  :     }
; 216  :     if (v == NULL)

	cmp	DWORD PTR _v$[ebp], 0
	jne	SHORT $LN3@PMC_Equals

; 217  :         return (PMC_STATUS_ARGUMENT_ERROR);

	or	eax, -1
	jmp	SHORT $LN1@PMC_Equals
$LN3@PMC_Equals:

; 218  :     if (w == NULL)

	cmp	DWORD PTR _w$[ebp], 0
	jne	SHORT $LN4@PMC_Equals

; 219  :         return (PMC_STATUS_ARGUMENT_ERROR);

	or	eax, -1
	jmp	SHORT $LN1@PMC_Equals
$LN4@PMC_Equals:

; 220  :     PMC_STATUS_CODE result;
; 221  :     if ((result = CheckNumber((NUMBER_HEADER*)v)) != PMC_STATUS_OK)

	mov	ecx, DWORD PTR _v$[ebp]
	push	ecx
	call	_CheckNumber
	add	esp, 4
	mov	DWORD PTR _result$[ebp], eax
	cmp	DWORD PTR _result$[ebp], 0
	je	SHORT $LN5@PMC_Equals

; 222  :         return (result);

	mov	eax, DWORD PTR _result$[ebp]
	jmp	SHORT $LN1@PMC_Equals
$LN5@PMC_Equals:

; 223  :     if ((result = PMC_Equals_X_L_Imp((NUMBER_HEADER*)v, u, w)) != PMC_STATUS_OK)

	mov	edx, DWORD PTR _w$[ebp]
	push	edx
	mov	eax, DWORD PTR _u$[ebp+4]
	push	eax
	mov	ecx, DWORD PTR _u$[ebp]
	push	ecx
	mov	edx, DWORD PTR _v$[ebp]
	push	edx
	call	_PMC_Equals_X_L_Imp
	add	esp, 16					; 00000010H
	mov	DWORD PTR _result$[ebp], eax
	cmp	DWORD PTR _result$[ebp], 0
	je	SHORT $LN6@PMC_Equals

; 224  :         return (result);

	mov	eax, DWORD PTR _result$[ebp]
	jmp	SHORT $LN1@PMC_Equals
$LN6@PMC_Equals:

; 225  :     return (PMC_STATUS_OK);

	xor	eax, eax
$LN1@PMC_Equals:

; 226  : }

	add	esp, 4
	cmp	ebp, esp
	call	__RTC_CheckEsp
	mov	esp, ebp
	pop	ebp
	ret	16					; 00000010H
_PMC_Equals_L_X@16 ENDP
_TEXT	ENDS
; Function compile flags: /Odtp /RTCsu
; File z:\sources\lunor\repos\rougemeilland\palmtree.math.core.uint\palmtree.math.core.uint\pmc_equals.c
_TEXT	SEGMENT
_result$ = -4						; size = 4
_u$ = 8							; size = 4
_v$ = 12						; size = 4
_w$ = 16						; size = 4
_PMC_Equals_I_X@12 PROC

; 87   : {

	push	ebp
	mov	ebp, esp
	push	ecx
	mov	DWORD PTR [ebp-4], -858993460		; ccccccccH
	mov	ecx, OFFSET __01E10085_pmc_equals@c
	call	@__CheckForDebuggerJustMyCode@4

; 88   :     if (__UNIT_TYPE_BIT_COUNT < sizeof(u) * 8)

	xor	eax, eax
	je	SHORT $LN2@PMC_Equals

; 89   :     {
; 90   :         // _UINT32_T が 1 ワードで表現しきれない処理系には対応しない
; 91   :         return (PMC_STATUS_INTERNAL_ERROR);

	mov	eax, -256				; ffffff00H
	jmp	SHORT $LN1@PMC_Equals
$LN2@PMC_Equals:

; 92   :     }
; 93   :     if (v == NULL)

	cmp	DWORD PTR _v$[ebp], 0
	jne	SHORT $LN3@PMC_Equals

; 94   :         return (PMC_STATUS_ARGUMENT_ERROR);

	or	eax, -1
	jmp	SHORT $LN1@PMC_Equals
$LN3@PMC_Equals:

; 95   :     if (w == NULL)

	cmp	DWORD PTR _w$[ebp], 0
	jne	SHORT $LN4@PMC_Equals

; 96   :         return (PMC_STATUS_ARGUMENT_ERROR);

	or	eax, -1
	jmp	SHORT $LN1@PMC_Equals
$LN4@PMC_Equals:

; 97   :     PMC_STATUS_CODE result;
; 98   :     if ((result = CheckNumber((NUMBER_HEADER*)v)) != PMC_STATUS_OK)

	mov	ecx, DWORD PTR _v$[ebp]
	push	ecx
	call	_CheckNumber
	add	esp, 4
	mov	DWORD PTR _result$[ebp], eax
	cmp	DWORD PTR _result$[ebp], 0
	je	SHORT $LN5@PMC_Equals

; 99   :         return (result);

	mov	eax, DWORD PTR _result$[ebp]
	jmp	SHORT $LN1@PMC_Equals
$LN5@PMC_Equals:

; 100  :     if ((result = PMC_Equals_X_I_Imp((NUMBER_HEADER*)v, u, w)) != PMC_STATUS_OK)

	mov	edx, DWORD PTR _w$[ebp]
	push	edx
	mov	eax, DWORD PTR _u$[ebp]
	push	eax
	mov	ecx, DWORD PTR _v$[ebp]
	push	ecx
	call	_PMC_Equals_X_I_Imp
	add	esp, 12					; 0000000cH
	mov	DWORD PTR _result$[ebp], eax
	cmp	DWORD PTR _result$[ebp], 0
	je	SHORT $LN6@PMC_Equals

; 101  :         return (result);

	mov	eax, DWORD PTR _result$[ebp]
	jmp	SHORT $LN1@PMC_Equals
$LN6@PMC_Equals:

; 102  :     return (PMC_STATUS_OK);

	xor	eax, eax
$LN1@PMC_Equals:

; 103  : }

	add	esp, 4
	cmp	ebp, esp
	call	__RTC_CheckEsp
	mov	esp, ebp
	pop	ebp
	ret	12					; 0000000cH
_PMC_Equals_I_X@12 ENDP
_TEXT	ENDS
; Function compile flags: /Odtp /RTCsu
; File z:\sources\lunor\repos\rougemeilland\palmtree.math.core.uint\palmtree.math.core.uint\pmc_equals.c
_TEXT	SEGMENT
_feature$ = 8						; size = 4
_Initialize_Equals PROC

; 289  : {

	push	ebp
	mov	ebp, esp
	mov	ecx, OFFSET __01E10085_pmc_equals@c
	call	@__CheckForDebuggerJustMyCode@4

; 290  :     return (PMC_STATUS_OK);

	xor	eax, eax

; 291  : }

	cmp	ebp, esp
	call	__RTC_CheckEsp
	pop	ebp
	ret	0
_Initialize_Equals ENDP
_TEXT	ENDS
END
