; Listing generated by Microsoft (R) Optimizing Compiler Version 19.16.27026.1 

	TITLE	Z:\Sources\Lunor\Repos\rougemeilland\Palmtree.Math.Core.Uint\Palmtree.Math.Core.Uint\pmc_shift.c
	.686P
	.XMM
	include listing.inc
	.model	flat

INCLUDELIB MSVCRTD
INCLUDELIB OLDNAMES

msvcjmc	SEGMENT
__7B7A869E_ctype@h DB 01H
__457DD326_basetsd@h DB 01H
__4384A2D9_corecrt_memcpy_s@h DB 01H
__4E51A221_corecrt_wstring@h DB 01H
__2140C079_string@h DB 01H
__1887E595_winnt@h DB 01H
__9FC7C64B_processthreadsapi@h DB 01H
__FA470AEC_memoryapi@h DB 01H
__F37DAFF1_winerror@h DB 01H
__7A450CCC_winbase@h DB 01H
__B4B40122_winioctl@h DB 01H
__86261D59_stralign@h DB 01H
__BB6D3116_pmc_uint_internal@h DB 01H
__8CA3E54E_pmc_inline_func@h DB 01H
__372CD743_pmc_shift@c DB 01H
msvcjmc	ENDS
PUBLIC	_RightShift_Imp_DIV
PUBLIC	_RightShift_Imp
PUBLIC	_LeftShift_Imp_DIV
PUBLIC	_LeftShift_Imp
PUBLIC	_Initialize_Shift
PUBLIC	_PMC_RightShift_X_I@12
PUBLIC	_PMC_LeftShift_X_I@12
PUBLIC	__JustMyCode_Default
EXTRN	_CheckBlockLight:PROC
EXTRN	_AllocateNumber:PROC
EXTRN	_CommitNumber:PROC
EXTRN	_CheckNumber:PROC
EXTRN	_DuplicateNumber:PROC
EXTRN	@_RTC_CheckStackVars@8:PROC
EXTRN	@__CheckForDebuggerJustMyCode@4:PROC
EXTRN	__RTC_CheckEsp:PROC
EXTRN	__RTC_InitBase:PROC
EXTRN	__RTC_Shutdown:PROC
EXTRN	_number_zero:BYTE
;	COMDAT rtc$TMZ
rtc$TMZ	SEGMENT
__RTC_Shutdown.rtc$TMZ DD FLAT:__RTC_Shutdown
rtc$TMZ	ENDS
;	COMDAT rtc$IMZ
rtc$IMZ	SEGMENT
__RTC_InitBase.rtc$IMZ DD FLAT:__RTC_InitBase
rtc$IMZ	ENDS
; Function compile flags: /Odt
;	COMDAT __JustMyCode_Default
_TEXT	SEGMENT
__JustMyCode_Default PROC				; COMDAT
	push	ebp
	mov	ebp, esp
	pop	ebp
	ret	0
__JustMyCode_Default ENDP
_TEXT	ENDS
; Function compile flags: /Odtp /RTCsu
; File z:\sources\lunor\repos\rougemeilland\palmtree.math.core.uint\palmtree.math.core.uint\pmc_inline_func.h
_TEXT	SEGMENT
_d$ = 8							; size = 4
_count$ = 12						; size = 4
__ZERO_MEMORY_UNIT_DIV PROC

; 120  :     {

	push	ebp
	mov	ebp, esp
	push	edi
	mov	ecx, OFFSET __8CA3E54E_pmc_inline_func@h
	call	@__CheckForDebuggerJustMyCode@4

; 121  : #ifdef _M_IX86
; 122  :         __stosd((unsigned long*)d, 0, (unsigned long)count);

	mov	edi, DWORD PTR _d$[ebp]
	xor	eax, eax
	mov	ecx, DWORD PTR _count$[ebp]
	rep stosd

; 123  : #elif defined(_M_X64)
; 124  : #ifdef _MSC_VER
; 125  :         __stosd((unsigned long*)d, 0, (unsigned long)count);
; 126  : #elif defined(__GNUC__)
; 127  :         __stosq(d, 0, count);
; 128  : #else
; 129  : #error unknown compiler
; 130  : #endif
; 131  : #else
; 132  : #error unknown platform
; 133  : #endif
; 134  :     }

	pop	edi
	cmp	ebp, esp
	call	__RTC_CheckEsp
	pop	ebp
	ret	0
__ZERO_MEMORY_UNIT_DIV ENDP
_TEXT	ENDS
; Function compile flags: /Odtp /RTCsu
; File z:\sources\lunor\repos\rougemeilland\palmtree.math.core.uint\palmtree.math.core.uint\pmc_inline_func.h
_TEXT	SEGMENT
_d$ = 8							; size = 4
_count$ = 12						; size = 4
__ZERO_MEMORY_UNIT PROC

; 109  :     {

	push	ebp
	mov	ebp, esp
	push	edi
	mov	ecx, OFFSET __8CA3E54E_pmc_inline_func@h
	call	@__CheckForDebuggerJustMyCode@4

; 110  : #ifdef _M_IX86
; 111  :         __stosd((unsigned long*)d, 0, (unsigned long)count);

	mov	edi, DWORD PTR _d$[ebp]
	xor	eax, eax
	mov	ecx, DWORD PTR _count$[ebp]
	rep stosd

; 112  : #elif defined(_M_X64)
; 113  :         __stosq(d, 0, count);
; 114  : #else
; 115  : #error unknown platform
; 116  : #endif
; 117  :     }

	pop	edi
	cmp	ebp, esp
	call	__RTC_CheckEsp
	pop	ebp
	ret	0
__ZERO_MEMORY_UNIT ENDP
_TEXT	ENDS
; Function compile flags: /Odtp /RTCsu
; File z:\sources\lunor\repos\rougemeilland\palmtree.math.core.uint\palmtree.math.core.uint\pmc_inline_func.h
_TEXT	SEGMENT
_d$ = 8							; size = 4
_s$ = 12						; size = 4
_count$ = 16						; size = 4
__COPY_MEMORY_UNIT_DIV PROC

; 70   :     {

	push	ebp
	mov	ebp, esp
	push	esi
	push	edi
	mov	ecx, OFFSET __8CA3E54E_pmc_inline_func@h
	call	@__CheckForDebuggerJustMyCode@4

; 71   : #ifdef _M_IX86
; 72   :         __movsd((unsigned long *)d, (unsigned long *)s, (unsigned long)count);

	mov	edi, DWORD PTR _d$[ebp]
	mov	esi, DWORD PTR _s$[ebp]
	mov	ecx, DWORD PTR _count$[ebp]
	rep movsd

; 73   : #elif defined(_M_X64)
; 74   : #ifdef _MSC_VER
; 75   :         __movsd((unsigned long *)d, (unsigned long *)s, (unsigned long)count);
; 76   : #elif defined(__GNUC__)
; 77   :         __movsq(d, s, count);
; 78   : #else
; 79   : #error unknown compiler
; 80   : #endif
; 81   : #else
; 82   : #error unknown platform
; 83   : #endif
; 84   :     }

	pop	edi
	pop	esi
	cmp	ebp, esp
	call	__RTC_CheckEsp
	pop	ebp
	ret	0
__COPY_MEMORY_UNIT_DIV ENDP
_TEXT	ENDS
; Function compile flags: /Odtp /RTCsu
; File z:\sources\lunor\repos\rougemeilland\palmtree.math.core.uint\palmtree.math.core.uint\pmc_inline_func.h
_TEXT	SEGMENT
_d$ = 8							; size = 4
_s$ = 12						; size = 4
_count$ = 16						; size = 4
__COPY_MEMORY_UNIT PROC

; 59   :     {

	push	ebp
	mov	ebp, esp
	push	esi
	push	edi
	mov	ecx, OFFSET __8CA3E54E_pmc_inline_func@h
	call	@__CheckForDebuggerJustMyCode@4

; 60   : #ifdef _M_IX86
; 61   :         __movsd((unsigned long *)d, (unsigned long *)s, (unsigned long)count);

	mov	edi, DWORD PTR _d$[ebp]
	mov	esi, DWORD PTR _s$[ebp]
	mov	ecx, DWORD PTR _count$[ebp]
	rep movsd

; 62   : #elif defined(_M_X64)
; 63   :         __movsq(d, s, count);
; 64   : #else
; 65   : #error unknown platform
; 66   : #endif
; 67   :     }

	pop	edi
	pop	esi
	cmp	ebp, esp
	call	__RTC_CheckEsp
	pop	ebp
	ret	0
__COPY_MEMORY_UNIT ENDP
_TEXT	ENDS
; Function compile flags: /Odtp /RTCsu
; File z:\sources\lunor\repos\rougemeilland\palmtree.math.core.uint\palmtree.math.core.uint\pmc_shift.c
_TEXT	SEGMENT
_no_light_check_code$1 = -36				; size = 4
_o_bit_count$2 = -28					; size = 4
_p_bit_count$3 = -24					; size = 4
_result$ = -20						; size = 4
_no$ = -12						; size = 4
_np$ = -4						; size = 4
_p$ = 8							; size = 4
_n$ = 12						; size = 4
_o$ = 16						; size = 4
_PMC_LeftShift_X_I@12 PROC

; 621  : {

	push	ebp
	mov	ebp, esp
	sub	esp, 40					; 00000028H
	push	edi
	lea	edi, DWORD PTR [ebp-40]
	mov	ecx, 10					; 0000000aH
	mov	eax, -858993460				; ccccccccH
	rep stosd
	mov	ecx, OFFSET __372CD743_pmc_shift@c
	call	@__CheckForDebuggerJustMyCode@4

; 622  :     if (__UNIT_TYPE_BIT_COUNT < sizeof(n) * 8)

	xor	eax, eax
	je	SHORT $LN2@PMC_LeftSh

; 623  :     {
; 624  :         // _UINT32_T が 1 ワードで表現しきれない処理系には対応しない
; 625  :         return (PMC_STATUS_NOT_SUPPORTED);

	mov	eax, -6					; fffffffaH
	jmp	$LN1@PMC_LeftSh
$LN2@PMC_LeftSh:

; 626  :     }
; 627  :     if (p == NULL)

	cmp	DWORD PTR _p$[ebp], 0
	jne	SHORT $LN3@PMC_LeftSh

; 628  :         return (PMC_STATUS_ARGUMENT_ERROR);

	or	eax, -1
	jmp	$LN1@PMC_LeftSh
$LN3@PMC_LeftSh:

; 629  :     if (o == NULL)

	cmp	DWORD PTR _o$[ebp], 0
	jne	SHORT $LN4@PMC_LeftSh

; 630  :         return (PMC_STATUS_ARGUMENT_ERROR);

	or	eax, -1
	jmp	$LN1@PMC_LeftSh
$LN4@PMC_LeftSh:

; 631  :     NUMBER_HEADER* np = (NUMBER_HEADER*)p;

	mov	ecx, DWORD PTR _p$[ebp]
	mov	DWORD PTR _np$[ebp], ecx

; 632  :     NUMBER_HEADER* no;
; 633  :     PMC_STATUS_CODE result;
; 634  :     if ((result = CheckNumber(np)) != PMC_STATUS_OK)

	mov	edx, DWORD PTR _np$[ebp]
	push	edx
	call	_CheckNumber
	add	esp, 4
	mov	DWORD PTR _result$[ebp], eax
	cmp	DWORD PTR _result$[ebp], 0
	je	SHORT $LN5@PMC_LeftSh

; 635  :         return (result);

	mov	eax, DWORD PTR _result$[ebp]
	jmp	$LN1@PMC_LeftSh
$LN5@PMC_LeftSh:

; 636  :     if (np->IS_ZERO)

	mov	eax, DWORD PTR _np$[ebp]
	mov	ecx, DWORD PTR [eax+24]
	shr	ecx, 1
	and	ecx, 1
	je	SHORT $LN6@PMC_LeftSh

; 637  :         *o = (PMC_HANDLE_UINT)&number_zero;

	mov	edx, DWORD PTR _o$[ebp]
	mov	DWORD PTR [edx], OFFSET _number_zero
	jmp	$LN7@PMC_LeftSh
$LN6@PMC_LeftSh:

; 638  :     else if (n == 0)

	cmp	DWORD PTR _n$[ebp], 0
	jne	SHORT $LN8@PMC_LeftSh

; 639  :     {
; 640  :         if ((result = DuplicateNumber(np, &no)) != PMC_STATUS_OK)

	lea	eax, DWORD PTR _no$[ebp]
	push	eax
	mov	ecx, DWORD PTR _np$[ebp]
	push	ecx
	call	_DuplicateNumber
	add	esp, 8
	mov	DWORD PTR _result$[ebp], eax
	cmp	DWORD PTR _result$[ebp], 0
	je	SHORT $LN10@PMC_LeftSh

; 641  :             return (result);

	mov	eax, DWORD PTR _result$[ebp]
	jmp	$LN1@PMC_LeftSh
$LN10@PMC_LeftSh:

; 642  :         *o = (PMC_HANDLE_UINT)no;

	mov	edx, DWORD PTR _o$[ebp]
	mov	eax, DWORD PTR _no$[ebp]
	mov	DWORD PTR [edx], eax

; 643  :     }

	jmp	$LN7@PMC_LeftSh
$LN8@PMC_LeftSh:

; 644  :     else
; 645  :     {
; 646  :         __UNIT_TYPE p_bit_count = np->UNIT_BIT_COUNT;

	mov	ecx, DWORD PTR _np$[ebp]
	mov	edx, DWORD PTR [ecx+12]
	mov	DWORD PTR _p_bit_count$3[ebp], edx

; 647  :         __UNIT_TYPE o_bit_count = p_bit_count + n;

	mov	eax, DWORD PTR _p_bit_count$3[ebp]
	add	eax, DWORD PTR _n$[ebp]
	mov	DWORD PTR _o_bit_count$2[ebp], eax

; 648  :         __UNIT_TYPE no_light_check_code;
; 649  :         if ((result = AllocateNumber(&no, o_bit_count, &no_light_check_code)) != PMC_STATUS_OK)

	lea	ecx, DWORD PTR _no_light_check_code$1[ebp]
	push	ecx
	mov	edx, DWORD PTR _o_bit_count$2[ebp]
	push	edx
	lea	eax, DWORD PTR _no$[ebp]
	push	eax
	call	_AllocateNumber
	add	esp, 12					; 0000000cH
	mov	DWORD PTR _result$[ebp], eax
	cmp	DWORD PTR _result$[ebp], 0
	je	SHORT $LN11@PMC_LeftSh

; 650  :             return (result);

	mov	eax, DWORD PTR _result$[ebp]
	jmp	SHORT $LN1@PMC_LeftSh
$LN11@PMC_LeftSh:

; 651  :         LeftShift_Imp(np->BLOCK, np->UNIT_WORD_COUNT, n, no->BLOCK, FALSE);

	push	0
	mov	ecx, DWORD PTR _no$[ebp]
	mov	edx, DWORD PTR [ecx+32]
	push	edx
	mov	eax, DWORD PTR _n$[ebp]
	push	eax
	mov	ecx, DWORD PTR _np$[ebp]
	mov	edx, DWORD PTR [ecx+8]
	push	edx
	mov	eax, DWORD PTR _np$[ebp]
	mov	ecx, DWORD PTR [eax+32]
	push	ecx
	call	_LeftShift_Imp
	add	esp, 20					; 00000014H

; 652  :         if ((result = CheckBlockLight(no->BLOCK, no_light_check_code)) != PMC_STATUS_OK)

	mov	edx, DWORD PTR _no_light_check_code$1[ebp]
	push	edx
	mov	eax, DWORD PTR _no$[ebp]
	mov	ecx, DWORD PTR [eax+32]
	push	ecx
	call	_CheckBlockLight
	add	esp, 8
	mov	DWORD PTR _result$[ebp], eax
	cmp	DWORD PTR _result$[ebp], 0
	je	SHORT $LN12@PMC_LeftSh

; 653  :             return (result);

	mov	eax, DWORD PTR _result$[ebp]
	jmp	SHORT $LN1@PMC_LeftSh
$LN12@PMC_LeftSh:

; 654  :         CommitNumber(no);

	mov	edx, DWORD PTR _no$[ebp]
	push	edx
	call	_CommitNumber
	add	esp, 4

; 655  :         *o = (PMC_HANDLE_UINT)no;

	mov	eax, DWORD PTR _o$[ebp]
	mov	ecx, DWORD PTR _no$[ebp]
	mov	DWORD PTR [eax], ecx
$LN7@PMC_LeftSh:

; 656  :     }
; 657  : #ifdef _DEBUG
; 658  :     if ((result = CheckNumber((NUMBER_HEADER*)*o)) != PMC_STATUS_OK)

	mov	edx, DWORD PTR _o$[ebp]
	mov	eax, DWORD PTR [edx]
	push	eax
	call	_CheckNumber
	add	esp, 4
	mov	DWORD PTR _result$[ebp], eax
	cmp	DWORD PTR _result$[ebp], 0
	je	SHORT $LN13@PMC_LeftSh

; 659  :         return (result);

	mov	eax, DWORD PTR _result$[ebp]
	jmp	SHORT $LN1@PMC_LeftSh
$LN13@PMC_LeftSh:

; 660  : #endif
; 661  :     return (PMC_STATUS_OK);

	xor	eax, eax
$LN1@PMC_LeftSh:

; 662  : }

	push	edx
	mov	ecx, ebp
	push	eax
	lea	edx, DWORD PTR $LN18@PMC_LeftSh
	call	@_RTC_CheckStackVars@8
	pop	eax
	pop	edx
	pop	edi
	add	esp, 40					; 00000028H
	cmp	ebp, esp
	call	__RTC_CheckEsp
	mov	esp, ebp
	pop	ebp
	ret	12					; 0000000cH
$LN18@PMC_LeftSh:
	DD	2
	DD	$LN17@PMC_LeftSh
$LN17@PMC_LeftSh:
	DD	-12					; fffffff4H
	DD	4
	DD	$LN15@PMC_LeftSh
	DD	-36					; ffffffdcH
	DD	4
	DD	$LN16@PMC_LeftSh
$LN16@PMC_LeftSh:
	DB	110					; 0000006eH
	DB	111					; 0000006fH
	DB	95					; 0000005fH
	DB	108					; 0000006cH
	DB	105					; 00000069H
	DB	103					; 00000067H
	DB	104					; 00000068H
	DB	116					; 00000074H
	DB	95					; 0000005fH
	DB	99					; 00000063H
	DB	104					; 00000068H
	DB	101					; 00000065H
	DB	99					; 00000063H
	DB	107					; 0000006bH
	DB	95					; 0000005fH
	DB	99					; 00000063H
	DB	111					; 0000006fH
	DB	100					; 00000064H
	DB	101					; 00000065H
	DB	0
$LN15@PMC_LeftSh:
	DB	110					; 0000006eH
	DB	111					; 0000006fH
	DB	0
_PMC_LeftShift_X_I@12 ENDP
_TEXT	ENDS
; Function compile flags: /Odtp /RTCsu
; File z:\sources\lunor\repos\rougemeilland\palmtree.math.core.uint\palmtree.math.core.uint\pmc_shift.c
_TEXT	SEGMENT
_no_light_check_code$1 = -36				; size = 4
_o_bit_count$2 = -28					; size = 4
_p_bit_count$3 = -24					; size = 4
_result$ = -20						; size = 4
_no$ = -12						; size = 4
_np$ = -4						; size = 4
_p$ = 8							; size = 4
_n$ = 12						; size = 4
_o$ = 16						; size = 4
_PMC_RightShift_X_I@12 PROC

; 572  : {

	push	ebp
	mov	ebp, esp
	sub	esp, 40					; 00000028H
	push	edi
	lea	edi, DWORD PTR [ebp-40]
	mov	ecx, 10					; 0000000aH
	mov	eax, -858993460				; ccccccccH
	rep stosd
	mov	ecx, OFFSET __372CD743_pmc_shift@c
	call	@__CheckForDebuggerJustMyCode@4

; 573  :     if (__UNIT_TYPE_BIT_COUNT < sizeof(n) * 8)

	xor	eax, eax
	je	SHORT $LN2@PMC_RightS

; 574  :     {
; 575  :         // _UINT32_T が 1 ワードで表現しきれない処理系には対応しない
; 576  :         return (PMC_STATUS_NOT_SUPPORTED);

	mov	eax, -6					; fffffffaH
	jmp	$LN1@PMC_RightS
$LN2@PMC_RightS:

; 577  :     }
; 578  :     if (p == NULL)

	cmp	DWORD PTR _p$[ebp], 0
	jne	SHORT $LN3@PMC_RightS

; 579  :         return (PMC_STATUS_ARGUMENT_ERROR);

	or	eax, -1
	jmp	$LN1@PMC_RightS
$LN3@PMC_RightS:

; 580  :     if (o == NULL)

	cmp	DWORD PTR _o$[ebp], 0
	jne	SHORT $LN4@PMC_RightS

; 581  :         return (PMC_STATUS_ARGUMENT_ERROR);

	or	eax, -1
	jmp	$LN1@PMC_RightS
$LN4@PMC_RightS:

; 582  :     NUMBER_HEADER* np = (NUMBER_HEADER*)p;

	mov	ecx, DWORD PTR _p$[ebp]
	mov	DWORD PTR _np$[ebp], ecx

; 583  :     NUMBER_HEADER* no;
; 584  :     PMC_STATUS_CODE result;
; 585  :     if ((result = CheckNumber(np)) != PMC_STATUS_OK)

	mov	edx, DWORD PTR _np$[ebp]
	push	edx
	call	_CheckNumber
	add	esp, 4
	mov	DWORD PTR _result$[ebp], eax
	cmp	DWORD PTR _result$[ebp], 0
	je	SHORT $LN5@PMC_RightS

; 586  :         return (result);

	mov	eax, DWORD PTR _result$[ebp]
	jmp	$LN1@PMC_RightS
$LN5@PMC_RightS:

; 587  :     if (np->IS_ZERO)

	mov	eax, DWORD PTR _np$[ebp]
	mov	ecx, DWORD PTR [eax+24]
	shr	ecx, 1
	and	ecx, 1
	je	SHORT $LN6@PMC_RightS

; 588  :         *o = (PMC_HANDLE_UINT)&number_zero;

	mov	edx, DWORD PTR _o$[ebp]
	mov	DWORD PTR [edx], OFFSET _number_zero
	jmp	$LN7@PMC_RightS
$LN6@PMC_RightS:

; 589  :     else if (n == 0)

	cmp	DWORD PTR _n$[ebp], 0
	jne	SHORT $LN8@PMC_RightS

; 590  :     {
; 591  :         if ((result = DuplicateNumber(np, &no)) != PMC_STATUS_OK)

	lea	eax, DWORD PTR _no$[ebp]
	push	eax
	mov	ecx, DWORD PTR _np$[ebp]
	push	ecx
	call	_DuplicateNumber
	add	esp, 8
	mov	DWORD PTR _result$[ebp], eax
	cmp	DWORD PTR _result$[ebp], 0
	je	SHORT $LN10@PMC_RightS

; 592  :             return (result);

	mov	eax, DWORD PTR _result$[ebp]
	jmp	$LN1@PMC_RightS
$LN10@PMC_RightS:

; 593  :         *o = (PMC_HANDLE_UINT)no;

	mov	edx, DWORD PTR _o$[ebp]
	mov	eax, DWORD PTR _no$[ebp]
	mov	DWORD PTR [edx], eax

; 594  :     }

	jmp	$LN7@PMC_RightS
$LN8@PMC_RightS:

; 595  :     else
; 596  :     {
; 597  :         __UNIT_TYPE p_bit_count = np->UNIT_BIT_COUNT;

	mov	ecx, DWORD PTR _np$[ebp]
	mov	edx, DWORD PTR [ecx+12]
	mov	DWORD PTR _p_bit_count$3[ebp], edx

; 598  :         if (p_bit_count <= n)

	mov	eax, DWORD PTR _p_bit_count$3[ebp]
	cmp	eax, DWORD PTR _n$[ebp]
	ja	SHORT $LN11@PMC_RightS

; 599  :             *o = (PMC_HANDLE_UINT)&number_zero;

	mov	ecx, DWORD PTR _o$[ebp]
	mov	DWORD PTR [ecx], OFFSET _number_zero
	jmp	$LN7@PMC_RightS
$LN11@PMC_RightS:

; 600  :         else
; 601  :         {
; 602  :             __UNIT_TYPE o_bit_count = p_bit_count - n;

	mov	edx, DWORD PTR _p_bit_count$3[ebp]
	sub	edx, DWORD PTR _n$[ebp]
	mov	DWORD PTR _o_bit_count$2[ebp], edx

; 603  :             __UNIT_TYPE no_light_check_code;
; 604  :             if ((result = AllocateNumber(&no, o_bit_count, &no_light_check_code)) != PMC_STATUS_OK)

	lea	eax, DWORD PTR _no_light_check_code$1[ebp]
	push	eax
	mov	ecx, DWORD PTR _o_bit_count$2[ebp]
	push	ecx
	lea	edx, DWORD PTR _no$[ebp]
	push	edx
	call	_AllocateNumber
	add	esp, 12					; 0000000cH
	mov	DWORD PTR _result$[ebp], eax
	cmp	DWORD PTR _result$[ebp], 0
	je	SHORT $LN13@PMC_RightS

; 605  :                 return (result);

	mov	eax, DWORD PTR _result$[ebp]
	jmp	SHORT $LN1@PMC_RightS
$LN13@PMC_RightS:

; 606  :             RightShift_Imp(np->BLOCK, np->UNIT_WORD_COUNT, n, no->BLOCK, FALSE);

	push	0
	mov	eax, DWORD PTR _no$[ebp]
	mov	ecx, DWORD PTR [eax+32]
	push	ecx
	mov	edx, DWORD PTR _n$[ebp]
	push	edx
	mov	eax, DWORD PTR _np$[ebp]
	mov	ecx, DWORD PTR [eax+8]
	push	ecx
	mov	edx, DWORD PTR _np$[ebp]
	mov	eax, DWORD PTR [edx+32]
	push	eax
	call	_RightShift_Imp
	add	esp, 20					; 00000014H

; 607  :             if ((result = CheckBlockLight(no->BLOCK, no_light_check_code)) != PMC_STATUS_OK)

	mov	ecx, DWORD PTR _no_light_check_code$1[ebp]
	push	ecx
	mov	edx, DWORD PTR _no$[ebp]
	mov	eax, DWORD PTR [edx+32]
	push	eax
	call	_CheckBlockLight
	add	esp, 8
	mov	DWORD PTR _result$[ebp], eax
	cmp	DWORD PTR _result$[ebp], 0
	je	SHORT $LN14@PMC_RightS

; 608  :                 return (result);

	mov	eax, DWORD PTR _result$[ebp]
	jmp	SHORT $LN1@PMC_RightS
$LN14@PMC_RightS:

; 609  :             CommitNumber(no);

	mov	ecx, DWORD PTR _no$[ebp]
	push	ecx
	call	_CommitNumber
	add	esp, 4

; 610  :             *o = (PMC_HANDLE_UINT)no;

	mov	edx, DWORD PTR _o$[ebp]
	mov	eax, DWORD PTR _no$[ebp]
	mov	DWORD PTR [edx], eax
$LN7@PMC_RightS:

; 611  :         }
; 612  :     }
; 613  : #ifdef _DEBUG
; 614  :     if ((result = CheckNumber((NUMBER_HEADER*)*o)) != PMC_STATUS_OK)

	mov	ecx, DWORD PTR _o$[ebp]
	mov	edx, DWORD PTR [ecx]
	push	edx
	call	_CheckNumber
	add	esp, 4
	mov	DWORD PTR _result$[ebp], eax
	cmp	DWORD PTR _result$[ebp], 0
	je	SHORT $LN15@PMC_RightS

; 615  :         return (result);

	mov	eax, DWORD PTR _result$[ebp]
	jmp	SHORT $LN1@PMC_RightS
$LN15@PMC_RightS:

; 616  : #endif
; 617  :     return (PMC_STATUS_OK);

	xor	eax, eax
$LN1@PMC_RightS:

; 618  : }

	push	edx
	mov	ecx, ebp
	push	eax
	lea	edx, DWORD PTR $LN20@PMC_RightS
	call	@_RTC_CheckStackVars@8
	pop	eax
	pop	edx
	pop	edi
	add	esp, 40					; 00000028H
	cmp	ebp, esp
	call	__RTC_CheckEsp
	mov	esp, ebp
	pop	ebp
	ret	12					; 0000000cH
	npad	2
$LN20@PMC_RightS:
	DD	2
	DD	$LN19@PMC_RightS
$LN19@PMC_RightS:
	DD	-12					; fffffff4H
	DD	4
	DD	$LN17@PMC_RightS
	DD	-36					; ffffffdcH
	DD	4
	DD	$LN18@PMC_RightS
$LN18@PMC_RightS:
	DB	110					; 0000006eH
	DB	111					; 0000006fH
	DB	95					; 0000005fH
	DB	108					; 0000006cH
	DB	105					; 00000069H
	DB	103					; 00000067H
	DB	104					; 00000068H
	DB	116					; 00000074H
	DB	95					; 0000005fH
	DB	99					; 00000063H
	DB	104					; 00000068H
	DB	101					; 00000065H
	DB	99					; 00000063H
	DB	107					; 0000006bH
	DB	95					; 0000005fH
	DB	99					; 00000063H
	DB	111					; 0000006fH
	DB	100					; 00000064H
	DB	101					; 00000065H
	DB	0
$LN17@PMC_RightS:
	DB	110					; 0000006eH
	DB	111					; 0000006fH
	DB	0
_PMC_RightShift_X_I@12 ENDP
_TEXT	ENDS
; Function compile flags: /Odtp /RTCsu
; File z:\sources\lunor\repos\rougemeilland\palmtree.math.core.uint\palmtree.math.core.uint\pmc_shift.c
_TEXT	SEGMENT
_feature$ = 8						; size = 4
_Initialize_Shift PROC

; 665  : {

	push	ebp
	mov	ebp, esp
	mov	ecx, OFFSET __372CD743_pmc_shift@c
	call	@__CheckForDebuggerJustMyCode@4

; 666  :     return (PMC_STATUS_OK);

	xor	eax, eax

; 667  : }

	cmp	ebp, esp
	call	__RTC_CheckEsp
	pop	ebp
	ret	0
_Initialize_Shift ENDP
_TEXT	ENDS
; Function compile flags: /Odtp /RTCsu
; File z:\sources\lunor\repos\rougemeilland\palmtree.math.core.uint\palmtree.math.core.uint\pmc_shift.c
_TEXT	SEGMENT
_count$1 = -36						; size = 4
_work$2 = -32						; size = 4
_temp$3 = -28						; size = 4
_n_rshift_bit_count$4 = -24				; size = 4
_n_lshift_bit_count$ = -20				; size = 4
_n_word_count$ = -16					; size = 4
_op$ = -12						; size = 4
_p_count$ = -8						; size = 4
_pp$ = -4						; size = 4
_p$ = 8							; size = 4
_p_word_count$ = 12					; size = 4
_n$ = 16						; size = 4
_o$ = 20						; size = 4
_padding_zero$ = 24					; size = 4
_LeftShift_Imp PROC

; 302  : {

	push	ebp
	mov	ebp, esp
	sub	esp, 36					; 00000024H
	mov	eax, -858993460				; ccccccccH
	mov	DWORD PTR [ebp-36], eax
	mov	DWORD PTR [ebp-32], eax
	mov	DWORD PTR [ebp-28], eax
	mov	DWORD PTR [ebp-24], eax
	mov	DWORD PTR [ebp-20], eax
	mov	DWORD PTR [ebp-16], eax
	mov	DWORD PTR [ebp-12], eax
	mov	DWORD PTR [ebp-8], eax
	mov	DWORD PTR [ebp-4], eax
	mov	ecx, OFFSET __372CD743_pmc_shift@c
	call	@__CheckForDebuggerJustMyCode@4

; 303  :     __UNIT_TYPE* pp = p;

	mov	eax, DWORD PTR _p$[ebp]
	mov	DWORD PTR _pp$[ebp], eax

; 304  :     __UNIT_TYPE p_count = p_word_count;

	mov	ecx, DWORD PTR _p_word_count$[ebp]
	mov	DWORD PTR _p_count$[ebp], ecx

; 305  :     __UNIT_TYPE* op = o;

	mov	edx, DWORD PTR _o$[ebp]
	mov	DWORD PTR _op$[ebp], edx

; 306  :     __UNIT_TYPE n_word_count = n / __UNIT_TYPE_BIT_COUNT;

	mov	eax, DWORD PTR _n$[ebp]
	shr	eax, 5
	mov	DWORD PTR _n_word_count$[ebp], eax

; 307  :     __UNIT_TYPE n_lshift_bit_count = n % __UNIT_TYPE_BIT_COUNT;

	mov	eax, DWORD PTR _n$[ebp]
	xor	edx, edx
	mov	ecx, 32					; 00000020H
	div	ecx
	mov	DWORD PTR _n_lshift_bit_count$[ebp], edx

; 308  :     if (n_lshift_bit_count == 0)

	cmp	DWORD PTR _n_lshift_bit_count$[ebp], 0
	jne	SHORT $LN4@LeftShift_

; 309  :     {
; 310  :         // シフト数がちょうどワード境界分であれば単にワード単位のデータ移動のみ行う。
; 311  :         _COPY_MEMORY_UNIT(op + n_word_count, pp, p_count);

	mov	edx, DWORD PTR _p_count$[ebp]
	push	edx
	mov	eax, DWORD PTR _pp$[ebp]
	push	eax
	mov	ecx, DWORD PTR _n_word_count$[ebp]
	mov	edx, DWORD PTR _op$[ebp]
	lea	eax, DWORD PTR [edx+ecx*4]
	push	eax
	call	__COPY_MEMORY_UNIT
	add	esp, 12					; 0000000cH

; 312  :         if (padding_zero)

	cmp	DWORD PTR _padding_zero$[ebp], 0
	je	SHORT $LN6@LeftShift_

; 313  :             _ZERO_MEMORY_UNIT(op, n_word_count);

	mov	ecx, DWORD PTR _n_word_count$[ebp]
	push	ecx
	mov	edx, DWORD PTR _op$[ebp]
	push	edx
	call	__ZERO_MEMORY_UNIT
	add	esp, 8
$LN6@LeftShift_:

; 314  :     }

	jmp	$LN1@LeftShift_
$LN4@LeftShift_:

; 315  :     else
; 316  :     {
; 317  :         __UNIT_TYPE n_rshift_bit_count = __UNIT_TYPE_BIT_COUNT - n_lshift_bit_count;

	mov	eax, 32					; 00000020H
	sub	eax, DWORD PTR _n_lshift_bit_count$[ebp]
	mov	DWORD PTR _n_rshift_bit_count$4[ebp], eax

; 318  :         pp += p_count - 1;

	mov	ecx, DWORD PTR _p_count$[ebp]
	mov	edx, DWORD PTR _pp$[ebp]
	lea	eax, DWORD PTR [edx+ecx*4-4]
	mov	DWORD PTR _pp$[ebp], eax

; 319  :         op += p_count + n_word_count;

	mov	ecx, DWORD PTR _p_count$[ebp]
	add	ecx, DWORD PTR _n_word_count$[ebp]
	mov	edx, DWORD PTR _op$[ebp]
	lea	eax, DWORD PTR [edx+ecx*4]
	mov	DWORD PTR _op$[ebp], eax

; 320  :         p_count -= 1;

	mov	ecx, DWORD PTR _p_count$[ebp]
	sub	ecx, 1
	mov	DWORD PTR _p_count$[ebp], ecx

; 321  :         __UNIT_TYPE temp = *pp;

	mov	edx, DWORD PTR _pp$[ebp]
	mov	eax, DWORD PTR [edx]
	mov	DWORD PTR _temp$3[ebp], eax

; 322  :         __UNIT_TYPE work = temp >> n_rshift_bit_count;

	mov	edx, DWORD PTR _temp$3[ebp]
	mov	ecx, DWORD PTR _n_rshift_bit_count$4[ebp]
	shr	edx, cl
	mov	DWORD PTR _work$2[ebp], edx

; 323  :         if (work != 0)

	cmp	DWORD PTR _work$2[ebp], 0
	je	SHORT $LN7@LeftShift_

; 324  :             *op = work;

	mov	eax, DWORD PTR _op$[ebp]
	mov	ecx, DWORD PTR _work$2[ebp]
	mov	DWORD PTR [eax], ecx
$LN7@LeftShift_:

; 325  :         --pp;

	mov	edx, DWORD PTR _pp$[ebp]
	sub	edx, 4
	mov	DWORD PTR _pp$[ebp], edx

; 326  :         --op;

	mov	eax, DWORD PTR _op$[ebp]
	sub	eax, 4
	mov	DWORD PTR _op$[ebp], eax

; 327  : 
; 328  :         __UNIT_TYPE count = p_count >> 5;

	mov	ecx, DWORD PTR _p_count$[ebp]
	shr	ecx, 5
	mov	DWORD PTR _count$1[ebp], ecx
$LN2@LeftShift_:

; 329  :         while (count != 0)

	cmp	DWORD PTR _count$1[ebp], 0
	je	$LN3@LeftShift_

; 330  :         {
; 331  :             work = temp << n_lshift_bit_count; temp = pp[-0]; work |= temp >> n_rshift_bit_count; op[-0] = work;

	mov	edx, DWORD PTR _temp$3[ebp]
	mov	ecx, DWORD PTR _n_lshift_bit_count$[ebp]
	shl	edx, cl
	mov	DWORD PTR _work$2[ebp], edx
	mov	eax, 4
	imul	ecx, eax, 0
	mov	edx, DWORD PTR _pp$[ebp]
	mov	eax, DWORD PTR [edx+ecx]
	mov	DWORD PTR _temp$3[ebp], eax
	mov	edx, DWORD PTR _temp$3[ebp]
	mov	ecx, DWORD PTR _n_rshift_bit_count$4[ebp]
	shr	edx, cl
	or	edx, DWORD PTR _work$2[ebp]
	mov	DWORD PTR _work$2[ebp], edx
	mov	eax, 4
	imul	ecx, eax, 0
	mov	edx, DWORD PTR _op$[ebp]
	mov	eax, DWORD PTR _work$2[ebp]
	mov	DWORD PTR [edx+ecx], eax

; 332  :             work = temp << n_lshift_bit_count; temp = pp[-1]; work |= temp >> n_rshift_bit_count; op[-1] = work;

	mov	edx, DWORD PTR _temp$3[ebp]
	mov	ecx, DWORD PTR _n_lshift_bit_count$[ebp]
	shl	edx, cl
	mov	DWORD PTR _work$2[ebp], edx
	mov	eax, 4
	imul	ecx, eax, -1
	mov	edx, DWORD PTR _pp$[ebp]
	mov	eax, DWORD PTR [edx+ecx]
	mov	DWORD PTR _temp$3[ebp], eax
	mov	edx, DWORD PTR _temp$3[ebp]
	mov	ecx, DWORD PTR _n_rshift_bit_count$4[ebp]
	shr	edx, cl
	or	edx, DWORD PTR _work$2[ebp]
	mov	DWORD PTR _work$2[ebp], edx
	mov	eax, 4
	imul	ecx, eax, -1
	mov	edx, DWORD PTR _op$[ebp]
	mov	eax, DWORD PTR _work$2[ebp]
	mov	DWORD PTR [edx+ecx], eax

; 333  :             work = temp << n_lshift_bit_count; temp = pp[-2]; work |= temp >> n_rshift_bit_count; op[-2] = work;

	mov	edx, DWORD PTR _temp$3[ebp]
	mov	ecx, DWORD PTR _n_lshift_bit_count$[ebp]
	shl	edx, cl
	mov	DWORD PTR _work$2[ebp], edx
	mov	eax, 4
	imul	ecx, eax, -2
	mov	edx, DWORD PTR _pp$[ebp]
	mov	eax, DWORD PTR [edx+ecx]
	mov	DWORD PTR _temp$3[ebp], eax
	mov	edx, DWORD PTR _temp$3[ebp]
	mov	ecx, DWORD PTR _n_rshift_bit_count$4[ebp]
	shr	edx, cl
	or	edx, DWORD PTR _work$2[ebp]
	mov	DWORD PTR _work$2[ebp], edx
	mov	eax, 4
	imul	ecx, eax, -2
	mov	edx, DWORD PTR _op$[ebp]
	mov	eax, DWORD PTR _work$2[ebp]
	mov	DWORD PTR [edx+ecx], eax

; 334  :             work = temp << n_lshift_bit_count; temp = pp[-3]; work |= temp >> n_rshift_bit_count; op[-3] = work;

	mov	edx, DWORD PTR _temp$3[ebp]
	mov	ecx, DWORD PTR _n_lshift_bit_count$[ebp]
	shl	edx, cl
	mov	DWORD PTR _work$2[ebp], edx
	mov	eax, 4
	imul	ecx, eax, -3
	mov	edx, DWORD PTR _pp$[ebp]
	mov	eax, DWORD PTR [edx+ecx]
	mov	DWORD PTR _temp$3[ebp], eax
	mov	edx, DWORD PTR _temp$3[ebp]
	mov	ecx, DWORD PTR _n_rshift_bit_count$4[ebp]
	shr	edx, cl
	or	edx, DWORD PTR _work$2[ebp]
	mov	DWORD PTR _work$2[ebp], edx
	mov	eax, 4
	imul	ecx, eax, -3
	mov	edx, DWORD PTR _op$[ebp]
	mov	eax, DWORD PTR _work$2[ebp]
	mov	DWORD PTR [edx+ecx], eax

; 335  :             work = temp << n_lshift_bit_count; temp = pp[-4]; work |= temp >> n_rshift_bit_count; op[-4] = work;

	mov	edx, DWORD PTR _temp$3[ebp]
	mov	ecx, DWORD PTR _n_lshift_bit_count$[ebp]
	shl	edx, cl
	mov	DWORD PTR _work$2[ebp], edx
	mov	eax, 4
	imul	ecx, eax, -4
	mov	edx, DWORD PTR _pp$[ebp]
	mov	eax, DWORD PTR [edx+ecx]
	mov	DWORD PTR _temp$3[ebp], eax
	mov	edx, DWORD PTR _temp$3[ebp]
	mov	ecx, DWORD PTR _n_rshift_bit_count$4[ebp]
	shr	edx, cl
	or	edx, DWORD PTR _work$2[ebp]
	mov	DWORD PTR _work$2[ebp], edx
	mov	eax, 4
	imul	ecx, eax, -4
	mov	edx, DWORD PTR _op$[ebp]
	mov	eax, DWORD PTR _work$2[ebp]
	mov	DWORD PTR [edx+ecx], eax

; 336  :             work = temp << n_lshift_bit_count; temp = pp[-5]; work |= temp >> n_rshift_bit_count; op[-5] = work;

	mov	edx, DWORD PTR _temp$3[ebp]
	mov	ecx, DWORD PTR _n_lshift_bit_count$[ebp]
	shl	edx, cl
	mov	DWORD PTR _work$2[ebp], edx
	mov	eax, 4
	imul	ecx, eax, -5
	mov	edx, DWORD PTR _pp$[ebp]
	mov	eax, DWORD PTR [edx+ecx]
	mov	DWORD PTR _temp$3[ebp], eax
	mov	edx, DWORD PTR _temp$3[ebp]
	mov	ecx, DWORD PTR _n_rshift_bit_count$4[ebp]
	shr	edx, cl
	or	edx, DWORD PTR _work$2[ebp]
	mov	DWORD PTR _work$2[ebp], edx
	mov	eax, 4
	imul	ecx, eax, -5
	mov	edx, DWORD PTR _op$[ebp]
	mov	eax, DWORD PTR _work$2[ebp]
	mov	DWORD PTR [edx+ecx], eax

; 337  :             work = temp << n_lshift_bit_count; temp = pp[-6]; work |= temp >> n_rshift_bit_count; op[-6] = work;

	mov	edx, DWORD PTR _temp$3[ebp]
	mov	ecx, DWORD PTR _n_lshift_bit_count$[ebp]
	shl	edx, cl
	mov	DWORD PTR _work$2[ebp], edx
	mov	eax, 4
	imul	ecx, eax, -6
	mov	edx, DWORD PTR _pp$[ebp]
	mov	eax, DWORD PTR [edx+ecx]
	mov	DWORD PTR _temp$3[ebp], eax
	mov	edx, DWORD PTR _temp$3[ebp]
	mov	ecx, DWORD PTR _n_rshift_bit_count$4[ebp]
	shr	edx, cl
	or	edx, DWORD PTR _work$2[ebp]
	mov	DWORD PTR _work$2[ebp], edx
	mov	eax, 4
	imul	ecx, eax, -6
	mov	edx, DWORD PTR _op$[ebp]
	mov	eax, DWORD PTR _work$2[ebp]
	mov	DWORD PTR [edx+ecx], eax

; 338  :             work = temp << n_lshift_bit_count; temp = pp[-7]; work |= temp >> n_rshift_bit_count; op[-7] = work;

	mov	edx, DWORD PTR _temp$3[ebp]
	mov	ecx, DWORD PTR _n_lshift_bit_count$[ebp]
	shl	edx, cl
	mov	DWORD PTR _work$2[ebp], edx
	mov	eax, 4
	imul	ecx, eax, -7
	mov	edx, DWORD PTR _pp$[ebp]
	mov	eax, DWORD PTR [edx+ecx]
	mov	DWORD PTR _temp$3[ebp], eax
	mov	edx, DWORD PTR _temp$3[ebp]
	mov	ecx, DWORD PTR _n_rshift_bit_count$4[ebp]
	shr	edx, cl
	or	edx, DWORD PTR _work$2[ebp]
	mov	DWORD PTR _work$2[ebp], edx
	mov	eax, 4
	imul	ecx, eax, -7
	mov	edx, DWORD PTR _op$[ebp]
	mov	eax, DWORD PTR _work$2[ebp]
	mov	DWORD PTR [edx+ecx], eax

; 339  :             work = temp << n_lshift_bit_count; temp = pp[-8]; work |= temp >> n_rshift_bit_count; op[-8] = work;

	mov	edx, DWORD PTR _temp$3[ebp]
	mov	ecx, DWORD PTR _n_lshift_bit_count$[ebp]
	shl	edx, cl
	mov	DWORD PTR _work$2[ebp], edx
	mov	eax, 4
	imul	ecx, eax, -8
	mov	edx, DWORD PTR _pp$[ebp]
	mov	eax, DWORD PTR [edx+ecx]
	mov	DWORD PTR _temp$3[ebp], eax
	mov	edx, DWORD PTR _temp$3[ebp]
	mov	ecx, DWORD PTR _n_rshift_bit_count$4[ebp]
	shr	edx, cl
	or	edx, DWORD PTR _work$2[ebp]
	mov	DWORD PTR _work$2[ebp], edx
	mov	eax, 4
	imul	ecx, eax, -8
	mov	edx, DWORD PTR _op$[ebp]
	mov	eax, DWORD PTR _work$2[ebp]
	mov	DWORD PTR [edx+ecx], eax

; 340  :             work = temp << n_lshift_bit_count; temp = pp[-9]; work |= temp >> n_rshift_bit_count; op[-9] = work;

	mov	edx, DWORD PTR _temp$3[ebp]
	mov	ecx, DWORD PTR _n_lshift_bit_count$[ebp]
	shl	edx, cl
	mov	DWORD PTR _work$2[ebp], edx
	mov	eax, 4
	imul	ecx, eax, -9
	mov	edx, DWORD PTR _pp$[ebp]
	mov	eax, DWORD PTR [edx+ecx]
	mov	DWORD PTR _temp$3[ebp], eax
	mov	edx, DWORD PTR _temp$3[ebp]
	mov	ecx, DWORD PTR _n_rshift_bit_count$4[ebp]
	shr	edx, cl
	or	edx, DWORD PTR _work$2[ebp]
	mov	DWORD PTR _work$2[ebp], edx
	mov	eax, 4
	imul	ecx, eax, -9
	mov	edx, DWORD PTR _op$[ebp]
	mov	eax, DWORD PTR _work$2[ebp]
	mov	DWORD PTR [edx+ecx], eax

; 341  :             work = temp << n_lshift_bit_count; temp = pp[-10]; work |= temp >> n_rshift_bit_count; op[-10] = work;

	mov	edx, DWORD PTR _temp$3[ebp]
	mov	ecx, DWORD PTR _n_lshift_bit_count$[ebp]
	shl	edx, cl
	mov	DWORD PTR _work$2[ebp], edx
	mov	eax, 4
	imul	ecx, eax, -10
	mov	edx, DWORD PTR _pp$[ebp]
	mov	eax, DWORD PTR [edx+ecx]
	mov	DWORD PTR _temp$3[ebp], eax
	mov	edx, DWORD PTR _temp$3[ebp]
	mov	ecx, DWORD PTR _n_rshift_bit_count$4[ebp]
	shr	edx, cl
	or	edx, DWORD PTR _work$2[ebp]
	mov	DWORD PTR _work$2[ebp], edx
	mov	eax, 4
	imul	ecx, eax, -10
	mov	edx, DWORD PTR _op$[ebp]
	mov	eax, DWORD PTR _work$2[ebp]
	mov	DWORD PTR [edx+ecx], eax

; 342  :             work = temp << n_lshift_bit_count; temp = pp[-11]; work |= temp >> n_rshift_bit_count; op[-11] = work;

	mov	edx, DWORD PTR _temp$3[ebp]
	mov	ecx, DWORD PTR _n_lshift_bit_count$[ebp]
	shl	edx, cl
	mov	DWORD PTR _work$2[ebp], edx
	mov	eax, 4
	imul	ecx, eax, -11
	mov	edx, DWORD PTR _pp$[ebp]
	mov	eax, DWORD PTR [edx+ecx]
	mov	DWORD PTR _temp$3[ebp], eax
	mov	edx, DWORD PTR _temp$3[ebp]
	mov	ecx, DWORD PTR _n_rshift_bit_count$4[ebp]
	shr	edx, cl
	or	edx, DWORD PTR _work$2[ebp]
	mov	DWORD PTR _work$2[ebp], edx
	mov	eax, 4
	imul	ecx, eax, -11
	mov	edx, DWORD PTR _op$[ebp]
	mov	eax, DWORD PTR _work$2[ebp]
	mov	DWORD PTR [edx+ecx], eax

; 343  :             work = temp << n_lshift_bit_count; temp = pp[-12]; work |= temp >> n_rshift_bit_count; op[-12] = work;

	mov	edx, DWORD PTR _temp$3[ebp]
	mov	ecx, DWORD PTR _n_lshift_bit_count$[ebp]
	shl	edx, cl
	mov	DWORD PTR _work$2[ebp], edx
	mov	eax, 4
	imul	ecx, eax, -12
	mov	edx, DWORD PTR _pp$[ebp]
	mov	eax, DWORD PTR [edx+ecx]
	mov	DWORD PTR _temp$3[ebp], eax
	mov	edx, DWORD PTR _temp$3[ebp]
	mov	ecx, DWORD PTR _n_rshift_bit_count$4[ebp]
	shr	edx, cl
	or	edx, DWORD PTR _work$2[ebp]
	mov	DWORD PTR _work$2[ebp], edx
	mov	eax, 4
	imul	ecx, eax, -12
	mov	edx, DWORD PTR _op$[ebp]
	mov	eax, DWORD PTR _work$2[ebp]
	mov	DWORD PTR [edx+ecx], eax

; 344  :             work = temp << n_lshift_bit_count; temp = pp[-13]; work |= temp >> n_rshift_bit_count; op[-13] = work;

	mov	edx, DWORD PTR _temp$3[ebp]
	mov	ecx, DWORD PTR _n_lshift_bit_count$[ebp]
	shl	edx, cl
	mov	DWORD PTR _work$2[ebp], edx
	mov	eax, 4
	imul	ecx, eax, -13
	mov	edx, DWORD PTR _pp$[ebp]
	mov	eax, DWORD PTR [edx+ecx]
	mov	DWORD PTR _temp$3[ebp], eax
	mov	edx, DWORD PTR _temp$3[ebp]
	mov	ecx, DWORD PTR _n_rshift_bit_count$4[ebp]
	shr	edx, cl
	or	edx, DWORD PTR _work$2[ebp]
	mov	DWORD PTR _work$2[ebp], edx
	mov	eax, 4
	imul	ecx, eax, -13
	mov	edx, DWORD PTR _op$[ebp]
	mov	eax, DWORD PTR _work$2[ebp]
	mov	DWORD PTR [edx+ecx], eax

; 345  :             work = temp << n_lshift_bit_count; temp = pp[-14]; work |= temp >> n_rshift_bit_count; op[-14] = work;

	mov	edx, DWORD PTR _temp$3[ebp]
	mov	ecx, DWORD PTR _n_lshift_bit_count$[ebp]
	shl	edx, cl
	mov	DWORD PTR _work$2[ebp], edx
	mov	eax, 4
	imul	ecx, eax, -14
	mov	edx, DWORD PTR _pp$[ebp]
	mov	eax, DWORD PTR [edx+ecx]
	mov	DWORD PTR _temp$3[ebp], eax
	mov	edx, DWORD PTR _temp$3[ebp]
	mov	ecx, DWORD PTR _n_rshift_bit_count$4[ebp]
	shr	edx, cl
	or	edx, DWORD PTR _work$2[ebp]
	mov	DWORD PTR _work$2[ebp], edx
	mov	eax, 4
	imul	ecx, eax, -14
	mov	edx, DWORD PTR _op$[ebp]
	mov	eax, DWORD PTR _work$2[ebp]
	mov	DWORD PTR [edx+ecx], eax

; 346  :             work = temp << n_lshift_bit_count; temp = pp[-15]; work |= temp >> n_rshift_bit_count; op[-15] = work;

	mov	edx, DWORD PTR _temp$3[ebp]
	mov	ecx, DWORD PTR _n_lshift_bit_count$[ebp]
	shl	edx, cl
	mov	DWORD PTR _work$2[ebp], edx
	mov	eax, 4
	imul	ecx, eax, -15
	mov	edx, DWORD PTR _pp$[ebp]
	mov	eax, DWORD PTR [edx+ecx]
	mov	DWORD PTR _temp$3[ebp], eax
	mov	edx, DWORD PTR _temp$3[ebp]
	mov	ecx, DWORD PTR _n_rshift_bit_count$4[ebp]
	shr	edx, cl
	or	edx, DWORD PTR _work$2[ebp]
	mov	DWORD PTR _work$2[ebp], edx
	mov	eax, 4
	imul	ecx, eax, -15
	mov	edx, DWORD PTR _op$[ebp]
	mov	eax, DWORD PTR _work$2[ebp]
	mov	DWORD PTR [edx+ecx], eax

; 347  :             work = temp << n_lshift_bit_count; temp = pp[-16]; work |= temp >> n_rshift_bit_count; op[-16] = work;

	mov	edx, DWORD PTR _temp$3[ebp]
	mov	ecx, DWORD PTR _n_lshift_bit_count$[ebp]
	shl	edx, cl
	mov	DWORD PTR _work$2[ebp], edx
	mov	eax, 4
	imul	ecx, eax, -16
	mov	edx, DWORD PTR _pp$[ebp]
	mov	eax, DWORD PTR [edx+ecx]
	mov	DWORD PTR _temp$3[ebp], eax
	mov	edx, DWORD PTR _temp$3[ebp]
	mov	ecx, DWORD PTR _n_rshift_bit_count$4[ebp]
	shr	edx, cl
	or	edx, DWORD PTR _work$2[ebp]
	mov	DWORD PTR _work$2[ebp], edx
	mov	eax, 4
	imul	ecx, eax, -16
	mov	edx, DWORD PTR _op$[ebp]
	mov	eax, DWORD PTR _work$2[ebp]
	mov	DWORD PTR [edx+ecx], eax

; 348  :             work = temp << n_lshift_bit_count; temp = pp[-17]; work |= temp >> n_rshift_bit_count; op[-17] = work;

	mov	edx, DWORD PTR _temp$3[ebp]
	mov	ecx, DWORD PTR _n_lshift_bit_count$[ebp]
	shl	edx, cl
	mov	DWORD PTR _work$2[ebp], edx
	mov	eax, 4
	imul	ecx, eax, -17
	mov	edx, DWORD PTR _pp$[ebp]
	mov	eax, DWORD PTR [edx+ecx]
	mov	DWORD PTR _temp$3[ebp], eax
	mov	edx, DWORD PTR _temp$3[ebp]
	mov	ecx, DWORD PTR _n_rshift_bit_count$4[ebp]
	shr	edx, cl
	or	edx, DWORD PTR _work$2[ebp]
	mov	DWORD PTR _work$2[ebp], edx
	mov	eax, 4
	imul	ecx, eax, -17
	mov	edx, DWORD PTR _op$[ebp]
	mov	eax, DWORD PTR _work$2[ebp]
	mov	DWORD PTR [edx+ecx], eax

; 349  :             work = temp << n_lshift_bit_count; temp = pp[-18]; work |= temp >> n_rshift_bit_count; op[-18] = work;

	mov	edx, DWORD PTR _temp$3[ebp]
	mov	ecx, DWORD PTR _n_lshift_bit_count$[ebp]
	shl	edx, cl
	mov	DWORD PTR _work$2[ebp], edx
	mov	eax, 4
	imul	ecx, eax, -18
	mov	edx, DWORD PTR _pp$[ebp]
	mov	eax, DWORD PTR [edx+ecx]
	mov	DWORD PTR _temp$3[ebp], eax
	mov	edx, DWORD PTR _temp$3[ebp]
	mov	ecx, DWORD PTR _n_rshift_bit_count$4[ebp]
	shr	edx, cl
	or	edx, DWORD PTR _work$2[ebp]
	mov	DWORD PTR _work$2[ebp], edx
	mov	eax, 4
	imul	ecx, eax, -18
	mov	edx, DWORD PTR _op$[ebp]
	mov	eax, DWORD PTR _work$2[ebp]
	mov	DWORD PTR [edx+ecx], eax

; 350  :             work = temp << n_lshift_bit_count; temp = pp[-19]; work |= temp >> n_rshift_bit_count; op[-19] = work;

	mov	edx, DWORD PTR _temp$3[ebp]
	mov	ecx, DWORD PTR _n_lshift_bit_count$[ebp]
	shl	edx, cl
	mov	DWORD PTR _work$2[ebp], edx
	mov	eax, 4
	imul	ecx, eax, -19
	mov	edx, DWORD PTR _pp$[ebp]
	mov	eax, DWORD PTR [edx+ecx]
	mov	DWORD PTR _temp$3[ebp], eax
	mov	edx, DWORD PTR _temp$3[ebp]
	mov	ecx, DWORD PTR _n_rshift_bit_count$4[ebp]
	shr	edx, cl
	or	edx, DWORD PTR _work$2[ebp]
	mov	DWORD PTR _work$2[ebp], edx
	mov	eax, 4
	imul	ecx, eax, -19
	mov	edx, DWORD PTR _op$[ebp]
	mov	eax, DWORD PTR _work$2[ebp]
	mov	DWORD PTR [edx+ecx], eax

; 351  :             work = temp << n_lshift_bit_count; temp = pp[-20]; work |= temp >> n_rshift_bit_count; op[-20] = work;

	mov	edx, DWORD PTR _temp$3[ebp]
	mov	ecx, DWORD PTR _n_lshift_bit_count$[ebp]
	shl	edx, cl
	mov	DWORD PTR _work$2[ebp], edx
	mov	eax, 4
	imul	ecx, eax, -20
	mov	edx, DWORD PTR _pp$[ebp]
	mov	eax, DWORD PTR [edx+ecx]
	mov	DWORD PTR _temp$3[ebp], eax
	mov	edx, DWORD PTR _temp$3[ebp]
	mov	ecx, DWORD PTR _n_rshift_bit_count$4[ebp]
	shr	edx, cl
	or	edx, DWORD PTR _work$2[ebp]
	mov	DWORD PTR _work$2[ebp], edx
	mov	eax, 4
	imul	ecx, eax, -20
	mov	edx, DWORD PTR _op$[ebp]
	mov	eax, DWORD PTR _work$2[ebp]
	mov	DWORD PTR [edx+ecx], eax

; 352  :             work = temp << n_lshift_bit_count; temp = pp[-21]; work |= temp >> n_rshift_bit_count; op[-21] = work;

	mov	edx, DWORD PTR _temp$3[ebp]
	mov	ecx, DWORD PTR _n_lshift_bit_count$[ebp]
	shl	edx, cl
	mov	DWORD PTR _work$2[ebp], edx
	mov	eax, 4
	imul	ecx, eax, -21
	mov	edx, DWORD PTR _pp$[ebp]
	mov	eax, DWORD PTR [edx+ecx]
	mov	DWORD PTR _temp$3[ebp], eax
	mov	edx, DWORD PTR _temp$3[ebp]
	mov	ecx, DWORD PTR _n_rshift_bit_count$4[ebp]
	shr	edx, cl
	or	edx, DWORD PTR _work$2[ebp]
	mov	DWORD PTR _work$2[ebp], edx
	mov	eax, 4
	imul	ecx, eax, -21
	mov	edx, DWORD PTR _op$[ebp]
	mov	eax, DWORD PTR _work$2[ebp]
	mov	DWORD PTR [edx+ecx], eax

; 353  :             work = temp << n_lshift_bit_count; temp = pp[-22]; work |= temp >> n_rshift_bit_count; op[-22] = work;

	mov	edx, DWORD PTR _temp$3[ebp]
	mov	ecx, DWORD PTR _n_lshift_bit_count$[ebp]
	shl	edx, cl
	mov	DWORD PTR _work$2[ebp], edx
	mov	eax, 4
	imul	ecx, eax, -22
	mov	edx, DWORD PTR _pp$[ebp]
	mov	eax, DWORD PTR [edx+ecx]
	mov	DWORD PTR _temp$3[ebp], eax
	mov	edx, DWORD PTR _temp$3[ebp]
	mov	ecx, DWORD PTR _n_rshift_bit_count$4[ebp]
	shr	edx, cl
	or	edx, DWORD PTR _work$2[ebp]
	mov	DWORD PTR _work$2[ebp], edx
	mov	eax, 4
	imul	ecx, eax, -22
	mov	edx, DWORD PTR _op$[ebp]
	mov	eax, DWORD PTR _work$2[ebp]
	mov	DWORD PTR [edx+ecx], eax

; 354  :             work = temp << n_lshift_bit_count; temp = pp[-23]; work |= temp >> n_rshift_bit_count; op[-23] = work;

	mov	edx, DWORD PTR _temp$3[ebp]
	mov	ecx, DWORD PTR _n_lshift_bit_count$[ebp]
	shl	edx, cl
	mov	DWORD PTR _work$2[ebp], edx
	mov	eax, 4
	imul	ecx, eax, -23
	mov	edx, DWORD PTR _pp$[ebp]
	mov	eax, DWORD PTR [edx+ecx]
	mov	DWORD PTR _temp$3[ebp], eax
	mov	edx, DWORD PTR _temp$3[ebp]
	mov	ecx, DWORD PTR _n_rshift_bit_count$4[ebp]
	shr	edx, cl
	or	edx, DWORD PTR _work$2[ebp]
	mov	DWORD PTR _work$2[ebp], edx
	mov	eax, 4
	imul	ecx, eax, -23
	mov	edx, DWORD PTR _op$[ebp]
	mov	eax, DWORD PTR _work$2[ebp]
	mov	DWORD PTR [edx+ecx], eax

; 355  :             work = temp << n_lshift_bit_count; temp = pp[-24]; work |= temp >> n_rshift_bit_count; op[-24] = work;

	mov	edx, DWORD PTR _temp$3[ebp]
	mov	ecx, DWORD PTR _n_lshift_bit_count$[ebp]
	shl	edx, cl
	mov	DWORD PTR _work$2[ebp], edx
	mov	eax, 4
	imul	ecx, eax, -24
	mov	edx, DWORD PTR _pp$[ebp]
	mov	eax, DWORD PTR [edx+ecx]
	mov	DWORD PTR _temp$3[ebp], eax
	mov	edx, DWORD PTR _temp$3[ebp]
	mov	ecx, DWORD PTR _n_rshift_bit_count$4[ebp]
	shr	edx, cl
	or	edx, DWORD PTR _work$2[ebp]
	mov	DWORD PTR _work$2[ebp], edx
	mov	eax, 4
	imul	ecx, eax, -24
	mov	edx, DWORD PTR _op$[ebp]
	mov	eax, DWORD PTR _work$2[ebp]
	mov	DWORD PTR [edx+ecx], eax

; 356  :             work = temp << n_lshift_bit_count; temp = pp[-25]; work |= temp >> n_rshift_bit_count; op[-25] = work;

	mov	edx, DWORD PTR _temp$3[ebp]
	mov	ecx, DWORD PTR _n_lshift_bit_count$[ebp]
	shl	edx, cl
	mov	DWORD PTR _work$2[ebp], edx
	mov	eax, 4
	imul	ecx, eax, -25
	mov	edx, DWORD PTR _pp$[ebp]
	mov	eax, DWORD PTR [edx+ecx]
	mov	DWORD PTR _temp$3[ebp], eax
	mov	edx, DWORD PTR _temp$3[ebp]
	mov	ecx, DWORD PTR _n_rshift_bit_count$4[ebp]
	shr	edx, cl
	or	edx, DWORD PTR _work$2[ebp]
	mov	DWORD PTR _work$2[ebp], edx
	mov	eax, 4
	imul	ecx, eax, -25
	mov	edx, DWORD PTR _op$[ebp]
	mov	eax, DWORD PTR _work$2[ebp]
	mov	DWORD PTR [edx+ecx], eax

; 357  :             work = temp << n_lshift_bit_count; temp = pp[-26]; work |= temp >> n_rshift_bit_count; op[-26] = work;

	mov	edx, DWORD PTR _temp$3[ebp]
	mov	ecx, DWORD PTR _n_lshift_bit_count$[ebp]
	shl	edx, cl
	mov	DWORD PTR _work$2[ebp], edx
	mov	eax, 4
	imul	ecx, eax, -26
	mov	edx, DWORD PTR _pp$[ebp]
	mov	eax, DWORD PTR [edx+ecx]
	mov	DWORD PTR _temp$3[ebp], eax
	mov	edx, DWORD PTR _temp$3[ebp]
	mov	ecx, DWORD PTR _n_rshift_bit_count$4[ebp]
	shr	edx, cl
	or	edx, DWORD PTR _work$2[ebp]
	mov	DWORD PTR _work$2[ebp], edx
	mov	eax, 4
	imul	ecx, eax, -26
	mov	edx, DWORD PTR _op$[ebp]
	mov	eax, DWORD PTR _work$2[ebp]
	mov	DWORD PTR [edx+ecx], eax

; 358  :             work = temp << n_lshift_bit_count; temp = pp[-27]; work |= temp >> n_rshift_bit_count; op[-27] = work;

	mov	edx, DWORD PTR _temp$3[ebp]
	mov	ecx, DWORD PTR _n_lshift_bit_count$[ebp]
	shl	edx, cl
	mov	DWORD PTR _work$2[ebp], edx
	mov	eax, 4
	imul	ecx, eax, -27
	mov	edx, DWORD PTR _pp$[ebp]
	mov	eax, DWORD PTR [edx+ecx]
	mov	DWORD PTR _temp$3[ebp], eax
	mov	edx, DWORD PTR _temp$3[ebp]
	mov	ecx, DWORD PTR _n_rshift_bit_count$4[ebp]
	shr	edx, cl
	or	edx, DWORD PTR _work$2[ebp]
	mov	DWORD PTR _work$2[ebp], edx
	mov	eax, 4
	imul	ecx, eax, -27
	mov	edx, DWORD PTR _op$[ebp]
	mov	eax, DWORD PTR _work$2[ebp]
	mov	DWORD PTR [edx+ecx], eax

; 359  :             work = temp << n_lshift_bit_count; temp = pp[-28]; work |= temp >> n_rshift_bit_count; op[-28] = work;

	mov	edx, DWORD PTR _temp$3[ebp]
	mov	ecx, DWORD PTR _n_lshift_bit_count$[ebp]
	shl	edx, cl
	mov	DWORD PTR _work$2[ebp], edx
	mov	eax, 4
	imul	ecx, eax, -28
	mov	edx, DWORD PTR _pp$[ebp]
	mov	eax, DWORD PTR [edx+ecx]
	mov	DWORD PTR _temp$3[ebp], eax
	mov	edx, DWORD PTR _temp$3[ebp]
	mov	ecx, DWORD PTR _n_rshift_bit_count$4[ebp]
	shr	edx, cl
	or	edx, DWORD PTR _work$2[ebp]
	mov	DWORD PTR _work$2[ebp], edx
	mov	eax, 4
	imul	ecx, eax, -28
	mov	edx, DWORD PTR _op$[ebp]
	mov	eax, DWORD PTR _work$2[ebp]
	mov	DWORD PTR [edx+ecx], eax

; 360  :             work = temp << n_lshift_bit_count; temp = pp[-29]; work |= temp >> n_rshift_bit_count; op[-29] = work;

	mov	edx, DWORD PTR _temp$3[ebp]
	mov	ecx, DWORD PTR _n_lshift_bit_count$[ebp]
	shl	edx, cl
	mov	DWORD PTR _work$2[ebp], edx
	mov	eax, 4
	imul	ecx, eax, -29
	mov	edx, DWORD PTR _pp$[ebp]
	mov	eax, DWORD PTR [edx+ecx]
	mov	DWORD PTR _temp$3[ebp], eax
	mov	edx, DWORD PTR _temp$3[ebp]
	mov	ecx, DWORD PTR _n_rshift_bit_count$4[ebp]
	shr	edx, cl
	or	edx, DWORD PTR _work$2[ebp]
	mov	DWORD PTR _work$2[ebp], edx
	mov	eax, 4
	imul	ecx, eax, -29
	mov	edx, DWORD PTR _op$[ebp]
	mov	eax, DWORD PTR _work$2[ebp]
	mov	DWORD PTR [edx+ecx], eax

; 361  :             work = temp << n_lshift_bit_count; temp = pp[-30]; work |= temp >> n_rshift_bit_count; op[-30] = work;

	mov	edx, DWORD PTR _temp$3[ebp]
	mov	ecx, DWORD PTR _n_lshift_bit_count$[ebp]
	shl	edx, cl
	mov	DWORD PTR _work$2[ebp], edx
	mov	eax, 4
	imul	ecx, eax, -30
	mov	edx, DWORD PTR _pp$[ebp]
	mov	eax, DWORD PTR [edx+ecx]
	mov	DWORD PTR _temp$3[ebp], eax
	mov	edx, DWORD PTR _temp$3[ebp]
	mov	ecx, DWORD PTR _n_rshift_bit_count$4[ebp]
	shr	edx, cl
	or	edx, DWORD PTR _work$2[ebp]
	mov	DWORD PTR _work$2[ebp], edx
	mov	eax, 4
	imul	ecx, eax, -30
	mov	edx, DWORD PTR _op$[ebp]
	mov	eax, DWORD PTR _work$2[ebp]
	mov	DWORD PTR [edx+ecx], eax

; 362  :             work = temp << n_lshift_bit_count; temp = pp[-31]; work |= temp >> n_rshift_bit_count; op[-31] = work;

	mov	edx, DWORD PTR _temp$3[ebp]
	mov	ecx, DWORD PTR _n_lshift_bit_count$[ebp]
	shl	edx, cl
	mov	DWORD PTR _work$2[ebp], edx
	mov	eax, 4
	imul	ecx, eax, -31
	mov	edx, DWORD PTR _pp$[ebp]
	mov	eax, DWORD PTR [edx+ecx]
	mov	DWORD PTR _temp$3[ebp], eax
	mov	edx, DWORD PTR _temp$3[ebp]
	mov	ecx, DWORD PTR _n_rshift_bit_count$4[ebp]
	shr	edx, cl
	or	edx, DWORD PTR _work$2[ebp]
	mov	DWORD PTR _work$2[ebp], edx
	mov	eax, 4
	imul	ecx, eax, -31
	mov	edx, DWORD PTR _op$[ebp]
	mov	eax, DWORD PTR _work$2[ebp]
	mov	DWORD PTR [edx+ecx], eax

; 363  :             pp -= 32;

	mov	ecx, DWORD PTR _pp$[ebp]
	sub	ecx, 128				; 00000080H
	mov	DWORD PTR _pp$[ebp], ecx

; 364  :             op -= 32;

	mov	edx, DWORD PTR _op$[ebp]
	sub	edx, 128				; 00000080H
	mov	DWORD PTR _op$[ebp], edx

; 365  :             --count;

	mov	eax, DWORD PTR _count$1[ebp]
	sub	eax, 1
	mov	DWORD PTR _count$1[ebp], eax

; 366  :         }

	jmp	$LN2@LeftShift_
$LN3@LeftShift_:

; 367  : 
; 368  :         if (p_count & 0x10)

	mov	ecx, DWORD PTR _p_count$[ebp]
	and	ecx, 16					; 00000010H
	je	$LN8@LeftShift_

; 369  :         {
; 370  :             work = temp << n_lshift_bit_count; temp = pp[-0]; work |= temp >> n_rshift_bit_count; op[-0] = work;

	mov	edx, DWORD PTR _temp$3[ebp]
	mov	ecx, DWORD PTR _n_lshift_bit_count$[ebp]
	shl	edx, cl
	mov	DWORD PTR _work$2[ebp], edx
	mov	eax, 4
	imul	ecx, eax, 0
	mov	edx, DWORD PTR _pp$[ebp]
	mov	eax, DWORD PTR [edx+ecx]
	mov	DWORD PTR _temp$3[ebp], eax
	mov	edx, DWORD PTR _temp$3[ebp]
	mov	ecx, DWORD PTR _n_rshift_bit_count$4[ebp]
	shr	edx, cl
	or	edx, DWORD PTR _work$2[ebp]
	mov	DWORD PTR _work$2[ebp], edx
	mov	eax, 4
	imul	ecx, eax, 0
	mov	edx, DWORD PTR _op$[ebp]
	mov	eax, DWORD PTR _work$2[ebp]
	mov	DWORD PTR [edx+ecx], eax

; 371  :             work = temp << n_lshift_bit_count; temp = pp[-1]; work |= temp >> n_rshift_bit_count; op[-1] = work;

	mov	edx, DWORD PTR _temp$3[ebp]
	mov	ecx, DWORD PTR _n_lshift_bit_count$[ebp]
	shl	edx, cl
	mov	DWORD PTR _work$2[ebp], edx
	mov	eax, 4
	imul	ecx, eax, -1
	mov	edx, DWORD PTR _pp$[ebp]
	mov	eax, DWORD PTR [edx+ecx]
	mov	DWORD PTR _temp$3[ebp], eax
	mov	edx, DWORD PTR _temp$3[ebp]
	mov	ecx, DWORD PTR _n_rshift_bit_count$4[ebp]
	shr	edx, cl
	or	edx, DWORD PTR _work$2[ebp]
	mov	DWORD PTR _work$2[ebp], edx
	mov	eax, 4
	imul	ecx, eax, -1
	mov	edx, DWORD PTR _op$[ebp]
	mov	eax, DWORD PTR _work$2[ebp]
	mov	DWORD PTR [edx+ecx], eax

; 372  :             work = temp << n_lshift_bit_count; temp = pp[-2]; work |= temp >> n_rshift_bit_count; op[-2] = work;

	mov	edx, DWORD PTR _temp$3[ebp]
	mov	ecx, DWORD PTR _n_lshift_bit_count$[ebp]
	shl	edx, cl
	mov	DWORD PTR _work$2[ebp], edx
	mov	eax, 4
	imul	ecx, eax, -2
	mov	edx, DWORD PTR _pp$[ebp]
	mov	eax, DWORD PTR [edx+ecx]
	mov	DWORD PTR _temp$3[ebp], eax
	mov	edx, DWORD PTR _temp$3[ebp]
	mov	ecx, DWORD PTR _n_rshift_bit_count$4[ebp]
	shr	edx, cl
	or	edx, DWORD PTR _work$2[ebp]
	mov	DWORD PTR _work$2[ebp], edx
	mov	eax, 4
	imul	ecx, eax, -2
	mov	edx, DWORD PTR _op$[ebp]
	mov	eax, DWORD PTR _work$2[ebp]
	mov	DWORD PTR [edx+ecx], eax

; 373  :             work = temp << n_lshift_bit_count; temp = pp[-3]; work |= temp >> n_rshift_bit_count; op[-3] = work;

	mov	edx, DWORD PTR _temp$3[ebp]
	mov	ecx, DWORD PTR _n_lshift_bit_count$[ebp]
	shl	edx, cl
	mov	DWORD PTR _work$2[ebp], edx
	mov	eax, 4
	imul	ecx, eax, -3
	mov	edx, DWORD PTR _pp$[ebp]
	mov	eax, DWORD PTR [edx+ecx]
	mov	DWORD PTR _temp$3[ebp], eax
	mov	edx, DWORD PTR _temp$3[ebp]
	mov	ecx, DWORD PTR _n_rshift_bit_count$4[ebp]
	shr	edx, cl
	or	edx, DWORD PTR _work$2[ebp]
	mov	DWORD PTR _work$2[ebp], edx
	mov	eax, 4
	imul	ecx, eax, -3
	mov	edx, DWORD PTR _op$[ebp]
	mov	eax, DWORD PTR _work$2[ebp]
	mov	DWORD PTR [edx+ecx], eax

; 374  :             work = temp << n_lshift_bit_count; temp = pp[-4]; work |= temp >> n_rshift_bit_count; op[-4] = work;

	mov	edx, DWORD PTR _temp$3[ebp]
	mov	ecx, DWORD PTR _n_lshift_bit_count$[ebp]
	shl	edx, cl
	mov	DWORD PTR _work$2[ebp], edx
	mov	eax, 4
	imul	ecx, eax, -4
	mov	edx, DWORD PTR _pp$[ebp]
	mov	eax, DWORD PTR [edx+ecx]
	mov	DWORD PTR _temp$3[ebp], eax
	mov	edx, DWORD PTR _temp$3[ebp]
	mov	ecx, DWORD PTR _n_rshift_bit_count$4[ebp]
	shr	edx, cl
	or	edx, DWORD PTR _work$2[ebp]
	mov	DWORD PTR _work$2[ebp], edx
	mov	eax, 4
	imul	ecx, eax, -4
	mov	edx, DWORD PTR _op$[ebp]
	mov	eax, DWORD PTR _work$2[ebp]
	mov	DWORD PTR [edx+ecx], eax

; 375  :             work = temp << n_lshift_bit_count; temp = pp[-5]; work |= temp >> n_rshift_bit_count; op[-5] = work;

	mov	edx, DWORD PTR _temp$3[ebp]
	mov	ecx, DWORD PTR _n_lshift_bit_count$[ebp]
	shl	edx, cl
	mov	DWORD PTR _work$2[ebp], edx
	mov	eax, 4
	imul	ecx, eax, -5
	mov	edx, DWORD PTR _pp$[ebp]
	mov	eax, DWORD PTR [edx+ecx]
	mov	DWORD PTR _temp$3[ebp], eax
	mov	edx, DWORD PTR _temp$3[ebp]
	mov	ecx, DWORD PTR _n_rshift_bit_count$4[ebp]
	shr	edx, cl
	or	edx, DWORD PTR _work$2[ebp]
	mov	DWORD PTR _work$2[ebp], edx
	mov	eax, 4
	imul	ecx, eax, -5
	mov	edx, DWORD PTR _op$[ebp]
	mov	eax, DWORD PTR _work$2[ebp]
	mov	DWORD PTR [edx+ecx], eax

; 376  :             work = temp << n_lshift_bit_count; temp = pp[-6]; work |= temp >> n_rshift_bit_count; op[-6] = work;

	mov	edx, DWORD PTR _temp$3[ebp]
	mov	ecx, DWORD PTR _n_lshift_bit_count$[ebp]
	shl	edx, cl
	mov	DWORD PTR _work$2[ebp], edx
	mov	eax, 4
	imul	ecx, eax, -6
	mov	edx, DWORD PTR _pp$[ebp]
	mov	eax, DWORD PTR [edx+ecx]
	mov	DWORD PTR _temp$3[ebp], eax
	mov	edx, DWORD PTR _temp$3[ebp]
	mov	ecx, DWORD PTR _n_rshift_bit_count$4[ebp]
	shr	edx, cl
	or	edx, DWORD PTR _work$2[ebp]
	mov	DWORD PTR _work$2[ebp], edx
	mov	eax, 4
	imul	ecx, eax, -6
	mov	edx, DWORD PTR _op$[ebp]
	mov	eax, DWORD PTR _work$2[ebp]
	mov	DWORD PTR [edx+ecx], eax

; 377  :             work = temp << n_lshift_bit_count; temp = pp[-7]; work |= temp >> n_rshift_bit_count; op[-7] = work;

	mov	edx, DWORD PTR _temp$3[ebp]
	mov	ecx, DWORD PTR _n_lshift_bit_count$[ebp]
	shl	edx, cl
	mov	DWORD PTR _work$2[ebp], edx
	mov	eax, 4
	imul	ecx, eax, -7
	mov	edx, DWORD PTR _pp$[ebp]
	mov	eax, DWORD PTR [edx+ecx]
	mov	DWORD PTR _temp$3[ebp], eax
	mov	edx, DWORD PTR _temp$3[ebp]
	mov	ecx, DWORD PTR _n_rshift_bit_count$4[ebp]
	shr	edx, cl
	or	edx, DWORD PTR _work$2[ebp]
	mov	DWORD PTR _work$2[ebp], edx
	mov	eax, 4
	imul	ecx, eax, -7
	mov	edx, DWORD PTR _op$[ebp]
	mov	eax, DWORD PTR _work$2[ebp]
	mov	DWORD PTR [edx+ecx], eax

; 378  :             work = temp << n_lshift_bit_count; temp = pp[-8]; work |= temp >> n_rshift_bit_count; op[-8] = work;

	mov	edx, DWORD PTR _temp$3[ebp]
	mov	ecx, DWORD PTR _n_lshift_bit_count$[ebp]
	shl	edx, cl
	mov	DWORD PTR _work$2[ebp], edx
	mov	eax, 4
	imul	ecx, eax, -8
	mov	edx, DWORD PTR _pp$[ebp]
	mov	eax, DWORD PTR [edx+ecx]
	mov	DWORD PTR _temp$3[ebp], eax
	mov	edx, DWORD PTR _temp$3[ebp]
	mov	ecx, DWORD PTR _n_rshift_bit_count$4[ebp]
	shr	edx, cl
	or	edx, DWORD PTR _work$2[ebp]
	mov	DWORD PTR _work$2[ebp], edx
	mov	eax, 4
	imul	ecx, eax, -8
	mov	edx, DWORD PTR _op$[ebp]
	mov	eax, DWORD PTR _work$2[ebp]
	mov	DWORD PTR [edx+ecx], eax

; 379  :             work = temp << n_lshift_bit_count; temp = pp[-9]; work |= temp >> n_rshift_bit_count; op[-9] = work;

	mov	edx, DWORD PTR _temp$3[ebp]
	mov	ecx, DWORD PTR _n_lshift_bit_count$[ebp]
	shl	edx, cl
	mov	DWORD PTR _work$2[ebp], edx
	mov	eax, 4
	imul	ecx, eax, -9
	mov	edx, DWORD PTR _pp$[ebp]
	mov	eax, DWORD PTR [edx+ecx]
	mov	DWORD PTR _temp$3[ebp], eax
	mov	edx, DWORD PTR _temp$3[ebp]
	mov	ecx, DWORD PTR _n_rshift_bit_count$4[ebp]
	shr	edx, cl
	or	edx, DWORD PTR _work$2[ebp]
	mov	DWORD PTR _work$2[ebp], edx
	mov	eax, 4
	imul	ecx, eax, -9
	mov	edx, DWORD PTR _op$[ebp]
	mov	eax, DWORD PTR _work$2[ebp]
	mov	DWORD PTR [edx+ecx], eax

; 380  :             work = temp << n_lshift_bit_count; temp = pp[-10]; work |= temp >> n_rshift_bit_count; op[-10] = work;

	mov	edx, DWORD PTR _temp$3[ebp]
	mov	ecx, DWORD PTR _n_lshift_bit_count$[ebp]
	shl	edx, cl
	mov	DWORD PTR _work$2[ebp], edx
	mov	eax, 4
	imul	ecx, eax, -10
	mov	edx, DWORD PTR _pp$[ebp]
	mov	eax, DWORD PTR [edx+ecx]
	mov	DWORD PTR _temp$3[ebp], eax
	mov	edx, DWORD PTR _temp$3[ebp]
	mov	ecx, DWORD PTR _n_rshift_bit_count$4[ebp]
	shr	edx, cl
	or	edx, DWORD PTR _work$2[ebp]
	mov	DWORD PTR _work$2[ebp], edx
	mov	eax, 4
	imul	ecx, eax, -10
	mov	edx, DWORD PTR _op$[ebp]
	mov	eax, DWORD PTR _work$2[ebp]
	mov	DWORD PTR [edx+ecx], eax

; 381  :             work = temp << n_lshift_bit_count; temp = pp[-11]; work |= temp >> n_rshift_bit_count; op[-11] = work;

	mov	edx, DWORD PTR _temp$3[ebp]
	mov	ecx, DWORD PTR _n_lshift_bit_count$[ebp]
	shl	edx, cl
	mov	DWORD PTR _work$2[ebp], edx
	mov	eax, 4
	imul	ecx, eax, -11
	mov	edx, DWORD PTR _pp$[ebp]
	mov	eax, DWORD PTR [edx+ecx]
	mov	DWORD PTR _temp$3[ebp], eax
	mov	edx, DWORD PTR _temp$3[ebp]
	mov	ecx, DWORD PTR _n_rshift_bit_count$4[ebp]
	shr	edx, cl
	or	edx, DWORD PTR _work$2[ebp]
	mov	DWORD PTR _work$2[ebp], edx
	mov	eax, 4
	imul	ecx, eax, -11
	mov	edx, DWORD PTR _op$[ebp]
	mov	eax, DWORD PTR _work$2[ebp]
	mov	DWORD PTR [edx+ecx], eax

; 382  :             work = temp << n_lshift_bit_count; temp = pp[-12]; work |= temp >> n_rshift_bit_count; op[-12] = work;

	mov	edx, DWORD PTR _temp$3[ebp]
	mov	ecx, DWORD PTR _n_lshift_bit_count$[ebp]
	shl	edx, cl
	mov	DWORD PTR _work$2[ebp], edx
	mov	eax, 4
	imul	ecx, eax, -12
	mov	edx, DWORD PTR _pp$[ebp]
	mov	eax, DWORD PTR [edx+ecx]
	mov	DWORD PTR _temp$3[ebp], eax
	mov	edx, DWORD PTR _temp$3[ebp]
	mov	ecx, DWORD PTR _n_rshift_bit_count$4[ebp]
	shr	edx, cl
	or	edx, DWORD PTR _work$2[ebp]
	mov	DWORD PTR _work$2[ebp], edx
	mov	eax, 4
	imul	ecx, eax, -12
	mov	edx, DWORD PTR _op$[ebp]
	mov	eax, DWORD PTR _work$2[ebp]
	mov	DWORD PTR [edx+ecx], eax

; 383  :             work = temp << n_lshift_bit_count; temp = pp[-13]; work |= temp >> n_rshift_bit_count; op[-13] = work;

	mov	edx, DWORD PTR _temp$3[ebp]
	mov	ecx, DWORD PTR _n_lshift_bit_count$[ebp]
	shl	edx, cl
	mov	DWORD PTR _work$2[ebp], edx
	mov	eax, 4
	imul	ecx, eax, -13
	mov	edx, DWORD PTR _pp$[ebp]
	mov	eax, DWORD PTR [edx+ecx]
	mov	DWORD PTR _temp$3[ebp], eax
	mov	edx, DWORD PTR _temp$3[ebp]
	mov	ecx, DWORD PTR _n_rshift_bit_count$4[ebp]
	shr	edx, cl
	or	edx, DWORD PTR _work$2[ebp]
	mov	DWORD PTR _work$2[ebp], edx
	mov	eax, 4
	imul	ecx, eax, -13
	mov	edx, DWORD PTR _op$[ebp]
	mov	eax, DWORD PTR _work$2[ebp]
	mov	DWORD PTR [edx+ecx], eax

; 384  :             work = temp << n_lshift_bit_count; temp = pp[-14]; work |= temp >> n_rshift_bit_count; op[-14] = work;

	mov	edx, DWORD PTR _temp$3[ebp]
	mov	ecx, DWORD PTR _n_lshift_bit_count$[ebp]
	shl	edx, cl
	mov	DWORD PTR _work$2[ebp], edx
	mov	eax, 4
	imul	ecx, eax, -14
	mov	edx, DWORD PTR _pp$[ebp]
	mov	eax, DWORD PTR [edx+ecx]
	mov	DWORD PTR _temp$3[ebp], eax
	mov	edx, DWORD PTR _temp$3[ebp]
	mov	ecx, DWORD PTR _n_rshift_bit_count$4[ebp]
	shr	edx, cl
	or	edx, DWORD PTR _work$2[ebp]
	mov	DWORD PTR _work$2[ebp], edx
	mov	eax, 4
	imul	ecx, eax, -14
	mov	edx, DWORD PTR _op$[ebp]
	mov	eax, DWORD PTR _work$2[ebp]
	mov	DWORD PTR [edx+ecx], eax

; 385  :             work = temp << n_lshift_bit_count; temp = pp[-15]; work |= temp >> n_rshift_bit_count; op[-15] = work;

	mov	edx, DWORD PTR _temp$3[ebp]
	mov	ecx, DWORD PTR _n_lshift_bit_count$[ebp]
	shl	edx, cl
	mov	DWORD PTR _work$2[ebp], edx
	mov	eax, 4
	imul	ecx, eax, -15
	mov	edx, DWORD PTR _pp$[ebp]
	mov	eax, DWORD PTR [edx+ecx]
	mov	DWORD PTR _temp$3[ebp], eax
	mov	edx, DWORD PTR _temp$3[ebp]
	mov	ecx, DWORD PTR _n_rshift_bit_count$4[ebp]
	shr	edx, cl
	or	edx, DWORD PTR _work$2[ebp]
	mov	DWORD PTR _work$2[ebp], edx
	mov	eax, 4
	imul	ecx, eax, -15
	mov	edx, DWORD PTR _op$[ebp]
	mov	eax, DWORD PTR _work$2[ebp]
	mov	DWORD PTR [edx+ecx], eax

; 386  :             pp -= 16;

	mov	ecx, DWORD PTR _pp$[ebp]
	sub	ecx, 64					; 00000040H
	mov	DWORD PTR _pp$[ebp], ecx

; 387  :             op -= 16;

	mov	edx, DWORD PTR _op$[ebp]
	sub	edx, 64					; 00000040H
	mov	DWORD PTR _op$[ebp], edx
$LN8@LeftShift_:

; 388  :         }
; 389  : 
; 390  :         if (p_count & 0x8)

	mov	eax, DWORD PTR _p_count$[ebp]
	and	eax, 8
	je	$LN9@LeftShift_

; 391  :         {
; 392  :             work = temp << n_lshift_bit_count; temp = pp[-0]; work |= temp >> n_rshift_bit_count; op[-0] = work;

	mov	edx, DWORD PTR _temp$3[ebp]
	mov	ecx, DWORD PTR _n_lshift_bit_count$[ebp]
	shl	edx, cl
	mov	DWORD PTR _work$2[ebp], edx
	mov	eax, 4
	imul	ecx, eax, 0
	mov	edx, DWORD PTR _pp$[ebp]
	mov	eax, DWORD PTR [edx+ecx]
	mov	DWORD PTR _temp$3[ebp], eax
	mov	edx, DWORD PTR _temp$3[ebp]
	mov	ecx, DWORD PTR _n_rshift_bit_count$4[ebp]
	shr	edx, cl
	or	edx, DWORD PTR _work$2[ebp]
	mov	DWORD PTR _work$2[ebp], edx
	mov	eax, 4
	imul	ecx, eax, 0
	mov	edx, DWORD PTR _op$[ebp]
	mov	eax, DWORD PTR _work$2[ebp]
	mov	DWORD PTR [edx+ecx], eax

; 393  :             work = temp << n_lshift_bit_count; temp = pp[-1]; work |= temp >> n_rshift_bit_count; op[-1] = work;

	mov	edx, DWORD PTR _temp$3[ebp]
	mov	ecx, DWORD PTR _n_lshift_bit_count$[ebp]
	shl	edx, cl
	mov	DWORD PTR _work$2[ebp], edx
	mov	eax, 4
	imul	ecx, eax, -1
	mov	edx, DWORD PTR _pp$[ebp]
	mov	eax, DWORD PTR [edx+ecx]
	mov	DWORD PTR _temp$3[ebp], eax
	mov	edx, DWORD PTR _temp$3[ebp]
	mov	ecx, DWORD PTR _n_rshift_bit_count$4[ebp]
	shr	edx, cl
	or	edx, DWORD PTR _work$2[ebp]
	mov	DWORD PTR _work$2[ebp], edx
	mov	eax, 4
	imul	ecx, eax, -1
	mov	edx, DWORD PTR _op$[ebp]
	mov	eax, DWORD PTR _work$2[ebp]
	mov	DWORD PTR [edx+ecx], eax

; 394  :             work = temp << n_lshift_bit_count; temp = pp[-2]; work |= temp >> n_rshift_bit_count; op[-2] = work;

	mov	edx, DWORD PTR _temp$3[ebp]
	mov	ecx, DWORD PTR _n_lshift_bit_count$[ebp]
	shl	edx, cl
	mov	DWORD PTR _work$2[ebp], edx
	mov	eax, 4
	imul	ecx, eax, -2
	mov	edx, DWORD PTR _pp$[ebp]
	mov	eax, DWORD PTR [edx+ecx]
	mov	DWORD PTR _temp$3[ebp], eax
	mov	edx, DWORD PTR _temp$3[ebp]
	mov	ecx, DWORD PTR _n_rshift_bit_count$4[ebp]
	shr	edx, cl
	or	edx, DWORD PTR _work$2[ebp]
	mov	DWORD PTR _work$2[ebp], edx
	mov	eax, 4
	imul	ecx, eax, -2
	mov	edx, DWORD PTR _op$[ebp]
	mov	eax, DWORD PTR _work$2[ebp]
	mov	DWORD PTR [edx+ecx], eax

; 395  :             work = temp << n_lshift_bit_count; temp = pp[-3]; work |= temp >> n_rshift_bit_count; op[-3] = work;

	mov	edx, DWORD PTR _temp$3[ebp]
	mov	ecx, DWORD PTR _n_lshift_bit_count$[ebp]
	shl	edx, cl
	mov	DWORD PTR _work$2[ebp], edx
	mov	eax, 4
	imul	ecx, eax, -3
	mov	edx, DWORD PTR _pp$[ebp]
	mov	eax, DWORD PTR [edx+ecx]
	mov	DWORD PTR _temp$3[ebp], eax
	mov	edx, DWORD PTR _temp$3[ebp]
	mov	ecx, DWORD PTR _n_rshift_bit_count$4[ebp]
	shr	edx, cl
	or	edx, DWORD PTR _work$2[ebp]
	mov	DWORD PTR _work$2[ebp], edx
	mov	eax, 4
	imul	ecx, eax, -3
	mov	edx, DWORD PTR _op$[ebp]
	mov	eax, DWORD PTR _work$2[ebp]
	mov	DWORD PTR [edx+ecx], eax

; 396  :             work = temp << n_lshift_bit_count; temp = pp[-4]; work |= temp >> n_rshift_bit_count; op[-4] = work;

	mov	edx, DWORD PTR _temp$3[ebp]
	mov	ecx, DWORD PTR _n_lshift_bit_count$[ebp]
	shl	edx, cl
	mov	DWORD PTR _work$2[ebp], edx
	mov	eax, 4
	imul	ecx, eax, -4
	mov	edx, DWORD PTR _pp$[ebp]
	mov	eax, DWORD PTR [edx+ecx]
	mov	DWORD PTR _temp$3[ebp], eax
	mov	edx, DWORD PTR _temp$3[ebp]
	mov	ecx, DWORD PTR _n_rshift_bit_count$4[ebp]
	shr	edx, cl
	or	edx, DWORD PTR _work$2[ebp]
	mov	DWORD PTR _work$2[ebp], edx
	mov	eax, 4
	imul	ecx, eax, -4
	mov	edx, DWORD PTR _op$[ebp]
	mov	eax, DWORD PTR _work$2[ebp]
	mov	DWORD PTR [edx+ecx], eax

; 397  :             work = temp << n_lshift_bit_count; temp = pp[-5]; work |= temp >> n_rshift_bit_count; op[-5] = work;

	mov	edx, DWORD PTR _temp$3[ebp]
	mov	ecx, DWORD PTR _n_lshift_bit_count$[ebp]
	shl	edx, cl
	mov	DWORD PTR _work$2[ebp], edx
	mov	eax, 4
	imul	ecx, eax, -5
	mov	edx, DWORD PTR _pp$[ebp]
	mov	eax, DWORD PTR [edx+ecx]
	mov	DWORD PTR _temp$3[ebp], eax
	mov	edx, DWORD PTR _temp$3[ebp]
	mov	ecx, DWORD PTR _n_rshift_bit_count$4[ebp]
	shr	edx, cl
	or	edx, DWORD PTR _work$2[ebp]
	mov	DWORD PTR _work$2[ebp], edx
	mov	eax, 4
	imul	ecx, eax, -5
	mov	edx, DWORD PTR _op$[ebp]
	mov	eax, DWORD PTR _work$2[ebp]
	mov	DWORD PTR [edx+ecx], eax

; 398  :             work = temp << n_lshift_bit_count; temp = pp[-6]; work |= temp >> n_rshift_bit_count; op[-6] = work;

	mov	edx, DWORD PTR _temp$3[ebp]
	mov	ecx, DWORD PTR _n_lshift_bit_count$[ebp]
	shl	edx, cl
	mov	DWORD PTR _work$2[ebp], edx
	mov	eax, 4
	imul	ecx, eax, -6
	mov	edx, DWORD PTR _pp$[ebp]
	mov	eax, DWORD PTR [edx+ecx]
	mov	DWORD PTR _temp$3[ebp], eax
	mov	edx, DWORD PTR _temp$3[ebp]
	mov	ecx, DWORD PTR _n_rshift_bit_count$4[ebp]
	shr	edx, cl
	or	edx, DWORD PTR _work$2[ebp]
	mov	DWORD PTR _work$2[ebp], edx
	mov	eax, 4
	imul	ecx, eax, -6
	mov	edx, DWORD PTR _op$[ebp]
	mov	eax, DWORD PTR _work$2[ebp]
	mov	DWORD PTR [edx+ecx], eax

; 399  :             work = temp << n_lshift_bit_count; temp = pp[-7]; work |= temp >> n_rshift_bit_count; op[-7] = work;

	mov	edx, DWORD PTR _temp$3[ebp]
	mov	ecx, DWORD PTR _n_lshift_bit_count$[ebp]
	shl	edx, cl
	mov	DWORD PTR _work$2[ebp], edx
	mov	eax, 4
	imul	ecx, eax, -7
	mov	edx, DWORD PTR _pp$[ebp]
	mov	eax, DWORD PTR [edx+ecx]
	mov	DWORD PTR _temp$3[ebp], eax
	mov	edx, DWORD PTR _temp$3[ebp]
	mov	ecx, DWORD PTR _n_rshift_bit_count$4[ebp]
	shr	edx, cl
	or	edx, DWORD PTR _work$2[ebp]
	mov	DWORD PTR _work$2[ebp], edx
	mov	eax, 4
	imul	ecx, eax, -7
	mov	edx, DWORD PTR _op$[ebp]
	mov	eax, DWORD PTR _work$2[ebp]
	mov	DWORD PTR [edx+ecx], eax

; 400  :             pp -= 8;

	mov	ecx, DWORD PTR _pp$[ebp]
	sub	ecx, 32					; 00000020H
	mov	DWORD PTR _pp$[ebp], ecx

; 401  :             op -= 8;

	mov	edx, DWORD PTR _op$[ebp]
	sub	edx, 32					; 00000020H
	mov	DWORD PTR _op$[ebp], edx
$LN9@LeftShift_:

; 402  :         }
; 403  : 
; 404  :         if (p_count & 0x4)

	mov	eax, DWORD PTR _p_count$[ebp]
	and	eax, 4
	je	$LN10@LeftShift_

; 405  :         {
; 406  :             work = temp << n_lshift_bit_count; temp = pp[-0]; work |= temp >> n_rshift_bit_count; op[-0] = work;

	mov	edx, DWORD PTR _temp$3[ebp]
	mov	ecx, DWORD PTR _n_lshift_bit_count$[ebp]
	shl	edx, cl
	mov	DWORD PTR _work$2[ebp], edx
	mov	eax, 4
	imul	ecx, eax, 0
	mov	edx, DWORD PTR _pp$[ebp]
	mov	eax, DWORD PTR [edx+ecx]
	mov	DWORD PTR _temp$3[ebp], eax
	mov	edx, DWORD PTR _temp$3[ebp]
	mov	ecx, DWORD PTR _n_rshift_bit_count$4[ebp]
	shr	edx, cl
	or	edx, DWORD PTR _work$2[ebp]
	mov	DWORD PTR _work$2[ebp], edx
	mov	eax, 4
	imul	ecx, eax, 0
	mov	edx, DWORD PTR _op$[ebp]
	mov	eax, DWORD PTR _work$2[ebp]
	mov	DWORD PTR [edx+ecx], eax

; 407  :             work = temp << n_lshift_bit_count; temp = pp[-1]; work |= temp >> n_rshift_bit_count; op[-1] = work;

	mov	edx, DWORD PTR _temp$3[ebp]
	mov	ecx, DWORD PTR _n_lshift_bit_count$[ebp]
	shl	edx, cl
	mov	DWORD PTR _work$2[ebp], edx
	mov	eax, 4
	imul	ecx, eax, -1
	mov	edx, DWORD PTR _pp$[ebp]
	mov	eax, DWORD PTR [edx+ecx]
	mov	DWORD PTR _temp$3[ebp], eax
	mov	edx, DWORD PTR _temp$3[ebp]
	mov	ecx, DWORD PTR _n_rshift_bit_count$4[ebp]
	shr	edx, cl
	or	edx, DWORD PTR _work$2[ebp]
	mov	DWORD PTR _work$2[ebp], edx
	mov	eax, 4
	imul	ecx, eax, -1
	mov	edx, DWORD PTR _op$[ebp]
	mov	eax, DWORD PTR _work$2[ebp]
	mov	DWORD PTR [edx+ecx], eax

; 408  :             work = temp << n_lshift_bit_count; temp = pp[-2]; work |= temp >> n_rshift_bit_count; op[-2] = work;

	mov	edx, DWORD PTR _temp$3[ebp]
	mov	ecx, DWORD PTR _n_lshift_bit_count$[ebp]
	shl	edx, cl
	mov	DWORD PTR _work$2[ebp], edx
	mov	eax, 4
	imul	ecx, eax, -2
	mov	edx, DWORD PTR _pp$[ebp]
	mov	eax, DWORD PTR [edx+ecx]
	mov	DWORD PTR _temp$3[ebp], eax
	mov	edx, DWORD PTR _temp$3[ebp]
	mov	ecx, DWORD PTR _n_rshift_bit_count$4[ebp]
	shr	edx, cl
	or	edx, DWORD PTR _work$2[ebp]
	mov	DWORD PTR _work$2[ebp], edx
	mov	eax, 4
	imul	ecx, eax, -2
	mov	edx, DWORD PTR _op$[ebp]
	mov	eax, DWORD PTR _work$2[ebp]
	mov	DWORD PTR [edx+ecx], eax

; 409  :             work = temp << n_lshift_bit_count; temp = pp[-3]; work |= temp >> n_rshift_bit_count; op[-3] = work;

	mov	edx, DWORD PTR _temp$3[ebp]
	mov	ecx, DWORD PTR _n_lshift_bit_count$[ebp]
	shl	edx, cl
	mov	DWORD PTR _work$2[ebp], edx
	mov	eax, 4
	imul	ecx, eax, -3
	mov	edx, DWORD PTR _pp$[ebp]
	mov	eax, DWORD PTR [edx+ecx]
	mov	DWORD PTR _temp$3[ebp], eax
	mov	edx, DWORD PTR _temp$3[ebp]
	mov	ecx, DWORD PTR _n_rshift_bit_count$4[ebp]
	shr	edx, cl
	or	edx, DWORD PTR _work$2[ebp]
	mov	DWORD PTR _work$2[ebp], edx
	mov	eax, 4
	imul	ecx, eax, -3
	mov	edx, DWORD PTR _op$[ebp]
	mov	eax, DWORD PTR _work$2[ebp]
	mov	DWORD PTR [edx+ecx], eax

; 410  :             pp -= 4;

	mov	ecx, DWORD PTR _pp$[ebp]
	sub	ecx, 16					; 00000010H
	mov	DWORD PTR _pp$[ebp], ecx

; 411  :             op -= 4;

	mov	edx, DWORD PTR _op$[ebp]
	sub	edx, 16					; 00000010H
	mov	DWORD PTR _op$[ebp], edx
$LN10@LeftShift_:

; 412  :         }
; 413  : 
; 414  :         if (p_count & 0x2)

	mov	eax, DWORD PTR _p_count$[ebp]
	and	eax, 2
	je	$LN11@LeftShift_

; 415  :         {
; 416  :             work = temp << n_lshift_bit_count; temp = pp[-0]; work |= temp >> n_rshift_bit_count; op[-0] = work;

	mov	edx, DWORD PTR _temp$3[ebp]
	mov	ecx, DWORD PTR _n_lshift_bit_count$[ebp]
	shl	edx, cl
	mov	DWORD PTR _work$2[ebp], edx
	mov	eax, 4
	imul	ecx, eax, 0
	mov	edx, DWORD PTR _pp$[ebp]
	mov	eax, DWORD PTR [edx+ecx]
	mov	DWORD PTR _temp$3[ebp], eax
	mov	edx, DWORD PTR _temp$3[ebp]
	mov	ecx, DWORD PTR _n_rshift_bit_count$4[ebp]
	shr	edx, cl
	or	edx, DWORD PTR _work$2[ebp]
	mov	DWORD PTR _work$2[ebp], edx
	mov	eax, 4
	imul	ecx, eax, 0
	mov	edx, DWORD PTR _op$[ebp]
	mov	eax, DWORD PTR _work$2[ebp]
	mov	DWORD PTR [edx+ecx], eax

; 417  :             work = temp << n_lshift_bit_count; temp = pp[-1]; work |= temp >> n_rshift_bit_count; op[-1] = work;

	mov	edx, DWORD PTR _temp$3[ebp]
	mov	ecx, DWORD PTR _n_lshift_bit_count$[ebp]
	shl	edx, cl
	mov	DWORD PTR _work$2[ebp], edx
	mov	eax, 4
	imul	ecx, eax, -1
	mov	edx, DWORD PTR _pp$[ebp]
	mov	eax, DWORD PTR [edx+ecx]
	mov	DWORD PTR _temp$3[ebp], eax
	mov	edx, DWORD PTR _temp$3[ebp]
	mov	ecx, DWORD PTR _n_rshift_bit_count$4[ebp]
	shr	edx, cl
	or	edx, DWORD PTR _work$2[ebp]
	mov	DWORD PTR _work$2[ebp], edx
	mov	eax, 4
	imul	ecx, eax, -1
	mov	edx, DWORD PTR _op$[ebp]
	mov	eax, DWORD PTR _work$2[ebp]
	mov	DWORD PTR [edx+ecx], eax

; 418  :             pp -= 2;

	mov	ecx, DWORD PTR _pp$[ebp]
	sub	ecx, 8
	mov	DWORD PTR _pp$[ebp], ecx

; 419  :             op -= 2;

	mov	edx, DWORD PTR _op$[ebp]
	sub	edx, 8
	mov	DWORD PTR _op$[ebp], edx
$LN11@LeftShift_:

; 420  :         }
; 421  : 
; 422  :         if (p_count & 0x1)

	mov	eax, DWORD PTR _p_count$[ebp]
	and	eax, 1
	je	SHORT $LN12@LeftShift_

; 423  :         {
; 424  :             work = temp << n_lshift_bit_count; temp = pp[-0]; work |= temp >> n_rshift_bit_count; op[-0] = work;

	mov	edx, DWORD PTR _temp$3[ebp]
	mov	ecx, DWORD PTR _n_lshift_bit_count$[ebp]
	shl	edx, cl
	mov	DWORD PTR _work$2[ebp], edx
	mov	eax, 4
	imul	ecx, eax, 0
	mov	edx, DWORD PTR _pp$[ebp]
	mov	eax, DWORD PTR [edx+ecx]
	mov	DWORD PTR _temp$3[ebp], eax
	mov	edx, DWORD PTR _temp$3[ebp]
	mov	ecx, DWORD PTR _n_rshift_bit_count$4[ebp]
	shr	edx, cl
	or	edx, DWORD PTR _work$2[ebp]
	mov	DWORD PTR _work$2[ebp], edx
	mov	eax, 4
	imul	ecx, eax, 0
	mov	edx, DWORD PTR _op$[ebp]
	mov	eax, DWORD PTR _work$2[ebp]
	mov	DWORD PTR [edx+ecx], eax

; 425  :             pp -= 1;

	mov	ecx, DWORD PTR _pp$[ebp]
	sub	ecx, 4
	mov	DWORD PTR _pp$[ebp], ecx

; 426  :             op -= 1;

	mov	edx, DWORD PTR _op$[ebp]
	sub	edx, 4
	mov	DWORD PTR _op$[ebp], edx
$LN12@LeftShift_:

; 427  :         }
; 428  :         work = temp << n_lshift_bit_count;

	mov	eax, DWORD PTR _temp$3[ebp]
	mov	ecx, DWORD PTR _n_lshift_bit_count$[ebp]
	shl	eax, cl
	mov	DWORD PTR _work$2[ebp], eax

; 429  :         *op = work;

	mov	ecx, DWORD PTR _op$[ebp]
	mov	edx, DWORD PTR _work$2[ebp]
	mov	DWORD PTR [ecx], edx

; 430  : 
; 431  :         if (padding_zero)

	cmp	DWORD PTR _padding_zero$[ebp], 0
	je	SHORT $LN1@LeftShift_

; 432  :             _ZERO_MEMORY_UNIT(o, n_word_count);

	mov	eax, DWORD PTR _n_word_count$[ebp]
	push	eax
	mov	ecx, DWORD PTR _o$[ebp]
	push	ecx
	call	__ZERO_MEMORY_UNIT
	add	esp, 8
$LN1@LeftShift_:

; 433  :     }
; 434  : }

	add	esp, 36					; 00000024H
	cmp	ebp, esp
	call	__RTC_CheckEsp
	mov	esp, ebp
	pop	ebp
	ret	0
_LeftShift_Imp ENDP
_TEXT	ENDS
; Function compile flags: /Odtp /RTCsu
; File z:\sources\lunor\repos\rougemeilland\palmtree.math.core.uint\palmtree.math.core.uint\pmc_shift.c
_TEXT	SEGMENT
_count$1 = -36						; size = 4
_work$2 = -32						; size = 4
_temp$3 = -28						; size = 4
_n_rshift_bit_count$4 = -24				; size = 4
_n_lshift_bit_count$ = -20				; size = 4
_n_word_count$ = -16					; size = 4
_op$ = -12						; size = 4
_p_count$ = -8						; size = 4
_pp$ = -4						; size = 4
_p$ = 8							; size = 4
_p_word_count$ = 12					; size = 4
_n$ = 16						; size = 4
_o$ = 20						; size = 4
_padding_zero$ = 24					; size = 4
_LeftShift_Imp_DIV PROC

; 437  : {

	push	ebp
	mov	ebp, esp
	sub	esp, 36					; 00000024H
	mov	eax, -858993460				; ccccccccH
	mov	DWORD PTR [ebp-36], eax
	mov	DWORD PTR [ebp-32], eax
	mov	DWORD PTR [ebp-28], eax
	mov	DWORD PTR [ebp-24], eax
	mov	DWORD PTR [ebp-20], eax
	mov	DWORD PTR [ebp-16], eax
	mov	DWORD PTR [ebp-12], eax
	mov	DWORD PTR [ebp-8], eax
	mov	DWORD PTR [ebp-4], eax
	mov	ecx, OFFSET __372CD743_pmc_shift@c
	call	@__CheckForDebuggerJustMyCode@4

; 438  :     __UNIT_TYPE_DIV* pp = p;

	mov	eax, DWORD PTR _p$[ebp]
	mov	DWORD PTR _pp$[ebp], eax

; 439  :     __UNIT_TYPE p_count = p_word_count;

	mov	ecx, DWORD PTR _p_word_count$[ebp]
	mov	DWORD PTR _p_count$[ebp], ecx

; 440  :     __UNIT_TYPE_DIV* op = o;

	mov	edx, DWORD PTR _o$[ebp]
	mov	DWORD PTR _op$[ebp], edx

; 441  :     __UNIT_TYPE n_word_count = n / __UNIT_TYPE_BIT_COUNT;

	mov	eax, DWORD PTR _n$[ebp]
	shr	eax, 5
	mov	DWORD PTR _n_word_count$[ebp], eax

; 442  :     __UNIT_TYPE n_lshift_bit_count = n % __UNIT_TYPE_BIT_COUNT;

	mov	eax, DWORD PTR _n$[ebp]
	xor	edx, edx
	mov	ecx, 32					; 00000020H
	div	ecx
	mov	DWORD PTR _n_lshift_bit_count$[ebp], edx

; 443  :     if (n_lshift_bit_count == 0)

	cmp	DWORD PTR _n_lshift_bit_count$[ebp], 0
	jne	SHORT $LN4@LeftShift_

; 444  :     {
; 445  :         // シフト数がちょうどワード境界分であれば単にワード単位のデータ移動のみ行う。
; 446  :         _COPY_MEMORY_UNIT_DIV(op + n_word_count, pp, p_count);

	mov	edx, DWORD PTR _p_count$[ebp]
	push	edx
	mov	eax, DWORD PTR _pp$[ebp]
	push	eax
	mov	ecx, DWORD PTR _n_word_count$[ebp]
	mov	edx, DWORD PTR _op$[ebp]
	lea	eax, DWORD PTR [edx+ecx*4]
	push	eax
	call	__COPY_MEMORY_UNIT_DIV
	add	esp, 12					; 0000000cH

; 447  :         if (padding_zero)

	cmp	DWORD PTR _padding_zero$[ebp], 0
	je	SHORT $LN6@LeftShift_

; 448  :             _ZERO_MEMORY_UNIT_DIV(op, n_word_count);

	mov	ecx, DWORD PTR _n_word_count$[ebp]
	push	ecx
	mov	edx, DWORD PTR _op$[ebp]
	push	edx
	call	__ZERO_MEMORY_UNIT_DIV
	add	esp, 8
$LN6@LeftShift_:

; 449  :     }

	jmp	$LN1@LeftShift_
$LN4@LeftShift_:

; 450  :     else
; 451  :     {
; 452  :         __UNIT_TYPE n_rshift_bit_count = __UNIT_TYPE_BIT_COUNT - n_lshift_bit_count;

	mov	eax, 32					; 00000020H
	sub	eax, DWORD PTR _n_lshift_bit_count$[ebp]
	mov	DWORD PTR _n_rshift_bit_count$4[ebp], eax

; 453  :         pp += p_count - 1;

	mov	ecx, DWORD PTR _p_count$[ebp]
	mov	edx, DWORD PTR _pp$[ebp]
	lea	eax, DWORD PTR [edx+ecx*4-4]
	mov	DWORD PTR _pp$[ebp], eax

; 454  :         op += p_count + n_word_count;

	mov	ecx, DWORD PTR _p_count$[ebp]
	add	ecx, DWORD PTR _n_word_count$[ebp]
	mov	edx, DWORD PTR _op$[ebp]
	lea	eax, DWORD PTR [edx+ecx*4]
	mov	DWORD PTR _op$[ebp], eax

; 455  :         p_count -= 1;

	mov	ecx, DWORD PTR _p_count$[ebp]
	sub	ecx, 1
	mov	DWORD PTR _p_count$[ebp], ecx

; 456  :         __UNIT_TYPE_DIV temp = *pp;

	mov	edx, DWORD PTR _pp$[ebp]
	mov	eax, DWORD PTR [edx]
	mov	DWORD PTR _temp$3[ebp], eax

; 457  :         __UNIT_TYPE_DIV work = temp >> n_rshift_bit_count;

	mov	edx, DWORD PTR _temp$3[ebp]
	mov	ecx, DWORD PTR _n_rshift_bit_count$4[ebp]
	shr	edx, cl
	mov	DWORD PTR _work$2[ebp], edx

; 458  :         if (work != 0)

	cmp	DWORD PTR _work$2[ebp], 0
	je	SHORT $LN7@LeftShift_

; 459  :             *op = work;

	mov	eax, DWORD PTR _op$[ebp]
	mov	ecx, DWORD PTR _work$2[ebp]
	mov	DWORD PTR [eax], ecx
$LN7@LeftShift_:

; 460  :         --pp;

	mov	edx, DWORD PTR _pp$[ebp]
	sub	edx, 4
	mov	DWORD PTR _pp$[ebp], edx

; 461  :         --op;

	mov	eax, DWORD PTR _op$[ebp]
	sub	eax, 4
	mov	DWORD PTR _op$[ebp], eax

; 462  : 
; 463  :         __UNIT_TYPE count = p_count >> 5;

	mov	ecx, DWORD PTR _p_count$[ebp]
	shr	ecx, 5
	mov	DWORD PTR _count$1[ebp], ecx
$LN2@LeftShift_:

; 464  :         while (count != 0)

	cmp	DWORD PTR _count$1[ebp], 0
	je	$LN3@LeftShift_

; 465  :         {
; 466  :             work = temp << n_lshift_bit_count; temp = pp[-0]; work |= temp >> n_rshift_bit_count; op[-0] = work;

	mov	edx, DWORD PTR _temp$3[ebp]
	mov	ecx, DWORD PTR _n_lshift_bit_count$[ebp]
	shl	edx, cl
	mov	DWORD PTR _work$2[ebp], edx
	mov	eax, 4
	imul	ecx, eax, 0
	mov	edx, DWORD PTR _pp$[ebp]
	mov	eax, DWORD PTR [edx+ecx]
	mov	DWORD PTR _temp$3[ebp], eax
	mov	edx, DWORD PTR _temp$3[ebp]
	mov	ecx, DWORD PTR _n_rshift_bit_count$4[ebp]
	shr	edx, cl
	or	edx, DWORD PTR _work$2[ebp]
	mov	DWORD PTR _work$2[ebp], edx
	mov	eax, 4
	imul	ecx, eax, 0
	mov	edx, DWORD PTR _op$[ebp]
	mov	eax, DWORD PTR _work$2[ebp]
	mov	DWORD PTR [edx+ecx], eax

; 467  :             work = temp << n_lshift_bit_count; temp = pp[-1]; work |= temp >> n_rshift_bit_count; op[-1] = work;

	mov	edx, DWORD PTR _temp$3[ebp]
	mov	ecx, DWORD PTR _n_lshift_bit_count$[ebp]
	shl	edx, cl
	mov	DWORD PTR _work$2[ebp], edx
	mov	eax, 4
	imul	ecx, eax, -1
	mov	edx, DWORD PTR _pp$[ebp]
	mov	eax, DWORD PTR [edx+ecx]
	mov	DWORD PTR _temp$3[ebp], eax
	mov	edx, DWORD PTR _temp$3[ebp]
	mov	ecx, DWORD PTR _n_rshift_bit_count$4[ebp]
	shr	edx, cl
	or	edx, DWORD PTR _work$2[ebp]
	mov	DWORD PTR _work$2[ebp], edx
	mov	eax, 4
	imul	ecx, eax, -1
	mov	edx, DWORD PTR _op$[ebp]
	mov	eax, DWORD PTR _work$2[ebp]
	mov	DWORD PTR [edx+ecx], eax

; 468  :             work = temp << n_lshift_bit_count; temp = pp[-2]; work |= temp >> n_rshift_bit_count; op[-2] = work;

	mov	edx, DWORD PTR _temp$3[ebp]
	mov	ecx, DWORD PTR _n_lshift_bit_count$[ebp]
	shl	edx, cl
	mov	DWORD PTR _work$2[ebp], edx
	mov	eax, 4
	imul	ecx, eax, -2
	mov	edx, DWORD PTR _pp$[ebp]
	mov	eax, DWORD PTR [edx+ecx]
	mov	DWORD PTR _temp$3[ebp], eax
	mov	edx, DWORD PTR _temp$3[ebp]
	mov	ecx, DWORD PTR _n_rshift_bit_count$4[ebp]
	shr	edx, cl
	or	edx, DWORD PTR _work$2[ebp]
	mov	DWORD PTR _work$2[ebp], edx
	mov	eax, 4
	imul	ecx, eax, -2
	mov	edx, DWORD PTR _op$[ebp]
	mov	eax, DWORD PTR _work$2[ebp]
	mov	DWORD PTR [edx+ecx], eax

; 469  :             work = temp << n_lshift_bit_count; temp = pp[-3]; work |= temp >> n_rshift_bit_count; op[-3] = work;

	mov	edx, DWORD PTR _temp$3[ebp]
	mov	ecx, DWORD PTR _n_lshift_bit_count$[ebp]
	shl	edx, cl
	mov	DWORD PTR _work$2[ebp], edx
	mov	eax, 4
	imul	ecx, eax, -3
	mov	edx, DWORD PTR _pp$[ebp]
	mov	eax, DWORD PTR [edx+ecx]
	mov	DWORD PTR _temp$3[ebp], eax
	mov	edx, DWORD PTR _temp$3[ebp]
	mov	ecx, DWORD PTR _n_rshift_bit_count$4[ebp]
	shr	edx, cl
	or	edx, DWORD PTR _work$2[ebp]
	mov	DWORD PTR _work$2[ebp], edx
	mov	eax, 4
	imul	ecx, eax, -3
	mov	edx, DWORD PTR _op$[ebp]
	mov	eax, DWORD PTR _work$2[ebp]
	mov	DWORD PTR [edx+ecx], eax

; 470  :             work = temp << n_lshift_bit_count; temp = pp[-4]; work |= temp >> n_rshift_bit_count; op[-4] = work;

	mov	edx, DWORD PTR _temp$3[ebp]
	mov	ecx, DWORD PTR _n_lshift_bit_count$[ebp]
	shl	edx, cl
	mov	DWORD PTR _work$2[ebp], edx
	mov	eax, 4
	imul	ecx, eax, -4
	mov	edx, DWORD PTR _pp$[ebp]
	mov	eax, DWORD PTR [edx+ecx]
	mov	DWORD PTR _temp$3[ebp], eax
	mov	edx, DWORD PTR _temp$3[ebp]
	mov	ecx, DWORD PTR _n_rshift_bit_count$4[ebp]
	shr	edx, cl
	or	edx, DWORD PTR _work$2[ebp]
	mov	DWORD PTR _work$2[ebp], edx
	mov	eax, 4
	imul	ecx, eax, -4
	mov	edx, DWORD PTR _op$[ebp]
	mov	eax, DWORD PTR _work$2[ebp]
	mov	DWORD PTR [edx+ecx], eax

; 471  :             work = temp << n_lshift_bit_count; temp = pp[-5]; work |= temp >> n_rshift_bit_count; op[-5] = work;

	mov	edx, DWORD PTR _temp$3[ebp]
	mov	ecx, DWORD PTR _n_lshift_bit_count$[ebp]
	shl	edx, cl
	mov	DWORD PTR _work$2[ebp], edx
	mov	eax, 4
	imul	ecx, eax, -5
	mov	edx, DWORD PTR _pp$[ebp]
	mov	eax, DWORD PTR [edx+ecx]
	mov	DWORD PTR _temp$3[ebp], eax
	mov	edx, DWORD PTR _temp$3[ebp]
	mov	ecx, DWORD PTR _n_rshift_bit_count$4[ebp]
	shr	edx, cl
	or	edx, DWORD PTR _work$2[ebp]
	mov	DWORD PTR _work$2[ebp], edx
	mov	eax, 4
	imul	ecx, eax, -5
	mov	edx, DWORD PTR _op$[ebp]
	mov	eax, DWORD PTR _work$2[ebp]
	mov	DWORD PTR [edx+ecx], eax

; 472  :             work = temp << n_lshift_bit_count; temp = pp[-6]; work |= temp >> n_rshift_bit_count; op[-6] = work;

	mov	edx, DWORD PTR _temp$3[ebp]
	mov	ecx, DWORD PTR _n_lshift_bit_count$[ebp]
	shl	edx, cl
	mov	DWORD PTR _work$2[ebp], edx
	mov	eax, 4
	imul	ecx, eax, -6
	mov	edx, DWORD PTR _pp$[ebp]
	mov	eax, DWORD PTR [edx+ecx]
	mov	DWORD PTR _temp$3[ebp], eax
	mov	edx, DWORD PTR _temp$3[ebp]
	mov	ecx, DWORD PTR _n_rshift_bit_count$4[ebp]
	shr	edx, cl
	or	edx, DWORD PTR _work$2[ebp]
	mov	DWORD PTR _work$2[ebp], edx
	mov	eax, 4
	imul	ecx, eax, -6
	mov	edx, DWORD PTR _op$[ebp]
	mov	eax, DWORD PTR _work$2[ebp]
	mov	DWORD PTR [edx+ecx], eax

; 473  :             work = temp << n_lshift_bit_count; temp = pp[-7]; work |= temp >> n_rshift_bit_count; op[-7] = work;

	mov	edx, DWORD PTR _temp$3[ebp]
	mov	ecx, DWORD PTR _n_lshift_bit_count$[ebp]
	shl	edx, cl
	mov	DWORD PTR _work$2[ebp], edx
	mov	eax, 4
	imul	ecx, eax, -7
	mov	edx, DWORD PTR _pp$[ebp]
	mov	eax, DWORD PTR [edx+ecx]
	mov	DWORD PTR _temp$3[ebp], eax
	mov	edx, DWORD PTR _temp$3[ebp]
	mov	ecx, DWORD PTR _n_rshift_bit_count$4[ebp]
	shr	edx, cl
	or	edx, DWORD PTR _work$2[ebp]
	mov	DWORD PTR _work$2[ebp], edx
	mov	eax, 4
	imul	ecx, eax, -7
	mov	edx, DWORD PTR _op$[ebp]
	mov	eax, DWORD PTR _work$2[ebp]
	mov	DWORD PTR [edx+ecx], eax

; 474  :             work = temp << n_lshift_bit_count; temp = pp[-8]; work |= temp >> n_rshift_bit_count; op[-8] = work;

	mov	edx, DWORD PTR _temp$3[ebp]
	mov	ecx, DWORD PTR _n_lshift_bit_count$[ebp]
	shl	edx, cl
	mov	DWORD PTR _work$2[ebp], edx
	mov	eax, 4
	imul	ecx, eax, -8
	mov	edx, DWORD PTR _pp$[ebp]
	mov	eax, DWORD PTR [edx+ecx]
	mov	DWORD PTR _temp$3[ebp], eax
	mov	edx, DWORD PTR _temp$3[ebp]
	mov	ecx, DWORD PTR _n_rshift_bit_count$4[ebp]
	shr	edx, cl
	or	edx, DWORD PTR _work$2[ebp]
	mov	DWORD PTR _work$2[ebp], edx
	mov	eax, 4
	imul	ecx, eax, -8
	mov	edx, DWORD PTR _op$[ebp]
	mov	eax, DWORD PTR _work$2[ebp]
	mov	DWORD PTR [edx+ecx], eax

; 475  :             work = temp << n_lshift_bit_count; temp = pp[-9]; work |= temp >> n_rshift_bit_count; op[-9] = work;

	mov	edx, DWORD PTR _temp$3[ebp]
	mov	ecx, DWORD PTR _n_lshift_bit_count$[ebp]
	shl	edx, cl
	mov	DWORD PTR _work$2[ebp], edx
	mov	eax, 4
	imul	ecx, eax, -9
	mov	edx, DWORD PTR _pp$[ebp]
	mov	eax, DWORD PTR [edx+ecx]
	mov	DWORD PTR _temp$3[ebp], eax
	mov	edx, DWORD PTR _temp$3[ebp]
	mov	ecx, DWORD PTR _n_rshift_bit_count$4[ebp]
	shr	edx, cl
	or	edx, DWORD PTR _work$2[ebp]
	mov	DWORD PTR _work$2[ebp], edx
	mov	eax, 4
	imul	ecx, eax, -9
	mov	edx, DWORD PTR _op$[ebp]
	mov	eax, DWORD PTR _work$2[ebp]
	mov	DWORD PTR [edx+ecx], eax

; 476  :             work = temp << n_lshift_bit_count; temp = pp[-10]; work |= temp >> n_rshift_bit_count; op[-10] = work;

	mov	edx, DWORD PTR _temp$3[ebp]
	mov	ecx, DWORD PTR _n_lshift_bit_count$[ebp]
	shl	edx, cl
	mov	DWORD PTR _work$2[ebp], edx
	mov	eax, 4
	imul	ecx, eax, -10
	mov	edx, DWORD PTR _pp$[ebp]
	mov	eax, DWORD PTR [edx+ecx]
	mov	DWORD PTR _temp$3[ebp], eax
	mov	edx, DWORD PTR _temp$3[ebp]
	mov	ecx, DWORD PTR _n_rshift_bit_count$4[ebp]
	shr	edx, cl
	or	edx, DWORD PTR _work$2[ebp]
	mov	DWORD PTR _work$2[ebp], edx
	mov	eax, 4
	imul	ecx, eax, -10
	mov	edx, DWORD PTR _op$[ebp]
	mov	eax, DWORD PTR _work$2[ebp]
	mov	DWORD PTR [edx+ecx], eax

; 477  :             work = temp << n_lshift_bit_count; temp = pp[-11]; work |= temp >> n_rshift_bit_count; op[-11] = work;

	mov	edx, DWORD PTR _temp$3[ebp]
	mov	ecx, DWORD PTR _n_lshift_bit_count$[ebp]
	shl	edx, cl
	mov	DWORD PTR _work$2[ebp], edx
	mov	eax, 4
	imul	ecx, eax, -11
	mov	edx, DWORD PTR _pp$[ebp]
	mov	eax, DWORD PTR [edx+ecx]
	mov	DWORD PTR _temp$3[ebp], eax
	mov	edx, DWORD PTR _temp$3[ebp]
	mov	ecx, DWORD PTR _n_rshift_bit_count$4[ebp]
	shr	edx, cl
	or	edx, DWORD PTR _work$2[ebp]
	mov	DWORD PTR _work$2[ebp], edx
	mov	eax, 4
	imul	ecx, eax, -11
	mov	edx, DWORD PTR _op$[ebp]
	mov	eax, DWORD PTR _work$2[ebp]
	mov	DWORD PTR [edx+ecx], eax

; 478  :             work = temp << n_lshift_bit_count; temp = pp[-12]; work |= temp >> n_rshift_bit_count; op[-12] = work;

	mov	edx, DWORD PTR _temp$3[ebp]
	mov	ecx, DWORD PTR _n_lshift_bit_count$[ebp]
	shl	edx, cl
	mov	DWORD PTR _work$2[ebp], edx
	mov	eax, 4
	imul	ecx, eax, -12
	mov	edx, DWORD PTR _pp$[ebp]
	mov	eax, DWORD PTR [edx+ecx]
	mov	DWORD PTR _temp$3[ebp], eax
	mov	edx, DWORD PTR _temp$3[ebp]
	mov	ecx, DWORD PTR _n_rshift_bit_count$4[ebp]
	shr	edx, cl
	or	edx, DWORD PTR _work$2[ebp]
	mov	DWORD PTR _work$2[ebp], edx
	mov	eax, 4
	imul	ecx, eax, -12
	mov	edx, DWORD PTR _op$[ebp]
	mov	eax, DWORD PTR _work$2[ebp]
	mov	DWORD PTR [edx+ecx], eax

; 479  :             work = temp << n_lshift_bit_count; temp = pp[-13]; work |= temp >> n_rshift_bit_count; op[-13] = work;

	mov	edx, DWORD PTR _temp$3[ebp]
	mov	ecx, DWORD PTR _n_lshift_bit_count$[ebp]
	shl	edx, cl
	mov	DWORD PTR _work$2[ebp], edx
	mov	eax, 4
	imul	ecx, eax, -13
	mov	edx, DWORD PTR _pp$[ebp]
	mov	eax, DWORD PTR [edx+ecx]
	mov	DWORD PTR _temp$3[ebp], eax
	mov	edx, DWORD PTR _temp$3[ebp]
	mov	ecx, DWORD PTR _n_rshift_bit_count$4[ebp]
	shr	edx, cl
	or	edx, DWORD PTR _work$2[ebp]
	mov	DWORD PTR _work$2[ebp], edx
	mov	eax, 4
	imul	ecx, eax, -13
	mov	edx, DWORD PTR _op$[ebp]
	mov	eax, DWORD PTR _work$2[ebp]
	mov	DWORD PTR [edx+ecx], eax

; 480  :             work = temp << n_lshift_bit_count; temp = pp[-14]; work |= temp >> n_rshift_bit_count; op[-14] = work;

	mov	edx, DWORD PTR _temp$3[ebp]
	mov	ecx, DWORD PTR _n_lshift_bit_count$[ebp]
	shl	edx, cl
	mov	DWORD PTR _work$2[ebp], edx
	mov	eax, 4
	imul	ecx, eax, -14
	mov	edx, DWORD PTR _pp$[ebp]
	mov	eax, DWORD PTR [edx+ecx]
	mov	DWORD PTR _temp$3[ebp], eax
	mov	edx, DWORD PTR _temp$3[ebp]
	mov	ecx, DWORD PTR _n_rshift_bit_count$4[ebp]
	shr	edx, cl
	or	edx, DWORD PTR _work$2[ebp]
	mov	DWORD PTR _work$2[ebp], edx
	mov	eax, 4
	imul	ecx, eax, -14
	mov	edx, DWORD PTR _op$[ebp]
	mov	eax, DWORD PTR _work$2[ebp]
	mov	DWORD PTR [edx+ecx], eax

; 481  :             work = temp << n_lshift_bit_count; temp = pp[-15]; work |= temp >> n_rshift_bit_count; op[-15] = work;

	mov	edx, DWORD PTR _temp$3[ebp]
	mov	ecx, DWORD PTR _n_lshift_bit_count$[ebp]
	shl	edx, cl
	mov	DWORD PTR _work$2[ebp], edx
	mov	eax, 4
	imul	ecx, eax, -15
	mov	edx, DWORD PTR _pp$[ebp]
	mov	eax, DWORD PTR [edx+ecx]
	mov	DWORD PTR _temp$3[ebp], eax
	mov	edx, DWORD PTR _temp$3[ebp]
	mov	ecx, DWORD PTR _n_rshift_bit_count$4[ebp]
	shr	edx, cl
	or	edx, DWORD PTR _work$2[ebp]
	mov	DWORD PTR _work$2[ebp], edx
	mov	eax, 4
	imul	ecx, eax, -15
	mov	edx, DWORD PTR _op$[ebp]
	mov	eax, DWORD PTR _work$2[ebp]
	mov	DWORD PTR [edx+ecx], eax

; 482  :             work = temp << n_lshift_bit_count; temp = pp[-16]; work |= temp >> n_rshift_bit_count; op[-16] = work;

	mov	edx, DWORD PTR _temp$3[ebp]
	mov	ecx, DWORD PTR _n_lshift_bit_count$[ebp]
	shl	edx, cl
	mov	DWORD PTR _work$2[ebp], edx
	mov	eax, 4
	imul	ecx, eax, -16
	mov	edx, DWORD PTR _pp$[ebp]
	mov	eax, DWORD PTR [edx+ecx]
	mov	DWORD PTR _temp$3[ebp], eax
	mov	edx, DWORD PTR _temp$3[ebp]
	mov	ecx, DWORD PTR _n_rshift_bit_count$4[ebp]
	shr	edx, cl
	or	edx, DWORD PTR _work$2[ebp]
	mov	DWORD PTR _work$2[ebp], edx
	mov	eax, 4
	imul	ecx, eax, -16
	mov	edx, DWORD PTR _op$[ebp]
	mov	eax, DWORD PTR _work$2[ebp]
	mov	DWORD PTR [edx+ecx], eax

; 483  :             work = temp << n_lshift_bit_count; temp = pp[-17]; work |= temp >> n_rshift_bit_count; op[-17] = work;

	mov	edx, DWORD PTR _temp$3[ebp]
	mov	ecx, DWORD PTR _n_lshift_bit_count$[ebp]
	shl	edx, cl
	mov	DWORD PTR _work$2[ebp], edx
	mov	eax, 4
	imul	ecx, eax, -17
	mov	edx, DWORD PTR _pp$[ebp]
	mov	eax, DWORD PTR [edx+ecx]
	mov	DWORD PTR _temp$3[ebp], eax
	mov	edx, DWORD PTR _temp$3[ebp]
	mov	ecx, DWORD PTR _n_rshift_bit_count$4[ebp]
	shr	edx, cl
	or	edx, DWORD PTR _work$2[ebp]
	mov	DWORD PTR _work$2[ebp], edx
	mov	eax, 4
	imul	ecx, eax, -17
	mov	edx, DWORD PTR _op$[ebp]
	mov	eax, DWORD PTR _work$2[ebp]
	mov	DWORD PTR [edx+ecx], eax

; 484  :             work = temp << n_lshift_bit_count; temp = pp[-18]; work |= temp >> n_rshift_bit_count; op[-18] = work;

	mov	edx, DWORD PTR _temp$3[ebp]
	mov	ecx, DWORD PTR _n_lshift_bit_count$[ebp]
	shl	edx, cl
	mov	DWORD PTR _work$2[ebp], edx
	mov	eax, 4
	imul	ecx, eax, -18
	mov	edx, DWORD PTR _pp$[ebp]
	mov	eax, DWORD PTR [edx+ecx]
	mov	DWORD PTR _temp$3[ebp], eax
	mov	edx, DWORD PTR _temp$3[ebp]
	mov	ecx, DWORD PTR _n_rshift_bit_count$4[ebp]
	shr	edx, cl
	or	edx, DWORD PTR _work$2[ebp]
	mov	DWORD PTR _work$2[ebp], edx
	mov	eax, 4
	imul	ecx, eax, -18
	mov	edx, DWORD PTR _op$[ebp]
	mov	eax, DWORD PTR _work$2[ebp]
	mov	DWORD PTR [edx+ecx], eax

; 485  :             work = temp << n_lshift_bit_count; temp = pp[-19]; work |= temp >> n_rshift_bit_count; op[-19] = work;

	mov	edx, DWORD PTR _temp$3[ebp]
	mov	ecx, DWORD PTR _n_lshift_bit_count$[ebp]
	shl	edx, cl
	mov	DWORD PTR _work$2[ebp], edx
	mov	eax, 4
	imul	ecx, eax, -19
	mov	edx, DWORD PTR _pp$[ebp]
	mov	eax, DWORD PTR [edx+ecx]
	mov	DWORD PTR _temp$3[ebp], eax
	mov	edx, DWORD PTR _temp$3[ebp]
	mov	ecx, DWORD PTR _n_rshift_bit_count$4[ebp]
	shr	edx, cl
	or	edx, DWORD PTR _work$2[ebp]
	mov	DWORD PTR _work$2[ebp], edx
	mov	eax, 4
	imul	ecx, eax, -19
	mov	edx, DWORD PTR _op$[ebp]
	mov	eax, DWORD PTR _work$2[ebp]
	mov	DWORD PTR [edx+ecx], eax

; 486  :             work = temp << n_lshift_bit_count; temp = pp[-20]; work |= temp >> n_rshift_bit_count; op[-20] = work;

	mov	edx, DWORD PTR _temp$3[ebp]
	mov	ecx, DWORD PTR _n_lshift_bit_count$[ebp]
	shl	edx, cl
	mov	DWORD PTR _work$2[ebp], edx
	mov	eax, 4
	imul	ecx, eax, -20
	mov	edx, DWORD PTR _pp$[ebp]
	mov	eax, DWORD PTR [edx+ecx]
	mov	DWORD PTR _temp$3[ebp], eax
	mov	edx, DWORD PTR _temp$3[ebp]
	mov	ecx, DWORD PTR _n_rshift_bit_count$4[ebp]
	shr	edx, cl
	or	edx, DWORD PTR _work$2[ebp]
	mov	DWORD PTR _work$2[ebp], edx
	mov	eax, 4
	imul	ecx, eax, -20
	mov	edx, DWORD PTR _op$[ebp]
	mov	eax, DWORD PTR _work$2[ebp]
	mov	DWORD PTR [edx+ecx], eax

; 487  :             work = temp << n_lshift_bit_count; temp = pp[-21]; work |= temp >> n_rshift_bit_count; op[-21] = work;

	mov	edx, DWORD PTR _temp$3[ebp]
	mov	ecx, DWORD PTR _n_lshift_bit_count$[ebp]
	shl	edx, cl
	mov	DWORD PTR _work$2[ebp], edx
	mov	eax, 4
	imul	ecx, eax, -21
	mov	edx, DWORD PTR _pp$[ebp]
	mov	eax, DWORD PTR [edx+ecx]
	mov	DWORD PTR _temp$3[ebp], eax
	mov	edx, DWORD PTR _temp$3[ebp]
	mov	ecx, DWORD PTR _n_rshift_bit_count$4[ebp]
	shr	edx, cl
	or	edx, DWORD PTR _work$2[ebp]
	mov	DWORD PTR _work$2[ebp], edx
	mov	eax, 4
	imul	ecx, eax, -21
	mov	edx, DWORD PTR _op$[ebp]
	mov	eax, DWORD PTR _work$2[ebp]
	mov	DWORD PTR [edx+ecx], eax

; 488  :             work = temp << n_lshift_bit_count; temp = pp[-22]; work |= temp >> n_rshift_bit_count; op[-22] = work;

	mov	edx, DWORD PTR _temp$3[ebp]
	mov	ecx, DWORD PTR _n_lshift_bit_count$[ebp]
	shl	edx, cl
	mov	DWORD PTR _work$2[ebp], edx
	mov	eax, 4
	imul	ecx, eax, -22
	mov	edx, DWORD PTR _pp$[ebp]
	mov	eax, DWORD PTR [edx+ecx]
	mov	DWORD PTR _temp$3[ebp], eax
	mov	edx, DWORD PTR _temp$3[ebp]
	mov	ecx, DWORD PTR _n_rshift_bit_count$4[ebp]
	shr	edx, cl
	or	edx, DWORD PTR _work$2[ebp]
	mov	DWORD PTR _work$2[ebp], edx
	mov	eax, 4
	imul	ecx, eax, -22
	mov	edx, DWORD PTR _op$[ebp]
	mov	eax, DWORD PTR _work$2[ebp]
	mov	DWORD PTR [edx+ecx], eax

; 489  :             work = temp << n_lshift_bit_count; temp = pp[-23]; work |= temp >> n_rshift_bit_count; op[-23] = work;

	mov	edx, DWORD PTR _temp$3[ebp]
	mov	ecx, DWORD PTR _n_lshift_bit_count$[ebp]
	shl	edx, cl
	mov	DWORD PTR _work$2[ebp], edx
	mov	eax, 4
	imul	ecx, eax, -23
	mov	edx, DWORD PTR _pp$[ebp]
	mov	eax, DWORD PTR [edx+ecx]
	mov	DWORD PTR _temp$3[ebp], eax
	mov	edx, DWORD PTR _temp$3[ebp]
	mov	ecx, DWORD PTR _n_rshift_bit_count$4[ebp]
	shr	edx, cl
	or	edx, DWORD PTR _work$2[ebp]
	mov	DWORD PTR _work$2[ebp], edx
	mov	eax, 4
	imul	ecx, eax, -23
	mov	edx, DWORD PTR _op$[ebp]
	mov	eax, DWORD PTR _work$2[ebp]
	mov	DWORD PTR [edx+ecx], eax

; 490  :             work = temp << n_lshift_bit_count; temp = pp[-24]; work |= temp >> n_rshift_bit_count; op[-24] = work;

	mov	edx, DWORD PTR _temp$3[ebp]
	mov	ecx, DWORD PTR _n_lshift_bit_count$[ebp]
	shl	edx, cl
	mov	DWORD PTR _work$2[ebp], edx
	mov	eax, 4
	imul	ecx, eax, -24
	mov	edx, DWORD PTR _pp$[ebp]
	mov	eax, DWORD PTR [edx+ecx]
	mov	DWORD PTR _temp$3[ebp], eax
	mov	edx, DWORD PTR _temp$3[ebp]
	mov	ecx, DWORD PTR _n_rshift_bit_count$4[ebp]
	shr	edx, cl
	or	edx, DWORD PTR _work$2[ebp]
	mov	DWORD PTR _work$2[ebp], edx
	mov	eax, 4
	imul	ecx, eax, -24
	mov	edx, DWORD PTR _op$[ebp]
	mov	eax, DWORD PTR _work$2[ebp]
	mov	DWORD PTR [edx+ecx], eax

; 491  :             work = temp << n_lshift_bit_count; temp = pp[-25]; work |= temp >> n_rshift_bit_count; op[-25] = work;

	mov	edx, DWORD PTR _temp$3[ebp]
	mov	ecx, DWORD PTR _n_lshift_bit_count$[ebp]
	shl	edx, cl
	mov	DWORD PTR _work$2[ebp], edx
	mov	eax, 4
	imul	ecx, eax, -25
	mov	edx, DWORD PTR _pp$[ebp]
	mov	eax, DWORD PTR [edx+ecx]
	mov	DWORD PTR _temp$3[ebp], eax
	mov	edx, DWORD PTR _temp$3[ebp]
	mov	ecx, DWORD PTR _n_rshift_bit_count$4[ebp]
	shr	edx, cl
	or	edx, DWORD PTR _work$2[ebp]
	mov	DWORD PTR _work$2[ebp], edx
	mov	eax, 4
	imul	ecx, eax, -25
	mov	edx, DWORD PTR _op$[ebp]
	mov	eax, DWORD PTR _work$2[ebp]
	mov	DWORD PTR [edx+ecx], eax

; 492  :             work = temp << n_lshift_bit_count; temp = pp[-26]; work |= temp >> n_rshift_bit_count; op[-26] = work;

	mov	edx, DWORD PTR _temp$3[ebp]
	mov	ecx, DWORD PTR _n_lshift_bit_count$[ebp]
	shl	edx, cl
	mov	DWORD PTR _work$2[ebp], edx
	mov	eax, 4
	imul	ecx, eax, -26
	mov	edx, DWORD PTR _pp$[ebp]
	mov	eax, DWORD PTR [edx+ecx]
	mov	DWORD PTR _temp$3[ebp], eax
	mov	edx, DWORD PTR _temp$3[ebp]
	mov	ecx, DWORD PTR _n_rshift_bit_count$4[ebp]
	shr	edx, cl
	or	edx, DWORD PTR _work$2[ebp]
	mov	DWORD PTR _work$2[ebp], edx
	mov	eax, 4
	imul	ecx, eax, -26
	mov	edx, DWORD PTR _op$[ebp]
	mov	eax, DWORD PTR _work$2[ebp]
	mov	DWORD PTR [edx+ecx], eax

; 493  :             work = temp << n_lshift_bit_count; temp = pp[-27]; work |= temp >> n_rshift_bit_count; op[-27] = work;

	mov	edx, DWORD PTR _temp$3[ebp]
	mov	ecx, DWORD PTR _n_lshift_bit_count$[ebp]
	shl	edx, cl
	mov	DWORD PTR _work$2[ebp], edx
	mov	eax, 4
	imul	ecx, eax, -27
	mov	edx, DWORD PTR _pp$[ebp]
	mov	eax, DWORD PTR [edx+ecx]
	mov	DWORD PTR _temp$3[ebp], eax
	mov	edx, DWORD PTR _temp$3[ebp]
	mov	ecx, DWORD PTR _n_rshift_bit_count$4[ebp]
	shr	edx, cl
	or	edx, DWORD PTR _work$2[ebp]
	mov	DWORD PTR _work$2[ebp], edx
	mov	eax, 4
	imul	ecx, eax, -27
	mov	edx, DWORD PTR _op$[ebp]
	mov	eax, DWORD PTR _work$2[ebp]
	mov	DWORD PTR [edx+ecx], eax

; 494  :             work = temp << n_lshift_bit_count; temp = pp[-28]; work |= temp >> n_rshift_bit_count; op[-28] = work;

	mov	edx, DWORD PTR _temp$3[ebp]
	mov	ecx, DWORD PTR _n_lshift_bit_count$[ebp]
	shl	edx, cl
	mov	DWORD PTR _work$2[ebp], edx
	mov	eax, 4
	imul	ecx, eax, -28
	mov	edx, DWORD PTR _pp$[ebp]
	mov	eax, DWORD PTR [edx+ecx]
	mov	DWORD PTR _temp$3[ebp], eax
	mov	edx, DWORD PTR _temp$3[ebp]
	mov	ecx, DWORD PTR _n_rshift_bit_count$4[ebp]
	shr	edx, cl
	or	edx, DWORD PTR _work$2[ebp]
	mov	DWORD PTR _work$2[ebp], edx
	mov	eax, 4
	imul	ecx, eax, -28
	mov	edx, DWORD PTR _op$[ebp]
	mov	eax, DWORD PTR _work$2[ebp]
	mov	DWORD PTR [edx+ecx], eax

; 495  :             work = temp << n_lshift_bit_count; temp = pp[-29]; work |= temp >> n_rshift_bit_count; op[-29] = work;

	mov	edx, DWORD PTR _temp$3[ebp]
	mov	ecx, DWORD PTR _n_lshift_bit_count$[ebp]
	shl	edx, cl
	mov	DWORD PTR _work$2[ebp], edx
	mov	eax, 4
	imul	ecx, eax, -29
	mov	edx, DWORD PTR _pp$[ebp]
	mov	eax, DWORD PTR [edx+ecx]
	mov	DWORD PTR _temp$3[ebp], eax
	mov	edx, DWORD PTR _temp$3[ebp]
	mov	ecx, DWORD PTR _n_rshift_bit_count$4[ebp]
	shr	edx, cl
	or	edx, DWORD PTR _work$2[ebp]
	mov	DWORD PTR _work$2[ebp], edx
	mov	eax, 4
	imul	ecx, eax, -29
	mov	edx, DWORD PTR _op$[ebp]
	mov	eax, DWORD PTR _work$2[ebp]
	mov	DWORD PTR [edx+ecx], eax

; 496  :             work = temp << n_lshift_bit_count; temp = pp[-30]; work |= temp >> n_rshift_bit_count; op[-30] = work;

	mov	edx, DWORD PTR _temp$3[ebp]
	mov	ecx, DWORD PTR _n_lshift_bit_count$[ebp]
	shl	edx, cl
	mov	DWORD PTR _work$2[ebp], edx
	mov	eax, 4
	imul	ecx, eax, -30
	mov	edx, DWORD PTR _pp$[ebp]
	mov	eax, DWORD PTR [edx+ecx]
	mov	DWORD PTR _temp$3[ebp], eax
	mov	edx, DWORD PTR _temp$3[ebp]
	mov	ecx, DWORD PTR _n_rshift_bit_count$4[ebp]
	shr	edx, cl
	or	edx, DWORD PTR _work$2[ebp]
	mov	DWORD PTR _work$2[ebp], edx
	mov	eax, 4
	imul	ecx, eax, -30
	mov	edx, DWORD PTR _op$[ebp]
	mov	eax, DWORD PTR _work$2[ebp]
	mov	DWORD PTR [edx+ecx], eax

; 497  :             work = temp << n_lshift_bit_count; temp = pp[-31]; work |= temp >> n_rshift_bit_count; op[-31] = work;

	mov	edx, DWORD PTR _temp$3[ebp]
	mov	ecx, DWORD PTR _n_lshift_bit_count$[ebp]
	shl	edx, cl
	mov	DWORD PTR _work$2[ebp], edx
	mov	eax, 4
	imul	ecx, eax, -31
	mov	edx, DWORD PTR _pp$[ebp]
	mov	eax, DWORD PTR [edx+ecx]
	mov	DWORD PTR _temp$3[ebp], eax
	mov	edx, DWORD PTR _temp$3[ebp]
	mov	ecx, DWORD PTR _n_rshift_bit_count$4[ebp]
	shr	edx, cl
	or	edx, DWORD PTR _work$2[ebp]
	mov	DWORD PTR _work$2[ebp], edx
	mov	eax, 4
	imul	ecx, eax, -31
	mov	edx, DWORD PTR _op$[ebp]
	mov	eax, DWORD PTR _work$2[ebp]
	mov	DWORD PTR [edx+ecx], eax

; 498  :             pp -= 32;

	mov	ecx, DWORD PTR _pp$[ebp]
	sub	ecx, 128				; 00000080H
	mov	DWORD PTR _pp$[ebp], ecx

; 499  :             op -= 32;

	mov	edx, DWORD PTR _op$[ebp]
	sub	edx, 128				; 00000080H
	mov	DWORD PTR _op$[ebp], edx

; 500  :             --count;

	mov	eax, DWORD PTR _count$1[ebp]
	sub	eax, 1
	mov	DWORD PTR _count$1[ebp], eax

; 501  :         }

	jmp	$LN2@LeftShift_
$LN3@LeftShift_:

; 502  : 
; 503  :         if (p_count & 0x10)

	mov	ecx, DWORD PTR _p_count$[ebp]
	and	ecx, 16					; 00000010H
	je	$LN8@LeftShift_

; 504  :         {
; 505  :             work = temp << n_lshift_bit_count; temp = pp[-0]; work |= temp >> n_rshift_bit_count; op[-0] = work;

	mov	edx, DWORD PTR _temp$3[ebp]
	mov	ecx, DWORD PTR _n_lshift_bit_count$[ebp]
	shl	edx, cl
	mov	DWORD PTR _work$2[ebp], edx
	mov	eax, 4
	imul	ecx, eax, 0
	mov	edx, DWORD PTR _pp$[ebp]
	mov	eax, DWORD PTR [edx+ecx]
	mov	DWORD PTR _temp$3[ebp], eax
	mov	edx, DWORD PTR _temp$3[ebp]
	mov	ecx, DWORD PTR _n_rshift_bit_count$4[ebp]
	shr	edx, cl
	or	edx, DWORD PTR _work$2[ebp]
	mov	DWORD PTR _work$2[ebp], edx
	mov	eax, 4
	imul	ecx, eax, 0
	mov	edx, DWORD PTR _op$[ebp]
	mov	eax, DWORD PTR _work$2[ebp]
	mov	DWORD PTR [edx+ecx], eax

; 506  :             work = temp << n_lshift_bit_count; temp = pp[-1]; work |= temp >> n_rshift_bit_count; op[-1] = work;

	mov	edx, DWORD PTR _temp$3[ebp]
	mov	ecx, DWORD PTR _n_lshift_bit_count$[ebp]
	shl	edx, cl
	mov	DWORD PTR _work$2[ebp], edx
	mov	eax, 4
	imul	ecx, eax, -1
	mov	edx, DWORD PTR _pp$[ebp]
	mov	eax, DWORD PTR [edx+ecx]
	mov	DWORD PTR _temp$3[ebp], eax
	mov	edx, DWORD PTR _temp$3[ebp]
	mov	ecx, DWORD PTR _n_rshift_bit_count$4[ebp]
	shr	edx, cl
	or	edx, DWORD PTR _work$2[ebp]
	mov	DWORD PTR _work$2[ebp], edx
	mov	eax, 4
	imul	ecx, eax, -1
	mov	edx, DWORD PTR _op$[ebp]
	mov	eax, DWORD PTR _work$2[ebp]
	mov	DWORD PTR [edx+ecx], eax

; 507  :             work = temp << n_lshift_bit_count; temp = pp[-2]; work |= temp >> n_rshift_bit_count; op[-2] = work;

	mov	edx, DWORD PTR _temp$3[ebp]
	mov	ecx, DWORD PTR _n_lshift_bit_count$[ebp]
	shl	edx, cl
	mov	DWORD PTR _work$2[ebp], edx
	mov	eax, 4
	imul	ecx, eax, -2
	mov	edx, DWORD PTR _pp$[ebp]
	mov	eax, DWORD PTR [edx+ecx]
	mov	DWORD PTR _temp$3[ebp], eax
	mov	edx, DWORD PTR _temp$3[ebp]
	mov	ecx, DWORD PTR _n_rshift_bit_count$4[ebp]
	shr	edx, cl
	or	edx, DWORD PTR _work$2[ebp]
	mov	DWORD PTR _work$2[ebp], edx
	mov	eax, 4
	imul	ecx, eax, -2
	mov	edx, DWORD PTR _op$[ebp]
	mov	eax, DWORD PTR _work$2[ebp]
	mov	DWORD PTR [edx+ecx], eax

; 508  :             work = temp << n_lshift_bit_count; temp = pp[-3]; work |= temp >> n_rshift_bit_count; op[-3] = work;

	mov	edx, DWORD PTR _temp$3[ebp]
	mov	ecx, DWORD PTR _n_lshift_bit_count$[ebp]
	shl	edx, cl
	mov	DWORD PTR _work$2[ebp], edx
	mov	eax, 4
	imul	ecx, eax, -3
	mov	edx, DWORD PTR _pp$[ebp]
	mov	eax, DWORD PTR [edx+ecx]
	mov	DWORD PTR _temp$3[ebp], eax
	mov	edx, DWORD PTR _temp$3[ebp]
	mov	ecx, DWORD PTR _n_rshift_bit_count$4[ebp]
	shr	edx, cl
	or	edx, DWORD PTR _work$2[ebp]
	mov	DWORD PTR _work$2[ebp], edx
	mov	eax, 4
	imul	ecx, eax, -3
	mov	edx, DWORD PTR _op$[ebp]
	mov	eax, DWORD PTR _work$2[ebp]
	mov	DWORD PTR [edx+ecx], eax

; 509  :             work = temp << n_lshift_bit_count; temp = pp[-4]; work |= temp >> n_rshift_bit_count; op[-4] = work;

	mov	edx, DWORD PTR _temp$3[ebp]
	mov	ecx, DWORD PTR _n_lshift_bit_count$[ebp]
	shl	edx, cl
	mov	DWORD PTR _work$2[ebp], edx
	mov	eax, 4
	imul	ecx, eax, -4
	mov	edx, DWORD PTR _pp$[ebp]
	mov	eax, DWORD PTR [edx+ecx]
	mov	DWORD PTR _temp$3[ebp], eax
	mov	edx, DWORD PTR _temp$3[ebp]
	mov	ecx, DWORD PTR _n_rshift_bit_count$4[ebp]
	shr	edx, cl
	or	edx, DWORD PTR _work$2[ebp]
	mov	DWORD PTR _work$2[ebp], edx
	mov	eax, 4
	imul	ecx, eax, -4
	mov	edx, DWORD PTR _op$[ebp]
	mov	eax, DWORD PTR _work$2[ebp]
	mov	DWORD PTR [edx+ecx], eax

; 510  :             work = temp << n_lshift_bit_count; temp = pp[-5]; work |= temp >> n_rshift_bit_count; op[-5] = work;

	mov	edx, DWORD PTR _temp$3[ebp]
	mov	ecx, DWORD PTR _n_lshift_bit_count$[ebp]
	shl	edx, cl
	mov	DWORD PTR _work$2[ebp], edx
	mov	eax, 4
	imul	ecx, eax, -5
	mov	edx, DWORD PTR _pp$[ebp]
	mov	eax, DWORD PTR [edx+ecx]
	mov	DWORD PTR _temp$3[ebp], eax
	mov	edx, DWORD PTR _temp$3[ebp]
	mov	ecx, DWORD PTR _n_rshift_bit_count$4[ebp]
	shr	edx, cl
	or	edx, DWORD PTR _work$2[ebp]
	mov	DWORD PTR _work$2[ebp], edx
	mov	eax, 4
	imul	ecx, eax, -5
	mov	edx, DWORD PTR _op$[ebp]
	mov	eax, DWORD PTR _work$2[ebp]
	mov	DWORD PTR [edx+ecx], eax

; 511  :             work = temp << n_lshift_bit_count; temp = pp[-6]; work |= temp >> n_rshift_bit_count; op[-6] = work;

	mov	edx, DWORD PTR _temp$3[ebp]
	mov	ecx, DWORD PTR _n_lshift_bit_count$[ebp]
	shl	edx, cl
	mov	DWORD PTR _work$2[ebp], edx
	mov	eax, 4
	imul	ecx, eax, -6
	mov	edx, DWORD PTR _pp$[ebp]
	mov	eax, DWORD PTR [edx+ecx]
	mov	DWORD PTR _temp$3[ebp], eax
	mov	edx, DWORD PTR _temp$3[ebp]
	mov	ecx, DWORD PTR _n_rshift_bit_count$4[ebp]
	shr	edx, cl
	or	edx, DWORD PTR _work$2[ebp]
	mov	DWORD PTR _work$2[ebp], edx
	mov	eax, 4
	imul	ecx, eax, -6
	mov	edx, DWORD PTR _op$[ebp]
	mov	eax, DWORD PTR _work$2[ebp]
	mov	DWORD PTR [edx+ecx], eax

; 512  :             work = temp << n_lshift_bit_count; temp = pp[-7]; work |= temp >> n_rshift_bit_count; op[-7] = work;

	mov	edx, DWORD PTR _temp$3[ebp]
	mov	ecx, DWORD PTR _n_lshift_bit_count$[ebp]
	shl	edx, cl
	mov	DWORD PTR _work$2[ebp], edx
	mov	eax, 4
	imul	ecx, eax, -7
	mov	edx, DWORD PTR _pp$[ebp]
	mov	eax, DWORD PTR [edx+ecx]
	mov	DWORD PTR _temp$3[ebp], eax
	mov	edx, DWORD PTR _temp$3[ebp]
	mov	ecx, DWORD PTR _n_rshift_bit_count$4[ebp]
	shr	edx, cl
	or	edx, DWORD PTR _work$2[ebp]
	mov	DWORD PTR _work$2[ebp], edx
	mov	eax, 4
	imul	ecx, eax, -7
	mov	edx, DWORD PTR _op$[ebp]
	mov	eax, DWORD PTR _work$2[ebp]
	mov	DWORD PTR [edx+ecx], eax

; 513  :             work = temp << n_lshift_bit_count; temp = pp[-8]; work |= temp >> n_rshift_bit_count; op[-8] = work;

	mov	edx, DWORD PTR _temp$3[ebp]
	mov	ecx, DWORD PTR _n_lshift_bit_count$[ebp]
	shl	edx, cl
	mov	DWORD PTR _work$2[ebp], edx
	mov	eax, 4
	imul	ecx, eax, -8
	mov	edx, DWORD PTR _pp$[ebp]
	mov	eax, DWORD PTR [edx+ecx]
	mov	DWORD PTR _temp$3[ebp], eax
	mov	edx, DWORD PTR _temp$3[ebp]
	mov	ecx, DWORD PTR _n_rshift_bit_count$4[ebp]
	shr	edx, cl
	or	edx, DWORD PTR _work$2[ebp]
	mov	DWORD PTR _work$2[ebp], edx
	mov	eax, 4
	imul	ecx, eax, -8
	mov	edx, DWORD PTR _op$[ebp]
	mov	eax, DWORD PTR _work$2[ebp]
	mov	DWORD PTR [edx+ecx], eax

; 514  :             work = temp << n_lshift_bit_count; temp = pp[-9]; work |= temp >> n_rshift_bit_count; op[-9] = work;

	mov	edx, DWORD PTR _temp$3[ebp]
	mov	ecx, DWORD PTR _n_lshift_bit_count$[ebp]
	shl	edx, cl
	mov	DWORD PTR _work$2[ebp], edx
	mov	eax, 4
	imul	ecx, eax, -9
	mov	edx, DWORD PTR _pp$[ebp]
	mov	eax, DWORD PTR [edx+ecx]
	mov	DWORD PTR _temp$3[ebp], eax
	mov	edx, DWORD PTR _temp$3[ebp]
	mov	ecx, DWORD PTR _n_rshift_bit_count$4[ebp]
	shr	edx, cl
	or	edx, DWORD PTR _work$2[ebp]
	mov	DWORD PTR _work$2[ebp], edx
	mov	eax, 4
	imul	ecx, eax, -9
	mov	edx, DWORD PTR _op$[ebp]
	mov	eax, DWORD PTR _work$2[ebp]
	mov	DWORD PTR [edx+ecx], eax

; 515  :             work = temp << n_lshift_bit_count; temp = pp[-10]; work |= temp >> n_rshift_bit_count; op[-10] = work;

	mov	edx, DWORD PTR _temp$3[ebp]
	mov	ecx, DWORD PTR _n_lshift_bit_count$[ebp]
	shl	edx, cl
	mov	DWORD PTR _work$2[ebp], edx
	mov	eax, 4
	imul	ecx, eax, -10
	mov	edx, DWORD PTR _pp$[ebp]
	mov	eax, DWORD PTR [edx+ecx]
	mov	DWORD PTR _temp$3[ebp], eax
	mov	edx, DWORD PTR _temp$3[ebp]
	mov	ecx, DWORD PTR _n_rshift_bit_count$4[ebp]
	shr	edx, cl
	or	edx, DWORD PTR _work$2[ebp]
	mov	DWORD PTR _work$2[ebp], edx
	mov	eax, 4
	imul	ecx, eax, -10
	mov	edx, DWORD PTR _op$[ebp]
	mov	eax, DWORD PTR _work$2[ebp]
	mov	DWORD PTR [edx+ecx], eax

; 516  :             work = temp << n_lshift_bit_count; temp = pp[-11]; work |= temp >> n_rshift_bit_count; op[-11] = work;

	mov	edx, DWORD PTR _temp$3[ebp]
	mov	ecx, DWORD PTR _n_lshift_bit_count$[ebp]
	shl	edx, cl
	mov	DWORD PTR _work$2[ebp], edx
	mov	eax, 4
	imul	ecx, eax, -11
	mov	edx, DWORD PTR _pp$[ebp]
	mov	eax, DWORD PTR [edx+ecx]
	mov	DWORD PTR _temp$3[ebp], eax
	mov	edx, DWORD PTR _temp$3[ebp]
	mov	ecx, DWORD PTR _n_rshift_bit_count$4[ebp]
	shr	edx, cl
	or	edx, DWORD PTR _work$2[ebp]
	mov	DWORD PTR _work$2[ebp], edx
	mov	eax, 4
	imul	ecx, eax, -11
	mov	edx, DWORD PTR _op$[ebp]
	mov	eax, DWORD PTR _work$2[ebp]
	mov	DWORD PTR [edx+ecx], eax

; 517  :             work = temp << n_lshift_bit_count; temp = pp[-12]; work |= temp >> n_rshift_bit_count; op[-12] = work;

	mov	edx, DWORD PTR _temp$3[ebp]
	mov	ecx, DWORD PTR _n_lshift_bit_count$[ebp]
	shl	edx, cl
	mov	DWORD PTR _work$2[ebp], edx
	mov	eax, 4
	imul	ecx, eax, -12
	mov	edx, DWORD PTR _pp$[ebp]
	mov	eax, DWORD PTR [edx+ecx]
	mov	DWORD PTR _temp$3[ebp], eax
	mov	edx, DWORD PTR _temp$3[ebp]
	mov	ecx, DWORD PTR _n_rshift_bit_count$4[ebp]
	shr	edx, cl
	or	edx, DWORD PTR _work$2[ebp]
	mov	DWORD PTR _work$2[ebp], edx
	mov	eax, 4
	imul	ecx, eax, -12
	mov	edx, DWORD PTR _op$[ebp]
	mov	eax, DWORD PTR _work$2[ebp]
	mov	DWORD PTR [edx+ecx], eax

; 518  :             work = temp << n_lshift_bit_count; temp = pp[-13]; work |= temp >> n_rshift_bit_count; op[-13] = work;

	mov	edx, DWORD PTR _temp$3[ebp]
	mov	ecx, DWORD PTR _n_lshift_bit_count$[ebp]
	shl	edx, cl
	mov	DWORD PTR _work$2[ebp], edx
	mov	eax, 4
	imul	ecx, eax, -13
	mov	edx, DWORD PTR _pp$[ebp]
	mov	eax, DWORD PTR [edx+ecx]
	mov	DWORD PTR _temp$3[ebp], eax
	mov	edx, DWORD PTR _temp$3[ebp]
	mov	ecx, DWORD PTR _n_rshift_bit_count$4[ebp]
	shr	edx, cl
	or	edx, DWORD PTR _work$2[ebp]
	mov	DWORD PTR _work$2[ebp], edx
	mov	eax, 4
	imul	ecx, eax, -13
	mov	edx, DWORD PTR _op$[ebp]
	mov	eax, DWORD PTR _work$2[ebp]
	mov	DWORD PTR [edx+ecx], eax

; 519  :             work = temp << n_lshift_bit_count; temp = pp[-14]; work |= temp >> n_rshift_bit_count; op[-14] = work;

	mov	edx, DWORD PTR _temp$3[ebp]
	mov	ecx, DWORD PTR _n_lshift_bit_count$[ebp]
	shl	edx, cl
	mov	DWORD PTR _work$2[ebp], edx
	mov	eax, 4
	imul	ecx, eax, -14
	mov	edx, DWORD PTR _pp$[ebp]
	mov	eax, DWORD PTR [edx+ecx]
	mov	DWORD PTR _temp$3[ebp], eax
	mov	edx, DWORD PTR _temp$3[ebp]
	mov	ecx, DWORD PTR _n_rshift_bit_count$4[ebp]
	shr	edx, cl
	or	edx, DWORD PTR _work$2[ebp]
	mov	DWORD PTR _work$2[ebp], edx
	mov	eax, 4
	imul	ecx, eax, -14
	mov	edx, DWORD PTR _op$[ebp]
	mov	eax, DWORD PTR _work$2[ebp]
	mov	DWORD PTR [edx+ecx], eax

; 520  :             work = temp << n_lshift_bit_count; temp = pp[-15]; work |= temp >> n_rshift_bit_count; op[-15] = work;

	mov	edx, DWORD PTR _temp$3[ebp]
	mov	ecx, DWORD PTR _n_lshift_bit_count$[ebp]
	shl	edx, cl
	mov	DWORD PTR _work$2[ebp], edx
	mov	eax, 4
	imul	ecx, eax, -15
	mov	edx, DWORD PTR _pp$[ebp]
	mov	eax, DWORD PTR [edx+ecx]
	mov	DWORD PTR _temp$3[ebp], eax
	mov	edx, DWORD PTR _temp$3[ebp]
	mov	ecx, DWORD PTR _n_rshift_bit_count$4[ebp]
	shr	edx, cl
	or	edx, DWORD PTR _work$2[ebp]
	mov	DWORD PTR _work$2[ebp], edx
	mov	eax, 4
	imul	ecx, eax, -15
	mov	edx, DWORD PTR _op$[ebp]
	mov	eax, DWORD PTR _work$2[ebp]
	mov	DWORD PTR [edx+ecx], eax

; 521  :             pp -= 16;

	mov	ecx, DWORD PTR _pp$[ebp]
	sub	ecx, 64					; 00000040H
	mov	DWORD PTR _pp$[ebp], ecx

; 522  :             op -= 16;

	mov	edx, DWORD PTR _op$[ebp]
	sub	edx, 64					; 00000040H
	mov	DWORD PTR _op$[ebp], edx
$LN8@LeftShift_:

; 523  :         }
; 524  : 
; 525  :         if (p_count & 0x8)

	mov	eax, DWORD PTR _p_count$[ebp]
	and	eax, 8
	je	$LN9@LeftShift_

; 526  :         {
; 527  :             work = temp << n_lshift_bit_count; temp = pp[-0]; work |= temp >> n_rshift_bit_count; op[-0] = work;

	mov	edx, DWORD PTR _temp$3[ebp]
	mov	ecx, DWORD PTR _n_lshift_bit_count$[ebp]
	shl	edx, cl
	mov	DWORD PTR _work$2[ebp], edx
	mov	eax, 4
	imul	ecx, eax, 0
	mov	edx, DWORD PTR _pp$[ebp]
	mov	eax, DWORD PTR [edx+ecx]
	mov	DWORD PTR _temp$3[ebp], eax
	mov	edx, DWORD PTR _temp$3[ebp]
	mov	ecx, DWORD PTR _n_rshift_bit_count$4[ebp]
	shr	edx, cl
	or	edx, DWORD PTR _work$2[ebp]
	mov	DWORD PTR _work$2[ebp], edx
	mov	eax, 4
	imul	ecx, eax, 0
	mov	edx, DWORD PTR _op$[ebp]
	mov	eax, DWORD PTR _work$2[ebp]
	mov	DWORD PTR [edx+ecx], eax

; 528  :             work = temp << n_lshift_bit_count; temp = pp[-1]; work |= temp >> n_rshift_bit_count; op[-1] = work;

	mov	edx, DWORD PTR _temp$3[ebp]
	mov	ecx, DWORD PTR _n_lshift_bit_count$[ebp]
	shl	edx, cl
	mov	DWORD PTR _work$2[ebp], edx
	mov	eax, 4
	imul	ecx, eax, -1
	mov	edx, DWORD PTR _pp$[ebp]
	mov	eax, DWORD PTR [edx+ecx]
	mov	DWORD PTR _temp$3[ebp], eax
	mov	edx, DWORD PTR _temp$3[ebp]
	mov	ecx, DWORD PTR _n_rshift_bit_count$4[ebp]
	shr	edx, cl
	or	edx, DWORD PTR _work$2[ebp]
	mov	DWORD PTR _work$2[ebp], edx
	mov	eax, 4
	imul	ecx, eax, -1
	mov	edx, DWORD PTR _op$[ebp]
	mov	eax, DWORD PTR _work$2[ebp]
	mov	DWORD PTR [edx+ecx], eax

; 529  :             work = temp << n_lshift_bit_count; temp = pp[-2]; work |= temp >> n_rshift_bit_count; op[-2] = work;

	mov	edx, DWORD PTR _temp$3[ebp]
	mov	ecx, DWORD PTR _n_lshift_bit_count$[ebp]
	shl	edx, cl
	mov	DWORD PTR _work$2[ebp], edx
	mov	eax, 4
	imul	ecx, eax, -2
	mov	edx, DWORD PTR _pp$[ebp]
	mov	eax, DWORD PTR [edx+ecx]
	mov	DWORD PTR _temp$3[ebp], eax
	mov	edx, DWORD PTR _temp$3[ebp]
	mov	ecx, DWORD PTR _n_rshift_bit_count$4[ebp]
	shr	edx, cl
	or	edx, DWORD PTR _work$2[ebp]
	mov	DWORD PTR _work$2[ebp], edx
	mov	eax, 4
	imul	ecx, eax, -2
	mov	edx, DWORD PTR _op$[ebp]
	mov	eax, DWORD PTR _work$2[ebp]
	mov	DWORD PTR [edx+ecx], eax

; 530  :             work = temp << n_lshift_bit_count; temp = pp[-3]; work |= temp >> n_rshift_bit_count; op[-3] = work;

	mov	edx, DWORD PTR _temp$3[ebp]
	mov	ecx, DWORD PTR _n_lshift_bit_count$[ebp]
	shl	edx, cl
	mov	DWORD PTR _work$2[ebp], edx
	mov	eax, 4
	imul	ecx, eax, -3
	mov	edx, DWORD PTR _pp$[ebp]
	mov	eax, DWORD PTR [edx+ecx]
	mov	DWORD PTR _temp$3[ebp], eax
	mov	edx, DWORD PTR _temp$3[ebp]
	mov	ecx, DWORD PTR _n_rshift_bit_count$4[ebp]
	shr	edx, cl
	or	edx, DWORD PTR _work$2[ebp]
	mov	DWORD PTR _work$2[ebp], edx
	mov	eax, 4
	imul	ecx, eax, -3
	mov	edx, DWORD PTR _op$[ebp]
	mov	eax, DWORD PTR _work$2[ebp]
	mov	DWORD PTR [edx+ecx], eax

; 531  :             work = temp << n_lshift_bit_count; temp = pp[-4]; work |= temp >> n_rshift_bit_count; op[-4] = work;

	mov	edx, DWORD PTR _temp$3[ebp]
	mov	ecx, DWORD PTR _n_lshift_bit_count$[ebp]
	shl	edx, cl
	mov	DWORD PTR _work$2[ebp], edx
	mov	eax, 4
	imul	ecx, eax, -4
	mov	edx, DWORD PTR _pp$[ebp]
	mov	eax, DWORD PTR [edx+ecx]
	mov	DWORD PTR _temp$3[ebp], eax
	mov	edx, DWORD PTR _temp$3[ebp]
	mov	ecx, DWORD PTR _n_rshift_bit_count$4[ebp]
	shr	edx, cl
	or	edx, DWORD PTR _work$2[ebp]
	mov	DWORD PTR _work$2[ebp], edx
	mov	eax, 4
	imul	ecx, eax, -4
	mov	edx, DWORD PTR _op$[ebp]
	mov	eax, DWORD PTR _work$2[ebp]
	mov	DWORD PTR [edx+ecx], eax

; 532  :             work = temp << n_lshift_bit_count; temp = pp[-5]; work |= temp >> n_rshift_bit_count; op[-5] = work;

	mov	edx, DWORD PTR _temp$3[ebp]
	mov	ecx, DWORD PTR _n_lshift_bit_count$[ebp]
	shl	edx, cl
	mov	DWORD PTR _work$2[ebp], edx
	mov	eax, 4
	imul	ecx, eax, -5
	mov	edx, DWORD PTR _pp$[ebp]
	mov	eax, DWORD PTR [edx+ecx]
	mov	DWORD PTR _temp$3[ebp], eax
	mov	edx, DWORD PTR _temp$3[ebp]
	mov	ecx, DWORD PTR _n_rshift_bit_count$4[ebp]
	shr	edx, cl
	or	edx, DWORD PTR _work$2[ebp]
	mov	DWORD PTR _work$2[ebp], edx
	mov	eax, 4
	imul	ecx, eax, -5
	mov	edx, DWORD PTR _op$[ebp]
	mov	eax, DWORD PTR _work$2[ebp]
	mov	DWORD PTR [edx+ecx], eax

; 533  :             work = temp << n_lshift_bit_count; temp = pp[-6]; work |= temp >> n_rshift_bit_count; op[-6] = work;

	mov	edx, DWORD PTR _temp$3[ebp]
	mov	ecx, DWORD PTR _n_lshift_bit_count$[ebp]
	shl	edx, cl
	mov	DWORD PTR _work$2[ebp], edx
	mov	eax, 4
	imul	ecx, eax, -6
	mov	edx, DWORD PTR _pp$[ebp]
	mov	eax, DWORD PTR [edx+ecx]
	mov	DWORD PTR _temp$3[ebp], eax
	mov	edx, DWORD PTR _temp$3[ebp]
	mov	ecx, DWORD PTR _n_rshift_bit_count$4[ebp]
	shr	edx, cl
	or	edx, DWORD PTR _work$2[ebp]
	mov	DWORD PTR _work$2[ebp], edx
	mov	eax, 4
	imul	ecx, eax, -6
	mov	edx, DWORD PTR _op$[ebp]
	mov	eax, DWORD PTR _work$2[ebp]
	mov	DWORD PTR [edx+ecx], eax

; 534  :             work = temp << n_lshift_bit_count; temp = pp[-7]; work |= temp >> n_rshift_bit_count; op[-7] = work;

	mov	edx, DWORD PTR _temp$3[ebp]
	mov	ecx, DWORD PTR _n_lshift_bit_count$[ebp]
	shl	edx, cl
	mov	DWORD PTR _work$2[ebp], edx
	mov	eax, 4
	imul	ecx, eax, -7
	mov	edx, DWORD PTR _pp$[ebp]
	mov	eax, DWORD PTR [edx+ecx]
	mov	DWORD PTR _temp$3[ebp], eax
	mov	edx, DWORD PTR _temp$3[ebp]
	mov	ecx, DWORD PTR _n_rshift_bit_count$4[ebp]
	shr	edx, cl
	or	edx, DWORD PTR _work$2[ebp]
	mov	DWORD PTR _work$2[ebp], edx
	mov	eax, 4
	imul	ecx, eax, -7
	mov	edx, DWORD PTR _op$[ebp]
	mov	eax, DWORD PTR _work$2[ebp]
	mov	DWORD PTR [edx+ecx], eax

; 535  :             pp -= 8;

	mov	ecx, DWORD PTR _pp$[ebp]
	sub	ecx, 32					; 00000020H
	mov	DWORD PTR _pp$[ebp], ecx

; 536  :             op -= 8;

	mov	edx, DWORD PTR _op$[ebp]
	sub	edx, 32					; 00000020H
	mov	DWORD PTR _op$[ebp], edx
$LN9@LeftShift_:

; 537  :         }
; 538  : 
; 539  :         if (p_count & 0x4)

	mov	eax, DWORD PTR _p_count$[ebp]
	and	eax, 4
	je	$LN10@LeftShift_

; 540  :         {
; 541  :             work = temp << n_lshift_bit_count; temp = pp[-0]; work |= temp >> n_rshift_bit_count; op[-0] = work;

	mov	edx, DWORD PTR _temp$3[ebp]
	mov	ecx, DWORD PTR _n_lshift_bit_count$[ebp]
	shl	edx, cl
	mov	DWORD PTR _work$2[ebp], edx
	mov	eax, 4
	imul	ecx, eax, 0
	mov	edx, DWORD PTR _pp$[ebp]
	mov	eax, DWORD PTR [edx+ecx]
	mov	DWORD PTR _temp$3[ebp], eax
	mov	edx, DWORD PTR _temp$3[ebp]
	mov	ecx, DWORD PTR _n_rshift_bit_count$4[ebp]
	shr	edx, cl
	or	edx, DWORD PTR _work$2[ebp]
	mov	DWORD PTR _work$2[ebp], edx
	mov	eax, 4
	imul	ecx, eax, 0
	mov	edx, DWORD PTR _op$[ebp]
	mov	eax, DWORD PTR _work$2[ebp]
	mov	DWORD PTR [edx+ecx], eax

; 542  :             work = temp << n_lshift_bit_count; temp = pp[-1]; work |= temp >> n_rshift_bit_count; op[-1] = work;

	mov	edx, DWORD PTR _temp$3[ebp]
	mov	ecx, DWORD PTR _n_lshift_bit_count$[ebp]
	shl	edx, cl
	mov	DWORD PTR _work$2[ebp], edx
	mov	eax, 4
	imul	ecx, eax, -1
	mov	edx, DWORD PTR _pp$[ebp]
	mov	eax, DWORD PTR [edx+ecx]
	mov	DWORD PTR _temp$3[ebp], eax
	mov	edx, DWORD PTR _temp$3[ebp]
	mov	ecx, DWORD PTR _n_rshift_bit_count$4[ebp]
	shr	edx, cl
	or	edx, DWORD PTR _work$2[ebp]
	mov	DWORD PTR _work$2[ebp], edx
	mov	eax, 4
	imul	ecx, eax, -1
	mov	edx, DWORD PTR _op$[ebp]
	mov	eax, DWORD PTR _work$2[ebp]
	mov	DWORD PTR [edx+ecx], eax

; 543  :             work = temp << n_lshift_bit_count; temp = pp[-2]; work |= temp >> n_rshift_bit_count; op[-2] = work;

	mov	edx, DWORD PTR _temp$3[ebp]
	mov	ecx, DWORD PTR _n_lshift_bit_count$[ebp]
	shl	edx, cl
	mov	DWORD PTR _work$2[ebp], edx
	mov	eax, 4
	imul	ecx, eax, -2
	mov	edx, DWORD PTR _pp$[ebp]
	mov	eax, DWORD PTR [edx+ecx]
	mov	DWORD PTR _temp$3[ebp], eax
	mov	edx, DWORD PTR _temp$3[ebp]
	mov	ecx, DWORD PTR _n_rshift_bit_count$4[ebp]
	shr	edx, cl
	or	edx, DWORD PTR _work$2[ebp]
	mov	DWORD PTR _work$2[ebp], edx
	mov	eax, 4
	imul	ecx, eax, -2
	mov	edx, DWORD PTR _op$[ebp]
	mov	eax, DWORD PTR _work$2[ebp]
	mov	DWORD PTR [edx+ecx], eax

; 544  :             work = temp << n_lshift_bit_count; temp = pp[-3]; work |= temp >> n_rshift_bit_count; op[-3] = work;

	mov	edx, DWORD PTR _temp$3[ebp]
	mov	ecx, DWORD PTR _n_lshift_bit_count$[ebp]
	shl	edx, cl
	mov	DWORD PTR _work$2[ebp], edx
	mov	eax, 4
	imul	ecx, eax, -3
	mov	edx, DWORD PTR _pp$[ebp]
	mov	eax, DWORD PTR [edx+ecx]
	mov	DWORD PTR _temp$3[ebp], eax
	mov	edx, DWORD PTR _temp$3[ebp]
	mov	ecx, DWORD PTR _n_rshift_bit_count$4[ebp]
	shr	edx, cl
	or	edx, DWORD PTR _work$2[ebp]
	mov	DWORD PTR _work$2[ebp], edx
	mov	eax, 4
	imul	ecx, eax, -3
	mov	edx, DWORD PTR _op$[ebp]
	mov	eax, DWORD PTR _work$2[ebp]
	mov	DWORD PTR [edx+ecx], eax

; 545  :             pp -= 4;

	mov	ecx, DWORD PTR _pp$[ebp]
	sub	ecx, 16					; 00000010H
	mov	DWORD PTR _pp$[ebp], ecx

; 546  :             op -= 4;

	mov	edx, DWORD PTR _op$[ebp]
	sub	edx, 16					; 00000010H
	mov	DWORD PTR _op$[ebp], edx
$LN10@LeftShift_:

; 547  :         }
; 548  : 
; 549  :         if (p_count & 0x2)

	mov	eax, DWORD PTR _p_count$[ebp]
	and	eax, 2
	je	$LN11@LeftShift_

; 550  :         {
; 551  :             work = temp << n_lshift_bit_count; temp = pp[-0]; work |= temp >> n_rshift_bit_count; op[-0] = work;

	mov	edx, DWORD PTR _temp$3[ebp]
	mov	ecx, DWORD PTR _n_lshift_bit_count$[ebp]
	shl	edx, cl
	mov	DWORD PTR _work$2[ebp], edx
	mov	eax, 4
	imul	ecx, eax, 0
	mov	edx, DWORD PTR _pp$[ebp]
	mov	eax, DWORD PTR [edx+ecx]
	mov	DWORD PTR _temp$3[ebp], eax
	mov	edx, DWORD PTR _temp$3[ebp]
	mov	ecx, DWORD PTR _n_rshift_bit_count$4[ebp]
	shr	edx, cl
	or	edx, DWORD PTR _work$2[ebp]
	mov	DWORD PTR _work$2[ebp], edx
	mov	eax, 4
	imul	ecx, eax, 0
	mov	edx, DWORD PTR _op$[ebp]
	mov	eax, DWORD PTR _work$2[ebp]
	mov	DWORD PTR [edx+ecx], eax

; 552  :             work = temp << n_lshift_bit_count; temp = pp[-1]; work |= temp >> n_rshift_bit_count; op[-1] = work;

	mov	edx, DWORD PTR _temp$3[ebp]
	mov	ecx, DWORD PTR _n_lshift_bit_count$[ebp]
	shl	edx, cl
	mov	DWORD PTR _work$2[ebp], edx
	mov	eax, 4
	imul	ecx, eax, -1
	mov	edx, DWORD PTR _pp$[ebp]
	mov	eax, DWORD PTR [edx+ecx]
	mov	DWORD PTR _temp$3[ebp], eax
	mov	edx, DWORD PTR _temp$3[ebp]
	mov	ecx, DWORD PTR _n_rshift_bit_count$4[ebp]
	shr	edx, cl
	or	edx, DWORD PTR _work$2[ebp]
	mov	DWORD PTR _work$2[ebp], edx
	mov	eax, 4
	imul	ecx, eax, -1
	mov	edx, DWORD PTR _op$[ebp]
	mov	eax, DWORD PTR _work$2[ebp]
	mov	DWORD PTR [edx+ecx], eax

; 553  :             pp -= 2;

	mov	ecx, DWORD PTR _pp$[ebp]
	sub	ecx, 8
	mov	DWORD PTR _pp$[ebp], ecx

; 554  :             op -= 2;

	mov	edx, DWORD PTR _op$[ebp]
	sub	edx, 8
	mov	DWORD PTR _op$[ebp], edx
$LN11@LeftShift_:

; 555  :         }
; 556  : 
; 557  :         if (p_count & 0x1)

	mov	eax, DWORD PTR _p_count$[ebp]
	and	eax, 1
	je	SHORT $LN12@LeftShift_

; 558  :         {
; 559  :             work = temp << n_lshift_bit_count; temp = pp[-0]; work |= temp >> n_rshift_bit_count; op[-0] = work;

	mov	edx, DWORD PTR _temp$3[ebp]
	mov	ecx, DWORD PTR _n_lshift_bit_count$[ebp]
	shl	edx, cl
	mov	DWORD PTR _work$2[ebp], edx
	mov	eax, 4
	imul	ecx, eax, 0
	mov	edx, DWORD PTR _pp$[ebp]
	mov	eax, DWORD PTR [edx+ecx]
	mov	DWORD PTR _temp$3[ebp], eax
	mov	edx, DWORD PTR _temp$3[ebp]
	mov	ecx, DWORD PTR _n_rshift_bit_count$4[ebp]
	shr	edx, cl
	or	edx, DWORD PTR _work$2[ebp]
	mov	DWORD PTR _work$2[ebp], edx
	mov	eax, 4
	imul	ecx, eax, 0
	mov	edx, DWORD PTR _op$[ebp]
	mov	eax, DWORD PTR _work$2[ebp]
	mov	DWORD PTR [edx+ecx], eax

; 560  :             pp -= 1;

	mov	ecx, DWORD PTR _pp$[ebp]
	sub	ecx, 4
	mov	DWORD PTR _pp$[ebp], ecx

; 561  :             op -= 1;

	mov	edx, DWORD PTR _op$[ebp]
	sub	edx, 4
	mov	DWORD PTR _op$[ebp], edx
$LN12@LeftShift_:

; 562  :         }
; 563  :         work = temp << n_lshift_bit_count;

	mov	eax, DWORD PTR _temp$3[ebp]
	mov	ecx, DWORD PTR _n_lshift_bit_count$[ebp]
	shl	eax, cl
	mov	DWORD PTR _work$2[ebp], eax

; 564  :         *op = work;

	mov	ecx, DWORD PTR _op$[ebp]
	mov	edx, DWORD PTR _work$2[ebp]
	mov	DWORD PTR [ecx], edx

; 565  : 
; 566  :         if (padding_zero)

	cmp	DWORD PTR _padding_zero$[ebp], 0
	je	SHORT $LN1@LeftShift_

; 567  :             _ZERO_MEMORY_UNIT_DIV(o, n_word_count);

	mov	eax, DWORD PTR _n_word_count$[ebp]
	push	eax
	mov	ecx, DWORD PTR _o$[ebp]
	push	ecx
	call	__ZERO_MEMORY_UNIT_DIV
	add	esp, 8
$LN1@LeftShift_:

; 568  :     }
; 569  : }

	add	esp, 36					; 00000024H
	cmp	ebp, esp
	call	__RTC_CheckEsp
	mov	esp, ebp
	pop	ebp
	ret	0
_LeftShift_Imp_DIV ENDP
_TEXT	ENDS
; Function compile flags: /Odtp /RTCsu
; File z:\sources\lunor\repos\rougemeilland\palmtree.math.core.uint\palmtree.math.core.uint\pmc_shift.c
_TEXT	SEGMENT
_count$1 = -40						; size = 4
_t_count$2 = -36					; size = 4
_work$3 = -32						; size = 4
_temp$4 = -28						; size = 4
_n_lshift_bit_count$5 = -24				; size = 4
_n_rshift_bit_count$ = -20				; size = 4
_n_word_count$ = -16					; size = 4
_op$ = -12						; size = 4
_p_count$ = -8						; size = 4
_pp$ = -4						; size = 4
_p$ = 8							; size = 4
_p_word_count$ = 12					; size = 4
_n$ = 16						; size = 4
_o$ = 20						; size = 4
_padding_zero$ = 24					; size = 4
_RightShift_Imp PROC

; 32   : {

	push	ebp
	mov	ebp, esp
	sub	esp, 40					; 00000028H
	push	edi
	lea	edi, DWORD PTR [ebp-40]
	mov	ecx, 10					; 0000000aH
	mov	eax, -858993460				; ccccccccH
	rep stosd
	mov	ecx, OFFSET __372CD743_pmc_shift@c
	call	@__CheckForDebuggerJustMyCode@4

; 33   :     __UNIT_TYPE* pp = p;

	mov	eax, DWORD PTR _p$[ebp]
	mov	DWORD PTR _pp$[ebp], eax

; 34   :     __UNIT_TYPE p_count = p_word_count;

	mov	ecx, DWORD PTR _p_word_count$[ebp]
	mov	DWORD PTR _p_count$[ebp], ecx

; 35   :     __UNIT_TYPE* op = o;

	mov	edx, DWORD PTR _o$[ebp]
	mov	DWORD PTR _op$[ebp], edx

; 36   :     // n_word_count ワード右に移動し、更に n_bit_count ビット右に移動する。
; 37   :     __UNIT_TYPE n_word_count = n / __UNIT_TYPE_BIT_COUNT;

	mov	eax, DWORD PTR _n$[ebp]
	shr	eax, 5
	mov	DWORD PTR _n_word_count$[ebp], eax

; 38   :     __UNIT_TYPE n_rshift_bit_count = n % __UNIT_TYPE_BIT_COUNT;

	mov	eax, DWORD PTR _n$[ebp]
	xor	edx, edx
	mov	ecx, 32					; 00000020H
	div	ecx
	mov	DWORD PTR _n_rshift_bit_count$[ebp], edx

; 39   :     if (n_rshift_bit_count == 0)

	cmp	DWORD PTR _n_rshift_bit_count$[ebp], 0
	jne	SHORT $LN4@RightShift

; 40   :     {
; 41   :         // シフト数がちょうどワード境界分であれば単にワード単位のデータ移動のみ行う。
; 42   :         _COPY_MEMORY_UNIT(op, pp + n_word_count, p_count - n_word_count);

	mov	edx, DWORD PTR _p_count$[ebp]
	sub	edx, DWORD PTR _n_word_count$[ebp]
	push	edx
	mov	eax, DWORD PTR _n_word_count$[ebp]
	mov	ecx, DWORD PTR _pp$[ebp]
	lea	edx, DWORD PTR [ecx+eax*4]
	push	edx
	mov	eax, DWORD PTR _op$[ebp]
	push	eax
	call	__COPY_MEMORY_UNIT
	add	esp, 12					; 0000000cH

; 43   :         if (padding_zero)

	cmp	DWORD PTR _padding_zero$[ebp], 0
	je	SHORT $LN6@RightShift

; 44   :             _ZERO_MEMORY_UNIT(op + p_count - n_word_count, n_word_count);

	mov	ecx, DWORD PTR _n_word_count$[ebp]
	push	ecx
	mov	edx, DWORD PTR _p_count$[ebp]
	mov	eax, DWORD PTR _op$[ebp]
	lea	ecx, DWORD PTR [eax+edx*4]
	mov	edx, DWORD PTR _n_word_count$[ebp]
	shl	edx, 2
	sub	ecx, edx
	push	ecx
	call	__ZERO_MEMORY_UNIT
	add	esp, 8
$LN6@RightShift:

; 45   :     }

	jmp	$LN1@RightShift
$LN4@RightShift:

; 46   :     else
; 47   :     {
; 48   :         pp += n_word_count;

	mov	eax, DWORD PTR _n_word_count$[ebp]
	mov	ecx, DWORD PTR _pp$[ebp]
	lea	edx, DWORD PTR [ecx+eax*4]
	mov	DWORD PTR _pp$[ebp], edx

; 49   :         __UNIT_TYPE n_lshift_bit_count = __UNIT_TYPE_BIT_COUNT - n_rshift_bit_count;

	mov	eax, 32					; 00000020H
	sub	eax, DWORD PTR _n_rshift_bit_count$[ebp]
	mov	DWORD PTR _n_lshift_bit_count$5[ebp], eax

; 50   :         // p_count - n_word_count 回繰り返し
; 51   : 
; 52   :         __UNIT_TYPE temp = *pp++;

	mov	ecx, DWORD PTR _pp$[ebp]
	mov	edx, DWORD PTR [ecx]
	mov	DWORD PTR _temp$4[ebp], edx
	mov	eax, DWORD PTR _pp$[ebp]
	add	eax, 4
	mov	DWORD PTR _pp$[ebp], eax

; 53   :         __UNIT_TYPE work;
; 54   :         __UNIT_TYPE t_count = p_count - n_word_count - 1;

	mov	ecx, DWORD PTR _p_count$[ebp]
	sub	ecx, DWORD PTR _n_word_count$[ebp]
	sub	ecx, 1
	mov	DWORD PTR _t_count$2[ebp], ecx

; 55   : 
; 56   :         __UNIT_TYPE count = t_count >> 5;

	mov	edx, DWORD PTR _t_count$2[ebp]
	shr	edx, 5
	mov	DWORD PTR _count$1[ebp], edx
$LN2@RightShift:

; 57   :         while ( count > 0)

	cmp	DWORD PTR _count$1[ebp], 0
	jbe	$LN3@RightShift

; 58   :         {
; 59   :             work = temp >> n_rshift_bit_count; temp = pp[0]; work |= temp << n_lshift_bit_count; op[0] = work;

	mov	eax, DWORD PTR _temp$4[ebp]
	mov	ecx, DWORD PTR _n_rshift_bit_count$[ebp]
	shr	eax, cl
	mov	DWORD PTR _work$3[ebp], eax
	mov	ecx, 4
	imul	edx, ecx, 0
	mov	eax, DWORD PTR _pp$[ebp]
	mov	ecx, DWORD PTR [eax+edx]
	mov	DWORD PTR _temp$4[ebp], ecx
	mov	edx, DWORD PTR _temp$4[ebp]
	mov	ecx, DWORD PTR _n_lshift_bit_count$5[ebp]
	shl	edx, cl
	or	edx, DWORD PTR _work$3[ebp]
	mov	DWORD PTR _work$3[ebp], edx
	mov	eax, 4
	imul	ecx, eax, 0
	mov	edx, DWORD PTR _op$[ebp]
	mov	eax, DWORD PTR _work$3[ebp]
	mov	DWORD PTR [edx+ecx], eax

; 60   :             work = temp >> n_rshift_bit_count; temp = pp[1]; work |= temp << n_lshift_bit_count; op[1] = work;

	mov	edx, DWORD PTR _temp$4[ebp]
	mov	ecx, DWORD PTR _n_rshift_bit_count$[ebp]
	shr	edx, cl
	mov	DWORD PTR _work$3[ebp], edx
	mov	eax, 4
	shl	eax, 0
	mov	ecx, DWORD PTR _pp$[ebp]
	mov	edx, DWORD PTR [ecx+eax]
	mov	DWORD PTR _temp$4[ebp], edx
	mov	eax, DWORD PTR _temp$4[ebp]
	mov	ecx, DWORD PTR _n_lshift_bit_count$5[ebp]
	shl	eax, cl
	or	eax, DWORD PTR _work$3[ebp]
	mov	DWORD PTR _work$3[ebp], eax
	mov	ecx, 4
	shl	ecx, 0
	mov	edx, DWORD PTR _op$[ebp]
	mov	eax, DWORD PTR _work$3[ebp]
	mov	DWORD PTR [edx+ecx], eax

; 61   :             work = temp >> n_rshift_bit_count; temp = pp[2]; work |= temp << n_lshift_bit_count; op[2] = work;

	mov	edx, DWORD PTR _temp$4[ebp]
	mov	ecx, DWORD PTR _n_rshift_bit_count$[ebp]
	shr	edx, cl
	mov	DWORD PTR _work$3[ebp], edx
	mov	eax, 4
	shl	eax, 1
	mov	ecx, DWORD PTR _pp$[ebp]
	mov	edx, DWORD PTR [ecx+eax]
	mov	DWORD PTR _temp$4[ebp], edx
	mov	eax, DWORD PTR _temp$4[ebp]
	mov	ecx, DWORD PTR _n_lshift_bit_count$5[ebp]
	shl	eax, cl
	or	eax, DWORD PTR _work$3[ebp]
	mov	DWORD PTR _work$3[ebp], eax
	mov	ecx, 4
	shl	ecx, 1
	mov	edx, DWORD PTR _op$[ebp]
	mov	eax, DWORD PTR _work$3[ebp]
	mov	DWORD PTR [edx+ecx], eax

; 62   :             work = temp >> n_rshift_bit_count; temp = pp[3]; work |= temp << n_lshift_bit_count; op[3] = work;

	mov	edx, DWORD PTR _temp$4[ebp]
	mov	ecx, DWORD PTR _n_rshift_bit_count$[ebp]
	shr	edx, cl
	mov	DWORD PTR _work$3[ebp], edx
	mov	eax, 4
	imul	ecx, eax, 3
	mov	edx, DWORD PTR _pp$[ebp]
	mov	eax, DWORD PTR [edx+ecx]
	mov	DWORD PTR _temp$4[ebp], eax
	mov	edx, DWORD PTR _temp$4[ebp]
	mov	ecx, DWORD PTR _n_lshift_bit_count$5[ebp]
	shl	edx, cl
	or	edx, DWORD PTR _work$3[ebp]
	mov	DWORD PTR _work$3[ebp], edx
	mov	eax, 4
	imul	ecx, eax, 3
	mov	edx, DWORD PTR _op$[ebp]
	mov	eax, DWORD PTR _work$3[ebp]
	mov	DWORD PTR [edx+ecx], eax

; 63   :             work = temp >> n_rshift_bit_count; temp = pp[4]; work |= temp << n_lshift_bit_count; op[4] = work;

	mov	edx, DWORD PTR _temp$4[ebp]
	mov	ecx, DWORD PTR _n_rshift_bit_count$[ebp]
	shr	edx, cl
	mov	DWORD PTR _work$3[ebp], edx
	mov	eax, 4
	shl	eax, 2
	mov	ecx, DWORD PTR _pp$[ebp]
	mov	edx, DWORD PTR [ecx+eax]
	mov	DWORD PTR _temp$4[ebp], edx
	mov	eax, DWORD PTR _temp$4[ebp]
	mov	ecx, DWORD PTR _n_lshift_bit_count$5[ebp]
	shl	eax, cl
	or	eax, DWORD PTR _work$3[ebp]
	mov	DWORD PTR _work$3[ebp], eax
	mov	ecx, 4
	shl	ecx, 2
	mov	edx, DWORD PTR _op$[ebp]
	mov	eax, DWORD PTR _work$3[ebp]
	mov	DWORD PTR [edx+ecx], eax

; 64   :             work = temp >> n_rshift_bit_count; temp = pp[5]; work |= temp << n_lshift_bit_count; op[5] = work;

	mov	edx, DWORD PTR _temp$4[ebp]
	mov	ecx, DWORD PTR _n_rshift_bit_count$[ebp]
	shr	edx, cl
	mov	DWORD PTR _work$3[ebp], edx
	mov	eax, 4
	imul	ecx, eax, 5
	mov	edx, DWORD PTR _pp$[ebp]
	mov	eax, DWORD PTR [edx+ecx]
	mov	DWORD PTR _temp$4[ebp], eax
	mov	edx, DWORD PTR _temp$4[ebp]
	mov	ecx, DWORD PTR _n_lshift_bit_count$5[ebp]
	shl	edx, cl
	or	edx, DWORD PTR _work$3[ebp]
	mov	DWORD PTR _work$3[ebp], edx
	mov	eax, 4
	imul	ecx, eax, 5
	mov	edx, DWORD PTR _op$[ebp]
	mov	eax, DWORD PTR _work$3[ebp]
	mov	DWORD PTR [edx+ecx], eax

; 65   :             work = temp >> n_rshift_bit_count; temp = pp[6]; work |= temp << n_lshift_bit_count; op[6] = work;

	mov	edx, DWORD PTR _temp$4[ebp]
	mov	ecx, DWORD PTR _n_rshift_bit_count$[ebp]
	shr	edx, cl
	mov	DWORD PTR _work$3[ebp], edx
	mov	eax, 4
	imul	ecx, eax, 6
	mov	edx, DWORD PTR _pp$[ebp]
	mov	eax, DWORD PTR [edx+ecx]
	mov	DWORD PTR _temp$4[ebp], eax
	mov	edx, DWORD PTR _temp$4[ebp]
	mov	ecx, DWORD PTR _n_lshift_bit_count$5[ebp]
	shl	edx, cl
	or	edx, DWORD PTR _work$3[ebp]
	mov	DWORD PTR _work$3[ebp], edx
	mov	eax, 4
	imul	ecx, eax, 6
	mov	edx, DWORD PTR _op$[ebp]
	mov	eax, DWORD PTR _work$3[ebp]
	mov	DWORD PTR [edx+ecx], eax

; 66   :             work = temp >> n_rshift_bit_count; temp = pp[7]; work |= temp << n_lshift_bit_count; op[7] = work;

	mov	edx, DWORD PTR _temp$4[ebp]
	mov	ecx, DWORD PTR _n_rshift_bit_count$[ebp]
	shr	edx, cl
	mov	DWORD PTR _work$3[ebp], edx
	mov	eax, 4
	imul	ecx, eax, 7
	mov	edx, DWORD PTR _pp$[ebp]
	mov	eax, DWORD PTR [edx+ecx]
	mov	DWORD PTR _temp$4[ebp], eax
	mov	edx, DWORD PTR _temp$4[ebp]
	mov	ecx, DWORD PTR _n_lshift_bit_count$5[ebp]
	shl	edx, cl
	or	edx, DWORD PTR _work$3[ebp]
	mov	DWORD PTR _work$3[ebp], edx
	mov	eax, 4
	imul	ecx, eax, 7
	mov	edx, DWORD PTR _op$[ebp]
	mov	eax, DWORD PTR _work$3[ebp]
	mov	DWORD PTR [edx+ecx], eax

; 67   :             work = temp >> n_rshift_bit_count; temp = pp[8]; work |= temp << n_lshift_bit_count; op[8] = work;

	mov	edx, DWORD PTR _temp$4[ebp]
	mov	ecx, DWORD PTR _n_rshift_bit_count$[ebp]
	shr	edx, cl
	mov	DWORD PTR _work$3[ebp], edx
	mov	eax, 4
	shl	eax, 3
	mov	ecx, DWORD PTR _pp$[ebp]
	mov	edx, DWORD PTR [ecx+eax]
	mov	DWORD PTR _temp$4[ebp], edx
	mov	eax, DWORD PTR _temp$4[ebp]
	mov	ecx, DWORD PTR _n_lshift_bit_count$5[ebp]
	shl	eax, cl
	or	eax, DWORD PTR _work$3[ebp]
	mov	DWORD PTR _work$3[ebp], eax
	mov	ecx, 4
	shl	ecx, 3
	mov	edx, DWORD PTR _op$[ebp]
	mov	eax, DWORD PTR _work$3[ebp]
	mov	DWORD PTR [edx+ecx], eax

; 68   :             work = temp >> n_rshift_bit_count; temp = pp[9]; work |= temp << n_lshift_bit_count; op[9] = work;

	mov	edx, DWORD PTR _temp$4[ebp]
	mov	ecx, DWORD PTR _n_rshift_bit_count$[ebp]
	shr	edx, cl
	mov	DWORD PTR _work$3[ebp], edx
	mov	eax, 4
	imul	ecx, eax, 9
	mov	edx, DWORD PTR _pp$[ebp]
	mov	eax, DWORD PTR [edx+ecx]
	mov	DWORD PTR _temp$4[ebp], eax
	mov	edx, DWORD PTR _temp$4[ebp]
	mov	ecx, DWORD PTR _n_lshift_bit_count$5[ebp]
	shl	edx, cl
	or	edx, DWORD PTR _work$3[ebp]
	mov	DWORD PTR _work$3[ebp], edx
	mov	eax, 4
	imul	ecx, eax, 9
	mov	edx, DWORD PTR _op$[ebp]
	mov	eax, DWORD PTR _work$3[ebp]
	mov	DWORD PTR [edx+ecx], eax

; 69   :             work = temp >> n_rshift_bit_count; temp = pp[10]; work |= temp << n_lshift_bit_count; op[10] = work;

	mov	edx, DWORD PTR _temp$4[ebp]
	mov	ecx, DWORD PTR _n_rshift_bit_count$[ebp]
	shr	edx, cl
	mov	DWORD PTR _work$3[ebp], edx
	mov	eax, 4
	imul	ecx, eax, 10
	mov	edx, DWORD PTR _pp$[ebp]
	mov	eax, DWORD PTR [edx+ecx]
	mov	DWORD PTR _temp$4[ebp], eax
	mov	edx, DWORD PTR _temp$4[ebp]
	mov	ecx, DWORD PTR _n_lshift_bit_count$5[ebp]
	shl	edx, cl
	or	edx, DWORD PTR _work$3[ebp]
	mov	DWORD PTR _work$3[ebp], edx
	mov	eax, 4
	imul	ecx, eax, 10
	mov	edx, DWORD PTR _op$[ebp]
	mov	eax, DWORD PTR _work$3[ebp]
	mov	DWORD PTR [edx+ecx], eax

; 70   :             work = temp >> n_rshift_bit_count; temp = pp[11]; work |= temp << n_lshift_bit_count; op[11] = work;

	mov	edx, DWORD PTR _temp$4[ebp]
	mov	ecx, DWORD PTR _n_rshift_bit_count$[ebp]
	shr	edx, cl
	mov	DWORD PTR _work$3[ebp], edx
	mov	eax, 4
	imul	ecx, eax, 11
	mov	edx, DWORD PTR _pp$[ebp]
	mov	eax, DWORD PTR [edx+ecx]
	mov	DWORD PTR _temp$4[ebp], eax
	mov	edx, DWORD PTR _temp$4[ebp]
	mov	ecx, DWORD PTR _n_lshift_bit_count$5[ebp]
	shl	edx, cl
	or	edx, DWORD PTR _work$3[ebp]
	mov	DWORD PTR _work$3[ebp], edx
	mov	eax, 4
	imul	ecx, eax, 11
	mov	edx, DWORD PTR _op$[ebp]
	mov	eax, DWORD PTR _work$3[ebp]
	mov	DWORD PTR [edx+ecx], eax

; 71   :             work = temp >> n_rshift_bit_count; temp = pp[12]; work |= temp << n_lshift_bit_count; op[12] = work;

	mov	edx, DWORD PTR _temp$4[ebp]
	mov	ecx, DWORD PTR _n_rshift_bit_count$[ebp]
	shr	edx, cl
	mov	DWORD PTR _work$3[ebp], edx
	mov	eax, 4
	imul	ecx, eax, 12
	mov	edx, DWORD PTR _pp$[ebp]
	mov	eax, DWORD PTR [edx+ecx]
	mov	DWORD PTR _temp$4[ebp], eax
	mov	edx, DWORD PTR _temp$4[ebp]
	mov	ecx, DWORD PTR _n_lshift_bit_count$5[ebp]
	shl	edx, cl
	or	edx, DWORD PTR _work$3[ebp]
	mov	DWORD PTR _work$3[ebp], edx
	mov	eax, 4
	imul	ecx, eax, 12
	mov	edx, DWORD PTR _op$[ebp]
	mov	eax, DWORD PTR _work$3[ebp]
	mov	DWORD PTR [edx+ecx], eax

; 72   :             work = temp >> n_rshift_bit_count; temp = pp[13]; work |= temp << n_lshift_bit_count; op[13] = work;

	mov	edx, DWORD PTR _temp$4[ebp]
	mov	ecx, DWORD PTR _n_rshift_bit_count$[ebp]
	shr	edx, cl
	mov	DWORD PTR _work$3[ebp], edx
	mov	eax, 4
	imul	ecx, eax, 13
	mov	edx, DWORD PTR _pp$[ebp]
	mov	eax, DWORD PTR [edx+ecx]
	mov	DWORD PTR _temp$4[ebp], eax
	mov	edx, DWORD PTR _temp$4[ebp]
	mov	ecx, DWORD PTR _n_lshift_bit_count$5[ebp]
	shl	edx, cl
	or	edx, DWORD PTR _work$3[ebp]
	mov	DWORD PTR _work$3[ebp], edx
	mov	eax, 4
	imul	ecx, eax, 13
	mov	edx, DWORD PTR _op$[ebp]
	mov	eax, DWORD PTR _work$3[ebp]
	mov	DWORD PTR [edx+ecx], eax

; 73   :             work = temp >> n_rshift_bit_count; temp = pp[14]; work |= temp << n_lshift_bit_count; op[14] = work;

	mov	edx, DWORD PTR _temp$4[ebp]
	mov	ecx, DWORD PTR _n_rshift_bit_count$[ebp]
	shr	edx, cl
	mov	DWORD PTR _work$3[ebp], edx
	mov	eax, 4
	imul	ecx, eax, 14
	mov	edx, DWORD PTR _pp$[ebp]
	mov	eax, DWORD PTR [edx+ecx]
	mov	DWORD PTR _temp$4[ebp], eax
	mov	edx, DWORD PTR _temp$4[ebp]
	mov	ecx, DWORD PTR _n_lshift_bit_count$5[ebp]
	shl	edx, cl
	or	edx, DWORD PTR _work$3[ebp]
	mov	DWORD PTR _work$3[ebp], edx
	mov	eax, 4
	imul	ecx, eax, 14
	mov	edx, DWORD PTR _op$[ebp]
	mov	eax, DWORD PTR _work$3[ebp]
	mov	DWORD PTR [edx+ecx], eax

; 74   :             work = temp >> n_rshift_bit_count; temp = pp[15]; work |= temp << n_lshift_bit_count; op[15] = work;

	mov	edx, DWORD PTR _temp$4[ebp]
	mov	ecx, DWORD PTR _n_rshift_bit_count$[ebp]
	shr	edx, cl
	mov	DWORD PTR _work$3[ebp], edx
	mov	eax, 4
	imul	ecx, eax, 15
	mov	edx, DWORD PTR _pp$[ebp]
	mov	eax, DWORD PTR [edx+ecx]
	mov	DWORD PTR _temp$4[ebp], eax
	mov	edx, DWORD PTR _temp$4[ebp]
	mov	ecx, DWORD PTR _n_lshift_bit_count$5[ebp]
	shl	edx, cl
	or	edx, DWORD PTR _work$3[ebp]
	mov	DWORD PTR _work$3[ebp], edx
	mov	eax, 4
	imul	ecx, eax, 15
	mov	edx, DWORD PTR _op$[ebp]
	mov	eax, DWORD PTR _work$3[ebp]
	mov	DWORD PTR [edx+ecx], eax

; 75   :             work = temp >> n_rshift_bit_count; temp = pp[16]; work |= temp << n_lshift_bit_count; op[16] = work;

	mov	edx, DWORD PTR _temp$4[ebp]
	mov	ecx, DWORD PTR _n_rshift_bit_count$[ebp]
	shr	edx, cl
	mov	DWORD PTR _work$3[ebp], edx
	mov	eax, 4
	shl	eax, 4
	mov	ecx, DWORD PTR _pp$[ebp]
	mov	edx, DWORD PTR [ecx+eax]
	mov	DWORD PTR _temp$4[ebp], edx
	mov	eax, DWORD PTR _temp$4[ebp]
	mov	ecx, DWORD PTR _n_lshift_bit_count$5[ebp]
	shl	eax, cl
	or	eax, DWORD PTR _work$3[ebp]
	mov	DWORD PTR _work$3[ebp], eax
	mov	ecx, 4
	shl	ecx, 4
	mov	edx, DWORD PTR _op$[ebp]
	mov	eax, DWORD PTR _work$3[ebp]
	mov	DWORD PTR [edx+ecx], eax

; 76   :             work = temp >> n_rshift_bit_count; temp = pp[17]; work |= temp << n_lshift_bit_count; op[17] = work;

	mov	edx, DWORD PTR _temp$4[ebp]
	mov	ecx, DWORD PTR _n_rshift_bit_count$[ebp]
	shr	edx, cl
	mov	DWORD PTR _work$3[ebp], edx
	mov	eax, 4
	imul	ecx, eax, 17
	mov	edx, DWORD PTR _pp$[ebp]
	mov	eax, DWORD PTR [edx+ecx]
	mov	DWORD PTR _temp$4[ebp], eax
	mov	edx, DWORD PTR _temp$4[ebp]
	mov	ecx, DWORD PTR _n_lshift_bit_count$5[ebp]
	shl	edx, cl
	or	edx, DWORD PTR _work$3[ebp]
	mov	DWORD PTR _work$3[ebp], edx
	mov	eax, 4
	imul	ecx, eax, 17
	mov	edx, DWORD PTR _op$[ebp]
	mov	eax, DWORD PTR _work$3[ebp]
	mov	DWORD PTR [edx+ecx], eax

; 77   :             work = temp >> n_rshift_bit_count; temp = pp[18]; work |= temp << n_lshift_bit_count; op[18] = work;

	mov	edx, DWORD PTR _temp$4[ebp]
	mov	ecx, DWORD PTR _n_rshift_bit_count$[ebp]
	shr	edx, cl
	mov	DWORD PTR _work$3[ebp], edx
	mov	eax, 4
	imul	ecx, eax, 18
	mov	edx, DWORD PTR _pp$[ebp]
	mov	eax, DWORD PTR [edx+ecx]
	mov	DWORD PTR _temp$4[ebp], eax
	mov	edx, DWORD PTR _temp$4[ebp]
	mov	ecx, DWORD PTR _n_lshift_bit_count$5[ebp]
	shl	edx, cl
	or	edx, DWORD PTR _work$3[ebp]
	mov	DWORD PTR _work$3[ebp], edx
	mov	eax, 4
	imul	ecx, eax, 18
	mov	edx, DWORD PTR _op$[ebp]
	mov	eax, DWORD PTR _work$3[ebp]
	mov	DWORD PTR [edx+ecx], eax

; 78   :             work = temp >> n_rshift_bit_count; temp = pp[19]; work |= temp << n_lshift_bit_count; op[19] = work;

	mov	edx, DWORD PTR _temp$4[ebp]
	mov	ecx, DWORD PTR _n_rshift_bit_count$[ebp]
	shr	edx, cl
	mov	DWORD PTR _work$3[ebp], edx
	mov	eax, 4
	imul	ecx, eax, 19
	mov	edx, DWORD PTR _pp$[ebp]
	mov	eax, DWORD PTR [edx+ecx]
	mov	DWORD PTR _temp$4[ebp], eax
	mov	edx, DWORD PTR _temp$4[ebp]
	mov	ecx, DWORD PTR _n_lshift_bit_count$5[ebp]
	shl	edx, cl
	or	edx, DWORD PTR _work$3[ebp]
	mov	DWORD PTR _work$3[ebp], edx
	mov	eax, 4
	imul	ecx, eax, 19
	mov	edx, DWORD PTR _op$[ebp]
	mov	eax, DWORD PTR _work$3[ebp]
	mov	DWORD PTR [edx+ecx], eax

; 79   :             work = temp >> n_rshift_bit_count; temp = pp[20]; work |= temp << n_lshift_bit_count; op[20] = work;

	mov	edx, DWORD PTR _temp$4[ebp]
	mov	ecx, DWORD PTR _n_rshift_bit_count$[ebp]
	shr	edx, cl
	mov	DWORD PTR _work$3[ebp], edx
	mov	eax, 4
	imul	ecx, eax, 20
	mov	edx, DWORD PTR _pp$[ebp]
	mov	eax, DWORD PTR [edx+ecx]
	mov	DWORD PTR _temp$4[ebp], eax
	mov	edx, DWORD PTR _temp$4[ebp]
	mov	ecx, DWORD PTR _n_lshift_bit_count$5[ebp]
	shl	edx, cl
	or	edx, DWORD PTR _work$3[ebp]
	mov	DWORD PTR _work$3[ebp], edx
	mov	eax, 4
	imul	ecx, eax, 20
	mov	edx, DWORD PTR _op$[ebp]
	mov	eax, DWORD PTR _work$3[ebp]
	mov	DWORD PTR [edx+ecx], eax

; 80   :             work = temp >> n_rshift_bit_count; temp = pp[21]; work |= temp << n_lshift_bit_count; op[21] = work;

	mov	edx, DWORD PTR _temp$4[ebp]
	mov	ecx, DWORD PTR _n_rshift_bit_count$[ebp]
	shr	edx, cl
	mov	DWORD PTR _work$3[ebp], edx
	mov	eax, 4
	imul	ecx, eax, 21
	mov	edx, DWORD PTR _pp$[ebp]
	mov	eax, DWORD PTR [edx+ecx]
	mov	DWORD PTR _temp$4[ebp], eax
	mov	edx, DWORD PTR _temp$4[ebp]
	mov	ecx, DWORD PTR _n_lshift_bit_count$5[ebp]
	shl	edx, cl
	or	edx, DWORD PTR _work$3[ebp]
	mov	DWORD PTR _work$3[ebp], edx
	mov	eax, 4
	imul	ecx, eax, 21
	mov	edx, DWORD PTR _op$[ebp]
	mov	eax, DWORD PTR _work$3[ebp]
	mov	DWORD PTR [edx+ecx], eax

; 81   :             work = temp >> n_rshift_bit_count; temp = pp[22]; work |= temp << n_lshift_bit_count; op[22] = work;

	mov	edx, DWORD PTR _temp$4[ebp]
	mov	ecx, DWORD PTR _n_rshift_bit_count$[ebp]
	shr	edx, cl
	mov	DWORD PTR _work$3[ebp], edx
	mov	eax, 4
	imul	ecx, eax, 22
	mov	edx, DWORD PTR _pp$[ebp]
	mov	eax, DWORD PTR [edx+ecx]
	mov	DWORD PTR _temp$4[ebp], eax
	mov	edx, DWORD PTR _temp$4[ebp]
	mov	ecx, DWORD PTR _n_lshift_bit_count$5[ebp]
	shl	edx, cl
	or	edx, DWORD PTR _work$3[ebp]
	mov	DWORD PTR _work$3[ebp], edx
	mov	eax, 4
	imul	ecx, eax, 22
	mov	edx, DWORD PTR _op$[ebp]
	mov	eax, DWORD PTR _work$3[ebp]
	mov	DWORD PTR [edx+ecx], eax

; 82   :             work = temp >> n_rshift_bit_count; temp = pp[23]; work |= temp << n_lshift_bit_count; op[23] = work;

	mov	edx, DWORD PTR _temp$4[ebp]
	mov	ecx, DWORD PTR _n_rshift_bit_count$[ebp]
	shr	edx, cl
	mov	DWORD PTR _work$3[ebp], edx
	mov	eax, 4
	imul	ecx, eax, 23
	mov	edx, DWORD PTR _pp$[ebp]
	mov	eax, DWORD PTR [edx+ecx]
	mov	DWORD PTR _temp$4[ebp], eax
	mov	edx, DWORD PTR _temp$4[ebp]
	mov	ecx, DWORD PTR _n_lshift_bit_count$5[ebp]
	shl	edx, cl
	or	edx, DWORD PTR _work$3[ebp]
	mov	DWORD PTR _work$3[ebp], edx
	mov	eax, 4
	imul	ecx, eax, 23
	mov	edx, DWORD PTR _op$[ebp]
	mov	eax, DWORD PTR _work$3[ebp]
	mov	DWORD PTR [edx+ecx], eax

; 83   :             work = temp >> n_rshift_bit_count; temp = pp[24]; work |= temp << n_lshift_bit_count; op[24] = work;

	mov	edx, DWORD PTR _temp$4[ebp]
	mov	ecx, DWORD PTR _n_rshift_bit_count$[ebp]
	shr	edx, cl
	mov	DWORD PTR _work$3[ebp], edx
	mov	eax, 4
	imul	ecx, eax, 24
	mov	edx, DWORD PTR _pp$[ebp]
	mov	eax, DWORD PTR [edx+ecx]
	mov	DWORD PTR _temp$4[ebp], eax
	mov	edx, DWORD PTR _temp$4[ebp]
	mov	ecx, DWORD PTR _n_lshift_bit_count$5[ebp]
	shl	edx, cl
	or	edx, DWORD PTR _work$3[ebp]
	mov	DWORD PTR _work$3[ebp], edx
	mov	eax, 4
	imul	ecx, eax, 24
	mov	edx, DWORD PTR _op$[ebp]
	mov	eax, DWORD PTR _work$3[ebp]
	mov	DWORD PTR [edx+ecx], eax

; 84   :             work = temp >> n_rshift_bit_count; temp = pp[25]; work |= temp << n_lshift_bit_count; op[25] = work;

	mov	edx, DWORD PTR _temp$4[ebp]
	mov	ecx, DWORD PTR _n_rshift_bit_count$[ebp]
	shr	edx, cl
	mov	DWORD PTR _work$3[ebp], edx
	mov	eax, 4
	imul	ecx, eax, 25
	mov	edx, DWORD PTR _pp$[ebp]
	mov	eax, DWORD PTR [edx+ecx]
	mov	DWORD PTR _temp$4[ebp], eax
	mov	edx, DWORD PTR _temp$4[ebp]
	mov	ecx, DWORD PTR _n_lshift_bit_count$5[ebp]
	shl	edx, cl
	or	edx, DWORD PTR _work$3[ebp]
	mov	DWORD PTR _work$3[ebp], edx
	mov	eax, 4
	imul	ecx, eax, 25
	mov	edx, DWORD PTR _op$[ebp]
	mov	eax, DWORD PTR _work$3[ebp]
	mov	DWORD PTR [edx+ecx], eax

; 85   :             work = temp >> n_rshift_bit_count; temp = pp[26]; work |= temp << n_lshift_bit_count; op[26] = work;

	mov	edx, DWORD PTR _temp$4[ebp]
	mov	ecx, DWORD PTR _n_rshift_bit_count$[ebp]
	shr	edx, cl
	mov	DWORD PTR _work$3[ebp], edx
	mov	eax, 4
	imul	ecx, eax, 26
	mov	edx, DWORD PTR _pp$[ebp]
	mov	eax, DWORD PTR [edx+ecx]
	mov	DWORD PTR _temp$4[ebp], eax
	mov	edx, DWORD PTR _temp$4[ebp]
	mov	ecx, DWORD PTR _n_lshift_bit_count$5[ebp]
	shl	edx, cl
	or	edx, DWORD PTR _work$3[ebp]
	mov	DWORD PTR _work$3[ebp], edx
	mov	eax, 4
	imul	ecx, eax, 26
	mov	edx, DWORD PTR _op$[ebp]
	mov	eax, DWORD PTR _work$3[ebp]
	mov	DWORD PTR [edx+ecx], eax

; 86   :             work = temp >> n_rshift_bit_count; temp = pp[27]; work |= temp << n_lshift_bit_count; op[27] = work;

	mov	edx, DWORD PTR _temp$4[ebp]
	mov	ecx, DWORD PTR _n_rshift_bit_count$[ebp]
	shr	edx, cl
	mov	DWORD PTR _work$3[ebp], edx
	mov	eax, 4
	imul	ecx, eax, 27
	mov	edx, DWORD PTR _pp$[ebp]
	mov	eax, DWORD PTR [edx+ecx]
	mov	DWORD PTR _temp$4[ebp], eax
	mov	edx, DWORD PTR _temp$4[ebp]
	mov	ecx, DWORD PTR _n_lshift_bit_count$5[ebp]
	shl	edx, cl
	or	edx, DWORD PTR _work$3[ebp]
	mov	DWORD PTR _work$3[ebp], edx
	mov	eax, 4
	imul	ecx, eax, 27
	mov	edx, DWORD PTR _op$[ebp]
	mov	eax, DWORD PTR _work$3[ebp]
	mov	DWORD PTR [edx+ecx], eax

; 87   :             work = temp >> n_rshift_bit_count; temp = pp[28]; work |= temp << n_lshift_bit_count; op[28] = work;

	mov	edx, DWORD PTR _temp$4[ebp]
	mov	ecx, DWORD PTR _n_rshift_bit_count$[ebp]
	shr	edx, cl
	mov	DWORD PTR _work$3[ebp], edx
	mov	eax, 4
	imul	ecx, eax, 28
	mov	edx, DWORD PTR _pp$[ebp]
	mov	eax, DWORD PTR [edx+ecx]
	mov	DWORD PTR _temp$4[ebp], eax
	mov	edx, DWORD PTR _temp$4[ebp]
	mov	ecx, DWORD PTR _n_lshift_bit_count$5[ebp]
	shl	edx, cl
	or	edx, DWORD PTR _work$3[ebp]
	mov	DWORD PTR _work$3[ebp], edx
	mov	eax, 4
	imul	ecx, eax, 28
	mov	edx, DWORD PTR _op$[ebp]
	mov	eax, DWORD PTR _work$3[ebp]
	mov	DWORD PTR [edx+ecx], eax

; 88   :             work = temp >> n_rshift_bit_count; temp = pp[29]; work |= temp << n_lshift_bit_count; op[29] = work;

	mov	edx, DWORD PTR _temp$4[ebp]
	mov	ecx, DWORD PTR _n_rshift_bit_count$[ebp]
	shr	edx, cl
	mov	DWORD PTR _work$3[ebp], edx
	mov	eax, 4
	imul	ecx, eax, 29
	mov	edx, DWORD PTR _pp$[ebp]
	mov	eax, DWORD PTR [edx+ecx]
	mov	DWORD PTR _temp$4[ebp], eax
	mov	edx, DWORD PTR _temp$4[ebp]
	mov	ecx, DWORD PTR _n_lshift_bit_count$5[ebp]
	shl	edx, cl
	or	edx, DWORD PTR _work$3[ebp]
	mov	DWORD PTR _work$3[ebp], edx
	mov	eax, 4
	imul	ecx, eax, 29
	mov	edx, DWORD PTR _op$[ebp]
	mov	eax, DWORD PTR _work$3[ebp]
	mov	DWORD PTR [edx+ecx], eax

; 89   :             work = temp >> n_rshift_bit_count; temp = pp[30]; work |= temp << n_lshift_bit_count; op[30] = work;

	mov	edx, DWORD PTR _temp$4[ebp]
	mov	ecx, DWORD PTR _n_rshift_bit_count$[ebp]
	shr	edx, cl
	mov	DWORD PTR _work$3[ebp], edx
	mov	eax, 4
	imul	ecx, eax, 30
	mov	edx, DWORD PTR _pp$[ebp]
	mov	eax, DWORD PTR [edx+ecx]
	mov	DWORD PTR _temp$4[ebp], eax
	mov	edx, DWORD PTR _temp$4[ebp]
	mov	ecx, DWORD PTR _n_lshift_bit_count$5[ebp]
	shl	edx, cl
	or	edx, DWORD PTR _work$3[ebp]
	mov	DWORD PTR _work$3[ebp], edx
	mov	eax, 4
	imul	ecx, eax, 30
	mov	edx, DWORD PTR _op$[ebp]
	mov	eax, DWORD PTR _work$3[ebp]
	mov	DWORD PTR [edx+ecx], eax

; 90   :             work = temp >> n_rshift_bit_count; temp = pp[31]; work |= temp << n_lshift_bit_count; op[31] = work;

	mov	edx, DWORD PTR _temp$4[ebp]
	mov	ecx, DWORD PTR _n_rshift_bit_count$[ebp]
	shr	edx, cl
	mov	DWORD PTR _work$3[ebp], edx
	mov	eax, 4
	imul	ecx, eax, 31
	mov	edx, DWORD PTR _pp$[ebp]
	mov	eax, DWORD PTR [edx+ecx]
	mov	DWORD PTR _temp$4[ebp], eax
	mov	edx, DWORD PTR _temp$4[ebp]
	mov	ecx, DWORD PTR _n_lshift_bit_count$5[ebp]
	shl	edx, cl
	or	edx, DWORD PTR _work$3[ebp]
	mov	DWORD PTR _work$3[ebp], edx
	mov	eax, 4
	imul	ecx, eax, 31
	mov	edx, DWORD PTR _op$[ebp]
	mov	eax, DWORD PTR _work$3[ebp]
	mov	DWORD PTR [edx+ecx], eax

; 91   :             --count;

	mov	ecx, DWORD PTR _count$1[ebp]
	sub	ecx, 1
	mov	DWORD PTR _count$1[ebp], ecx

; 92   :             pp += 32;

	mov	edx, DWORD PTR _pp$[ebp]
	add	edx, 128				; 00000080H
	mov	DWORD PTR _pp$[ebp], edx

; 93   :             op += 32;

	mov	eax, DWORD PTR _op$[ebp]
	add	eax, 128				; 00000080H
	mov	DWORD PTR _op$[ebp], eax

; 94   :         }

	jmp	$LN2@RightShift
$LN3@RightShift:

; 95   : 
; 96   :         if (t_count & 0x10)

	mov	ecx, DWORD PTR _t_count$2[ebp]
	and	ecx, 16					; 00000010H
	je	$LN7@RightShift

; 97   :         {
; 98   :             work = temp >> n_rshift_bit_count; temp = pp[0]; work |= temp << n_lshift_bit_count; op[0] = work;

	mov	edx, DWORD PTR _temp$4[ebp]
	mov	ecx, DWORD PTR _n_rshift_bit_count$[ebp]
	shr	edx, cl
	mov	DWORD PTR _work$3[ebp], edx
	mov	eax, 4
	imul	ecx, eax, 0
	mov	edx, DWORD PTR _pp$[ebp]
	mov	eax, DWORD PTR [edx+ecx]
	mov	DWORD PTR _temp$4[ebp], eax
	mov	edx, DWORD PTR _temp$4[ebp]
	mov	ecx, DWORD PTR _n_lshift_bit_count$5[ebp]
	shl	edx, cl
	or	edx, DWORD PTR _work$3[ebp]
	mov	DWORD PTR _work$3[ebp], edx
	mov	eax, 4
	imul	ecx, eax, 0
	mov	edx, DWORD PTR _op$[ebp]
	mov	eax, DWORD PTR _work$3[ebp]
	mov	DWORD PTR [edx+ecx], eax

; 99   :             work = temp >> n_rshift_bit_count; temp = pp[1]; work |= temp << n_lshift_bit_count; op[1] = work;

	mov	edx, DWORD PTR _temp$4[ebp]
	mov	ecx, DWORD PTR _n_rshift_bit_count$[ebp]
	shr	edx, cl
	mov	DWORD PTR _work$3[ebp], edx
	mov	eax, 4
	shl	eax, 0
	mov	ecx, DWORD PTR _pp$[ebp]
	mov	edx, DWORD PTR [ecx+eax]
	mov	DWORD PTR _temp$4[ebp], edx
	mov	eax, DWORD PTR _temp$4[ebp]
	mov	ecx, DWORD PTR _n_lshift_bit_count$5[ebp]
	shl	eax, cl
	or	eax, DWORD PTR _work$3[ebp]
	mov	DWORD PTR _work$3[ebp], eax
	mov	ecx, 4
	shl	ecx, 0
	mov	edx, DWORD PTR _op$[ebp]
	mov	eax, DWORD PTR _work$3[ebp]
	mov	DWORD PTR [edx+ecx], eax

; 100  :             work = temp >> n_rshift_bit_count; temp = pp[2]; work |= temp << n_lshift_bit_count; op[2] = work;

	mov	edx, DWORD PTR _temp$4[ebp]
	mov	ecx, DWORD PTR _n_rshift_bit_count$[ebp]
	shr	edx, cl
	mov	DWORD PTR _work$3[ebp], edx
	mov	eax, 4
	shl	eax, 1
	mov	ecx, DWORD PTR _pp$[ebp]
	mov	edx, DWORD PTR [ecx+eax]
	mov	DWORD PTR _temp$4[ebp], edx
	mov	eax, DWORD PTR _temp$4[ebp]
	mov	ecx, DWORD PTR _n_lshift_bit_count$5[ebp]
	shl	eax, cl
	or	eax, DWORD PTR _work$3[ebp]
	mov	DWORD PTR _work$3[ebp], eax
	mov	ecx, 4
	shl	ecx, 1
	mov	edx, DWORD PTR _op$[ebp]
	mov	eax, DWORD PTR _work$3[ebp]
	mov	DWORD PTR [edx+ecx], eax

; 101  :             work = temp >> n_rshift_bit_count; temp = pp[3]; work |= temp << n_lshift_bit_count; op[3] = work;

	mov	edx, DWORD PTR _temp$4[ebp]
	mov	ecx, DWORD PTR _n_rshift_bit_count$[ebp]
	shr	edx, cl
	mov	DWORD PTR _work$3[ebp], edx
	mov	eax, 4
	imul	ecx, eax, 3
	mov	edx, DWORD PTR _pp$[ebp]
	mov	eax, DWORD PTR [edx+ecx]
	mov	DWORD PTR _temp$4[ebp], eax
	mov	edx, DWORD PTR _temp$4[ebp]
	mov	ecx, DWORD PTR _n_lshift_bit_count$5[ebp]
	shl	edx, cl
	or	edx, DWORD PTR _work$3[ebp]
	mov	DWORD PTR _work$3[ebp], edx
	mov	eax, 4
	imul	ecx, eax, 3
	mov	edx, DWORD PTR _op$[ebp]
	mov	eax, DWORD PTR _work$3[ebp]
	mov	DWORD PTR [edx+ecx], eax

; 102  :             work = temp >> n_rshift_bit_count; temp = pp[4]; work |= temp << n_lshift_bit_count; op[4] = work;

	mov	edx, DWORD PTR _temp$4[ebp]
	mov	ecx, DWORD PTR _n_rshift_bit_count$[ebp]
	shr	edx, cl
	mov	DWORD PTR _work$3[ebp], edx
	mov	eax, 4
	shl	eax, 2
	mov	ecx, DWORD PTR _pp$[ebp]
	mov	edx, DWORD PTR [ecx+eax]
	mov	DWORD PTR _temp$4[ebp], edx
	mov	eax, DWORD PTR _temp$4[ebp]
	mov	ecx, DWORD PTR _n_lshift_bit_count$5[ebp]
	shl	eax, cl
	or	eax, DWORD PTR _work$3[ebp]
	mov	DWORD PTR _work$3[ebp], eax
	mov	ecx, 4
	shl	ecx, 2
	mov	edx, DWORD PTR _op$[ebp]
	mov	eax, DWORD PTR _work$3[ebp]
	mov	DWORD PTR [edx+ecx], eax

; 103  :             work = temp >> n_rshift_bit_count; temp = pp[5]; work |= temp << n_lshift_bit_count; op[5] = work;

	mov	edx, DWORD PTR _temp$4[ebp]
	mov	ecx, DWORD PTR _n_rshift_bit_count$[ebp]
	shr	edx, cl
	mov	DWORD PTR _work$3[ebp], edx
	mov	eax, 4
	imul	ecx, eax, 5
	mov	edx, DWORD PTR _pp$[ebp]
	mov	eax, DWORD PTR [edx+ecx]
	mov	DWORD PTR _temp$4[ebp], eax
	mov	edx, DWORD PTR _temp$4[ebp]
	mov	ecx, DWORD PTR _n_lshift_bit_count$5[ebp]
	shl	edx, cl
	or	edx, DWORD PTR _work$3[ebp]
	mov	DWORD PTR _work$3[ebp], edx
	mov	eax, 4
	imul	ecx, eax, 5
	mov	edx, DWORD PTR _op$[ebp]
	mov	eax, DWORD PTR _work$3[ebp]
	mov	DWORD PTR [edx+ecx], eax

; 104  :             work = temp >> n_rshift_bit_count; temp = pp[6]; work |= temp << n_lshift_bit_count; op[6] = work;

	mov	edx, DWORD PTR _temp$4[ebp]
	mov	ecx, DWORD PTR _n_rshift_bit_count$[ebp]
	shr	edx, cl
	mov	DWORD PTR _work$3[ebp], edx
	mov	eax, 4
	imul	ecx, eax, 6
	mov	edx, DWORD PTR _pp$[ebp]
	mov	eax, DWORD PTR [edx+ecx]
	mov	DWORD PTR _temp$4[ebp], eax
	mov	edx, DWORD PTR _temp$4[ebp]
	mov	ecx, DWORD PTR _n_lshift_bit_count$5[ebp]
	shl	edx, cl
	or	edx, DWORD PTR _work$3[ebp]
	mov	DWORD PTR _work$3[ebp], edx
	mov	eax, 4
	imul	ecx, eax, 6
	mov	edx, DWORD PTR _op$[ebp]
	mov	eax, DWORD PTR _work$3[ebp]
	mov	DWORD PTR [edx+ecx], eax

; 105  :             work = temp >> n_rshift_bit_count; temp = pp[7]; work |= temp << n_lshift_bit_count; op[7] = work;

	mov	edx, DWORD PTR _temp$4[ebp]
	mov	ecx, DWORD PTR _n_rshift_bit_count$[ebp]
	shr	edx, cl
	mov	DWORD PTR _work$3[ebp], edx
	mov	eax, 4
	imul	ecx, eax, 7
	mov	edx, DWORD PTR _pp$[ebp]
	mov	eax, DWORD PTR [edx+ecx]
	mov	DWORD PTR _temp$4[ebp], eax
	mov	edx, DWORD PTR _temp$4[ebp]
	mov	ecx, DWORD PTR _n_lshift_bit_count$5[ebp]
	shl	edx, cl
	or	edx, DWORD PTR _work$3[ebp]
	mov	DWORD PTR _work$3[ebp], edx
	mov	eax, 4
	imul	ecx, eax, 7
	mov	edx, DWORD PTR _op$[ebp]
	mov	eax, DWORD PTR _work$3[ebp]
	mov	DWORD PTR [edx+ecx], eax

; 106  :             work = temp >> n_rshift_bit_count; temp = pp[8]; work |= temp << n_lshift_bit_count; op[8] = work;

	mov	edx, DWORD PTR _temp$4[ebp]
	mov	ecx, DWORD PTR _n_rshift_bit_count$[ebp]
	shr	edx, cl
	mov	DWORD PTR _work$3[ebp], edx
	mov	eax, 4
	shl	eax, 3
	mov	ecx, DWORD PTR _pp$[ebp]
	mov	edx, DWORD PTR [ecx+eax]
	mov	DWORD PTR _temp$4[ebp], edx
	mov	eax, DWORD PTR _temp$4[ebp]
	mov	ecx, DWORD PTR _n_lshift_bit_count$5[ebp]
	shl	eax, cl
	or	eax, DWORD PTR _work$3[ebp]
	mov	DWORD PTR _work$3[ebp], eax
	mov	ecx, 4
	shl	ecx, 3
	mov	edx, DWORD PTR _op$[ebp]
	mov	eax, DWORD PTR _work$3[ebp]
	mov	DWORD PTR [edx+ecx], eax

; 107  :             work = temp >> n_rshift_bit_count; temp = pp[9]; work |= temp << n_lshift_bit_count; op[9] = work;

	mov	edx, DWORD PTR _temp$4[ebp]
	mov	ecx, DWORD PTR _n_rshift_bit_count$[ebp]
	shr	edx, cl
	mov	DWORD PTR _work$3[ebp], edx
	mov	eax, 4
	imul	ecx, eax, 9
	mov	edx, DWORD PTR _pp$[ebp]
	mov	eax, DWORD PTR [edx+ecx]
	mov	DWORD PTR _temp$4[ebp], eax
	mov	edx, DWORD PTR _temp$4[ebp]
	mov	ecx, DWORD PTR _n_lshift_bit_count$5[ebp]
	shl	edx, cl
	or	edx, DWORD PTR _work$3[ebp]
	mov	DWORD PTR _work$3[ebp], edx
	mov	eax, 4
	imul	ecx, eax, 9
	mov	edx, DWORD PTR _op$[ebp]
	mov	eax, DWORD PTR _work$3[ebp]
	mov	DWORD PTR [edx+ecx], eax

; 108  :             work = temp >> n_rshift_bit_count; temp = pp[10]; work |= temp << n_lshift_bit_count; op[10] = work;

	mov	edx, DWORD PTR _temp$4[ebp]
	mov	ecx, DWORD PTR _n_rshift_bit_count$[ebp]
	shr	edx, cl
	mov	DWORD PTR _work$3[ebp], edx
	mov	eax, 4
	imul	ecx, eax, 10
	mov	edx, DWORD PTR _pp$[ebp]
	mov	eax, DWORD PTR [edx+ecx]
	mov	DWORD PTR _temp$4[ebp], eax
	mov	edx, DWORD PTR _temp$4[ebp]
	mov	ecx, DWORD PTR _n_lshift_bit_count$5[ebp]
	shl	edx, cl
	or	edx, DWORD PTR _work$3[ebp]
	mov	DWORD PTR _work$3[ebp], edx
	mov	eax, 4
	imul	ecx, eax, 10
	mov	edx, DWORD PTR _op$[ebp]
	mov	eax, DWORD PTR _work$3[ebp]
	mov	DWORD PTR [edx+ecx], eax

; 109  :             work = temp >> n_rshift_bit_count; temp = pp[11]; work |= temp << n_lshift_bit_count; op[11] = work;

	mov	edx, DWORD PTR _temp$4[ebp]
	mov	ecx, DWORD PTR _n_rshift_bit_count$[ebp]
	shr	edx, cl
	mov	DWORD PTR _work$3[ebp], edx
	mov	eax, 4
	imul	ecx, eax, 11
	mov	edx, DWORD PTR _pp$[ebp]
	mov	eax, DWORD PTR [edx+ecx]
	mov	DWORD PTR _temp$4[ebp], eax
	mov	edx, DWORD PTR _temp$4[ebp]
	mov	ecx, DWORD PTR _n_lshift_bit_count$5[ebp]
	shl	edx, cl
	or	edx, DWORD PTR _work$3[ebp]
	mov	DWORD PTR _work$3[ebp], edx
	mov	eax, 4
	imul	ecx, eax, 11
	mov	edx, DWORD PTR _op$[ebp]
	mov	eax, DWORD PTR _work$3[ebp]
	mov	DWORD PTR [edx+ecx], eax

; 110  :             work = temp >> n_rshift_bit_count; temp = pp[12]; work |= temp << n_lshift_bit_count; op[12] = work;

	mov	edx, DWORD PTR _temp$4[ebp]
	mov	ecx, DWORD PTR _n_rshift_bit_count$[ebp]
	shr	edx, cl
	mov	DWORD PTR _work$3[ebp], edx
	mov	eax, 4
	imul	ecx, eax, 12
	mov	edx, DWORD PTR _pp$[ebp]
	mov	eax, DWORD PTR [edx+ecx]
	mov	DWORD PTR _temp$4[ebp], eax
	mov	edx, DWORD PTR _temp$4[ebp]
	mov	ecx, DWORD PTR _n_lshift_bit_count$5[ebp]
	shl	edx, cl
	or	edx, DWORD PTR _work$3[ebp]
	mov	DWORD PTR _work$3[ebp], edx
	mov	eax, 4
	imul	ecx, eax, 12
	mov	edx, DWORD PTR _op$[ebp]
	mov	eax, DWORD PTR _work$3[ebp]
	mov	DWORD PTR [edx+ecx], eax

; 111  :             work = temp >> n_rshift_bit_count; temp = pp[13]; work |= temp << n_lshift_bit_count; op[13] = work;

	mov	edx, DWORD PTR _temp$4[ebp]
	mov	ecx, DWORD PTR _n_rshift_bit_count$[ebp]
	shr	edx, cl
	mov	DWORD PTR _work$3[ebp], edx
	mov	eax, 4
	imul	ecx, eax, 13
	mov	edx, DWORD PTR _pp$[ebp]
	mov	eax, DWORD PTR [edx+ecx]
	mov	DWORD PTR _temp$4[ebp], eax
	mov	edx, DWORD PTR _temp$4[ebp]
	mov	ecx, DWORD PTR _n_lshift_bit_count$5[ebp]
	shl	edx, cl
	or	edx, DWORD PTR _work$3[ebp]
	mov	DWORD PTR _work$3[ebp], edx
	mov	eax, 4
	imul	ecx, eax, 13
	mov	edx, DWORD PTR _op$[ebp]
	mov	eax, DWORD PTR _work$3[ebp]
	mov	DWORD PTR [edx+ecx], eax

; 112  :             work = temp >> n_rshift_bit_count; temp = pp[14]; work |= temp << n_lshift_bit_count; op[14] = work;

	mov	edx, DWORD PTR _temp$4[ebp]
	mov	ecx, DWORD PTR _n_rshift_bit_count$[ebp]
	shr	edx, cl
	mov	DWORD PTR _work$3[ebp], edx
	mov	eax, 4
	imul	ecx, eax, 14
	mov	edx, DWORD PTR _pp$[ebp]
	mov	eax, DWORD PTR [edx+ecx]
	mov	DWORD PTR _temp$4[ebp], eax
	mov	edx, DWORD PTR _temp$4[ebp]
	mov	ecx, DWORD PTR _n_lshift_bit_count$5[ebp]
	shl	edx, cl
	or	edx, DWORD PTR _work$3[ebp]
	mov	DWORD PTR _work$3[ebp], edx
	mov	eax, 4
	imul	ecx, eax, 14
	mov	edx, DWORD PTR _op$[ebp]
	mov	eax, DWORD PTR _work$3[ebp]
	mov	DWORD PTR [edx+ecx], eax

; 113  :             work = temp >> n_rshift_bit_count; temp = pp[15]; work |= temp << n_lshift_bit_count; op[15] = work;

	mov	edx, DWORD PTR _temp$4[ebp]
	mov	ecx, DWORD PTR _n_rshift_bit_count$[ebp]
	shr	edx, cl
	mov	DWORD PTR _work$3[ebp], edx
	mov	eax, 4
	imul	ecx, eax, 15
	mov	edx, DWORD PTR _pp$[ebp]
	mov	eax, DWORD PTR [edx+ecx]
	mov	DWORD PTR _temp$4[ebp], eax
	mov	edx, DWORD PTR _temp$4[ebp]
	mov	ecx, DWORD PTR _n_lshift_bit_count$5[ebp]
	shl	edx, cl
	or	edx, DWORD PTR _work$3[ebp]
	mov	DWORD PTR _work$3[ebp], edx
	mov	eax, 4
	imul	ecx, eax, 15
	mov	edx, DWORD PTR _op$[ebp]
	mov	eax, DWORD PTR _work$3[ebp]
	mov	DWORD PTR [edx+ecx], eax

; 114  :             pp += 16;

	mov	ecx, DWORD PTR _pp$[ebp]
	add	ecx, 64					; 00000040H
	mov	DWORD PTR _pp$[ebp], ecx

; 115  :             op += 16;

	mov	edx, DWORD PTR _op$[ebp]
	add	edx, 64					; 00000040H
	mov	DWORD PTR _op$[ebp], edx
$LN7@RightShift:

; 116  :         }
; 117  : 
; 118  :         if (t_count & 0x8)

	mov	eax, DWORD PTR _t_count$2[ebp]
	and	eax, 8
	je	$LN8@RightShift

; 119  :         {
; 120  :             work = temp >> n_rshift_bit_count; temp = pp[0]; work |= temp << n_lshift_bit_count; op[0] = work;

	mov	edx, DWORD PTR _temp$4[ebp]
	mov	ecx, DWORD PTR _n_rshift_bit_count$[ebp]
	shr	edx, cl
	mov	DWORD PTR _work$3[ebp], edx
	mov	eax, 4
	imul	ecx, eax, 0
	mov	edx, DWORD PTR _pp$[ebp]
	mov	eax, DWORD PTR [edx+ecx]
	mov	DWORD PTR _temp$4[ebp], eax
	mov	edx, DWORD PTR _temp$4[ebp]
	mov	ecx, DWORD PTR _n_lshift_bit_count$5[ebp]
	shl	edx, cl
	or	edx, DWORD PTR _work$3[ebp]
	mov	DWORD PTR _work$3[ebp], edx
	mov	eax, 4
	imul	ecx, eax, 0
	mov	edx, DWORD PTR _op$[ebp]
	mov	eax, DWORD PTR _work$3[ebp]
	mov	DWORD PTR [edx+ecx], eax

; 121  :             work = temp >> n_rshift_bit_count; temp = pp[1]; work |= temp << n_lshift_bit_count; op[1] = work;

	mov	edx, DWORD PTR _temp$4[ebp]
	mov	ecx, DWORD PTR _n_rshift_bit_count$[ebp]
	shr	edx, cl
	mov	DWORD PTR _work$3[ebp], edx
	mov	eax, 4
	shl	eax, 0
	mov	ecx, DWORD PTR _pp$[ebp]
	mov	edx, DWORD PTR [ecx+eax]
	mov	DWORD PTR _temp$4[ebp], edx
	mov	eax, DWORD PTR _temp$4[ebp]
	mov	ecx, DWORD PTR _n_lshift_bit_count$5[ebp]
	shl	eax, cl
	or	eax, DWORD PTR _work$3[ebp]
	mov	DWORD PTR _work$3[ebp], eax
	mov	ecx, 4
	shl	ecx, 0
	mov	edx, DWORD PTR _op$[ebp]
	mov	eax, DWORD PTR _work$3[ebp]
	mov	DWORD PTR [edx+ecx], eax

; 122  :             work = temp >> n_rshift_bit_count; temp = pp[2]; work |= temp << n_lshift_bit_count; op[2] = work;

	mov	edx, DWORD PTR _temp$4[ebp]
	mov	ecx, DWORD PTR _n_rshift_bit_count$[ebp]
	shr	edx, cl
	mov	DWORD PTR _work$3[ebp], edx
	mov	eax, 4
	shl	eax, 1
	mov	ecx, DWORD PTR _pp$[ebp]
	mov	edx, DWORD PTR [ecx+eax]
	mov	DWORD PTR _temp$4[ebp], edx
	mov	eax, DWORD PTR _temp$4[ebp]
	mov	ecx, DWORD PTR _n_lshift_bit_count$5[ebp]
	shl	eax, cl
	or	eax, DWORD PTR _work$3[ebp]
	mov	DWORD PTR _work$3[ebp], eax
	mov	ecx, 4
	shl	ecx, 1
	mov	edx, DWORD PTR _op$[ebp]
	mov	eax, DWORD PTR _work$3[ebp]
	mov	DWORD PTR [edx+ecx], eax

; 123  :             work = temp >> n_rshift_bit_count; temp = pp[3]; work |= temp << n_lshift_bit_count; op[3] = work;

	mov	edx, DWORD PTR _temp$4[ebp]
	mov	ecx, DWORD PTR _n_rshift_bit_count$[ebp]
	shr	edx, cl
	mov	DWORD PTR _work$3[ebp], edx
	mov	eax, 4
	imul	ecx, eax, 3
	mov	edx, DWORD PTR _pp$[ebp]
	mov	eax, DWORD PTR [edx+ecx]
	mov	DWORD PTR _temp$4[ebp], eax
	mov	edx, DWORD PTR _temp$4[ebp]
	mov	ecx, DWORD PTR _n_lshift_bit_count$5[ebp]
	shl	edx, cl
	or	edx, DWORD PTR _work$3[ebp]
	mov	DWORD PTR _work$3[ebp], edx
	mov	eax, 4
	imul	ecx, eax, 3
	mov	edx, DWORD PTR _op$[ebp]
	mov	eax, DWORD PTR _work$3[ebp]
	mov	DWORD PTR [edx+ecx], eax

; 124  :             work = temp >> n_rshift_bit_count; temp = pp[4]; work |= temp << n_lshift_bit_count; op[4] = work;

	mov	edx, DWORD PTR _temp$4[ebp]
	mov	ecx, DWORD PTR _n_rshift_bit_count$[ebp]
	shr	edx, cl
	mov	DWORD PTR _work$3[ebp], edx
	mov	eax, 4
	shl	eax, 2
	mov	ecx, DWORD PTR _pp$[ebp]
	mov	edx, DWORD PTR [ecx+eax]
	mov	DWORD PTR _temp$4[ebp], edx
	mov	eax, DWORD PTR _temp$4[ebp]
	mov	ecx, DWORD PTR _n_lshift_bit_count$5[ebp]
	shl	eax, cl
	or	eax, DWORD PTR _work$3[ebp]
	mov	DWORD PTR _work$3[ebp], eax
	mov	ecx, 4
	shl	ecx, 2
	mov	edx, DWORD PTR _op$[ebp]
	mov	eax, DWORD PTR _work$3[ebp]
	mov	DWORD PTR [edx+ecx], eax

; 125  :             work = temp >> n_rshift_bit_count; temp = pp[5]; work |= temp << n_lshift_bit_count; op[5] = work;

	mov	edx, DWORD PTR _temp$4[ebp]
	mov	ecx, DWORD PTR _n_rshift_bit_count$[ebp]
	shr	edx, cl
	mov	DWORD PTR _work$3[ebp], edx
	mov	eax, 4
	imul	ecx, eax, 5
	mov	edx, DWORD PTR _pp$[ebp]
	mov	eax, DWORD PTR [edx+ecx]
	mov	DWORD PTR _temp$4[ebp], eax
	mov	edx, DWORD PTR _temp$4[ebp]
	mov	ecx, DWORD PTR _n_lshift_bit_count$5[ebp]
	shl	edx, cl
	or	edx, DWORD PTR _work$3[ebp]
	mov	DWORD PTR _work$3[ebp], edx
	mov	eax, 4
	imul	ecx, eax, 5
	mov	edx, DWORD PTR _op$[ebp]
	mov	eax, DWORD PTR _work$3[ebp]
	mov	DWORD PTR [edx+ecx], eax

; 126  :             work = temp >> n_rshift_bit_count; temp = pp[6]; work |= temp << n_lshift_bit_count; op[6] = work;

	mov	edx, DWORD PTR _temp$4[ebp]
	mov	ecx, DWORD PTR _n_rshift_bit_count$[ebp]
	shr	edx, cl
	mov	DWORD PTR _work$3[ebp], edx
	mov	eax, 4
	imul	ecx, eax, 6
	mov	edx, DWORD PTR _pp$[ebp]
	mov	eax, DWORD PTR [edx+ecx]
	mov	DWORD PTR _temp$4[ebp], eax
	mov	edx, DWORD PTR _temp$4[ebp]
	mov	ecx, DWORD PTR _n_lshift_bit_count$5[ebp]
	shl	edx, cl
	or	edx, DWORD PTR _work$3[ebp]
	mov	DWORD PTR _work$3[ebp], edx
	mov	eax, 4
	imul	ecx, eax, 6
	mov	edx, DWORD PTR _op$[ebp]
	mov	eax, DWORD PTR _work$3[ebp]
	mov	DWORD PTR [edx+ecx], eax

; 127  :             work = temp >> n_rshift_bit_count; temp = pp[7]; work |= temp << n_lshift_bit_count; op[7] = work;

	mov	edx, DWORD PTR _temp$4[ebp]
	mov	ecx, DWORD PTR _n_rshift_bit_count$[ebp]
	shr	edx, cl
	mov	DWORD PTR _work$3[ebp], edx
	mov	eax, 4
	imul	ecx, eax, 7
	mov	edx, DWORD PTR _pp$[ebp]
	mov	eax, DWORD PTR [edx+ecx]
	mov	DWORD PTR _temp$4[ebp], eax
	mov	edx, DWORD PTR _temp$4[ebp]
	mov	ecx, DWORD PTR _n_lshift_bit_count$5[ebp]
	shl	edx, cl
	or	edx, DWORD PTR _work$3[ebp]
	mov	DWORD PTR _work$3[ebp], edx
	mov	eax, 4
	imul	ecx, eax, 7
	mov	edx, DWORD PTR _op$[ebp]
	mov	eax, DWORD PTR _work$3[ebp]
	mov	DWORD PTR [edx+ecx], eax

; 128  :             pp += 8;

	mov	ecx, DWORD PTR _pp$[ebp]
	add	ecx, 32					; 00000020H
	mov	DWORD PTR _pp$[ebp], ecx

; 129  :             op += 8;

	mov	edx, DWORD PTR _op$[ebp]
	add	edx, 32					; 00000020H
	mov	DWORD PTR _op$[ebp], edx
$LN8@RightShift:

; 130  :         }
; 131  : 
; 132  :         if (t_count & 0x4)

	mov	eax, DWORD PTR _t_count$2[ebp]
	and	eax, 4
	je	$LN9@RightShift

; 133  :         {
; 134  :             work = temp >> n_rshift_bit_count; temp = pp[0]; work |= temp << n_lshift_bit_count; op[0] = work;

	mov	edx, DWORD PTR _temp$4[ebp]
	mov	ecx, DWORD PTR _n_rshift_bit_count$[ebp]
	shr	edx, cl
	mov	DWORD PTR _work$3[ebp], edx
	mov	eax, 4
	imul	ecx, eax, 0
	mov	edx, DWORD PTR _pp$[ebp]
	mov	eax, DWORD PTR [edx+ecx]
	mov	DWORD PTR _temp$4[ebp], eax
	mov	edx, DWORD PTR _temp$4[ebp]
	mov	ecx, DWORD PTR _n_lshift_bit_count$5[ebp]
	shl	edx, cl
	or	edx, DWORD PTR _work$3[ebp]
	mov	DWORD PTR _work$3[ebp], edx
	mov	eax, 4
	imul	ecx, eax, 0
	mov	edx, DWORD PTR _op$[ebp]
	mov	eax, DWORD PTR _work$3[ebp]
	mov	DWORD PTR [edx+ecx], eax

; 135  :             work = temp >> n_rshift_bit_count; temp = pp[1]; work |= temp << n_lshift_bit_count; op[1] = work;

	mov	edx, DWORD PTR _temp$4[ebp]
	mov	ecx, DWORD PTR _n_rshift_bit_count$[ebp]
	shr	edx, cl
	mov	DWORD PTR _work$3[ebp], edx
	mov	eax, 4
	shl	eax, 0
	mov	ecx, DWORD PTR _pp$[ebp]
	mov	edx, DWORD PTR [ecx+eax]
	mov	DWORD PTR _temp$4[ebp], edx
	mov	eax, DWORD PTR _temp$4[ebp]
	mov	ecx, DWORD PTR _n_lshift_bit_count$5[ebp]
	shl	eax, cl
	or	eax, DWORD PTR _work$3[ebp]
	mov	DWORD PTR _work$3[ebp], eax
	mov	ecx, 4
	shl	ecx, 0
	mov	edx, DWORD PTR _op$[ebp]
	mov	eax, DWORD PTR _work$3[ebp]
	mov	DWORD PTR [edx+ecx], eax

; 136  :             work = temp >> n_rshift_bit_count; temp = pp[2]; work |= temp << n_lshift_bit_count; op[2] = work;

	mov	edx, DWORD PTR _temp$4[ebp]
	mov	ecx, DWORD PTR _n_rshift_bit_count$[ebp]
	shr	edx, cl
	mov	DWORD PTR _work$3[ebp], edx
	mov	eax, 4
	shl	eax, 1
	mov	ecx, DWORD PTR _pp$[ebp]
	mov	edx, DWORD PTR [ecx+eax]
	mov	DWORD PTR _temp$4[ebp], edx
	mov	eax, DWORD PTR _temp$4[ebp]
	mov	ecx, DWORD PTR _n_lshift_bit_count$5[ebp]
	shl	eax, cl
	or	eax, DWORD PTR _work$3[ebp]
	mov	DWORD PTR _work$3[ebp], eax
	mov	ecx, 4
	shl	ecx, 1
	mov	edx, DWORD PTR _op$[ebp]
	mov	eax, DWORD PTR _work$3[ebp]
	mov	DWORD PTR [edx+ecx], eax

; 137  :             work = temp >> n_rshift_bit_count; temp = pp[3]; work |= temp << n_lshift_bit_count; op[3] = work;

	mov	edx, DWORD PTR _temp$4[ebp]
	mov	ecx, DWORD PTR _n_rshift_bit_count$[ebp]
	shr	edx, cl
	mov	DWORD PTR _work$3[ebp], edx
	mov	eax, 4
	imul	ecx, eax, 3
	mov	edx, DWORD PTR _pp$[ebp]
	mov	eax, DWORD PTR [edx+ecx]
	mov	DWORD PTR _temp$4[ebp], eax
	mov	edx, DWORD PTR _temp$4[ebp]
	mov	ecx, DWORD PTR _n_lshift_bit_count$5[ebp]
	shl	edx, cl
	or	edx, DWORD PTR _work$3[ebp]
	mov	DWORD PTR _work$3[ebp], edx
	mov	eax, 4
	imul	ecx, eax, 3
	mov	edx, DWORD PTR _op$[ebp]
	mov	eax, DWORD PTR _work$3[ebp]
	mov	DWORD PTR [edx+ecx], eax

; 138  :             pp += 4;

	mov	ecx, DWORD PTR _pp$[ebp]
	add	ecx, 16					; 00000010H
	mov	DWORD PTR _pp$[ebp], ecx

; 139  :             op += 4;

	mov	edx, DWORD PTR _op$[ebp]
	add	edx, 16					; 00000010H
	mov	DWORD PTR _op$[ebp], edx
$LN9@RightShift:

; 140  :         }
; 141  : 
; 142  :         if (t_count & 0x2)

	mov	eax, DWORD PTR _t_count$2[ebp]
	and	eax, 2
	je	$LN10@RightShift

; 143  :         {
; 144  :             work = temp >> n_rshift_bit_count; temp = pp[0]; work |= temp << n_lshift_bit_count; op[0] = work;

	mov	edx, DWORD PTR _temp$4[ebp]
	mov	ecx, DWORD PTR _n_rshift_bit_count$[ebp]
	shr	edx, cl
	mov	DWORD PTR _work$3[ebp], edx
	mov	eax, 4
	imul	ecx, eax, 0
	mov	edx, DWORD PTR _pp$[ebp]
	mov	eax, DWORD PTR [edx+ecx]
	mov	DWORD PTR _temp$4[ebp], eax
	mov	edx, DWORD PTR _temp$4[ebp]
	mov	ecx, DWORD PTR _n_lshift_bit_count$5[ebp]
	shl	edx, cl
	or	edx, DWORD PTR _work$3[ebp]
	mov	DWORD PTR _work$3[ebp], edx
	mov	eax, 4
	imul	ecx, eax, 0
	mov	edx, DWORD PTR _op$[ebp]
	mov	eax, DWORD PTR _work$3[ebp]
	mov	DWORD PTR [edx+ecx], eax

; 145  :             work = temp >> n_rshift_bit_count; temp = pp[1]; work |= temp << n_lshift_bit_count; op[1] = work;

	mov	edx, DWORD PTR _temp$4[ebp]
	mov	ecx, DWORD PTR _n_rshift_bit_count$[ebp]
	shr	edx, cl
	mov	DWORD PTR _work$3[ebp], edx
	mov	eax, 4
	shl	eax, 0
	mov	ecx, DWORD PTR _pp$[ebp]
	mov	edx, DWORD PTR [ecx+eax]
	mov	DWORD PTR _temp$4[ebp], edx
	mov	eax, DWORD PTR _temp$4[ebp]
	mov	ecx, DWORD PTR _n_lshift_bit_count$5[ebp]
	shl	eax, cl
	or	eax, DWORD PTR _work$3[ebp]
	mov	DWORD PTR _work$3[ebp], eax
	mov	ecx, 4
	shl	ecx, 0
	mov	edx, DWORD PTR _op$[ebp]
	mov	eax, DWORD PTR _work$3[ebp]
	mov	DWORD PTR [edx+ecx], eax

; 146  :             pp += 2;

	mov	ecx, DWORD PTR _pp$[ebp]
	add	ecx, 8
	mov	DWORD PTR _pp$[ebp], ecx

; 147  :             op += 2;

	mov	edx, DWORD PTR _op$[ebp]
	add	edx, 8
	mov	DWORD PTR _op$[ebp], edx
$LN10@RightShift:

; 148  :         }
; 149  : 
; 150  :         if (t_count & 0x1)

	mov	eax, DWORD PTR _t_count$2[ebp]
	and	eax, 1
	je	SHORT $LN11@RightShift

; 151  :         {
; 152  :             work = temp >> n_rshift_bit_count; temp = pp[0]; work |= temp << n_lshift_bit_count; op[0] = work;

	mov	edx, DWORD PTR _temp$4[ebp]
	mov	ecx, DWORD PTR _n_rshift_bit_count$[ebp]
	shr	edx, cl
	mov	DWORD PTR _work$3[ebp], edx
	mov	eax, 4
	imul	ecx, eax, 0
	mov	edx, DWORD PTR _pp$[ebp]
	mov	eax, DWORD PTR [edx+ecx]
	mov	DWORD PTR _temp$4[ebp], eax
	mov	edx, DWORD PTR _temp$4[ebp]
	mov	ecx, DWORD PTR _n_lshift_bit_count$5[ebp]
	shl	edx, cl
	or	edx, DWORD PTR _work$3[ebp]
	mov	DWORD PTR _work$3[ebp], edx
	mov	eax, 4
	imul	ecx, eax, 0
	mov	edx, DWORD PTR _op$[ebp]
	mov	eax, DWORD PTR _work$3[ebp]
	mov	DWORD PTR [edx+ecx], eax

; 153  :             pp += 1;

	mov	ecx, DWORD PTR _pp$[ebp]
	add	ecx, 4
	mov	DWORD PTR _pp$[ebp], ecx

; 154  :             op += 1;

	mov	edx, DWORD PTR _op$[ebp]
	add	edx, 4
	mov	DWORD PTR _op$[ebp], edx
$LN11@RightShift:

; 155  :         }
; 156  : 
; 157  :         work = temp >> n_rshift_bit_count;

	mov	eax, DWORD PTR _temp$4[ebp]
	mov	ecx, DWORD PTR _n_rshift_bit_count$[ebp]
	shr	eax, cl
	mov	DWORD PTR _work$3[ebp], eax

; 158  :         if (work != 0 || padding_zero)

	cmp	DWORD PTR _work$3[ebp], 0
	jne	SHORT $LN13@RightShift
	cmp	DWORD PTR _padding_zero$[ebp], 0
	je	SHORT $LN12@RightShift
$LN13@RightShift:

; 159  :             *op = work;

	mov	ecx, DWORD PTR _op$[ebp]
	mov	edx, DWORD PTR _work$3[ebp]
	mov	DWORD PTR [ecx], edx
$LN12@RightShift:

; 160  : 
; 161  :         if (padding_zero)

	cmp	DWORD PTR _padding_zero$[ebp], 0
	je	SHORT $LN1@RightShift

; 162  :             _ZERO_MEMORY_UNIT(o + p_word_count - n_word_count, n_word_count);

	mov	eax, DWORD PTR _n_word_count$[ebp]
	push	eax
	mov	ecx, DWORD PTR _p_word_count$[ebp]
	mov	edx, DWORD PTR _o$[ebp]
	lea	eax, DWORD PTR [edx+ecx*4]
	mov	ecx, DWORD PTR _n_word_count$[ebp]
	shl	ecx, 2
	sub	eax, ecx
	push	eax
	call	__ZERO_MEMORY_UNIT
	add	esp, 8
$LN1@RightShift:

; 163  :     }
; 164  : }

	pop	edi
	add	esp, 40					; 00000028H
	cmp	ebp, esp
	call	__RTC_CheckEsp
	mov	esp, ebp
	pop	ebp
	ret	0
_RightShift_Imp ENDP
_TEXT	ENDS
; Function compile flags: /Odtp /RTCsu
; File z:\sources\lunor\repos\rougemeilland\palmtree.math.core.uint\palmtree.math.core.uint\pmc_shift.c
_TEXT	SEGMENT
_count$1 = -40						; size = 4
_t_count$2 = -36					; size = 4
_work$3 = -32						; size = 4
_temp$4 = -28						; size = 4
_n_lshift_bit_count$5 = -24				; size = 4
_n_rshift_bit_count$ = -20				; size = 4
_n_word_count$ = -16					; size = 4
_op$ = -12						; size = 4
_p_count$ = -8						; size = 4
_pp$ = -4						; size = 4
_p$ = 8							; size = 4
_p_word_count$ = 12					; size = 4
_n$ = 16						; size = 4
_o$ = 20						; size = 4
_padding_zero$ = 24					; size = 4
_RightShift_Imp_DIV PROC

; 167  : {

	push	ebp
	mov	ebp, esp
	sub	esp, 40					; 00000028H
	push	edi
	lea	edi, DWORD PTR [ebp-40]
	mov	ecx, 10					; 0000000aH
	mov	eax, -858993460				; ccccccccH
	rep stosd
	mov	ecx, OFFSET __372CD743_pmc_shift@c
	call	@__CheckForDebuggerJustMyCode@4

; 168  :     __UNIT_TYPE_DIV* pp = p;

	mov	eax, DWORD PTR _p$[ebp]
	mov	DWORD PTR _pp$[ebp], eax

; 169  :     __UNIT_TYPE p_count = p_word_count;

	mov	ecx, DWORD PTR _p_word_count$[ebp]
	mov	DWORD PTR _p_count$[ebp], ecx

; 170  :     __UNIT_TYPE_DIV* op = o;

	mov	edx, DWORD PTR _o$[ebp]
	mov	DWORD PTR _op$[ebp], edx

; 171  :     // n_word_count ワード右に移動し、更に n_bit_count ビット右に移動する。
; 172  :     __UNIT_TYPE n_word_count = n / __UNIT_TYPE_BIT_COUNT;

	mov	eax, DWORD PTR _n$[ebp]
	shr	eax, 5
	mov	DWORD PTR _n_word_count$[ebp], eax

; 173  :     __UNIT_TYPE n_rshift_bit_count = n % __UNIT_TYPE_BIT_COUNT;

	mov	eax, DWORD PTR _n$[ebp]
	xor	edx, edx
	mov	ecx, 32					; 00000020H
	div	ecx
	mov	DWORD PTR _n_rshift_bit_count$[ebp], edx

; 174  :     if (n_rshift_bit_count == 0)

	cmp	DWORD PTR _n_rshift_bit_count$[ebp], 0
	jne	SHORT $LN4@RightShift

; 175  :     {
; 176  :         // シフト数がちょうどワード境界分であれば単にワード単位のデータ移動のみ行う。
; 177  :         _COPY_MEMORY_UNIT_DIV(op, pp + n_word_count, p_count - n_word_count);

	mov	edx, DWORD PTR _p_count$[ebp]
	sub	edx, DWORD PTR _n_word_count$[ebp]
	push	edx
	mov	eax, DWORD PTR _n_word_count$[ebp]
	mov	ecx, DWORD PTR _pp$[ebp]
	lea	edx, DWORD PTR [ecx+eax*4]
	push	edx
	mov	eax, DWORD PTR _op$[ebp]
	push	eax
	call	__COPY_MEMORY_UNIT_DIV
	add	esp, 12					; 0000000cH

; 178  :         if (padding_zero)

	cmp	DWORD PTR _padding_zero$[ebp], 0
	je	SHORT $LN6@RightShift

; 179  :             _ZERO_MEMORY_UNIT_DIV(op + p_count - n_word_count, n_word_count);

	mov	ecx, DWORD PTR _n_word_count$[ebp]
	push	ecx
	mov	edx, DWORD PTR _p_count$[ebp]
	mov	eax, DWORD PTR _op$[ebp]
	lea	ecx, DWORD PTR [eax+edx*4]
	mov	edx, DWORD PTR _n_word_count$[ebp]
	shl	edx, 2
	sub	ecx, edx
	push	ecx
	call	__ZERO_MEMORY_UNIT_DIV
	add	esp, 8
$LN6@RightShift:

; 180  :     }

	jmp	$LN1@RightShift
$LN4@RightShift:

; 181  :     else
; 182  :     {
; 183  :         pp += n_word_count;

	mov	eax, DWORD PTR _n_word_count$[ebp]
	mov	ecx, DWORD PTR _pp$[ebp]
	lea	edx, DWORD PTR [ecx+eax*4]
	mov	DWORD PTR _pp$[ebp], edx

; 184  :         __UNIT_TYPE n_lshift_bit_count = __UNIT_TYPE_BIT_COUNT - n_rshift_bit_count;

	mov	eax, 32					; 00000020H
	sub	eax, DWORD PTR _n_rshift_bit_count$[ebp]
	mov	DWORD PTR _n_lshift_bit_count$5[ebp], eax

; 185  :         // p_count - n_word_count 回繰り返し
; 186  : 
; 187  :         __UNIT_TYPE_DIV temp = *pp++;

	mov	ecx, DWORD PTR _pp$[ebp]
	mov	edx, DWORD PTR [ecx]
	mov	DWORD PTR _temp$4[ebp], edx
	mov	eax, DWORD PTR _pp$[ebp]
	add	eax, 4
	mov	DWORD PTR _pp$[ebp], eax

; 188  :         __UNIT_TYPE_DIV work;
; 189  :         __UNIT_TYPE t_count = p_count - n_word_count - 1;

	mov	ecx, DWORD PTR _p_count$[ebp]
	sub	ecx, DWORD PTR _n_word_count$[ebp]
	sub	ecx, 1
	mov	DWORD PTR _t_count$2[ebp], ecx

; 190  : 
; 191  :         __UNIT_TYPE count = t_count >> 5;

	mov	edx, DWORD PTR _t_count$2[ebp]
	shr	edx, 5
	mov	DWORD PTR _count$1[ebp], edx
$LN2@RightShift:

; 192  :         while (count > 0)

	cmp	DWORD PTR _count$1[ebp], 0
	jbe	$LN3@RightShift

; 193  :         {
; 194  :             work = temp >> n_rshift_bit_count; temp = pp[0]; work |= temp << n_lshift_bit_count; op[0] = work;

	mov	eax, DWORD PTR _temp$4[ebp]
	mov	ecx, DWORD PTR _n_rshift_bit_count$[ebp]
	shr	eax, cl
	mov	DWORD PTR _work$3[ebp], eax
	mov	ecx, 4
	imul	edx, ecx, 0
	mov	eax, DWORD PTR _pp$[ebp]
	mov	ecx, DWORD PTR [eax+edx]
	mov	DWORD PTR _temp$4[ebp], ecx
	mov	edx, DWORD PTR _temp$4[ebp]
	mov	ecx, DWORD PTR _n_lshift_bit_count$5[ebp]
	shl	edx, cl
	or	edx, DWORD PTR _work$3[ebp]
	mov	DWORD PTR _work$3[ebp], edx
	mov	eax, 4
	imul	ecx, eax, 0
	mov	edx, DWORD PTR _op$[ebp]
	mov	eax, DWORD PTR _work$3[ebp]
	mov	DWORD PTR [edx+ecx], eax

; 195  :             work = temp >> n_rshift_bit_count; temp = pp[1]; work |= temp << n_lshift_bit_count; op[1] = work;

	mov	edx, DWORD PTR _temp$4[ebp]
	mov	ecx, DWORD PTR _n_rshift_bit_count$[ebp]
	shr	edx, cl
	mov	DWORD PTR _work$3[ebp], edx
	mov	eax, 4
	shl	eax, 0
	mov	ecx, DWORD PTR _pp$[ebp]
	mov	edx, DWORD PTR [ecx+eax]
	mov	DWORD PTR _temp$4[ebp], edx
	mov	eax, DWORD PTR _temp$4[ebp]
	mov	ecx, DWORD PTR _n_lshift_bit_count$5[ebp]
	shl	eax, cl
	or	eax, DWORD PTR _work$3[ebp]
	mov	DWORD PTR _work$3[ebp], eax
	mov	ecx, 4
	shl	ecx, 0
	mov	edx, DWORD PTR _op$[ebp]
	mov	eax, DWORD PTR _work$3[ebp]
	mov	DWORD PTR [edx+ecx], eax

; 196  :             work = temp >> n_rshift_bit_count; temp = pp[2]; work |= temp << n_lshift_bit_count; op[2] = work;

	mov	edx, DWORD PTR _temp$4[ebp]
	mov	ecx, DWORD PTR _n_rshift_bit_count$[ebp]
	shr	edx, cl
	mov	DWORD PTR _work$3[ebp], edx
	mov	eax, 4
	shl	eax, 1
	mov	ecx, DWORD PTR _pp$[ebp]
	mov	edx, DWORD PTR [ecx+eax]
	mov	DWORD PTR _temp$4[ebp], edx
	mov	eax, DWORD PTR _temp$4[ebp]
	mov	ecx, DWORD PTR _n_lshift_bit_count$5[ebp]
	shl	eax, cl
	or	eax, DWORD PTR _work$3[ebp]
	mov	DWORD PTR _work$3[ebp], eax
	mov	ecx, 4
	shl	ecx, 1
	mov	edx, DWORD PTR _op$[ebp]
	mov	eax, DWORD PTR _work$3[ebp]
	mov	DWORD PTR [edx+ecx], eax

; 197  :             work = temp >> n_rshift_bit_count; temp = pp[3]; work |= temp << n_lshift_bit_count; op[3] = work;

	mov	edx, DWORD PTR _temp$4[ebp]
	mov	ecx, DWORD PTR _n_rshift_bit_count$[ebp]
	shr	edx, cl
	mov	DWORD PTR _work$3[ebp], edx
	mov	eax, 4
	imul	ecx, eax, 3
	mov	edx, DWORD PTR _pp$[ebp]
	mov	eax, DWORD PTR [edx+ecx]
	mov	DWORD PTR _temp$4[ebp], eax
	mov	edx, DWORD PTR _temp$4[ebp]
	mov	ecx, DWORD PTR _n_lshift_bit_count$5[ebp]
	shl	edx, cl
	or	edx, DWORD PTR _work$3[ebp]
	mov	DWORD PTR _work$3[ebp], edx
	mov	eax, 4
	imul	ecx, eax, 3
	mov	edx, DWORD PTR _op$[ebp]
	mov	eax, DWORD PTR _work$3[ebp]
	mov	DWORD PTR [edx+ecx], eax

; 198  :             work = temp >> n_rshift_bit_count; temp = pp[4]; work |= temp << n_lshift_bit_count; op[4] = work;

	mov	edx, DWORD PTR _temp$4[ebp]
	mov	ecx, DWORD PTR _n_rshift_bit_count$[ebp]
	shr	edx, cl
	mov	DWORD PTR _work$3[ebp], edx
	mov	eax, 4
	shl	eax, 2
	mov	ecx, DWORD PTR _pp$[ebp]
	mov	edx, DWORD PTR [ecx+eax]
	mov	DWORD PTR _temp$4[ebp], edx
	mov	eax, DWORD PTR _temp$4[ebp]
	mov	ecx, DWORD PTR _n_lshift_bit_count$5[ebp]
	shl	eax, cl
	or	eax, DWORD PTR _work$3[ebp]
	mov	DWORD PTR _work$3[ebp], eax
	mov	ecx, 4
	shl	ecx, 2
	mov	edx, DWORD PTR _op$[ebp]
	mov	eax, DWORD PTR _work$3[ebp]
	mov	DWORD PTR [edx+ecx], eax

; 199  :             work = temp >> n_rshift_bit_count; temp = pp[5]; work |= temp << n_lshift_bit_count; op[5] = work;

	mov	edx, DWORD PTR _temp$4[ebp]
	mov	ecx, DWORD PTR _n_rshift_bit_count$[ebp]
	shr	edx, cl
	mov	DWORD PTR _work$3[ebp], edx
	mov	eax, 4
	imul	ecx, eax, 5
	mov	edx, DWORD PTR _pp$[ebp]
	mov	eax, DWORD PTR [edx+ecx]
	mov	DWORD PTR _temp$4[ebp], eax
	mov	edx, DWORD PTR _temp$4[ebp]
	mov	ecx, DWORD PTR _n_lshift_bit_count$5[ebp]
	shl	edx, cl
	or	edx, DWORD PTR _work$3[ebp]
	mov	DWORD PTR _work$3[ebp], edx
	mov	eax, 4
	imul	ecx, eax, 5
	mov	edx, DWORD PTR _op$[ebp]
	mov	eax, DWORD PTR _work$3[ebp]
	mov	DWORD PTR [edx+ecx], eax

; 200  :             work = temp >> n_rshift_bit_count; temp = pp[6]; work |= temp << n_lshift_bit_count; op[6] = work;

	mov	edx, DWORD PTR _temp$4[ebp]
	mov	ecx, DWORD PTR _n_rshift_bit_count$[ebp]
	shr	edx, cl
	mov	DWORD PTR _work$3[ebp], edx
	mov	eax, 4
	imul	ecx, eax, 6
	mov	edx, DWORD PTR _pp$[ebp]
	mov	eax, DWORD PTR [edx+ecx]
	mov	DWORD PTR _temp$4[ebp], eax
	mov	edx, DWORD PTR _temp$4[ebp]
	mov	ecx, DWORD PTR _n_lshift_bit_count$5[ebp]
	shl	edx, cl
	or	edx, DWORD PTR _work$3[ebp]
	mov	DWORD PTR _work$3[ebp], edx
	mov	eax, 4
	imul	ecx, eax, 6
	mov	edx, DWORD PTR _op$[ebp]
	mov	eax, DWORD PTR _work$3[ebp]
	mov	DWORD PTR [edx+ecx], eax

; 201  :             work = temp >> n_rshift_bit_count; temp = pp[7]; work |= temp << n_lshift_bit_count; op[7] = work;

	mov	edx, DWORD PTR _temp$4[ebp]
	mov	ecx, DWORD PTR _n_rshift_bit_count$[ebp]
	shr	edx, cl
	mov	DWORD PTR _work$3[ebp], edx
	mov	eax, 4
	imul	ecx, eax, 7
	mov	edx, DWORD PTR _pp$[ebp]
	mov	eax, DWORD PTR [edx+ecx]
	mov	DWORD PTR _temp$4[ebp], eax
	mov	edx, DWORD PTR _temp$4[ebp]
	mov	ecx, DWORD PTR _n_lshift_bit_count$5[ebp]
	shl	edx, cl
	or	edx, DWORD PTR _work$3[ebp]
	mov	DWORD PTR _work$3[ebp], edx
	mov	eax, 4
	imul	ecx, eax, 7
	mov	edx, DWORD PTR _op$[ebp]
	mov	eax, DWORD PTR _work$3[ebp]
	mov	DWORD PTR [edx+ecx], eax

; 202  :             work = temp >> n_rshift_bit_count; temp = pp[8]; work |= temp << n_lshift_bit_count; op[8] = work;

	mov	edx, DWORD PTR _temp$4[ebp]
	mov	ecx, DWORD PTR _n_rshift_bit_count$[ebp]
	shr	edx, cl
	mov	DWORD PTR _work$3[ebp], edx
	mov	eax, 4
	shl	eax, 3
	mov	ecx, DWORD PTR _pp$[ebp]
	mov	edx, DWORD PTR [ecx+eax]
	mov	DWORD PTR _temp$4[ebp], edx
	mov	eax, DWORD PTR _temp$4[ebp]
	mov	ecx, DWORD PTR _n_lshift_bit_count$5[ebp]
	shl	eax, cl
	or	eax, DWORD PTR _work$3[ebp]
	mov	DWORD PTR _work$3[ebp], eax
	mov	ecx, 4
	shl	ecx, 3
	mov	edx, DWORD PTR _op$[ebp]
	mov	eax, DWORD PTR _work$3[ebp]
	mov	DWORD PTR [edx+ecx], eax

; 203  :             work = temp >> n_rshift_bit_count; temp = pp[9]; work |= temp << n_lshift_bit_count; op[9] = work;

	mov	edx, DWORD PTR _temp$4[ebp]
	mov	ecx, DWORD PTR _n_rshift_bit_count$[ebp]
	shr	edx, cl
	mov	DWORD PTR _work$3[ebp], edx
	mov	eax, 4
	imul	ecx, eax, 9
	mov	edx, DWORD PTR _pp$[ebp]
	mov	eax, DWORD PTR [edx+ecx]
	mov	DWORD PTR _temp$4[ebp], eax
	mov	edx, DWORD PTR _temp$4[ebp]
	mov	ecx, DWORD PTR _n_lshift_bit_count$5[ebp]
	shl	edx, cl
	or	edx, DWORD PTR _work$3[ebp]
	mov	DWORD PTR _work$3[ebp], edx
	mov	eax, 4
	imul	ecx, eax, 9
	mov	edx, DWORD PTR _op$[ebp]
	mov	eax, DWORD PTR _work$3[ebp]
	mov	DWORD PTR [edx+ecx], eax

; 204  :             work = temp >> n_rshift_bit_count; temp = pp[10]; work |= temp << n_lshift_bit_count; op[10] = work;

	mov	edx, DWORD PTR _temp$4[ebp]
	mov	ecx, DWORD PTR _n_rshift_bit_count$[ebp]
	shr	edx, cl
	mov	DWORD PTR _work$3[ebp], edx
	mov	eax, 4
	imul	ecx, eax, 10
	mov	edx, DWORD PTR _pp$[ebp]
	mov	eax, DWORD PTR [edx+ecx]
	mov	DWORD PTR _temp$4[ebp], eax
	mov	edx, DWORD PTR _temp$4[ebp]
	mov	ecx, DWORD PTR _n_lshift_bit_count$5[ebp]
	shl	edx, cl
	or	edx, DWORD PTR _work$3[ebp]
	mov	DWORD PTR _work$3[ebp], edx
	mov	eax, 4
	imul	ecx, eax, 10
	mov	edx, DWORD PTR _op$[ebp]
	mov	eax, DWORD PTR _work$3[ebp]
	mov	DWORD PTR [edx+ecx], eax

; 205  :             work = temp >> n_rshift_bit_count; temp = pp[11]; work |= temp << n_lshift_bit_count; op[11] = work;

	mov	edx, DWORD PTR _temp$4[ebp]
	mov	ecx, DWORD PTR _n_rshift_bit_count$[ebp]
	shr	edx, cl
	mov	DWORD PTR _work$3[ebp], edx
	mov	eax, 4
	imul	ecx, eax, 11
	mov	edx, DWORD PTR _pp$[ebp]
	mov	eax, DWORD PTR [edx+ecx]
	mov	DWORD PTR _temp$4[ebp], eax
	mov	edx, DWORD PTR _temp$4[ebp]
	mov	ecx, DWORD PTR _n_lshift_bit_count$5[ebp]
	shl	edx, cl
	or	edx, DWORD PTR _work$3[ebp]
	mov	DWORD PTR _work$3[ebp], edx
	mov	eax, 4
	imul	ecx, eax, 11
	mov	edx, DWORD PTR _op$[ebp]
	mov	eax, DWORD PTR _work$3[ebp]
	mov	DWORD PTR [edx+ecx], eax

; 206  :             work = temp >> n_rshift_bit_count; temp = pp[12]; work |= temp << n_lshift_bit_count; op[12] = work;

	mov	edx, DWORD PTR _temp$4[ebp]
	mov	ecx, DWORD PTR _n_rshift_bit_count$[ebp]
	shr	edx, cl
	mov	DWORD PTR _work$3[ebp], edx
	mov	eax, 4
	imul	ecx, eax, 12
	mov	edx, DWORD PTR _pp$[ebp]
	mov	eax, DWORD PTR [edx+ecx]
	mov	DWORD PTR _temp$4[ebp], eax
	mov	edx, DWORD PTR _temp$4[ebp]
	mov	ecx, DWORD PTR _n_lshift_bit_count$5[ebp]
	shl	edx, cl
	or	edx, DWORD PTR _work$3[ebp]
	mov	DWORD PTR _work$3[ebp], edx
	mov	eax, 4
	imul	ecx, eax, 12
	mov	edx, DWORD PTR _op$[ebp]
	mov	eax, DWORD PTR _work$3[ebp]
	mov	DWORD PTR [edx+ecx], eax

; 207  :             work = temp >> n_rshift_bit_count; temp = pp[13]; work |= temp << n_lshift_bit_count; op[13] = work;

	mov	edx, DWORD PTR _temp$4[ebp]
	mov	ecx, DWORD PTR _n_rshift_bit_count$[ebp]
	shr	edx, cl
	mov	DWORD PTR _work$3[ebp], edx
	mov	eax, 4
	imul	ecx, eax, 13
	mov	edx, DWORD PTR _pp$[ebp]
	mov	eax, DWORD PTR [edx+ecx]
	mov	DWORD PTR _temp$4[ebp], eax
	mov	edx, DWORD PTR _temp$4[ebp]
	mov	ecx, DWORD PTR _n_lshift_bit_count$5[ebp]
	shl	edx, cl
	or	edx, DWORD PTR _work$3[ebp]
	mov	DWORD PTR _work$3[ebp], edx
	mov	eax, 4
	imul	ecx, eax, 13
	mov	edx, DWORD PTR _op$[ebp]
	mov	eax, DWORD PTR _work$3[ebp]
	mov	DWORD PTR [edx+ecx], eax

; 208  :             work = temp >> n_rshift_bit_count; temp = pp[14]; work |= temp << n_lshift_bit_count; op[14] = work;

	mov	edx, DWORD PTR _temp$4[ebp]
	mov	ecx, DWORD PTR _n_rshift_bit_count$[ebp]
	shr	edx, cl
	mov	DWORD PTR _work$3[ebp], edx
	mov	eax, 4
	imul	ecx, eax, 14
	mov	edx, DWORD PTR _pp$[ebp]
	mov	eax, DWORD PTR [edx+ecx]
	mov	DWORD PTR _temp$4[ebp], eax
	mov	edx, DWORD PTR _temp$4[ebp]
	mov	ecx, DWORD PTR _n_lshift_bit_count$5[ebp]
	shl	edx, cl
	or	edx, DWORD PTR _work$3[ebp]
	mov	DWORD PTR _work$3[ebp], edx
	mov	eax, 4
	imul	ecx, eax, 14
	mov	edx, DWORD PTR _op$[ebp]
	mov	eax, DWORD PTR _work$3[ebp]
	mov	DWORD PTR [edx+ecx], eax

; 209  :             work = temp >> n_rshift_bit_count; temp = pp[15]; work |= temp << n_lshift_bit_count; op[15] = work;

	mov	edx, DWORD PTR _temp$4[ebp]
	mov	ecx, DWORD PTR _n_rshift_bit_count$[ebp]
	shr	edx, cl
	mov	DWORD PTR _work$3[ebp], edx
	mov	eax, 4
	imul	ecx, eax, 15
	mov	edx, DWORD PTR _pp$[ebp]
	mov	eax, DWORD PTR [edx+ecx]
	mov	DWORD PTR _temp$4[ebp], eax
	mov	edx, DWORD PTR _temp$4[ebp]
	mov	ecx, DWORD PTR _n_lshift_bit_count$5[ebp]
	shl	edx, cl
	or	edx, DWORD PTR _work$3[ebp]
	mov	DWORD PTR _work$3[ebp], edx
	mov	eax, 4
	imul	ecx, eax, 15
	mov	edx, DWORD PTR _op$[ebp]
	mov	eax, DWORD PTR _work$3[ebp]
	mov	DWORD PTR [edx+ecx], eax

; 210  :             work = temp >> n_rshift_bit_count; temp = pp[16]; work |= temp << n_lshift_bit_count; op[16] = work;

	mov	edx, DWORD PTR _temp$4[ebp]
	mov	ecx, DWORD PTR _n_rshift_bit_count$[ebp]
	shr	edx, cl
	mov	DWORD PTR _work$3[ebp], edx
	mov	eax, 4
	shl	eax, 4
	mov	ecx, DWORD PTR _pp$[ebp]
	mov	edx, DWORD PTR [ecx+eax]
	mov	DWORD PTR _temp$4[ebp], edx
	mov	eax, DWORD PTR _temp$4[ebp]
	mov	ecx, DWORD PTR _n_lshift_bit_count$5[ebp]
	shl	eax, cl
	or	eax, DWORD PTR _work$3[ebp]
	mov	DWORD PTR _work$3[ebp], eax
	mov	ecx, 4
	shl	ecx, 4
	mov	edx, DWORD PTR _op$[ebp]
	mov	eax, DWORD PTR _work$3[ebp]
	mov	DWORD PTR [edx+ecx], eax

; 211  :             work = temp >> n_rshift_bit_count; temp = pp[17]; work |= temp << n_lshift_bit_count; op[17] = work;

	mov	edx, DWORD PTR _temp$4[ebp]
	mov	ecx, DWORD PTR _n_rshift_bit_count$[ebp]
	shr	edx, cl
	mov	DWORD PTR _work$3[ebp], edx
	mov	eax, 4
	imul	ecx, eax, 17
	mov	edx, DWORD PTR _pp$[ebp]
	mov	eax, DWORD PTR [edx+ecx]
	mov	DWORD PTR _temp$4[ebp], eax
	mov	edx, DWORD PTR _temp$4[ebp]
	mov	ecx, DWORD PTR _n_lshift_bit_count$5[ebp]
	shl	edx, cl
	or	edx, DWORD PTR _work$3[ebp]
	mov	DWORD PTR _work$3[ebp], edx
	mov	eax, 4
	imul	ecx, eax, 17
	mov	edx, DWORD PTR _op$[ebp]
	mov	eax, DWORD PTR _work$3[ebp]
	mov	DWORD PTR [edx+ecx], eax

; 212  :             work = temp >> n_rshift_bit_count; temp = pp[18]; work |= temp << n_lshift_bit_count; op[18] = work;

	mov	edx, DWORD PTR _temp$4[ebp]
	mov	ecx, DWORD PTR _n_rshift_bit_count$[ebp]
	shr	edx, cl
	mov	DWORD PTR _work$3[ebp], edx
	mov	eax, 4
	imul	ecx, eax, 18
	mov	edx, DWORD PTR _pp$[ebp]
	mov	eax, DWORD PTR [edx+ecx]
	mov	DWORD PTR _temp$4[ebp], eax
	mov	edx, DWORD PTR _temp$4[ebp]
	mov	ecx, DWORD PTR _n_lshift_bit_count$5[ebp]
	shl	edx, cl
	or	edx, DWORD PTR _work$3[ebp]
	mov	DWORD PTR _work$3[ebp], edx
	mov	eax, 4
	imul	ecx, eax, 18
	mov	edx, DWORD PTR _op$[ebp]
	mov	eax, DWORD PTR _work$3[ebp]
	mov	DWORD PTR [edx+ecx], eax

; 213  :             work = temp >> n_rshift_bit_count; temp = pp[19]; work |= temp << n_lshift_bit_count; op[19] = work;

	mov	edx, DWORD PTR _temp$4[ebp]
	mov	ecx, DWORD PTR _n_rshift_bit_count$[ebp]
	shr	edx, cl
	mov	DWORD PTR _work$3[ebp], edx
	mov	eax, 4
	imul	ecx, eax, 19
	mov	edx, DWORD PTR _pp$[ebp]
	mov	eax, DWORD PTR [edx+ecx]
	mov	DWORD PTR _temp$4[ebp], eax
	mov	edx, DWORD PTR _temp$4[ebp]
	mov	ecx, DWORD PTR _n_lshift_bit_count$5[ebp]
	shl	edx, cl
	or	edx, DWORD PTR _work$3[ebp]
	mov	DWORD PTR _work$3[ebp], edx
	mov	eax, 4
	imul	ecx, eax, 19
	mov	edx, DWORD PTR _op$[ebp]
	mov	eax, DWORD PTR _work$3[ebp]
	mov	DWORD PTR [edx+ecx], eax

; 214  :             work = temp >> n_rshift_bit_count; temp = pp[20]; work |= temp << n_lshift_bit_count; op[20] = work;

	mov	edx, DWORD PTR _temp$4[ebp]
	mov	ecx, DWORD PTR _n_rshift_bit_count$[ebp]
	shr	edx, cl
	mov	DWORD PTR _work$3[ebp], edx
	mov	eax, 4
	imul	ecx, eax, 20
	mov	edx, DWORD PTR _pp$[ebp]
	mov	eax, DWORD PTR [edx+ecx]
	mov	DWORD PTR _temp$4[ebp], eax
	mov	edx, DWORD PTR _temp$4[ebp]
	mov	ecx, DWORD PTR _n_lshift_bit_count$5[ebp]
	shl	edx, cl
	or	edx, DWORD PTR _work$3[ebp]
	mov	DWORD PTR _work$3[ebp], edx
	mov	eax, 4
	imul	ecx, eax, 20
	mov	edx, DWORD PTR _op$[ebp]
	mov	eax, DWORD PTR _work$3[ebp]
	mov	DWORD PTR [edx+ecx], eax

; 215  :             work = temp >> n_rshift_bit_count; temp = pp[21]; work |= temp << n_lshift_bit_count; op[21] = work;

	mov	edx, DWORD PTR _temp$4[ebp]
	mov	ecx, DWORD PTR _n_rshift_bit_count$[ebp]
	shr	edx, cl
	mov	DWORD PTR _work$3[ebp], edx
	mov	eax, 4
	imul	ecx, eax, 21
	mov	edx, DWORD PTR _pp$[ebp]
	mov	eax, DWORD PTR [edx+ecx]
	mov	DWORD PTR _temp$4[ebp], eax
	mov	edx, DWORD PTR _temp$4[ebp]
	mov	ecx, DWORD PTR _n_lshift_bit_count$5[ebp]
	shl	edx, cl
	or	edx, DWORD PTR _work$3[ebp]
	mov	DWORD PTR _work$3[ebp], edx
	mov	eax, 4
	imul	ecx, eax, 21
	mov	edx, DWORD PTR _op$[ebp]
	mov	eax, DWORD PTR _work$3[ebp]
	mov	DWORD PTR [edx+ecx], eax

; 216  :             work = temp >> n_rshift_bit_count; temp = pp[22]; work |= temp << n_lshift_bit_count; op[22] = work;

	mov	edx, DWORD PTR _temp$4[ebp]
	mov	ecx, DWORD PTR _n_rshift_bit_count$[ebp]
	shr	edx, cl
	mov	DWORD PTR _work$3[ebp], edx
	mov	eax, 4
	imul	ecx, eax, 22
	mov	edx, DWORD PTR _pp$[ebp]
	mov	eax, DWORD PTR [edx+ecx]
	mov	DWORD PTR _temp$4[ebp], eax
	mov	edx, DWORD PTR _temp$4[ebp]
	mov	ecx, DWORD PTR _n_lshift_bit_count$5[ebp]
	shl	edx, cl
	or	edx, DWORD PTR _work$3[ebp]
	mov	DWORD PTR _work$3[ebp], edx
	mov	eax, 4
	imul	ecx, eax, 22
	mov	edx, DWORD PTR _op$[ebp]
	mov	eax, DWORD PTR _work$3[ebp]
	mov	DWORD PTR [edx+ecx], eax

; 217  :             work = temp >> n_rshift_bit_count; temp = pp[23]; work |= temp << n_lshift_bit_count; op[23] = work;

	mov	edx, DWORD PTR _temp$4[ebp]
	mov	ecx, DWORD PTR _n_rshift_bit_count$[ebp]
	shr	edx, cl
	mov	DWORD PTR _work$3[ebp], edx
	mov	eax, 4
	imul	ecx, eax, 23
	mov	edx, DWORD PTR _pp$[ebp]
	mov	eax, DWORD PTR [edx+ecx]
	mov	DWORD PTR _temp$4[ebp], eax
	mov	edx, DWORD PTR _temp$4[ebp]
	mov	ecx, DWORD PTR _n_lshift_bit_count$5[ebp]
	shl	edx, cl
	or	edx, DWORD PTR _work$3[ebp]
	mov	DWORD PTR _work$3[ebp], edx
	mov	eax, 4
	imul	ecx, eax, 23
	mov	edx, DWORD PTR _op$[ebp]
	mov	eax, DWORD PTR _work$3[ebp]
	mov	DWORD PTR [edx+ecx], eax

; 218  :             work = temp >> n_rshift_bit_count; temp = pp[24]; work |= temp << n_lshift_bit_count; op[24] = work;

	mov	edx, DWORD PTR _temp$4[ebp]
	mov	ecx, DWORD PTR _n_rshift_bit_count$[ebp]
	shr	edx, cl
	mov	DWORD PTR _work$3[ebp], edx
	mov	eax, 4
	imul	ecx, eax, 24
	mov	edx, DWORD PTR _pp$[ebp]
	mov	eax, DWORD PTR [edx+ecx]
	mov	DWORD PTR _temp$4[ebp], eax
	mov	edx, DWORD PTR _temp$4[ebp]
	mov	ecx, DWORD PTR _n_lshift_bit_count$5[ebp]
	shl	edx, cl
	or	edx, DWORD PTR _work$3[ebp]
	mov	DWORD PTR _work$3[ebp], edx
	mov	eax, 4
	imul	ecx, eax, 24
	mov	edx, DWORD PTR _op$[ebp]
	mov	eax, DWORD PTR _work$3[ebp]
	mov	DWORD PTR [edx+ecx], eax

; 219  :             work = temp >> n_rshift_bit_count; temp = pp[25]; work |= temp << n_lshift_bit_count; op[25] = work;

	mov	edx, DWORD PTR _temp$4[ebp]
	mov	ecx, DWORD PTR _n_rshift_bit_count$[ebp]
	shr	edx, cl
	mov	DWORD PTR _work$3[ebp], edx
	mov	eax, 4
	imul	ecx, eax, 25
	mov	edx, DWORD PTR _pp$[ebp]
	mov	eax, DWORD PTR [edx+ecx]
	mov	DWORD PTR _temp$4[ebp], eax
	mov	edx, DWORD PTR _temp$4[ebp]
	mov	ecx, DWORD PTR _n_lshift_bit_count$5[ebp]
	shl	edx, cl
	or	edx, DWORD PTR _work$3[ebp]
	mov	DWORD PTR _work$3[ebp], edx
	mov	eax, 4
	imul	ecx, eax, 25
	mov	edx, DWORD PTR _op$[ebp]
	mov	eax, DWORD PTR _work$3[ebp]
	mov	DWORD PTR [edx+ecx], eax

; 220  :             work = temp >> n_rshift_bit_count; temp = pp[26]; work |= temp << n_lshift_bit_count; op[26] = work;

	mov	edx, DWORD PTR _temp$4[ebp]
	mov	ecx, DWORD PTR _n_rshift_bit_count$[ebp]
	shr	edx, cl
	mov	DWORD PTR _work$3[ebp], edx
	mov	eax, 4
	imul	ecx, eax, 26
	mov	edx, DWORD PTR _pp$[ebp]
	mov	eax, DWORD PTR [edx+ecx]
	mov	DWORD PTR _temp$4[ebp], eax
	mov	edx, DWORD PTR _temp$4[ebp]
	mov	ecx, DWORD PTR _n_lshift_bit_count$5[ebp]
	shl	edx, cl
	or	edx, DWORD PTR _work$3[ebp]
	mov	DWORD PTR _work$3[ebp], edx
	mov	eax, 4
	imul	ecx, eax, 26
	mov	edx, DWORD PTR _op$[ebp]
	mov	eax, DWORD PTR _work$3[ebp]
	mov	DWORD PTR [edx+ecx], eax

; 221  :             work = temp >> n_rshift_bit_count; temp = pp[27]; work |= temp << n_lshift_bit_count; op[27] = work;

	mov	edx, DWORD PTR _temp$4[ebp]
	mov	ecx, DWORD PTR _n_rshift_bit_count$[ebp]
	shr	edx, cl
	mov	DWORD PTR _work$3[ebp], edx
	mov	eax, 4
	imul	ecx, eax, 27
	mov	edx, DWORD PTR _pp$[ebp]
	mov	eax, DWORD PTR [edx+ecx]
	mov	DWORD PTR _temp$4[ebp], eax
	mov	edx, DWORD PTR _temp$4[ebp]
	mov	ecx, DWORD PTR _n_lshift_bit_count$5[ebp]
	shl	edx, cl
	or	edx, DWORD PTR _work$3[ebp]
	mov	DWORD PTR _work$3[ebp], edx
	mov	eax, 4
	imul	ecx, eax, 27
	mov	edx, DWORD PTR _op$[ebp]
	mov	eax, DWORD PTR _work$3[ebp]
	mov	DWORD PTR [edx+ecx], eax

; 222  :             work = temp >> n_rshift_bit_count; temp = pp[28]; work |= temp << n_lshift_bit_count; op[28] = work;

	mov	edx, DWORD PTR _temp$4[ebp]
	mov	ecx, DWORD PTR _n_rshift_bit_count$[ebp]
	shr	edx, cl
	mov	DWORD PTR _work$3[ebp], edx
	mov	eax, 4
	imul	ecx, eax, 28
	mov	edx, DWORD PTR _pp$[ebp]
	mov	eax, DWORD PTR [edx+ecx]
	mov	DWORD PTR _temp$4[ebp], eax
	mov	edx, DWORD PTR _temp$4[ebp]
	mov	ecx, DWORD PTR _n_lshift_bit_count$5[ebp]
	shl	edx, cl
	or	edx, DWORD PTR _work$3[ebp]
	mov	DWORD PTR _work$3[ebp], edx
	mov	eax, 4
	imul	ecx, eax, 28
	mov	edx, DWORD PTR _op$[ebp]
	mov	eax, DWORD PTR _work$3[ebp]
	mov	DWORD PTR [edx+ecx], eax

; 223  :             work = temp >> n_rshift_bit_count; temp = pp[29]; work |= temp << n_lshift_bit_count; op[29] = work;

	mov	edx, DWORD PTR _temp$4[ebp]
	mov	ecx, DWORD PTR _n_rshift_bit_count$[ebp]
	shr	edx, cl
	mov	DWORD PTR _work$3[ebp], edx
	mov	eax, 4
	imul	ecx, eax, 29
	mov	edx, DWORD PTR _pp$[ebp]
	mov	eax, DWORD PTR [edx+ecx]
	mov	DWORD PTR _temp$4[ebp], eax
	mov	edx, DWORD PTR _temp$4[ebp]
	mov	ecx, DWORD PTR _n_lshift_bit_count$5[ebp]
	shl	edx, cl
	or	edx, DWORD PTR _work$3[ebp]
	mov	DWORD PTR _work$3[ebp], edx
	mov	eax, 4
	imul	ecx, eax, 29
	mov	edx, DWORD PTR _op$[ebp]
	mov	eax, DWORD PTR _work$3[ebp]
	mov	DWORD PTR [edx+ecx], eax

; 224  :             work = temp >> n_rshift_bit_count; temp = pp[30]; work |= temp << n_lshift_bit_count; op[30] = work;

	mov	edx, DWORD PTR _temp$4[ebp]
	mov	ecx, DWORD PTR _n_rshift_bit_count$[ebp]
	shr	edx, cl
	mov	DWORD PTR _work$3[ebp], edx
	mov	eax, 4
	imul	ecx, eax, 30
	mov	edx, DWORD PTR _pp$[ebp]
	mov	eax, DWORD PTR [edx+ecx]
	mov	DWORD PTR _temp$4[ebp], eax
	mov	edx, DWORD PTR _temp$4[ebp]
	mov	ecx, DWORD PTR _n_lshift_bit_count$5[ebp]
	shl	edx, cl
	or	edx, DWORD PTR _work$3[ebp]
	mov	DWORD PTR _work$3[ebp], edx
	mov	eax, 4
	imul	ecx, eax, 30
	mov	edx, DWORD PTR _op$[ebp]
	mov	eax, DWORD PTR _work$3[ebp]
	mov	DWORD PTR [edx+ecx], eax

; 225  :             work = temp >> n_rshift_bit_count; temp = pp[31]; work |= temp << n_lshift_bit_count; op[31] = work;

	mov	edx, DWORD PTR _temp$4[ebp]
	mov	ecx, DWORD PTR _n_rshift_bit_count$[ebp]
	shr	edx, cl
	mov	DWORD PTR _work$3[ebp], edx
	mov	eax, 4
	imul	ecx, eax, 31
	mov	edx, DWORD PTR _pp$[ebp]
	mov	eax, DWORD PTR [edx+ecx]
	mov	DWORD PTR _temp$4[ebp], eax
	mov	edx, DWORD PTR _temp$4[ebp]
	mov	ecx, DWORD PTR _n_lshift_bit_count$5[ebp]
	shl	edx, cl
	or	edx, DWORD PTR _work$3[ebp]
	mov	DWORD PTR _work$3[ebp], edx
	mov	eax, 4
	imul	ecx, eax, 31
	mov	edx, DWORD PTR _op$[ebp]
	mov	eax, DWORD PTR _work$3[ebp]
	mov	DWORD PTR [edx+ecx], eax

; 226  :             --count;

	mov	ecx, DWORD PTR _count$1[ebp]
	sub	ecx, 1
	mov	DWORD PTR _count$1[ebp], ecx

; 227  :             pp += 32;

	mov	edx, DWORD PTR _pp$[ebp]
	add	edx, 128				; 00000080H
	mov	DWORD PTR _pp$[ebp], edx

; 228  :             op += 32;

	mov	eax, DWORD PTR _op$[ebp]
	add	eax, 128				; 00000080H
	mov	DWORD PTR _op$[ebp], eax

; 229  :         }

	jmp	$LN2@RightShift
$LN3@RightShift:

; 230  : 
; 231  :         if (t_count & 0x10)

	mov	ecx, DWORD PTR _t_count$2[ebp]
	and	ecx, 16					; 00000010H
	je	$LN7@RightShift

; 232  :         {
; 233  :             work = temp >> n_rshift_bit_count; temp = pp[0]; work |= temp << n_lshift_bit_count; op[0] = work;

	mov	edx, DWORD PTR _temp$4[ebp]
	mov	ecx, DWORD PTR _n_rshift_bit_count$[ebp]
	shr	edx, cl
	mov	DWORD PTR _work$3[ebp], edx
	mov	eax, 4
	imul	ecx, eax, 0
	mov	edx, DWORD PTR _pp$[ebp]
	mov	eax, DWORD PTR [edx+ecx]
	mov	DWORD PTR _temp$4[ebp], eax
	mov	edx, DWORD PTR _temp$4[ebp]
	mov	ecx, DWORD PTR _n_lshift_bit_count$5[ebp]
	shl	edx, cl
	or	edx, DWORD PTR _work$3[ebp]
	mov	DWORD PTR _work$3[ebp], edx
	mov	eax, 4
	imul	ecx, eax, 0
	mov	edx, DWORD PTR _op$[ebp]
	mov	eax, DWORD PTR _work$3[ebp]
	mov	DWORD PTR [edx+ecx], eax

; 234  :             work = temp >> n_rshift_bit_count; temp = pp[1]; work |= temp << n_lshift_bit_count; op[1] = work;

	mov	edx, DWORD PTR _temp$4[ebp]
	mov	ecx, DWORD PTR _n_rshift_bit_count$[ebp]
	shr	edx, cl
	mov	DWORD PTR _work$3[ebp], edx
	mov	eax, 4
	shl	eax, 0
	mov	ecx, DWORD PTR _pp$[ebp]
	mov	edx, DWORD PTR [ecx+eax]
	mov	DWORD PTR _temp$4[ebp], edx
	mov	eax, DWORD PTR _temp$4[ebp]
	mov	ecx, DWORD PTR _n_lshift_bit_count$5[ebp]
	shl	eax, cl
	or	eax, DWORD PTR _work$3[ebp]
	mov	DWORD PTR _work$3[ebp], eax
	mov	ecx, 4
	shl	ecx, 0
	mov	edx, DWORD PTR _op$[ebp]
	mov	eax, DWORD PTR _work$3[ebp]
	mov	DWORD PTR [edx+ecx], eax

; 235  :             work = temp >> n_rshift_bit_count; temp = pp[2]; work |= temp << n_lshift_bit_count; op[2] = work;

	mov	edx, DWORD PTR _temp$4[ebp]
	mov	ecx, DWORD PTR _n_rshift_bit_count$[ebp]
	shr	edx, cl
	mov	DWORD PTR _work$3[ebp], edx
	mov	eax, 4
	shl	eax, 1
	mov	ecx, DWORD PTR _pp$[ebp]
	mov	edx, DWORD PTR [ecx+eax]
	mov	DWORD PTR _temp$4[ebp], edx
	mov	eax, DWORD PTR _temp$4[ebp]
	mov	ecx, DWORD PTR _n_lshift_bit_count$5[ebp]
	shl	eax, cl
	or	eax, DWORD PTR _work$3[ebp]
	mov	DWORD PTR _work$3[ebp], eax
	mov	ecx, 4
	shl	ecx, 1
	mov	edx, DWORD PTR _op$[ebp]
	mov	eax, DWORD PTR _work$3[ebp]
	mov	DWORD PTR [edx+ecx], eax

; 236  :             work = temp >> n_rshift_bit_count; temp = pp[3]; work |= temp << n_lshift_bit_count; op[3] = work;

	mov	edx, DWORD PTR _temp$4[ebp]
	mov	ecx, DWORD PTR _n_rshift_bit_count$[ebp]
	shr	edx, cl
	mov	DWORD PTR _work$3[ebp], edx
	mov	eax, 4
	imul	ecx, eax, 3
	mov	edx, DWORD PTR _pp$[ebp]
	mov	eax, DWORD PTR [edx+ecx]
	mov	DWORD PTR _temp$4[ebp], eax
	mov	edx, DWORD PTR _temp$4[ebp]
	mov	ecx, DWORD PTR _n_lshift_bit_count$5[ebp]
	shl	edx, cl
	or	edx, DWORD PTR _work$3[ebp]
	mov	DWORD PTR _work$3[ebp], edx
	mov	eax, 4
	imul	ecx, eax, 3
	mov	edx, DWORD PTR _op$[ebp]
	mov	eax, DWORD PTR _work$3[ebp]
	mov	DWORD PTR [edx+ecx], eax

; 237  :             work = temp >> n_rshift_bit_count; temp = pp[4]; work |= temp << n_lshift_bit_count; op[4] = work;

	mov	edx, DWORD PTR _temp$4[ebp]
	mov	ecx, DWORD PTR _n_rshift_bit_count$[ebp]
	shr	edx, cl
	mov	DWORD PTR _work$3[ebp], edx
	mov	eax, 4
	shl	eax, 2
	mov	ecx, DWORD PTR _pp$[ebp]
	mov	edx, DWORD PTR [ecx+eax]
	mov	DWORD PTR _temp$4[ebp], edx
	mov	eax, DWORD PTR _temp$4[ebp]
	mov	ecx, DWORD PTR _n_lshift_bit_count$5[ebp]
	shl	eax, cl
	or	eax, DWORD PTR _work$3[ebp]
	mov	DWORD PTR _work$3[ebp], eax
	mov	ecx, 4
	shl	ecx, 2
	mov	edx, DWORD PTR _op$[ebp]
	mov	eax, DWORD PTR _work$3[ebp]
	mov	DWORD PTR [edx+ecx], eax

; 238  :             work = temp >> n_rshift_bit_count; temp = pp[5]; work |= temp << n_lshift_bit_count; op[5] = work;

	mov	edx, DWORD PTR _temp$4[ebp]
	mov	ecx, DWORD PTR _n_rshift_bit_count$[ebp]
	shr	edx, cl
	mov	DWORD PTR _work$3[ebp], edx
	mov	eax, 4
	imul	ecx, eax, 5
	mov	edx, DWORD PTR _pp$[ebp]
	mov	eax, DWORD PTR [edx+ecx]
	mov	DWORD PTR _temp$4[ebp], eax
	mov	edx, DWORD PTR _temp$4[ebp]
	mov	ecx, DWORD PTR _n_lshift_bit_count$5[ebp]
	shl	edx, cl
	or	edx, DWORD PTR _work$3[ebp]
	mov	DWORD PTR _work$3[ebp], edx
	mov	eax, 4
	imul	ecx, eax, 5
	mov	edx, DWORD PTR _op$[ebp]
	mov	eax, DWORD PTR _work$3[ebp]
	mov	DWORD PTR [edx+ecx], eax

; 239  :             work = temp >> n_rshift_bit_count; temp = pp[6]; work |= temp << n_lshift_bit_count; op[6] = work;

	mov	edx, DWORD PTR _temp$4[ebp]
	mov	ecx, DWORD PTR _n_rshift_bit_count$[ebp]
	shr	edx, cl
	mov	DWORD PTR _work$3[ebp], edx
	mov	eax, 4
	imul	ecx, eax, 6
	mov	edx, DWORD PTR _pp$[ebp]
	mov	eax, DWORD PTR [edx+ecx]
	mov	DWORD PTR _temp$4[ebp], eax
	mov	edx, DWORD PTR _temp$4[ebp]
	mov	ecx, DWORD PTR _n_lshift_bit_count$5[ebp]
	shl	edx, cl
	or	edx, DWORD PTR _work$3[ebp]
	mov	DWORD PTR _work$3[ebp], edx
	mov	eax, 4
	imul	ecx, eax, 6
	mov	edx, DWORD PTR _op$[ebp]
	mov	eax, DWORD PTR _work$3[ebp]
	mov	DWORD PTR [edx+ecx], eax

; 240  :             work = temp >> n_rshift_bit_count; temp = pp[7]; work |= temp << n_lshift_bit_count; op[7] = work;

	mov	edx, DWORD PTR _temp$4[ebp]
	mov	ecx, DWORD PTR _n_rshift_bit_count$[ebp]
	shr	edx, cl
	mov	DWORD PTR _work$3[ebp], edx
	mov	eax, 4
	imul	ecx, eax, 7
	mov	edx, DWORD PTR _pp$[ebp]
	mov	eax, DWORD PTR [edx+ecx]
	mov	DWORD PTR _temp$4[ebp], eax
	mov	edx, DWORD PTR _temp$4[ebp]
	mov	ecx, DWORD PTR _n_lshift_bit_count$5[ebp]
	shl	edx, cl
	or	edx, DWORD PTR _work$3[ebp]
	mov	DWORD PTR _work$3[ebp], edx
	mov	eax, 4
	imul	ecx, eax, 7
	mov	edx, DWORD PTR _op$[ebp]
	mov	eax, DWORD PTR _work$3[ebp]
	mov	DWORD PTR [edx+ecx], eax

; 241  :             work = temp >> n_rshift_bit_count; temp = pp[8]; work |= temp << n_lshift_bit_count; op[8] = work;

	mov	edx, DWORD PTR _temp$4[ebp]
	mov	ecx, DWORD PTR _n_rshift_bit_count$[ebp]
	shr	edx, cl
	mov	DWORD PTR _work$3[ebp], edx
	mov	eax, 4
	shl	eax, 3
	mov	ecx, DWORD PTR _pp$[ebp]
	mov	edx, DWORD PTR [ecx+eax]
	mov	DWORD PTR _temp$4[ebp], edx
	mov	eax, DWORD PTR _temp$4[ebp]
	mov	ecx, DWORD PTR _n_lshift_bit_count$5[ebp]
	shl	eax, cl
	or	eax, DWORD PTR _work$3[ebp]
	mov	DWORD PTR _work$3[ebp], eax
	mov	ecx, 4
	shl	ecx, 3
	mov	edx, DWORD PTR _op$[ebp]
	mov	eax, DWORD PTR _work$3[ebp]
	mov	DWORD PTR [edx+ecx], eax

; 242  :             work = temp >> n_rshift_bit_count; temp = pp[9]; work |= temp << n_lshift_bit_count; op[9] = work;

	mov	edx, DWORD PTR _temp$4[ebp]
	mov	ecx, DWORD PTR _n_rshift_bit_count$[ebp]
	shr	edx, cl
	mov	DWORD PTR _work$3[ebp], edx
	mov	eax, 4
	imul	ecx, eax, 9
	mov	edx, DWORD PTR _pp$[ebp]
	mov	eax, DWORD PTR [edx+ecx]
	mov	DWORD PTR _temp$4[ebp], eax
	mov	edx, DWORD PTR _temp$4[ebp]
	mov	ecx, DWORD PTR _n_lshift_bit_count$5[ebp]
	shl	edx, cl
	or	edx, DWORD PTR _work$3[ebp]
	mov	DWORD PTR _work$3[ebp], edx
	mov	eax, 4
	imul	ecx, eax, 9
	mov	edx, DWORD PTR _op$[ebp]
	mov	eax, DWORD PTR _work$3[ebp]
	mov	DWORD PTR [edx+ecx], eax

; 243  :             work = temp >> n_rshift_bit_count; temp = pp[10]; work |= temp << n_lshift_bit_count; op[10] = work;

	mov	edx, DWORD PTR _temp$4[ebp]
	mov	ecx, DWORD PTR _n_rshift_bit_count$[ebp]
	shr	edx, cl
	mov	DWORD PTR _work$3[ebp], edx
	mov	eax, 4
	imul	ecx, eax, 10
	mov	edx, DWORD PTR _pp$[ebp]
	mov	eax, DWORD PTR [edx+ecx]
	mov	DWORD PTR _temp$4[ebp], eax
	mov	edx, DWORD PTR _temp$4[ebp]
	mov	ecx, DWORD PTR _n_lshift_bit_count$5[ebp]
	shl	edx, cl
	or	edx, DWORD PTR _work$3[ebp]
	mov	DWORD PTR _work$3[ebp], edx
	mov	eax, 4
	imul	ecx, eax, 10
	mov	edx, DWORD PTR _op$[ebp]
	mov	eax, DWORD PTR _work$3[ebp]
	mov	DWORD PTR [edx+ecx], eax

; 244  :             work = temp >> n_rshift_bit_count; temp = pp[11]; work |= temp << n_lshift_bit_count; op[11] = work;

	mov	edx, DWORD PTR _temp$4[ebp]
	mov	ecx, DWORD PTR _n_rshift_bit_count$[ebp]
	shr	edx, cl
	mov	DWORD PTR _work$3[ebp], edx
	mov	eax, 4
	imul	ecx, eax, 11
	mov	edx, DWORD PTR _pp$[ebp]
	mov	eax, DWORD PTR [edx+ecx]
	mov	DWORD PTR _temp$4[ebp], eax
	mov	edx, DWORD PTR _temp$4[ebp]
	mov	ecx, DWORD PTR _n_lshift_bit_count$5[ebp]
	shl	edx, cl
	or	edx, DWORD PTR _work$3[ebp]
	mov	DWORD PTR _work$3[ebp], edx
	mov	eax, 4
	imul	ecx, eax, 11
	mov	edx, DWORD PTR _op$[ebp]
	mov	eax, DWORD PTR _work$3[ebp]
	mov	DWORD PTR [edx+ecx], eax

; 245  :             work = temp >> n_rshift_bit_count; temp = pp[12]; work |= temp << n_lshift_bit_count; op[12] = work;

	mov	edx, DWORD PTR _temp$4[ebp]
	mov	ecx, DWORD PTR _n_rshift_bit_count$[ebp]
	shr	edx, cl
	mov	DWORD PTR _work$3[ebp], edx
	mov	eax, 4
	imul	ecx, eax, 12
	mov	edx, DWORD PTR _pp$[ebp]
	mov	eax, DWORD PTR [edx+ecx]
	mov	DWORD PTR _temp$4[ebp], eax
	mov	edx, DWORD PTR _temp$4[ebp]
	mov	ecx, DWORD PTR _n_lshift_bit_count$5[ebp]
	shl	edx, cl
	or	edx, DWORD PTR _work$3[ebp]
	mov	DWORD PTR _work$3[ebp], edx
	mov	eax, 4
	imul	ecx, eax, 12
	mov	edx, DWORD PTR _op$[ebp]
	mov	eax, DWORD PTR _work$3[ebp]
	mov	DWORD PTR [edx+ecx], eax

; 246  :             work = temp >> n_rshift_bit_count; temp = pp[13]; work |= temp << n_lshift_bit_count; op[13] = work;

	mov	edx, DWORD PTR _temp$4[ebp]
	mov	ecx, DWORD PTR _n_rshift_bit_count$[ebp]
	shr	edx, cl
	mov	DWORD PTR _work$3[ebp], edx
	mov	eax, 4
	imul	ecx, eax, 13
	mov	edx, DWORD PTR _pp$[ebp]
	mov	eax, DWORD PTR [edx+ecx]
	mov	DWORD PTR _temp$4[ebp], eax
	mov	edx, DWORD PTR _temp$4[ebp]
	mov	ecx, DWORD PTR _n_lshift_bit_count$5[ebp]
	shl	edx, cl
	or	edx, DWORD PTR _work$3[ebp]
	mov	DWORD PTR _work$3[ebp], edx
	mov	eax, 4
	imul	ecx, eax, 13
	mov	edx, DWORD PTR _op$[ebp]
	mov	eax, DWORD PTR _work$3[ebp]
	mov	DWORD PTR [edx+ecx], eax

; 247  :             work = temp >> n_rshift_bit_count; temp = pp[14]; work |= temp << n_lshift_bit_count; op[14] = work;

	mov	edx, DWORD PTR _temp$4[ebp]
	mov	ecx, DWORD PTR _n_rshift_bit_count$[ebp]
	shr	edx, cl
	mov	DWORD PTR _work$3[ebp], edx
	mov	eax, 4
	imul	ecx, eax, 14
	mov	edx, DWORD PTR _pp$[ebp]
	mov	eax, DWORD PTR [edx+ecx]
	mov	DWORD PTR _temp$4[ebp], eax
	mov	edx, DWORD PTR _temp$4[ebp]
	mov	ecx, DWORD PTR _n_lshift_bit_count$5[ebp]
	shl	edx, cl
	or	edx, DWORD PTR _work$3[ebp]
	mov	DWORD PTR _work$3[ebp], edx
	mov	eax, 4
	imul	ecx, eax, 14
	mov	edx, DWORD PTR _op$[ebp]
	mov	eax, DWORD PTR _work$3[ebp]
	mov	DWORD PTR [edx+ecx], eax

; 248  :             work = temp >> n_rshift_bit_count; temp = pp[15]; work |= temp << n_lshift_bit_count; op[15] = work;

	mov	edx, DWORD PTR _temp$4[ebp]
	mov	ecx, DWORD PTR _n_rshift_bit_count$[ebp]
	shr	edx, cl
	mov	DWORD PTR _work$3[ebp], edx
	mov	eax, 4
	imul	ecx, eax, 15
	mov	edx, DWORD PTR _pp$[ebp]
	mov	eax, DWORD PTR [edx+ecx]
	mov	DWORD PTR _temp$4[ebp], eax
	mov	edx, DWORD PTR _temp$4[ebp]
	mov	ecx, DWORD PTR _n_lshift_bit_count$5[ebp]
	shl	edx, cl
	or	edx, DWORD PTR _work$3[ebp]
	mov	DWORD PTR _work$3[ebp], edx
	mov	eax, 4
	imul	ecx, eax, 15
	mov	edx, DWORD PTR _op$[ebp]
	mov	eax, DWORD PTR _work$3[ebp]
	mov	DWORD PTR [edx+ecx], eax

; 249  :             pp += 16;

	mov	ecx, DWORD PTR _pp$[ebp]
	add	ecx, 64					; 00000040H
	mov	DWORD PTR _pp$[ebp], ecx

; 250  :             op += 16;

	mov	edx, DWORD PTR _op$[ebp]
	add	edx, 64					; 00000040H
	mov	DWORD PTR _op$[ebp], edx
$LN7@RightShift:

; 251  :         }
; 252  : 
; 253  :         if (t_count & 0x8)

	mov	eax, DWORD PTR _t_count$2[ebp]
	and	eax, 8
	je	$LN8@RightShift

; 254  :         {
; 255  :             work = temp >> n_rshift_bit_count; temp = pp[0]; work |= temp << n_lshift_bit_count; op[0] = work;

	mov	edx, DWORD PTR _temp$4[ebp]
	mov	ecx, DWORD PTR _n_rshift_bit_count$[ebp]
	shr	edx, cl
	mov	DWORD PTR _work$3[ebp], edx
	mov	eax, 4
	imul	ecx, eax, 0
	mov	edx, DWORD PTR _pp$[ebp]
	mov	eax, DWORD PTR [edx+ecx]
	mov	DWORD PTR _temp$4[ebp], eax
	mov	edx, DWORD PTR _temp$4[ebp]
	mov	ecx, DWORD PTR _n_lshift_bit_count$5[ebp]
	shl	edx, cl
	or	edx, DWORD PTR _work$3[ebp]
	mov	DWORD PTR _work$3[ebp], edx
	mov	eax, 4
	imul	ecx, eax, 0
	mov	edx, DWORD PTR _op$[ebp]
	mov	eax, DWORD PTR _work$3[ebp]
	mov	DWORD PTR [edx+ecx], eax

; 256  :             work = temp >> n_rshift_bit_count; temp = pp[1]; work |= temp << n_lshift_bit_count; op[1] = work;

	mov	edx, DWORD PTR _temp$4[ebp]
	mov	ecx, DWORD PTR _n_rshift_bit_count$[ebp]
	shr	edx, cl
	mov	DWORD PTR _work$3[ebp], edx
	mov	eax, 4
	shl	eax, 0
	mov	ecx, DWORD PTR _pp$[ebp]
	mov	edx, DWORD PTR [ecx+eax]
	mov	DWORD PTR _temp$4[ebp], edx
	mov	eax, DWORD PTR _temp$4[ebp]
	mov	ecx, DWORD PTR _n_lshift_bit_count$5[ebp]
	shl	eax, cl
	or	eax, DWORD PTR _work$3[ebp]
	mov	DWORD PTR _work$3[ebp], eax
	mov	ecx, 4
	shl	ecx, 0
	mov	edx, DWORD PTR _op$[ebp]
	mov	eax, DWORD PTR _work$3[ebp]
	mov	DWORD PTR [edx+ecx], eax

; 257  :             work = temp >> n_rshift_bit_count; temp = pp[2]; work |= temp << n_lshift_bit_count; op[2] = work;

	mov	edx, DWORD PTR _temp$4[ebp]
	mov	ecx, DWORD PTR _n_rshift_bit_count$[ebp]
	shr	edx, cl
	mov	DWORD PTR _work$3[ebp], edx
	mov	eax, 4
	shl	eax, 1
	mov	ecx, DWORD PTR _pp$[ebp]
	mov	edx, DWORD PTR [ecx+eax]
	mov	DWORD PTR _temp$4[ebp], edx
	mov	eax, DWORD PTR _temp$4[ebp]
	mov	ecx, DWORD PTR _n_lshift_bit_count$5[ebp]
	shl	eax, cl
	or	eax, DWORD PTR _work$3[ebp]
	mov	DWORD PTR _work$3[ebp], eax
	mov	ecx, 4
	shl	ecx, 1
	mov	edx, DWORD PTR _op$[ebp]
	mov	eax, DWORD PTR _work$3[ebp]
	mov	DWORD PTR [edx+ecx], eax

; 258  :             work = temp >> n_rshift_bit_count; temp = pp[3]; work |= temp << n_lshift_bit_count; op[3] = work;

	mov	edx, DWORD PTR _temp$4[ebp]
	mov	ecx, DWORD PTR _n_rshift_bit_count$[ebp]
	shr	edx, cl
	mov	DWORD PTR _work$3[ebp], edx
	mov	eax, 4
	imul	ecx, eax, 3
	mov	edx, DWORD PTR _pp$[ebp]
	mov	eax, DWORD PTR [edx+ecx]
	mov	DWORD PTR _temp$4[ebp], eax
	mov	edx, DWORD PTR _temp$4[ebp]
	mov	ecx, DWORD PTR _n_lshift_bit_count$5[ebp]
	shl	edx, cl
	or	edx, DWORD PTR _work$3[ebp]
	mov	DWORD PTR _work$3[ebp], edx
	mov	eax, 4
	imul	ecx, eax, 3
	mov	edx, DWORD PTR _op$[ebp]
	mov	eax, DWORD PTR _work$3[ebp]
	mov	DWORD PTR [edx+ecx], eax

; 259  :             work = temp >> n_rshift_bit_count; temp = pp[4]; work |= temp << n_lshift_bit_count; op[4] = work;

	mov	edx, DWORD PTR _temp$4[ebp]
	mov	ecx, DWORD PTR _n_rshift_bit_count$[ebp]
	shr	edx, cl
	mov	DWORD PTR _work$3[ebp], edx
	mov	eax, 4
	shl	eax, 2
	mov	ecx, DWORD PTR _pp$[ebp]
	mov	edx, DWORD PTR [ecx+eax]
	mov	DWORD PTR _temp$4[ebp], edx
	mov	eax, DWORD PTR _temp$4[ebp]
	mov	ecx, DWORD PTR _n_lshift_bit_count$5[ebp]
	shl	eax, cl
	or	eax, DWORD PTR _work$3[ebp]
	mov	DWORD PTR _work$3[ebp], eax
	mov	ecx, 4
	shl	ecx, 2
	mov	edx, DWORD PTR _op$[ebp]
	mov	eax, DWORD PTR _work$3[ebp]
	mov	DWORD PTR [edx+ecx], eax

; 260  :             work = temp >> n_rshift_bit_count; temp = pp[5]; work |= temp << n_lshift_bit_count; op[5] = work;

	mov	edx, DWORD PTR _temp$4[ebp]
	mov	ecx, DWORD PTR _n_rshift_bit_count$[ebp]
	shr	edx, cl
	mov	DWORD PTR _work$3[ebp], edx
	mov	eax, 4
	imul	ecx, eax, 5
	mov	edx, DWORD PTR _pp$[ebp]
	mov	eax, DWORD PTR [edx+ecx]
	mov	DWORD PTR _temp$4[ebp], eax
	mov	edx, DWORD PTR _temp$4[ebp]
	mov	ecx, DWORD PTR _n_lshift_bit_count$5[ebp]
	shl	edx, cl
	or	edx, DWORD PTR _work$3[ebp]
	mov	DWORD PTR _work$3[ebp], edx
	mov	eax, 4
	imul	ecx, eax, 5
	mov	edx, DWORD PTR _op$[ebp]
	mov	eax, DWORD PTR _work$3[ebp]
	mov	DWORD PTR [edx+ecx], eax

; 261  :             work = temp >> n_rshift_bit_count; temp = pp[6]; work |= temp << n_lshift_bit_count; op[6] = work;

	mov	edx, DWORD PTR _temp$4[ebp]
	mov	ecx, DWORD PTR _n_rshift_bit_count$[ebp]
	shr	edx, cl
	mov	DWORD PTR _work$3[ebp], edx
	mov	eax, 4
	imul	ecx, eax, 6
	mov	edx, DWORD PTR _pp$[ebp]
	mov	eax, DWORD PTR [edx+ecx]
	mov	DWORD PTR _temp$4[ebp], eax
	mov	edx, DWORD PTR _temp$4[ebp]
	mov	ecx, DWORD PTR _n_lshift_bit_count$5[ebp]
	shl	edx, cl
	or	edx, DWORD PTR _work$3[ebp]
	mov	DWORD PTR _work$3[ebp], edx
	mov	eax, 4
	imul	ecx, eax, 6
	mov	edx, DWORD PTR _op$[ebp]
	mov	eax, DWORD PTR _work$3[ebp]
	mov	DWORD PTR [edx+ecx], eax

; 262  :             work = temp >> n_rshift_bit_count; temp = pp[7]; work |= temp << n_lshift_bit_count; op[7] = work;

	mov	edx, DWORD PTR _temp$4[ebp]
	mov	ecx, DWORD PTR _n_rshift_bit_count$[ebp]
	shr	edx, cl
	mov	DWORD PTR _work$3[ebp], edx
	mov	eax, 4
	imul	ecx, eax, 7
	mov	edx, DWORD PTR _pp$[ebp]
	mov	eax, DWORD PTR [edx+ecx]
	mov	DWORD PTR _temp$4[ebp], eax
	mov	edx, DWORD PTR _temp$4[ebp]
	mov	ecx, DWORD PTR _n_lshift_bit_count$5[ebp]
	shl	edx, cl
	or	edx, DWORD PTR _work$3[ebp]
	mov	DWORD PTR _work$3[ebp], edx
	mov	eax, 4
	imul	ecx, eax, 7
	mov	edx, DWORD PTR _op$[ebp]
	mov	eax, DWORD PTR _work$3[ebp]
	mov	DWORD PTR [edx+ecx], eax

; 263  :             pp += 8;

	mov	ecx, DWORD PTR _pp$[ebp]
	add	ecx, 32					; 00000020H
	mov	DWORD PTR _pp$[ebp], ecx

; 264  :             op += 8;

	mov	edx, DWORD PTR _op$[ebp]
	add	edx, 32					; 00000020H
	mov	DWORD PTR _op$[ebp], edx
$LN8@RightShift:

; 265  :         }
; 266  : 
; 267  :         if (t_count & 0x4)

	mov	eax, DWORD PTR _t_count$2[ebp]
	and	eax, 4
	je	$LN9@RightShift

; 268  :         {
; 269  :             work = temp >> n_rshift_bit_count; temp = pp[0]; work |= temp << n_lshift_bit_count; op[0] = work;

	mov	edx, DWORD PTR _temp$4[ebp]
	mov	ecx, DWORD PTR _n_rshift_bit_count$[ebp]
	shr	edx, cl
	mov	DWORD PTR _work$3[ebp], edx
	mov	eax, 4
	imul	ecx, eax, 0
	mov	edx, DWORD PTR _pp$[ebp]
	mov	eax, DWORD PTR [edx+ecx]
	mov	DWORD PTR _temp$4[ebp], eax
	mov	edx, DWORD PTR _temp$4[ebp]
	mov	ecx, DWORD PTR _n_lshift_bit_count$5[ebp]
	shl	edx, cl
	or	edx, DWORD PTR _work$3[ebp]
	mov	DWORD PTR _work$3[ebp], edx
	mov	eax, 4
	imul	ecx, eax, 0
	mov	edx, DWORD PTR _op$[ebp]
	mov	eax, DWORD PTR _work$3[ebp]
	mov	DWORD PTR [edx+ecx], eax

; 270  :             work = temp >> n_rshift_bit_count; temp = pp[1]; work |= temp << n_lshift_bit_count; op[1] = work;

	mov	edx, DWORD PTR _temp$4[ebp]
	mov	ecx, DWORD PTR _n_rshift_bit_count$[ebp]
	shr	edx, cl
	mov	DWORD PTR _work$3[ebp], edx
	mov	eax, 4
	shl	eax, 0
	mov	ecx, DWORD PTR _pp$[ebp]
	mov	edx, DWORD PTR [ecx+eax]
	mov	DWORD PTR _temp$4[ebp], edx
	mov	eax, DWORD PTR _temp$4[ebp]
	mov	ecx, DWORD PTR _n_lshift_bit_count$5[ebp]
	shl	eax, cl
	or	eax, DWORD PTR _work$3[ebp]
	mov	DWORD PTR _work$3[ebp], eax
	mov	ecx, 4
	shl	ecx, 0
	mov	edx, DWORD PTR _op$[ebp]
	mov	eax, DWORD PTR _work$3[ebp]
	mov	DWORD PTR [edx+ecx], eax

; 271  :             work = temp >> n_rshift_bit_count; temp = pp[2]; work |= temp << n_lshift_bit_count; op[2] = work;

	mov	edx, DWORD PTR _temp$4[ebp]
	mov	ecx, DWORD PTR _n_rshift_bit_count$[ebp]
	shr	edx, cl
	mov	DWORD PTR _work$3[ebp], edx
	mov	eax, 4
	shl	eax, 1
	mov	ecx, DWORD PTR _pp$[ebp]
	mov	edx, DWORD PTR [ecx+eax]
	mov	DWORD PTR _temp$4[ebp], edx
	mov	eax, DWORD PTR _temp$4[ebp]
	mov	ecx, DWORD PTR _n_lshift_bit_count$5[ebp]
	shl	eax, cl
	or	eax, DWORD PTR _work$3[ebp]
	mov	DWORD PTR _work$3[ebp], eax
	mov	ecx, 4
	shl	ecx, 1
	mov	edx, DWORD PTR _op$[ebp]
	mov	eax, DWORD PTR _work$3[ebp]
	mov	DWORD PTR [edx+ecx], eax

; 272  :             work = temp >> n_rshift_bit_count; temp = pp[3]; work |= temp << n_lshift_bit_count; op[3] = work;

	mov	edx, DWORD PTR _temp$4[ebp]
	mov	ecx, DWORD PTR _n_rshift_bit_count$[ebp]
	shr	edx, cl
	mov	DWORD PTR _work$3[ebp], edx
	mov	eax, 4
	imul	ecx, eax, 3
	mov	edx, DWORD PTR _pp$[ebp]
	mov	eax, DWORD PTR [edx+ecx]
	mov	DWORD PTR _temp$4[ebp], eax
	mov	edx, DWORD PTR _temp$4[ebp]
	mov	ecx, DWORD PTR _n_lshift_bit_count$5[ebp]
	shl	edx, cl
	or	edx, DWORD PTR _work$3[ebp]
	mov	DWORD PTR _work$3[ebp], edx
	mov	eax, 4
	imul	ecx, eax, 3
	mov	edx, DWORD PTR _op$[ebp]
	mov	eax, DWORD PTR _work$3[ebp]
	mov	DWORD PTR [edx+ecx], eax

; 273  :             pp += 4;

	mov	ecx, DWORD PTR _pp$[ebp]
	add	ecx, 16					; 00000010H
	mov	DWORD PTR _pp$[ebp], ecx

; 274  :             op += 4;

	mov	edx, DWORD PTR _op$[ebp]
	add	edx, 16					; 00000010H
	mov	DWORD PTR _op$[ebp], edx
$LN9@RightShift:

; 275  :         }
; 276  : 
; 277  :         if (t_count & 0x2)

	mov	eax, DWORD PTR _t_count$2[ebp]
	and	eax, 2
	je	$LN10@RightShift

; 278  :         {
; 279  :             work = temp >> n_rshift_bit_count; temp = pp[0]; work |= temp << n_lshift_bit_count; op[0] = work;

	mov	edx, DWORD PTR _temp$4[ebp]
	mov	ecx, DWORD PTR _n_rshift_bit_count$[ebp]
	shr	edx, cl
	mov	DWORD PTR _work$3[ebp], edx
	mov	eax, 4
	imul	ecx, eax, 0
	mov	edx, DWORD PTR _pp$[ebp]
	mov	eax, DWORD PTR [edx+ecx]
	mov	DWORD PTR _temp$4[ebp], eax
	mov	edx, DWORD PTR _temp$4[ebp]
	mov	ecx, DWORD PTR _n_lshift_bit_count$5[ebp]
	shl	edx, cl
	or	edx, DWORD PTR _work$3[ebp]
	mov	DWORD PTR _work$3[ebp], edx
	mov	eax, 4
	imul	ecx, eax, 0
	mov	edx, DWORD PTR _op$[ebp]
	mov	eax, DWORD PTR _work$3[ebp]
	mov	DWORD PTR [edx+ecx], eax

; 280  :             work = temp >> n_rshift_bit_count; temp = pp[1]; work |= temp << n_lshift_bit_count; op[1] = work;

	mov	edx, DWORD PTR _temp$4[ebp]
	mov	ecx, DWORD PTR _n_rshift_bit_count$[ebp]
	shr	edx, cl
	mov	DWORD PTR _work$3[ebp], edx
	mov	eax, 4
	shl	eax, 0
	mov	ecx, DWORD PTR _pp$[ebp]
	mov	edx, DWORD PTR [ecx+eax]
	mov	DWORD PTR _temp$4[ebp], edx
	mov	eax, DWORD PTR _temp$4[ebp]
	mov	ecx, DWORD PTR _n_lshift_bit_count$5[ebp]
	shl	eax, cl
	or	eax, DWORD PTR _work$3[ebp]
	mov	DWORD PTR _work$3[ebp], eax
	mov	ecx, 4
	shl	ecx, 0
	mov	edx, DWORD PTR _op$[ebp]
	mov	eax, DWORD PTR _work$3[ebp]
	mov	DWORD PTR [edx+ecx], eax

; 281  :             pp += 2;

	mov	ecx, DWORD PTR _pp$[ebp]
	add	ecx, 8
	mov	DWORD PTR _pp$[ebp], ecx

; 282  :             op += 2;

	mov	edx, DWORD PTR _op$[ebp]
	add	edx, 8
	mov	DWORD PTR _op$[ebp], edx
$LN10@RightShift:

; 283  :         }
; 284  : 
; 285  :         if (t_count & 0x1)

	mov	eax, DWORD PTR _t_count$2[ebp]
	and	eax, 1
	je	SHORT $LN11@RightShift

; 286  :         {
; 287  :             work = temp >> n_rshift_bit_count; temp = pp[0]; work |= temp << n_lshift_bit_count; op[0] = work;

	mov	edx, DWORD PTR _temp$4[ebp]
	mov	ecx, DWORD PTR _n_rshift_bit_count$[ebp]
	shr	edx, cl
	mov	DWORD PTR _work$3[ebp], edx
	mov	eax, 4
	imul	ecx, eax, 0
	mov	edx, DWORD PTR _pp$[ebp]
	mov	eax, DWORD PTR [edx+ecx]
	mov	DWORD PTR _temp$4[ebp], eax
	mov	edx, DWORD PTR _temp$4[ebp]
	mov	ecx, DWORD PTR _n_lshift_bit_count$5[ebp]
	shl	edx, cl
	or	edx, DWORD PTR _work$3[ebp]
	mov	DWORD PTR _work$3[ebp], edx
	mov	eax, 4
	imul	ecx, eax, 0
	mov	edx, DWORD PTR _op$[ebp]
	mov	eax, DWORD PTR _work$3[ebp]
	mov	DWORD PTR [edx+ecx], eax

; 288  :             pp += 1;

	mov	ecx, DWORD PTR _pp$[ebp]
	add	ecx, 4
	mov	DWORD PTR _pp$[ebp], ecx

; 289  :             op += 1;

	mov	edx, DWORD PTR _op$[ebp]
	add	edx, 4
	mov	DWORD PTR _op$[ebp], edx
$LN11@RightShift:

; 290  :         }
; 291  : 
; 292  :         work = temp >> n_rshift_bit_count;

	mov	eax, DWORD PTR _temp$4[ebp]
	mov	ecx, DWORD PTR _n_rshift_bit_count$[ebp]
	shr	eax, cl
	mov	DWORD PTR _work$3[ebp], eax

; 293  :         if (work != 0 || padding_zero)

	cmp	DWORD PTR _work$3[ebp], 0
	jne	SHORT $LN13@RightShift
	cmp	DWORD PTR _padding_zero$[ebp], 0
	je	SHORT $LN12@RightShift
$LN13@RightShift:

; 294  :             *op = work;

	mov	ecx, DWORD PTR _op$[ebp]
	mov	edx, DWORD PTR _work$3[ebp]
	mov	DWORD PTR [ecx], edx
$LN12@RightShift:

; 295  : 
; 296  :         if (padding_zero)

	cmp	DWORD PTR _padding_zero$[ebp], 0
	je	SHORT $LN1@RightShift

; 297  :             _ZERO_MEMORY_UNIT_DIV(o + p_word_count - n_word_count, n_word_count);

	mov	eax, DWORD PTR _n_word_count$[ebp]
	push	eax
	mov	ecx, DWORD PTR _p_word_count$[ebp]
	mov	edx, DWORD PTR _o$[ebp]
	lea	eax, DWORD PTR [edx+ecx*4]
	mov	ecx, DWORD PTR _n_word_count$[ebp]
	shl	ecx, 2
	sub	eax, ecx
	push	eax
	call	__ZERO_MEMORY_UNIT_DIV
	add	esp, 8
$LN1@RightShift:

; 298  :     }
; 299  : }

	pop	edi
	add	esp, 40					; 00000028H
	cmp	ebp, esp
	call	__RTC_CheckEsp
	mov	esp, ebp
	pop	ebp
	ret	0
_RightShift_Imp_DIV ENDP
_TEXT	ENDS
END
