; Listing generated by Microsoft (R) Optimizing Compiler Version 19.16.27027.1 

	TITLE	Z:\Sources\Lunor\Repos\rougemeilland\Palmtree.Math.Core.Uint\Palmtree.Math.Core.Uint\pmc_from.cpp
	.686P
	.XMM
	include listing.inc
	.model	flat

INCLUDELIB MSVCRTD
INCLUDELIB OLDNAMES

msvcjmc	SEGMENT
__7B7A869E_ctype@h DB 01H
__457DD326_basetsd@h DB 01H
__4384A2D9_corecrt_memcpy_s@h DB 01H
__2088847F_corecrt_memory@h DB 01H
__4E51A221_corecrt_wstring@h DB 01H
__2140C079_string@h DB 01H
__E9FFF232_guiddef@h DB 01H
__1887E595_winnt@h DB 01H
__9FC7C64B_processthreadsapi@h DB 01H
__FA470AEC_memoryapi@h DB 01H
__F37DAFF1_winerror@h DB 01H
__7A450CCC_winbase@h DB 01H
__12AD47BB_winuser@h DB 01H
__B4B40122_winioctl@h DB 01H
__A73354DD_stdlib@h DB 01H
__25F3FB34_propidl@h DB 01H
__A40E48B8_oleauto@h DB 01H
__86261D59_stralign@h DB 01H
__2CC6E67D_corecrt_stdio_config@h DB 01H
__41381B41_corecrt_wconio@h DB 01H
__F0CC4AC4_corecrt_wio@h DB 01H
__05476D76_corecrt_wstdio@h DB 01H
__C0802A2B_corecrt_wtime@h DB 01H
__A40A425D_stat@h DB 01H
__5A74375D_wchar@h DB 01H
__6BC0FD35_vcruntime_new@h DB 01H
__77F53984_cstddef DB 01H
__188180DA_corecrt_math@h DB 01H
__D23EE329_cstdlib DB 01H
__5ECFF36E_type_traits DB 01H
__331E732B_malloc@h DB 01H
__9BB4E194_vcruntime_exception@h DB 01H
__7949CB39_exception DB 01H
__802FEEC0_pmc_exception@h DB 01H
__BB6D3116_pmc_uint_internal@h DB 01H
__1AB12E38_pmc_resourceholder@h DB 01H
__746E1CEC_xmmintrin@h DB 01H
__8CA3E54E_pmc_inline_func@h DB 01H
__5486D3C5_pmc_from@cpp DB 01H
msvcjmc	ENDS
CONST	SEGMENT
$SG117891 DB	'p', 00H, 'm', 00H, 'c', 00H, '_', 00H, 'f', 00H, 'r', 00H
	DB	'o', 00H, 'm', 00H, '.', 00H, 'c', 00H, 'p', 00H, 'p', 00H, ';'
	DB	00H, 'F', 00H, 'r', 00H, 'o', 00H, 'm', 00H, '_', 00H, 'L', 00H
	DB	'_', 00H, 'I', 00H, 'm', 00H, 'p', 00H, ';', 00H, '1', 00H, 00H
	DB	00H
$SG117892 DB	088H, 'N', 01fH, 'gW0f0D0j0D0', 0b3H, '0', 0fcH, '0', 0c9H
	DB	'0k00RT', 090H, 'W0~0W0_0', 02H, '0', 00H, 00H
	ORG $+2
$SG117909 DB	'p', 00H, 'm', 00H, 'c', 00H, '_', 00H, 'f', 00H, 'r', 00H
	DB	'o', 00H, 'm', 00H, '.', 00H, 'c', 00H, 'p', 00H, 'p', 00H, ';'
	DB	00H, 'P', 00H, 'M', 00H, 'C', 00H, '_', 00H, 'F', 00H, 'r', 00H
	DB	'o', 00H, 'm', 00H, '_', 00H, 'I', 00H, ';', 00H, '1', 00H, 00H
	DB	00H
$SG117910 DB	088H, 'N', 01fH, 'gW0f0D0j0D0', 0b3H, '0', 0fcH, '0', 0c9H
	DB	'0k00RT', 090H, 'W0~0W0_0', 02H, '0', 00H, 00H
	ORG $+2
$SG117923 DB	'p', 00H, 'm', 00H, 'c', 00H, '_', 00H, 'f', 00H, 'r', 00H
	DB	'o', 00H, 'm', 00H, '.', 00H, 'c', 00H, 'p', 00H, 'p', 00H, ';'
	DB	00H, 'P', 00H, 'M', 00H, 'C', 00H, '_', 00H, 'F', 00H, 'r', 00H
	DB	'o', 00H, 'm', 00H, '_', 00H, 'L', 00H, ';', 00H, '1', 00H, 00H
	DB	00H
$SG117924 DB	088H, 'N', 01fH, 'gW0f0D0j0D0', 0b3H, '0', 0fcH, '0', 0c9H
	DB	'0k00RT', 090H, 'W0~0W0_0', 02H, '0', 00H, 00H
CONST	ENDS
PUBLIC	??0exception@std@@QAE@XZ			; std::exception::exception
PUBLIC	??1exception@std@@UAE@XZ			; std::exception::~exception
PUBLIC	?what@exception@std@@UBEPBDXZ			; std::exception::what
PUBLIC	??_Gexception@std@@UAEPAXI@Z			; std::exception::`scalar deleting destructor'
PUBLIC	??0Exception@Internal@Core@Math@Palmtree@@IAE@HPB_W0@Z ; Palmtree::Math::Core::Internal::Exception::Exception
PUBLIC	??0Exception@Internal@Core@Math@Palmtree@@QAE@ABV01234@@Z ; Palmtree::Math::Core::Internal::Exception::Exception
PUBLIC	??1Exception@Internal@Core@Math@Palmtree@@UAE@XZ ; Palmtree::Math::Core::Internal::Exception::~Exception
PUBLIC	??_GException@Internal@Core@Math@Palmtree@@UAEPAXI@Z ; Palmtree::Math::Core::Internal::Exception::`scalar deleting destructor'
PUBLIC	??0InternalErrorException@Internal@Core@Math@Palmtree@@QAE@PB_W0@Z ; Palmtree::Math::Core::Internal::InternalErrorException::InternalErrorException
PUBLIC	??0InternalErrorException@Internal@Core@Math@Palmtree@@QAE@ABV01234@@Z ; Palmtree::Math::Core::Internal::InternalErrorException::InternalErrorException
PUBLIC	??1InternalErrorException@Internal@Core@Math@Palmtree@@UAE@XZ ; Palmtree::Math::Core::Internal::InternalErrorException::~InternalErrorException
PUBLIC	??_GInternalErrorException@Internal@Core@Math@Palmtree@@UAEPAXI@Z ; Palmtree::Math::Core::Internal::InternalErrorException::`scalar deleting destructor'
PUBLIC	?From_I_Imp@Internal@Core@Math@Palmtree@@YAPAU__tag_NUMBER_HEADER@1234@I@Z ; Palmtree::Math::Core::Internal::From_I_Imp
PUBLIC	?From_L_Imp@Internal@Core@Math@Palmtree@@YAPAU__tag_NUMBER_HEADER@1234@_K@Z ; Palmtree::Math::Core::Internal::From_L_Imp
PUBLIC	?Initialize_From@Internal@Core@Math@Palmtree@@YAHPAU_tag_PROCESSOR_FEATURES@1234@@Z ; Palmtree::Math::Core::Internal::Initialize_From
PUBLIC	?PMC_From_I@Internal@Core@Math@Palmtree@@YGPAU__tag_PMC_HANDLE_UINT@1234@I@Z ; Palmtree::Math::Core::Internal::PMC_From_I
PUBLIC	?PMC_From_L@Internal@Core@Math@Palmtree@@YGPAU__tag_PMC_HANDLE_UINT@1234@_K@Z ; Palmtree::Math::Core::Internal::PMC_From_L
PUBLIC	__JustMyCode_Default
PUBLIC	??_7exception@std@@6B@				; std::exception::`vftable'
PUBLIC	??_C@_0BC@EOODALEL@Unknown?5exception@		; `string'
PUBLIC	??_7Exception@Internal@Core@Math@Palmtree@@6B@	; Palmtree::Math::Core::Internal::Exception::`vftable'
PUBLIC	??_7InternalErrorException@Internal@Core@Math@Palmtree@@6B@ ; Palmtree::Math::Core::Internal::InternalErrorException::`vftable'
PUBLIC	__TI2?AVInternalErrorException@Internal@Core@Math@Palmtree@@
PUBLIC	__CTA2?AVInternalErrorException@Internal@Core@Math@Palmtree@@
PUBLIC	??_R0?AVInternalErrorException@Internal@Core@Math@Palmtree@@@8 ; Palmtree::Math::Core::Internal::InternalErrorException `RTTI Type Descriptor'
PUBLIC	__CT??_R0?AVInternalErrorException@Internal@Core@Math@Palmtree@@@8??0InternalErrorException@Internal@Core@Math@Palmtree@@QAE@ABV01234@@Z24
PUBLIC	??_R0?AVException@Internal@Core@Math@Palmtree@@@8 ; Palmtree::Math::Core::Internal::Exception `RTTI Type Descriptor'
PUBLIC	__CT??_R0?AVException@Internal@Core@Math@Palmtree@@@8??0Exception@Internal@Core@Math@Palmtree@@QAE@ABV01234@@Z24
PUBLIC	??_R4exception@std@@6B@				; std::exception::`RTTI Complete Object Locator'
PUBLIC	??_R0?AVexception@std@@@8			; std::exception `RTTI Type Descriptor'
PUBLIC	??_R3exception@std@@8				; std::exception::`RTTI Class Hierarchy Descriptor'
PUBLIC	??_R2exception@std@@8				; std::exception::`RTTI Base Class Array'
PUBLIC	??_R1A@?0A@EA@exception@std@@8			; std::exception::`RTTI Base Class Descriptor at (0,-1,0,64)'
PUBLIC	??_R4Exception@Internal@Core@Math@Palmtree@@6B@	; Palmtree::Math::Core::Internal::Exception::`RTTI Complete Object Locator'
PUBLIC	??_R3Exception@Internal@Core@Math@Palmtree@@8	; Palmtree::Math::Core::Internal::Exception::`RTTI Class Hierarchy Descriptor'
PUBLIC	??_R2Exception@Internal@Core@Math@Palmtree@@8	; Palmtree::Math::Core::Internal::Exception::`RTTI Base Class Array'
PUBLIC	??_R1A@?0A@EA@Exception@Internal@Core@Math@Palmtree@@8 ; Palmtree::Math::Core::Internal::Exception::`RTTI Base Class Descriptor at (0,-1,0,64)'
PUBLIC	??_R1A@?0A@EN@exception@std@@8			; std::exception::`RTTI Base Class Descriptor at (0,-1,0,77)'
PUBLIC	??_R4InternalErrorException@Internal@Core@Math@Palmtree@@6B@ ; Palmtree::Math::Core::Internal::InternalErrorException::`RTTI Complete Object Locator'
PUBLIC	??_R3InternalErrorException@Internal@Core@Math@Palmtree@@8 ; Palmtree::Math::Core::Internal::InternalErrorException::`RTTI Class Hierarchy Descriptor'
PUBLIC	??_R2InternalErrorException@Internal@Core@Math@Palmtree@@8 ; Palmtree::Math::Core::Internal::InternalErrorException::`RTTI Base Class Array'
PUBLIC	??_R1A@?0A@EA@InternalErrorException@Internal@Core@Math@Palmtree@@8 ; Palmtree::Math::Core::Internal::InternalErrorException::`RTTI Base Class Descriptor at (0,-1,0,64)'
EXTRN	??3@YAXPAXI@Z:PROC				; operator delete
EXTRN	___std_exception_destroy:PROC
EXTRN	??_Eexception@std@@UAEPAXI@Z:PROC		; std::exception::`vector deleting destructor'
EXTRN	??_EException@Internal@Core@Math@Palmtree@@UAEPAXI@Z:PROC ; Palmtree::Math::Core::Internal::Exception::`vector deleting destructor'
EXTRN	??_EInternalErrorException@Internal@Core@Math@Palmtree@@UAEPAXI@Z:PROC ; Palmtree::Math::Core::Internal::InternalErrorException::`vector deleting destructor'
EXTRN	?CommitNumber@Internal@Core@Math@Palmtree@@YAXPAU__tag_NUMBER_HEADER@1234@@Z:PROC ; Palmtree::Math::Core::Internal::CommitNumber
EXTRN	?CheckNumber@Internal@Core@Math@Palmtree@@YAXPAU__tag_NUMBER_HEADER@1234@@Z:PROC ; Palmtree::Math::Core::Internal::CheckNumber
EXTRN	??0ResourceHolderUINT@Internal@Core@Math@Palmtree@@QAE@XZ:PROC ; Palmtree::Math::Core::Internal::ResourceHolderUINT::ResourceHolderUINT
EXTRN	??1ResourceHolderUINT@Internal@Core@Math@Palmtree@@UAE@XZ:PROC ; Palmtree::Math::Core::Internal::ResourceHolderUINT::~ResourceHolderUINT
EXTRN	?AllocateNumber@ResourceHolderUINT@Internal@Core@Math@Palmtree@@QAEPAU__tag_NUMBER_HEADER@2345@I@Z:PROC ; Palmtree::Math::Core::Internal::ResourceHolderUINT::AllocateNumber
EXTRN	?HookNumber@ResourceHolderUINT@Internal@Core@Math@Palmtree@@QAEXPAU__tag_NUMBER_HEADER@2345@@Z:PROC ; Palmtree::Math::Core::Internal::ResourceHolderUINT::HookNumber
EXTRN	?UnlinkNumber@ResourceHolderUINT@Internal@Core@Math@Palmtree@@QAEXPAU__tag_NUMBER_HEADER@2345@@Z:PROC ; Palmtree::Math::Core::Internal::ResourceHolderUINT::UnlinkNumber
EXTRN	@_RTC_CheckStackVars@8:PROC
EXTRN	@__CheckForDebuggerJustMyCode@4:PROC
EXTRN	@__security_check_cookie@4:PROC
EXTRN	__CxxThrowException@8:PROC
EXTRN	__RTC_CheckEsp:PROC
EXTRN	__RTC_InitBase:PROC
EXTRN	__RTC_Shutdown:PROC
EXTRN	___CxxFrameHandler3:PROC
EXTRN	__aullshr:PROC
EXTRN	?number_zero@Internal@Core@Math@Palmtree@@3U__tag_NUMBER_HEADER@1234@A:BYTE ; Palmtree::Math::Core::Internal::number_zero
EXTRN	??_7type_info@@6B@:QWORD			; type_info::`vftable'
EXTRN	___security_cookie:DWORD
;	COMDAT rtc$TMZ
rtc$TMZ	SEGMENT
__RTC_Shutdown.rtc$TMZ DD FLAT:__RTC_Shutdown
rtc$TMZ	ENDS
;	COMDAT rtc$IMZ
rtc$IMZ	SEGMENT
__RTC_InitBase.rtc$IMZ DD FLAT:__RTC_InitBase
rtc$IMZ	ENDS
;	COMDAT ??_R1A@?0A@EA@InternalErrorException@Internal@Core@Math@Palmtree@@8
rdata$r	SEGMENT
??_R1A@?0A@EA@InternalErrorException@Internal@Core@Math@Palmtree@@8 DD FLAT:??_R0?AVInternalErrorException@Internal@Core@Math@Palmtree@@@8 ; Palmtree::Math::Core::Internal::InternalErrorException::`RTTI Base Class Descriptor at (0,-1,0,64)'
	DD	02H
	DD	00H
	DD	0ffffffffH
	DD	00H
	DD	040H
	DD	FLAT:??_R3InternalErrorException@Internal@Core@Math@Palmtree@@8
rdata$r	ENDS
;	COMDAT ??_R2InternalErrorException@Internal@Core@Math@Palmtree@@8
rdata$r	SEGMENT
??_R2InternalErrorException@Internal@Core@Math@Palmtree@@8 DD FLAT:??_R1A@?0A@EA@InternalErrorException@Internal@Core@Math@Palmtree@@8 ; Palmtree::Math::Core::Internal::InternalErrorException::`RTTI Base Class Array'
	DD	FLAT:??_R1A@?0A@EA@Exception@Internal@Core@Math@Palmtree@@8
	DD	FLAT:??_R1A@?0A@EN@exception@std@@8
rdata$r	ENDS
;	COMDAT ??_R3InternalErrorException@Internal@Core@Math@Palmtree@@8
rdata$r	SEGMENT
??_R3InternalErrorException@Internal@Core@Math@Palmtree@@8 DD 00H ; Palmtree::Math::Core::Internal::InternalErrorException::`RTTI Class Hierarchy Descriptor'
	DD	00H
	DD	03H
	DD	FLAT:??_R2InternalErrorException@Internal@Core@Math@Palmtree@@8
rdata$r	ENDS
;	COMDAT ??_R4InternalErrorException@Internal@Core@Math@Palmtree@@6B@
rdata$r	SEGMENT
??_R4InternalErrorException@Internal@Core@Math@Palmtree@@6B@ DD 00H ; Palmtree::Math::Core::Internal::InternalErrorException::`RTTI Complete Object Locator'
	DD	00H
	DD	00H
	DD	FLAT:??_R0?AVInternalErrorException@Internal@Core@Math@Palmtree@@@8
	DD	FLAT:??_R3InternalErrorException@Internal@Core@Math@Palmtree@@8
rdata$r	ENDS
;	COMDAT ??_R1A@?0A@EN@exception@std@@8
rdata$r	SEGMENT
??_R1A@?0A@EN@exception@std@@8 DD FLAT:??_R0?AVexception@std@@@8 ; std::exception::`RTTI Base Class Descriptor at (0,-1,0,77)'
	DD	00H
	DD	00H
	DD	0ffffffffH
	DD	00H
	DD	04dH
	DD	FLAT:??_R3exception@std@@8
rdata$r	ENDS
;	COMDAT ??_R1A@?0A@EA@Exception@Internal@Core@Math@Palmtree@@8
rdata$r	SEGMENT
??_R1A@?0A@EA@Exception@Internal@Core@Math@Palmtree@@8 DD FLAT:??_R0?AVException@Internal@Core@Math@Palmtree@@@8 ; Palmtree::Math::Core::Internal::Exception::`RTTI Base Class Descriptor at (0,-1,0,64)'
	DD	01H
	DD	00H
	DD	0ffffffffH
	DD	00H
	DD	040H
	DD	FLAT:??_R3Exception@Internal@Core@Math@Palmtree@@8
rdata$r	ENDS
;	COMDAT ??_R2Exception@Internal@Core@Math@Palmtree@@8
rdata$r	SEGMENT
??_R2Exception@Internal@Core@Math@Palmtree@@8 DD FLAT:??_R1A@?0A@EA@Exception@Internal@Core@Math@Palmtree@@8 ; Palmtree::Math::Core::Internal::Exception::`RTTI Base Class Array'
	DD	FLAT:??_R1A@?0A@EN@exception@std@@8
rdata$r	ENDS
;	COMDAT ??_R3Exception@Internal@Core@Math@Palmtree@@8
rdata$r	SEGMENT
??_R3Exception@Internal@Core@Math@Palmtree@@8 DD 00H	; Palmtree::Math::Core::Internal::Exception::`RTTI Class Hierarchy Descriptor'
	DD	00H
	DD	02H
	DD	FLAT:??_R2Exception@Internal@Core@Math@Palmtree@@8
rdata$r	ENDS
;	COMDAT ??_R4Exception@Internal@Core@Math@Palmtree@@6B@
rdata$r	SEGMENT
??_R4Exception@Internal@Core@Math@Palmtree@@6B@ DD 00H	; Palmtree::Math::Core::Internal::Exception::`RTTI Complete Object Locator'
	DD	00H
	DD	00H
	DD	FLAT:??_R0?AVException@Internal@Core@Math@Palmtree@@@8
	DD	FLAT:??_R3Exception@Internal@Core@Math@Palmtree@@8
rdata$r	ENDS
;	COMDAT ??_R1A@?0A@EA@exception@std@@8
rdata$r	SEGMENT
??_R1A@?0A@EA@exception@std@@8 DD FLAT:??_R0?AVexception@std@@@8 ; std::exception::`RTTI Base Class Descriptor at (0,-1,0,64)'
	DD	00H
	DD	00H
	DD	0ffffffffH
	DD	00H
	DD	040H
	DD	FLAT:??_R3exception@std@@8
rdata$r	ENDS
;	COMDAT ??_R2exception@std@@8
rdata$r	SEGMENT
??_R2exception@std@@8 DD FLAT:??_R1A@?0A@EA@exception@std@@8 ; std::exception::`RTTI Base Class Array'
rdata$r	ENDS
;	COMDAT ??_R3exception@std@@8
rdata$r	SEGMENT
??_R3exception@std@@8 DD 00H				; std::exception::`RTTI Class Hierarchy Descriptor'
	DD	00H
	DD	01H
	DD	FLAT:??_R2exception@std@@8
rdata$r	ENDS
;	COMDAT ??_R0?AVexception@std@@@8
data$r	SEGMENT
??_R0?AVexception@std@@@8 DD FLAT:??_7type_info@@6B@	; std::exception `RTTI Type Descriptor'
	DD	00H
	DB	'.?AVexception@std@@', 00H
data$r	ENDS
;	COMDAT ??_R4exception@std@@6B@
rdata$r	SEGMENT
??_R4exception@std@@6B@ DD 00H				; std::exception::`RTTI Complete Object Locator'
	DD	00H
	DD	00H
	DD	FLAT:??_R0?AVexception@std@@@8
	DD	FLAT:??_R3exception@std@@8
rdata$r	ENDS
;	COMDAT __CT??_R0?AVException@Internal@Core@Math@Palmtree@@@8??0Exception@Internal@Core@Math@Palmtree@@QAE@ABV01234@@Z24
xdata$x	SEGMENT
__CT??_R0?AVException@Internal@Core@Math@Palmtree@@@8??0Exception@Internal@Core@Math@Palmtree@@QAE@ABV01234@@Z24 DD 00H
	DD	FLAT:??_R0?AVException@Internal@Core@Math@Palmtree@@@8
	DD	00H
	DD	0ffffffffH
	ORG $+4
	DD	018H
	DD	FLAT:??0Exception@Internal@Core@Math@Palmtree@@QAE@ABV01234@@Z
xdata$x	ENDS
;	COMDAT ??_R0?AVException@Internal@Core@Math@Palmtree@@@8
data$r	SEGMENT
??_R0?AVException@Internal@Core@Math@Palmtree@@@8 DD FLAT:??_7type_info@@6B@ ; Palmtree::Math::Core::Internal::Exception `RTTI Type Descriptor'
	DD	00H
	DB	'.?AVException@Internal@Core@Math@Palmtree@@', 00H
data$r	ENDS
;	COMDAT __CT??_R0?AVInternalErrorException@Internal@Core@Math@Palmtree@@@8??0InternalErrorException@Internal@Core@Math@Palmtree@@QAE@ABV01234@@Z24
xdata$x	SEGMENT
__CT??_R0?AVInternalErrorException@Internal@Core@Math@Palmtree@@@8??0InternalErrorException@Internal@Core@Math@Palmtree@@QAE@ABV01234@@Z24 DD 00H
	DD	FLAT:??_R0?AVInternalErrorException@Internal@Core@Math@Palmtree@@@8
	DD	00H
	DD	0ffffffffH
	ORG $+4
	DD	018H
	DD	FLAT:??0InternalErrorException@Internal@Core@Math@Palmtree@@QAE@ABV01234@@Z
xdata$x	ENDS
;	COMDAT ??_R0?AVInternalErrorException@Internal@Core@Math@Palmtree@@@8
data$r	SEGMENT
??_R0?AVInternalErrorException@Internal@Core@Math@Palmtree@@@8 DD FLAT:??_7type_info@@6B@ ; Palmtree::Math::Core::Internal::InternalErrorException `RTTI Type Descriptor'
	DD	00H
	DB	'.?AVInternalErrorException@Internal@Core@Math@Palmtree@@'
	DB	00H
data$r	ENDS
;	COMDAT __CTA2?AVInternalErrorException@Internal@Core@Math@Palmtree@@
xdata$x	SEGMENT
__CTA2?AVInternalErrorException@Internal@Core@Math@Palmtree@@ DD 02H
	DD	FLAT:__CT??_R0?AVInternalErrorException@Internal@Core@Math@Palmtree@@@8??0InternalErrorException@Internal@Core@Math@Palmtree@@QAE@ABV01234@@Z24
	DD	FLAT:__CT??_R0?AVException@Internal@Core@Math@Palmtree@@@8??0Exception@Internal@Core@Math@Palmtree@@QAE@ABV01234@@Z24
xdata$x	ENDS
;	COMDAT __TI2?AVInternalErrorException@Internal@Core@Math@Palmtree@@
xdata$x	SEGMENT
__TI2?AVInternalErrorException@Internal@Core@Math@Palmtree@@ DD 00H
	DD	FLAT:??1InternalErrorException@Internal@Core@Math@Palmtree@@UAE@XZ
	DD	00H
	DD	FLAT:__CTA2?AVInternalErrorException@Internal@Core@Math@Palmtree@@
xdata$x	ENDS
;	COMDAT ??_7InternalErrorException@Internal@Core@Math@Palmtree@@6B@
CONST	SEGMENT
??_7InternalErrorException@Internal@Core@Math@Palmtree@@6B@ DD FLAT:??_R4InternalErrorException@Internal@Core@Math@Palmtree@@6B@ ; Palmtree::Math::Core::Internal::InternalErrorException::`vftable'
	DD	FLAT:??_EInternalErrorException@Internal@Core@Math@Palmtree@@UAEPAXI@Z
	DD	FLAT:?what@exception@std@@UBEPBDXZ
CONST	ENDS
;	COMDAT ??_7Exception@Internal@Core@Math@Palmtree@@6B@
CONST	SEGMENT
??_7Exception@Internal@Core@Math@Palmtree@@6B@ DD FLAT:??_R4Exception@Internal@Core@Math@Palmtree@@6B@ ; Palmtree::Math::Core::Internal::Exception::`vftable'
	DD	FLAT:??_EException@Internal@Core@Math@Palmtree@@UAEPAXI@Z
	DD	FLAT:?what@exception@std@@UBEPBDXZ
CONST	ENDS
;	COMDAT ??_C@_0BC@EOODALEL@Unknown?5exception@
CONST	SEGMENT
??_C@_0BC@EOODALEL@Unknown?5exception@ DB 'Unknown exception', 00H ; `string'
CONST	ENDS
;	COMDAT ??_7exception@std@@6B@
CONST	SEGMENT
??_7exception@std@@6B@ DD FLAT:??_R4exception@std@@6B@	; std::exception::`vftable'
	DD	FLAT:??_Eexception@std@@UAEPAXI@Z
	DD	FLAT:?what@exception@std@@UBEPBDXZ
CONST	ENDS
xdata$x	SEGMENT
__unwindtable$?PMC_From_L@Internal@Core@Math@Palmtree@@YGPAU__tag_PMC_HANDLE_UINT@1234@_K@Z DD 0ffffffffH
	DD	FLAT:__unwindfunclet$?PMC_From_L@Internal@Core@Math@Palmtree@@YGPAU__tag_PMC_HANDLE_UINT@1234@_K@Z$0
__unwindtable$?PMC_From_I@Internal@Core@Math@Palmtree@@YGPAU__tag_PMC_HANDLE_UINT@1234@I@Z DD 0ffffffffH
	DD	FLAT:__unwindfunclet$?PMC_From_I@Internal@Core@Math@Palmtree@@YGPAU__tag_PMC_HANDLE_UINT@1234@I@Z$0
__unwindtable$?From_I_Imp@Internal@Core@Math@Palmtree@@YAPAU__tag_NUMBER_HEADER@1234@I@Z DD 0ffffffffH
	DD	FLAT:__unwindfunclet$?From_I_Imp@Internal@Core@Math@Palmtree@@YAPAU__tag_NUMBER_HEADER@1234@I@Z$0
__unwindtable$?From_L_Imp@Internal@Core@Math@Palmtree@@YAPAU__tag_NUMBER_HEADER@1234@_K@Z DD 0ffffffffH
	DD	FLAT:__unwindfunclet$?From_L_Imp@Internal@Core@Math@Palmtree@@YAPAU__tag_NUMBER_HEADER@1234@_K@Z$0
	DD	0ffffffffH
	DD	FLAT:__unwindfunclet$?From_L_Imp@Internal@Core@Math@Palmtree@@YAPAU__tag_NUMBER_HEADER@1234@_K@Z$1
	DD	0ffffffffH
	DD	FLAT:__unwindfunclet$?From_L_Imp@Internal@Core@Math@Palmtree@@YAPAU__tag_NUMBER_HEADER@1234@_K@Z$2
__ehfuncinfo$?PMC_From_L@Internal@Core@Math@Palmtree@@YGPAU__tag_PMC_HANDLE_UINT@1234@_K@Z DD 019930522H
	DD	01H
	DD	FLAT:__unwindtable$?PMC_From_L@Internal@Core@Math@Palmtree@@YGPAU__tag_PMC_HANDLE_UINT@1234@_K@Z
	DD	2 DUP(00H)
	DD	2 DUP(00H)
	DD	00H
	DD	00H
__ehfuncinfo$?PMC_From_I@Internal@Core@Math@Palmtree@@YGPAU__tag_PMC_HANDLE_UINT@1234@I@Z DD 019930522H
	DD	01H
	DD	FLAT:__unwindtable$?PMC_From_I@Internal@Core@Math@Palmtree@@YGPAU__tag_PMC_HANDLE_UINT@1234@I@Z
	DD	2 DUP(00H)
	DD	2 DUP(00H)
	DD	00H
	DD	00H
__ehfuncinfo$?From_L_Imp@Internal@Core@Math@Palmtree@@YAPAU__tag_NUMBER_HEADER@1234@_K@Z DD 019930522H
	DD	03H
	DD	FLAT:__unwindtable$?From_L_Imp@Internal@Core@Math@Palmtree@@YAPAU__tag_NUMBER_HEADER@1234@_K@Z
	DD	2 DUP(00H)
	DD	2 DUP(00H)
	DD	00H
	DD	00H
__ehfuncinfo$?From_I_Imp@Internal@Core@Math@Palmtree@@YAPAU__tag_NUMBER_HEADER@1234@I@Z DD 019930522H
	DD	01H
	DD	FLAT:__unwindtable$?From_I_Imp@Internal@Core@Math@Palmtree@@YAPAU__tag_NUMBER_HEADER@1234@I@Z
	DD	2 DUP(00H)
	DD	2 DUP(00H)
	DD	00H
	DD	00H
xdata$x	ENDS
;	COMDAT xdata$x
xdata$x	SEGMENT
__unwindtable$??1InternalErrorException@Internal@Core@Math@Palmtree@@UAE@XZ DD 0ffffffffH
	DD	FLAT:__unwindfunclet$??1InternalErrorException@Internal@Core@Math@Palmtree@@UAE@XZ$0
__ehfuncinfo$??1InternalErrorException@Internal@Core@Math@Palmtree@@UAE@XZ DD 019930522H
	DD	01H
	DD	FLAT:__unwindtable$??1InternalErrorException@Internal@Core@Math@Palmtree@@UAE@XZ
	DD	2 DUP(00H)
	DD	2 DUP(00H)
	DD	00H
	DD	04H
xdata$x	ENDS
;	COMDAT xdata$x
xdata$x	SEGMENT
__unwindtable$??0InternalErrorException@Internal@Core@Math@Palmtree@@QAE@ABV01234@@Z DD 0ffffffffH
	DD	FLAT:__unwindfunclet$??0InternalErrorException@Internal@Core@Math@Palmtree@@QAE@ABV01234@@Z$0
__ehfuncinfo$??0InternalErrorException@Internal@Core@Math@Palmtree@@QAE@ABV01234@@Z DD 019930522H
	DD	01H
	DD	FLAT:__unwindtable$??0InternalErrorException@Internal@Core@Math@Palmtree@@QAE@ABV01234@@Z
	DD	2 DUP(00H)
	DD	2 DUP(00H)
	DD	00H
	DD	04H
xdata$x	ENDS
;	COMDAT xdata$x
xdata$x	SEGMENT
__unwindtable$??0InternalErrorException@Internal@Core@Math@Palmtree@@QAE@PB_W0@Z DD 0ffffffffH
	DD	FLAT:__unwindfunclet$??0InternalErrorException@Internal@Core@Math@Palmtree@@QAE@PB_W0@Z$0
__ehfuncinfo$??0InternalErrorException@Internal@Core@Math@Palmtree@@QAE@PB_W0@Z DD 019930522H
	DD	01H
	DD	FLAT:__unwindtable$??0InternalErrorException@Internal@Core@Math@Palmtree@@QAE@PB_W0@Z
	DD	2 DUP(00H)
	DD	2 DUP(00H)
	DD	00H
	DD	04H
xdata$x	ENDS
;	COMDAT xdata$x
xdata$x	SEGMENT
__unwindtable$??1Exception@Internal@Core@Math@Palmtree@@UAE@XZ DD 0ffffffffH
	DD	FLAT:__unwindfunclet$??1Exception@Internal@Core@Math@Palmtree@@UAE@XZ$0
__ehfuncinfo$??1Exception@Internal@Core@Math@Palmtree@@UAE@XZ DD 019930522H
	DD	01H
	DD	FLAT:__unwindtable$??1Exception@Internal@Core@Math@Palmtree@@UAE@XZ
	DD	2 DUP(00H)
	DD	2 DUP(00H)
	DD	00H
	DD	04H
xdata$x	ENDS
;	COMDAT xdata$x
xdata$x	SEGMENT
__unwindtable$??0Exception@Internal@Core@Math@Palmtree@@QAE@ABV01234@@Z DD 0ffffffffH
	DD	FLAT:__unwindfunclet$??0Exception@Internal@Core@Math@Palmtree@@QAE@ABV01234@@Z$0
__ehfuncinfo$??0Exception@Internal@Core@Math@Palmtree@@QAE@ABV01234@@Z DD 019930522H
	DD	01H
	DD	FLAT:__unwindtable$??0Exception@Internal@Core@Math@Palmtree@@QAE@ABV01234@@Z
	DD	2 DUP(00H)
	DD	2 DUP(00H)
	DD	00H
	DD	04H
xdata$x	ENDS
;	COMDAT xdata$x
xdata$x	SEGMENT
__unwindtable$??0Exception@Internal@Core@Math@Palmtree@@IAE@HPB_W0@Z DD 0ffffffffH
	DD	FLAT:__unwindfunclet$??0Exception@Internal@Core@Math@Palmtree@@IAE@HPB_W0@Z$0
__ehfuncinfo$??0Exception@Internal@Core@Math@Palmtree@@IAE@HPB_W0@Z DD 019930522H
	DD	01H
	DD	FLAT:__unwindtable$??0Exception@Internal@Core@Math@Palmtree@@IAE@HPB_W0@Z
	DD	2 DUP(00H)
	DD	2 DUP(00H)
	DD	00H
	DD	04H
xdata$x	ENDS
;	COMDAT xdata$x
xdata$x	SEGMENT
__ehfuncinfo$??1exception@std@@UAE@XZ DD 019930522H
	DD	00H
	DD	00H
	DD	2 DUP(00H)
	DD	2 DUP(00H)
	DD	00H
	DD	04H
xdata$x	ENDS
;	COMDAT xdata$x
xdata$x	SEGMENT
__ehfuncinfo$??0exception@std@@QAE@XZ DD 019930522H
	DD	00H
	DD	00H
	DD	2 DUP(00H)
	DD	2 DUP(00H)
	DD	00H
	DD	04H
xdata$x	ENDS
; Function compile flags: /Odt
;	COMDAT __JustMyCode_Default
_TEXT	SEGMENT
__JustMyCode_Default PROC				; COMDAT
  00000	55		 push	 ebp
  00001	8b ec		 mov	 ebp, esp
  00003	5d		 pop	 ebp
  00004	c3		 ret	 0
__JustMyCode_Default ENDP
_TEXT	ENDS
; Function compile flags: /Odtp /RTCsu
; File z:\sources\lunor\repos\rougemeilland\palmtree.math.core.uint\palmtree.math.core.uint\pmc_inline_func.h
_TEXT	SEGMENT
_pos$ = -8						; size = 4
_x$ = 8							; size = 4
__LZCNT_ALT_UNIT PROC

; 454  :         {

  00000	55		 push	 ebp
  00001	8b ec		 mov	 ebp, esp
  00003	83 ec 0c	 sub	 esp, 12			; 0000000cH
  00006	c7 45 f4 cc cc
	cc cc		 mov	 DWORD PTR [ebp-12], -858993460 ; ccccccccH
  0000d	c7 45 f8 cc cc
	cc cc		 mov	 DWORD PTR [ebp-8], -858993460 ; ccccccccH
  00014	c7 45 fc cc cc
	cc cc		 mov	 DWORD PTR [ebp-4], -858993460 ; ccccccccH
  0001b	b9 00 00 00 00	 mov	 ecx, OFFSET __8CA3E54E_pmc_inline_func@h
  00020	e8 00 00 00 00	 call	 @__CheckForDebuggerJustMyCode@4

; 455  :             if (x == 0)

  00025	83 7d 08 00	 cmp	 DWORD PTR _x$[ebp], 0
  00029	75 07		 jne	 SHORT $LN2@LZCNT_ALT_

; 456  :                 return (sizeof(x) * 8);

  0002b	b8 20 00 00 00	 mov	 eax, 32			; 00000020H
  00030	eb 0f		 jmp	 SHORT $LN1@LZCNT_ALT_
$LN2@LZCNT_ALT_:

; 457  : #ifdef _M_IX86
; 458  :             DWORD pos;
; 459  : #ifdef _MSC_VER
; 460  :             _BitScanReverse(&pos, x);

  00032	0f bd 45 08	 bsr	 eax, DWORD PTR _x$[ebp]
  00036	89 45 f8	 mov	 DWORD PTR _pos$[ebp], eax

; 461  : #elif defined(__GNUC__)
; 462  :             __asm__("bsrl %1, %0" : "=r"(pos) : "rm"(x));
; 463  : #else
; 464  : #error unknown compiler
; 465  : #endif
; 466  : #elif defined(_M_X64)
; 467  : #ifdef _MSC_VER
; 468  :             DWORD pos;
; 469  :             _BitScanReverse64(&pos, x);
; 470  : #elif defined(__GNUC__)
; 471  :             _UINT64_T pos;
; 472  :             __asm__("bsrq %1, %0" : "=r"(pos) : "rm"(x));
; 473  : #else
; 474  : #error unknown compiler
; 475  : #endif
; 476  : #else
; 477  : #error unknown platform
; 478  : #endif
; 479  :             return (sizeof(x) * 8 - 1 - pos);

  00039	b8 1f 00 00 00	 mov	 eax, 31			; 0000001fH
  0003e	2b 45 f8	 sub	 eax, DWORD PTR _pos$[ebp]
$LN1@LZCNT_ALT_:

; 480  :         }

  00041	52		 push	 edx
  00042	8b cd		 mov	 ecx, ebp
  00044	50		 push	 eax
  00045	8d 15 00 00 00
	00		 lea	 edx, DWORD PTR $LN6@LZCNT_ALT_
  0004b	e8 00 00 00 00	 call	 @_RTC_CheckStackVars@8
  00050	58		 pop	 eax
  00051	5a		 pop	 edx
  00052	83 c4 0c	 add	 esp, 12			; 0000000cH
  00055	3b ec		 cmp	 ebp, esp
  00057	e8 00 00 00 00	 call	 __RTC_CheckEsp
  0005c	8b e5		 mov	 esp, ebp
  0005e	5d		 pop	 ebp
  0005f	c3		 ret	 0
$LN6@LZCNT_ALT_:
  00060	01 00 00 00	 DD	 1
  00064	00 00 00 00	 DD	 $LN5@LZCNT_ALT_
$LN5@LZCNT_ALT_:
  00068	f8 ff ff ff	 DD	 -8			; fffffff8H
  0006c	04 00 00 00	 DD	 4
  00070	00 00 00 00	 DD	 $LN4@LZCNT_ALT_
$LN4@LZCNT_ALT_:
  00074	70		 DB	 112			; 00000070H
  00075	6f		 DB	 111			; 0000006fH
  00076	73		 DB	 115			; 00000073H
  00077	00		 DB	 0
__LZCNT_ALT_UNIT ENDP
_TEXT	ENDS
; Function compile flags: /Odtp /RTCsu
; File z:\sources\lunor\repos\rougemeilland\palmtree.math.core.uint\palmtree.math.core.uint\pmc_inline_func.h
_TEXT	SEGMENT
_pos$ = -8						; size = 4
_x$ = 8							; size = 4
__LZCNT_ALT_32 PROC

; 421  :         {

  00000	55		 push	 ebp
  00001	8b ec		 mov	 ebp, esp
  00003	83 ec 0c	 sub	 esp, 12			; 0000000cH
  00006	c7 45 f4 cc cc
	cc cc		 mov	 DWORD PTR [ebp-12], -858993460 ; ccccccccH
  0000d	c7 45 f8 cc cc
	cc cc		 mov	 DWORD PTR [ebp-8], -858993460 ; ccccccccH
  00014	c7 45 fc cc cc
	cc cc		 mov	 DWORD PTR [ebp-4], -858993460 ; ccccccccH
  0001b	b9 00 00 00 00	 mov	 ecx, OFFSET __8CA3E54E_pmc_inline_func@h
  00020	e8 00 00 00 00	 call	 @__CheckForDebuggerJustMyCode@4

; 422  :             if (x == 0)

  00025	83 7d 08 00	 cmp	 DWORD PTR _x$[ebp], 0
  00029	75 07		 jne	 SHORT $LN2@LZCNT_ALT_

; 423  :                 return (sizeof(x) * 8);

  0002b	b8 20 00 00 00	 mov	 eax, 32			; 00000020H
  00030	eb 0f		 jmp	 SHORT $LN1@LZCNT_ALT_
$LN2@LZCNT_ALT_:

; 424  :             DWORD pos;
; 425  : #ifdef _MSC_VER
; 426  :             _BitScanReverse(&pos, x);

  00032	0f bd 45 08	 bsr	 eax, DWORD PTR _x$[ebp]
  00036	89 45 f8	 mov	 DWORD PTR _pos$[ebp], eax

; 427  : #elif defined(__GNUC__)
; 428  :             __asm__("bsrl %1, %0" : "=r"(pos) : "rm"(x));
; 429  : #else
; 430  : #error unknown compiler
; 431  : #endif
; 432  :             return (sizeof(x) * 8 - 1 - pos);

  00039	b8 1f 00 00 00	 mov	 eax, 31			; 0000001fH
  0003e	2b 45 f8	 sub	 eax, DWORD PTR _pos$[ebp]
$LN1@LZCNT_ALT_:

; 433  :         }

  00041	52		 push	 edx
  00042	8b cd		 mov	 ecx, ebp
  00044	50		 push	 eax
  00045	8d 15 00 00 00
	00		 lea	 edx, DWORD PTR $LN6@LZCNT_ALT_
  0004b	e8 00 00 00 00	 call	 @_RTC_CheckStackVars@8
  00050	58		 pop	 eax
  00051	5a		 pop	 edx
  00052	83 c4 0c	 add	 esp, 12			; 0000000cH
  00055	3b ec		 cmp	 ebp, esp
  00057	e8 00 00 00 00	 call	 __RTC_CheckEsp
  0005c	8b e5		 mov	 esp, ebp
  0005e	5d		 pop	 ebp
  0005f	c3		 ret	 0
$LN6@LZCNT_ALT_:
  00060	01 00 00 00	 DD	 1
  00064	00 00 00 00	 DD	 $LN5@LZCNT_ALT_
$LN5@LZCNT_ALT_:
  00068	f8 ff ff ff	 DD	 -8			; fffffff8H
  0006c	04 00 00 00	 DD	 4
  00070	00 00 00 00	 DD	 $LN4@LZCNT_ALT_
$LN4@LZCNT_ALT_:
  00074	70		 DB	 112			; 00000070H
  00075	6f		 DB	 111			; 0000006fH
  00076	73		 DB	 115			; 00000073H
  00077	00		 DB	 0
__LZCNT_ALT_32 ENDP
_TEXT	ENDS
; Function compile flags: /Odtp /RTCsu
; File z:\sources\lunor\repos\rougemeilland\palmtree.math.core.uint\palmtree.math.core.uint\pmc_inline_func.h
_TEXT	SEGMENT
_value$ = 8						; size = 8
_result_high$ = 16					; size = 4
__FROMDWORDTOWORD PROC

; 145  :         {

  00000	55		 push	 ebp
  00001	8b ec		 mov	 ebp, esp
  00003	b9 00 00 00 00	 mov	 ecx, OFFSET __8CA3E54E_pmc_inline_func@h
  00008	e8 00 00 00 00	 call	 @__CheckForDebuggerJustMyCode@4

; 146  :             *result_high = (_UINT32_T)(value >> 32);

  0000d	8b 45 08	 mov	 eax, DWORD PTR _value$[ebp]
  00010	8b 55 0c	 mov	 edx, DWORD PTR _value$[ebp+4]
  00013	b1 20		 mov	 cl, 32			; 00000020H
  00015	e8 00 00 00 00	 call	 __aullshr
  0001a	8b 4d 10	 mov	 ecx, DWORD PTR _result_high$[ebp]
  0001d	89 01		 mov	 DWORD PTR [ecx], eax

; 147  :             return ((_UINT32_T)value);

  0001f	8b 45 08	 mov	 eax, DWORD PTR _value$[ebp]

; 148  :         }

  00022	3b ec		 cmp	 ebp, esp
  00024	e8 00 00 00 00	 call	 __RTC_CheckEsp
  00029	5d		 pop	 ebp
  0002a	c3		 ret	 0
__FROMDWORDTOWORD ENDP
_TEXT	ENDS
; Function compile flags: /Odtp /RTCsu
; File z:\sources\lunor\repos\rougemeilland\palmtree.math.core.uint\palmtree.math.core.uint\pmc_from.cpp
_TEXT	SEGMENT
$T2 = -68						; size = 4
$T3 = -64						; size = 24
_o$ = -40						; size = 4
_root$ = -32						; size = 16
__$EHRec$ = -12						; size = 12
_x$ = 8							; size = 8
?PMC_From_L@Internal@Core@Math@Palmtree@@YGPAU__tag_PMC_HANDLE_UINT@1234@_K@Z PROC ; Palmtree::Math::Core::Internal::PMC_From_L

; 113  :     {

  00000	55		 push	 ebp
  00001	8b ec		 mov	 ebp, esp
  00003	6a ff		 push	 -1
  00005	68 00 00 00 00	 push	 __ehhandler$?PMC_From_L@Internal@Core@Math@Palmtree@@YGPAU__tag_PMC_HANDLE_UINT@1234@_K@Z
  0000a	64 a1 00 00 00
	00		 mov	 eax, DWORD PTR fs:0
  00010	50		 push	 eax
  00011	83 ec 38	 sub	 esp, 56			; 00000038H
  00014	57		 push	 edi
  00015	8d 7d bc	 lea	 edi, DWORD PTR [ebp-68]
  00018	b9 0e 00 00 00	 mov	 ecx, 14			; 0000000eH
  0001d	b8 cc cc cc cc	 mov	 eax, -858993460		; ccccccccH
  00022	f3 ab		 rep stosd
  00024	a1 00 00 00 00	 mov	 eax, DWORD PTR ___security_cookie
  00029	33 c5		 xor	 eax, ebp
  0002b	50		 push	 eax
  0002c	8d 45 f4	 lea	 eax, DWORD PTR __$EHRec$[ebp]
  0002f	64 a3 00 00 00
	00		 mov	 DWORD PTR fs:0, eax
  00035	b9 00 00 00 00	 mov	 ecx, OFFSET __5486D3C5_pmc_from@cpp
  0003a	e8 00 00 00 00	 call	 @__CheckForDebuggerJustMyCode@4

; 114  :         if (sizeof(__UNIT_TYPE) * 2 < sizeof(x))

  0003f	33 c0		 xor	 eax, eax
  00041	74 20		 je	 SHORT $LN2@PMC_From_L

; 115  :         {
; 116  :             // 32bit未満のCPUには未対応
; 117  :             throw InternalErrorException(L"予期していないコードに到達しました。", L"pmc_from.cpp;PMC_From_L;1");

  00043	68 00 00 00 00	 push	 OFFSET $SG117923
  00048	68 00 00 00 00	 push	 OFFSET $SG117924
  0004d	8d 4d c0	 lea	 ecx, DWORD PTR $T3[ebp]
  00050	e8 00 00 00 00	 call	 ??0InternalErrorException@Internal@Core@Math@Palmtree@@QAE@PB_W0@Z ; Palmtree::Math::Core::Internal::InternalErrorException::InternalErrorException
  00055	68 00 00 00 00	 push	 OFFSET __TI2?AVInternalErrorException@Internal@Core@Math@Palmtree@@
  0005a	8d 4d c0	 lea	 ecx, DWORD PTR $T3[ebp]
  0005d	51		 push	 ecx
  0005e	e8 00 00 00 00	 call	 __CxxThrowException@8
$LN2@PMC_From_L:

; 118  :         }
; 119  :         ResourceHolderUINT root;

  00063	8d 4d e0	 lea	 ecx, DWORD PTR _root$[ebp]
  00066	e8 00 00 00 00	 call	 ??0ResourceHolderUINT@Internal@Core@Math@Palmtree@@QAE@XZ ; Palmtree::Math::Core::Internal::ResourceHolderUINT::ResourceHolderUINT
  0006b	c7 45 fc 00 00
	00 00		 mov	 DWORD PTR __$EHRec$[ebp+8], 0

; 120  :         NUMBER_HEADER* o;
; 121  :         if (x == 0)

  00072	8b 55 08	 mov	 edx, DWORD PTR _x$[ebp]
  00075	0b 55 0c	 or	 edx, DWORD PTR _x$[ebp+4]
  00078	75 09		 jne	 SHORT $LN3@PMC_From_L

; 122  :             o = &number_zero;

  0007a	c7 45 d8 00 00
	00 00		 mov	 DWORD PTR _o$[ebp], OFFSET ?number_zero@Internal@Core@Math@Palmtree@@3U__tag_NUMBER_HEADER@1234@A ; Palmtree::Math::Core::Internal::number_zero

; 123  :         else

  00081	eb 13		 jmp	 SHORT $LN4@PMC_From_L
$LN3@PMC_From_L:

; 124  :             o = From_L_Imp(x);

  00083	8b 45 0c	 mov	 eax, DWORD PTR _x$[ebp+4]
  00086	50		 push	 eax
  00087	8b 4d 08	 mov	 ecx, DWORD PTR _x$[ebp]
  0008a	51		 push	 ecx
  0008b	e8 00 00 00 00	 call	 ?From_L_Imp@Internal@Core@Math@Palmtree@@YAPAU__tag_NUMBER_HEADER@1234@_K@Z ; Palmtree::Math::Core::Internal::From_L_Imp
  00090	83 c4 08	 add	 esp, 8
  00093	89 45 d8	 mov	 DWORD PTR _o$[ebp], eax
$LN4@PMC_From_L:

; 125  :         root.HookNumber(o);

  00096	8b 55 d8	 mov	 edx, DWORD PTR _o$[ebp]
  00099	52		 push	 edx
  0009a	8d 4d e0	 lea	 ecx, DWORD PTR _root$[ebp]
  0009d	e8 00 00 00 00	 call	 ?HookNumber@ResourceHolderUINT@Internal@Core@Math@Palmtree@@QAEXPAU__tag_NUMBER_HEADER@2345@@Z ; Palmtree::Math::Core::Internal::ResourceHolderUINT::HookNumber

; 126  : #ifdef _DEBUG
; 127  :         CheckNumber(o);

  000a2	8b 45 d8	 mov	 eax, DWORD PTR _o$[ebp]
  000a5	50		 push	 eax
  000a6	e8 00 00 00 00	 call	 ?CheckNumber@Internal@Core@Math@Palmtree@@YAXPAU__tag_NUMBER_HEADER@1234@@Z ; Palmtree::Math::Core::Internal::CheckNumber
  000ab	83 c4 04	 add	 esp, 4

; 128  : #endif
; 129  :         root.UnlinkNumber(o);

  000ae	8b 4d d8	 mov	 ecx, DWORD PTR _o$[ebp]
  000b1	51		 push	 ecx
  000b2	8d 4d e0	 lea	 ecx, DWORD PTR _root$[ebp]
  000b5	e8 00 00 00 00	 call	 ?UnlinkNumber@ResourceHolderUINT@Internal@Core@Math@Palmtree@@QAEXPAU__tag_NUMBER_HEADER@2345@@Z ; Palmtree::Math::Core::Internal::ResourceHolderUINT::UnlinkNumber

; 130  :         return ((PMC_HANDLE_UINT)o);

  000ba	8b 55 d8	 mov	 edx, DWORD PTR _o$[ebp]
  000bd	89 55 bc	 mov	 DWORD PTR $T2[ebp], edx
  000c0	c7 45 fc ff ff
	ff ff		 mov	 DWORD PTR __$EHRec$[ebp+8], -1
  000c7	8d 4d e0	 lea	 ecx, DWORD PTR _root$[ebp]
  000ca	e8 00 00 00 00	 call	 ??1ResourceHolderUINT@Internal@Core@Math@Palmtree@@UAE@XZ ; Palmtree::Math::Core::Internal::ResourceHolderUINT::~ResourceHolderUINT
  000cf	8b 45 bc	 mov	 eax, DWORD PTR $T2[ebp]
$LN5@PMC_From_L:

; 131  :     }

  000d2	52		 push	 edx
  000d3	8b cd		 mov	 ecx, ebp
  000d5	50		 push	 eax
  000d6	8d 15 00 00 00
	00		 lea	 edx, DWORD PTR $LN10@PMC_From_L
  000dc	e8 00 00 00 00	 call	 @_RTC_CheckStackVars@8
  000e1	58		 pop	 eax
  000e2	5a		 pop	 edx
  000e3	8b 4d f4	 mov	 ecx, DWORD PTR __$EHRec$[ebp]
  000e6	64 89 0d 00 00
	00 00		 mov	 DWORD PTR fs:0, ecx
  000ed	59		 pop	 ecx
  000ee	5f		 pop	 edi
  000ef	83 c4 44	 add	 esp, 68			; 00000044H
  000f2	3b ec		 cmp	 ebp, esp
  000f4	e8 00 00 00 00	 call	 __RTC_CheckEsp
  000f9	8b e5		 mov	 esp, ebp
  000fb	5d		 pop	 ebp
  000fc	c2 08 00	 ret	 8
  000ff	90		 npad	 1
$LN10@PMC_From_L:
  00100	01 00 00 00	 DD	 1
  00104	00 00 00 00	 DD	 $LN9@PMC_From_L
$LN9@PMC_From_L:
  00108	e0 ff ff ff	 DD	 -32			; ffffffe0H
  0010c	10 00 00 00	 DD	 16			; 00000010H
  00110	00 00 00 00	 DD	 $LN7@PMC_From_L
$LN7@PMC_From_L:
  00114	72		 DB	 114			; 00000072H
  00115	6f		 DB	 111			; 0000006fH
  00116	6f		 DB	 111			; 0000006fH
  00117	74		 DB	 116			; 00000074H
  00118	00		 DB	 0
_TEXT	ENDS
text$x	SEGMENT
__unwindfunclet$?PMC_From_L@Internal@Core@Math@Palmtree@@YGPAU__tag_PMC_HANDLE_UINT@1234@_K@Z$0:
  00000	8d 4d e0	 lea	 ecx, DWORD PTR _root$[ebp]
  00003	e9 00 00 00 00	 jmp	 ??1ResourceHolderUINT@Internal@Core@Math@Palmtree@@UAE@XZ ; Palmtree::Math::Core::Internal::ResourceHolderUINT::~ResourceHolderUINT
__ehhandler$?PMC_From_L@Internal@Core@Math@Palmtree@@YGPAU__tag_PMC_HANDLE_UINT@1234@_K@Z:
  00008	8b 54 24 08	 mov	 edx, DWORD PTR [esp+8]
  0000c	8d 42 0c	 lea	 eax, DWORD PTR [edx+12]
  0000f	8b 4a c0	 mov	 ecx, DWORD PTR [edx-64]
  00012	33 c8		 xor	 ecx, eax
  00014	e8 00 00 00 00	 call	 @__security_check_cookie@4
  00019	b8 00 00 00 00	 mov	 eax, OFFSET __ehfuncinfo$?PMC_From_L@Internal@Core@Math@Palmtree@@YGPAU__tag_PMC_HANDLE_UINT@1234@_K@Z
  0001e	e9 00 00 00 00	 jmp	 ___CxxFrameHandler3
text$x	ENDS
?PMC_From_L@Internal@Core@Math@Palmtree@@YGPAU__tag_PMC_HANDLE_UINT@1234@_K@Z ENDP ; Palmtree::Math::Core::Internal::PMC_From_L
; Function compile flags: /Odtp /RTCsu
; File z:\sources\lunor\repos\rougemeilland\palmtree.math.core.uint\palmtree.math.core.uint\pmc_from.cpp
_TEXT	SEGMENT
$T2 = -68						; size = 4
$T3 = -64						; size = 24
_o$ = -40						; size = 4
_root$ = -32						; size = 16
__$EHRec$ = -12						; size = 12
_x$ = 8							; size = 4
?PMC_From_I@Internal@Core@Math@Palmtree@@YGPAU__tag_PMC_HANDLE_UINT@1234@I@Z PROC ; Palmtree::Math::Core::Internal::PMC_From_I

; 95   :     {

  00000	55		 push	 ebp
  00001	8b ec		 mov	 ebp, esp
  00003	6a ff		 push	 -1
  00005	68 00 00 00 00	 push	 __ehhandler$?PMC_From_I@Internal@Core@Math@Palmtree@@YGPAU__tag_PMC_HANDLE_UINT@1234@I@Z
  0000a	64 a1 00 00 00
	00		 mov	 eax, DWORD PTR fs:0
  00010	50		 push	 eax
  00011	83 ec 38	 sub	 esp, 56			; 00000038H
  00014	57		 push	 edi
  00015	8d 7d bc	 lea	 edi, DWORD PTR [ebp-68]
  00018	b9 0e 00 00 00	 mov	 ecx, 14			; 0000000eH
  0001d	b8 cc cc cc cc	 mov	 eax, -858993460		; ccccccccH
  00022	f3 ab		 rep stosd
  00024	a1 00 00 00 00	 mov	 eax, DWORD PTR ___security_cookie
  00029	33 c5		 xor	 eax, ebp
  0002b	50		 push	 eax
  0002c	8d 45 f4	 lea	 eax, DWORD PTR __$EHRec$[ebp]
  0002f	64 a3 00 00 00
	00		 mov	 DWORD PTR fs:0, eax
  00035	b9 00 00 00 00	 mov	 ecx, OFFSET __5486D3C5_pmc_from@cpp
  0003a	e8 00 00 00 00	 call	 @__CheckForDebuggerJustMyCode@4

; 96   :         if (sizeof(__UNIT_TYPE) < sizeof(x))

  0003f	33 c0		 xor	 eax, eax
  00041	74 20		 je	 SHORT $LN2@PMC_From_I

; 97   :             throw InternalErrorException(L"予期していないコードに到達しました。", L"pmc_from.cpp;PMC_From_I;1");

  00043	68 00 00 00 00	 push	 OFFSET $SG117909
  00048	68 00 00 00 00	 push	 OFFSET $SG117910
  0004d	8d 4d c0	 lea	 ecx, DWORD PTR $T3[ebp]
  00050	e8 00 00 00 00	 call	 ??0InternalErrorException@Internal@Core@Math@Palmtree@@QAE@PB_W0@Z ; Palmtree::Math::Core::Internal::InternalErrorException::InternalErrorException
  00055	68 00 00 00 00	 push	 OFFSET __TI2?AVInternalErrorException@Internal@Core@Math@Palmtree@@
  0005a	8d 4d c0	 lea	 ecx, DWORD PTR $T3[ebp]
  0005d	51		 push	 ecx
  0005e	e8 00 00 00 00	 call	 __CxxThrowException@8
$LN2@PMC_From_I:

; 98   :         ResourceHolderUINT root;

  00063	8d 4d e0	 lea	 ecx, DWORD PTR _root$[ebp]
  00066	e8 00 00 00 00	 call	 ??0ResourceHolderUINT@Internal@Core@Math@Palmtree@@QAE@XZ ; Palmtree::Math::Core::Internal::ResourceHolderUINT::ResourceHolderUINT
  0006b	c7 45 fc 00 00
	00 00		 mov	 DWORD PTR __$EHRec$[ebp+8], 0

; 99   :         NUMBER_HEADER* o;
; 100  :         if (x == 0)

  00072	83 7d 08 00	 cmp	 DWORD PTR _x$[ebp], 0
  00076	75 09		 jne	 SHORT $LN3@PMC_From_I

; 101  :             o = &number_zero;

  00078	c7 45 d8 00 00
	00 00		 mov	 DWORD PTR _o$[ebp], OFFSET ?number_zero@Internal@Core@Math@Palmtree@@3U__tag_NUMBER_HEADER@1234@A ; Palmtree::Math::Core::Internal::number_zero

; 102  :         else

  0007f	eb 0f		 jmp	 SHORT $LN4@PMC_From_I
$LN3@PMC_From_I:

; 103  :             o = From_I_Imp(x);

  00081	8b 55 08	 mov	 edx, DWORD PTR _x$[ebp]
  00084	52		 push	 edx
  00085	e8 00 00 00 00	 call	 ?From_I_Imp@Internal@Core@Math@Palmtree@@YAPAU__tag_NUMBER_HEADER@1234@I@Z ; Palmtree::Math::Core::Internal::From_I_Imp
  0008a	83 c4 04	 add	 esp, 4
  0008d	89 45 d8	 mov	 DWORD PTR _o$[ebp], eax
$LN4@PMC_From_I:

; 104  :         root.HookNumber(o);

  00090	8b 45 d8	 mov	 eax, DWORD PTR _o$[ebp]
  00093	50		 push	 eax
  00094	8d 4d e0	 lea	 ecx, DWORD PTR _root$[ebp]
  00097	e8 00 00 00 00	 call	 ?HookNumber@ResourceHolderUINT@Internal@Core@Math@Palmtree@@QAEXPAU__tag_NUMBER_HEADER@2345@@Z ; Palmtree::Math::Core::Internal::ResourceHolderUINT::HookNumber

; 105  : #ifdef _DEBUG
; 106  :         CheckNumber(o);

  0009c	8b 4d d8	 mov	 ecx, DWORD PTR _o$[ebp]
  0009f	51		 push	 ecx
  000a0	e8 00 00 00 00	 call	 ?CheckNumber@Internal@Core@Math@Palmtree@@YAXPAU__tag_NUMBER_HEADER@1234@@Z ; Palmtree::Math::Core::Internal::CheckNumber
  000a5	83 c4 04	 add	 esp, 4

; 107  : #endif
; 108  :         root.UnlinkNumber(o);

  000a8	8b 55 d8	 mov	 edx, DWORD PTR _o$[ebp]
  000ab	52		 push	 edx
  000ac	8d 4d e0	 lea	 ecx, DWORD PTR _root$[ebp]
  000af	e8 00 00 00 00	 call	 ?UnlinkNumber@ResourceHolderUINT@Internal@Core@Math@Palmtree@@QAEXPAU__tag_NUMBER_HEADER@2345@@Z ; Palmtree::Math::Core::Internal::ResourceHolderUINT::UnlinkNumber

; 109  :         return ((PMC_HANDLE_UINT)o);

  000b4	8b 45 d8	 mov	 eax, DWORD PTR _o$[ebp]
  000b7	89 45 bc	 mov	 DWORD PTR $T2[ebp], eax
  000ba	c7 45 fc ff ff
	ff ff		 mov	 DWORD PTR __$EHRec$[ebp+8], -1
  000c1	8d 4d e0	 lea	 ecx, DWORD PTR _root$[ebp]
  000c4	e8 00 00 00 00	 call	 ??1ResourceHolderUINT@Internal@Core@Math@Palmtree@@UAE@XZ ; Palmtree::Math::Core::Internal::ResourceHolderUINT::~ResourceHolderUINT
  000c9	8b 45 bc	 mov	 eax, DWORD PTR $T2[ebp]
$LN5@PMC_From_I:

; 110  :     }

  000cc	52		 push	 edx
  000cd	8b cd		 mov	 ecx, ebp
  000cf	50		 push	 eax
  000d0	8d 15 00 00 00
	00		 lea	 edx, DWORD PTR $LN10@PMC_From_I
  000d6	e8 00 00 00 00	 call	 @_RTC_CheckStackVars@8
  000db	58		 pop	 eax
  000dc	5a		 pop	 edx
  000dd	8b 4d f4	 mov	 ecx, DWORD PTR __$EHRec$[ebp]
  000e0	64 89 0d 00 00
	00 00		 mov	 DWORD PTR fs:0, ecx
  000e7	59		 pop	 ecx
  000e8	5f		 pop	 edi
  000e9	83 c4 44	 add	 esp, 68			; 00000044H
  000ec	3b ec		 cmp	 ebp, esp
  000ee	e8 00 00 00 00	 call	 __RTC_CheckEsp
  000f3	8b e5		 mov	 esp, ebp
  000f5	5d		 pop	 ebp
  000f6	c2 04 00	 ret	 4
  000f9	0f 1f 00	 npad	 3
$LN10@PMC_From_I:
  000fc	01 00 00 00	 DD	 1
  00100	00 00 00 00	 DD	 $LN9@PMC_From_I
$LN9@PMC_From_I:
  00104	e0 ff ff ff	 DD	 -32			; ffffffe0H
  00108	10 00 00 00	 DD	 16			; 00000010H
  0010c	00 00 00 00	 DD	 $LN7@PMC_From_I
$LN7@PMC_From_I:
  00110	72		 DB	 114			; 00000072H
  00111	6f		 DB	 111			; 0000006fH
  00112	6f		 DB	 111			; 0000006fH
  00113	74		 DB	 116			; 00000074H
  00114	00		 DB	 0
_TEXT	ENDS
text$x	SEGMENT
__unwindfunclet$?PMC_From_I@Internal@Core@Math@Palmtree@@YGPAU__tag_PMC_HANDLE_UINT@1234@I@Z$0:
  00000	8d 4d e0	 lea	 ecx, DWORD PTR _root$[ebp]
  00003	e9 00 00 00 00	 jmp	 ??1ResourceHolderUINT@Internal@Core@Math@Palmtree@@UAE@XZ ; Palmtree::Math::Core::Internal::ResourceHolderUINT::~ResourceHolderUINT
__ehhandler$?PMC_From_I@Internal@Core@Math@Palmtree@@YGPAU__tag_PMC_HANDLE_UINT@1234@I@Z:
  00008	8b 54 24 08	 mov	 edx, DWORD PTR [esp+8]
  0000c	8d 42 0c	 lea	 eax, DWORD PTR [edx+12]
  0000f	8b 4a c0	 mov	 ecx, DWORD PTR [edx-64]
  00012	33 c8		 xor	 ecx, eax
  00014	e8 00 00 00 00	 call	 @__security_check_cookie@4
  00019	b8 00 00 00 00	 mov	 eax, OFFSET __ehfuncinfo$?PMC_From_I@Internal@Core@Math@Palmtree@@YGPAU__tag_PMC_HANDLE_UINT@1234@I@Z
  0001e	e9 00 00 00 00	 jmp	 ___CxxFrameHandler3
text$x	ENDS
?PMC_From_I@Internal@Core@Math@Palmtree@@YGPAU__tag_PMC_HANDLE_UINT@1234@I@Z ENDP ; Palmtree::Math::Core::Internal::PMC_From_I
; Function compile flags: /Odtp /RTCsu
; File z:\sources\lunor\repos\rougemeilland\palmtree.math.core.uint\palmtree.math.core.uint\pmc_from.cpp
_TEXT	SEGMENT
_feature$ = 8						; size = 4
?Initialize_From@Internal@Core@Math@Palmtree@@YAHPAU_tag_PROCESSOR_FEATURES@1234@@Z PROC ; Palmtree::Math::Core::Internal::Initialize_From

; 134  :     {

  00000	55		 push	 ebp
  00001	8b ec		 mov	 ebp, esp
  00003	b9 00 00 00 00	 mov	 ecx, OFFSET __5486D3C5_pmc_from@cpp
  00008	e8 00 00 00 00	 call	 @__CheckForDebuggerJustMyCode@4

; 135  :         return (PMC_STATUS_OK);

  0000d	33 c0		 xor	 eax, eax

; 136  :     }

  0000f	3b ec		 cmp	 ebp, esp
  00011	e8 00 00 00 00	 call	 __RTC_CheckEsp
  00016	5d		 pop	 ebp
  00017	c3		 ret	 0
?Initialize_From@Internal@Core@Math@Palmtree@@YAHPAU_tag_PROCESSOR_FEATURES@1234@@Z ENDP ; Palmtree::Math::Core::Internal::Initialize_From
_TEXT	ENDS
; Function compile flags: /Odtp /RTCsu
; File z:\sources\lunor\repos\rougemeilland\palmtree.math.core.uint\palmtree.math.core.uint\pmc_from.cpp
_TEXT	SEGMENT
$T2 = -160						; size = 4
$T3 = -156						; size = 4
$T4 = -152						; size = 4
$T5 = -148						; size = 24
_o$6 = -124						; size = 4
_x_bit_length$7 = -120					; size = 4
_root$8 = -112						; size = 16
_o$9 = -92						; size = 4
_x_bit_length$10 = -88					; size = 4
_root$11 = -80						; size = 16
_o$12 = -60						; size = 4
_x_bit_length$13 = -56					; size = 4
_root$14 = -48						; size = 16
_x_lo$15 = -28						; size = 4
_x_hi$16 = -20						; size = 4
__$EHRec$ = -12						; size = 12
_x$ = 8							; size = 8
?From_L_Imp@Internal@Core@Math@Palmtree@@YAPAU__tag_NUMBER_HEADER@1234@_K@Z PROC ; Palmtree::Math::Core::Internal::From_L_Imp

; 47   :     {

  00000	55		 push	 ebp
  00001	8b ec		 mov	 ebp, esp
  00003	6a ff		 push	 -1
  00005	68 00 00 00 00	 push	 __ehhandler$?From_L_Imp@Internal@Core@Math@Palmtree@@YAPAU__tag_NUMBER_HEADER@1234@_K@Z
  0000a	64 a1 00 00 00
	00		 mov	 eax, DWORD PTR fs:0
  00010	50		 push	 eax
  00011	81 ec 94 00 00
	00		 sub	 esp, 148		; 00000094H
  00017	57		 push	 edi
  00018	8d bd 60 ff ff
	ff		 lea	 edi, DWORD PTR [ebp-160]
  0001e	b9 25 00 00 00	 mov	 ecx, 37			; 00000025H
  00023	b8 cc cc cc cc	 mov	 eax, -858993460		; ccccccccH
  00028	f3 ab		 rep stosd
  0002a	a1 00 00 00 00	 mov	 eax, DWORD PTR ___security_cookie
  0002f	33 c5		 xor	 eax, ebp
  00031	50		 push	 eax
  00032	8d 45 f4	 lea	 eax, DWORD PTR __$EHRec$[ebp]
  00035	64 a3 00 00 00
	00		 mov	 DWORD PTR fs:0, eax
  0003b	b9 00 00 00 00	 mov	 ecx, OFFSET __5486D3C5_pmc_from@cpp
  00040	e8 00 00 00 00	 call	 @__CheckForDebuggerJustMyCode@4

; 48   :         if (sizeof(__UNIT_TYPE) * 2 < sizeof(x))

  00045	33 c0		 xor	 eax, eax
  00047	74 2b		 je	 SHORT $LN2@From_L_Imp

; 49   :         {
; 50   :             // _UINT64_T を表現するのに 2 ワードでは不足する処理系には対応しない。
; 51   :             throw InternalErrorException(L"予期していないコードに到達しました。", L"pmc_from.cpp;From_L_Imp;1");

  00049	68 00 00 00 00	 push	 OFFSET $SG117891
  0004e	68 00 00 00 00	 push	 OFFSET $SG117892
  00053	8d 8d 6c ff ff
	ff		 lea	 ecx, DWORD PTR $T5[ebp]
  00059	e8 00 00 00 00	 call	 ??0InternalErrorException@Internal@Core@Math@Palmtree@@QAE@PB_W0@Z ; Palmtree::Math::Core::Internal::InternalErrorException::InternalErrorException
  0005e	68 00 00 00 00	 push	 OFFSET __TI2?AVInternalErrorException@Internal@Core@Math@Palmtree@@
  00063	8d 8d 6c ff ff
	ff		 lea	 ecx, DWORD PTR $T5[ebp]
  00069	51		 push	 ecx
  0006a	e8 00 00 00 00	 call	 __CxxThrowException@8
  0006f	e9 cd 01 00 00	 jmp	 $LN8@From_L_Imp
$LN2@From_L_Imp:

; 52   :         }
; 53   :         else if (sizeof(__UNIT_TYPE) < sizeof(x))

  00074	ba 01 00 00 00	 mov	 edx, 1
  00079	85 d2		 test	 edx, edx
  0007b	0f 84 42 01 00
	00		 je	 $LN4@From_L_Imp

; 54   :         {
; 55   :             // _UINT64_T を表現するのに 1 ワードでは不足する(ちょうど 2 ワード必要とする)処理系の場合
; 56   : 
; 57   :             _UINT32_T x_hi;
; 58   :             _UINT32_T x_lo = _FROMDWORDTOWORD(x, &x_hi);

  00081	8d 45 ec	 lea	 eax, DWORD PTR _x_hi$16[ebp]
  00084	50		 push	 eax
  00085	8b 4d 0c	 mov	 ecx, DWORD PTR _x$[ebp+4]
  00088	51		 push	 ecx
  00089	8b 55 08	 mov	 edx, DWORD PTR _x$[ebp]
  0008c	52		 push	 edx
  0008d	e8 00 00 00 00	 call	 __FROMDWORDTOWORD
  00092	83 c4 0c	 add	 esp, 12			; 0000000cH
  00095	89 45 e4	 mov	 DWORD PTR _x_lo$15[ebp], eax

; 59   :             if (x_hi == 0)

  00098	83 7d ec 00	 cmp	 DWORD PTR _x_hi$16[ebp], 0
  0009c	0f 85 88 00 00
	00		 jne	 $LN6@From_L_Imp

; 60   :             {
; 61   :                 ResourceHolderUINT root;

  000a2	8d 4d d0	 lea	 ecx, DWORD PTR _root$14[ebp]
  000a5	e8 00 00 00 00	 call	 ??0ResourceHolderUINT@Internal@Core@Math@Palmtree@@QAE@XZ ; Palmtree::Math::Core::Internal::ResourceHolderUINT::ResourceHolderUINT
  000aa	c7 45 fc 00 00
	00 00		 mov	 DWORD PTR __$EHRec$[ebp+8], 0

; 62   :                 __UNIT_TYPE x_bit_length = sizeof(x_lo) * 8 - _LZCNT_ALT_32(x_lo);

  000b1	8b 45 e4	 mov	 eax, DWORD PTR _x_lo$15[ebp]
  000b4	50		 push	 eax
  000b5	e8 00 00 00 00	 call	 __LZCNT_ALT_32
  000ba	83 c4 04	 add	 esp, 4
  000bd	b9 20 00 00 00	 mov	 ecx, 32			; 00000020H
  000c2	2b c8		 sub	 ecx, eax
  000c4	89 4d c8	 mov	 DWORD PTR _x_bit_length$13[ebp], ecx

; 63   :                 NUMBER_HEADER* o = root.AllocateNumber(x_bit_length);

  000c7	8b 55 c8	 mov	 edx, DWORD PTR _x_bit_length$13[ebp]
  000ca	52		 push	 edx
  000cb	8d 4d d0	 lea	 ecx, DWORD PTR _root$14[ebp]
  000ce	e8 00 00 00 00	 call	 ?AllocateNumber@ResourceHolderUINT@Internal@Core@Math@Palmtree@@QAEPAU__tag_NUMBER_HEADER@2345@I@Z ; Palmtree::Math::Core::Internal::ResourceHolderUINT::AllocateNumber
  000d3	89 45 c4	 mov	 DWORD PTR _o$12[ebp], eax

; 64   :                 o->BLOCK[0] = x_lo;

  000d6	b8 04 00 00 00	 mov	 eax, 4
  000db	6b c8 00	 imul	 ecx, eax, 0
  000de	8b 55 c4	 mov	 edx, DWORD PTR _o$12[ebp]
  000e1	8b 42 24	 mov	 eax, DWORD PTR [edx+36]
  000e4	8b 55 e4	 mov	 edx, DWORD PTR _x_lo$15[ebp]
  000e7	89 14 01	 mov	 DWORD PTR [ecx+eax], edx

; 65   :                 CommitNumber(o);

  000ea	8b 45 c4	 mov	 eax, DWORD PTR _o$12[ebp]
  000ed	50		 push	 eax
  000ee	e8 00 00 00 00	 call	 ?CommitNumber@Internal@Core@Math@Palmtree@@YAXPAU__tag_NUMBER_HEADER@1234@@Z ; Palmtree::Math::Core::Internal::CommitNumber
  000f3	83 c4 04	 add	 esp, 4

; 66   :                 root.UnlinkNumber(o);

  000f6	8b 4d c4	 mov	 ecx, DWORD PTR _o$12[ebp]
  000f9	51		 push	 ecx
  000fa	8d 4d d0	 lea	 ecx, DWORD PTR _root$14[ebp]
  000fd	e8 00 00 00 00	 call	 ?UnlinkNumber@ResourceHolderUINT@Internal@Core@Math@Palmtree@@QAEXPAU__tag_NUMBER_HEADER@2345@@Z ; Palmtree::Math::Core::Internal::ResourceHolderUINT::UnlinkNumber

; 67   :                 return (o);

  00102	8b 55 c4	 mov	 edx, DWORD PTR _o$12[ebp]
  00105	89 95 68 ff ff
	ff		 mov	 DWORD PTR $T4[ebp], edx
  0010b	c7 45 fc ff ff
	ff ff		 mov	 DWORD PTR __$EHRec$[ebp+8], -1
  00112	8d 4d d0	 lea	 ecx, DWORD PTR _root$14[ebp]
  00115	e8 00 00 00 00	 call	 ??1ResourceHolderUINT@Internal@Core@Math@Palmtree@@UAE@XZ ; Palmtree::Math::Core::Internal::ResourceHolderUINT::~ResourceHolderUINT
  0011a	8b 85 68 ff ff
	ff		 mov	 eax, DWORD PTR $T4[ebp]
  00120	e9 1c 01 00 00	 jmp	 $LN8@From_L_Imp

; 68   :             }
; 69   :             else

  00125	e9 97 00 00 00	 jmp	 $LN7@From_L_Imp
$LN6@From_L_Imp:

; 70   :             {
; 71   :                 ResourceHolderUINT root;

  0012a	8d 4d b0	 lea	 ecx, DWORD PTR _root$11[ebp]
  0012d	e8 00 00 00 00	 call	 ??0ResourceHolderUINT@Internal@Core@Math@Palmtree@@QAE@XZ ; Palmtree::Math::Core::Internal::ResourceHolderUINT::ResourceHolderUINT
  00132	c7 45 fc 01 00
	00 00		 mov	 DWORD PTR __$EHRec$[ebp+8], 1

; 72   :                 __UNIT_TYPE x_bit_length = sizeof(x) * 8 - _LZCNT_ALT_32(x_hi);

  00139	8b 45 ec	 mov	 eax, DWORD PTR _x_hi$16[ebp]
  0013c	50		 push	 eax
  0013d	e8 00 00 00 00	 call	 __LZCNT_ALT_32
  00142	83 c4 04	 add	 esp, 4
  00145	b9 40 00 00 00	 mov	 ecx, 64			; 00000040H
  0014a	2b c8		 sub	 ecx, eax
  0014c	89 4d a8	 mov	 DWORD PTR _x_bit_length$10[ebp], ecx

; 73   :                 NUMBER_HEADER* o = root.AllocateNumber(x_bit_length);

  0014f	8b 55 a8	 mov	 edx, DWORD PTR _x_bit_length$10[ebp]
  00152	52		 push	 edx
  00153	8d 4d b0	 lea	 ecx, DWORD PTR _root$11[ebp]
  00156	e8 00 00 00 00	 call	 ?AllocateNumber@ResourceHolderUINT@Internal@Core@Math@Palmtree@@QAEPAU__tag_NUMBER_HEADER@2345@I@Z ; Palmtree::Math::Core::Internal::ResourceHolderUINT::AllocateNumber
  0015b	89 45 a4	 mov	 DWORD PTR _o$9[ebp], eax

; 74   :                 o->BLOCK[0] = x_lo;

  0015e	b8 04 00 00 00	 mov	 eax, 4
  00163	6b c8 00	 imul	 ecx, eax, 0
  00166	8b 55 a4	 mov	 edx, DWORD PTR _o$9[ebp]
  00169	8b 42 24	 mov	 eax, DWORD PTR [edx+36]
  0016c	8b 55 e4	 mov	 edx, DWORD PTR _x_lo$15[ebp]
  0016f	89 14 01	 mov	 DWORD PTR [ecx+eax], edx

; 75   :                 o->BLOCK[1] = x_hi;

  00172	b8 04 00 00 00	 mov	 eax, 4
  00177	c1 e0 00	 shl	 eax, 0
  0017a	8b 4d a4	 mov	 ecx, DWORD PTR _o$9[ebp]
  0017d	8b 51 24	 mov	 edx, DWORD PTR [ecx+36]
  00180	8b 4d ec	 mov	 ecx, DWORD PTR _x_hi$16[ebp]
  00183	89 0c 10	 mov	 DWORD PTR [eax+edx], ecx

; 76   :                 CommitNumber(o);

  00186	8b 55 a4	 mov	 edx, DWORD PTR _o$9[ebp]
  00189	52		 push	 edx
  0018a	e8 00 00 00 00	 call	 ?CommitNumber@Internal@Core@Math@Palmtree@@YAXPAU__tag_NUMBER_HEADER@1234@@Z ; Palmtree::Math::Core::Internal::CommitNumber
  0018f	83 c4 04	 add	 esp, 4

; 77   :                 root.UnlinkNumber(o);

  00192	8b 45 a4	 mov	 eax, DWORD PTR _o$9[ebp]
  00195	50		 push	 eax
  00196	8d 4d b0	 lea	 ecx, DWORD PTR _root$11[ebp]
  00199	e8 00 00 00 00	 call	 ?UnlinkNumber@ResourceHolderUINT@Internal@Core@Math@Palmtree@@QAEXPAU__tag_NUMBER_HEADER@2345@@Z ; Palmtree::Math::Core::Internal::ResourceHolderUINT::UnlinkNumber

; 78   :                 return (o);

  0019e	8b 4d a4	 mov	 ecx, DWORD PTR _o$9[ebp]
  001a1	89 8d 64 ff ff
	ff		 mov	 DWORD PTR $T3[ebp], ecx
  001a7	c7 45 fc ff ff
	ff ff		 mov	 DWORD PTR __$EHRec$[ebp+8], -1
  001ae	8d 4d b0	 lea	 ecx, DWORD PTR _root$11[ebp]
  001b1	e8 00 00 00 00	 call	 ??1ResourceHolderUINT@Internal@Core@Math@Palmtree@@UAE@XZ ; Palmtree::Math::Core::Internal::ResourceHolderUINT::~ResourceHolderUINT
  001b6	8b 85 64 ff ff
	ff		 mov	 eax, DWORD PTR $T3[ebp]
  001bc	e9 80 00 00 00	 jmp	 $LN8@From_L_Imp
$LN7@From_L_Imp:

; 79   :             }
; 80   :         }
; 81   :         else

  001c1	eb 7e		 jmp	 SHORT $LN8@From_L_Imp
$LN4@From_L_Imp:

; 82   :         {
; 83   :             // _UINT64_T を表現するのに 1 ワードで十分である処理系の場合
; 84   :             ResourceHolderUINT root;

  001c3	8d 4d 90	 lea	 ecx, DWORD PTR _root$8[ebp]
  001c6	e8 00 00 00 00	 call	 ??0ResourceHolderUINT@Internal@Core@Math@Palmtree@@QAE@XZ ; Palmtree::Math::Core::Internal::ResourceHolderUINT::ResourceHolderUINT
  001cb	c7 45 fc 02 00
	00 00		 mov	 DWORD PTR __$EHRec$[ebp+8], 2

; 85   :             __UNIT_TYPE x_bit_length = sizeof(x) * 8 - _LZCNT_ALT_UNIT((__UNIT_TYPE)x);

  001d2	8b 55 08	 mov	 edx, DWORD PTR _x$[ebp]
  001d5	52		 push	 edx
  001d6	e8 00 00 00 00	 call	 __LZCNT_ALT_UNIT
  001db	83 c4 04	 add	 esp, 4
  001de	b9 40 00 00 00	 mov	 ecx, 64			; 00000040H
  001e3	2b c8		 sub	 ecx, eax
  001e5	89 4d 88	 mov	 DWORD PTR _x_bit_length$7[ebp], ecx

; 86   :             NUMBER_HEADER* o = root.AllocateNumber(x_bit_length);

  001e8	8b 55 88	 mov	 edx, DWORD PTR _x_bit_length$7[ebp]
  001eb	52		 push	 edx
  001ec	8d 4d 90	 lea	 ecx, DWORD PTR _root$8[ebp]
  001ef	e8 00 00 00 00	 call	 ?AllocateNumber@ResourceHolderUINT@Internal@Core@Math@Palmtree@@QAEPAU__tag_NUMBER_HEADER@2345@I@Z ; Palmtree::Math::Core::Internal::ResourceHolderUINT::AllocateNumber
  001f4	89 45 84	 mov	 DWORD PTR _o$6[ebp], eax

; 87   :             o->BLOCK[0] = (__UNIT_TYPE)x;

  001f7	8b 45 08	 mov	 eax, DWORD PTR _x$[ebp]
  001fa	b9 04 00 00 00	 mov	 ecx, 4
  001ff	6b d1 00	 imul	 edx, ecx, 0
  00202	8b 4d 84	 mov	 ecx, DWORD PTR _o$6[ebp]
  00205	8b 49 24	 mov	 ecx, DWORD PTR [ecx+36]
  00208	89 04 0a	 mov	 DWORD PTR [edx+ecx], eax

; 88   :             CommitNumber(o);

  0020b	8b 55 84	 mov	 edx, DWORD PTR _o$6[ebp]
  0020e	52		 push	 edx
  0020f	e8 00 00 00 00	 call	 ?CommitNumber@Internal@Core@Math@Palmtree@@YAXPAU__tag_NUMBER_HEADER@1234@@Z ; Palmtree::Math::Core::Internal::CommitNumber
  00214	83 c4 04	 add	 esp, 4

; 89   :             root.UnlinkNumber(o);

  00217	8b 45 84	 mov	 eax, DWORD PTR _o$6[ebp]
  0021a	50		 push	 eax
  0021b	8d 4d 90	 lea	 ecx, DWORD PTR _root$8[ebp]
  0021e	e8 00 00 00 00	 call	 ?UnlinkNumber@ResourceHolderUINT@Internal@Core@Math@Palmtree@@QAEXPAU__tag_NUMBER_HEADER@2345@@Z ; Palmtree::Math::Core::Internal::ResourceHolderUINT::UnlinkNumber

; 90   :             return (o);

  00223	8b 4d 84	 mov	 ecx, DWORD PTR _o$6[ebp]
  00226	89 8d 60 ff ff
	ff		 mov	 DWORD PTR $T2[ebp], ecx
  0022c	c7 45 fc ff ff
	ff ff		 mov	 DWORD PTR __$EHRec$[ebp+8], -1
  00233	8d 4d 90	 lea	 ecx, DWORD PTR _root$8[ebp]
  00236	e8 00 00 00 00	 call	 ??1ResourceHolderUINT@Internal@Core@Math@Palmtree@@UAE@XZ ; Palmtree::Math::Core::Internal::ResourceHolderUINT::~ResourceHolderUINT
  0023b	8b 85 60 ff ff
	ff		 mov	 eax, DWORD PTR $T2[ebp]
$LN8@From_L_Imp:

; 91   :         }
; 92   :     }

  00241	52		 push	 edx
  00242	8b cd		 mov	 ecx, ebp
  00244	50		 push	 eax
  00245	8d 15 00 00 00
	00		 lea	 edx, DWORD PTR $LN18@From_L_Imp
  0024b	e8 00 00 00 00	 call	 @_RTC_CheckStackVars@8
  00250	58		 pop	 eax
  00251	5a		 pop	 edx
  00252	8b 4d f4	 mov	 ecx, DWORD PTR __$EHRec$[ebp]
  00255	64 89 0d 00 00
	00 00		 mov	 DWORD PTR fs:0, ecx
  0025c	59		 pop	 ecx
  0025d	5f		 pop	 edi
  0025e	81 c4 a0 00 00
	00		 add	 esp, 160		; 000000a0H
  00264	3b ec		 cmp	 ebp, esp
  00266	e8 00 00 00 00	 call	 __RTC_CheckEsp
  0026b	8b e5		 mov	 esp, ebp
  0026d	5d		 pop	 ebp
  0026e	c3		 ret	 0
  0026f	90		 npad	 1
$LN18@From_L_Imp:
  00270	04 00 00 00	 DD	 4
  00274	00 00 00 00	 DD	 $LN17@From_L_Imp
$LN17@From_L_Imp:
  00278	ec ff ff ff	 DD	 -20			; ffffffecH
  0027c	04 00 00 00	 DD	 4
  00280	00 00 00 00	 DD	 $LN12@From_L_Imp
  00284	d0 ff ff ff	 DD	 -48			; ffffffd0H
  00288	10 00 00 00	 DD	 16			; 00000010H
  0028c	00 00 00 00	 DD	 $LN13@From_L_Imp
  00290	b0 ff ff ff	 DD	 -80			; ffffffb0H
  00294	10 00 00 00	 DD	 16			; 00000010H
  00298	00 00 00 00	 DD	 $LN14@From_L_Imp
  0029c	90 ff ff ff	 DD	 -112			; ffffff90H
  002a0	10 00 00 00	 DD	 16			; 00000010H
  002a4	00 00 00 00	 DD	 $LN15@From_L_Imp
$LN15@From_L_Imp:
  002a8	72		 DB	 114			; 00000072H
  002a9	6f		 DB	 111			; 0000006fH
  002aa	6f		 DB	 111			; 0000006fH
  002ab	74		 DB	 116			; 00000074H
  002ac	00		 DB	 0
$LN14@From_L_Imp:
  002ad	72		 DB	 114			; 00000072H
  002ae	6f		 DB	 111			; 0000006fH
  002af	6f		 DB	 111			; 0000006fH
  002b0	74		 DB	 116			; 00000074H
  002b1	00		 DB	 0
$LN13@From_L_Imp:
  002b2	72		 DB	 114			; 00000072H
  002b3	6f		 DB	 111			; 0000006fH
  002b4	6f		 DB	 111			; 0000006fH
  002b5	74		 DB	 116			; 00000074H
  002b6	00		 DB	 0
$LN12@From_L_Imp:
  002b7	78		 DB	 120			; 00000078H
  002b8	5f		 DB	 95			; 0000005fH
  002b9	68		 DB	 104			; 00000068H
  002ba	69		 DB	 105			; 00000069H
  002bb	00		 DB	 0
_TEXT	ENDS
text$x	SEGMENT
__unwindfunclet$?From_L_Imp@Internal@Core@Math@Palmtree@@YAPAU__tag_NUMBER_HEADER@1234@_K@Z$0:
  00000	8d 4d d0	 lea	 ecx, DWORD PTR _root$14[ebp]
  00003	e9 00 00 00 00	 jmp	 ??1ResourceHolderUINT@Internal@Core@Math@Palmtree@@UAE@XZ ; Palmtree::Math::Core::Internal::ResourceHolderUINT::~ResourceHolderUINT
__unwindfunclet$?From_L_Imp@Internal@Core@Math@Palmtree@@YAPAU__tag_NUMBER_HEADER@1234@_K@Z$1:
  00008	8d 4d b0	 lea	 ecx, DWORD PTR _root$11[ebp]
  0000b	e9 00 00 00 00	 jmp	 ??1ResourceHolderUINT@Internal@Core@Math@Palmtree@@UAE@XZ ; Palmtree::Math::Core::Internal::ResourceHolderUINT::~ResourceHolderUINT
__unwindfunclet$?From_L_Imp@Internal@Core@Math@Palmtree@@YAPAU__tag_NUMBER_HEADER@1234@_K@Z$2:
  00010	8d 4d 90	 lea	 ecx, DWORD PTR _root$8[ebp]
  00013	e9 00 00 00 00	 jmp	 ??1ResourceHolderUINT@Internal@Core@Math@Palmtree@@UAE@XZ ; Palmtree::Math::Core::Internal::ResourceHolderUINT::~ResourceHolderUINT
__ehhandler$?From_L_Imp@Internal@Core@Math@Palmtree@@YAPAU__tag_NUMBER_HEADER@1234@_K@Z:
  00018	8b 54 24 08	 mov	 edx, DWORD PTR [esp+8]
  0001c	8d 42 0c	 lea	 eax, DWORD PTR [edx+12]
  0001f	8b 8a 64 ff ff
	ff		 mov	 ecx, DWORD PTR [edx-156]
  00025	33 c8		 xor	 ecx, eax
  00027	e8 00 00 00 00	 call	 @__security_check_cookie@4
  0002c	b8 00 00 00 00	 mov	 eax, OFFSET __ehfuncinfo$?From_L_Imp@Internal@Core@Math@Palmtree@@YAPAU__tag_NUMBER_HEADER@1234@_K@Z
  00031	e9 00 00 00 00	 jmp	 ___CxxFrameHandler3
text$x	ENDS
?From_L_Imp@Internal@Core@Math@Palmtree@@YAPAU__tag_NUMBER_HEADER@1234@_K@Z ENDP ; Palmtree::Math::Core::Internal::From_L_Imp
; Function compile flags: /Odtp /RTCsu
; File z:\sources\lunor\repos\rougemeilland\palmtree.math.core.uint\palmtree.math.core.uint\pmc_from.cpp
_TEXT	SEGMENT
$T2 = -44						; size = 4
_o$ = -40						; size = 4
_root$ = -32						; size = 16
__$EHRec$ = -12						; size = 12
_x$ = 8							; size = 4
?From_I_Imp@Internal@Core@Math@Palmtree@@YAPAU__tag_NUMBER_HEADER@1234@I@Z PROC ; Palmtree::Math::Core::Internal::From_I_Imp

; 37   :     {

  00000	55		 push	 ebp
  00001	8b ec		 mov	 ebp, esp
  00003	6a ff		 push	 -1
  00005	68 00 00 00 00	 push	 __ehhandler$?From_I_Imp@Internal@Core@Math@Palmtree@@YAPAU__tag_NUMBER_HEADER@1234@I@Z
  0000a	64 a1 00 00 00
	00		 mov	 eax, DWORD PTR fs:0
  00010	50		 push	 eax
  00011	83 ec 20	 sub	 esp, 32			; 00000020H
  00014	b8 cc cc cc cc	 mov	 eax, -858993460		; ccccccccH
  00019	89 45 d4	 mov	 DWORD PTR [ebp-44], eax
  0001c	89 45 d8	 mov	 DWORD PTR [ebp-40], eax
  0001f	89 45 dc	 mov	 DWORD PTR [ebp-36], eax
  00022	89 45 e0	 mov	 DWORD PTR [ebp-32], eax
  00025	89 45 e4	 mov	 DWORD PTR [ebp-28], eax
  00028	89 45 e8	 mov	 DWORD PTR [ebp-24], eax
  0002b	89 45 ec	 mov	 DWORD PTR [ebp-20], eax
  0002e	89 45 f0	 mov	 DWORD PTR [ebp-16], eax
  00031	a1 00 00 00 00	 mov	 eax, DWORD PTR ___security_cookie
  00036	33 c5		 xor	 eax, ebp
  00038	50		 push	 eax
  00039	8d 45 f4	 lea	 eax, DWORD PTR __$EHRec$[ebp]
  0003c	64 a3 00 00 00
	00		 mov	 DWORD PTR fs:0, eax
  00042	b9 00 00 00 00	 mov	 ecx, OFFSET __5486D3C5_pmc_from@cpp
  00047	e8 00 00 00 00	 call	 @__CheckForDebuggerJustMyCode@4

; 38   :         ResourceHolderUINT root;

  0004c	8d 4d e0	 lea	 ecx, DWORD PTR _root$[ebp]
  0004f	e8 00 00 00 00	 call	 ??0ResourceHolderUINT@Internal@Core@Math@Palmtree@@QAE@XZ ; Palmtree::Math::Core::Internal::ResourceHolderUINT::ResourceHolderUINT
  00054	c7 45 fc 00 00
	00 00		 mov	 DWORD PTR __$EHRec$[ebp+8], 0

; 39   :         NUMBER_HEADER* o = root.AllocateNumber(sizeof(x) * 8 - _LZCNT_ALT_32(x));

  0005b	8b 45 08	 mov	 eax, DWORD PTR _x$[ebp]
  0005e	50		 push	 eax
  0005f	e8 00 00 00 00	 call	 __LZCNT_ALT_32
  00064	83 c4 04	 add	 esp, 4
  00067	b9 20 00 00 00	 mov	 ecx, 32			; 00000020H
  0006c	2b c8		 sub	 ecx, eax
  0006e	51		 push	 ecx
  0006f	8d 4d e0	 lea	 ecx, DWORD PTR _root$[ebp]
  00072	e8 00 00 00 00	 call	 ?AllocateNumber@ResourceHolderUINT@Internal@Core@Math@Palmtree@@QAEPAU__tag_NUMBER_HEADER@2345@I@Z ; Palmtree::Math::Core::Internal::ResourceHolderUINT::AllocateNumber
  00077	89 45 d8	 mov	 DWORD PTR _o$[ebp], eax

; 40   :         o->BLOCK[0] = x;

  0007a	ba 04 00 00 00	 mov	 edx, 4
  0007f	6b c2 00	 imul	 eax, edx, 0
  00082	8b 4d d8	 mov	 ecx, DWORD PTR _o$[ebp]
  00085	8b 51 24	 mov	 edx, DWORD PTR [ecx+36]
  00088	8b 4d 08	 mov	 ecx, DWORD PTR _x$[ebp]
  0008b	89 0c 10	 mov	 DWORD PTR [eax+edx], ecx

; 41   :         CommitNumber(o);

  0008e	8b 55 d8	 mov	 edx, DWORD PTR _o$[ebp]
  00091	52		 push	 edx
  00092	e8 00 00 00 00	 call	 ?CommitNumber@Internal@Core@Math@Palmtree@@YAXPAU__tag_NUMBER_HEADER@1234@@Z ; Palmtree::Math::Core::Internal::CommitNumber
  00097	83 c4 04	 add	 esp, 4

; 42   :         root.UnlinkNumber(o);

  0009a	8b 45 d8	 mov	 eax, DWORD PTR _o$[ebp]
  0009d	50		 push	 eax
  0009e	8d 4d e0	 lea	 ecx, DWORD PTR _root$[ebp]
  000a1	e8 00 00 00 00	 call	 ?UnlinkNumber@ResourceHolderUINT@Internal@Core@Math@Palmtree@@QAEXPAU__tag_NUMBER_HEADER@2345@@Z ; Palmtree::Math::Core::Internal::ResourceHolderUINT::UnlinkNumber

; 43   :         return (o);

  000a6	8b 4d d8	 mov	 ecx, DWORD PTR _o$[ebp]
  000a9	89 4d d4	 mov	 DWORD PTR $T2[ebp], ecx
  000ac	c7 45 fc ff ff
	ff ff		 mov	 DWORD PTR __$EHRec$[ebp+8], -1
  000b3	8d 4d e0	 lea	 ecx, DWORD PTR _root$[ebp]
  000b6	e8 00 00 00 00	 call	 ??1ResourceHolderUINT@Internal@Core@Math@Palmtree@@UAE@XZ ; Palmtree::Math::Core::Internal::ResourceHolderUINT::~ResourceHolderUINT
  000bb	8b 45 d4	 mov	 eax, DWORD PTR $T2[ebp]

; 44   :     }

  000be	52		 push	 edx
  000bf	8b cd		 mov	 ecx, ebp
  000c1	50		 push	 eax
  000c2	8d 15 00 00 00
	00		 lea	 edx, DWORD PTR $LN7@From_I_Imp
  000c8	e8 00 00 00 00	 call	 @_RTC_CheckStackVars@8
  000cd	58		 pop	 eax
  000ce	5a		 pop	 edx
  000cf	8b 4d f4	 mov	 ecx, DWORD PTR __$EHRec$[ebp]
  000d2	64 89 0d 00 00
	00 00		 mov	 DWORD PTR fs:0, ecx
  000d9	59		 pop	 ecx
  000da	83 c4 2c	 add	 esp, 44			; 0000002cH
  000dd	3b ec		 cmp	 ebp, esp
  000df	e8 00 00 00 00	 call	 __RTC_CheckEsp
  000e4	8b e5		 mov	 esp, ebp
  000e6	5d		 pop	 ebp
  000e7	c3		 ret	 0
$LN7@From_I_Imp:
  000e8	01 00 00 00	 DD	 1
  000ec	00 00 00 00	 DD	 $LN6@From_I_Imp
$LN6@From_I_Imp:
  000f0	e0 ff ff ff	 DD	 -32			; ffffffe0H
  000f4	10 00 00 00	 DD	 16			; 00000010H
  000f8	00 00 00 00	 DD	 $LN4@From_I_Imp
$LN4@From_I_Imp:
  000fc	72		 DB	 114			; 00000072H
  000fd	6f		 DB	 111			; 0000006fH
  000fe	6f		 DB	 111			; 0000006fH
  000ff	74		 DB	 116			; 00000074H
  00100	00		 DB	 0
_TEXT	ENDS
text$x	SEGMENT
__unwindfunclet$?From_I_Imp@Internal@Core@Math@Palmtree@@YAPAU__tag_NUMBER_HEADER@1234@I@Z$0:
  00000	8d 4d e0	 lea	 ecx, DWORD PTR _root$[ebp]
  00003	e9 00 00 00 00	 jmp	 ??1ResourceHolderUINT@Internal@Core@Math@Palmtree@@UAE@XZ ; Palmtree::Math::Core::Internal::ResourceHolderUINT::~ResourceHolderUINT
__ehhandler$?From_I_Imp@Internal@Core@Math@Palmtree@@YAPAU__tag_NUMBER_HEADER@1234@I@Z:
  00008	8b 54 24 08	 mov	 edx, DWORD PTR [esp+8]
  0000c	8d 42 0c	 lea	 eax, DWORD PTR [edx+12]
  0000f	8b 4a dc	 mov	 ecx, DWORD PTR [edx-36]
  00012	33 c8		 xor	 ecx, eax
  00014	e8 00 00 00 00	 call	 @__security_check_cookie@4
  00019	b8 00 00 00 00	 mov	 eax, OFFSET __ehfuncinfo$?From_I_Imp@Internal@Core@Math@Palmtree@@YAPAU__tag_NUMBER_HEADER@1234@I@Z
  0001e	e9 00 00 00 00	 jmp	 ___CxxFrameHandler3
text$x	ENDS
?From_I_Imp@Internal@Core@Math@Palmtree@@YAPAU__tag_NUMBER_HEADER@1234@I@Z ENDP ; Palmtree::Math::Core::Internal::From_I_Imp
; Function compile flags: /Odtp /RTCsu
;	COMDAT ??_GInternalErrorException@Internal@Core@Math@Palmtree@@UAEPAXI@Z
_TEXT	SEGMENT
_this$ = -4						; size = 4
___flags$ = 8						; size = 4
??_GInternalErrorException@Internal@Core@Math@Palmtree@@UAEPAXI@Z PROC ; Palmtree::Math::Core::Internal::InternalErrorException::`scalar deleting destructor', COMDAT
; _this$ = ecx
  00000	55		 push	 ebp
  00001	8b ec		 mov	 ebp, esp
  00003	51		 push	 ecx
  00004	c7 45 fc cc cc
	cc cc		 mov	 DWORD PTR [ebp-4], -858993460 ; ccccccccH
  0000b	89 4d fc	 mov	 DWORD PTR _this$[ebp], ecx
  0000e	8b 4d fc	 mov	 ecx, DWORD PTR _this$[ebp]
  00011	e8 00 00 00 00	 call	 ??1InternalErrorException@Internal@Core@Math@Palmtree@@UAE@XZ ; Palmtree::Math::Core::Internal::InternalErrorException::~InternalErrorException
  00016	8b 45 08	 mov	 eax, DWORD PTR ___flags$[ebp]
  00019	83 e0 01	 and	 eax, 1
  0001c	74 0e		 je	 SHORT $LN2@scalar
  0001e	6a 18		 push	 24			; 00000018H
  00020	8b 4d fc	 mov	 ecx, DWORD PTR _this$[ebp]
  00023	51		 push	 ecx
  00024	e8 00 00 00 00	 call	 ??3@YAXPAXI@Z		; operator delete
  00029	83 c4 08	 add	 esp, 8
$LN2@scalar:
  0002c	8b 45 fc	 mov	 eax, DWORD PTR _this$[ebp]
  0002f	83 c4 04	 add	 esp, 4
  00032	3b ec		 cmp	 ebp, esp
  00034	e8 00 00 00 00	 call	 __RTC_CheckEsp
  00039	8b e5		 mov	 esp, ebp
  0003b	5d		 pop	 ebp
  0003c	c2 04 00	 ret	 4
??_GInternalErrorException@Internal@Core@Math@Palmtree@@UAEPAXI@Z ENDP ; Palmtree::Math::Core::Internal::InternalErrorException::`scalar deleting destructor'
_TEXT	ENDS
; Function compile flags: /Odtp /RTCsu
; File z:\sources\lunor\repos\rougemeilland\palmtree.math.core.uint\palmtree.math.core.uint\pmc_exception.h
;	COMDAT ??1InternalErrorException@Internal@Core@Math@Palmtree@@UAE@XZ
_TEXT	SEGMENT
_this$ = -16						; size = 4
__$EHRec$ = -12						; size = 12
??1InternalErrorException@Internal@Core@Math@Palmtree@@UAE@XZ PROC ; Palmtree::Math::Core::Internal::InternalErrorException::~InternalErrorException, COMDAT
; _this$ = ecx

; 295  :         {

  00000	55		 push	 ebp
  00001	8b ec		 mov	 ebp, esp
  00003	6a ff		 push	 -1
  00005	68 00 00 00 00	 push	 __ehhandler$??1InternalErrorException@Internal@Core@Math@Palmtree@@UAE@XZ
  0000a	64 a1 00 00 00
	00		 mov	 eax, DWORD PTR fs:0
  00010	50		 push	 eax
  00011	51		 push	 ecx
  00012	c7 45 f0 cc cc
	cc cc		 mov	 DWORD PTR [ebp-16], -858993460 ; ccccccccH
  00019	a1 00 00 00 00	 mov	 eax, DWORD PTR ___security_cookie
  0001e	33 c5		 xor	 eax, ebp
  00020	50		 push	 eax
  00021	8d 45 f4	 lea	 eax, DWORD PTR __$EHRec$[ebp]
  00024	64 a3 00 00 00
	00		 mov	 DWORD PTR fs:0, eax
  0002a	89 4d f0	 mov	 DWORD PTR _this$[ebp], ecx
  0002d	b9 00 00 00 00	 mov	 ecx, OFFSET __802FEEC0_pmc_exception@h
  00032	e8 00 00 00 00	 call	 @__CheckForDebuggerJustMyCode@4
  00037	8b 45 f0	 mov	 eax, DWORD PTR _this$[ebp]
  0003a	c7 00 00 00 00
	00		 mov	 DWORD PTR [eax], OFFSET ??_7InternalErrorException@Internal@Core@Math@Palmtree@@6B@
  00040	c7 45 fc 00 00
	00 00		 mov	 DWORD PTR __$EHRec$[ebp+8], 0

; 296  :         }

  00047	c7 45 fc ff ff
	ff ff		 mov	 DWORD PTR __$EHRec$[ebp+8], -1
  0004e	8b 4d f0	 mov	 ecx, DWORD PTR _this$[ebp]
  00051	e8 00 00 00 00	 call	 ??1Exception@Internal@Core@Math@Palmtree@@UAE@XZ ; Palmtree::Math::Core::Internal::Exception::~Exception
  00056	8b 4d f4	 mov	 ecx, DWORD PTR __$EHRec$[ebp]
  00059	64 89 0d 00 00
	00 00		 mov	 DWORD PTR fs:0, ecx
  00060	59		 pop	 ecx
  00061	83 c4 10	 add	 esp, 16			; 00000010H
  00064	3b ec		 cmp	 ebp, esp
  00066	e8 00 00 00 00	 call	 __RTC_CheckEsp
  0006b	8b e5		 mov	 esp, ebp
  0006d	5d		 pop	 ebp
  0006e	c3		 ret	 0
_TEXT	ENDS
;	COMDAT text$x
text$x	SEGMENT
__unwindfunclet$??1InternalErrorException@Internal@Core@Math@Palmtree@@UAE@XZ$0:
  00000	8b 4d f0	 mov	 ecx, DWORD PTR _this$[ebp]
  00003	e9 00 00 00 00	 jmp	 ??1Exception@Internal@Core@Math@Palmtree@@UAE@XZ ; Palmtree::Math::Core::Internal::Exception::~Exception
__ehhandler$??1InternalErrorException@Internal@Core@Math@Palmtree@@UAE@XZ:
  00008	8b 54 24 08	 mov	 edx, DWORD PTR [esp+8]
  0000c	8d 42 0c	 lea	 eax, DWORD PTR [edx+12]
  0000f	8b 4a f8	 mov	 ecx, DWORD PTR [edx-8]
  00012	33 c8		 xor	 ecx, eax
  00014	e8 00 00 00 00	 call	 @__security_check_cookie@4
  00019	b8 00 00 00 00	 mov	 eax, OFFSET __ehfuncinfo$??1InternalErrorException@Internal@Core@Math@Palmtree@@UAE@XZ
  0001e	e9 00 00 00 00	 jmp	 ___CxxFrameHandler3
text$x	ENDS
??1InternalErrorException@Internal@Core@Math@Palmtree@@UAE@XZ ENDP ; Palmtree::Math::Core::Internal::InternalErrorException::~InternalErrorException
; Function compile flags: /Odtp /RTCsu
; File z:\sources\lunor\repos\rougemeilland\palmtree.math.core.uint\palmtree.math.core.uint\pmc_exception.h
;	COMDAT ??0InternalErrorException@Internal@Core@Math@Palmtree@@QAE@ABV01234@@Z
_TEXT	SEGMENT
_this$ = -16						; size = 4
__$EHRec$ = -12						; size = 12
_p$ = 8							; size = 4
??0InternalErrorException@Internal@Core@Math@Palmtree@@QAE@ABV01234@@Z PROC ; Palmtree::Math::Core::Internal::InternalErrorException::InternalErrorException, COMDAT
; _this$ = ecx

; 291  :         {

  00000	55		 push	 ebp
  00001	8b ec		 mov	 ebp, esp
  00003	6a ff		 push	 -1
  00005	68 00 00 00 00	 push	 __ehhandler$??0InternalErrorException@Internal@Core@Math@Palmtree@@QAE@ABV01234@@Z
  0000a	64 a1 00 00 00
	00		 mov	 eax, DWORD PTR fs:0
  00010	50		 push	 eax
  00011	51		 push	 ecx
  00012	c7 45 f0 cc cc
	cc cc		 mov	 DWORD PTR [ebp-16], -858993460 ; ccccccccH
  00019	a1 00 00 00 00	 mov	 eax, DWORD PTR ___security_cookie
  0001e	33 c5		 xor	 eax, ebp
  00020	50		 push	 eax
  00021	8d 45 f4	 lea	 eax, DWORD PTR __$EHRec$[ebp]
  00024	64 a3 00 00 00
	00		 mov	 DWORD PTR fs:0, eax
  0002a	89 4d f0	 mov	 DWORD PTR _this$[ebp], ecx
  0002d	b9 00 00 00 00	 mov	 ecx, OFFSET __802FEEC0_pmc_exception@h
  00032	e8 00 00 00 00	 call	 @__CheckForDebuggerJustMyCode@4

; 290  :             : Exception(p)

  00037	8b 45 08	 mov	 eax, DWORD PTR _p$[ebp]
  0003a	50		 push	 eax
  0003b	8b 4d f0	 mov	 ecx, DWORD PTR _this$[ebp]
  0003e	e8 00 00 00 00	 call	 ??0Exception@Internal@Core@Math@Palmtree@@QAE@ABV01234@@Z ; Palmtree::Math::Core::Internal::Exception::Exception
  00043	c7 45 fc 00 00
	00 00		 mov	 DWORD PTR __$EHRec$[ebp+8], 0

; 291  :         {

  0004a	8b 4d f0	 mov	 ecx, DWORD PTR _this$[ebp]
  0004d	c7 01 00 00 00
	00		 mov	 DWORD PTR [ecx], OFFSET ??_7InternalErrorException@Internal@Core@Math@Palmtree@@6B@

; 292  :         }

  00053	c7 45 fc ff ff
	ff ff		 mov	 DWORD PTR __$EHRec$[ebp+8], -1
  0005a	8b 45 f0	 mov	 eax, DWORD PTR _this$[ebp]
  0005d	8b 4d f4	 mov	 ecx, DWORD PTR __$EHRec$[ebp]
  00060	64 89 0d 00 00
	00 00		 mov	 DWORD PTR fs:0, ecx
  00067	59		 pop	 ecx
  00068	83 c4 10	 add	 esp, 16			; 00000010H
  0006b	3b ec		 cmp	 ebp, esp
  0006d	e8 00 00 00 00	 call	 __RTC_CheckEsp
  00072	8b e5		 mov	 esp, ebp
  00074	5d		 pop	 ebp
  00075	c2 04 00	 ret	 4
_TEXT	ENDS
;	COMDAT text$x
text$x	SEGMENT
__unwindfunclet$??0InternalErrorException@Internal@Core@Math@Palmtree@@QAE@ABV01234@@Z$0:
  00000	8b 4d f0	 mov	 ecx, DWORD PTR _this$[ebp]
  00003	e9 00 00 00 00	 jmp	 ??1Exception@Internal@Core@Math@Palmtree@@UAE@XZ ; Palmtree::Math::Core::Internal::Exception::~Exception
__ehhandler$??0InternalErrorException@Internal@Core@Math@Palmtree@@QAE@ABV01234@@Z:
  00008	8b 54 24 08	 mov	 edx, DWORD PTR [esp+8]
  0000c	8d 42 0c	 lea	 eax, DWORD PTR [edx+12]
  0000f	8b 4a f8	 mov	 ecx, DWORD PTR [edx-8]
  00012	33 c8		 xor	 ecx, eax
  00014	e8 00 00 00 00	 call	 @__security_check_cookie@4
  00019	b8 00 00 00 00	 mov	 eax, OFFSET __ehfuncinfo$??0InternalErrorException@Internal@Core@Math@Palmtree@@QAE@ABV01234@@Z
  0001e	e9 00 00 00 00	 jmp	 ___CxxFrameHandler3
text$x	ENDS
??0InternalErrorException@Internal@Core@Math@Palmtree@@QAE@ABV01234@@Z ENDP ; Palmtree::Math::Core::Internal::InternalErrorException::InternalErrorException
; Function compile flags: /Odtp /RTCsu
; File z:\sources\lunor\repos\rougemeilland\palmtree.math.core.uint\palmtree.math.core.uint\pmc_exception.h
;	COMDAT ??0InternalErrorException@Internal@Core@Math@Palmtree@@QAE@PB_W0@Z
_TEXT	SEGMENT
_this$ = -16						; size = 4
__$EHRec$ = -12						; size = 12
_message$ = 8						; size = 4
_data$ = 12						; size = 4
??0InternalErrorException@Internal@Core@Math@Palmtree@@QAE@PB_W0@Z PROC ; Palmtree::Math::Core::Internal::InternalErrorException::InternalErrorException, COMDAT
; _this$ = ecx

; 286  :         {

  00000	55		 push	 ebp
  00001	8b ec		 mov	 ebp, esp
  00003	6a ff		 push	 -1
  00005	68 00 00 00 00	 push	 __ehhandler$??0InternalErrorException@Internal@Core@Math@Palmtree@@QAE@PB_W0@Z
  0000a	64 a1 00 00 00
	00		 mov	 eax, DWORD PTR fs:0
  00010	50		 push	 eax
  00011	51		 push	 ecx
  00012	c7 45 f0 cc cc
	cc cc		 mov	 DWORD PTR [ebp-16], -858993460 ; ccccccccH
  00019	a1 00 00 00 00	 mov	 eax, DWORD PTR ___security_cookie
  0001e	33 c5		 xor	 eax, ebp
  00020	50		 push	 eax
  00021	8d 45 f4	 lea	 eax, DWORD PTR __$EHRec$[ebp]
  00024	64 a3 00 00 00
	00		 mov	 DWORD PTR fs:0, eax
  0002a	89 4d f0	 mov	 DWORD PTR _this$[ebp], ecx
  0002d	b9 00 00 00 00	 mov	 ecx, OFFSET __802FEEC0_pmc_exception@h
  00032	e8 00 00 00 00	 call	 @__CheckForDebuggerJustMyCode@4

; 285  :             : Exception(PMC_STATUS_INTERNAL_ERROR, message, data)

  00037	8b 45 0c	 mov	 eax, DWORD PTR _data$[ebp]
  0003a	50		 push	 eax
  0003b	8b 4d 08	 mov	 ecx, DWORD PTR _message$[ebp]
  0003e	51		 push	 ecx
  0003f	68 00 ff ff ff	 push	 -256			; ffffff00H
  00044	8b 4d f0	 mov	 ecx, DWORD PTR _this$[ebp]
  00047	e8 00 00 00 00	 call	 ??0Exception@Internal@Core@Math@Palmtree@@IAE@HPB_W0@Z ; Palmtree::Math::Core::Internal::Exception::Exception
  0004c	c7 45 fc 00 00
	00 00		 mov	 DWORD PTR __$EHRec$[ebp+8], 0

; 286  :         {

  00053	8b 55 f0	 mov	 edx, DWORD PTR _this$[ebp]
  00056	c7 02 00 00 00
	00		 mov	 DWORD PTR [edx], OFFSET ??_7InternalErrorException@Internal@Core@Math@Palmtree@@6B@

; 287  :         }

  0005c	c7 45 fc ff ff
	ff ff		 mov	 DWORD PTR __$EHRec$[ebp+8], -1
  00063	8b 45 f0	 mov	 eax, DWORD PTR _this$[ebp]
  00066	8b 4d f4	 mov	 ecx, DWORD PTR __$EHRec$[ebp]
  00069	64 89 0d 00 00
	00 00		 mov	 DWORD PTR fs:0, ecx
  00070	59		 pop	 ecx
  00071	83 c4 10	 add	 esp, 16			; 00000010H
  00074	3b ec		 cmp	 ebp, esp
  00076	e8 00 00 00 00	 call	 __RTC_CheckEsp
  0007b	8b e5		 mov	 esp, ebp
  0007d	5d		 pop	 ebp
  0007e	c2 08 00	 ret	 8
_TEXT	ENDS
;	COMDAT text$x
text$x	SEGMENT
__unwindfunclet$??0InternalErrorException@Internal@Core@Math@Palmtree@@QAE@PB_W0@Z$0:
  00000	8b 4d f0	 mov	 ecx, DWORD PTR _this$[ebp]
  00003	e9 00 00 00 00	 jmp	 ??1Exception@Internal@Core@Math@Palmtree@@UAE@XZ ; Palmtree::Math::Core::Internal::Exception::~Exception
__ehhandler$??0InternalErrorException@Internal@Core@Math@Palmtree@@QAE@PB_W0@Z:
  00008	8b 54 24 08	 mov	 edx, DWORD PTR [esp+8]
  0000c	8d 42 0c	 lea	 eax, DWORD PTR [edx+12]
  0000f	8b 4a f8	 mov	 ecx, DWORD PTR [edx-8]
  00012	33 c8		 xor	 ecx, eax
  00014	e8 00 00 00 00	 call	 @__security_check_cookie@4
  00019	b8 00 00 00 00	 mov	 eax, OFFSET __ehfuncinfo$??0InternalErrorException@Internal@Core@Math@Palmtree@@QAE@PB_W0@Z
  0001e	e9 00 00 00 00	 jmp	 ___CxxFrameHandler3
text$x	ENDS
??0InternalErrorException@Internal@Core@Math@Palmtree@@QAE@PB_W0@Z ENDP ; Palmtree::Math::Core::Internal::InternalErrorException::InternalErrorException
; Function compile flags: /Odtp /RTCsu
;	COMDAT ??_GException@Internal@Core@Math@Palmtree@@UAEPAXI@Z
_TEXT	SEGMENT
_this$ = -4						; size = 4
___flags$ = 8						; size = 4
??_GException@Internal@Core@Math@Palmtree@@UAEPAXI@Z PROC ; Palmtree::Math::Core::Internal::Exception::`scalar deleting destructor', COMDAT
; _this$ = ecx
  00000	55		 push	 ebp
  00001	8b ec		 mov	 ebp, esp
  00003	51		 push	 ecx
  00004	c7 45 fc cc cc
	cc cc		 mov	 DWORD PTR [ebp-4], -858993460 ; ccccccccH
  0000b	89 4d fc	 mov	 DWORD PTR _this$[ebp], ecx
  0000e	8b 4d fc	 mov	 ecx, DWORD PTR _this$[ebp]
  00011	e8 00 00 00 00	 call	 ??1Exception@Internal@Core@Math@Palmtree@@UAE@XZ ; Palmtree::Math::Core::Internal::Exception::~Exception
  00016	8b 45 08	 mov	 eax, DWORD PTR ___flags$[ebp]
  00019	83 e0 01	 and	 eax, 1
  0001c	74 0e		 je	 SHORT $LN2@scalar
  0001e	6a 18		 push	 24			; 00000018H
  00020	8b 4d fc	 mov	 ecx, DWORD PTR _this$[ebp]
  00023	51		 push	 ecx
  00024	e8 00 00 00 00	 call	 ??3@YAXPAXI@Z		; operator delete
  00029	83 c4 08	 add	 esp, 8
$LN2@scalar:
  0002c	8b 45 fc	 mov	 eax, DWORD PTR _this$[ebp]
  0002f	83 c4 04	 add	 esp, 4
  00032	3b ec		 cmp	 ebp, esp
  00034	e8 00 00 00 00	 call	 __RTC_CheckEsp
  00039	8b e5		 mov	 esp, ebp
  0003b	5d		 pop	 ebp
  0003c	c2 04 00	 ret	 4
??_GException@Internal@Core@Math@Palmtree@@UAEPAXI@Z ENDP ; Palmtree::Math::Core::Internal::Exception::`scalar deleting destructor'
_TEXT	ENDS
; Function compile flags: /Odtp /RTCsu
; File z:\sources\lunor\repos\rougemeilland\palmtree.math.core.uint\palmtree.math.core.uint\pmc_exception.h
;	COMDAT ??1Exception@Internal@Core@Math@Palmtree@@UAE@XZ
_TEXT	SEGMENT
_this$ = -16						; size = 4
__$EHRec$ = -12						; size = 12
??1Exception@Internal@Core@Math@Palmtree@@UAE@XZ PROC	; Palmtree::Math::Core::Internal::Exception::~Exception, COMDAT
; _this$ = ecx

; 70   :         {

  00000	55		 push	 ebp
  00001	8b ec		 mov	 ebp, esp
  00003	6a ff		 push	 -1
  00005	68 00 00 00 00	 push	 __ehhandler$??1Exception@Internal@Core@Math@Palmtree@@UAE@XZ
  0000a	64 a1 00 00 00
	00		 mov	 eax, DWORD PTR fs:0
  00010	50		 push	 eax
  00011	51		 push	 ecx
  00012	c7 45 f0 cc cc
	cc cc		 mov	 DWORD PTR [ebp-16], -858993460 ; ccccccccH
  00019	a1 00 00 00 00	 mov	 eax, DWORD PTR ___security_cookie
  0001e	33 c5		 xor	 eax, ebp
  00020	50		 push	 eax
  00021	8d 45 f4	 lea	 eax, DWORD PTR __$EHRec$[ebp]
  00024	64 a3 00 00 00
	00		 mov	 DWORD PTR fs:0, eax
  0002a	89 4d f0	 mov	 DWORD PTR _this$[ebp], ecx
  0002d	b9 00 00 00 00	 mov	 ecx, OFFSET __802FEEC0_pmc_exception@h
  00032	e8 00 00 00 00	 call	 @__CheckForDebuggerJustMyCode@4
  00037	8b 45 f0	 mov	 eax, DWORD PTR _this$[ebp]
  0003a	c7 00 00 00 00
	00		 mov	 DWORD PTR [eax], OFFSET ??_7Exception@Internal@Core@Math@Palmtree@@6B@
  00040	c7 45 fc 00 00
	00 00		 mov	 DWORD PTR __$EHRec$[ebp+8], 0

; 71   :         }

  00047	c7 45 fc ff ff
	ff ff		 mov	 DWORD PTR __$EHRec$[ebp+8], -1
  0004e	8b 4d f0	 mov	 ecx, DWORD PTR _this$[ebp]
  00051	e8 00 00 00 00	 call	 ??1exception@std@@UAE@XZ ; std::exception::~exception
  00056	8b 4d f4	 mov	 ecx, DWORD PTR __$EHRec$[ebp]
  00059	64 89 0d 00 00
	00 00		 mov	 DWORD PTR fs:0, ecx
  00060	59		 pop	 ecx
  00061	83 c4 10	 add	 esp, 16			; 00000010H
  00064	3b ec		 cmp	 ebp, esp
  00066	e8 00 00 00 00	 call	 __RTC_CheckEsp
  0006b	8b e5		 mov	 esp, ebp
  0006d	5d		 pop	 ebp
  0006e	c3		 ret	 0
_TEXT	ENDS
;	COMDAT text$x
text$x	SEGMENT
__unwindfunclet$??1Exception@Internal@Core@Math@Palmtree@@UAE@XZ$0:
  00000	8b 4d f0	 mov	 ecx, DWORD PTR _this$[ebp]
  00003	e9 00 00 00 00	 jmp	 ??1exception@std@@UAE@XZ ; std::exception::~exception
__ehhandler$??1Exception@Internal@Core@Math@Palmtree@@UAE@XZ:
  00008	8b 54 24 08	 mov	 edx, DWORD PTR [esp+8]
  0000c	8d 42 0c	 lea	 eax, DWORD PTR [edx+12]
  0000f	8b 4a f8	 mov	 ecx, DWORD PTR [edx-8]
  00012	33 c8		 xor	 ecx, eax
  00014	e8 00 00 00 00	 call	 @__security_check_cookie@4
  00019	b8 00 00 00 00	 mov	 eax, OFFSET __ehfuncinfo$??1Exception@Internal@Core@Math@Palmtree@@UAE@XZ
  0001e	e9 00 00 00 00	 jmp	 ___CxxFrameHandler3
text$x	ENDS
??1Exception@Internal@Core@Math@Palmtree@@UAE@XZ ENDP	; Palmtree::Math::Core::Internal::Exception::~Exception
; Function compile flags: /Odtp /RTCsu
; File z:\sources\lunor\repos\rougemeilland\palmtree.math.core.uint\palmtree.math.core.uint\pmc_exception.h
;	COMDAT ??0Exception@Internal@Core@Math@Palmtree@@QAE@ABV01234@@Z
_TEXT	SEGMENT
_this$ = -16						; size = 4
__$EHRec$ = -12						; size = 12
_p$ = 8							; size = 4
??0Exception@Internal@Core@Math@Palmtree@@QAE@ABV01234@@Z PROC ; Palmtree::Math::Core::Internal::Exception::Exception, COMDAT
; _this$ = ecx

; 62   :         Exception(const Exception& p) noexcept(true)

  00000	55		 push	 ebp
  00001	8b ec		 mov	 ebp, esp
  00003	6a ff		 push	 -1
  00005	68 00 00 00 00	 push	 __ehhandler$??0Exception@Internal@Core@Math@Palmtree@@QAE@ABV01234@@Z
  0000a	64 a1 00 00 00
	00		 mov	 eax, DWORD PTR fs:0
  00010	50		 push	 eax
  00011	51		 push	 ecx
  00012	c7 45 f0 cc cc
	cc cc		 mov	 DWORD PTR [ebp-16], -858993460 ; ccccccccH
  00019	a1 00 00 00 00	 mov	 eax, DWORD PTR ___security_cookie
  0001e	33 c5		 xor	 eax, ebp
  00020	50		 push	 eax
  00021	8d 45 f4	 lea	 eax, DWORD PTR __$EHRec$[ebp]
  00024	64 a3 00 00 00
	00		 mov	 DWORD PTR fs:0, eax
  0002a	89 4d f0	 mov	 DWORD PTR _this$[ebp], ecx
  0002d	b9 00 00 00 00	 mov	 ecx, OFFSET __802FEEC0_pmc_exception@h
  00032	e8 00 00 00 00	 call	 @__CheckForDebuggerJustMyCode@4
  00037	8b 4d f0	 mov	 ecx, DWORD PTR _this$[ebp]
  0003a	e8 00 00 00 00	 call	 ??0exception@std@@QAE@XZ ; std::exception::exception
  0003f	c7 45 fc 00 00
	00 00		 mov	 DWORD PTR __$EHRec$[ebp+8], 0
  00046	8b 45 f0	 mov	 eax, DWORD PTR _this$[ebp]
  00049	c7 00 00 00 00
	00		 mov	 DWORD PTR [eax], OFFSET ??_7Exception@Internal@Core@Math@Palmtree@@6B@

; 63   :         {
; 64   :             _code = p._code;

  0004f	8b 4d f0	 mov	 ecx, DWORD PTR _this$[ebp]
  00052	8b 55 08	 mov	 edx, DWORD PTR _p$[ebp]
  00055	8b 42 0c	 mov	 eax, DWORD PTR [edx+12]
  00058	89 41 0c	 mov	 DWORD PTR [ecx+12], eax

; 65   :             _message = p._message;

  0005b	8b 4d f0	 mov	 ecx, DWORD PTR _this$[ebp]
  0005e	8b 55 08	 mov	 edx, DWORD PTR _p$[ebp]
  00061	8b 42 10	 mov	 eax, DWORD PTR [edx+16]
  00064	89 41 10	 mov	 DWORD PTR [ecx+16], eax

; 66   :             _data = p._data;

  00067	8b 4d f0	 mov	 ecx, DWORD PTR _this$[ebp]
  0006a	8b 55 08	 mov	 edx, DWORD PTR _p$[ebp]
  0006d	8b 42 14	 mov	 eax, DWORD PTR [edx+20]
  00070	89 41 14	 mov	 DWORD PTR [ecx+20], eax

; 67   :         }

  00073	c7 45 fc ff ff
	ff ff		 mov	 DWORD PTR __$EHRec$[ebp+8], -1
  0007a	8b 45 f0	 mov	 eax, DWORD PTR _this$[ebp]
  0007d	8b 4d f4	 mov	 ecx, DWORD PTR __$EHRec$[ebp]
  00080	64 89 0d 00 00
	00 00		 mov	 DWORD PTR fs:0, ecx
  00087	59		 pop	 ecx
  00088	83 c4 10	 add	 esp, 16			; 00000010H
  0008b	3b ec		 cmp	 ebp, esp
  0008d	e8 00 00 00 00	 call	 __RTC_CheckEsp
  00092	8b e5		 mov	 esp, ebp
  00094	5d		 pop	 ebp
  00095	c2 04 00	 ret	 4
_TEXT	ENDS
;	COMDAT text$x
text$x	SEGMENT
__unwindfunclet$??0Exception@Internal@Core@Math@Palmtree@@QAE@ABV01234@@Z$0:
  00000	8b 4d f0	 mov	 ecx, DWORD PTR _this$[ebp]
  00003	e9 00 00 00 00	 jmp	 ??1exception@std@@UAE@XZ ; std::exception::~exception
__ehhandler$??0Exception@Internal@Core@Math@Palmtree@@QAE@ABV01234@@Z:
  00008	8b 54 24 08	 mov	 edx, DWORD PTR [esp+8]
  0000c	8d 42 0c	 lea	 eax, DWORD PTR [edx+12]
  0000f	8b 4a f8	 mov	 ecx, DWORD PTR [edx-8]
  00012	33 c8		 xor	 ecx, eax
  00014	e8 00 00 00 00	 call	 @__security_check_cookie@4
  00019	b8 00 00 00 00	 mov	 eax, OFFSET __ehfuncinfo$??0Exception@Internal@Core@Math@Palmtree@@QAE@ABV01234@@Z
  0001e	e9 00 00 00 00	 jmp	 ___CxxFrameHandler3
text$x	ENDS
??0Exception@Internal@Core@Math@Palmtree@@QAE@ABV01234@@Z ENDP ; Palmtree::Math::Core::Internal::Exception::Exception
; Function compile flags: /Odtp /RTCsu
; File z:\sources\lunor\repos\rougemeilland\palmtree.math.core.uint\palmtree.math.core.uint\pmc_exception.h
;	COMDAT ??0Exception@Internal@Core@Math@Palmtree@@IAE@HPB_W0@Z
_TEXT	SEGMENT
_this$ = -16						; size = 4
__$EHRec$ = -12						; size = 12
_code$ = 8						; size = 4
_message$ = 12						; size = 4
_data$ = 16						; size = 4
??0Exception@Internal@Core@Math@Palmtree@@IAE@HPB_W0@Z PROC ; Palmtree::Math::Core::Internal::Exception::Exception, COMDAT
; _this$ = ecx

; 54   :         Exception(PMC_STATUS_CODE code, const wchar_t* message, const wchar_t* data) noexcept(true)

  00000	55		 push	 ebp
  00001	8b ec		 mov	 ebp, esp
  00003	6a ff		 push	 -1
  00005	68 00 00 00 00	 push	 __ehhandler$??0Exception@Internal@Core@Math@Palmtree@@IAE@HPB_W0@Z
  0000a	64 a1 00 00 00
	00		 mov	 eax, DWORD PTR fs:0
  00010	50		 push	 eax
  00011	51		 push	 ecx
  00012	c7 45 f0 cc cc
	cc cc		 mov	 DWORD PTR [ebp-16], -858993460 ; ccccccccH
  00019	a1 00 00 00 00	 mov	 eax, DWORD PTR ___security_cookie
  0001e	33 c5		 xor	 eax, ebp
  00020	50		 push	 eax
  00021	8d 45 f4	 lea	 eax, DWORD PTR __$EHRec$[ebp]
  00024	64 a3 00 00 00
	00		 mov	 DWORD PTR fs:0, eax
  0002a	89 4d f0	 mov	 DWORD PTR _this$[ebp], ecx
  0002d	b9 00 00 00 00	 mov	 ecx, OFFSET __802FEEC0_pmc_exception@h
  00032	e8 00 00 00 00	 call	 @__CheckForDebuggerJustMyCode@4
  00037	8b 4d f0	 mov	 ecx, DWORD PTR _this$[ebp]
  0003a	e8 00 00 00 00	 call	 ??0exception@std@@QAE@XZ ; std::exception::exception
  0003f	c7 45 fc 00 00
	00 00		 mov	 DWORD PTR __$EHRec$[ebp+8], 0
  00046	8b 45 f0	 mov	 eax, DWORD PTR _this$[ebp]
  00049	c7 00 00 00 00
	00		 mov	 DWORD PTR [eax], OFFSET ??_7Exception@Internal@Core@Math@Palmtree@@6B@

; 55   :         {
; 56   :             _code = code;

  0004f	8b 4d f0	 mov	 ecx, DWORD PTR _this$[ebp]
  00052	8b 55 08	 mov	 edx, DWORD PTR _code$[ebp]
  00055	89 51 0c	 mov	 DWORD PTR [ecx+12], edx

; 57   :             _message = message;

  00058	8b 45 f0	 mov	 eax, DWORD PTR _this$[ebp]
  0005b	8b 4d 0c	 mov	 ecx, DWORD PTR _message$[ebp]
  0005e	89 48 10	 mov	 DWORD PTR [eax+16], ecx

; 58   :             _data = data;

  00061	8b 55 f0	 mov	 edx, DWORD PTR _this$[ebp]
  00064	8b 45 10	 mov	 eax, DWORD PTR _data$[ebp]
  00067	89 42 14	 mov	 DWORD PTR [edx+20], eax

; 59   :         }

  0006a	c7 45 fc ff ff
	ff ff		 mov	 DWORD PTR __$EHRec$[ebp+8], -1
  00071	8b 45 f0	 mov	 eax, DWORD PTR _this$[ebp]
  00074	8b 4d f4	 mov	 ecx, DWORD PTR __$EHRec$[ebp]
  00077	64 89 0d 00 00
	00 00		 mov	 DWORD PTR fs:0, ecx
  0007e	59		 pop	 ecx
  0007f	83 c4 10	 add	 esp, 16			; 00000010H
  00082	3b ec		 cmp	 ebp, esp
  00084	e8 00 00 00 00	 call	 __RTC_CheckEsp
  00089	8b e5		 mov	 esp, ebp
  0008b	5d		 pop	 ebp
  0008c	c2 0c 00	 ret	 12			; 0000000cH
_TEXT	ENDS
;	COMDAT text$x
text$x	SEGMENT
__unwindfunclet$??0Exception@Internal@Core@Math@Palmtree@@IAE@HPB_W0@Z$0:
  00000	8b 4d f0	 mov	 ecx, DWORD PTR _this$[ebp]
  00003	e9 00 00 00 00	 jmp	 ??1exception@std@@UAE@XZ ; std::exception::~exception
__ehhandler$??0Exception@Internal@Core@Math@Palmtree@@IAE@HPB_W0@Z:
  00008	8b 54 24 08	 mov	 edx, DWORD PTR [esp+8]
  0000c	8d 42 0c	 lea	 eax, DWORD PTR [edx+12]
  0000f	8b 4a f8	 mov	 ecx, DWORD PTR [edx-8]
  00012	33 c8		 xor	 ecx, eax
  00014	e8 00 00 00 00	 call	 @__security_check_cookie@4
  00019	b8 00 00 00 00	 mov	 eax, OFFSET __ehfuncinfo$??0Exception@Internal@Core@Math@Palmtree@@IAE@HPB_W0@Z
  0001e	e9 00 00 00 00	 jmp	 ___CxxFrameHandler3
text$x	ENDS
??0Exception@Internal@Core@Math@Palmtree@@IAE@HPB_W0@Z ENDP ; Palmtree::Math::Core::Internal::Exception::Exception
; Function compile flags: /Odtp /RTCsu
;	COMDAT ??_Gexception@std@@UAEPAXI@Z
_TEXT	SEGMENT
_this$ = -4						; size = 4
___flags$ = 8						; size = 4
??_Gexception@std@@UAEPAXI@Z PROC			; std::exception::`scalar deleting destructor', COMDAT
; _this$ = ecx
  00000	55		 push	 ebp
  00001	8b ec		 mov	 ebp, esp
  00003	51		 push	 ecx
  00004	c7 45 fc cc cc
	cc cc		 mov	 DWORD PTR [ebp-4], -858993460 ; ccccccccH
  0000b	89 4d fc	 mov	 DWORD PTR _this$[ebp], ecx
  0000e	8b 4d fc	 mov	 ecx, DWORD PTR _this$[ebp]
  00011	e8 00 00 00 00	 call	 ??1exception@std@@UAE@XZ ; std::exception::~exception
  00016	8b 45 08	 mov	 eax, DWORD PTR ___flags$[ebp]
  00019	83 e0 01	 and	 eax, 1
  0001c	74 0e		 je	 SHORT $LN2@scalar
  0001e	6a 0c		 push	 12			; 0000000cH
  00020	8b 4d fc	 mov	 ecx, DWORD PTR _this$[ebp]
  00023	51		 push	 ecx
  00024	e8 00 00 00 00	 call	 ??3@YAXPAXI@Z		; operator delete
  00029	83 c4 08	 add	 esp, 8
$LN2@scalar:
  0002c	8b 45 fc	 mov	 eax, DWORD PTR _this$[ebp]
  0002f	83 c4 04	 add	 esp, 4
  00032	3b ec		 cmp	 ebp, esp
  00034	e8 00 00 00 00	 call	 __RTC_CheckEsp
  00039	8b e5		 mov	 esp, ebp
  0003b	5d		 pop	 ebp
  0003c	c2 04 00	 ret	 4
??_Gexception@std@@UAEPAXI@Z ENDP			; std::exception::`scalar deleting destructor'
_TEXT	ENDS
; Function compile flags: /Odtp /RTCsu
; File c:\program files (x86)\microsoft visual studio\2017\community\vc\tools\msvc\14.16.27023\include\vcruntime_exception.h
;	COMDAT ?what@exception@std@@UBEPBDXZ
_TEXT	SEGMENT
tv69 = -8						; size = 4
_this$ = -4						; size = 4
?what@exception@std@@UBEPBDXZ PROC			; std::exception::what, COMDAT
; _this$ = ecx

; 90   :     {

  00000	55		 push	 ebp
  00001	8b ec		 mov	 ebp, esp
  00003	83 ec 08	 sub	 esp, 8
  00006	c7 45 f8 cc cc
	cc cc		 mov	 DWORD PTR [ebp-8], -858993460 ; ccccccccH
  0000d	c7 45 fc cc cc
	cc cc		 mov	 DWORD PTR [ebp-4], -858993460 ; ccccccccH
  00014	89 4d fc	 mov	 DWORD PTR _this$[ebp], ecx
  00017	b9 00 00 00 00	 mov	 ecx, OFFSET __9BB4E194_vcruntime_exception@h
  0001c	e8 00 00 00 00	 call	 @__CheckForDebuggerJustMyCode@4

; 91   :         return _Data._What ? _Data._What : "Unknown exception";

  00021	8b 45 fc	 mov	 eax, DWORD PTR _this$[ebp]
  00024	83 78 04 00	 cmp	 DWORD PTR [eax+4], 0
  00028	74 0b		 je	 SHORT $LN3@what
  0002a	8b 4d fc	 mov	 ecx, DWORD PTR _this$[ebp]
  0002d	8b 51 04	 mov	 edx, DWORD PTR [ecx+4]
  00030	89 55 f8	 mov	 DWORD PTR tv69[ebp], edx
  00033	eb 07		 jmp	 SHORT $LN4@what
$LN3@what:
  00035	c7 45 f8 00 00
	00 00		 mov	 DWORD PTR tv69[ebp], OFFSET ??_C@_0BC@EOODALEL@Unknown?5exception@
$LN4@what:
  0003c	8b 45 f8	 mov	 eax, DWORD PTR tv69[ebp]

; 92   :     }

  0003f	83 c4 08	 add	 esp, 8
  00042	3b ec		 cmp	 ebp, esp
  00044	e8 00 00 00 00	 call	 __RTC_CheckEsp
  00049	8b e5		 mov	 esp, ebp
  0004b	5d		 pop	 ebp
  0004c	c3		 ret	 0
?what@exception@std@@UBEPBDXZ ENDP			; std::exception::what
_TEXT	ENDS
; Function compile flags: /Odtp /RTCsu
; File c:\program files (x86)\microsoft visual studio\2017\community\vc\tools\msvc\14.16.27023\include\vcruntime_exception.h
;	COMDAT ??1exception@std@@UAE@XZ
_TEXT	SEGMENT
_this$ = -16						; size = 4
__$EHRec$ = -12						; size = 12
??1exception@std@@UAE@XZ PROC				; std::exception::~exception, COMDAT
; _this$ = ecx

; 85   :     {

  00000	55		 push	 ebp
  00001	8b ec		 mov	 ebp, esp
  00003	6a ff		 push	 -1
  00005	68 00 00 00 00	 push	 __ehhandler$??1exception@std@@UAE@XZ
  0000a	64 a1 00 00 00
	00		 mov	 eax, DWORD PTR fs:0
  00010	50		 push	 eax
  00011	51		 push	 ecx
  00012	c7 45 f0 cc cc
	cc cc		 mov	 DWORD PTR [ebp-16], -858993460 ; ccccccccH
  00019	a1 00 00 00 00	 mov	 eax, DWORD PTR ___security_cookie
  0001e	33 c5		 xor	 eax, ebp
  00020	50		 push	 eax
  00021	8d 45 f4	 lea	 eax, DWORD PTR __$EHRec$[ebp]
  00024	64 a3 00 00 00
	00		 mov	 DWORD PTR fs:0, eax
  0002a	89 4d f0	 mov	 DWORD PTR _this$[ebp], ecx
  0002d	b9 00 00 00 00	 mov	 ecx, OFFSET __9BB4E194_vcruntime_exception@h
  00032	e8 00 00 00 00	 call	 @__CheckForDebuggerJustMyCode@4
  00037	8b 45 f0	 mov	 eax, DWORD PTR _this$[ebp]
  0003a	c7 00 00 00 00
	00		 mov	 DWORD PTR [eax], OFFSET ??_7exception@std@@6B@

; 86   :         __std_exception_destroy(&_Data);

  00040	8b 4d f0	 mov	 ecx, DWORD PTR _this$[ebp]
  00043	83 c1 04	 add	 ecx, 4
  00046	51		 push	 ecx
  00047	e8 00 00 00 00	 call	 ___std_exception_destroy
  0004c	83 c4 04	 add	 esp, 4

; 87   :     }

  0004f	8b 4d f4	 mov	 ecx, DWORD PTR __$EHRec$[ebp]
  00052	64 89 0d 00 00
	00 00		 mov	 DWORD PTR fs:0, ecx
  00059	59		 pop	 ecx
  0005a	83 c4 10	 add	 esp, 16			; 00000010H
  0005d	3b ec		 cmp	 ebp, esp
  0005f	e8 00 00 00 00	 call	 __RTC_CheckEsp
  00064	8b e5		 mov	 esp, ebp
  00066	5d		 pop	 ebp
  00067	c3		 ret	 0
_TEXT	ENDS
;	COMDAT text$x
text$x	SEGMENT
__ehhandler$??1exception@std@@UAE@XZ:
  00000	8b 54 24 08	 mov	 edx, DWORD PTR [esp+8]
  00004	8d 42 0c	 lea	 eax, DWORD PTR [edx+12]
  00007	8b 4a f8	 mov	 ecx, DWORD PTR [edx-8]
  0000a	33 c8		 xor	 ecx, eax
  0000c	e8 00 00 00 00	 call	 @__security_check_cookie@4
  00011	b8 00 00 00 00	 mov	 eax, OFFSET __ehfuncinfo$??1exception@std@@UAE@XZ
  00016	e9 00 00 00 00	 jmp	 ___CxxFrameHandler3
text$x	ENDS
??1exception@std@@UAE@XZ ENDP				; std::exception::~exception
; Function compile flags: /Odtp /RTCsu
; File c:\program files (x86)\microsoft visual studio\2017\community\vc\tools\msvc\14.16.27023\include\vcruntime_exception.h
;	COMDAT ??0exception@std@@QAE@XZ
_TEXT	SEGMENT
_this$ = -16						; size = 4
__$EHRec$ = -12						; size = 12
??0exception@std@@QAE@XZ PROC				; std::exception::exception, COMDAT
; _this$ = ecx

; 50   :     {

  00000	55		 push	 ebp
  00001	8b ec		 mov	 ebp, esp
  00003	6a ff		 push	 -1
  00005	68 00 00 00 00	 push	 __ehhandler$??0exception@std@@QAE@XZ
  0000a	64 a1 00 00 00
	00		 mov	 eax, DWORD PTR fs:0
  00010	50		 push	 eax
  00011	51		 push	 ecx
  00012	c7 45 f0 cc cc
	cc cc		 mov	 DWORD PTR [ebp-16], -858993460 ; ccccccccH
  00019	a1 00 00 00 00	 mov	 eax, DWORD PTR ___security_cookie
  0001e	33 c5		 xor	 eax, ebp
  00020	50		 push	 eax
  00021	8d 45 f4	 lea	 eax, DWORD PTR __$EHRec$[ebp]
  00024	64 a3 00 00 00
	00		 mov	 DWORD PTR fs:0, eax
  0002a	89 4d f0	 mov	 DWORD PTR _this$[ebp], ecx
  0002d	b9 00 00 00 00	 mov	 ecx, OFFSET __9BB4E194_vcruntime_exception@h
  00032	e8 00 00 00 00	 call	 @__CheckForDebuggerJustMyCode@4
  00037	8b 45 f0	 mov	 eax, DWORD PTR _this$[ebp]
  0003a	c7 00 00 00 00
	00		 mov	 DWORD PTR [eax], OFFSET ??_7exception@std@@6B@

; 49   :         : _Data()

  00040	33 c9		 xor	 ecx, ecx
  00042	8b 55 f0	 mov	 edx, DWORD PTR _this$[ebp]
  00045	83 c2 04	 add	 edx, 4
  00048	89 0a		 mov	 DWORD PTR [edx], ecx
  0004a	89 4a 04	 mov	 DWORD PTR [edx+4], ecx

; 51   :     }

  0004d	8b 45 f0	 mov	 eax, DWORD PTR _this$[ebp]
  00050	8b 4d f4	 mov	 ecx, DWORD PTR __$EHRec$[ebp]
  00053	64 89 0d 00 00
	00 00		 mov	 DWORD PTR fs:0, ecx
  0005a	59		 pop	 ecx
  0005b	83 c4 10	 add	 esp, 16			; 00000010H
  0005e	3b ec		 cmp	 ebp, esp
  00060	e8 00 00 00 00	 call	 __RTC_CheckEsp
  00065	8b e5		 mov	 esp, ebp
  00067	5d		 pop	 ebp
  00068	c3		 ret	 0
_TEXT	ENDS
;	COMDAT text$x
text$x	SEGMENT
__ehhandler$??0exception@std@@QAE@XZ:
  00000	8b 54 24 08	 mov	 edx, DWORD PTR [esp+8]
  00004	8d 42 0c	 lea	 eax, DWORD PTR [edx+12]
  00007	8b 4a f8	 mov	 ecx, DWORD PTR [edx-8]
  0000a	33 c8		 xor	 ecx, eax
  0000c	e8 00 00 00 00	 call	 @__security_check_cookie@4
  00011	b8 00 00 00 00	 mov	 eax, OFFSET __ehfuncinfo$??0exception@std@@QAE@XZ
  00016	e9 00 00 00 00	 jmp	 ___CxxFrameHandler3
text$x	ENDS
??0exception@std@@QAE@XZ ENDP				; std::exception::exception
END
