; Listing generated by Microsoft (R) Optimizing Compiler Version 19.16.27026.1 

	TITLE	Z:\Sources\Lunor\Repos\rougemeilland\Palmtree.Math.Core.Uint\Palmtree.Math.Core.Uint\pmc_subtruct.c
	.686P
	.XMM
	include listing.inc
	.model	flat

INCLUDELIB MSVCRTD
INCLUDELIB OLDNAMES

msvcjmc	SEGMENT
__7B7A869E_ctype@h DB 01H
__457DD326_basetsd@h DB 01H
__4384A2D9_corecrt_memcpy_s@h DB 01H
__4E51A221_corecrt_wstring@h DB 01H
__2140C079_string@h DB 01H
__1887E595_winnt@h DB 01H
__9FC7C64B_processthreadsapi@h DB 01H
__FA470AEC_memoryapi@h DB 01H
__F37DAFF1_winerror@h DB 01H
__7A450CCC_winbase@h DB 01H
__B4B40122_winioctl@h DB 01H
__86261D59_stralign@h DB 01H
__BB6D3116_pmc_uint_internal@h DB 01H
__8CA3E54E_pmc_inline_func@h DB 01H
__E05E7037_autogenerated_inline_func@h DB 01H
__6B07DC87_pmc_subtruct@c DB 01H
msvcjmc	ENDS
PUBLIC	_Subtruct_Imp
PUBLIC	_Initialize_Subtruct
PUBLIC	_PMC_Subtruct_I_X@12
PUBLIC	_PMC_Subtruct_L_X@16
PUBLIC	_PMC_Subtruct_X_I@12
PUBLIC	_PMC_Subtruct_X_L@16
PUBLIC	_PMC_Subtruct_X_X@12
PUBLIC	__JustMyCode_Default
EXTRN	_CheckBlockLight:PROC
EXTRN	_AllocateNumber:PROC
EXTRN	_DeallocateNumber:PROC
EXTRN	_CommitNumber:PROC
EXTRN	_CheckNumber:PROC
EXTRN	_DuplicateNumber:PROC
EXTRN	@_RTC_CheckStackVars@8:PROC
EXTRN	@__CheckForDebuggerJustMyCode@4:PROC
EXTRN	__RTC_CheckEsp:PROC
EXTRN	__RTC_InitBase:PROC
EXTRN	__RTC_Shutdown:PROC
EXTRN	__allshl:PROC
EXTRN	__aullshr:PROC
EXTRN	_number_zero:BYTE
;	COMDAT rtc$TMZ
rtc$TMZ	SEGMENT
__RTC_Shutdown.rtc$TMZ DD FLAT:__RTC_Shutdown
rtc$TMZ	ENDS
;	COMDAT rtc$IMZ
rtc$IMZ	SEGMENT
__RTC_InitBase.rtc$IMZ DD FLAT:__RTC_InitBase
rtc$IMZ	ENDS
; Function compile flags: /Odt
;	COMDAT __JustMyCode_Default
_TEXT	SEGMENT
__JustMyCode_Default PROC				; COMDAT
	push	ebp
	mov	ebp, esp
	pop	ebp
	ret	0
__JustMyCode_Default ENDP
_TEXT	ENDS
; Function compile flags: /Odtp /RTCsu
; File z:\sources\lunor\repos\rougemeilland\palmtree.math.core.uint\palmtree.math.core.uint\pmc_subtruct.c
_TEXT	SEGMENT
tv80 = -20						; size = 4
tv76 = -16						; size = 4
tv71 = -12						; size = 4
tv67 = -8						; size = 4
_c$1 = -1						; size = 1
_up$ = 8						; size = 4
_u_count$ = 12						; size = 4
_v_hi$ = 16						; size = 4
_v_lo$ = 20						; size = 4
_wp$ = 24						; size = 4
_w_count$ = 28						; size = 4
_Subtruct_X_2W PROC

; 98   : {

	push	ebp
	mov	ebp, esp
	sub	esp, 20					; 00000014H
	mov	eax, -858993460				; ccccccccH
	mov	DWORD PTR [ebp-20], eax
	mov	DWORD PTR [ebp-16], eax
	mov	DWORD PTR [ebp-12], eax
	mov	DWORD PTR [ebp-8], eax
	mov	DWORD PTR [ebp-4], eax
	mov	ecx, OFFSET __6B07DC87_pmc_subtruct@c
	call	@__CheckForDebuggerJustMyCode@4

; 99   :     if (u_count < 2)

	cmp	DWORD PTR _u_count$[ebp], 2
	jae	SHORT $LN2@Subtruct_X

; 100  :     {
; 101  :         // u が 1 ワードしかなかった場合
; 102  : 
; 103  :         // 明らかに演算結果が負になるのでエラーを通知する。
; 104  :         return (PMC_STATUS_INTERNAL_BORROW);

	mov	eax, -258				; fffffefeH
	jmp	$LN1@Subtruct_X

; 105  :     }

	jmp	$LN1@Subtruct_X
$LN2@Subtruct_X:

; 106  :     else
; 107  :     {
; 108  :         // x が 2 ワード以上あった場合
; 109  : 
; 110  :         // 最下位のワードの減算をする
; 111  :         char c = _SUBTRUCT_UNIT(0, *up++, v_lo, wp++);

	mov	eax, DWORD PTR _wp$[ebp]
	mov	DWORD PTR tv67[ebp], eax
	mov	ecx, DWORD PTR _wp$[ebp]
	add	ecx, 4
	mov	DWORD PTR _wp$[ebp], ecx
	mov	edx, DWORD PTR _up$[ebp]
	mov	eax, DWORD PTR [edx]
	mov	DWORD PTR tv71[ebp], eax
	mov	ecx, DWORD PTR _up$[ebp]
	add	ecx, 4
	mov	DWORD PTR _up$[ebp], ecx
	mov	edx, DWORD PTR tv67[ebp]
	push	edx
	mov	eax, DWORD PTR _v_lo$[ebp]
	push	eax
	mov	ecx, DWORD PTR tv71[ebp]
	push	ecx
	push	0
	call	__SUBTRUCT_UNIT
	add	esp, 16					; 00000010H
	mov	BYTE PTR _c$1[ebp], al

; 112  : 
; 113  :         // 最下位から 2 番目のワードの減算をする。
; 114  :         c = _SUBTRUCT_UNIT(c, *up++, v_hi, wp++);

	mov	edx, DWORD PTR _wp$[ebp]
	mov	DWORD PTR tv76[ebp], edx
	mov	eax, DWORD PTR _wp$[ebp]
	add	eax, 4
	mov	DWORD PTR _wp$[ebp], eax
	mov	ecx, DWORD PTR _up$[ebp]
	mov	edx, DWORD PTR [ecx]
	mov	DWORD PTR tv80[ebp], edx
	mov	eax, DWORD PTR _up$[ebp]
	add	eax, 4
	mov	DWORD PTR _up$[ebp], eax
	mov	ecx, DWORD PTR tv76[ebp]
	push	ecx
	mov	edx, DWORD PTR _v_hi$[ebp]
	push	edx
	mov	eax, DWORD PTR tv80[ebp]
	push	eax
	movzx	ecx, BYTE PTR _c$1[ebp]
	push	ecx
	call	__SUBTRUCT_UNIT
	add	esp, 16					; 00000010H
	mov	BYTE PTR _c$1[ebp], al

; 115  :         u_count -= 2;

	mov	edx, DWORD PTR _u_count$[ebp]
	sub	edx, 2
	mov	DWORD PTR _u_count$[ebp], edx

; 116  :         w_count -= 2;

	mov	eax, DWORD PTR _w_count$[ebp]
	sub	eax, 2
	mov	DWORD PTR _w_count$[ebp], eax

; 117  : 
; 118  :         // 残りの桁の繰り上がりを計算し、復帰する。
; 119  :         return (DoBorrow(c, up, u_count, wp, w_count));

	mov	ecx, DWORD PTR _w_count$[ebp]
	push	ecx
	mov	edx, DWORD PTR _wp$[ebp]
	push	edx
	mov	eax, DWORD PTR _u_count$[ebp]
	push	eax
	mov	ecx, DWORD PTR _up$[ebp]
	push	ecx
	movzx	edx, BYTE PTR _c$1[ebp]
	push	edx
	call	_DoBorrow
	add	esp, 20					; 00000014H
$LN1@Subtruct_X:

; 120  :     }
; 121  : }

	add	esp, 20					; 00000014H
	cmp	ebp, esp
	call	__RTC_CheckEsp
	mov	esp, ebp
	pop	ebp
	ret	0
_Subtruct_X_2W ENDP
_TEXT	ENDS
; Function compile flags: /Odtp /RTCsu
; File z:\sources\lunor\repos\rougemeilland\palmtree.math.core.uint\palmtree.math.core.uint\pmc_subtruct.c
_TEXT	SEGMENT
tv70 = -12						; size = 4
tv66 = -8						; size = 4
_c$ = -1						; size = 1
_up$ = 8						; size = 4
_u_count$ = 12						; size = 4
_v$ = 16						; size = 4
_wp$ = 20						; size = 4
_w_count$ = 24						; size = 4
_Subtruct_X_1W PROC

; 86   : {

	push	ebp
	mov	ebp, esp
	sub	esp, 12					; 0000000cH
	mov	DWORD PTR [ebp-12], -858993460		; ccccccccH
	mov	DWORD PTR [ebp-8], -858993460		; ccccccccH
	mov	DWORD PTR [ebp-4], -858993460		; ccccccccH
	mov	ecx, OFFSET __6B07DC87_pmc_subtruct@c
	call	@__CheckForDebuggerJustMyCode@4

; 87   :     // 最下桁の減算を行う
; 88   :     char c = _SUBTRUCT_UNIT(0, *up++, v, wp++);

	mov	eax, DWORD PTR _wp$[ebp]
	mov	DWORD PTR tv66[ebp], eax
	mov	ecx, DWORD PTR _wp$[ebp]
	add	ecx, 4
	mov	DWORD PTR _wp$[ebp], ecx
	mov	edx, DWORD PTR _up$[ebp]
	mov	eax, DWORD PTR [edx]
	mov	DWORD PTR tv70[ebp], eax
	mov	ecx, DWORD PTR _up$[ebp]
	add	ecx, 4
	mov	DWORD PTR _up$[ebp], ecx
	mov	edx, DWORD PTR tv66[ebp]
	push	edx
	mov	eax, DWORD PTR _v$[ebp]
	push	eax
	mov	ecx, DWORD PTR tv70[ebp]
	push	ecx
	push	0
	call	__SUBTRUCT_UNIT
	add	esp, 16					; 00000010H
	mov	BYTE PTR _c$[ebp], al

; 89   :     --u_count;

	mov	edx, DWORD PTR _u_count$[ebp]
	sub	edx, 1
	mov	DWORD PTR _u_count$[ebp], edx

; 90   :     --w_count;

	mov	eax, DWORD PTR _w_count$[ebp]
	sub	eax, 1
	mov	DWORD PTR _w_count$[ebp], eax

; 91   : 
; 92   :     // 残りの桁の繰上りを行い復帰する。
; 93   :     return (DoBorrow(c, up, u_count, wp, w_count));

	mov	ecx, DWORD PTR _w_count$[ebp]
	push	ecx
	mov	edx, DWORD PTR _wp$[ebp]
	push	edx
	mov	eax, DWORD PTR _u_count$[ebp]
	push	eax
	mov	ecx, DWORD PTR _up$[ebp]
	push	ecx
	movzx	edx, BYTE PTR _c$[ebp]
	push	edx
	call	_DoBorrow
	add	esp, 20					; 00000014H

; 94   : }

	add	esp, 12					; 0000000cH
	cmp	ebp, esp
	call	__RTC_CheckEsp
	mov	esp, ebp
	pop	ebp
	ret	0
_Subtruct_X_1W ENDP
_TEXT	ENDS
; Function compile flags: /Odtp /RTCsu
; File z:\sources\lunor\repos\rougemeilland\palmtree.math.core.uint\palmtree.math.core.uint\pmc_subtruct.c
_TEXT	SEGMENT
tv75 = -8						; size = 4
tv71 = -4						; size = 4
_c$ = 8							; size = 1
_up$ = 12						; size = 4
_u_count$ = 16						; size = 4
_wp$ = 20						; size = 4
_w_count$ = 24						; size = 4
_DoBorrow PROC

; 40   : {

	push	ebp
	mov	ebp, esp
	sub	esp, 8
	mov	DWORD PTR [ebp-8], -858993460		; ccccccccH
	mov	DWORD PTR [ebp-4], -858993460		; ccccccccH
	mov	ecx, OFFSET __6B07DC87_pmc_subtruct@c
	call	@__CheckForDebuggerJustMyCode@4
$LN4@DoBorrow:

; 41   :     // 桁借りを続く限り行う
; 42   :     for (;;)
; 43   :     {
; 44   :         if (u_count <= 0)

	cmp	DWORD PTR _u_count$[ebp], 0
	ja	SHORT $LN7@DoBorrow

; 45   :         {
; 46   :             // x の最上位まで達してしまった場合
; 47   : 
; 48   :             if (c)

	movsx	eax, BYTE PTR _c$[ebp]
	test	eax, eax
	je	SHORT $LN9@DoBorrow

; 49   :             {
; 50   :                 // かつそれでも桁借りを行う必要がある場合
; 51   : 
; 52   :                 // 減算結果が負になってしまったので呼び出し元に通知する。
; 53   :                 return (PMC_STATUS_INTERNAL_BORROW);

	mov	eax, -258				; fffffefeH
	jmp	$LN1@DoBorrow
$LN9@DoBorrow:

; 54   :             }
; 55   : 
; 56   :             // xの最上位に達してしまった場合はいずれにしろループを中断して正常復帰する。
; 57   : 
; 58   :             return (PMC_STATUS_OK);

	xor	eax, eax
	jmp	$LN1@DoBorrow

; 59   :         }

	jmp	$LN8@DoBorrow
$LN7@DoBorrow:

; 60   :         else if (c)

	movsx	ecx, BYTE PTR _c$[ebp]
	test	ecx, ecx
	je	SHORT $LN5@DoBorrow

; 61   :         {
; 62   :             // xの最上位に達しておらず、かつボローが立っている場合
; 63   : 
; 64   :             // 桁借りを継続する
; 65   :             c = _SUBTRUCT_UNIT(c, *up++, 0, wp++);

	mov	edx, DWORD PTR _wp$[ebp]
	mov	DWORD PTR tv71[ebp], edx
	mov	eax, DWORD PTR _wp$[ebp]
	add	eax, 4
	mov	DWORD PTR _wp$[ebp], eax
	mov	ecx, DWORD PTR _up$[ebp]
	mov	edx, DWORD PTR [ecx]
	mov	DWORD PTR tv75[ebp], edx
	mov	eax, DWORD PTR _up$[ebp]
	add	eax, 4
	mov	DWORD PTR _up$[ebp], eax
	mov	ecx, DWORD PTR tv71[ebp]
	push	ecx
	push	0
	mov	edx, DWORD PTR tv75[ebp]
	push	edx
	movzx	eax, BYTE PTR _c$[ebp]
	push	eax
	call	__SUBTRUCT_UNIT
	add	esp, 16					; 00000010H
	mov	BYTE PTR _c$[ebp], al

; 66   :             --u_count;

	mov	ecx, DWORD PTR _u_count$[ebp]
	sub	ecx, 1
	mov	DWORD PTR _u_count$[ebp], ecx

; 67   :             --w_count;

	mov	edx, DWORD PTR _w_count$[ebp]
	sub	edx, 1
	mov	DWORD PTR _w_count$[ebp], edx

; 68   :         }

	jmp	SHORT $LN8@DoBorrow
$LN5@DoBorrow:

; 69   :         else
; 70   :         {
; 71   :             // xの最上位に達しておらず、かつボローが立っていない場合
; 72   : 
; 73   :             // 桁借りを中断し、xの残りのデータをzにそのまま複写し、正常復帰する。
; 74   :             while (u_count > 0)

	cmp	DWORD PTR _u_count$[ebp], 0
	jbe	SHORT $LN6@DoBorrow

; 75   :             {
; 76   :                 *wp++ = *up++;

	mov	eax, DWORD PTR _wp$[ebp]
	mov	ecx, DWORD PTR _up$[ebp]
	mov	edx, DWORD PTR [ecx]
	mov	DWORD PTR [eax], edx
	mov	eax, DWORD PTR _wp$[ebp]
	add	eax, 4
	mov	DWORD PTR _wp$[ebp], eax
	mov	ecx, DWORD PTR _up$[ebp]
	add	ecx, 4
	mov	DWORD PTR _up$[ebp], ecx

; 77   :                 --u_count;

	mov	edx, DWORD PTR _u_count$[ebp]
	sub	edx, 1
	mov	DWORD PTR _u_count$[ebp], edx

; 78   :                 --w_count;

	mov	eax, DWORD PTR _w_count$[ebp]
	sub	eax, 1
	mov	DWORD PTR _w_count$[ebp], eax

; 79   :             }

	jmp	SHORT $LN5@DoBorrow
$LN6@DoBorrow:

; 80   :             return (PMC_STATUS_OK);

	xor	eax, eax
	jmp	SHORT $LN1@DoBorrow
$LN8@DoBorrow:

; 81   :         }
; 82   :     }

	jmp	$LN4@DoBorrow
$LN1@DoBorrow:

; 83   : }

	add	esp, 8
	cmp	ebp, esp
	call	__RTC_CheckEsp
	mov	esp, ebp
	pop	ebp
	ret	0
_DoBorrow ENDP
_TEXT	ENDS
; Function compile flags: /Odtp /RTCsu
; File z:\sources\lunor\repos\rougemeilland\palmtree.math.core.uint\palmtree.math.core.uint\autogenerated_inline_func.h
_TEXT	SEGMENT
_c$ = 8							; size = 1
_xp$ = 12						; size = 4
_yp$ = 16						; size = 4
_zp$ = 20						; size = 4
__SUBTRUCT_2WORDS_SBB PROC

; 4464 : {

	push	ebp
	mov	ebp, esp
	mov	ecx, OFFSET __E05E7037_autogenerated_inline_func@h
	call	@__CheckForDebuggerJustMyCode@4

; 4465 : #ifdef _MSC_VER
; 4466 :     c = _SUBTRUCT_UNIT(c, xp[0], yp[0], &zp[0]);

	mov	eax, 4
	imul	ecx, eax, 0
	add	ecx, DWORD PTR _zp$[ebp]
	push	ecx
	mov	edx, 4
	imul	eax, edx, 0
	mov	ecx, DWORD PTR _yp$[ebp]
	mov	edx, DWORD PTR [ecx+eax]
	push	edx
	mov	eax, 4
	imul	ecx, eax, 0
	mov	edx, DWORD PTR _xp$[ebp]
	mov	eax, DWORD PTR [edx+ecx]
	push	eax
	movzx	ecx, BYTE PTR _c$[ebp]
	push	ecx
	call	__SUBTRUCT_UNIT
	add	esp, 16					; 00000010H
	mov	BYTE PTR _c$[ebp], al

; 4467 :     c = _SUBTRUCT_UNIT(c, xp[1], yp[1], &zp[1]);

	mov	edx, 4
	shl	edx, 0
	add	edx, DWORD PTR _zp$[ebp]
	push	edx
	mov	eax, 4
	shl	eax, 0
	mov	ecx, DWORD PTR _yp$[ebp]
	mov	edx, DWORD PTR [ecx+eax]
	push	edx
	mov	eax, 4
	shl	eax, 0
	mov	ecx, DWORD PTR _xp$[ebp]
	mov	edx, DWORD PTR [ecx+eax]
	push	edx
	movzx	eax, BYTE PTR _c$[ebp]
	push	eax
	call	__SUBTRUCT_UNIT
	add	esp, 16					; 00000010H
	mov	BYTE PTR _c$[ebp], al

; 4468 : #elif defined(__GNUC__)
; 4469 : #ifdef _M_IX86
; 4470 :     __asm__ volatile (
; 4471 :         "addb\t$-1, %0\n\t"
; 4472 :         "movl\t(%1), %%ecx\n\t"
; 4473 :         "sbbl\t(%2), %%ecx\n\t"
; 4474 :         "movl\t%%ecx, (%3)\n\t"
; 4475 :         "movl\t4(%1), %%ecx\n\t"
; 4476 :         "sbbl\t4(%2), %%ecx\n\t"
; 4477 :         "movl\t%%ecx, 4(%3)\n\t"
; 4478 :         "setc\t%0"
; 4479 :         : "+r"(c), "+r"(xp), "+r"(yp), "+r"(zp)
; 4480 :         :
; 4481 :         : "cc", "memory", "%ecx"
; 4482 : );
; 4483 : #elif defined(_M_IX64)
; 4484 :     __asm__ volatile (
; 4485 :         "addb\t$-1, %0\n\t"
; 4486 :         "movq\t(%1), %%rcx\n\t"
; 4487 :         "sbbq\t(%2), %%rcx\n\t"
; 4488 :         "movq\t%%rcx, (%3)\n\t"
; 4489 :         "movq\t8(%1), %%rcx\n\t"
; 4490 :         "sbbq\t8(%2), %%rcx\n\t"
; 4491 :         "movq\t%%rcx, 8(%3)\n\t"
; 4492 :         "setc\t%0"
; 4493 :         : "+r"(c), "+r"(xp), "+r"(yp), "+r"(zp)
; 4494 :         :
; 4495 :         : "cc", "memory", "%rcx"
; 4496 : );
; 4497 : #else
; 4498 : #error unknown platform
; 4499 : #endif
; 4500 : #else
; 4501 : #error unknown compiler
; 4502 : #endif
; 4503 :     return (c);

	mov	al, BYTE PTR _c$[ebp]

; 4504 : }

	cmp	ebp, esp
	call	__RTC_CheckEsp
	pop	ebp
	ret	0
__SUBTRUCT_2WORDS_SBB ENDP
_TEXT	ENDS
; Function compile flags: /Odtp /RTCsu
; File z:\sources\lunor\repos\rougemeilland\palmtree.math.core.uint\palmtree.math.core.uint\autogenerated_inline_func.h
_TEXT	SEGMENT
_c$ = 8							; size = 1
_xp$ = 12						; size = 4
_yp$ = 16						; size = 4
_zp$ = 20						; size = 4
__SUBTRUCT_4WORDS_SBB PROC

; 4050 : {

	push	ebp
	mov	ebp, esp
	mov	ecx, OFFSET __E05E7037_autogenerated_inline_func@h
	call	@__CheckForDebuggerJustMyCode@4

; 4051 : #ifdef _MSC_VER
; 4052 :     c = _SUBTRUCT_UNIT(c, xp[0], yp[0], &zp[0]);

	mov	eax, 4
	imul	ecx, eax, 0
	add	ecx, DWORD PTR _zp$[ebp]
	push	ecx
	mov	edx, 4
	imul	eax, edx, 0
	mov	ecx, DWORD PTR _yp$[ebp]
	mov	edx, DWORD PTR [ecx+eax]
	push	edx
	mov	eax, 4
	imul	ecx, eax, 0
	mov	edx, DWORD PTR _xp$[ebp]
	mov	eax, DWORD PTR [edx+ecx]
	push	eax
	movzx	ecx, BYTE PTR _c$[ebp]
	push	ecx
	call	__SUBTRUCT_UNIT
	add	esp, 16					; 00000010H
	mov	BYTE PTR _c$[ebp], al

; 4053 :     c = _SUBTRUCT_UNIT(c, xp[1], yp[1], &zp[1]);

	mov	edx, 4
	shl	edx, 0
	add	edx, DWORD PTR _zp$[ebp]
	push	edx
	mov	eax, 4
	shl	eax, 0
	mov	ecx, DWORD PTR _yp$[ebp]
	mov	edx, DWORD PTR [ecx+eax]
	push	edx
	mov	eax, 4
	shl	eax, 0
	mov	ecx, DWORD PTR _xp$[ebp]
	mov	edx, DWORD PTR [ecx+eax]
	push	edx
	movzx	eax, BYTE PTR _c$[ebp]
	push	eax
	call	__SUBTRUCT_UNIT
	add	esp, 16					; 00000010H
	mov	BYTE PTR _c$[ebp], al

; 4054 :     c = _SUBTRUCT_UNIT(c, xp[2], yp[2], &zp[2]);

	mov	ecx, 4
	shl	ecx, 1
	add	ecx, DWORD PTR _zp$[ebp]
	push	ecx
	mov	edx, 4
	shl	edx, 1
	mov	eax, DWORD PTR _yp$[ebp]
	mov	ecx, DWORD PTR [eax+edx]
	push	ecx
	mov	edx, 4
	shl	edx, 1
	mov	eax, DWORD PTR _xp$[ebp]
	mov	ecx, DWORD PTR [eax+edx]
	push	ecx
	movzx	edx, BYTE PTR _c$[ebp]
	push	edx
	call	__SUBTRUCT_UNIT
	add	esp, 16					; 00000010H
	mov	BYTE PTR _c$[ebp], al

; 4055 :     c = _SUBTRUCT_UNIT(c, xp[3], yp[3], &zp[3]);

	mov	eax, 4
	imul	ecx, eax, 3
	add	ecx, DWORD PTR _zp$[ebp]
	push	ecx
	mov	edx, 4
	imul	eax, edx, 3
	mov	ecx, DWORD PTR _yp$[ebp]
	mov	edx, DWORD PTR [ecx+eax]
	push	edx
	mov	eax, 4
	imul	ecx, eax, 3
	mov	edx, DWORD PTR _xp$[ebp]
	mov	eax, DWORD PTR [edx+ecx]
	push	eax
	movzx	ecx, BYTE PTR _c$[ebp]
	push	ecx
	call	__SUBTRUCT_UNIT
	add	esp, 16					; 00000010H
	mov	BYTE PTR _c$[ebp], al

; 4056 : #elif defined(__GNUC__)
; 4057 : #ifdef _M_IX86
; 4058 :     __asm__ volatile (
; 4059 :         "addb\t$-1, %0\n\t"
; 4060 :         "movl\t(%1), %%ecx\n\t"
; 4061 :         "sbbl\t(%2), %%ecx\n\t"
; 4062 :         "movl\t%%ecx, (%3)\n\t"
; 4063 :         "movl\t4(%1), %%ecx\n\t"
; 4064 :         "sbbl\t4(%2), %%ecx\n\t"
; 4065 :         "movl\t%%ecx, 4(%3)\n\t"
; 4066 :         "movl\t8(%1), %%ecx\n\t"
; 4067 :         "sbbl\t8(%2), %%ecx\n\t"
; 4068 :         "movl\t%%ecx, 8(%3)\n\t"
; 4069 :         "movl\t12(%1), %%ecx\n\t"
; 4070 :         "sbbl\t12(%2), %%ecx\n\t"
; 4071 :         "movl\t%%ecx, 12(%3)\n\t"
; 4072 :         "setc\t%0"
; 4073 :         : "+r"(c), "+r"(xp), "+r"(yp), "+r"(zp)
; 4074 :         :
; 4075 :         : "cc", "memory", "%ecx"
; 4076 : );
; 4077 : #elif defined(_M_IX64)
; 4078 :     __asm__ volatile (
; 4079 :         "addb\t$-1, %0\n\t"
; 4080 :         "movq\t(%1), %%rcx\n\t"
; 4081 :         "sbbq\t(%2), %%rcx\n\t"
; 4082 :         "movq\t%%rcx, (%3)\n\t"
; 4083 :         "movq\t8(%1), %%rcx\n\t"
; 4084 :         "sbbq\t8(%2), %%rcx\n\t"
; 4085 :         "movq\t%%rcx, 8(%3)\n\t"
; 4086 :         "movq\t16(%1), %%rcx\n\t"
; 4087 :         "sbbq\t16(%2), %%rcx\n\t"
; 4088 :         "movq\t%%rcx, 16(%3)\n\t"
; 4089 :         "movq\t24(%1), %%rcx\n\t"
; 4090 :         "sbbq\t24(%2), %%rcx\n\t"
; 4091 :         "movq\t%%rcx, 24(%3)\n\t"
; 4092 :         "setc\t%0"
; 4093 :         : "+r"(c), "+r"(xp), "+r"(yp), "+r"(zp)
; 4094 :         :
; 4095 :         : "cc", "memory", "%rcx"
; 4096 : );
; 4097 : #else
; 4098 : #error unknown platform
; 4099 : #endif
; 4100 : #else
; 4101 : #error unknown compiler
; 4102 : #endif
; 4103 :     return (c);

	mov	al, BYTE PTR _c$[ebp]

; 4104 : }

	cmp	ebp, esp
	call	__RTC_CheckEsp
	pop	ebp
	ret	0
__SUBTRUCT_4WORDS_SBB ENDP
_TEXT	ENDS
; Function compile flags: /Odtp /RTCsu
; File z:\sources\lunor\repos\rougemeilland\palmtree.math.core.uint\palmtree.math.core.uint\autogenerated_inline_func.h
_TEXT	SEGMENT
_c$ = 8							; size = 1
_xp$ = 12						; size = 4
_yp$ = 16						; size = 4
_zp$ = 20						; size = 4
__SUBTRUCT_8WORDS_SBB PROC

; 3454 : {

	push	ebp
	mov	ebp, esp
	mov	ecx, OFFSET __E05E7037_autogenerated_inline_func@h
	call	@__CheckForDebuggerJustMyCode@4

; 3455 : #ifdef _MSC_VER
; 3456 :     c = _SUBTRUCT_UNIT(c, xp[0], yp[0], &zp[0]);

	mov	eax, 4
	imul	ecx, eax, 0
	add	ecx, DWORD PTR _zp$[ebp]
	push	ecx
	mov	edx, 4
	imul	eax, edx, 0
	mov	ecx, DWORD PTR _yp$[ebp]
	mov	edx, DWORD PTR [ecx+eax]
	push	edx
	mov	eax, 4
	imul	ecx, eax, 0
	mov	edx, DWORD PTR _xp$[ebp]
	mov	eax, DWORD PTR [edx+ecx]
	push	eax
	movzx	ecx, BYTE PTR _c$[ebp]
	push	ecx
	call	__SUBTRUCT_UNIT
	add	esp, 16					; 00000010H
	mov	BYTE PTR _c$[ebp], al

; 3457 :     c = _SUBTRUCT_UNIT(c, xp[1], yp[1], &zp[1]);

	mov	edx, 4
	shl	edx, 0
	add	edx, DWORD PTR _zp$[ebp]
	push	edx
	mov	eax, 4
	shl	eax, 0
	mov	ecx, DWORD PTR _yp$[ebp]
	mov	edx, DWORD PTR [ecx+eax]
	push	edx
	mov	eax, 4
	shl	eax, 0
	mov	ecx, DWORD PTR _xp$[ebp]
	mov	edx, DWORD PTR [ecx+eax]
	push	edx
	movzx	eax, BYTE PTR _c$[ebp]
	push	eax
	call	__SUBTRUCT_UNIT
	add	esp, 16					; 00000010H
	mov	BYTE PTR _c$[ebp], al

; 3458 :     c = _SUBTRUCT_UNIT(c, xp[2], yp[2], &zp[2]);

	mov	ecx, 4
	shl	ecx, 1
	add	ecx, DWORD PTR _zp$[ebp]
	push	ecx
	mov	edx, 4
	shl	edx, 1
	mov	eax, DWORD PTR _yp$[ebp]
	mov	ecx, DWORD PTR [eax+edx]
	push	ecx
	mov	edx, 4
	shl	edx, 1
	mov	eax, DWORD PTR _xp$[ebp]
	mov	ecx, DWORD PTR [eax+edx]
	push	ecx
	movzx	edx, BYTE PTR _c$[ebp]
	push	edx
	call	__SUBTRUCT_UNIT
	add	esp, 16					; 00000010H
	mov	BYTE PTR _c$[ebp], al

; 3459 :     c = _SUBTRUCT_UNIT(c, xp[3], yp[3], &zp[3]);

	mov	eax, 4
	imul	ecx, eax, 3
	add	ecx, DWORD PTR _zp$[ebp]
	push	ecx
	mov	edx, 4
	imul	eax, edx, 3
	mov	ecx, DWORD PTR _yp$[ebp]
	mov	edx, DWORD PTR [ecx+eax]
	push	edx
	mov	eax, 4
	imul	ecx, eax, 3
	mov	edx, DWORD PTR _xp$[ebp]
	mov	eax, DWORD PTR [edx+ecx]
	push	eax
	movzx	ecx, BYTE PTR _c$[ebp]
	push	ecx
	call	__SUBTRUCT_UNIT
	add	esp, 16					; 00000010H
	mov	BYTE PTR _c$[ebp], al

; 3460 :     c = _SUBTRUCT_UNIT(c, xp[4], yp[4], &zp[4]);

	mov	edx, 4
	shl	edx, 2
	add	edx, DWORD PTR _zp$[ebp]
	push	edx
	mov	eax, 4
	shl	eax, 2
	mov	ecx, DWORD PTR _yp$[ebp]
	mov	edx, DWORD PTR [ecx+eax]
	push	edx
	mov	eax, 4
	shl	eax, 2
	mov	ecx, DWORD PTR _xp$[ebp]
	mov	edx, DWORD PTR [ecx+eax]
	push	edx
	movzx	eax, BYTE PTR _c$[ebp]
	push	eax
	call	__SUBTRUCT_UNIT
	add	esp, 16					; 00000010H
	mov	BYTE PTR _c$[ebp], al

; 3461 :     c = _SUBTRUCT_UNIT(c, xp[5], yp[5], &zp[5]);

	mov	ecx, 4
	imul	edx, ecx, 5
	add	edx, DWORD PTR _zp$[ebp]
	push	edx
	mov	eax, 4
	imul	ecx, eax, 5
	mov	edx, DWORD PTR _yp$[ebp]
	mov	eax, DWORD PTR [edx+ecx]
	push	eax
	mov	ecx, 4
	imul	edx, ecx, 5
	mov	eax, DWORD PTR _xp$[ebp]
	mov	ecx, DWORD PTR [eax+edx]
	push	ecx
	movzx	edx, BYTE PTR _c$[ebp]
	push	edx
	call	__SUBTRUCT_UNIT
	add	esp, 16					; 00000010H
	mov	BYTE PTR _c$[ebp], al

; 3462 :     c = _SUBTRUCT_UNIT(c, xp[6], yp[6], &zp[6]);

	mov	eax, 4
	imul	ecx, eax, 6
	add	ecx, DWORD PTR _zp$[ebp]
	push	ecx
	mov	edx, 4
	imul	eax, edx, 6
	mov	ecx, DWORD PTR _yp$[ebp]
	mov	edx, DWORD PTR [ecx+eax]
	push	edx
	mov	eax, 4
	imul	ecx, eax, 6
	mov	edx, DWORD PTR _xp$[ebp]
	mov	eax, DWORD PTR [edx+ecx]
	push	eax
	movzx	ecx, BYTE PTR _c$[ebp]
	push	ecx
	call	__SUBTRUCT_UNIT
	add	esp, 16					; 00000010H
	mov	BYTE PTR _c$[ebp], al

; 3463 :     c = _SUBTRUCT_UNIT(c, xp[7], yp[7], &zp[7]);

	mov	edx, 4
	imul	eax, edx, 7
	add	eax, DWORD PTR _zp$[ebp]
	push	eax
	mov	ecx, 4
	imul	edx, ecx, 7
	mov	eax, DWORD PTR _yp$[ebp]
	mov	ecx, DWORD PTR [eax+edx]
	push	ecx
	mov	edx, 4
	imul	eax, edx, 7
	mov	ecx, DWORD PTR _xp$[ebp]
	mov	edx, DWORD PTR [ecx+eax]
	push	edx
	movzx	eax, BYTE PTR _c$[ebp]
	push	eax
	call	__SUBTRUCT_UNIT
	add	esp, 16					; 00000010H
	mov	BYTE PTR _c$[ebp], al

; 3464 : #elif defined(__GNUC__)
; 3465 : #ifdef _M_IX86
; 3466 :     __asm__ volatile (
; 3467 :         "addb\t$-1, %0\n\t"
; 3468 :         "movl\t(%1), %%ecx\n\t"
; 3469 :         "sbbl\t(%2), %%ecx\n\t"
; 3470 :         "movl\t%%ecx, (%3)\n\t"
; 3471 :         "movl\t4(%1), %%ecx\n\t"
; 3472 :         "sbbl\t4(%2), %%ecx\n\t"
; 3473 :         "movl\t%%ecx, 4(%3)\n\t"
; 3474 :         "movl\t8(%1), %%ecx\n\t"
; 3475 :         "sbbl\t8(%2), %%ecx\n\t"
; 3476 :         "movl\t%%ecx, 8(%3)\n\t"
; 3477 :         "movl\t12(%1), %%ecx\n\t"
; 3478 :         "sbbl\t12(%2), %%ecx\n\t"
; 3479 :         "movl\t%%ecx, 12(%3)\n\t"
; 3480 :         "movl\t16(%1), %%ecx\n\t"
; 3481 :         "sbbl\t16(%2), %%ecx\n\t"
; 3482 :         "movl\t%%ecx, 16(%3)\n\t"
; 3483 :         "movl\t20(%1), %%ecx\n\t"
; 3484 :         "sbbl\t20(%2), %%ecx\n\t"
; 3485 :         "movl\t%%ecx, 20(%3)\n\t"
; 3486 :         "movl\t24(%1), %%ecx\n\t"
; 3487 :         "sbbl\t24(%2), %%ecx\n\t"
; 3488 :         "movl\t%%ecx, 24(%3)\n\t"
; 3489 :         "movl\t28(%1), %%ecx\n\t"
; 3490 :         "sbbl\t28(%2), %%ecx\n\t"
; 3491 :         "movl\t%%ecx, 28(%3)\n\t"
; 3492 :         "setc\t%0"
; 3493 :         : "+r"(c), "+r"(xp), "+r"(yp), "+r"(zp)
; 3494 :         :
; 3495 :         : "cc", "memory", "%ecx"
; 3496 : );
; 3497 : #elif defined(_M_IX64)
; 3498 :     __asm__ volatile (
; 3499 :         "addb\t$-1, %0\n\t"
; 3500 :         "movq\t(%1), %%rcx\n\t"
; 3501 :         "sbbq\t(%2), %%rcx\n\t"
; 3502 :         "movq\t%%rcx, (%3)\n\t"
; 3503 :         "movq\t8(%1), %%rcx\n\t"
; 3504 :         "sbbq\t8(%2), %%rcx\n\t"
; 3505 :         "movq\t%%rcx, 8(%3)\n\t"
; 3506 :         "movq\t16(%1), %%rcx\n\t"
; 3507 :         "sbbq\t16(%2), %%rcx\n\t"
; 3508 :         "movq\t%%rcx, 16(%3)\n\t"
; 3509 :         "movq\t24(%1), %%rcx\n\t"
; 3510 :         "sbbq\t24(%2), %%rcx\n\t"
; 3511 :         "movq\t%%rcx, 24(%3)\n\t"
; 3512 :         "movq\t32(%1), %%rcx\n\t"
; 3513 :         "sbbq\t32(%2), %%rcx\n\t"
; 3514 :         "movq\t%%rcx, 32(%3)\n\t"
; 3515 :         "movq\t40(%1), %%rcx\n\t"
; 3516 :         "sbbq\t40(%2), %%rcx\n\t"
; 3517 :         "movq\t%%rcx, 40(%3)\n\t"
; 3518 :         "movq\t48(%1), %%rcx\n\t"
; 3519 :         "sbbq\t48(%2), %%rcx\n\t"
; 3520 :         "movq\t%%rcx, 48(%3)\n\t"
; 3521 :         "movq\t56(%1), %%rcx\n\t"
; 3522 :         "sbbq\t56(%2), %%rcx\n\t"
; 3523 :         "movq\t%%rcx, 56(%3)\n\t"
; 3524 :         "setc\t%0"
; 3525 :         : "+r"(c), "+r"(xp), "+r"(yp), "+r"(zp)
; 3526 :         :
; 3527 :         : "cc", "memory", "%rcx"
; 3528 : );
; 3529 : #else
; 3530 : #error unknown platform
; 3531 : #endif
; 3532 : #else
; 3533 : #error unknown compiler
; 3534 : #endif
; 3535 :     return (c);

	mov	al, BYTE PTR _c$[ebp]

; 3536 : }

	cmp	ebp, esp
	call	__RTC_CheckEsp
	pop	ebp
	ret	0
__SUBTRUCT_8WORDS_SBB ENDP
_TEXT	ENDS
; Function compile flags: /Odtp /RTCsu
; File z:\sources\lunor\repos\rougemeilland\palmtree.math.core.uint\palmtree.math.core.uint\autogenerated_inline_func.h
_TEXT	SEGMENT
_c$ = 8							; size = 1
_xp$ = 12						; size = 4
_yp$ = 16						; size = 4
_zp$ = 20						; size = 4
__SUBTRUCT_16WORDS_SBB PROC

; 2494 : {

	push	ebp
	mov	ebp, esp
	mov	ecx, OFFSET __E05E7037_autogenerated_inline_func@h
	call	@__CheckForDebuggerJustMyCode@4

; 2495 : #ifdef _MSC_VER
; 2496 :     c = _SUBTRUCT_UNIT(c, xp[0], yp[0], &zp[0]);

	mov	eax, 4
	imul	ecx, eax, 0
	add	ecx, DWORD PTR _zp$[ebp]
	push	ecx
	mov	edx, 4
	imul	eax, edx, 0
	mov	ecx, DWORD PTR _yp$[ebp]
	mov	edx, DWORD PTR [ecx+eax]
	push	edx
	mov	eax, 4
	imul	ecx, eax, 0
	mov	edx, DWORD PTR _xp$[ebp]
	mov	eax, DWORD PTR [edx+ecx]
	push	eax
	movzx	ecx, BYTE PTR _c$[ebp]
	push	ecx
	call	__SUBTRUCT_UNIT
	add	esp, 16					; 00000010H
	mov	BYTE PTR _c$[ebp], al

; 2497 :     c = _SUBTRUCT_UNIT(c, xp[1], yp[1], &zp[1]);

	mov	edx, 4
	shl	edx, 0
	add	edx, DWORD PTR _zp$[ebp]
	push	edx
	mov	eax, 4
	shl	eax, 0
	mov	ecx, DWORD PTR _yp$[ebp]
	mov	edx, DWORD PTR [ecx+eax]
	push	edx
	mov	eax, 4
	shl	eax, 0
	mov	ecx, DWORD PTR _xp$[ebp]
	mov	edx, DWORD PTR [ecx+eax]
	push	edx
	movzx	eax, BYTE PTR _c$[ebp]
	push	eax
	call	__SUBTRUCT_UNIT
	add	esp, 16					; 00000010H
	mov	BYTE PTR _c$[ebp], al

; 2498 :     c = _SUBTRUCT_UNIT(c, xp[2], yp[2], &zp[2]);

	mov	ecx, 4
	shl	ecx, 1
	add	ecx, DWORD PTR _zp$[ebp]
	push	ecx
	mov	edx, 4
	shl	edx, 1
	mov	eax, DWORD PTR _yp$[ebp]
	mov	ecx, DWORD PTR [eax+edx]
	push	ecx
	mov	edx, 4
	shl	edx, 1
	mov	eax, DWORD PTR _xp$[ebp]
	mov	ecx, DWORD PTR [eax+edx]
	push	ecx
	movzx	edx, BYTE PTR _c$[ebp]
	push	edx
	call	__SUBTRUCT_UNIT
	add	esp, 16					; 00000010H
	mov	BYTE PTR _c$[ebp], al

; 2499 :     c = _SUBTRUCT_UNIT(c, xp[3], yp[3], &zp[3]);

	mov	eax, 4
	imul	ecx, eax, 3
	add	ecx, DWORD PTR _zp$[ebp]
	push	ecx
	mov	edx, 4
	imul	eax, edx, 3
	mov	ecx, DWORD PTR _yp$[ebp]
	mov	edx, DWORD PTR [ecx+eax]
	push	edx
	mov	eax, 4
	imul	ecx, eax, 3
	mov	edx, DWORD PTR _xp$[ebp]
	mov	eax, DWORD PTR [edx+ecx]
	push	eax
	movzx	ecx, BYTE PTR _c$[ebp]
	push	ecx
	call	__SUBTRUCT_UNIT
	add	esp, 16					; 00000010H
	mov	BYTE PTR _c$[ebp], al

; 2500 :     c = _SUBTRUCT_UNIT(c, xp[4], yp[4], &zp[4]);

	mov	edx, 4
	shl	edx, 2
	add	edx, DWORD PTR _zp$[ebp]
	push	edx
	mov	eax, 4
	shl	eax, 2
	mov	ecx, DWORD PTR _yp$[ebp]
	mov	edx, DWORD PTR [ecx+eax]
	push	edx
	mov	eax, 4
	shl	eax, 2
	mov	ecx, DWORD PTR _xp$[ebp]
	mov	edx, DWORD PTR [ecx+eax]
	push	edx
	movzx	eax, BYTE PTR _c$[ebp]
	push	eax
	call	__SUBTRUCT_UNIT
	add	esp, 16					; 00000010H
	mov	BYTE PTR _c$[ebp], al

; 2501 :     c = _SUBTRUCT_UNIT(c, xp[5], yp[5], &zp[5]);

	mov	ecx, 4
	imul	edx, ecx, 5
	add	edx, DWORD PTR _zp$[ebp]
	push	edx
	mov	eax, 4
	imul	ecx, eax, 5
	mov	edx, DWORD PTR _yp$[ebp]
	mov	eax, DWORD PTR [edx+ecx]
	push	eax
	mov	ecx, 4
	imul	edx, ecx, 5
	mov	eax, DWORD PTR _xp$[ebp]
	mov	ecx, DWORD PTR [eax+edx]
	push	ecx
	movzx	edx, BYTE PTR _c$[ebp]
	push	edx
	call	__SUBTRUCT_UNIT
	add	esp, 16					; 00000010H
	mov	BYTE PTR _c$[ebp], al

; 2502 :     c = _SUBTRUCT_UNIT(c, xp[6], yp[6], &zp[6]);

	mov	eax, 4
	imul	ecx, eax, 6
	add	ecx, DWORD PTR _zp$[ebp]
	push	ecx
	mov	edx, 4
	imul	eax, edx, 6
	mov	ecx, DWORD PTR _yp$[ebp]
	mov	edx, DWORD PTR [ecx+eax]
	push	edx
	mov	eax, 4
	imul	ecx, eax, 6
	mov	edx, DWORD PTR _xp$[ebp]
	mov	eax, DWORD PTR [edx+ecx]
	push	eax
	movzx	ecx, BYTE PTR _c$[ebp]
	push	ecx
	call	__SUBTRUCT_UNIT
	add	esp, 16					; 00000010H
	mov	BYTE PTR _c$[ebp], al

; 2503 :     c = _SUBTRUCT_UNIT(c, xp[7], yp[7], &zp[7]);

	mov	edx, 4
	imul	eax, edx, 7
	add	eax, DWORD PTR _zp$[ebp]
	push	eax
	mov	ecx, 4
	imul	edx, ecx, 7
	mov	eax, DWORD PTR _yp$[ebp]
	mov	ecx, DWORD PTR [eax+edx]
	push	ecx
	mov	edx, 4
	imul	eax, edx, 7
	mov	ecx, DWORD PTR _xp$[ebp]
	mov	edx, DWORD PTR [ecx+eax]
	push	edx
	movzx	eax, BYTE PTR _c$[ebp]
	push	eax
	call	__SUBTRUCT_UNIT
	add	esp, 16					; 00000010H
	mov	BYTE PTR _c$[ebp], al

; 2504 :     c = _SUBTRUCT_UNIT(c, xp[8], yp[8], &zp[8]);

	mov	ecx, 4
	shl	ecx, 3
	add	ecx, DWORD PTR _zp$[ebp]
	push	ecx
	mov	edx, 4
	shl	edx, 3
	mov	eax, DWORD PTR _yp$[ebp]
	mov	ecx, DWORD PTR [eax+edx]
	push	ecx
	mov	edx, 4
	shl	edx, 3
	mov	eax, DWORD PTR _xp$[ebp]
	mov	ecx, DWORD PTR [eax+edx]
	push	ecx
	movzx	edx, BYTE PTR _c$[ebp]
	push	edx
	call	__SUBTRUCT_UNIT
	add	esp, 16					; 00000010H
	mov	BYTE PTR _c$[ebp], al

; 2505 :     c = _SUBTRUCT_UNIT(c, xp[9], yp[9], &zp[9]);

	mov	eax, 4
	imul	ecx, eax, 9
	add	ecx, DWORD PTR _zp$[ebp]
	push	ecx
	mov	edx, 4
	imul	eax, edx, 9
	mov	ecx, DWORD PTR _yp$[ebp]
	mov	edx, DWORD PTR [ecx+eax]
	push	edx
	mov	eax, 4
	imul	ecx, eax, 9
	mov	edx, DWORD PTR _xp$[ebp]
	mov	eax, DWORD PTR [edx+ecx]
	push	eax
	movzx	ecx, BYTE PTR _c$[ebp]
	push	ecx
	call	__SUBTRUCT_UNIT
	add	esp, 16					; 00000010H
	mov	BYTE PTR _c$[ebp], al

; 2506 :     c = _SUBTRUCT_UNIT(c, xp[10], yp[10], &zp[10]);

	mov	edx, 4
	imul	eax, edx, 10
	add	eax, DWORD PTR _zp$[ebp]
	push	eax
	mov	ecx, 4
	imul	edx, ecx, 10
	mov	eax, DWORD PTR _yp$[ebp]
	mov	ecx, DWORD PTR [eax+edx]
	push	ecx
	mov	edx, 4
	imul	eax, edx, 10
	mov	ecx, DWORD PTR _xp$[ebp]
	mov	edx, DWORD PTR [ecx+eax]
	push	edx
	movzx	eax, BYTE PTR _c$[ebp]
	push	eax
	call	__SUBTRUCT_UNIT
	add	esp, 16					; 00000010H
	mov	BYTE PTR _c$[ebp], al

; 2507 :     c = _SUBTRUCT_UNIT(c, xp[11], yp[11], &zp[11]);

	mov	ecx, 4
	imul	edx, ecx, 11
	add	edx, DWORD PTR _zp$[ebp]
	push	edx
	mov	eax, 4
	imul	ecx, eax, 11
	mov	edx, DWORD PTR _yp$[ebp]
	mov	eax, DWORD PTR [edx+ecx]
	push	eax
	mov	ecx, 4
	imul	edx, ecx, 11
	mov	eax, DWORD PTR _xp$[ebp]
	mov	ecx, DWORD PTR [eax+edx]
	push	ecx
	movzx	edx, BYTE PTR _c$[ebp]
	push	edx
	call	__SUBTRUCT_UNIT
	add	esp, 16					; 00000010H
	mov	BYTE PTR _c$[ebp], al

; 2508 :     c = _SUBTRUCT_UNIT(c, xp[12], yp[12], &zp[12]);

	mov	eax, 4
	imul	ecx, eax, 12
	add	ecx, DWORD PTR _zp$[ebp]
	push	ecx
	mov	edx, 4
	imul	eax, edx, 12
	mov	ecx, DWORD PTR _yp$[ebp]
	mov	edx, DWORD PTR [ecx+eax]
	push	edx
	mov	eax, 4
	imul	ecx, eax, 12
	mov	edx, DWORD PTR _xp$[ebp]
	mov	eax, DWORD PTR [edx+ecx]
	push	eax
	movzx	ecx, BYTE PTR _c$[ebp]
	push	ecx
	call	__SUBTRUCT_UNIT
	add	esp, 16					; 00000010H
	mov	BYTE PTR _c$[ebp], al

; 2509 :     c = _SUBTRUCT_UNIT(c, xp[13], yp[13], &zp[13]);

	mov	edx, 4
	imul	eax, edx, 13
	add	eax, DWORD PTR _zp$[ebp]
	push	eax
	mov	ecx, 4
	imul	edx, ecx, 13
	mov	eax, DWORD PTR _yp$[ebp]
	mov	ecx, DWORD PTR [eax+edx]
	push	ecx
	mov	edx, 4
	imul	eax, edx, 13
	mov	ecx, DWORD PTR _xp$[ebp]
	mov	edx, DWORD PTR [ecx+eax]
	push	edx
	movzx	eax, BYTE PTR _c$[ebp]
	push	eax
	call	__SUBTRUCT_UNIT
	add	esp, 16					; 00000010H
	mov	BYTE PTR _c$[ebp], al

; 2510 :     c = _SUBTRUCT_UNIT(c, xp[14], yp[14], &zp[14]);

	mov	ecx, 4
	imul	edx, ecx, 14
	add	edx, DWORD PTR _zp$[ebp]
	push	edx
	mov	eax, 4
	imul	ecx, eax, 14
	mov	edx, DWORD PTR _yp$[ebp]
	mov	eax, DWORD PTR [edx+ecx]
	push	eax
	mov	ecx, 4
	imul	edx, ecx, 14
	mov	eax, DWORD PTR _xp$[ebp]
	mov	ecx, DWORD PTR [eax+edx]
	push	ecx
	movzx	edx, BYTE PTR _c$[ebp]
	push	edx
	call	__SUBTRUCT_UNIT
	add	esp, 16					; 00000010H
	mov	BYTE PTR _c$[ebp], al

; 2511 :     c = _SUBTRUCT_UNIT(c, xp[15], yp[15], &zp[15]);

	mov	eax, 4
	imul	ecx, eax, 15
	add	ecx, DWORD PTR _zp$[ebp]
	push	ecx
	mov	edx, 4
	imul	eax, edx, 15
	mov	ecx, DWORD PTR _yp$[ebp]
	mov	edx, DWORD PTR [ecx+eax]
	push	edx
	mov	eax, 4
	imul	ecx, eax, 15
	mov	edx, DWORD PTR _xp$[ebp]
	mov	eax, DWORD PTR [edx+ecx]
	push	eax
	movzx	ecx, BYTE PTR _c$[ebp]
	push	ecx
	call	__SUBTRUCT_UNIT
	add	esp, 16					; 00000010H
	mov	BYTE PTR _c$[ebp], al

; 2512 : #elif defined(__GNUC__)
; 2513 : #ifdef _M_IX86
; 2514 :     __asm__ volatile (
; 2515 :         "addb\t$-1, %0\n\t"
; 2516 :         "movl\t(%1), %%ecx\n\t"
; 2517 :         "sbbl\t(%2), %%ecx\n\t"
; 2518 :         "movl\t%%ecx, (%3)\n\t"
; 2519 :         "movl\t4(%1), %%ecx\n\t"
; 2520 :         "sbbl\t4(%2), %%ecx\n\t"
; 2521 :         "movl\t%%ecx, 4(%3)\n\t"
; 2522 :         "movl\t8(%1), %%ecx\n\t"
; 2523 :         "sbbl\t8(%2), %%ecx\n\t"
; 2524 :         "movl\t%%ecx, 8(%3)\n\t"
; 2525 :         "movl\t12(%1), %%ecx\n\t"
; 2526 :         "sbbl\t12(%2), %%ecx\n\t"
; 2527 :         "movl\t%%ecx, 12(%3)\n\t"
; 2528 :         "movl\t16(%1), %%ecx\n\t"
; 2529 :         "sbbl\t16(%2), %%ecx\n\t"
; 2530 :         "movl\t%%ecx, 16(%3)\n\t"
; 2531 :         "movl\t20(%1), %%ecx\n\t"
; 2532 :         "sbbl\t20(%2), %%ecx\n\t"
; 2533 :         "movl\t%%ecx, 20(%3)\n\t"
; 2534 :         "movl\t24(%1), %%ecx\n\t"
; 2535 :         "sbbl\t24(%2), %%ecx\n\t"
; 2536 :         "movl\t%%ecx, 24(%3)\n\t"
; 2537 :         "movl\t28(%1), %%ecx\n\t"
; 2538 :         "sbbl\t28(%2), %%ecx\n\t"
; 2539 :         "movl\t%%ecx, 28(%3)\n\t"
; 2540 :         "movl\t32(%1), %%ecx\n\t"
; 2541 :         "sbbl\t32(%2), %%ecx\n\t"
; 2542 :         "movl\t%%ecx, 32(%3)\n\t"
; 2543 :         "movl\t36(%1), %%ecx\n\t"
; 2544 :         "sbbl\t36(%2), %%ecx\n\t"
; 2545 :         "movl\t%%ecx, 36(%3)\n\t"
; 2546 :         "movl\t40(%1), %%ecx\n\t"
; 2547 :         "sbbl\t40(%2), %%ecx\n\t"
; 2548 :         "movl\t%%ecx, 40(%3)\n\t"
; 2549 :         "movl\t44(%1), %%ecx\n\t"
; 2550 :         "sbbl\t44(%2), %%ecx\n\t"
; 2551 :         "movl\t%%ecx, 44(%3)\n\t"
; 2552 :         "movl\t48(%1), %%ecx\n\t"
; 2553 :         "sbbl\t48(%2), %%ecx\n\t"
; 2554 :         "movl\t%%ecx, 48(%3)\n\t"
; 2555 :         "movl\t52(%1), %%ecx\n\t"
; 2556 :         "sbbl\t52(%2), %%ecx\n\t"
; 2557 :         "movl\t%%ecx, 52(%3)\n\t"
; 2558 :         "movl\t56(%1), %%ecx\n\t"
; 2559 :         "sbbl\t56(%2), %%ecx\n\t"
; 2560 :         "movl\t%%ecx, 56(%3)\n\t"
; 2561 :         "movl\t60(%1), %%ecx\n\t"
; 2562 :         "sbbl\t60(%2), %%ecx\n\t"
; 2563 :         "movl\t%%ecx, 60(%3)\n\t"
; 2564 :         "setc\t%0"
; 2565 :         : "+r"(c), "+r"(xp), "+r"(yp), "+r"(zp)
; 2566 :         :
; 2567 :         : "cc", "memory", "%ecx"
; 2568 : );
; 2569 : #elif defined(_M_IX64)
; 2570 :     __asm__ volatile (
; 2571 :         "addb\t$-1, %0\n\t"
; 2572 :         "movq\t(%1), %%rcx\n\t"
; 2573 :         "sbbq\t(%2), %%rcx\n\t"
; 2574 :         "movq\t%%rcx, (%3)\n\t"
; 2575 :         "movq\t8(%1), %%rcx\n\t"
; 2576 :         "sbbq\t8(%2), %%rcx\n\t"
; 2577 :         "movq\t%%rcx, 8(%3)\n\t"
; 2578 :         "movq\t16(%1), %%rcx\n\t"
; 2579 :         "sbbq\t16(%2), %%rcx\n\t"
; 2580 :         "movq\t%%rcx, 16(%3)\n\t"
; 2581 :         "movq\t24(%1), %%rcx\n\t"
; 2582 :         "sbbq\t24(%2), %%rcx\n\t"
; 2583 :         "movq\t%%rcx, 24(%3)\n\t"
; 2584 :         "movq\t32(%1), %%rcx\n\t"
; 2585 :         "sbbq\t32(%2), %%rcx\n\t"
; 2586 :         "movq\t%%rcx, 32(%3)\n\t"
; 2587 :         "movq\t40(%1), %%rcx\n\t"
; 2588 :         "sbbq\t40(%2), %%rcx\n\t"
; 2589 :         "movq\t%%rcx, 40(%3)\n\t"
; 2590 :         "movq\t48(%1), %%rcx\n\t"
; 2591 :         "sbbq\t48(%2), %%rcx\n\t"
; 2592 :         "movq\t%%rcx, 48(%3)\n\t"
; 2593 :         "movq\t56(%1), %%rcx\n\t"
; 2594 :         "sbbq\t56(%2), %%rcx\n\t"
; 2595 :         "movq\t%%rcx, 56(%3)\n\t"
; 2596 :         "movq\t64(%1), %%rcx\n\t"
; 2597 :         "sbbq\t64(%2), %%rcx\n\t"
; 2598 :         "movq\t%%rcx, 64(%3)\n\t"
; 2599 :         "movq\t72(%1), %%rcx\n\t"
; 2600 :         "sbbq\t72(%2), %%rcx\n\t"
; 2601 :         "movq\t%%rcx, 72(%3)\n\t"
; 2602 :         "movq\t80(%1), %%rcx\n\t"
; 2603 :         "sbbq\t80(%2), %%rcx\n\t"
; 2604 :         "movq\t%%rcx, 80(%3)\n\t"
; 2605 :         "movq\t88(%1), %%rcx\n\t"
; 2606 :         "sbbq\t88(%2), %%rcx\n\t"
; 2607 :         "movq\t%%rcx, 88(%3)\n\t"
; 2608 :         "movq\t96(%1), %%rcx\n\t"
; 2609 :         "sbbq\t96(%2), %%rcx\n\t"
; 2610 :         "movq\t%%rcx, 96(%3)\n\t"
; 2611 :         "movq\t104(%1), %%rcx\n\t"
; 2612 :         "sbbq\t104(%2), %%rcx\n\t"
; 2613 :         "movq\t%%rcx, 104(%3)\n\t"
; 2614 :         "movq\t112(%1), %%rcx\n\t"
; 2615 :         "sbbq\t112(%2), %%rcx\n\t"
; 2616 :         "movq\t%%rcx, 112(%3)\n\t"
; 2617 :         "movq\t120(%1), %%rcx\n\t"
; 2618 :         "sbbq\t120(%2), %%rcx\n\t"
; 2619 :         "movq\t%%rcx, 120(%3)\n\t"
; 2620 :         "setc\t%0"
; 2621 :         : "+r"(c), "+r"(xp), "+r"(yp), "+r"(zp)
; 2622 :         :
; 2623 :         : "cc", "memory", "%rcx"
; 2624 : );
; 2625 : #else
; 2626 : #error unknown platform
; 2627 : #endif
; 2628 : #else
; 2629 : #error unknown compiler
; 2630 : #endif
; 2631 :     return (c);

	mov	al, BYTE PTR _c$[ebp]

; 2632 : }

	cmp	ebp, esp
	call	__RTC_CheckEsp
	pop	ebp
	ret	0
__SUBTRUCT_16WORDS_SBB ENDP
_TEXT	ENDS
; Function compile flags: /Odtp /RTCsu
; File z:\sources\lunor\repos\rougemeilland\palmtree.math.core.uint\palmtree.math.core.uint\autogenerated_inline_func.h
_TEXT	SEGMENT
_c$ = 8							; size = 1
_xp$ = 12						; size = 4
_yp$ = 16						; size = 4
_zp$ = 20						; size = 4
__SUBTRUCT_32WORDS_SBB PROC

; 806  : {

	push	ebp
	mov	ebp, esp
	mov	ecx, OFFSET __E05E7037_autogenerated_inline_func@h
	call	@__CheckForDebuggerJustMyCode@4

; 807  : #ifdef _MSC_VER
; 808  :     c = _SUBTRUCT_UNIT(c, xp[0], yp[0], &zp[0]);

	mov	eax, 4
	imul	ecx, eax, 0
	add	ecx, DWORD PTR _zp$[ebp]
	push	ecx
	mov	edx, 4
	imul	eax, edx, 0
	mov	ecx, DWORD PTR _yp$[ebp]
	mov	edx, DWORD PTR [ecx+eax]
	push	edx
	mov	eax, 4
	imul	ecx, eax, 0
	mov	edx, DWORD PTR _xp$[ebp]
	mov	eax, DWORD PTR [edx+ecx]
	push	eax
	movzx	ecx, BYTE PTR _c$[ebp]
	push	ecx
	call	__SUBTRUCT_UNIT
	add	esp, 16					; 00000010H
	mov	BYTE PTR _c$[ebp], al

; 809  :     c = _SUBTRUCT_UNIT(c, xp[1], yp[1], &zp[1]);

	mov	edx, 4
	shl	edx, 0
	add	edx, DWORD PTR _zp$[ebp]
	push	edx
	mov	eax, 4
	shl	eax, 0
	mov	ecx, DWORD PTR _yp$[ebp]
	mov	edx, DWORD PTR [ecx+eax]
	push	edx
	mov	eax, 4
	shl	eax, 0
	mov	ecx, DWORD PTR _xp$[ebp]
	mov	edx, DWORD PTR [ecx+eax]
	push	edx
	movzx	eax, BYTE PTR _c$[ebp]
	push	eax
	call	__SUBTRUCT_UNIT
	add	esp, 16					; 00000010H
	mov	BYTE PTR _c$[ebp], al

; 810  :     c = _SUBTRUCT_UNIT(c, xp[2], yp[2], &zp[2]);

	mov	ecx, 4
	shl	ecx, 1
	add	ecx, DWORD PTR _zp$[ebp]
	push	ecx
	mov	edx, 4
	shl	edx, 1
	mov	eax, DWORD PTR _yp$[ebp]
	mov	ecx, DWORD PTR [eax+edx]
	push	ecx
	mov	edx, 4
	shl	edx, 1
	mov	eax, DWORD PTR _xp$[ebp]
	mov	ecx, DWORD PTR [eax+edx]
	push	ecx
	movzx	edx, BYTE PTR _c$[ebp]
	push	edx
	call	__SUBTRUCT_UNIT
	add	esp, 16					; 00000010H
	mov	BYTE PTR _c$[ebp], al

; 811  :     c = _SUBTRUCT_UNIT(c, xp[3], yp[3], &zp[3]);

	mov	eax, 4
	imul	ecx, eax, 3
	add	ecx, DWORD PTR _zp$[ebp]
	push	ecx
	mov	edx, 4
	imul	eax, edx, 3
	mov	ecx, DWORD PTR _yp$[ebp]
	mov	edx, DWORD PTR [ecx+eax]
	push	edx
	mov	eax, 4
	imul	ecx, eax, 3
	mov	edx, DWORD PTR _xp$[ebp]
	mov	eax, DWORD PTR [edx+ecx]
	push	eax
	movzx	ecx, BYTE PTR _c$[ebp]
	push	ecx
	call	__SUBTRUCT_UNIT
	add	esp, 16					; 00000010H
	mov	BYTE PTR _c$[ebp], al

; 812  :     c = _SUBTRUCT_UNIT(c, xp[4], yp[4], &zp[4]);

	mov	edx, 4
	shl	edx, 2
	add	edx, DWORD PTR _zp$[ebp]
	push	edx
	mov	eax, 4
	shl	eax, 2
	mov	ecx, DWORD PTR _yp$[ebp]
	mov	edx, DWORD PTR [ecx+eax]
	push	edx
	mov	eax, 4
	shl	eax, 2
	mov	ecx, DWORD PTR _xp$[ebp]
	mov	edx, DWORD PTR [ecx+eax]
	push	edx
	movzx	eax, BYTE PTR _c$[ebp]
	push	eax
	call	__SUBTRUCT_UNIT
	add	esp, 16					; 00000010H
	mov	BYTE PTR _c$[ebp], al

; 813  :     c = _SUBTRUCT_UNIT(c, xp[5], yp[5], &zp[5]);

	mov	ecx, 4
	imul	edx, ecx, 5
	add	edx, DWORD PTR _zp$[ebp]
	push	edx
	mov	eax, 4
	imul	ecx, eax, 5
	mov	edx, DWORD PTR _yp$[ebp]
	mov	eax, DWORD PTR [edx+ecx]
	push	eax
	mov	ecx, 4
	imul	edx, ecx, 5
	mov	eax, DWORD PTR _xp$[ebp]
	mov	ecx, DWORD PTR [eax+edx]
	push	ecx
	movzx	edx, BYTE PTR _c$[ebp]
	push	edx
	call	__SUBTRUCT_UNIT
	add	esp, 16					; 00000010H
	mov	BYTE PTR _c$[ebp], al

; 814  :     c = _SUBTRUCT_UNIT(c, xp[6], yp[6], &zp[6]);

	mov	eax, 4
	imul	ecx, eax, 6
	add	ecx, DWORD PTR _zp$[ebp]
	push	ecx
	mov	edx, 4
	imul	eax, edx, 6
	mov	ecx, DWORD PTR _yp$[ebp]
	mov	edx, DWORD PTR [ecx+eax]
	push	edx
	mov	eax, 4
	imul	ecx, eax, 6
	mov	edx, DWORD PTR _xp$[ebp]
	mov	eax, DWORD PTR [edx+ecx]
	push	eax
	movzx	ecx, BYTE PTR _c$[ebp]
	push	ecx
	call	__SUBTRUCT_UNIT
	add	esp, 16					; 00000010H
	mov	BYTE PTR _c$[ebp], al

; 815  :     c = _SUBTRUCT_UNIT(c, xp[7], yp[7], &zp[7]);

	mov	edx, 4
	imul	eax, edx, 7
	add	eax, DWORD PTR _zp$[ebp]
	push	eax
	mov	ecx, 4
	imul	edx, ecx, 7
	mov	eax, DWORD PTR _yp$[ebp]
	mov	ecx, DWORD PTR [eax+edx]
	push	ecx
	mov	edx, 4
	imul	eax, edx, 7
	mov	ecx, DWORD PTR _xp$[ebp]
	mov	edx, DWORD PTR [ecx+eax]
	push	edx
	movzx	eax, BYTE PTR _c$[ebp]
	push	eax
	call	__SUBTRUCT_UNIT
	add	esp, 16					; 00000010H
	mov	BYTE PTR _c$[ebp], al

; 816  :     c = _SUBTRUCT_UNIT(c, xp[8], yp[8], &zp[8]);

	mov	ecx, 4
	shl	ecx, 3
	add	ecx, DWORD PTR _zp$[ebp]
	push	ecx
	mov	edx, 4
	shl	edx, 3
	mov	eax, DWORD PTR _yp$[ebp]
	mov	ecx, DWORD PTR [eax+edx]
	push	ecx
	mov	edx, 4
	shl	edx, 3
	mov	eax, DWORD PTR _xp$[ebp]
	mov	ecx, DWORD PTR [eax+edx]
	push	ecx
	movzx	edx, BYTE PTR _c$[ebp]
	push	edx
	call	__SUBTRUCT_UNIT
	add	esp, 16					; 00000010H
	mov	BYTE PTR _c$[ebp], al

; 817  :     c = _SUBTRUCT_UNIT(c, xp[9], yp[9], &zp[9]);

	mov	eax, 4
	imul	ecx, eax, 9
	add	ecx, DWORD PTR _zp$[ebp]
	push	ecx
	mov	edx, 4
	imul	eax, edx, 9
	mov	ecx, DWORD PTR _yp$[ebp]
	mov	edx, DWORD PTR [ecx+eax]
	push	edx
	mov	eax, 4
	imul	ecx, eax, 9
	mov	edx, DWORD PTR _xp$[ebp]
	mov	eax, DWORD PTR [edx+ecx]
	push	eax
	movzx	ecx, BYTE PTR _c$[ebp]
	push	ecx
	call	__SUBTRUCT_UNIT
	add	esp, 16					; 00000010H
	mov	BYTE PTR _c$[ebp], al

; 818  :     c = _SUBTRUCT_UNIT(c, xp[10], yp[10], &zp[10]);

	mov	edx, 4
	imul	eax, edx, 10
	add	eax, DWORD PTR _zp$[ebp]
	push	eax
	mov	ecx, 4
	imul	edx, ecx, 10
	mov	eax, DWORD PTR _yp$[ebp]
	mov	ecx, DWORD PTR [eax+edx]
	push	ecx
	mov	edx, 4
	imul	eax, edx, 10
	mov	ecx, DWORD PTR _xp$[ebp]
	mov	edx, DWORD PTR [ecx+eax]
	push	edx
	movzx	eax, BYTE PTR _c$[ebp]
	push	eax
	call	__SUBTRUCT_UNIT
	add	esp, 16					; 00000010H
	mov	BYTE PTR _c$[ebp], al

; 819  :     c = _SUBTRUCT_UNIT(c, xp[11], yp[11], &zp[11]);

	mov	ecx, 4
	imul	edx, ecx, 11
	add	edx, DWORD PTR _zp$[ebp]
	push	edx
	mov	eax, 4
	imul	ecx, eax, 11
	mov	edx, DWORD PTR _yp$[ebp]
	mov	eax, DWORD PTR [edx+ecx]
	push	eax
	mov	ecx, 4
	imul	edx, ecx, 11
	mov	eax, DWORD PTR _xp$[ebp]
	mov	ecx, DWORD PTR [eax+edx]
	push	ecx
	movzx	edx, BYTE PTR _c$[ebp]
	push	edx
	call	__SUBTRUCT_UNIT
	add	esp, 16					; 00000010H
	mov	BYTE PTR _c$[ebp], al

; 820  :     c = _SUBTRUCT_UNIT(c, xp[12], yp[12], &zp[12]);

	mov	eax, 4
	imul	ecx, eax, 12
	add	ecx, DWORD PTR _zp$[ebp]
	push	ecx
	mov	edx, 4
	imul	eax, edx, 12
	mov	ecx, DWORD PTR _yp$[ebp]
	mov	edx, DWORD PTR [ecx+eax]
	push	edx
	mov	eax, 4
	imul	ecx, eax, 12
	mov	edx, DWORD PTR _xp$[ebp]
	mov	eax, DWORD PTR [edx+ecx]
	push	eax
	movzx	ecx, BYTE PTR _c$[ebp]
	push	ecx
	call	__SUBTRUCT_UNIT
	add	esp, 16					; 00000010H
	mov	BYTE PTR _c$[ebp], al

; 821  :     c = _SUBTRUCT_UNIT(c, xp[13], yp[13], &zp[13]);

	mov	edx, 4
	imul	eax, edx, 13
	add	eax, DWORD PTR _zp$[ebp]
	push	eax
	mov	ecx, 4
	imul	edx, ecx, 13
	mov	eax, DWORD PTR _yp$[ebp]
	mov	ecx, DWORD PTR [eax+edx]
	push	ecx
	mov	edx, 4
	imul	eax, edx, 13
	mov	ecx, DWORD PTR _xp$[ebp]
	mov	edx, DWORD PTR [ecx+eax]
	push	edx
	movzx	eax, BYTE PTR _c$[ebp]
	push	eax
	call	__SUBTRUCT_UNIT
	add	esp, 16					; 00000010H
	mov	BYTE PTR _c$[ebp], al

; 822  :     c = _SUBTRUCT_UNIT(c, xp[14], yp[14], &zp[14]);

	mov	ecx, 4
	imul	edx, ecx, 14
	add	edx, DWORD PTR _zp$[ebp]
	push	edx
	mov	eax, 4
	imul	ecx, eax, 14
	mov	edx, DWORD PTR _yp$[ebp]
	mov	eax, DWORD PTR [edx+ecx]
	push	eax
	mov	ecx, 4
	imul	edx, ecx, 14
	mov	eax, DWORD PTR _xp$[ebp]
	mov	ecx, DWORD PTR [eax+edx]
	push	ecx
	movzx	edx, BYTE PTR _c$[ebp]
	push	edx
	call	__SUBTRUCT_UNIT
	add	esp, 16					; 00000010H
	mov	BYTE PTR _c$[ebp], al

; 823  :     c = _SUBTRUCT_UNIT(c, xp[15], yp[15], &zp[15]);

	mov	eax, 4
	imul	ecx, eax, 15
	add	ecx, DWORD PTR _zp$[ebp]
	push	ecx
	mov	edx, 4
	imul	eax, edx, 15
	mov	ecx, DWORD PTR _yp$[ebp]
	mov	edx, DWORD PTR [ecx+eax]
	push	edx
	mov	eax, 4
	imul	ecx, eax, 15
	mov	edx, DWORD PTR _xp$[ebp]
	mov	eax, DWORD PTR [edx+ecx]
	push	eax
	movzx	ecx, BYTE PTR _c$[ebp]
	push	ecx
	call	__SUBTRUCT_UNIT
	add	esp, 16					; 00000010H
	mov	BYTE PTR _c$[ebp], al

; 824  :     c = _SUBTRUCT_UNIT(c, xp[16], yp[16], &zp[16]);

	mov	edx, 4
	shl	edx, 4
	add	edx, DWORD PTR _zp$[ebp]
	push	edx
	mov	eax, 4
	shl	eax, 4
	mov	ecx, DWORD PTR _yp$[ebp]
	mov	edx, DWORD PTR [ecx+eax]
	push	edx
	mov	eax, 4
	shl	eax, 4
	mov	ecx, DWORD PTR _xp$[ebp]
	mov	edx, DWORD PTR [ecx+eax]
	push	edx
	movzx	eax, BYTE PTR _c$[ebp]
	push	eax
	call	__SUBTRUCT_UNIT
	add	esp, 16					; 00000010H
	mov	BYTE PTR _c$[ebp], al

; 825  :     c = _SUBTRUCT_UNIT(c, xp[17], yp[17], &zp[17]);

	mov	ecx, 4
	imul	edx, ecx, 17
	add	edx, DWORD PTR _zp$[ebp]
	push	edx
	mov	eax, 4
	imul	ecx, eax, 17
	mov	edx, DWORD PTR _yp$[ebp]
	mov	eax, DWORD PTR [edx+ecx]
	push	eax
	mov	ecx, 4
	imul	edx, ecx, 17
	mov	eax, DWORD PTR _xp$[ebp]
	mov	ecx, DWORD PTR [eax+edx]
	push	ecx
	movzx	edx, BYTE PTR _c$[ebp]
	push	edx
	call	__SUBTRUCT_UNIT
	add	esp, 16					; 00000010H
	mov	BYTE PTR _c$[ebp], al

; 826  :     c = _SUBTRUCT_UNIT(c, xp[18], yp[18], &zp[18]);

	mov	eax, 4
	imul	ecx, eax, 18
	add	ecx, DWORD PTR _zp$[ebp]
	push	ecx
	mov	edx, 4
	imul	eax, edx, 18
	mov	ecx, DWORD PTR _yp$[ebp]
	mov	edx, DWORD PTR [ecx+eax]
	push	edx
	mov	eax, 4
	imul	ecx, eax, 18
	mov	edx, DWORD PTR _xp$[ebp]
	mov	eax, DWORD PTR [edx+ecx]
	push	eax
	movzx	ecx, BYTE PTR _c$[ebp]
	push	ecx
	call	__SUBTRUCT_UNIT
	add	esp, 16					; 00000010H
	mov	BYTE PTR _c$[ebp], al

; 827  :     c = _SUBTRUCT_UNIT(c, xp[19], yp[19], &zp[19]);

	mov	edx, 4
	imul	eax, edx, 19
	add	eax, DWORD PTR _zp$[ebp]
	push	eax
	mov	ecx, 4
	imul	edx, ecx, 19
	mov	eax, DWORD PTR _yp$[ebp]
	mov	ecx, DWORD PTR [eax+edx]
	push	ecx
	mov	edx, 4
	imul	eax, edx, 19
	mov	ecx, DWORD PTR _xp$[ebp]
	mov	edx, DWORD PTR [ecx+eax]
	push	edx
	movzx	eax, BYTE PTR _c$[ebp]
	push	eax
	call	__SUBTRUCT_UNIT
	add	esp, 16					; 00000010H
	mov	BYTE PTR _c$[ebp], al

; 828  :     c = _SUBTRUCT_UNIT(c, xp[20], yp[20], &zp[20]);

	mov	ecx, 4
	imul	edx, ecx, 20
	add	edx, DWORD PTR _zp$[ebp]
	push	edx
	mov	eax, 4
	imul	ecx, eax, 20
	mov	edx, DWORD PTR _yp$[ebp]
	mov	eax, DWORD PTR [edx+ecx]
	push	eax
	mov	ecx, 4
	imul	edx, ecx, 20
	mov	eax, DWORD PTR _xp$[ebp]
	mov	ecx, DWORD PTR [eax+edx]
	push	ecx
	movzx	edx, BYTE PTR _c$[ebp]
	push	edx
	call	__SUBTRUCT_UNIT
	add	esp, 16					; 00000010H
	mov	BYTE PTR _c$[ebp], al

; 829  :     c = _SUBTRUCT_UNIT(c, xp[21], yp[21], &zp[21]);

	mov	eax, 4
	imul	ecx, eax, 21
	add	ecx, DWORD PTR _zp$[ebp]
	push	ecx
	mov	edx, 4
	imul	eax, edx, 21
	mov	ecx, DWORD PTR _yp$[ebp]
	mov	edx, DWORD PTR [ecx+eax]
	push	edx
	mov	eax, 4
	imul	ecx, eax, 21
	mov	edx, DWORD PTR _xp$[ebp]
	mov	eax, DWORD PTR [edx+ecx]
	push	eax
	movzx	ecx, BYTE PTR _c$[ebp]
	push	ecx
	call	__SUBTRUCT_UNIT
	add	esp, 16					; 00000010H
	mov	BYTE PTR _c$[ebp], al

; 830  :     c = _SUBTRUCT_UNIT(c, xp[22], yp[22], &zp[22]);

	mov	edx, 4
	imul	eax, edx, 22
	add	eax, DWORD PTR _zp$[ebp]
	push	eax
	mov	ecx, 4
	imul	edx, ecx, 22
	mov	eax, DWORD PTR _yp$[ebp]
	mov	ecx, DWORD PTR [eax+edx]
	push	ecx
	mov	edx, 4
	imul	eax, edx, 22
	mov	ecx, DWORD PTR _xp$[ebp]
	mov	edx, DWORD PTR [ecx+eax]
	push	edx
	movzx	eax, BYTE PTR _c$[ebp]
	push	eax
	call	__SUBTRUCT_UNIT
	add	esp, 16					; 00000010H
	mov	BYTE PTR _c$[ebp], al

; 831  :     c = _SUBTRUCT_UNIT(c, xp[23], yp[23], &zp[23]);

	mov	ecx, 4
	imul	edx, ecx, 23
	add	edx, DWORD PTR _zp$[ebp]
	push	edx
	mov	eax, 4
	imul	ecx, eax, 23
	mov	edx, DWORD PTR _yp$[ebp]
	mov	eax, DWORD PTR [edx+ecx]
	push	eax
	mov	ecx, 4
	imul	edx, ecx, 23
	mov	eax, DWORD PTR _xp$[ebp]
	mov	ecx, DWORD PTR [eax+edx]
	push	ecx
	movzx	edx, BYTE PTR _c$[ebp]
	push	edx
	call	__SUBTRUCT_UNIT
	add	esp, 16					; 00000010H
	mov	BYTE PTR _c$[ebp], al

; 832  :     c = _SUBTRUCT_UNIT(c, xp[24], yp[24], &zp[24]);

	mov	eax, 4
	imul	ecx, eax, 24
	add	ecx, DWORD PTR _zp$[ebp]
	push	ecx
	mov	edx, 4
	imul	eax, edx, 24
	mov	ecx, DWORD PTR _yp$[ebp]
	mov	edx, DWORD PTR [ecx+eax]
	push	edx
	mov	eax, 4
	imul	ecx, eax, 24
	mov	edx, DWORD PTR _xp$[ebp]
	mov	eax, DWORD PTR [edx+ecx]
	push	eax
	movzx	ecx, BYTE PTR _c$[ebp]
	push	ecx
	call	__SUBTRUCT_UNIT
	add	esp, 16					; 00000010H
	mov	BYTE PTR _c$[ebp], al

; 833  :     c = _SUBTRUCT_UNIT(c, xp[25], yp[25], &zp[25]);

	mov	edx, 4
	imul	eax, edx, 25
	add	eax, DWORD PTR _zp$[ebp]
	push	eax
	mov	ecx, 4
	imul	edx, ecx, 25
	mov	eax, DWORD PTR _yp$[ebp]
	mov	ecx, DWORD PTR [eax+edx]
	push	ecx
	mov	edx, 4
	imul	eax, edx, 25
	mov	ecx, DWORD PTR _xp$[ebp]
	mov	edx, DWORD PTR [ecx+eax]
	push	edx
	movzx	eax, BYTE PTR _c$[ebp]
	push	eax
	call	__SUBTRUCT_UNIT
	add	esp, 16					; 00000010H
	mov	BYTE PTR _c$[ebp], al

; 834  :     c = _SUBTRUCT_UNIT(c, xp[26], yp[26], &zp[26]);

	mov	ecx, 4
	imul	edx, ecx, 26
	add	edx, DWORD PTR _zp$[ebp]
	push	edx
	mov	eax, 4
	imul	ecx, eax, 26
	mov	edx, DWORD PTR _yp$[ebp]
	mov	eax, DWORD PTR [edx+ecx]
	push	eax
	mov	ecx, 4
	imul	edx, ecx, 26
	mov	eax, DWORD PTR _xp$[ebp]
	mov	ecx, DWORD PTR [eax+edx]
	push	ecx
	movzx	edx, BYTE PTR _c$[ebp]
	push	edx
	call	__SUBTRUCT_UNIT
	add	esp, 16					; 00000010H
	mov	BYTE PTR _c$[ebp], al

; 835  :     c = _SUBTRUCT_UNIT(c, xp[27], yp[27], &zp[27]);

	mov	eax, 4
	imul	ecx, eax, 27
	add	ecx, DWORD PTR _zp$[ebp]
	push	ecx
	mov	edx, 4
	imul	eax, edx, 27
	mov	ecx, DWORD PTR _yp$[ebp]
	mov	edx, DWORD PTR [ecx+eax]
	push	edx
	mov	eax, 4
	imul	ecx, eax, 27
	mov	edx, DWORD PTR _xp$[ebp]
	mov	eax, DWORD PTR [edx+ecx]
	push	eax
	movzx	ecx, BYTE PTR _c$[ebp]
	push	ecx
	call	__SUBTRUCT_UNIT
	add	esp, 16					; 00000010H
	mov	BYTE PTR _c$[ebp], al

; 836  :     c = _SUBTRUCT_UNIT(c, xp[28], yp[28], &zp[28]);

	mov	edx, 4
	imul	eax, edx, 28
	add	eax, DWORD PTR _zp$[ebp]
	push	eax
	mov	ecx, 4
	imul	edx, ecx, 28
	mov	eax, DWORD PTR _yp$[ebp]
	mov	ecx, DWORD PTR [eax+edx]
	push	ecx
	mov	edx, 4
	imul	eax, edx, 28
	mov	ecx, DWORD PTR _xp$[ebp]
	mov	edx, DWORD PTR [ecx+eax]
	push	edx
	movzx	eax, BYTE PTR _c$[ebp]
	push	eax
	call	__SUBTRUCT_UNIT
	add	esp, 16					; 00000010H
	mov	BYTE PTR _c$[ebp], al

; 837  :     c = _SUBTRUCT_UNIT(c, xp[29], yp[29], &zp[29]);

	mov	ecx, 4
	imul	edx, ecx, 29
	add	edx, DWORD PTR _zp$[ebp]
	push	edx
	mov	eax, 4
	imul	ecx, eax, 29
	mov	edx, DWORD PTR _yp$[ebp]
	mov	eax, DWORD PTR [edx+ecx]
	push	eax
	mov	ecx, 4
	imul	edx, ecx, 29
	mov	eax, DWORD PTR _xp$[ebp]
	mov	ecx, DWORD PTR [eax+edx]
	push	ecx
	movzx	edx, BYTE PTR _c$[ebp]
	push	edx
	call	__SUBTRUCT_UNIT
	add	esp, 16					; 00000010H
	mov	BYTE PTR _c$[ebp], al

; 838  :     c = _SUBTRUCT_UNIT(c, xp[30], yp[30], &zp[30]);

	mov	eax, 4
	imul	ecx, eax, 30
	add	ecx, DWORD PTR _zp$[ebp]
	push	ecx
	mov	edx, 4
	imul	eax, edx, 30
	mov	ecx, DWORD PTR _yp$[ebp]
	mov	edx, DWORD PTR [ecx+eax]
	push	edx
	mov	eax, 4
	imul	ecx, eax, 30
	mov	edx, DWORD PTR _xp$[ebp]
	mov	eax, DWORD PTR [edx+ecx]
	push	eax
	movzx	ecx, BYTE PTR _c$[ebp]
	push	ecx
	call	__SUBTRUCT_UNIT
	add	esp, 16					; 00000010H
	mov	BYTE PTR _c$[ebp], al

; 839  :     c = _SUBTRUCT_UNIT(c, xp[31], yp[31], &zp[31]);

	mov	edx, 4
	imul	eax, edx, 31
	add	eax, DWORD PTR _zp$[ebp]
	push	eax
	mov	ecx, 4
	imul	edx, ecx, 31
	mov	eax, DWORD PTR _yp$[ebp]
	mov	ecx, DWORD PTR [eax+edx]
	push	ecx
	mov	edx, 4
	imul	eax, edx, 31
	mov	ecx, DWORD PTR _xp$[ebp]
	mov	edx, DWORD PTR [ecx+eax]
	push	edx
	movzx	eax, BYTE PTR _c$[ebp]
	push	eax
	call	__SUBTRUCT_UNIT
	add	esp, 16					; 00000010H
	mov	BYTE PTR _c$[ebp], al

; 840  : #elif defined(__GNUC__)
; 841  : #ifdef _M_IX86
; 842  :     __asm__ volatile (
; 843  :         "addb\t$-1, %0\n\t"
; 844  :         "movl\t(%1), %%ecx\n\t"
; 845  :         "sbbl\t(%2), %%ecx\n\t"
; 846  :         "movl\t%%ecx, (%3)\n\t"
; 847  :         "movl\t4(%1), %%ecx\n\t"
; 848  :         "sbbl\t4(%2), %%ecx\n\t"
; 849  :         "movl\t%%ecx, 4(%3)\n\t"
; 850  :         "movl\t8(%1), %%ecx\n\t"
; 851  :         "sbbl\t8(%2), %%ecx\n\t"
; 852  :         "movl\t%%ecx, 8(%3)\n\t"
; 853  :         "movl\t12(%1), %%ecx\n\t"
; 854  :         "sbbl\t12(%2), %%ecx\n\t"
; 855  :         "movl\t%%ecx, 12(%3)\n\t"
; 856  :         "movl\t16(%1), %%ecx\n\t"
; 857  :         "sbbl\t16(%2), %%ecx\n\t"
; 858  :         "movl\t%%ecx, 16(%3)\n\t"
; 859  :         "movl\t20(%1), %%ecx\n\t"
; 860  :         "sbbl\t20(%2), %%ecx\n\t"
; 861  :         "movl\t%%ecx, 20(%3)\n\t"
; 862  :         "movl\t24(%1), %%ecx\n\t"
; 863  :         "sbbl\t24(%2), %%ecx\n\t"
; 864  :         "movl\t%%ecx, 24(%3)\n\t"
; 865  :         "movl\t28(%1), %%ecx\n\t"
; 866  :         "sbbl\t28(%2), %%ecx\n\t"
; 867  :         "movl\t%%ecx, 28(%3)\n\t"
; 868  :         "movl\t32(%1), %%ecx\n\t"
; 869  :         "sbbl\t32(%2), %%ecx\n\t"
; 870  :         "movl\t%%ecx, 32(%3)\n\t"
; 871  :         "movl\t36(%1), %%ecx\n\t"
; 872  :         "sbbl\t36(%2), %%ecx\n\t"
; 873  :         "movl\t%%ecx, 36(%3)\n\t"
; 874  :         "movl\t40(%1), %%ecx\n\t"
; 875  :         "sbbl\t40(%2), %%ecx\n\t"
; 876  :         "movl\t%%ecx, 40(%3)\n\t"
; 877  :         "movl\t44(%1), %%ecx\n\t"
; 878  :         "sbbl\t44(%2), %%ecx\n\t"
; 879  :         "movl\t%%ecx, 44(%3)\n\t"
; 880  :         "movl\t48(%1), %%ecx\n\t"
; 881  :         "sbbl\t48(%2), %%ecx\n\t"
; 882  :         "movl\t%%ecx, 48(%3)\n\t"
; 883  :         "movl\t52(%1), %%ecx\n\t"
; 884  :         "sbbl\t52(%2), %%ecx\n\t"
; 885  :         "movl\t%%ecx, 52(%3)\n\t"
; 886  :         "movl\t56(%1), %%ecx\n\t"
; 887  :         "sbbl\t56(%2), %%ecx\n\t"
; 888  :         "movl\t%%ecx, 56(%3)\n\t"
; 889  :         "movl\t60(%1), %%ecx\n\t"
; 890  :         "sbbl\t60(%2), %%ecx\n\t"
; 891  :         "movl\t%%ecx, 60(%3)\n\t"
; 892  :         "movl\t64(%1), %%ecx\n\t"
; 893  :         "sbbl\t64(%2), %%ecx\n\t"
; 894  :         "movl\t%%ecx, 64(%3)\n\t"
; 895  :         "movl\t68(%1), %%ecx\n\t"
; 896  :         "sbbl\t68(%2), %%ecx\n\t"
; 897  :         "movl\t%%ecx, 68(%3)\n\t"
; 898  :         "movl\t72(%1), %%ecx\n\t"
; 899  :         "sbbl\t72(%2), %%ecx\n\t"
; 900  :         "movl\t%%ecx, 72(%3)\n\t"
; 901  :         "movl\t76(%1), %%ecx\n\t"
; 902  :         "sbbl\t76(%2), %%ecx\n\t"
; 903  :         "movl\t%%ecx, 76(%3)\n\t"
; 904  :         "movl\t80(%1), %%ecx\n\t"
; 905  :         "sbbl\t80(%2), %%ecx\n\t"
; 906  :         "movl\t%%ecx, 80(%3)\n\t"
; 907  :         "movl\t84(%1), %%ecx\n\t"
; 908  :         "sbbl\t84(%2), %%ecx\n\t"
; 909  :         "movl\t%%ecx, 84(%3)\n\t"
; 910  :         "movl\t88(%1), %%ecx\n\t"
; 911  :         "sbbl\t88(%2), %%ecx\n\t"
; 912  :         "movl\t%%ecx, 88(%3)\n\t"
; 913  :         "movl\t92(%1), %%ecx\n\t"
; 914  :         "sbbl\t92(%2), %%ecx\n\t"
; 915  :         "movl\t%%ecx, 92(%3)\n\t"
; 916  :         "movl\t96(%1), %%ecx\n\t"
; 917  :         "sbbl\t96(%2), %%ecx\n\t"
; 918  :         "movl\t%%ecx, 96(%3)\n\t"
; 919  :         "movl\t100(%1), %%ecx\n\t"
; 920  :         "sbbl\t100(%2), %%ecx\n\t"
; 921  :         "movl\t%%ecx, 100(%3)\n\t"
; 922  :         "movl\t104(%1), %%ecx\n\t"
; 923  :         "sbbl\t104(%2), %%ecx\n\t"
; 924  :         "movl\t%%ecx, 104(%3)\n\t"
; 925  :         "movl\t108(%1), %%ecx\n\t"
; 926  :         "sbbl\t108(%2), %%ecx\n\t"
; 927  :         "movl\t%%ecx, 108(%3)\n\t"
; 928  :         "movl\t112(%1), %%ecx\n\t"
; 929  :         "sbbl\t112(%2), %%ecx\n\t"
; 930  :         "movl\t%%ecx, 112(%3)\n\t"
; 931  :         "movl\t116(%1), %%ecx\n\t"
; 932  :         "sbbl\t116(%2), %%ecx\n\t"
; 933  :         "movl\t%%ecx, 116(%3)\n\t"
; 934  :         "movl\t120(%1), %%ecx\n\t"
; 935  :         "sbbl\t120(%2), %%ecx\n\t"
; 936  :         "movl\t%%ecx, 120(%3)\n\t"
; 937  :         "movl\t124(%1), %%ecx\n\t"
; 938  :         "sbbl\t124(%2), %%ecx\n\t"
; 939  :         "movl\t%%ecx, 124(%3)\n\t"
; 940  :         "setc\t%0"
; 941  :         : "+r"(c), "+r"(xp), "+r"(yp), "+r"(zp)
; 942  :         :
; 943  :         : "cc", "memory", "%ecx"
; 944  : );
; 945  : #elif defined(_M_IX64)
; 946  :     __asm__ volatile (
; 947  :         "addb\t$-1, %0\n\t"
; 948  :         "movq\t(%1), %%rcx\n\t"
; 949  :         "sbbq\t(%2), %%rcx\n\t"
; 950  :         "movq\t%%rcx, (%3)\n\t"
; 951  :         "movq\t8(%1), %%rcx\n\t"
; 952  :         "sbbq\t8(%2), %%rcx\n\t"
; 953  :         "movq\t%%rcx, 8(%3)\n\t"
; 954  :         "movq\t16(%1), %%rcx\n\t"
; 955  :         "sbbq\t16(%2), %%rcx\n\t"
; 956  :         "movq\t%%rcx, 16(%3)\n\t"
; 957  :         "movq\t24(%1), %%rcx\n\t"
; 958  :         "sbbq\t24(%2), %%rcx\n\t"
; 959  :         "movq\t%%rcx, 24(%3)\n\t"
; 960  :         "movq\t32(%1), %%rcx\n\t"
; 961  :         "sbbq\t32(%2), %%rcx\n\t"
; 962  :         "movq\t%%rcx, 32(%3)\n\t"
; 963  :         "movq\t40(%1), %%rcx\n\t"
; 964  :         "sbbq\t40(%2), %%rcx\n\t"
; 965  :         "movq\t%%rcx, 40(%3)\n\t"
; 966  :         "movq\t48(%1), %%rcx\n\t"
; 967  :         "sbbq\t48(%2), %%rcx\n\t"
; 968  :         "movq\t%%rcx, 48(%3)\n\t"
; 969  :         "movq\t56(%1), %%rcx\n\t"
; 970  :         "sbbq\t56(%2), %%rcx\n\t"
; 971  :         "movq\t%%rcx, 56(%3)\n\t"
; 972  :         "movq\t64(%1), %%rcx\n\t"
; 973  :         "sbbq\t64(%2), %%rcx\n\t"
; 974  :         "movq\t%%rcx, 64(%3)\n\t"
; 975  :         "movq\t72(%1), %%rcx\n\t"
; 976  :         "sbbq\t72(%2), %%rcx\n\t"
; 977  :         "movq\t%%rcx, 72(%3)\n\t"
; 978  :         "movq\t80(%1), %%rcx\n\t"
; 979  :         "sbbq\t80(%2), %%rcx\n\t"
; 980  :         "movq\t%%rcx, 80(%3)\n\t"
; 981  :         "movq\t88(%1), %%rcx\n\t"
; 982  :         "sbbq\t88(%2), %%rcx\n\t"
; 983  :         "movq\t%%rcx, 88(%3)\n\t"
; 984  :         "movq\t96(%1), %%rcx\n\t"
; 985  :         "sbbq\t96(%2), %%rcx\n\t"
; 986  :         "movq\t%%rcx, 96(%3)\n\t"
; 987  :         "movq\t104(%1), %%rcx\n\t"
; 988  :         "sbbq\t104(%2), %%rcx\n\t"
; 989  :         "movq\t%%rcx, 104(%3)\n\t"
; 990  :         "movq\t112(%1), %%rcx\n\t"
; 991  :         "sbbq\t112(%2), %%rcx\n\t"
; 992  :         "movq\t%%rcx, 112(%3)\n\t"
; 993  :         "movq\t120(%1), %%rcx\n\t"
; 994  :         "sbbq\t120(%2), %%rcx\n\t"
; 995  :         "movq\t%%rcx, 120(%3)\n\t"
; 996  :         "movq\t128(%1), %%rcx\n\t"
; 997  :         "sbbq\t128(%2), %%rcx\n\t"
; 998  :         "movq\t%%rcx, 128(%3)\n\t"
; 999  :         "movq\t136(%1), %%rcx\n\t"
; 1000 :         "sbbq\t136(%2), %%rcx\n\t"
; 1001 :         "movq\t%%rcx, 136(%3)\n\t"
; 1002 :         "movq\t144(%1), %%rcx\n\t"
; 1003 :         "sbbq\t144(%2), %%rcx\n\t"
; 1004 :         "movq\t%%rcx, 144(%3)\n\t"
; 1005 :         "movq\t152(%1), %%rcx\n\t"
; 1006 :         "sbbq\t152(%2), %%rcx\n\t"
; 1007 :         "movq\t%%rcx, 152(%3)\n\t"
; 1008 :         "movq\t160(%1), %%rcx\n\t"
; 1009 :         "sbbq\t160(%2), %%rcx\n\t"
; 1010 :         "movq\t%%rcx, 160(%3)\n\t"
; 1011 :         "movq\t168(%1), %%rcx\n\t"
; 1012 :         "sbbq\t168(%2), %%rcx\n\t"
; 1013 :         "movq\t%%rcx, 168(%3)\n\t"
; 1014 :         "movq\t176(%1), %%rcx\n\t"
; 1015 :         "sbbq\t176(%2), %%rcx\n\t"
; 1016 :         "movq\t%%rcx, 176(%3)\n\t"
; 1017 :         "movq\t184(%1), %%rcx\n\t"
; 1018 :         "sbbq\t184(%2), %%rcx\n\t"
; 1019 :         "movq\t%%rcx, 184(%3)\n\t"
; 1020 :         "movq\t192(%1), %%rcx\n\t"
; 1021 :         "sbbq\t192(%2), %%rcx\n\t"
; 1022 :         "movq\t%%rcx, 192(%3)\n\t"
; 1023 :         "movq\t200(%1), %%rcx\n\t"
; 1024 :         "sbbq\t200(%2), %%rcx\n\t"
; 1025 :         "movq\t%%rcx, 200(%3)\n\t"
; 1026 :         "movq\t208(%1), %%rcx\n\t"
; 1027 :         "sbbq\t208(%2), %%rcx\n\t"
; 1028 :         "movq\t%%rcx, 208(%3)\n\t"
; 1029 :         "movq\t216(%1), %%rcx\n\t"
; 1030 :         "sbbq\t216(%2), %%rcx\n\t"
; 1031 :         "movq\t%%rcx, 216(%3)\n\t"
; 1032 :         "movq\t224(%1), %%rcx\n\t"
; 1033 :         "sbbq\t224(%2), %%rcx\n\t"
; 1034 :         "movq\t%%rcx, 224(%3)\n\t"
; 1035 :         "movq\t232(%1), %%rcx\n\t"
; 1036 :         "sbbq\t232(%2), %%rcx\n\t"
; 1037 :         "movq\t%%rcx, 232(%3)\n\t"
; 1038 :         "movq\t240(%1), %%rcx\n\t"
; 1039 :         "sbbq\t240(%2), %%rcx\n\t"
; 1040 :         "movq\t%%rcx, 240(%3)\n\t"
; 1041 :         "movq\t248(%1), %%rcx\n\t"
; 1042 :         "sbbq\t248(%2), %%rcx\n\t"
; 1043 :         "movq\t%%rcx, 248(%3)\n\t"
; 1044 :         "setc\t%0"
; 1045 :         : "+r"(c), "+r"(xp), "+r"(yp), "+r"(zp)
; 1046 :         :
; 1047 :         : "cc", "memory", "%rcx"
; 1048 : );
; 1049 : #else
; 1050 : #error unknown platform
; 1051 : #endif
; 1052 : #else
; 1053 : #error unknown compiler
; 1054 : #endif
; 1055 :     return (c);

	mov	al, BYTE PTR _c$[ebp]

; 1056 : }

	cmp	ebp, esp
	call	__RTC_CheckEsp
	pop	ebp
	ret	0
__SUBTRUCT_32WORDS_SBB ENDP
_TEXT	ENDS
; Function compile flags: /Odtp /RTCsu
; File z:\sources\lunor\repos\rougemeilland\palmtree.math.core.uint\palmtree.math.core.uint\pmc_inline_func.h
_TEXT	SEGMENT
_pos$ = -8						; size = 4
_x$ = 8							; size = 4
__LZCNT_ALT_UNIT PROC

; 629  :     {

	push	ebp
	mov	ebp, esp
	sub	esp, 12					; 0000000cH
	mov	DWORD PTR [ebp-12], -858993460		; ccccccccH
	mov	DWORD PTR [ebp-8], -858993460		; ccccccccH
	mov	DWORD PTR [ebp-4], -858993460		; ccccccccH
	mov	ecx, OFFSET __8CA3E54E_pmc_inline_func@h
	call	@__CheckForDebuggerJustMyCode@4

; 630  :         if (x == 0)

	cmp	DWORD PTR _x$[ebp], 0
	jne	SHORT $LN2@LZCNT_ALT_

; 631  :             return (sizeof(x) * 8);

	mov	eax, 32					; 00000020H
	jmp	SHORT $LN1@LZCNT_ALT_
$LN2@LZCNT_ALT_:

; 632  : #ifdef _M_IX86
; 633  :         _UINT32_T pos;
; 634  : #ifdef _MSC_VER
; 635  :         _BitScanReverse(&pos, x);

	bsr	eax, DWORD PTR _x$[ebp]
	mov	DWORD PTR _pos$[ebp], eax

; 636  : #elif defined(__GNUC__)
; 637  :         __asm__("bsrl %1, %0" : "=r"(pos) : "rm"(x));
; 638  : #else
; 639  : #error unknown compiler
; 640  : #endif
; 641  : #elif defined(_M_X64)
; 642  : #ifdef _MSC_VER
; 643  :         _UINT32_T pos;
; 644  :         _BitScanReverse64(&pos, x);
; 645  : #elif defined(__GNUC__)
; 646  :         _UINT64_T pos;
; 647  :         __asm__("bsrq %1, %0" : "=r"(pos) : "rm"(x));
; 648  : #else
; 649  : #error unknown compiler
; 650  : #endif
; 651  : #else
; 652  : #error unknown platform
; 653  : #endif
; 654  :         return (sizeof(x) * 8 - 1 - pos);

	mov	eax, 31					; 0000001fH
	sub	eax, DWORD PTR _pos$[ebp]
$LN1@LZCNT_ALT_:

; 655  :     }

	push	edx
	mov	ecx, ebp
	push	eax
	lea	edx, DWORD PTR $LN6@LZCNT_ALT_
	call	@_RTC_CheckStackVars@8
	pop	eax
	pop	edx
	add	esp, 12					; 0000000cH
	cmp	ebp, esp
	call	__RTC_CheckEsp
	mov	esp, ebp
	pop	ebp
	ret	0
$LN6@LZCNT_ALT_:
	DD	1
	DD	$LN5@LZCNT_ALT_
$LN5@LZCNT_ALT_:
	DD	-8					; fffffff8H
	DD	4
	DD	$LN4@LZCNT_ALT_
$LN4@LZCNT_ALT_:
	DB	112					; 00000070H
	DB	111					; 0000006fH
	DB	115					; 00000073H
	DB	0
__LZCNT_ALT_UNIT ENDP
_TEXT	ENDS
; Function compile flags: /Odtp /RTCsu
; File z:\sources\lunor\repos\rougemeilland\palmtree.math.core.uint\palmtree.math.core.uint\pmc_inline_func.h
_TEXT	SEGMENT
_pos$ = -8						; size = 4
_x$ = 8							; size = 4
__LZCNT_ALT_32 PROC

; 596  :     {

	push	ebp
	mov	ebp, esp
	sub	esp, 12					; 0000000cH
	mov	DWORD PTR [ebp-12], -858993460		; ccccccccH
	mov	DWORD PTR [ebp-8], -858993460		; ccccccccH
	mov	DWORD PTR [ebp-4], -858993460		; ccccccccH
	mov	ecx, OFFSET __8CA3E54E_pmc_inline_func@h
	call	@__CheckForDebuggerJustMyCode@4

; 597  :         if (x == 0)

	cmp	DWORD PTR _x$[ebp], 0
	jne	SHORT $LN2@LZCNT_ALT_

; 598  :             return (sizeof(x) * 8);

	mov	eax, 32					; 00000020H
	jmp	SHORT $LN1@LZCNT_ALT_
$LN2@LZCNT_ALT_:

; 599  :         _UINT32_T pos;
; 600  : #ifdef _MSC_VER
; 601  :         _BitScanReverse(&pos, x);

	bsr	eax, DWORD PTR _x$[ebp]
	mov	DWORD PTR _pos$[ebp], eax

; 602  : #elif defined(__GNUC__)
; 603  :         __asm__("bsrl %1, %0" : "=r"(pos) : "rm"(x));
; 604  : #else
; 605  : #error unknown compiler
; 606  : #endif
; 607  :         return (sizeof(x) * 8 - 1 - pos);

	mov	eax, 31					; 0000001fH
	sub	eax, DWORD PTR _pos$[ebp]
$LN1@LZCNT_ALT_:

; 608  :     }

	push	edx
	mov	ecx, ebp
	push	eax
	lea	edx, DWORD PTR $LN6@LZCNT_ALT_
	call	@_RTC_CheckStackVars@8
	pop	eax
	pop	edx
	add	esp, 12					; 0000000cH
	cmp	ebp, esp
	call	__RTC_CheckEsp
	mov	esp, ebp
	pop	ebp
	ret	0
$LN6@LZCNT_ALT_:
	DD	1
	DD	$LN5@LZCNT_ALT_
$LN5@LZCNT_ALT_:
	DD	-8					; fffffff8H
	DD	4
	DD	$LN4@LZCNT_ALT_
$LN4@LZCNT_ALT_:
	DB	112					; 00000070H
	DB	111					; 0000006fH
	DB	115					; 00000073H
	DB	0
__LZCNT_ALT_32 ENDP
_TEXT	ENDS
; Function compile flags: /Odtp /RTCsu
; File z:\sources\lunor\repos\rougemeilland\palmtree.math.core.uint\palmtree.math.core.uint\pmc_inline_func.h
_TEXT	SEGMENT
_borrow$ = 8						; size = 1
_u$ = 12						; size = 4
_v$ = 16						; size = 4
_w$ = 20						; size = 4
__SUBTRUCT_UNIT PROC

; 269  :     {

	push	ebp
	mov	ebp, esp
	push	ebx
	mov	ecx, OFFSET __8CA3E54E_pmc_inline_func@h
	call	@__CheckForDebuggerJustMyCode@4

; 270  : #ifdef _M_IX86
; 271  :         return (_subborrow_u32(borrow, u, v, w));

	mov	eax, DWORD PTR _w$[ebp]
	mov	ecx, DWORD PTR _v$[ebp]
	mov	edx, DWORD PTR _u$[ebp]
	mov	bl, BYTE PTR _borrow$[ebp]
	add	bl, 255					; 000000ffH
	sbb	edx, ecx
	setb	cl
	mov	DWORD PTR [eax], edx
	mov	al, cl

; 272  : #elif defined(_M_X64)
; 273  :         return (_subborrow_u64(borrow, u, v, w));
; 274  : #else
; 275  : #error unknown platform
; 276  : #endif
; 277  :     }

	pop	ebx
	cmp	ebp, esp
	call	__RTC_CheckEsp
	pop	ebp
	ret	0
__SUBTRUCT_UNIT ENDP
_TEXT	ENDS
; Function compile flags: /Odtp /RTCsu
; File z:\sources\lunor\repos\rougemeilland\palmtree.math.core.uint\palmtree.math.core.uint\pmc_inline_func.h
_TEXT	SEGMENT
_value$ = 8						; size = 8
_result_high$ = 16					; size = 4
__FROMDWORDTOWORD PROC

; 182  :     {

	push	ebp
	mov	ebp, esp
	mov	ecx, OFFSET __8CA3E54E_pmc_inline_func@h
	call	@__CheckForDebuggerJustMyCode@4

; 183  :         *result_high = (_UINT32_T)(value >> 32);

	mov	eax, DWORD PTR _value$[ebp]
	mov	edx, DWORD PTR _value$[ebp+4]
	mov	cl, 32					; 00000020H
	call	__aullshr
	mov	ecx, DWORD PTR _result_high$[ebp]
	mov	DWORD PTR [ecx], eax

; 184  :         return ((_UINT32_T)value);

	mov	eax, DWORD PTR _value$[ebp]

; 185  :     }

	cmp	ebp, esp
	call	__RTC_CheckEsp
	pop	ebp
	ret	0
__FROMDWORDTOWORD ENDP
_TEXT	ENDS
; Function compile flags: /Odtp /RTCsu
; File z:\sources\lunor\repos\rougemeilland\palmtree.math.core.uint\palmtree.math.core.uint\pmc_inline_func.h
_TEXT	SEGMENT
_value_high$ = 8					; size = 4
_value_low$ = 12					; size = 4
__FROMWORDTODWORD PROC

; 177  :     {

	push	ebp
	mov	ebp, esp
	mov	ecx, OFFSET __8CA3E54E_pmc_inline_func@h
	call	@__CheckForDebuggerJustMyCode@4

; 178  :         return (((_UINT64_T)value_high << 32) | value_low);

	xor	edx, edx
	mov	eax, DWORD PTR _value_high$[ebp]
	mov	cl, 32					; 00000020H
	call	__allshl
	xor	ecx, ecx
	or	eax, DWORD PTR _value_low$[ebp]
	or	edx, ecx

; 179  :     }

	cmp	ebp, esp
	call	__RTC_CheckEsp
	pop	ebp
	ret	0
__FROMWORDTODWORD ENDP
_TEXT	ENDS
; Function compile flags: /Odtp /RTCsu
; File z:\sources\lunor\repos\rougemeilland\palmtree.math.core.uint\palmtree.math.core.uint\pmc_subtruct.c
_TEXT	SEGMENT
tv145 = -52						; size = 4
_nz_light_check_code$1 = -44				; size = 4
_z_bit_count$2 = -36					; size = 4
_y_bit_count$3 = -32					; size = 4
_x_bit_count$4 = -28					; size = 4
_nz$ = -20						; size = 4
_result$ = -12						; size = 4
_ny$ = -8						; size = 4
_nx$ = -4						; size = 4
_x$ = 8							; size = 4
_y$ = 12						; size = 4
_o$ = 16						; size = 4
_PMC_Subtruct_X_X@12 PROC

; 665  : {

	push	ebp
	mov	ebp, esp
	sub	esp, 52					; 00000034H
	push	edi
	lea	edi, DWORD PTR [ebp-52]
	mov	ecx, 13					; 0000000dH
	mov	eax, -858993460				; ccccccccH
	rep stosd
	mov	ecx, OFFSET __6B07DC87_pmc_subtruct@c
	call	@__CheckForDebuggerJustMyCode@4

; 666  :     if (x == NULL)

	cmp	DWORD PTR _x$[ebp], 0
	jne	SHORT $LN2@PMC_Subtru

; 667  :         return (PMC_STATUS_ARGUMENT_ERROR);

	or	eax, -1
	jmp	$LN1@PMC_Subtru
$LN2@PMC_Subtru:

; 668  :     if (y == NULL)

	cmp	DWORD PTR _y$[ebp], 0
	jne	SHORT $LN3@PMC_Subtru

; 669  :         return (PMC_STATUS_ARGUMENT_ERROR);

	or	eax, -1
	jmp	$LN1@PMC_Subtru
$LN3@PMC_Subtru:

; 670  :     if (o == NULL)

	cmp	DWORD PTR _o$[ebp], 0
	jne	SHORT $LN4@PMC_Subtru

; 671  :         return (PMC_STATUS_ARGUMENT_ERROR);

	or	eax, -1
	jmp	$LN1@PMC_Subtru
$LN4@PMC_Subtru:

; 672  :     NUMBER_HEADER* nx = (NUMBER_HEADER*)x;

	mov	eax, DWORD PTR _x$[ebp]
	mov	DWORD PTR _nx$[ebp], eax

; 673  :     NUMBER_HEADER* ny = (NUMBER_HEADER*)y;

	mov	ecx, DWORD PTR _y$[ebp]
	mov	DWORD PTR _ny$[ebp], ecx

; 674  :     PMC_STATUS_CODE result;
; 675  :     if ((result = CheckNumber(nx)) != PMC_STATUS_OK)

	mov	edx, DWORD PTR _nx$[ebp]
	push	edx
	call	_CheckNumber
	add	esp, 4
	mov	DWORD PTR _result$[ebp], eax
	cmp	DWORD PTR _result$[ebp], 0
	je	SHORT $LN5@PMC_Subtru

; 676  :         return (result);

	mov	eax, DWORD PTR _result$[ebp]
	jmp	$LN1@PMC_Subtru
$LN5@PMC_Subtru:

; 677  :     if ((result = CheckNumber(ny)) != PMC_STATUS_OK)

	mov	eax, DWORD PTR _ny$[ebp]
	push	eax
	call	_CheckNumber
	add	esp, 4
	mov	DWORD PTR _result$[ebp], eax
	cmp	DWORD PTR _result$[ebp], 0
	je	SHORT $LN6@PMC_Subtru

; 678  :         return (result);

	mov	eax, DWORD PTR _result$[ebp]
	jmp	$LN1@PMC_Subtru
$LN6@PMC_Subtru:

; 679  :     NUMBER_HEADER* nz;
; 680  :     if (nx->IS_ZERO)

	mov	ecx, DWORD PTR _nx$[ebp]
	mov	edx, DWORD PTR [ecx+24]
	shr	edx, 1
	and	edx, 1
	je	SHORT $LN7@PMC_Subtru

; 681  :     {
; 682  :         if (ny->IS_ZERO)

	mov	eax, DWORD PTR _ny$[ebp]
	mov	ecx, DWORD PTR [eax+24]
	shr	ecx, 1
	and	ecx, 1
	je	SHORT $LN9@PMC_Subtru

; 683  :         {
; 684  :             // y が 0 である場合
; 685  : 
; 686  :             // x と y がともに 0 であるので、演算結果の 0 を呼び出し元に返す。
; 687  :             *o = &number_zero;

	mov	edx, DWORD PTR _o$[ebp]
	mov	DWORD PTR [edx], OFFSET _number_zero

; 688  :         }

	jmp	SHORT $LN10@PMC_Subtru
$LN9@PMC_Subtru:

; 689  :         else
; 690  :         {
; 691  :             // y が 0 ではない場合
; 692  : 
; 693  :             // 演算結果は負となってしまうのでエラーを返す。
; 694  :             return (PMC_STATUS_OVERFLOW);

	mov	eax, -2					; fffffffeH
	jmp	$LN1@PMC_Subtru
$LN10@PMC_Subtru:

; 695  :         }
; 696  :     }

	jmp	$LN8@PMC_Subtru
$LN7@PMC_Subtru:

; 697  :     else
; 698  :     {
; 699  :         // x が 0 ではない場合
; 700  : 
; 701  :         if (ny->IS_ZERO)

	mov	eax, DWORD PTR _ny$[ebp]
	mov	ecx, DWORD PTR [eax+24]
	shr	ecx, 1
	and	ecx, 1
	je	SHORT $LN11@PMC_Subtru

; 702  :         {
; 703  :             // y が 0 である場合
; 704  : 
; 705  :             // 演算結果となる x の値を持つ NUMBER_HEADER 構造体を獲得し、呼び出し元へ返す。
; 706  :             if ((result = DuplicateNumber(nx, &nz)) != PMC_STATUS_OK)

	lea	edx, DWORD PTR _nz$[ebp]
	push	edx
	mov	eax, DWORD PTR _nx$[ebp]
	push	eax
	call	_DuplicateNumber
	add	esp, 8
	mov	DWORD PTR _result$[ebp], eax
	cmp	DWORD PTR _result$[ebp], 0
	je	SHORT $LN13@PMC_Subtru

; 707  :                 return (result);

	mov	eax, DWORD PTR _result$[ebp]
	jmp	$LN1@PMC_Subtru
$LN13@PMC_Subtru:

; 708  :         }

	jmp	$LN12@PMC_Subtru
$LN11@PMC_Subtru:

; 709  :         else
; 710  :         {
; 711  :             // x と y がともに 0 ではない場合
; 712  : 
; 713  :             // x と y の差を計算する
; 714  :             __UNIT_TYPE x_bit_count = nx->UNIT_BIT_COUNT;

	mov	ecx, DWORD PTR _nx$[ebp]
	mov	edx, DWORD PTR [ecx+12]
	mov	DWORD PTR _x_bit_count$4[ebp], edx

; 715  :             __UNIT_TYPE y_bit_count = ny->UNIT_BIT_COUNT;

	mov	eax, DWORD PTR _ny$[ebp]
	mov	ecx, DWORD PTR [eax+12]
	mov	DWORD PTR _y_bit_count$3[ebp], ecx

; 716  :             if (x_bit_count < y_bit_count)

	mov	edx, DWORD PTR _x_bit_count$4[ebp]
	cmp	edx, DWORD PTR _y_bit_count$3[ebp]
	jae	SHORT $LN14@PMC_Subtru

; 717  :             {
; 718  :                 // 演算結果は負となってしまうのでエラーを返す。
; 719  :                 return (PMC_STATUS_OVERFLOW);

	mov	eax, -2					; fffffffeH
	jmp	$LN1@PMC_Subtru
$LN14@PMC_Subtru:

; 720  :             }
; 721  :             __UNIT_TYPE z_bit_count = x_bit_count;

	mov	eax, DWORD PTR _x_bit_count$4[ebp]
	mov	DWORD PTR _z_bit_count$2[ebp], eax

; 722  :             __UNIT_TYPE nz_light_check_code;
; 723  :             if ((result = AllocateNumber(&nz, z_bit_count, &nz_light_check_code)) != PMC_STATUS_OK)

	lea	ecx, DWORD PTR _nz_light_check_code$1[ebp]
	push	ecx
	mov	edx, DWORD PTR _z_bit_count$2[ebp]
	push	edx
	lea	eax, DWORD PTR _nz$[ebp]
	push	eax
	call	_AllocateNumber
	add	esp, 12					; 0000000cH
	mov	DWORD PTR _result$[ebp], eax
	cmp	DWORD PTR _result$[ebp], 0
	je	SHORT $LN15@PMC_Subtru

; 724  :                 return (result);

	mov	eax, DWORD PTR _result$[ebp]
	jmp	$LN1@PMC_Subtru
$LN15@PMC_Subtru:

; 725  :             if ((result = Subtruct_Imp(nx->BLOCK, nx->UNIT_WORD_COUNT, ny->BLOCK, ny->UNIT_WORD_COUNT, nz->BLOCK, nz->BLOCK_COUNT)) != PMC_STATUS_OK)

	mov	ecx, DWORD PTR _nz$[ebp]
	mov	edx, DWORD PTR [ecx+28]
	push	edx
	mov	eax, DWORD PTR _nz$[ebp]
	mov	ecx, DWORD PTR [eax+32]
	push	ecx
	mov	edx, DWORD PTR _ny$[ebp]
	mov	eax, DWORD PTR [edx+8]
	push	eax
	mov	ecx, DWORD PTR _ny$[ebp]
	mov	edx, DWORD PTR [ecx+32]
	push	edx
	mov	eax, DWORD PTR _nx$[ebp]
	mov	ecx, DWORD PTR [eax+8]
	push	ecx
	mov	edx, DWORD PTR _nx$[ebp]
	mov	eax, DWORD PTR [edx+32]
	push	eax
	call	_Subtruct_Imp
	add	esp, 24					; 00000018H
	mov	DWORD PTR _result$[ebp], eax
	cmp	DWORD PTR _result$[ebp], 0
	je	SHORT $LN16@PMC_Subtru

; 726  :             {
; 727  :                 DeallocateNumber(nz);

	mov	ecx, DWORD PTR _nz$[ebp]
	push	ecx
	call	_DeallocateNumber
	add	esp, 4

; 728  :                 return (result == PMC_STATUS_INTERNAL_BORROW ? PMC_STATUS_OVERFLOW : result);

	cmp	DWORD PTR _result$[ebp], -258		; fffffefeH
	jne	SHORT $LN20@PMC_Subtru
	mov	DWORD PTR tv145[ebp], -2		; fffffffeH
	jmp	SHORT $LN21@PMC_Subtru
$LN20@PMC_Subtru:
	mov	edx, DWORD PTR _result$[ebp]
	mov	DWORD PTR tv145[ebp], edx
$LN21@PMC_Subtru:
	mov	eax, DWORD PTR tv145[ebp]
	jmp	SHORT $LN1@PMC_Subtru
$LN16@PMC_Subtru:

; 729  :             }
; 730  :             if ((result = CheckBlockLight(nz->BLOCK, nz_light_check_code)) != PMC_STATUS_OK)

	mov	eax, DWORD PTR _nz_light_check_code$1[ebp]
	push	eax
	mov	ecx, DWORD PTR _nz$[ebp]
	mov	edx, DWORD PTR [ecx+32]
	push	edx
	call	_CheckBlockLight
	add	esp, 8
	mov	DWORD PTR _result$[ebp], eax
	cmp	DWORD PTR _result$[ebp], 0
	je	SHORT $LN17@PMC_Subtru

; 731  :                 return (result);

	mov	eax, DWORD PTR _result$[ebp]
	jmp	SHORT $LN1@PMC_Subtru
$LN17@PMC_Subtru:

; 732  :             CommitNumber(nz);

	mov	eax, DWORD PTR _nz$[ebp]
	push	eax
	call	_CommitNumber
	add	esp, 4
$LN12@PMC_Subtru:

; 733  :         }
; 734  :         *o = nz;

	mov	ecx, DWORD PTR _o$[ebp]
	mov	edx, DWORD PTR _nz$[ebp]
	mov	DWORD PTR [ecx], edx
$LN8@PMC_Subtru:

; 735  :     }
; 736  : #ifdef _DEBUG
; 737  :     if ((result = CheckNumber(*o)) != PMC_STATUS_OK)

	mov	eax, DWORD PTR _o$[ebp]
	mov	ecx, DWORD PTR [eax]
	push	ecx
	call	_CheckNumber
	add	esp, 4
	mov	DWORD PTR _result$[ebp], eax
	cmp	DWORD PTR _result$[ebp], 0
	je	SHORT $LN18@PMC_Subtru

; 738  :         return (result);

	mov	eax, DWORD PTR _result$[ebp]
	jmp	SHORT $LN1@PMC_Subtru
$LN18@PMC_Subtru:

; 739  : #endif
; 740  :     return (PMC_STATUS_OK);

	xor	eax, eax
$LN1@PMC_Subtru:

; 741  : }

	push	edx
	mov	ecx, ebp
	push	eax
	lea	edx, DWORD PTR $LN25@PMC_Subtru
	call	@_RTC_CheckStackVars@8
	pop	eax
	pop	edx
	pop	edi
	add	esp, 52					; 00000034H
	cmp	ebp, esp
	call	__RTC_CheckEsp
	mov	esp, ebp
	pop	ebp
	ret	12					; 0000000cH
	npad	1
$LN25@PMC_Subtru:
	DD	2
	DD	$LN24@PMC_Subtru
$LN24@PMC_Subtru:
	DD	-20					; ffffffecH
	DD	4
	DD	$LN22@PMC_Subtru
	DD	-44					; ffffffd4H
	DD	4
	DD	$LN23@PMC_Subtru
$LN23@PMC_Subtru:
	DB	110					; 0000006eH
	DB	122					; 0000007aH
	DB	95					; 0000005fH
	DB	108					; 0000006cH
	DB	105					; 00000069H
	DB	103					; 00000067H
	DB	104					; 00000068H
	DB	116					; 00000074H
	DB	95					; 0000005fH
	DB	99					; 00000063H
	DB	104					; 00000068H
	DB	101					; 00000065H
	DB	99					; 00000063H
	DB	107					; 0000006bH
	DB	95					; 0000005fH
	DB	99					; 00000063H
	DB	111					; 0000006fH
	DB	100					; 00000064H
	DB	101					; 00000065H
	DB	0
$LN22@PMC_Subtru:
	DB	110					; 0000006eH
	DB	122					; 0000007aH
	DB	0
_PMC_Subtruct_X_X@12 ENDP
_TEXT	ENDS
; Function compile flags: /Odtp /RTCsu
; File z:\sources\lunor\repos\rougemeilland\palmtree.math.core.uint\palmtree.math.core.uint\pmc_subtruct.c
_TEXT	SEGMENT
tv200 = -116						; size = 4
tv169 = -112						; size = 4
tv140 = -108						; size = 4
_nz_light_check_code$1 = -100				; size = 4
_z_bit_count$2 = -92					; size = 4
_y_bit_count$3 = -88					; size = 4
_x_bit_count$4 = -84					; size = 4
_nz_light_check_code$5 = -76				; size = 4
_z_bit_count$6 = -68					; size = 4
_y_bit_count$7 = -64					; size = 4
_nz_light_check_code$8 = -56				; size = 4
_z_bit_count$9 = -48					; size = 4
_y_bit_count$10 = -44					; size = 4
_y_lo$11 = -40						; size = 4
_y_hi$12 = -32						; size = 4
_x_bit_count$13 = -24					; size = 4
_nz$ = -16						; size = 4
_result$ = -8						; size = 4
_nx$ = -4						; size = 4
_x$ = 8							; size = 4
_y$ = 12						; size = 8
_o$ = 20						; size = 4
_PMC_Subtruct_X_L@16 PROC

; 524  : {

	push	ebp
	mov	ebp, esp
	sub	esp, 116				; 00000074H
	push	edi
	lea	edi, DWORD PTR [ebp-116]
	mov	ecx, 29					; 0000001dH
	mov	eax, -858993460				; ccccccccH
	rep stosd
	mov	ecx, OFFSET __6B07DC87_pmc_subtruct@c
	call	@__CheckForDebuggerJustMyCode@4

; 525  :     if (__UNIT_TYPE_BIT_COUNT * 2 < sizeof(y) * 8)

	xor	eax, eax
	je	SHORT $LN2@PMC_Subtru

; 526  :     {
; 527  :         // _UINT64_T が 2 ワードで表現しきれない処理系には対応しない
; 528  :         return (PMC_STATUS_INTERNAL_ERROR);

	mov	eax, -256				; ffffff00H
	jmp	$LN1@PMC_Subtru
$LN2@PMC_Subtru:

; 529  :     }
; 530  :     if (x == NULL)

	cmp	DWORD PTR _x$[ebp], 0
	jne	SHORT $LN3@PMC_Subtru

; 531  :         return (PMC_STATUS_ARGUMENT_ERROR);

	or	eax, -1
	jmp	$LN1@PMC_Subtru
$LN3@PMC_Subtru:

; 532  :     if (o == NULL)

	cmp	DWORD PTR _o$[ebp], 0
	jne	SHORT $LN4@PMC_Subtru

; 533  :         return (PMC_STATUS_ARGUMENT_ERROR);

	or	eax, -1
	jmp	$LN1@PMC_Subtru
$LN4@PMC_Subtru:

; 534  :     NUMBER_HEADER* nx = (NUMBER_HEADER*)x;

	mov	ecx, DWORD PTR _x$[ebp]
	mov	DWORD PTR _nx$[ebp], ecx

; 535  :     PMC_STATUS_CODE result;
; 536  :     if ((result = CheckNumber(nx)) != PMC_STATUS_OK)

	mov	edx, DWORD PTR _nx$[ebp]
	push	edx
	call	_CheckNumber
	add	esp, 4
	mov	DWORD PTR _result$[ebp], eax
	cmp	DWORD PTR _result$[ebp], 0
	je	SHORT $LN5@PMC_Subtru

; 537  :         return (result);

	mov	eax, DWORD PTR _result$[ebp]
	jmp	$LN1@PMC_Subtru
$LN5@PMC_Subtru:

; 538  :     NUMBER_HEADER* nz;
; 539  :     if (nx->IS_ZERO)

	mov	eax, DWORD PTR _nx$[ebp]
	mov	ecx, DWORD PTR [eax+24]
	shr	ecx, 1
	and	ecx, 1
	je	SHORT $LN6@PMC_Subtru

; 540  :     {
; 541  :         // x が 0 である場合
; 542  : 
; 543  :         if (y == 0)

	mov	edx, DWORD PTR _y$[ebp]
	or	edx, DWORD PTR _y$[ebp+4]
	jne	SHORT $LN8@PMC_Subtru

; 544  :         {
; 545  :             // y が 0 である場合
; 546  : 
; 547  :             // x と y がともに 0 であるので、演算結果の 0 を呼び出し元に返す。
; 548  :             *o = &number_zero;

	mov	eax, DWORD PTR _o$[ebp]
	mov	DWORD PTR [eax], OFFSET _number_zero

; 549  :         }

	jmp	SHORT $LN9@PMC_Subtru
$LN8@PMC_Subtru:

; 550  :         else
; 551  :         {
; 552  :             // y が 0 ではない場合
; 553  : 
; 554  :             // 演算結果は負となってしまうのでエラーを返す。
; 555  :             return (PMC_STATUS_OVERFLOW);

	mov	eax, -2					; fffffffeH
	jmp	$LN1@PMC_Subtru
$LN9@PMC_Subtru:

; 556  :         }
; 557  :     }

	jmp	$LN7@PMC_Subtru
$LN6@PMC_Subtru:

; 558  :     else
; 559  :     {
; 560  :         // x が 0 ではない場合
; 561  : 
; 562  :         if (y == 0)

	mov	ecx, DWORD PTR _y$[ebp]
	or	ecx, DWORD PTR _y$[ebp+4]
	jne	SHORT $LN10@PMC_Subtru

; 563  :         {
; 564  :             // y が 0 である場合
; 565  : 
; 566  :             // 演算結果となる x の値を持つ NUMBER_HEADER 構造体を獲得し、呼び出し元へ返す。
; 567  :             if ((result = DuplicateNumber(nx, &nz)) != PMC_STATUS_OK)

	lea	edx, DWORD PTR _nz$[ebp]
	push	edx
	mov	eax, DWORD PTR _nx$[ebp]
	push	eax
	call	_DuplicateNumber
	add	esp, 8
	mov	DWORD PTR _result$[ebp], eax
	cmp	DWORD PTR _result$[ebp], 0
	je	SHORT $LN12@PMC_Subtru

; 568  :                 return (result);

	mov	eax, DWORD PTR _result$[ebp]
	jmp	$LN1@PMC_Subtru
$LN12@PMC_Subtru:

; 569  :         }

	jmp	$LN11@PMC_Subtru
$LN10@PMC_Subtru:

; 570  :         else
; 571  :         {
; 572  :             // x と y がともに 0 ではない場合
; 573  : 
; 574  :             // x と y の差を計算する
; 575  :             if (__UNIT_TYPE_BIT_COUNT < sizeof(y) * 8)

	mov	ecx, 1
	test	ecx, ecx
	je	$LN13@PMC_Subtru

; 576  :             {
; 577  :                 // _UINT64_T が 1 ワードで表現しきれない場合
; 578  : 
; 579  :                 __UNIT_TYPE x_bit_count = nx->UNIT_BIT_COUNT;

	mov	edx, DWORD PTR _nx$[ebp]
	mov	eax, DWORD PTR [edx+12]
	mov	DWORD PTR _x_bit_count$13[ebp], eax

; 580  :                 _UINT32_T y_hi;
; 581  :                 _UINT32_T y_lo = _FROMDWORDTOWORD(y, &y_hi);

	lea	ecx, DWORD PTR _y_hi$12[ebp]
	push	ecx
	mov	edx, DWORD PTR _y$[ebp+4]
	push	edx
	mov	eax, DWORD PTR _y$[ebp]
	push	eax
	call	__FROMDWORDTOWORD
	add	esp, 12					; 0000000cH
	mov	DWORD PTR _y_lo$11[ebp], eax

; 582  :                 if (y_hi == 0)

	cmp	DWORD PTR _y_hi$12[ebp], 0
	jne	$LN15@PMC_Subtru

; 583  :                 {
; 584  :                     // y の値が 32bit で表現可能な場合
; 585  :                     __UNIT_TYPE y_bit_count = sizeof(y_lo) * 8 - _LZCNT_ALT_32(y_lo);

	mov	ecx, DWORD PTR _y_lo$11[ebp]
	push	ecx
	call	__LZCNT_ALT_32
	add	esp, 4
	mov	edx, 32					; 00000020H
	sub	edx, eax
	mov	DWORD PTR _y_bit_count$10[ebp], edx

; 586  :                     if (x_bit_count < y_bit_count)

	mov	eax, DWORD PTR _x_bit_count$13[ebp]
	cmp	eax, DWORD PTR _y_bit_count$10[ebp]
	jae	SHORT $LN17@PMC_Subtru

; 587  :                     {
; 588  :                         // 演算結果は負となってしまうのでエラーを返す。
; 589  :                         return (PMC_STATUS_OVERFLOW);

	mov	eax, -2					; fffffffeH
	jmp	$LN1@PMC_Subtru
$LN17@PMC_Subtru:

; 590  :                     }
; 591  :                     __UNIT_TYPE z_bit_count = x_bit_count;

	mov	ecx, DWORD PTR _x_bit_count$13[ebp]
	mov	DWORD PTR _z_bit_count$9[ebp], ecx

; 592  :                     __UNIT_TYPE nz_light_check_code;
; 593  :                     if ((result = AllocateNumber(&nz, z_bit_count, &nz_light_check_code)) != PMC_STATUS_OK)

	lea	edx, DWORD PTR _nz_light_check_code$8[ebp]
	push	edx
	mov	eax, DWORD PTR _z_bit_count$9[ebp]
	push	eax
	lea	ecx, DWORD PTR _nz$[ebp]
	push	ecx
	call	_AllocateNumber
	add	esp, 12					; 0000000cH
	mov	DWORD PTR _result$[ebp], eax
	cmp	DWORD PTR _result$[ebp], 0
	je	SHORT $LN18@PMC_Subtru

; 594  :                         return (result);

	mov	eax, DWORD PTR _result$[ebp]
	jmp	$LN1@PMC_Subtru
$LN18@PMC_Subtru:

; 595  :                     if ((result = Subtruct_X_1W(nx->BLOCK, nx->UNIT_WORD_COUNT, y_lo, nz->BLOCK, nz->BLOCK_COUNT)) != PMC_STATUS_OK)

	mov	edx, DWORD PTR _nz$[ebp]
	mov	eax, DWORD PTR [edx+28]
	push	eax
	mov	ecx, DWORD PTR _nz$[ebp]
	mov	edx, DWORD PTR [ecx+32]
	push	edx
	mov	eax, DWORD PTR _y_lo$11[ebp]
	push	eax
	mov	ecx, DWORD PTR _nx$[ebp]
	mov	edx, DWORD PTR [ecx+8]
	push	edx
	mov	eax, DWORD PTR _nx$[ebp]
	mov	ecx, DWORD PTR [eax+32]
	push	ecx
	call	_Subtruct_X_1W
	add	esp, 20					; 00000014H
	mov	DWORD PTR _result$[ebp], eax
	cmp	DWORD PTR _result$[ebp], 0
	je	SHORT $LN19@PMC_Subtru

; 596  :                     {
; 597  :                         DeallocateNumber(nz);

	mov	edx, DWORD PTR _nz$[ebp]
	push	edx
	call	_DeallocateNumber
	add	esp, 4

; 598  :                         return (result == PMC_STATUS_INTERNAL_BORROW ? PMC_STATUS_OVERFLOW : result);

	cmp	DWORD PTR _result$[ebp], -258		; fffffefeH
	jne	SHORT $LN32@PMC_Subtru
	mov	DWORD PTR tv140[ebp], -2		; fffffffeH
	jmp	SHORT $LN33@PMC_Subtru
$LN32@PMC_Subtru:
	mov	eax, DWORD PTR _result$[ebp]
	mov	DWORD PTR tv140[ebp], eax
$LN33@PMC_Subtru:
	mov	eax, DWORD PTR tv140[ebp]
	jmp	$LN1@PMC_Subtru
$LN19@PMC_Subtru:

; 599  :                     }
; 600  :                     if ((result = CheckBlockLight(nz->BLOCK, nz_light_check_code)) != PMC_STATUS_OK)

	mov	ecx, DWORD PTR _nz_light_check_code$8[ebp]
	push	ecx
	mov	edx, DWORD PTR _nz$[ebp]
	mov	eax, DWORD PTR [edx+32]
	push	eax
	call	_CheckBlockLight
	add	esp, 8
	mov	DWORD PTR _result$[ebp], eax
	cmp	DWORD PTR _result$[ebp], 0
	je	SHORT $LN20@PMC_Subtru

; 601  :                         return (result);

	mov	eax, DWORD PTR _result$[ebp]
	jmp	$LN1@PMC_Subtru
$LN20@PMC_Subtru:

; 602  :                 }

	jmp	$LN16@PMC_Subtru
$LN15@PMC_Subtru:

; 603  :                 else
; 604  :                 {
; 605  :                     // y の値が 32bit では表現できない場合
; 606  :                     __UNIT_TYPE y_bit_count = sizeof(y) * 8 - _LZCNT_ALT_32(y_hi);

	mov	ecx, DWORD PTR _y_hi$12[ebp]
	push	ecx
	call	__LZCNT_ALT_32
	add	esp, 4
	mov	edx, 64					; 00000040H
	sub	edx, eax
	mov	DWORD PTR _y_bit_count$7[ebp], edx

; 607  :                     if (x_bit_count < y_bit_count)

	mov	eax, DWORD PTR _x_bit_count$13[ebp]
	cmp	eax, DWORD PTR _y_bit_count$7[ebp]
	jae	SHORT $LN21@PMC_Subtru

; 608  :                     {
; 609  :                         // 演算結果は負となってしまうのでエラーを返す。
; 610  :                         return (PMC_STATUS_OVERFLOW);

	mov	eax, -2					; fffffffeH
	jmp	$LN1@PMC_Subtru
$LN21@PMC_Subtru:

; 611  :                     }
; 612  :                     __UNIT_TYPE z_bit_count = x_bit_count;

	mov	ecx, DWORD PTR _x_bit_count$13[ebp]
	mov	DWORD PTR _z_bit_count$6[ebp], ecx

; 613  :                     __UNIT_TYPE nz_light_check_code;
; 614  :                     if ((result = AllocateNumber(&nz, z_bit_count, &nz_light_check_code)) != PMC_STATUS_OK)

	lea	edx, DWORD PTR _nz_light_check_code$5[ebp]
	push	edx
	mov	eax, DWORD PTR _z_bit_count$6[ebp]
	push	eax
	lea	ecx, DWORD PTR _nz$[ebp]
	push	ecx
	call	_AllocateNumber
	add	esp, 12					; 0000000cH
	mov	DWORD PTR _result$[ebp], eax
	cmp	DWORD PTR _result$[ebp], 0
	je	SHORT $LN22@PMC_Subtru

; 615  :                         return (result);

	mov	eax, DWORD PTR _result$[ebp]
	jmp	$LN1@PMC_Subtru
$LN22@PMC_Subtru:

; 616  :                     if ((result = Subtruct_X_2W(nx->BLOCK, nx->UNIT_WORD_COUNT, y_hi, y_lo, nz->BLOCK, nz->BLOCK_COUNT)) != PMC_STATUS_OK)

	mov	edx, DWORD PTR _nz$[ebp]
	mov	eax, DWORD PTR [edx+28]
	push	eax
	mov	ecx, DWORD PTR _nz$[ebp]
	mov	edx, DWORD PTR [ecx+32]
	push	edx
	mov	eax, DWORD PTR _y_lo$11[ebp]
	push	eax
	mov	ecx, DWORD PTR _y_hi$12[ebp]
	push	ecx
	mov	edx, DWORD PTR _nx$[ebp]
	mov	eax, DWORD PTR [edx+8]
	push	eax
	mov	ecx, DWORD PTR _nx$[ebp]
	mov	edx, DWORD PTR [ecx+32]
	push	edx
	call	_Subtruct_X_2W
	add	esp, 24					; 00000018H
	mov	DWORD PTR _result$[ebp], eax
	cmp	DWORD PTR _result$[ebp], 0
	je	SHORT $LN23@PMC_Subtru

; 617  :                     {
; 618  :                         DeallocateNumber(nz);

	mov	eax, DWORD PTR _nz$[ebp]
	push	eax
	call	_DeallocateNumber
	add	esp, 4

; 619  :                         return (result == PMC_STATUS_INTERNAL_BORROW ? PMC_STATUS_OVERFLOW : result);

	cmp	DWORD PTR _result$[ebp], -258		; fffffefeH
	jne	SHORT $LN34@PMC_Subtru
	mov	DWORD PTR tv169[ebp], -2		; fffffffeH
	jmp	SHORT $LN35@PMC_Subtru
$LN34@PMC_Subtru:
	mov	ecx, DWORD PTR _result$[ebp]
	mov	DWORD PTR tv169[ebp], ecx
$LN35@PMC_Subtru:
	mov	eax, DWORD PTR tv169[ebp]
	jmp	$LN1@PMC_Subtru
$LN23@PMC_Subtru:

; 620  :                     }
; 621  :                     if ((result = CheckBlockLight(nz->BLOCK, nz_light_check_code)) != PMC_STATUS_OK)

	mov	edx, DWORD PTR _nz_light_check_code$5[ebp]
	push	edx
	mov	eax, DWORD PTR _nz$[ebp]
	mov	ecx, DWORD PTR [eax+32]
	push	ecx
	call	_CheckBlockLight
	add	esp, 8
	mov	DWORD PTR _result$[ebp], eax
	cmp	DWORD PTR _result$[ebp], 0
	je	SHORT $LN16@PMC_Subtru

; 622  :                         return (result);

	mov	eax, DWORD PTR _result$[ebp]
	jmp	$LN1@PMC_Subtru
$LN16@PMC_Subtru:

; 623  :                 }
; 624  :             }

	jmp	$LN14@PMC_Subtru
$LN13@PMC_Subtru:

; 625  :             else
; 626  :             {
; 627  :                 // _UINT64_T が 1 ワードで表現できる場合
; 628  : 
; 629  :                 __UNIT_TYPE x_bit_count = nx->UNIT_BIT_COUNT;

	mov	edx, DWORD PTR _nx$[ebp]
	mov	eax, DWORD PTR [edx+12]
	mov	DWORD PTR _x_bit_count$4[ebp], eax

; 630  :                 __UNIT_TYPE y_bit_count = sizeof(y) * 8 - _LZCNT_ALT_UNIT((__UNIT_TYPE)y);

	mov	ecx, DWORD PTR _y$[ebp]
	push	ecx
	call	__LZCNT_ALT_UNIT
	add	esp, 4
	mov	edx, 64					; 00000040H
	sub	edx, eax
	mov	DWORD PTR _y_bit_count$3[ebp], edx

; 631  :                 if (x_bit_count < y_bit_count)

	mov	eax, DWORD PTR _x_bit_count$4[ebp]
	cmp	eax, DWORD PTR _y_bit_count$3[ebp]
	jae	SHORT $LN25@PMC_Subtru

; 632  :                 {
; 633  :                     // 演算結果は負となってしまうのでエラーを返す。
; 634  :                     return (PMC_STATUS_OVERFLOW);

	mov	eax, -2					; fffffffeH
	jmp	$LN1@PMC_Subtru
$LN25@PMC_Subtru:

; 635  :                 }
; 636  :                 __UNIT_TYPE z_bit_count = x_bit_count;

	mov	ecx, DWORD PTR _x_bit_count$4[ebp]
	mov	DWORD PTR _z_bit_count$2[ebp], ecx

; 637  :                 __UNIT_TYPE nz_light_check_code;
; 638  :                 if ((result = AllocateNumber(&nz, z_bit_count, &nz_light_check_code)) != PMC_STATUS_OK)

	lea	edx, DWORD PTR _nz_light_check_code$1[ebp]
	push	edx
	mov	eax, DWORD PTR _z_bit_count$2[ebp]
	push	eax
	lea	ecx, DWORD PTR _nz$[ebp]
	push	ecx
	call	_AllocateNumber
	add	esp, 12					; 0000000cH
	mov	DWORD PTR _result$[ebp], eax
	cmp	DWORD PTR _result$[ebp], 0
	je	SHORT $LN26@PMC_Subtru

; 639  :                     return (result);

	mov	eax, DWORD PTR _result$[ebp]
	jmp	$LN1@PMC_Subtru
$LN26@PMC_Subtru:

; 640  :                 if ((result = Subtruct_X_1W(nx->BLOCK, nx->UNIT_WORD_COUNT, (__UNIT_TYPE)y, nz->BLOCK, nz->BLOCK_COUNT)) != PMC_STATUS_OK)

	mov	edx, DWORD PTR _nz$[ebp]
	mov	eax, DWORD PTR [edx+28]
	push	eax
	mov	ecx, DWORD PTR _nz$[ebp]
	mov	edx, DWORD PTR [ecx+32]
	push	edx
	mov	eax, DWORD PTR _y$[ebp]
	push	eax
	mov	ecx, DWORD PTR _nx$[ebp]
	mov	edx, DWORD PTR [ecx+8]
	push	edx
	mov	eax, DWORD PTR _nx$[ebp]
	mov	ecx, DWORD PTR [eax+32]
	push	ecx
	call	_Subtruct_X_1W
	add	esp, 20					; 00000014H
	mov	DWORD PTR _result$[ebp], eax
	cmp	DWORD PTR _result$[ebp], 0
	je	SHORT $LN27@PMC_Subtru

; 641  :                 {
; 642  :                     DeallocateNumber(nz);

	mov	edx, DWORD PTR _nz$[ebp]
	push	edx
	call	_DeallocateNumber
	add	esp, 4

; 643  :                     return (result == PMC_STATUS_INTERNAL_BORROW ? PMC_STATUS_OVERFLOW : result);

	cmp	DWORD PTR _result$[ebp], -258		; fffffefeH
	jne	SHORT $LN36@PMC_Subtru
	mov	DWORD PTR tv200[ebp], -2		; fffffffeH
	jmp	SHORT $LN37@PMC_Subtru
$LN36@PMC_Subtru:
	mov	eax, DWORD PTR _result$[ebp]
	mov	DWORD PTR tv200[ebp], eax
$LN37@PMC_Subtru:
	mov	eax, DWORD PTR tv200[ebp]
	jmp	SHORT $LN1@PMC_Subtru
$LN27@PMC_Subtru:

; 644  :                 }
; 645  :                 if ((result = CheckBlockLight(nz->BLOCK, nz_light_check_code)) != PMC_STATUS_OK)

	mov	ecx, DWORD PTR _nz_light_check_code$1[ebp]
	push	ecx
	mov	edx, DWORD PTR _nz$[ebp]
	mov	eax, DWORD PTR [edx+32]
	push	eax
	call	_CheckBlockLight
	add	esp, 8
	mov	DWORD PTR _result$[ebp], eax
	cmp	DWORD PTR _result$[ebp], 0
	je	SHORT $LN14@PMC_Subtru

; 646  :                     return (result);

	mov	eax, DWORD PTR _result$[ebp]
	jmp	SHORT $LN1@PMC_Subtru
$LN14@PMC_Subtru:

; 647  :             }
; 648  :             CommitNumber(nz);

	mov	ecx, DWORD PTR _nz$[ebp]
	push	ecx
	call	_CommitNumber
	add	esp, 4

; 649  :             if (nz->IS_ZERO)

	mov	edx, DWORD PTR _nz$[ebp]
	mov	eax, DWORD PTR [edx+24]
	shr	eax, 1
	and	eax, 1
	je	SHORT $LN11@PMC_Subtru

; 650  :             {
; 651  :                 DeallocateNumber(nz);

	mov	ecx, DWORD PTR _nz$[ebp]
	push	ecx
	call	_DeallocateNumber
	add	esp, 4

; 652  :                 nz = &number_zero;

	mov	DWORD PTR _nz$[ebp], OFFSET _number_zero
$LN11@PMC_Subtru:

; 653  :             }
; 654  :         }
; 655  :         *o = nz;

	mov	edx, DWORD PTR _o$[ebp]
	mov	eax, DWORD PTR _nz$[ebp]
	mov	DWORD PTR [edx], eax
$LN7@PMC_Subtru:

; 656  :     }
; 657  : #ifdef _DEBUG
; 658  :     if ((result = CheckNumber(*o)) != PMC_STATUS_OK)

	mov	ecx, DWORD PTR _o$[ebp]
	mov	edx, DWORD PTR [ecx]
	push	edx
	call	_CheckNumber
	add	esp, 4
	mov	DWORD PTR _result$[ebp], eax
	cmp	DWORD PTR _result$[ebp], 0
	je	SHORT $LN30@PMC_Subtru

; 659  :         return (result);

	mov	eax, DWORD PTR _result$[ebp]
	jmp	SHORT $LN1@PMC_Subtru
$LN30@PMC_Subtru:

; 660  : #endif
; 661  :     return (PMC_STATUS_OK);

	xor	eax, eax
$LN1@PMC_Subtru:

; 662  : }

	push	edx
	mov	ecx, ebp
	push	eax
	lea	edx, DWORD PTR $LN44@PMC_Subtru
	call	@_RTC_CheckStackVars@8
	pop	eax
	pop	edx
	pop	edi
	add	esp, 116				; 00000074H
	cmp	ebp, esp
	call	__RTC_CheckEsp
	mov	esp, ebp
	pop	ebp
	ret	16					; 00000010H
	npad	2
$LN44@PMC_Subtru:
	DD	5
	DD	$LN43@PMC_Subtru
$LN43@PMC_Subtru:
	DD	-16					; fffffff0H
	DD	4
	DD	$LN38@PMC_Subtru
	DD	-32					; ffffffe0H
	DD	4
	DD	$LN39@PMC_Subtru
	DD	-56					; ffffffc8H
	DD	4
	DD	$LN40@PMC_Subtru
	DD	-76					; ffffffb4H
	DD	4
	DD	$LN41@PMC_Subtru
	DD	-100					; ffffff9cH
	DD	4
	DD	$LN42@PMC_Subtru
$LN42@PMC_Subtru:
	DB	110					; 0000006eH
	DB	122					; 0000007aH
	DB	95					; 0000005fH
	DB	108					; 0000006cH
	DB	105					; 00000069H
	DB	103					; 00000067H
	DB	104					; 00000068H
	DB	116					; 00000074H
	DB	95					; 0000005fH
	DB	99					; 00000063H
	DB	104					; 00000068H
	DB	101					; 00000065H
	DB	99					; 00000063H
	DB	107					; 0000006bH
	DB	95					; 0000005fH
	DB	99					; 00000063H
	DB	111					; 0000006fH
	DB	100					; 00000064H
	DB	101					; 00000065H
	DB	0
$LN41@PMC_Subtru:
	DB	110					; 0000006eH
	DB	122					; 0000007aH
	DB	95					; 0000005fH
	DB	108					; 0000006cH
	DB	105					; 00000069H
	DB	103					; 00000067H
	DB	104					; 00000068H
	DB	116					; 00000074H
	DB	95					; 0000005fH
	DB	99					; 00000063H
	DB	104					; 00000068H
	DB	101					; 00000065H
	DB	99					; 00000063H
	DB	107					; 0000006bH
	DB	95					; 0000005fH
	DB	99					; 00000063H
	DB	111					; 0000006fH
	DB	100					; 00000064H
	DB	101					; 00000065H
	DB	0
$LN40@PMC_Subtru:
	DB	110					; 0000006eH
	DB	122					; 0000007aH
	DB	95					; 0000005fH
	DB	108					; 0000006cH
	DB	105					; 00000069H
	DB	103					; 00000067H
	DB	104					; 00000068H
	DB	116					; 00000074H
	DB	95					; 0000005fH
	DB	99					; 00000063H
	DB	104					; 00000068H
	DB	101					; 00000065H
	DB	99					; 00000063H
	DB	107					; 0000006bH
	DB	95					; 0000005fH
	DB	99					; 00000063H
	DB	111					; 0000006fH
	DB	100					; 00000064H
	DB	101					; 00000065H
	DB	0
$LN39@PMC_Subtru:
	DB	121					; 00000079H
	DB	95					; 0000005fH
	DB	104					; 00000068H
	DB	105					; 00000069H
	DB	0
$LN38@PMC_Subtru:
	DB	110					; 0000006eH
	DB	122					; 0000007aH
	DB	0
_PMC_Subtruct_X_L@16 ENDP
_TEXT	ENDS
; Function compile flags: /Odtp /RTCsu
; File z:\sources\lunor\repos\rougemeilland\palmtree.math.core.uint\palmtree.math.core.uint\pmc_subtruct.c
_TEXT	SEGMENT
tv135 = -48						; size = 4
_w_light_check_code$1 = -40				; size = 4
_w_bit_count$2 = -32					; size = 4
_v_bit_count$3 = -28					; size = 4
_u_bit_count$4 = -24					; size = 4
_nw$ = -16						; size = 4
_result$ = -8						; size = 4
_nu$ = -4						; size = 4
_u$ = 8							; size = 4
_v$ = 12						; size = 4
_w$ = 16						; size = 4
_PMC_Subtruct_X_I@12 PROC

; 269  : {

	push	ebp
	mov	ebp, esp
	sub	esp, 48					; 00000030H
	push	edi
	lea	edi, DWORD PTR [ebp-48]
	mov	ecx, 12					; 0000000cH
	mov	eax, -858993460				; ccccccccH
	rep stosd
	mov	ecx, OFFSET __6B07DC87_pmc_subtruct@c
	call	@__CheckForDebuggerJustMyCode@4

; 270  :     if (__UNIT_TYPE_BIT_COUNT < sizeof(v) * 8)

	xor	eax, eax
	je	SHORT $LN2@PMC_Subtru

; 271  :     {
; 272  :         // _UINT32_T が 1 ワードで表現しきれない処理系には対応しない
; 273  :         return (PMC_STATUS_INTERNAL_ERROR);

	mov	eax, -256				; ffffff00H
	jmp	$LN1@PMC_Subtru
$LN2@PMC_Subtru:

; 274  :     }
; 275  :     if (u == NULL)

	cmp	DWORD PTR _u$[ebp], 0
	jne	SHORT $LN3@PMC_Subtru

; 276  :         return (PMC_STATUS_ARGUMENT_ERROR);

	or	eax, -1
	jmp	$LN1@PMC_Subtru
$LN3@PMC_Subtru:

; 277  :     if (w == NULL)

	cmp	DWORD PTR _w$[ebp], 0
	jne	SHORT $LN4@PMC_Subtru

; 278  :         return (PMC_STATUS_ARGUMENT_ERROR);

	or	eax, -1
	jmp	$LN1@PMC_Subtru
$LN4@PMC_Subtru:

; 279  :     NUMBER_HEADER* nu = (NUMBER_HEADER*)u;

	mov	ecx, DWORD PTR _u$[ebp]
	mov	DWORD PTR _nu$[ebp], ecx

; 280  :     PMC_STATUS_CODE result;
; 281  :     if ((result = CheckNumber(nu)) != PMC_STATUS_OK)

	mov	edx, DWORD PTR _nu$[ebp]
	push	edx
	call	_CheckNumber
	add	esp, 4
	mov	DWORD PTR _result$[ebp], eax
	cmp	DWORD PTR _result$[ebp], 0
	je	SHORT $LN5@PMC_Subtru

; 282  :         return (result);

	mov	eax, DWORD PTR _result$[ebp]
	jmp	$LN1@PMC_Subtru
$LN5@PMC_Subtru:

; 283  :     NUMBER_HEADER* nw;
; 284  :     if (nu->IS_ZERO)

	mov	eax, DWORD PTR _nu$[ebp]
	mov	ecx, DWORD PTR [eax+24]
	shr	ecx, 1
	and	ecx, 1
	je	SHORT $LN6@PMC_Subtru

; 285  :     {
; 286  :         // u が 0 である場合
; 287  : 
; 288  :         if (v == 0)

	cmp	DWORD PTR _v$[ebp], 0
	jne	SHORT $LN8@PMC_Subtru

; 289  :         {
; 290  :             // v が 0 である場合
; 291  : 
; 292  :             // u と v がともに 0 であるので、演算結果の 0 を呼び出し元に返す。
; 293  :             *w = &number_zero;

	mov	edx, DWORD PTR _w$[ebp]
	mov	DWORD PTR [edx], OFFSET _number_zero

; 294  :         }

	jmp	SHORT $LN9@PMC_Subtru
$LN8@PMC_Subtru:

; 295  :         else
; 296  :         {
; 297  :             // v が 0 ではない場合
; 298  : 
; 299  :             // 演算結果は負となってしまうのでエラーを返す。
; 300  :             return (PMC_STATUS_OVERFLOW);

	mov	eax, -2					; fffffffeH
	jmp	$LN1@PMC_Subtru
$LN9@PMC_Subtru:

; 301  :         }
; 302  :     }

	jmp	$LN7@PMC_Subtru
$LN6@PMC_Subtru:

; 303  :     else
; 304  :     {
; 305  :         // u が 0 ではない場合
; 306  : 
; 307  :         if (v == 0)

	cmp	DWORD PTR _v$[ebp], 0
	jne	SHORT $LN10@PMC_Subtru

; 308  :         {
; 309  :             // v が 0 である場合
; 310  : 
; 311  :             // 演算結果となる x の値を持つ NUMBER_HEADER 構造体を獲得し、呼び出し元へ返す。
; 312  :             if ((result = DuplicateNumber(nu, &nw)) != PMC_STATUS_OK)

	lea	eax, DWORD PTR _nw$[ebp]
	push	eax
	mov	ecx, DWORD PTR _nu$[ebp]
	push	ecx
	call	_DuplicateNumber
	add	esp, 8
	mov	DWORD PTR _result$[ebp], eax
	cmp	DWORD PTR _result$[ebp], 0
	je	SHORT $LN12@PMC_Subtru

; 313  :                 return (result);

	mov	eax, DWORD PTR _result$[ebp]
	jmp	$LN1@PMC_Subtru
$LN12@PMC_Subtru:

; 314  :         }

	jmp	$LN11@PMC_Subtru
$LN10@PMC_Subtru:

; 315  :         else
; 316  :         {
; 317  :             // u と v がともに 0 ではない場合
; 318  : 
; 319  :             // u と v の差を計算する
; 320  :             __UNIT_TYPE u_bit_count = nu->UNIT_BIT_COUNT;

	mov	edx, DWORD PTR _nu$[ebp]
	mov	eax, DWORD PTR [edx+12]
	mov	DWORD PTR _u_bit_count$4[ebp], eax

; 321  :             __UNIT_TYPE v_bit_count = sizeof(v) * 8 - _LZCNT_ALT_32(v);

	mov	ecx, DWORD PTR _v$[ebp]
	push	ecx
	call	__LZCNT_ALT_32
	add	esp, 4
	mov	edx, 32					; 00000020H
	sub	edx, eax
	mov	DWORD PTR _v_bit_count$3[ebp], edx

; 322  :             if (u_bit_count < v_bit_count)

	mov	eax, DWORD PTR _u_bit_count$4[ebp]
	cmp	eax, DWORD PTR _v_bit_count$3[ebp]
	jae	SHORT $LN13@PMC_Subtru

; 323  :             {
; 324  :                 // 演算結果は負となってしまうのでエラーを返す。
; 325  :                 return (PMC_STATUS_OVERFLOW);

	mov	eax, -2					; fffffffeH
	jmp	$LN1@PMC_Subtru
$LN13@PMC_Subtru:

; 326  :             }
; 327  :             __UNIT_TYPE w_bit_count = u_bit_count;

	mov	ecx, DWORD PTR _u_bit_count$4[ebp]
	mov	DWORD PTR _w_bit_count$2[ebp], ecx

; 328  :             __UNIT_TYPE w_light_check_code;
; 329  :             if ((result = AllocateNumber(&nw, w_bit_count, &w_light_check_code)) != PMC_STATUS_OK)

	lea	edx, DWORD PTR _w_light_check_code$1[ebp]
	push	edx
	mov	eax, DWORD PTR _w_bit_count$2[ebp]
	push	eax
	lea	ecx, DWORD PTR _nw$[ebp]
	push	ecx
	call	_AllocateNumber
	add	esp, 12					; 0000000cH
	mov	DWORD PTR _result$[ebp], eax
	cmp	DWORD PTR _result$[ebp], 0
	je	SHORT $LN14@PMC_Subtru

; 330  :                 return (result);

	mov	eax, DWORD PTR _result$[ebp]
	jmp	$LN1@PMC_Subtru
$LN14@PMC_Subtru:

; 331  :             if ((result = Subtruct_X_1W(nu->BLOCK, nu->UNIT_WORD_COUNT, v, nw->BLOCK, nw->BLOCK_COUNT)) != PMC_STATUS_OK)

	mov	edx, DWORD PTR _nw$[ebp]
	mov	eax, DWORD PTR [edx+28]
	push	eax
	mov	ecx, DWORD PTR _nw$[ebp]
	mov	edx, DWORD PTR [ecx+32]
	push	edx
	mov	eax, DWORD PTR _v$[ebp]
	push	eax
	mov	ecx, DWORD PTR _nu$[ebp]
	mov	edx, DWORD PTR [ecx+8]
	push	edx
	mov	eax, DWORD PTR _nu$[ebp]
	mov	ecx, DWORD PTR [eax+32]
	push	ecx
	call	_Subtruct_X_1W
	add	esp, 20					; 00000014H
	mov	DWORD PTR _result$[ebp], eax
	cmp	DWORD PTR _result$[ebp], 0
	je	SHORT $LN15@PMC_Subtru

; 332  :             {
; 333  :                 DeallocateNumber(nw);

	mov	edx, DWORD PTR _nw$[ebp]
	push	edx
	call	_DeallocateNumber
	add	esp, 4

; 334  :                 return (result == PMC_STATUS_INTERNAL_BORROW ? PMC_STATUS_OVERFLOW : result);

	cmp	DWORD PTR _result$[ebp], -258		; fffffefeH
	jne	SHORT $LN20@PMC_Subtru
	mov	DWORD PTR tv135[ebp], -2		; fffffffeH
	jmp	SHORT $LN21@PMC_Subtru
$LN20@PMC_Subtru:
	mov	eax, DWORD PTR _result$[ebp]
	mov	DWORD PTR tv135[ebp], eax
$LN21@PMC_Subtru:
	mov	eax, DWORD PTR tv135[ebp]
	jmp	SHORT $LN1@PMC_Subtru
$LN15@PMC_Subtru:

; 335  :             }
; 336  :             if ((result = CheckBlockLight(nw->BLOCK, w_light_check_code)) != PMC_STATUS_OK)

	mov	ecx, DWORD PTR _w_light_check_code$1[ebp]
	push	ecx
	mov	edx, DWORD PTR _nw$[ebp]
	mov	eax, DWORD PTR [edx+32]
	push	eax
	call	_CheckBlockLight
	add	esp, 8
	mov	DWORD PTR _result$[ebp], eax
	cmp	DWORD PTR _result$[ebp], 0
	je	SHORT $LN16@PMC_Subtru

; 337  :                 return (result);

	mov	eax, DWORD PTR _result$[ebp]
	jmp	SHORT $LN1@PMC_Subtru
$LN16@PMC_Subtru:

; 338  :             CommitNumber(nw);

	mov	ecx, DWORD PTR _nw$[ebp]
	push	ecx
	call	_CommitNumber
	add	esp, 4

; 339  :             if (nw->IS_ZERO)

	mov	edx, DWORD PTR _nw$[ebp]
	mov	eax, DWORD PTR [edx+24]
	shr	eax, 1
	and	eax, 1
	je	SHORT $LN11@PMC_Subtru

; 340  :             {
; 341  :                 DeallocateNumber(nw);

	mov	ecx, DWORD PTR _nw$[ebp]
	push	ecx
	call	_DeallocateNumber
	add	esp, 4

; 342  :                 nw = &number_zero;

	mov	DWORD PTR _nw$[ebp], OFFSET _number_zero
$LN11@PMC_Subtru:

; 343  :             }
; 344  :         }
; 345  :         *w = nw;

	mov	edx, DWORD PTR _w$[ebp]
	mov	eax, DWORD PTR _nw$[ebp]
	mov	DWORD PTR [edx], eax
$LN7@PMC_Subtru:

; 346  :     }
; 347  : #ifdef _DEBUG
; 348  :     if ((result = CheckNumber(*w)) != PMC_STATUS_OK)

	mov	ecx, DWORD PTR _w$[ebp]
	mov	edx, DWORD PTR [ecx]
	push	edx
	call	_CheckNumber
	add	esp, 4
	mov	DWORD PTR _result$[ebp], eax
	cmp	DWORD PTR _result$[ebp], 0
	je	SHORT $LN18@PMC_Subtru

; 349  :         return (result);

	mov	eax, DWORD PTR _result$[ebp]
	jmp	SHORT $LN1@PMC_Subtru
$LN18@PMC_Subtru:

; 350  : #endif
; 351  :     return (PMC_STATUS_OK);

	xor	eax, eax
$LN1@PMC_Subtru:

; 352  : }

	push	edx
	mov	ecx, ebp
	push	eax
	lea	edx, DWORD PTR $LN25@PMC_Subtru
	call	@_RTC_CheckStackVars@8
	pop	eax
	pop	edx
	pop	edi
	add	esp, 48					; 00000030H
	cmp	ebp, esp
	call	__RTC_CheckEsp
	mov	esp, ebp
	pop	ebp
	ret	12					; 0000000cH
	npad	3
$LN25@PMC_Subtru:
	DD	2
	DD	$LN24@PMC_Subtru
$LN24@PMC_Subtru:
	DD	-16					; fffffff0H
	DD	4
	DD	$LN22@PMC_Subtru
	DD	-40					; ffffffd8H
	DD	4
	DD	$LN23@PMC_Subtru
$LN23@PMC_Subtru:
	DB	119					; 00000077H
	DB	95					; 0000005fH
	DB	108					; 0000006cH
	DB	105					; 00000069H
	DB	103					; 00000067H
	DB	104					; 00000068H
	DB	116					; 00000074H
	DB	95					; 0000005fH
	DB	99					; 00000063H
	DB	104					; 00000068H
	DB	101					; 00000065H
	DB	99					; 00000063H
	DB	107					; 0000006bH
	DB	95					; 0000005fH
	DB	99					; 00000063H
	DB	111					; 0000006fH
	DB	100					; 00000064H
	DB	101					; 00000065H
	DB	0
$LN22@PMC_Subtru:
	DB	110					; 0000006eH
	DB	119					; 00000077H
	DB	0
_PMC_Subtruct_X_I@12 ENDP
_TEXT	ENDS
; Function compile flags: /Odtp /RTCsu
; File z:\sources\lunor\repos\rougemeilland\palmtree.math.core.uint\palmtree.math.core.uint\pmc_subtruct.c
_TEXT	SEGMENT
_borrow$1 = -105					; size = 1
_temp_w$2 = -100					; size = 4
_v_bit_count$3 = -92					; size = 4
_u_bit_count$4 = -88					; size = 4
_borrow$5 = -81						; size = 1
_temp_w_lo$6 = -76					; size = 4
_temp_w_hi$7 = -64					; size = 4
_v_bit_count$8 = -56					; size = 4
_u_bit_count$9 = -52					; size = 4
_borrow$10 = -45					; size = 1
_temp_w$11 = -40					; size = 4
_v_bit_count$12 = -32					; size = 4
_u_bit_count$13 = -28					; size = 4
_u_lo$14 = -24						; size = 4
_u_hi$15 = -16						; size = 4
_result$ = -8						; size = 4
_nv$ = -4						; size = 4
_u$ = 8							; size = 8
_v$ = 16						; size = 4
_w$ = 20						; size = 4
_PMC_Subtruct_L_X@16 PROC

; 355  : {

	push	ebp
	mov	ebp, esp
	sub	esp, 108				; 0000006cH
	push	edi
	lea	edi, DWORD PTR [ebp-108]
	mov	ecx, 27					; 0000001bH
	mov	eax, -858993460				; ccccccccH
	rep stosd
	mov	ecx, OFFSET __6B07DC87_pmc_subtruct@c
	call	@__CheckForDebuggerJustMyCode@4

; 356  :     if (__UNIT_TYPE_BIT_COUNT * 2 < sizeof(u) * 8)

	xor	eax, eax
	je	SHORT $LN2@PMC_Subtru

; 357  :     {
; 358  :         // _UINT64_T が 2 ワードで表現しきれない処理系には対応しない
; 359  :         return (PMC_STATUS_INTERNAL_ERROR);

	mov	eax, -256				; ffffff00H
	jmp	$LN1@PMC_Subtru
$LN2@PMC_Subtru:

; 360  :     }
; 361  :     if (v == NULL)

	cmp	DWORD PTR _v$[ebp], 0
	jne	SHORT $LN3@PMC_Subtru

; 362  :         return (PMC_STATUS_ARGUMENT_ERROR);

	or	eax, -1
	jmp	$LN1@PMC_Subtru
$LN3@PMC_Subtru:

; 363  :     if (w == NULL)

	cmp	DWORD PTR _w$[ebp], 0
	jne	SHORT $LN4@PMC_Subtru

; 364  :         return (PMC_STATUS_ARGUMENT_ERROR);

	or	eax, -1
	jmp	$LN1@PMC_Subtru
$LN4@PMC_Subtru:

; 365  :     NUMBER_HEADER* nv = (NUMBER_HEADER*)v;

	mov	ecx, DWORD PTR _v$[ebp]
	mov	DWORD PTR _nv$[ebp], ecx

; 366  :     PMC_STATUS_CODE result;
; 367  :     if ((result = CheckNumber(nv)) != PMC_STATUS_OK)

	mov	edx, DWORD PTR _nv$[ebp]
	push	edx
	call	_CheckNumber
	add	esp, 4
	mov	DWORD PTR _result$[ebp], eax
	cmp	DWORD PTR _result$[ebp], 0
	je	SHORT $LN5@PMC_Subtru

; 368  :         return (result);

	mov	eax, DWORD PTR _result$[ebp]
	jmp	$LN1@PMC_Subtru
$LN5@PMC_Subtru:

; 369  :     if (u == 0)

	mov	eax, DWORD PTR _u$[ebp]
	or	eax, DWORD PTR _u$[ebp+4]
	jne	SHORT $LN6@PMC_Subtru

; 370  :     {
; 371  :         // u が 0 である場合
; 372  : 
; 373  :         if (nv->IS_ZERO)

	mov	ecx, DWORD PTR _nv$[ebp]
	mov	edx, DWORD PTR [ecx+24]
	shr	edx, 1
	and	edx, 1
	je	SHORT $LN8@PMC_Subtru

; 374  :         {
; 375  :             // v が 0 である場合
; 376  : 
; 377  :             // x と y がともに 0 であるので、演算結果の 0 を呼び出し元に返す。
; 378  :             *w = 0;

	mov	eax, DWORD PTR _w$[ebp]
	mov	DWORD PTR [eax], 0
	mov	DWORD PTR [eax+4], 0

; 379  :         }

	jmp	SHORT $LN9@PMC_Subtru
$LN8@PMC_Subtru:

; 380  :         else
; 381  :         {
; 382  :             // v が 0 ではない場合
; 383  : 
; 384  :             // 演算結果は負となってしまうのでエラーを返す。
; 385  :             return (PMC_STATUS_OVERFLOW);

	mov	eax, -2					; fffffffeH
	jmp	$LN1@PMC_Subtru
$LN9@PMC_Subtru:

; 386  :         }
; 387  :     }

	jmp	$LN7@PMC_Subtru
$LN6@PMC_Subtru:

; 388  :     else
; 389  :     {
; 390  :         // u が 0 ではない場合
; 391  : 
; 392  :         if (nv->IS_ZERO)

	mov	ecx, DWORD PTR _nv$[ebp]
	mov	edx, DWORD PTR [ecx+24]
	shr	edx, 1
	and	edx, 1
	je	SHORT $LN10@PMC_Subtru

; 393  :         {
; 394  :             // v が 0 である場合
; 395  : 
; 396  :             // 演算結果となる u の値を持つ NUMBER_HEADER 構造体を獲得し、呼び出し元へ返す。
; 397  :             *w = u;

	mov	eax, DWORD PTR _w$[ebp]
	mov	ecx, DWORD PTR _u$[ebp]
	mov	DWORD PTR [eax], ecx
	mov	edx, DWORD PTR _u$[ebp+4]
	mov	DWORD PTR [eax+4], edx

; 398  :         }

	jmp	$LN7@PMC_Subtru
$LN10@PMC_Subtru:

; 399  :         else
; 400  :         {
; 401  :             // u と v がともに 0 ではない場合
; 402  : 
; 403  :             // u と v の差を計算する
; 404  :             if (__UNIT_TYPE_BIT_COUNT < sizeof(u) * 8)

	mov	eax, 1
	test	eax, eax
	je	$LN12@PMC_Subtru

; 405  :             {
; 406  :                 // _UINT64_T が 1 ワードで表現しきれない場合
; 407  : 
; 408  :                 _UINT32_T u_hi;
; 409  :                 _UINT32_T u_lo = _FROMDWORDTOWORD(u, &u_hi);

	lea	ecx, DWORD PTR _u_hi$15[ebp]
	push	ecx
	mov	edx, DWORD PTR _u$[ebp+4]
	push	edx
	mov	eax, DWORD PTR _u$[ebp]
	push	eax
	call	__FROMDWORDTOWORD
	add	esp, 12					; 0000000cH
	mov	DWORD PTR _u_lo$14[ebp], eax

; 410  :                 if (u_hi == 0)

	cmp	DWORD PTR _u_hi$15[ebp], 0
	jne	$LN14@PMC_Subtru

; 411  :                 {
; 412  :                     // u の値が 32bit で表現可能な場合
; 413  :                     __UNIT_TYPE u_bit_count = sizeof(u_lo) * 8 - _LZCNT_ALT_32(u_lo);

	mov	ecx, DWORD PTR _u_lo$14[ebp]
	push	ecx
	call	__LZCNT_ALT_32
	add	esp, 4
	mov	edx, 32					; 00000020H
	sub	edx, eax
	mov	DWORD PTR _u_bit_count$13[ebp], edx

; 414  :                     __UNIT_TYPE v_bit_count = nv->UNIT_BIT_COUNT;

	mov	eax, DWORD PTR _nv$[ebp]
	mov	ecx, DWORD PTR [eax+12]
	mov	DWORD PTR _v_bit_count$12[ebp], ecx

; 415  :                     if (u_bit_count < v_bit_count)

	mov	edx, DWORD PTR _u_bit_count$13[ebp]
	cmp	edx, DWORD PTR _v_bit_count$12[ebp]
	jae	SHORT $LN16@PMC_Subtru

; 416  :                     {
; 417  :                         // 明らかに u < v である場合
; 418  : 
; 419  :                         // 演算結果は負となってしまうのでエラーを返す。
; 420  :                         return (PMC_STATUS_OVERFLOW);

	mov	eax, -2					; fffffffeH
	jmp	$LN1@PMC_Subtru

; 421  :                     }

	jmp	SHORT $LN17@PMC_Subtru
$LN16@PMC_Subtru:

; 422  :                     else
; 423  :                     {
; 424  :                         // u のビット長が v のビット長以上である場合
; 425  : 
; 426  :                         // u が32bit 整数で表現できるので v も 32bit 整数で表現できる
; 427  : 
; 428  :                         __UNIT_TYPE temp_w;
; 429  :                         char borrow = _SUBTRUCT_UNIT(0, u_lo, nv->BLOCK[0], &temp_w);

	lea	eax, DWORD PTR _temp_w$11[ebp]
	push	eax
	mov	ecx, 4
	imul	edx, ecx, 0
	mov	eax, DWORD PTR _nv$[ebp]
	mov	ecx, DWORD PTR [eax+32]
	mov	edx, DWORD PTR [ecx+edx]
	push	edx
	mov	eax, DWORD PTR _u_lo$14[ebp]
	push	eax
	push	0
	call	__SUBTRUCT_UNIT
	add	esp, 16					; 00000010H
	mov	BYTE PTR _borrow$10[ebp], al

; 430  :                         if (borrow)

	movsx	ecx, BYTE PTR _borrow$10[ebp]
	test	ecx, ecx
	je	SHORT $LN18@PMC_Subtru

; 431  :                         {
; 432  :                             // ボローが発生した場合は演算結果が負なのでエラーとする
; 433  :                             return (PMC_STATUS_OVERFLOW);

	mov	eax, -2					; fffffffeH
	jmp	$LN1@PMC_Subtru

; 434  :                         }

	jmp	SHORT $LN17@PMC_Subtru
$LN18@PMC_Subtru:

; 435  :                         else
; 436  :                         {
; 437  :                             *w = temp_w;

	mov	edx, DWORD PTR _temp_w$11[ebp]
	xor	eax, eax
	mov	ecx, DWORD PTR _w$[ebp]
	mov	DWORD PTR [ecx], edx
	mov	DWORD PTR [ecx+4], eax
$LN17@PMC_Subtru:

; 438  :                         }
; 439  :                     }
; 440  :                 }

	jmp	$LN15@PMC_Subtru
$LN14@PMC_Subtru:

; 441  :                 else
; 442  :                 {
; 443  :                     // u の値が 32bit では表現できない場合
; 444  :                     __UNIT_TYPE u_bit_count = sizeof(u) * 8 - _LZCNT_ALT_32(u_hi);

	mov	edx, DWORD PTR _u_hi$15[ebp]
	push	edx
	call	__LZCNT_ALT_32
	add	esp, 4
	mov	ecx, 64					; 00000040H
	sub	ecx, eax
	mov	DWORD PTR _u_bit_count$9[ebp], ecx

; 445  :                     __UNIT_TYPE v_bit_count = nv->UNIT_BIT_COUNT;

	mov	edx, DWORD PTR _nv$[ebp]
	mov	eax, DWORD PTR [edx+12]
	mov	DWORD PTR _v_bit_count$8[ebp], eax

; 446  :                     if (u_bit_count < v_bit_count)

	mov	ecx, DWORD PTR _u_bit_count$9[ebp]
	cmp	ecx, DWORD PTR _v_bit_count$8[ebp]
	jae	SHORT $LN20@PMC_Subtru

; 447  :                     {
; 448  :                         // 明らかに u < v である場合
; 449  : 
; 450  :                         // 演算結果は負となってしまうのでエラーを返す。
; 451  :                         return (PMC_STATUS_OVERFLOW);

	mov	eax, -2					; fffffffeH
	jmp	$LN1@PMC_Subtru

; 452  :                     }

	jmp	$LN15@PMC_Subtru
$LN20@PMC_Subtru:

; 453  :                     else
; 454  :                     {
; 455  :                         // u のビット長が v のビット長以上である場合
; 456  : 
; 457  :                         // この時点では u は 33 ～ 64bit 整数であり、v は 1 ～ 64bit整数である
; 458  : 
; 459  :                         __UNIT_TYPE temp_w_hi;
; 460  :                         __UNIT_TYPE temp_w_lo;
; 461  :                         char borrow;
; 462  :                         borrow = _SUBTRUCT_UNIT(0, u_lo, nv->BLOCK[0], &temp_w_lo);

	lea	edx, DWORD PTR _temp_w_lo$6[ebp]
	push	edx
	mov	eax, 4
	imul	ecx, eax, 0
	mov	edx, DWORD PTR _nv$[ebp]
	mov	eax, DWORD PTR [edx+32]
	mov	ecx, DWORD PTR [eax+ecx]
	push	ecx
	mov	edx, DWORD PTR _u_lo$14[ebp]
	push	edx
	push	0
	call	__SUBTRUCT_UNIT
	add	esp, 16					; 00000010H
	mov	BYTE PTR _borrow$5[ebp], al

; 463  :                         if (nv->UNIT_WORD_COUNT <= 1)

	mov	eax, DWORD PTR _nv$[ebp]
	cmp	DWORD PTR [eax+8], 1
	ja	SHORT $LN22@PMC_Subtru

; 464  :                         {
; 465  :                             // v が 1 ワードで表現できる場合(1 ～ 32bit 整数)
; 466  :                             borrow = _SUBTRUCT_UNIT(borrow, u_hi, 0, &temp_w_hi);

	lea	ecx, DWORD PTR _temp_w_hi$7[ebp]
	push	ecx
	push	0
	mov	edx, DWORD PTR _u_hi$15[ebp]
	push	edx
	movzx	eax, BYTE PTR _borrow$5[ebp]
	push	eax
	call	__SUBTRUCT_UNIT
	add	esp, 16					; 00000010H
	mov	BYTE PTR _borrow$5[ebp], al

; 467  :                         }

	jmp	SHORT $LN23@PMC_Subtru
$LN22@PMC_Subtru:

; 468  :                         else
; 469  :                         {
; 470  :                             // v が 1 ワードで表現できない場合(33 ～ 64bit 整数)
; 471  :                             borrow = _SUBTRUCT_UNIT(borrow, u_hi, nv->BLOCK[1], &temp_w_hi);

	lea	ecx, DWORD PTR _temp_w_hi$7[ebp]
	push	ecx
	mov	edx, 4
	shl	edx, 0
	mov	eax, DWORD PTR _nv$[ebp]
	mov	ecx, DWORD PTR [eax+32]
	mov	edx, DWORD PTR [ecx+edx]
	push	edx
	mov	eax, DWORD PTR _u_hi$15[ebp]
	push	eax
	movzx	ecx, BYTE PTR _borrow$5[ebp]
	push	ecx
	call	__SUBTRUCT_UNIT
	add	esp, 16					; 00000010H
	mov	BYTE PTR _borrow$5[ebp], al
$LN23@PMC_Subtru:

; 472  :                         }
; 473  :                         if (borrow)

	movsx	edx, BYTE PTR _borrow$5[ebp]
	test	edx, edx
	je	SHORT $LN24@PMC_Subtru

; 474  :                         {
; 475  :                             // ボローが発生した場合は演算結果が負なのでエラーとする
; 476  :                             return (PMC_STATUS_OVERFLOW);

	mov	eax, -2					; fffffffeH
	jmp	$LN1@PMC_Subtru

; 477  :                         }

	jmp	SHORT $LN15@PMC_Subtru
$LN24@PMC_Subtru:

; 478  :                         else
; 479  :                         {
; 480  :                             *w = _FROMWORDTODWORD((_UINT32_T)temp_w_hi, (_UINT32_T)temp_w_lo);

	mov	eax, DWORD PTR _temp_w_lo$6[ebp]
	push	eax
	mov	ecx, DWORD PTR _temp_w_hi$7[ebp]
	push	ecx
	call	__FROMWORDTODWORD
	add	esp, 8
	mov	ecx, DWORD PTR _w$[ebp]
	mov	DWORD PTR [ecx], eax
	mov	DWORD PTR [ecx+4], edx
$LN15@PMC_Subtru:

; 481  :                         }
; 482  : 
; 483  :                     }
; 484  :                 }
; 485  :             }

	jmp	SHORT $LN7@PMC_Subtru
$LN12@PMC_Subtru:

; 486  :             else
; 487  :             {
; 488  :                 // _UINT64_T が 1 ワードで表現できる場合
; 489  : 
; 490  :                 __UNIT_TYPE u_bit_count = sizeof(u) * 8 - _LZCNT_ALT_UNIT((__UNIT_TYPE)u);

	mov	edx, DWORD PTR _u$[ebp]
	push	edx
	call	__LZCNT_ALT_UNIT
	add	esp, 4
	mov	ecx, 64					; 00000040H
	sub	ecx, eax
	mov	DWORD PTR _u_bit_count$4[ebp], ecx

; 491  :                 __UNIT_TYPE v_bit_count = nv->UNIT_BIT_COUNT;

	mov	edx, DWORD PTR _nv$[ebp]
	mov	eax, DWORD PTR [edx+12]
	mov	DWORD PTR _v_bit_count$3[ebp], eax

; 492  :                 if (u_bit_count < v_bit_count)

	mov	ecx, DWORD PTR _u_bit_count$4[ebp]
	cmp	ecx, DWORD PTR _v_bit_count$3[ebp]
	jae	SHORT $LN26@PMC_Subtru

; 493  :                 {
; 494  :                     // 明らかに u < v である場合
; 495  : 
; 496  :                     // 演算結果は負となってしまうのでエラーを返す。
; 497  :                     return (PMC_STATUS_OVERFLOW);

	mov	eax, -2					; fffffffeH
	jmp	SHORT $LN1@PMC_Subtru

; 498  :                 }

	jmp	SHORT $LN7@PMC_Subtru
$LN26@PMC_Subtru:

; 499  :                 else
; 500  :                 {
; 501  :                     // u のビット長が v のビット長以上である場合
; 502  : 
; 503  :                     // u が 64bit 整数で表現できるので v も 64bit 整数で表現できる
; 504  : 
; 505  :                     __UNIT_TYPE temp_w;
; 506  :                     char borrow = _SUBTRUCT_UNIT(0, (__UNIT_TYPE)u, nv->BLOCK[0], &temp_w);

	lea	edx, DWORD PTR _temp_w$2[ebp]
	push	edx
	mov	eax, 4
	imul	ecx, eax, 0
	mov	edx, DWORD PTR _nv$[ebp]
	mov	eax, DWORD PTR [edx+32]
	mov	ecx, DWORD PTR [eax+ecx]
	push	ecx
	mov	edx, DWORD PTR _u$[ebp]
	push	edx
	push	0
	call	__SUBTRUCT_UNIT
	add	esp, 16					; 00000010H
	mov	BYTE PTR _borrow$1[ebp], al

; 507  :                     if (borrow)

	movsx	eax, BYTE PTR _borrow$1[ebp]
	test	eax, eax
	je	SHORT $LN28@PMC_Subtru

; 508  :                     {
; 509  :                         // ボローが発生した場合は演算結果が負なのでエラーとする
; 510  :                         return (PMC_STATUS_OVERFLOW);

	mov	eax, -2					; fffffffeH
	jmp	SHORT $LN1@PMC_Subtru

; 511  :                     }

	jmp	SHORT $LN7@PMC_Subtru
$LN28@PMC_Subtru:

; 512  :                     else
; 513  :                     {
; 514  :                         *w = temp_w;

	mov	ecx, DWORD PTR _temp_w$2[ebp]
	xor	edx, edx
	mov	eax, DWORD PTR _w$[ebp]
	mov	DWORD PTR [eax], ecx
	mov	DWORD PTR [eax+4], edx
$LN7@PMC_Subtru:

; 515  :                     }
; 516  :                 }
; 517  :             }
; 518  :         }
; 519  :     }
; 520  :     return (PMC_STATUS_OK);

	xor	eax, eax
$LN1@PMC_Subtru:

; 521  : }

	push	edx
	mov	ecx, ebp
	push	eax
	lea	edx, DWORD PTR $LN37@PMC_Subtru
	call	@_RTC_CheckStackVars@8
	pop	eax
	pop	edx
	pop	edi
	add	esp, 108				; 0000006cH
	cmp	ebp, esp
	call	__RTC_CheckEsp
	mov	esp, ebp
	pop	ebp
	ret	16					; 00000010H
$LN37@PMC_Subtru:
	DD	5
	DD	$LN36@PMC_Subtru
$LN36@PMC_Subtru:
	DD	-16					; fffffff0H
	DD	4
	DD	$LN31@PMC_Subtru
	DD	-40					; ffffffd8H
	DD	4
	DD	$LN32@PMC_Subtru
	DD	-64					; ffffffc0H
	DD	4
	DD	$LN33@PMC_Subtru
	DD	-76					; ffffffb4H
	DD	4
	DD	$LN34@PMC_Subtru
	DD	-100					; ffffff9cH
	DD	4
	DD	$LN35@PMC_Subtru
$LN35@PMC_Subtru:
	DB	116					; 00000074H
	DB	101					; 00000065H
	DB	109					; 0000006dH
	DB	112					; 00000070H
	DB	95					; 0000005fH
	DB	119					; 00000077H
	DB	0
$LN34@PMC_Subtru:
	DB	116					; 00000074H
	DB	101					; 00000065H
	DB	109					; 0000006dH
	DB	112					; 00000070H
	DB	95					; 0000005fH
	DB	119					; 00000077H
	DB	95					; 0000005fH
	DB	108					; 0000006cH
	DB	111					; 0000006fH
	DB	0
$LN33@PMC_Subtru:
	DB	116					; 00000074H
	DB	101					; 00000065H
	DB	109					; 0000006dH
	DB	112					; 00000070H
	DB	95					; 0000005fH
	DB	119					; 00000077H
	DB	95					; 0000005fH
	DB	104					; 00000068H
	DB	105					; 00000069H
	DB	0
$LN32@PMC_Subtru:
	DB	116					; 00000074H
	DB	101					; 00000065H
	DB	109					; 0000006dH
	DB	112					; 00000070H
	DB	95					; 0000005fH
	DB	119					; 00000077H
	DB	0
$LN31@PMC_Subtru:
	DB	117					; 00000075H
	DB	95					; 0000005fH
	DB	104					; 00000068H
	DB	105					; 00000069H
	DB	0
_PMC_Subtruct_L_X@16 ENDP
_TEXT	ENDS
; Function compile flags: /Odtp /RTCsu
; File z:\sources\lunor\repos\rougemeilland\palmtree.math.core.uint\palmtree.math.core.uint\pmc_subtruct.c
_TEXT	SEGMENT
_borrow$1 = -29						; size = 1
_temp_w$2 = -24						; size = 4
_v_bit_count$3 = -16					; size = 4
_u_bit_count$4 = -12					; size = 4
_result$ = -8						; size = 4
_nv$ = -4						; size = 4
_u$ = 8							; size = 4
_v$ = 12						; size = 4
_w$ = 16						; size = 4
_PMC_Subtruct_I_X@12 PROC

; 189  : {

	push	ebp
	mov	ebp, esp
	sub	esp, 32					; 00000020H
	mov	eax, -858993460				; ccccccccH
	mov	DWORD PTR [ebp-32], eax
	mov	DWORD PTR [ebp-28], eax
	mov	DWORD PTR [ebp-24], eax
	mov	DWORD PTR [ebp-20], eax
	mov	DWORD PTR [ebp-16], eax
	mov	DWORD PTR [ebp-12], eax
	mov	DWORD PTR [ebp-8], eax
	mov	DWORD PTR [ebp-4], eax
	mov	ecx, OFFSET __6B07DC87_pmc_subtruct@c
	call	@__CheckForDebuggerJustMyCode@4

; 190  :     if (__UNIT_TYPE_BIT_COUNT < sizeof(u) * 8)

	xor	eax, eax
	je	SHORT $LN2@PMC_Subtru

; 191  :     {
; 192  :         // _UINT32_T が 1 ワードで表現しきれない処理系には対応しない
; 193  :         return (PMC_STATUS_INTERNAL_ERROR);

	mov	eax, -256				; ffffff00H
	jmp	$LN1@PMC_Subtru
$LN2@PMC_Subtru:

; 194  :     }
; 195  :     if (v == NULL)

	cmp	DWORD PTR _v$[ebp], 0
	jne	SHORT $LN3@PMC_Subtru

; 196  :         return (PMC_STATUS_ARGUMENT_ERROR);

	or	eax, -1
	jmp	$LN1@PMC_Subtru
$LN3@PMC_Subtru:

; 197  :     if (w == NULL)

	cmp	DWORD PTR _w$[ebp], 0
	jne	SHORT $LN4@PMC_Subtru

; 198  :         return (PMC_STATUS_ARGUMENT_ERROR);

	or	eax, -1
	jmp	$LN1@PMC_Subtru
$LN4@PMC_Subtru:

; 199  :     NUMBER_HEADER* nv = (NUMBER_HEADER*)v;

	mov	ecx, DWORD PTR _v$[ebp]
	mov	DWORD PTR _nv$[ebp], ecx

; 200  :     PMC_STATUS_CODE result;
; 201  :     if ((result = CheckNumber(nv)) != PMC_STATUS_OK)

	mov	edx, DWORD PTR _nv$[ebp]
	push	edx
	call	_CheckNumber
	add	esp, 4
	mov	DWORD PTR _result$[ebp], eax
	cmp	DWORD PTR _result$[ebp], 0
	je	SHORT $LN5@PMC_Subtru

; 202  :         return (result);

	mov	eax, DWORD PTR _result$[ebp]
	jmp	$LN1@PMC_Subtru
$LN5@PMC_Subtru:

; 203  :     if (u == 0)

	cmp	DWORD PTR _u$[ebp], 0
	jne	SHORT $LN6@PMC_Subtru

; 204  :     {
; 205  :         // u が 0 である場合
; 206  : 
; 207  :         if (nv->IS_ZERO)

	mov	eax, DWORD PTR _nv$[ebp]
	mov	ecx, DWORD PTR [eax+24]
	shr	ecx, 1
	and	ecx, 1
	je	SHORT $LN8@PMC_Subtru

; 208  :         {
; 209  :             // v が 0 である場合
; 210  : 
; 211  :             // u と v がともに 0 であるので、演算結果の 0 を呼び出し元に返す。
; 212  :             *w = 0;

	mov	edx, DWORD PTR _w$[ebp]
	mov	DWORD PTR [edx], 0

; 213  :         }

	jmp	SHORT $LN9@PMC_Subtru
$LN8@PMC_Subtru:

; 214  :         else
; 215  :         {
; 216  :             // v が 0 ではない場合
; 217  : 
; 218  :             // 演算結果は負となってしまうのでエラーを返す。
; 219  :             return (PMC_STATUS_OVERFLOW);

	mov	eax, -2					; fffffffeH
	jmp	$LN1@PMC_Subtru
$LN9@PMC_Subtru:

; 220  :         }
; 221  :     }

	jmp	$LN7@PMC_Subtru
$LN6@PMC_Subtru:

; 222  :     else
; 223  :     {
; 224  :         // u が 0 ではない場合
; 225  : 
; 226  :         if (nv->IS_ZERO)

	mov	eax, DWORD PTR _nv$[ebp]
	mov	ecx, DWORD PTR [eax+24]
	shr	ecx, 1
	and	ecx, 1
	je	SHORT $LN10@PMC_Subtru

; 227  :         {
; 228  :             // v が 0 である場合
; 229  : 
; 230  :             // 演算結果となる u の値を持つ NUMBER_HEADER 構造体を獲得し、呼び出し元へ返す。
; 231  :             *w = u;

	mov	edx, DWORD PTR _w$[ebp]
	mov	eax, DWORD PTR _u$[ebp]
	mov	DWORD PTR [edx], eax

; 232  :         }

	jmp	SHORT $LN7@PMC_Subtru
$LN10@PMC_Subtru:

; 233  :         else
; 234  :         {
; 235  :             // u と v がともに 0 ではない場合
; 236  : 
; 237  :             // x と y の差を計算する
; 238  :             __UNIT_TYPE u_bit_count = sizeof(u) * 8 - _LZCNT_ALT_32(u);

	mov	ecx, DWORD PTR _u$[ebp]
	push	ecx
	call	__LZCNT_ALT_32
	add	esp, 4
	mov	edx, 32					; 00000020H
	sub	edx, eax
	mov	DWORD PTR _u_bit_count$4[ebp], edx

; 239  :             __UNIT_TYPE v_bit_count = nv->UNIT_BIT_COUNT;

	mov	eax, DWORD PTR _nv$[ebp]
	mov	ecx, DWORD PTR [eax+12]
	mov	DWORD PTR _v_bit_count$3[ebp], ecx

; 240  :             if (u_bit_count < v_bit_count)

	mov	edx, DWORD PTR _u_bit_count$4[ebp]
	cmp	edx, DWORD PTR _v_bit_count$3[ebp]
	jae	SHORT $LN12@PMC_Subtru

; 241  :             {
; 242  :                 // 明らかに u < v である場合
; 243  :                 // 演算結果は負となってしまうのでエラーを返す。
; 244  :                 return (PMC_STATUS_OVERFLOW);

	mov	eax, -2					; fffffffeH
	jmp	SHORT $LN1@PMC_Subtru

; 245  :             }

	jmp	SHORT $LN7@PMC_Subtru
$LN12@PMC_Subtru:

; 246  :             else
; 247  :             {
; 248  :                 // u のビット長が v のビット長以上である場合
; 249  : 
; 250  :                 // u が 32bit 整数なので、v も32bit 整数で表現できる
; 251  :                 __UNIT_TYPE temp_w;
; 252  :                 char borrow = _SUBTRUCT_UNIT(0, u, nv->BLOCK[0], &temp_w);

	lea	eax, DWORD PTR _temp_w$2[ebp]
	push	eax
	mov	ecx, 4
	imul	edx, ecx, 0
	mov	eax, DWORD PTR _nv$[ebp]
	mov	ecx, DWORD PTR [eax+32]
	mov	edx, DWORD PTR [ecx+edx]
	push	edx
	mov	eax, DWORD PTR _u$[ebp]
	push	eax
	push	0
	call	__SUBTRUCT_UNIT
	add	esp, 16					; 00000010H
	mov	BYTE PTR _borrow$1[ebp], al

; 253  :                 if (borrow)

	movsx	ecx, BYTE PTR _borrow$1[ebp]
	test	ecx, ecx
	je	SHORT $LN14@PMC_Subtru

; 254  :                 {
; 255  :                     // ボローが発生した場合は演算結果が負なのでエラーとする
; 256  :                     return (PMC_STATUS_OVERFLOW);

	mov	eax, -2					; fffffffeH
	jmp	SHORT $LN1@PMC_Subtru

; 257  :                 }

	jmp	SHORT $LN7@PMC_Subtru
$LN14@PMC_Subtru:

; 258  :                 else
; 259  :                 {
; 260  :                     *w = (_UINT32_T)temp_w;

	mov	edx, DWORD PTR _w$[ebp]
	mov	eax, DWORD PTR _temp_w$2[ebp]
	mov	DWORD PTR [edx], eax
$LN7@PMC_Subtru:

; 261  :                 }
; 262  :             }
; 263  :         }
; 264  :     }
; 265  :     return (PMC_STATUS_OK);

	xor	eax, eax
$LN1@PMC_Subtru:

; 266  : }

	push	edx
	mov	ecx, ebp
	push	eax
	lea	edx, DWORD PTR $LN19@PMC_Subtru
	call	@_RTC_CheckStackVars@8
	pop	eax
	pop	edx
	add	esp, 32					; 00000020H
	cmp	ebp, esp
	call	__RTC_CheckEsp
	mov	esp, ebp
	pop	ebp
	ret	12					; 0000000cH
	npad	3
$LN19@PMC_Subtru:
	DD	1
	DD	$LN18@PMC_Subtru
$LN18@PMC_Subtru:
	DD	-24					; ffffffe8H
	DD	4
	DD	$LN17@PMC_Subtru
$LN17@PMC_Subtru:
	DB	116					; 00000074H
	DB	101					; 00000065H
	DB	109					; 0000006dH
	DB	112					; 00000070H
	DB	95					; 0000005fH
	DB	119					; 00000077H
	DB	0
_PMC_Subtruct_I_X@12 ENDP
_TEXT	ENDS
; Function compile flags: /Odtp /RTCsu
; File z:\sources\lunor\repos\rougemeilland\palmtree.math.core.uint\palmtree.math.core.uint\pmc_subtruct.c
_TEXT	SEGMENT
_feature$ = 8						; size = 4
_Initialize_Subtruct PROC

; 744  : {

	push	ebp
	mov	ebp, esp
	mov	ecx, OFFSET __6B07DC87_pmc_subtruct@c
	call	@__CheckForDebuggerJustMyCode@4

; 745  :     return (PMC_STATUS_OK);

	xor	eax, eax

; 746  : }

	cmp	ebp, esp
	call	__RTC_CheckEsp
	pop	ebp
	ret	0
_Initialize_Subtruct ENDP
_TEXT	ENDS
; Function compile flags: /Odtp /RTCsu
; File z:\sources\lunor\repos\rougemeilland\palmtree.math.core.uint\palmtree.math.core.uint\pmc_subtruct.c
_TEXT	SEGMENT
tv157 = -20						; size = 4
tv154 = -16						; size = 4
tv151 = -12						; size = 4
_count$ = -8						; size = 4
_c$ = -1						; size = 1
_up$ = 8						; size = 4
_u_count$ = 12						; size = 4
_vp$ = 16						; size = 4
_v_count$ = 20						; size = 4
_wp$ = 24						; size = 4
_w_count$ = 28						; size = 4
_Subtruct_Imp PROC

; 125  : {

	push	ebp
	mov	ebp, esp
	sub	esp, 20					; 00000014H
	mov	eax, -858993460				; ccccccccH
	mov	DWORD PTR [ebp-20], eax
	mov	DWORD PTR [ebp-16], eax
	mov	DWORD PTR [ebp-12], eax
	mov	DWORD PTR [ebp-8], eax
	mov	DWORD PTR [ebp-4], eax
	mov	ecx, OFFSET __6B07DC87_pmc_subtruct@c
	call	@__CheckForDebuggerJustMyCode@4

; 126  :     char c = 0;

	mov	BYTE PTR _c$[ebp], 0

; 127  : 
; 128  :     // まず 32 ワードずつ減算をする。
; 129  :     __UNIT_TYPE count = v_count >> 5;

	mov	eax, DWORD PTR _v_count$[ebp]
	shr	eax, 5
	mov	DWORD PTR _count$[ebp], eax
$LN2@Subtruct_I:

; 130  :     while (count != 0)

	cmp	DWORD PTR _count$[ebp], 0
	je	SHORT $LN3@Subtruct_I

; 131  :     {
; 132  :         c= _SUBTRUCT_32WORDS_SBB(c, up, vp, wp);

	mov	ecx, DWORD PTR _wp$[ebp]
	push	ecx
	mov	edx, DWORD PTR _vp$[ebp]
	push	edx
	mov	eax, DWORD PTR _up$[ebp]
	push	eax
	movzx	ecx, BYTE PTR _c$[ebp]
	push	ecx
	call	__SUBTRUCT_32WORDS_SBB
	add	esp, 16					; 00000010H
	mov	BYTE PTR _c$[ebp], al

; 133  :         up += 32;

	mov	edx, DWORD PTR _up$[ebp]
	add	edx, 128				; 00000080H
	mov	DWORD PTR _up$[ebp], edx

; 134  :         vp += 32;

	mov	eax, DWORD PTR _vp$[ebp]
	add	eax, 128				; 00000080H
	mov	DWORD PTR _vp$[ebp], eax

; 135  :         wp += 32;

	mov	ecx, DWORD PTR _wp$[ebp]
	add	ecx, 128				; 00000080H
	mov	DWORD PTR _wp$[ebp], ecx

; 136  :         --count;

	mov	edx, DWORD PTR _count$[ebp]
	sub	edx, 1
	mov	DWORD PTR _count$[ebp], edx

; 137  :     }

	jmp	SHORT $LN2@Subtruct_I
$LN3@Subtruct_I:

; 138  :     // この時点で未処理の桁は 32 ワード未満のはず
; 139  : 
; 140  :     // 未処理の桁が 16 ワード以上あるなら 16 ワード減算を行う。
; 141  :     if (v_count & 0x10)

	mov	eax, DWORD PTR _v_count$[ebp]
	and	eax, 16					; 00000010H
	je	SHORT $LN4@Subtruct_I

; 142  :     {
; 143  :         c = _SUBTRUCT_16WORDS_SBB(c, up, vp, wp);

	mov	ecx, DWORD PTR _wp$[ebp]
	push	ecx
	mov	edx, DWORD PTR _vp$[ebp]
	push	edx
	mov	eax, DWORD PTR _up$[ebp]
	push	eax
	movzx	ecx, BYTE PTR _c$[ebp]
	push	ecx
	call	__SUBTRUCT_16WORDS_SBB
	add	esp, 16					; 00000010H
	mov	BYTE PTR _c$[ebp], al

; 144  :         up += 16;

	mov	edx, DWORD PTR _up$[ebp]
	add	edx, 64					; 00000040H
	mov	DWORD PTR _up$[ebp], edx

; 145  :         vp += 16;

	mov	eax, DWORD PTR _vp$[ebp]
	add	eax, 64					; 00000040H
	mov	DWORD PTR _vp$[ebp], eax

; 146  :         wp += 16;

	mov	ecx, DWORD PTR _wp$[ebp]
	add	ecx, 64					; 00000040H
	mov	DWORD PTR _wp$[ebp], ecx
$LN4@Subtruct_I:

; 147  :     }
; 148  :     // この時点で未処理の桁は 16 ワード未満のはず
; 149  : 
; 150  :     // 未処理の桁が 8 ワード以上あるなら 8 ワード減算を行う。
; 151  :     if (v_count & 0x8)

	mov	edx, DWORD PTR _v_count$[ebp]
	and	edx, 8
	je	SHORT $LN5@Subtruct_I

; 152  :     {
; 153  :         c = _SUBTRUCT_8WORDS_SBB(c, up, vp, wp);

	mov	eax, DWORD PTR _wp$[ebp]
	push	eax
	mov	ecx, DWORD PTR _vp$[ebp]
	push	ecx
	mov	edx, DWORD PTR _up$[ebp]
	push	edx
	movzx	eax, BYTE PTR _c$[ebp]
	push	eax
	call	__SUBTRUCT_8WORDS_SBB
	add	esp, 16					; 00000010H
	mov	BYTE PTR _c$[ebp], al

; 154  :         up += 8;

	mov	ecx, DWORD PTR _up$[ebp]
	add	ecx, 32					; 00000020H
	mov	DWORD PTR _up$[ebp], ecx

; 155  :         vp += 8;

	mov	edx, DWORD PTR _vp$[ebp]
	add	edx, 32					; 00000020H
	mov	DWORD PTR _vp$[ebp], edx

; 156  :         wp += 8;

	mov	eax, DWORD PTR _wp$[ebp]
	add	eax, 32					; 00000020H
	mov	DWORD PTR _wp$[ebp], eax
$LN5@Subtruct_I:

; 157  :     }
; 158  :     // この時点で未処理の桁は 8 ワード未満のはず
; 159  : 
; 160  :     // 未処理の桁が 4 ワード以上あるなら 4 ワード減算を行う。
; 161  :     if (v_count & 0x4)

	mov	ecx, DWORD PTR _v_count$[ebp]
	and	ecx, 4
	je	SHORT $LN6@Subtruct_I

; 162  :     {
; 163  :         c = _SUBTRUCT_4WORDS_SBB(c, up, vp, wp);

	mov	edx, DWORD PTR _wp$[ebp]
	push	edx
	mov	eax, DWORD PTR _vp$[ebp]
	push	eax
	mov	ecx, DWORD PTR _up$[ebp]
	push	ecx
	movzx	edx, BYTE PTR _c$[ebp]
	push	edx
	call	__SUBTRUCT_4WORDS_SBB
	add	esp, 16					; 00000010H
	mov	BYTE PTR _c$[ebp], al

; 164  :         up += 4;

	mov	eax, DWORD PTR _up$[ebp]
	add	eax, 16					; 00000010H
	mov	DWORD PTR _up$[ebp], eax

; 165  :         vp += 4;

	mov	ecx, DWORD PTR _vp$[ebp]
	add	ecx, 16					; 00000010H
	mov	DWORD PTR _vp$[ebp], ecx

; 166  :         wp += 4;

	mov	edx, DWORD PTR _wp$[ebp]
	add	edx, 16					; 00000010H
	mov	DWORD PTR _wp$[ebp], edx
$LN6@Subtruct_I:

; 167  :     }
; 168  :     // この時点で未処理の桁は 4 ワード未満のはず
; 169  : 
; 170  :     // 未処理の桁が 2 ワード以上あるなら 2 ワード減算を行う。
; 171  :     if (v_count & 0x2)

	mov	eax, DWORD PTR _v_count$[ebp]
	and	eax, 2
	je	SHORT $LN7@Subtruct_I

; 172  :     {
; 173  :         c = _SUBTRUCT_2WORDS_SBB(c, up, vp, wp);

	mov	ecx, DWORD PTR _wp$[ebp]
	push	ecx
	mov	edx, DWORD PTR _vp$[ebp]
	push	edx
	mov	eax, DWORD PTR _up$[ebp]
	push	eax
	movzx	ecx, BYTE PTR _c$[ebp]
	push	ecx
	call	__SUBTRUCT_2WORDS_SBB
	add	esp, 16					; 00000010H
	mov	BYTE PTR _c$[ebp], al

; 174  :         up += 2;

	mov	edx, DWORD PTR _up$[ebp]
	add	edx, 8
	mov	DWORD PTR _up$[ebp], edx

; 175  :         vp += 2;

	mov	eax, DWORD PTR _vp$[ebp]
	add	eax, 8
	mov	DWORD PTR _vp$[ebp], eax

; 176  :         wp += 2;

	mov	ecx, DWORD PTR _wp$[ebp]
	add	ecx, 8
	mov	DWORD PTR _wp$[ebp], ecx
$LN7@Subtruct_I:

; 177  :     }
; 178  :     // この時点で未処理の桁は 2 ワード未満のはず
; 179  : 
; 180  :     // 未処理の桁が 1 ワード以上あるなら 1 ワード減算を行う。
; 181  :     if (v_count & 1)

	mov	edx, DWORD PTR _v_count$[ebp]
	and	edx, 1
	je	SHORT $LN8@Subtruct_I

; 182  :         c = _SUBTRUCT_UNIT(c, *up++, *vp++, wp++);

	mov	eax, DWORD PTR _wp$[ebp]
	mov	DWORD PTR tv151[ebp], eax
	mov	ecx, DWORD PTR _wp$[ebp]
	add	ecx, 4
	mov	DWORD PTR _wp$[ebp], ecx
	mov	edx, DWORD PTR _vp$[ebp]
	mov	eax, DWORD PTR [edx]
	mov	DWORD PTR tv154[ebp], eax
	mov	ecx, DWORD PTR _vp$[ebp]
	add	ecx, 4
	mov	DWORD PTR _vp$[ebp], ecx
	mov	edx, DWORD PTR _up$[ebp]
	mov	eax, DWORD PTR [edx]
	mov	DWORD PTR tv157[ebp], eax
	mov	ecx, DWORD PTR _up$[ebp]
	add	ecx, 4
	mov	DWORD PTR _up$[ebp], ecx
	mov	edx, DWORD PTR tv151[ebp]
	push	edx
	mov	eax, DWORD PTR tv154[ebp]
	push	eax
	mov	ecx, DWORD PTR tv157[ebp]
	push	ecx
	movzx	edx, BYTE PTR _c$[ebp]
	push	edx
	call	__SUBTRUCT_UNIT
	add	esp, 16					; 00000010H
	mov	BYTE PTR _c$[ebp], al
$LN8@Subtruct_I:

; 183  : 
; 184  :     // 残りの桁の繰り上がりを計算し、復帰する。
; 185  :     return (DoBorrow(c, up, u_count - v_count, wp, w_count - v_count));

	mov	eax, DWORD PTR _w_count$[ebp]
	sub	eax, DWORD PTR _v_count$[ebp]
	push	eax
	mov	ecx, DWORD PTR _wp$[ebp]
	push	ecx
	mov	edx, DWORD PTR _u_count$[ebp]
	sub	edx, DWORD PTR _v_count$[ebp]
	push	edx
	mov	eax, DWORD PTR _up$[ebp]
	push	eax
	movzx	ecx, BYTE PTR _c$[ebp]
	push	ecx
	call	_DoBorrow
	add	esp, 20					; 00000014H

; 186  : }

	add	esp, 20					; 00000014H
	cmp	ebp, esp
	call	__RTC_CheckEsp
	mov	esp, ebp
	pop	ebp
	ret	0
_Subtruct_Imp ENDP
_TEXT	ENDS
END
