; Listing generated by Microsoft (R) Optimizing Compiler Version 19.16.27027.1 

	TITLE	Z:\Sources\Lunor\Repos\rougemeilland\Palmtree.Math.Core.Uint\Palmtree.Math.Core.Uint\pmc_interface_csharp.cpp
	.686P
	.XMM
	include listing.inc
	.model	flat

INCLUDELIB MSVCRTD
INCLUDELIB OLDNAMES

msvcjmc	SEGMENT
__4384A2D9_corecrt_memcpy_s@h DB 01H
__2CC6E67D_corecrt_stdio_config@h DB 01H
__41381B41_corecrt_wconio@h DB 01H
__F0CC4AC4_corecrt_wio@h DB 01H
__05476D76_corecrt_wstdio@h DB 01H
__4E51A221_corecrt_wstring@h DB 01H
__C0802A2B_corecrt_wtime@h DB 01H
__A40A425D_stat@h DB 01H
__5A74375D_wchar@h DB 01H
__6BC0FD35_vcruntime_new@h DB 01H
__77F53984_cstddef DB 01H
__A73354DD_stdlib@h DB 01H
__188180DA_corecrt_math@h DB 01H
__D23EE329_cstdlib DB 01H
__5ECFF36E_type_traits DB 01H
__331E732B_malloc@h DB 01H
__9BB4E194_vcruntime_exception@h DB 01H
__7949CB39_exception DB 01H
__802FEEC0_pmc_exception@h DB 01H
__7B7A869E_ctype@h DB 01H
__457DD326_basetsd@h DB 01H
__2088847F_corecrt_memory@h DB 01H
__2140C079_string@h DB 01H
__E9FFF232_guiddef@h DB 01H
__1887E595_winnt@h DB 01H
__9FC7C64B_processthreadsapi@h DB 01H
__FA470AEC_memoryapi@h DB 01H
__F37DAFF1_winerror@h DB 01H
__7A450CCC_winbase@h DB 01H
__12AD47BB_winuser@h DB 01H
__B4B40122_winioctl@h DB 01H
__25F3FB34_propidl@h DB 01H
__A40E48B8_oleauto@h DB 01H
__86261D59_stralign@h DB 01H
__BB6D3116_pmc_uint_internal@h DB 01H
__C21BA676_pmc_interface_csharp@cpp DB 01H
msvcjmc	ENDS
PUBLIC	?GetStatusCode@Exception@Internal@Core@Math@Palmtree@@QBEHXZ ; Palmtree::Math::Core::Internal::Exception::GetStatusCode
PUBLIC	_PMCCS_UINT_Initialize@4
PUBLIC	_PMCCS_GetConfigurationSettings@16
PUBLIC	_PMCCS_IS_EVEN@8
PUBLIC	_PMCCS_IS_ONE@8
PUBLIC	_PMCCS_IS_POWER_OF_TWO@8
PUBLIC	_PMCCS_IS_ZERO@8
PUBLIC	_PMCCS_GET_HASH_CODE@8
PUBLIC	_PMCCS_GetStatisticsInfo@4
PUBLIC	_PMCCS_From_I@8
PUBLIC	_PMCCS_From_L@12
PUBLIC	_PMCCS_Dispose@4
PUBLIC	_PMCCS_GetConstantValue_I@8
PUBLIC	_PMCCS_FromByteArray@12
PUBLIC	_PMCCS_ToByteArray@16
PUBLIC	_PMCCS_Clone_X@8
PUBLIC	_PMCCS_GetAllocatedMemorySize@4
PUBLIC	_PMCCS_To_X_I@8
PUBLIC	_PMCCS_To_X_L@8
PUBLIC	_PMCCS_ToString@24
PUBLIC	_PMCCS_Parse@16
PUBLIC	_PMCCS_TryParse@20
PUBLIC	_PMCCS_Add_I_X@12
PUBLIC	_PMCCS_Add_L_X@16
PUBLIC	_PMCCS_Add_X_I@12
PUBLIC	_PMCCS_Add_X_L@16
PUBLIC	_PMCCS_Add_X_X@12
PUBLIC	_PMCCS_Subtruct_I_X@12
PUBLIC	_PMCCS_Subtruct_L_X@16
PUBLIC	_PMCCS_Subtruct_X_I@12
PUBLIC	_PMCCS_Subtruct_X_L@16
PUBLIC	_PMCCS_Subtruct_X_X@12
PUBLIC	_PMCCS_Multiply_I_X@12
PUBLIC	_PMCCS_Multiply_L_X@16
PUBLIC	_PMCCS_Multiply_X_I@12
PUBLIC	_PMCCS_Multiply_X_L@16
PUBLIC	_PMCCS_Multiply_X_X@12
PUBLIC	_PMCCS_DivRem_I_X@16
PUBLIC	_PMCCS_DivRem_L_X@20
PUBLIC	_PMCCS_DivRem_X_I@16
PUBLIC	_PMCCS_DivRem_X_L@20
PUBLIC	_PMCCS_DivRem_X_X@16
PUBLIC	_PMCCS_Remainder_I_X@12
PUBLIC	_PMCCS_Remainder_L_X@16
PUBLIC	_PMCCS_Remainder_X_I@12
PUBLIC	_PMCCS_Remainder_X_L@16
PUBLIC	_PMCCS_Remainder_X_X@12
PUBLIC	_PMCCS_RightShift_X_I@12
PUBLIC	_PMCCS_LeftShift_X_I@12
PUBLIC	_PMCCS_BitwiseAnd_I_X@12
PUBLIC	_PMCCS_BitwiseAnd_L_X@16
PUBLIC	_PMCCS_BitwiseAnd_X_I@12
PUBLIC	_PMCCS_BitwiseAnd_X_L@16
PUBLIC	_PMCCS_BitwiseAnd_X_X@12
PUBLIC	_PMCCS_BitwiseOr_I_X@12
PUBLIC	_PMCCS_BitwiseOr_L_X@16
PUBLIC	_PMCCS_BitwiseOr_X_I@12
PUBLIC	_PMCCS_BitwiseOr_X_L@16
PUBLIC	_PMCCS_BitwiseOr_X_X@12
PUBLIC	_PMCCS_ExclusiveOr_I_X@12
PUBLIC	_PMCCS_ExclusiveOr_L_X@16
PUBLIC	_PMCCS_ExclusiveOr_X_I@12
PUBLIC	_PMCCS_ExclusiveOr_X_L@16
PUBLIC	_PMCCS_ExclusiveOr_X_X@12
PUBLIC	_PMCCS_Compare_I_X@12
PUBLIC	_PMCCS_Compare_L_X@16
PUBLIC	_PMCCS_Compare_X_I@12
PUBLIC	_PMCCS_Compare_X_L@16
PUBLIC	_PMCCS_Compare_X_X@12
PUBLIC	_PMCCS_Equals_I_X@12
PUBLIC	_PMCCS_Equals_L_X@16
PUBLIC	_PMCCS_Equals_X_I@12
PUBLIC	_PMCCS_Equals_X_L@16
PUBLIC	_PMCCS_Equals_X_X@12
PUBLIC	_PMCCS_GreatestCommonDivisor_I_X@12
PUBLIC	_PMCCS_GreatestCommonDivisor_L_X@16
PUBLIC	_PMCCS_GreatestCommonDivisor_X_I@12
PUBLIC	_PMCCS_GreatestCommonDivisor_X_L@16
PUBLIC	_PMCCS_GreatestCommonDivisor_X_X@12
PUBLIC	_PMCCS_Pow_X_I@12
PUBLIC	_PMCCS_Pow_X_L@16
PUBLIC	_PMCCS_ModPow_X_X_X@16
PUBLIC	__JustMyCode_Default
PUBLIC	??_R0?AVException@Internal@Core@Math@Palmtree@@@8 ; Palmtree::Math::Core::Internal::Exception `RTTI Type Descriptor'
EXTRN	_PMC_UINT_Initialize@4:PROC
EXTRN	?PMC_GetConfigurationSettings@Internal@Core@Math@Palmtree@@YGHPB_WPA_WHPAH@Z:PROC ; Palmtree::Math::Core::Internal::PMC_GetConfigurationSettings
EXTRN	?PMC_GetStatisticsInfo@Internal@Core@Math@Palmtree@@YGXPAU__tag_PMC_STATISTICS_INFO@1234@@Z:PROC ; Palmtree::Math::Core::Internal::PMC_GetStatisticsInfo
EXTRN	?PMC_From_I@Internal@Core@Math@Palmtree@@YGPAU__tag_PMC_HANDLE_UINT@1234@I@Z:PROC ; Palmtree::Math::Core::Internal::PMC_From_I
EXTRN	?PMC_From_L@Internal@Core@Math@Palmtree@@YGPAU__tag_PMC_HANDLE_UINT@1234@_K@Z:PROC ; Palmtree::Math::Core::Internal::PMC_From_L
EXTRN	?PMC_Dispose@Internal@Core@Math@Palmtree@@YGXPAU__tag_PMC_HANDLE_UINT@1234@@Z:PROC ; Palmtree::Math::Core::Internal::PMC_Dispose
EXTRN	?PMC_GetConstantValue_I@Internal@Core@Math@Palmtree@@YGPAU__tag_PMC_HANDLE_UINT@1234@H@Z:PROC ; Palmtree::Math::Core::Internal::PMC_GetConstantValue_I
EXTRN	?PMC_FromByteArray@Internal@Core@Math@Palmtree@@YGPAU__tag_PMC_HANDLE_UINT@1234@PBEI@Z:PROC ; Palmtree::Math::Core::Internal::PMC_FromByteArray
EXTRN	?PMC_ToByteArray@Internal@Core@Math@Palmtree@@YGIPAU__tag_PMC_HANDLE_UINT@1234@PAEI@Z:PROC ; Palmtree::Math::Core::Internal::PMC_ToByteArray
EXTRN	?PMC_Clone_X@Internal@Core@Math@Palmtree@@YGPAU__tag_PMC_HANDLE_UINT@1234@PAU51234@@Z:PROC ; Palmtree::Math::Core::Internal::PMC_Clone_X
EXTRN	?PMC_GetAllocatedMemorySize@Internal@Core@Math@Palmtree@@YG_KXZ:PROC ; Palmtree::Math::Core::Internal::PMC_GetAllocatedMemorySize
EXTRN	?PMC_To_X_I@Internal@Core@Math@Palmtree@@YGIPAU__tag_PMC_HANDLE_UINT@1234@@Z:PROC ; Palmtree::Math::Core::Internal::PMC_To_X_I
EXTRN	?PMC_To_X_L@Internal@Core@Math@Palmtree@@YG_KPAU__tag_PMC_HANDLE_UINT@1234@@Z:PROC ; Palmtree::Math::Core::Internal::PMC_To_X_L
EXTRN	?PMC_ToString@Internal@Core@Math@Palmtree@@YGIPAU__tag_PMC_HANDLE_UINT@1234@PB_WPBU__tag_PMC_NUMBER_FORMAT_INFO@1234@PA_WI@Z:PROC ; Palmtree::Math::Core::Internal::PMC_ToString
EXTRN	?PMC_TryParse@Internal@Core@Math@Palmtree@@YGHPB_WHPBU__tag_PMC_NUMBER_FORMAT_INFO@1234@PAPAU__tag_PMC_HANDLE_UINT@1234@PAI@Z:PROC ; Palmtree::Math::Core::Internal::PMC_TryParse
EXTRN	?PMC_Add_I_X@Internal@Core@Math@Palmtree@@YGPAU__tag_PMC_HANDLE_UINT@1234@IPAU51234@@Z:PROC ; Palmtree::Math::Core::Internal::PMC_Add_I_X
EXTRN	?PMC_Add_L_X@Internal@Core@Math@Palmtree@@YGPAU__tag_PMC_HANDLE_UINT@1234@_KPAU51234@@Z:PROC ; Palmtree::Math::Core::Internal::PMC_Add_L_X
EXTRN	?PMC_Add_X_I@Internal@Core@Math@Palmtree@@YGPAU__tag_PMC_HANDLE_UINT@1234@PAU51234@I@Z:PROC ; Palmtree::Math::Core::Internal::PMC_Add_X_I
EXTRN	?PMC_Add_X_L@Internal@Core@Math@Palmtree@@YGPAU__tag_PMC_HANDLE_UINT@1234@PAU51234@_K@Z:PROC ; Palmtree::Math::Core::Internal::PMC_Add_X_L
EXTRN	?PMC_Add_X_X@Internal@Core@Math@Palmtree@@YGPAU__tag_PMC_HANDLE_UINT@1234@PAU51234@0@Z:PROC ; Palmtree::Math::Core::Internal::PMC_Add_X_X
EXTRN	?PMC_Subtruct_I_X@Internal@Core@Math@Palmtree@@YGIIPAU__tag_PMC_HANDLE_UINT@1234@@Z:PROC ; Palmtree::Math::Core::Internal::PMC_Subtruct_I_X
EXTRN	?PMC_Subtruct_L_X@Internal@Core@Math@Palmtree@@YG_K_KPAU__tag_PMC_HANDLE_UINT@1234@@Z:PROC ; Palmtree::Math::Core::Internal::PMC_Subtruct_L_X
EXTRN	?PMC_Subtruct_X_I@Internal@Core@Math@Palmtree@@YGPAU__tag_PMC_HANDLE_UINT@1234@PAU51234@I@Z:PROC ; Palmtree::Math::Core::Internal::PMC_Subtruct_X_I
EXTRN	?PMC_Subtruct_X_L@Internal@Core@Math@Palmtree@@YGPAU__tag_PMC_HANDLE_UINT@1234@PAU51234@_K@Z:PROC ; Palmtree::Math::Core::Internal::PMC_Subtruct_X_L
EXTRN	?PMC_Subtruct_X_X@Internal@Core@Math@Palmtree@@YGPAU__tag_PMC_HANDLE_UINT@1234@PAU51234@0@Z:PROC ; Palmtree::Math::Core::Internal::PMC_Subtruct_X_X
EXTRN	?PMC_Multiply_I_X@Internal@Core@Math@Palmtree@@YGPAU__tag_PMC_HANDLE_UINT@1234@IPAU51234@@Z:PROC ; Palmtree::Math::Core::Internal::PMC_Multiply_I_X
EXTRN	?PMC_Multiply_L_X@Internal@Core@Math@Palmtree@@YGPAU__tag_PMC_HANDLE_UINT@1234@_KPAU51234@@Z:PROC ; Palmtree::Math::Core::Internal::PMC_Multiply_L_X
EXTRN	?PMC_Multiply_X_I@Internal@Core@Math@Palmtree@@YGPAU__tag_PMC_HANDLE_UINT@1234@PAU51234@I@Z:PROC ; Palmtree::Math::Core::Internal::PMC_Multiply_X_I
EXTRN	?PMC_Multiply_X_L@Internal@Core@Math@Palmtree@@YGPAU__tag_PMC_HANDLE_UINT@1234@PAU51234@_K@Z:PROC ; Palmtree::Math::Core::Internal::PMC_Multiply_X_L
EXTRN	?PMC_Multiply_X_X@Internal@Core@Math@Palmtree@@YGPAU__tag_PMC_HANDLE_UINT@1234@PAU51234@0@Z:PROC ; Palmtree::Math::Core::Internal::PMC_Multiply_X_X
EXTRN	?PMC_DivRem_I_X@Internal@Core@Math@Palmtree@@YGIIPAU__tag_PMC_HANDLE_UINT@1234@PAI@Z:PROC ; Palmtree::Math::Core::Internal::PMC_DivRem_I_X
EXTRN	?PMC_DivRem_L_X@Internal@Core@Math@Palmtree@@YG_K_KPAU__tag_PMC_HANDLE_UINT@1234@PA_K@Z:PROC ; Palmtree::Math::Core::Internal::PMC_DivRem_L_X
EXTRN	?PMC_DivRem_X_I@Internal@Core@Math@Palmtree@@YGIPAU__tag_PMC_HANDLE_UINT@1234@IPAPAU51234@@Z:PROC ; Palmtree::Math::Core::Internal::PMC_DivRem_X_I
EXTRN	?PMC_DivRem_X_L@Internal@Core@Math@Palmtree@@YG_KPAU__tag_PMC_HANDLE_UINT@1234@_KPAPAU51234@@Z:PROC ; Palmtree::Math::Core::Internal::PMC_DivRem_X_L
EXTRN	?PMC_DivRem_X_X@Internal@Core@Math@Palmtree@@YGPAU__tag_PMC_HANDLE_UINT@1234@PAU51234@0PAPAU51234@@Z:PROC ; Palmtree::Math::Core::Internal::PMC_DivRem_X_X
EXTRN	?PMC_RightShift_X_I@Internal@Core@Math@Palmtree@@YGPAU__tag_PMC_HANDLE_UINT@1234@PAU51234@H@Z:PROC ; Palmtree::Math::Core::Internal::PMC_RightShift_X_I
EXTRN	?PMC_LeftShift_X_I@Internal@Core@Math@Palmtree@@YGPAU__tag_PMC_HANDLE_UINT@1234@PAU51234@H@Z:PROC ; Palmtree::Math::Core::Internal::PMC_LeftShift_X_I
EXTRN	?PMC_BitwiseAnd_I_X@Internal@Core@Math@Palmtree@@YGIIPAU__tag_PMC_HANDLE_UINT@1234@@Z:PROC ; Palmtree::Math::Core::Internal::PMC_BitwiseAnd_I_X
EXTRN	?PMC_BitwiseAnd_L_X@Internal@Core@Math@Palmtree@@YG_K_KPAU__tag_PMC_HANDLE_UINT@1234@@Z:PROC ; Palmtree::Math::Core::Internal::PMC_BitwiseAnd_L_X
EXTRN	?PMC_BitwiseAnd_X_I@Internal@Core@Math@Palmtree@@YGIPAU__tag_PMC_HANDLE_UINT@1234@I@Z:PROC ; Palmtree::Math::Core::Internal::PMC_BitwiseAnd_X_I
EXTRN	?PMC_BitwiseAnd_X_L@Internal@Core@Math@Palmtree@@YG_KPAU__tag_PMC_HANDLE_UINT@1234@_K@Z:PROC ; Palmtree::Math::Core::Internal::PMC_BitwiseAnd_X_L
EXTRN	?PMC_BitwiseAnd_X_X@Internal@Core@Math@Palmtree@@YGPAU__tag_PMC_HANDLE_UINT@1234@PAU51234@0@Z:PROC ; Palmtree::Math::Core::Internal::PMC_BitwiseAnd_X_X
EXTRN	?PMC_BitwiseOr_I_X@Internal@Core@Math@Palmtree@@YGPAU__tag_PMC_HANDLE_UINT@1234@IPAU51234@@Z:PROC ; Palmtree::Math::Core::Internal::PMC_BitwiseOr_I_X
EXTRN	?PMC_BitwiseOr_L_X@Internal@Core@Math@Palmtree@@YGPAU__tag_PMC_HANDLE_UINT@1234@_KPAU51234@@Z:PROC ; Palmtree::Math::Core::Internal::PMC_BitwiseOr_L_X
EXTRN	?PMC_BitwiseOr_X_I@Internal@Core@Math@Palmtree@@YGPAU__tag_PMC_HANDLE_UINT@1234@PAU51234@I@Z:PROC ; Palmtree::Math::Core::Internal::PMC_BitwiseOr_X_I
EXTRN	?PMC_BitwiseOr_X_L@Internal@Core@Math@Palmtree@@YGPAU__tag_PMC_HANDLE_UINT@1234@PAU51234@_K@Z:PROC ; Palmtree::Math::Core::Internal::PMC_BitwiseOr_X_L
EXTRN	?PMC_BitwiseOr_X_X@Internal@Core@Math@Palmtree@@YGPAU__tag_PMC_HANDLE_UINT@1234@PAU51234@0@Z:PROC ; Palmtree::Math::Core::Internal::PMC_BitwiseOr_X_X
EXTRN	?PMC_ExclusiveOr_I_X@Internal@Core@Math@Palmtree@@YGPAU__tag_PMC_HANDLE_UINT@1234@IPAU51234@@Z:PROC ; Palmtree::Math::Core::Internal::PMC_ExclusiveOr_I_X
EXTRN	?PMC_ExclusiveOr_L_X@Internal@Core@Math@Palmtree@@YGPAU__tag_PMC_HANDLE_UINT@1234@_KPAU51234@@Z:PROC ; Palmtree::Math::Core::Internal::PMC_ExclusiveOr_L_X
EXTRN	?PMC_ExclusiveOr_X_I@Internal@Core@Math@Palmtree@@YGPAU__tag_PMC_HANDLE_UINT@1234@PAU51234@I@Z:PROC ; Palmtree::Math::Core::Internal::PMC_ExclusiveOr_X_I
EXTRN	?PMC_ExclusiveOr_X_L@Internal@Core@Math@Palmtree@@YGPAU__tag_PMC_HANDLE_UINT@1234@PAU51234@_K@Z:PROC ; Palmtree::Math::Core::Internal::PMC_ExclusiveOr_X_L
EXTRN	?PMC_ExclusiveOr_X_X@Internal@Core@Math@Palmtree@@YGPAU__tag_PMC_HANDLE_UINT@1234@PAU51234@0@Z:PROC ; Palmtree::Math::Core::Internal::PMC_ExclusiveOr_X_X
EXTRN	?PMC_Compare_I_X@Internal@Core@Math@Palmtree@@YGHIPAU__tag_PMC_HANDLE_UINT@1234@@Z:PROC ; Palmtree::Math::Core::Internal::PMC_Compare_I_X
EXTRN	?PMC_Compare_L_X@Internal@Core@Math@Palmtree@@YGH_KPAU__tag_PMC_HANDLE_UINT@1234@@Z:PROC ; Palmtree::Math::Core::Internal::PMC_Compare_L_X
EXTRN	?PMC_Compare_X_I@Internal@Core@Math@Palmtree@@YGHPAU__tag_PMC_HANDLE_UINT@1234@I@Z:PROC ; Palmtree::Math::Core::Internal::PMC_Compare_X_I
EXTRN	?PMC_Compare_X_L@Internal@Core@Math@Palmtree@@YGHPAU__tag_PMC_HANDLE_UINT@1234@_K@Z:PROC ; Palmtree::Math::Core::Internal::PMC_Compare_X_L
EXTRN	?PMC_Compare_X_X@Internal@Core@Math@Palmtree@@YGHPAU__tag_PMC_HANDLE_UINT@1234@0@Z:PROC ; Palmtree::Math::Core::Internal::PMC_Compare_X_X
EXTRN	?PMC_Equals_I_X@Internal@Core@Math@Palmtree@@YGIIPAU__tag_PMC_HANDLE_UINT@1234@@Z:PROC ; Palmtree::Math::Core::Internal::PMC_Equals_I_X
EXTRN	?PMC_Equals_L_X@Internal@Core@Math@Palmtree@@YGI_KPAU__tag_PMC_HANDLE_UINT@1234@@Z:PROC ; Palmtree::Math::Core::Internal::PMC_Equals_L_X
EXTRN	?PMC_Equals_X_I@Internal@Core@Math@Palmtree@@YGIPAU__tag_PMC_HANDLE_UINT@1234@I@Z:PROC ; Palmtree::Math::Core::Internal::PMC_Equals_X_I
EXTRN	?PMC_Equals_X_L@Internal@Core@Math@Palmtree@@YGIPAU__tag_PMC_HANDLE_UINT@1234@_K@Z:PROC ; Palmtree::Math::Core::Internal::PMC_Equals_X_L
EXTRN	?PMC_Equals_X_X@Internal@Core@Math@Palmtree@@YGIPAU__tag_PMC_HANDLE_UINT@1234@0@Z:PROC ; Palmtree::Math::Core::Internal::PMC_Equals_X_X
EXTRN	?PMC_GreatestCommonDivisor_I_X@Internal@Core@Math@Palmtree@@YGPAU__tag_PMC_HANDLE_UINT@1234@IPAU51234@@Z:PROC ; Palmtree::Math::Core::Internal::PMC_GreatestCommonDivisor_I_X
EXTRN	?PMC_GreatestCommonDivisor_L_X@Internal@Core@Math@Palmtree@@YGPAU__tag_PMC_HANDLE_UINT@1234@_KPAU51234@@Z:PROC ; Palmtree::Math::Core::Internal::PMC_GreatestCommonDivisor_L_X
EXTRN	?PMC_GreatestCommonDivisor_X_I@Internal@Core@Math@Palmtree@@YGPAU__tag_PMC_HANDLE_UINT@1234@PAU51234@I@Z:PROC ; Palmtree::Math::Core::Internal::PMC_GreatestCommonDivisor_X_I
EXTRN	?PMC_GreatestCommonDivisor_X_L@Internal@Core@Math@Palmtree@@YGPAU__tag_PMC_HANDLE_UINT@1234@PAU51234@_K@Z:PROC ; Palmtree::Math::Core::Internal::PMC_GreatestCommonDivisor_X_L
EXTRN	?PMC_GreatestCommonDivisor_X_X@Internal@Core@Math@Palmtree@@YGPAU__tag_PMC_HANDLE_UINT@1234@PAU51234@0@Z:PROC ; Palmtree::Math::Core::Internal::PMC_GreatestCommonDivisor_X_X
EXTRN	?PMC_Pow_X_I@Internal@Core@Math@Palmtree@@YGPAU__tag_PMC_HANDLE_UINT@1234@PAU51234@I@Z:PROC ; Palmtree::Math::Core::Internal::PMC_Pow_X_I
EXTRN	?PMC_Pow_X_L@Internal@Core@Math@Palmtree@@YGPAU__tag_PMC_HANDLE_UINT@1234@PAU51234@_K@Z:PROC ; Palmtree::Math::Core::Internal::PMC_Pow_X_L
EXTRN	?PMC_ModPow_X_X_X@Internal@Core@Math@Palmtree@@YGPAU__tag_PMC_HANDLE_UINT@1234@PAU51234@00@Z:PROC ; Palmtree::Math::Core::Internal::PMC_ModPow_X_X_X
EXTRN	@_RTC_CheckStackVars@8:PROC
EXTRN	@__CheckForDebuggerJustMyCode@4:PROC
EXTRN	@__security_check_cookie@4:PROC
EXTRN	__RTC_CheckEsp:PROC
EXTRN	__RTC_InitBase:PROC
EXTRN	__RTC_Shutdown:PROC
EXTRN	___CxxFrameHandler3:PROC
EXTRN	??_7type_info@@6B@:QWORD			; type_info::`vftable'
EXTRN	___security_cookie:DWORD
;	COMDAT rtc$TMZ
rtc$TMZ	SEGMENT
__RTC_Shutdown.rtc$TMZ DD FLAT:__RTC_Shutdown
rtc$TMZ	ENDS
;	COMDAT rtc$IMZ
rtc$IMZ	SEGMENT
__RTC_InitBase.rtc$IMZ DD FLAT:__RTC_InitBase
rtc$IMZ	ENDS
;	COMDAT ??_R0?AVException@Internal@Core@Math@Palmtree@@@8
data$r	SEGMENT
??_R0?AVException@Internal@Core@Math@Palmtree@@@8 DD FLAT:??_7type_info@@6B@ ; Palmtree::Math::Core::Internal::Exception `RTTI Type Descriptor'
	DD	00H
	DB	'.?AVException@Internal@Core@Math@Palmtree@@', 00H
data$r	ENDS
xdata$x	SEGMENT
__catchsym$_PMCCS_ModPow_X_X_X@16$2 DD 09H
	DD	FLAT:??_R0?AVException@Internal@Core@Math@Palmtree@@@8
	DD	0ffffffe8H
	DD	FLAT:__catch$_PMCCS_ModPow_X_X_X@16$0
__unwindtable$_PMCCS_ModPow_X_X_X@16 DD 0ffffffffH
	DD	00H
	DD	0ffffffffH
	DD	00H
__catchsym$_PMCCS_Pow_X_L@16$2 DD 09H
	DD	FLAT:??_R0?AVException@Internal@Core@Math@Palmtree@@@8
	DD	0ffffffe8H
	DD	FLAT:__catch$_PMCCS_Pow_X_L@16$0
__unwindtable$_PMCCS_Pow_X_L@16 DD 0ffffffffH
	DD	00H
	DD	0ffffffffH
	DD	00H
__catchsym$_PMCCS_Pow_X_I@12$2 DD 09H
	DD	FLAT:??_R0?AVException@Internal@Core@Math@Palmtree@@@8
	DD	0ffffffe8H
	DD	FLAT:__catch$_PMCCS_Pow_X_I@12$0
__unwindtable$_PMCCS_Pow_X_I@12 DD 0ffffffffH
	DD	00H
	DD	0ffffffffH
	DD	00H
__catchsym$_PMCCS_GreatestCommonDivisor_X_X@12$2 DD 09H
	DD	FLAT:??_R0?AVException@Internal@Core@Math@Palmtree@@@8
	DD	0ffffffe8H
	DD	FLAT:__catch$_PMCCS_GreatestCommonDivisor_X_X@12$0
__unwindtable$_PMCCS_GreatestCommonDivisor_X_X@12 DD 0ffffffffH
	DD	00H
	DD	0ffffffffH
	DD	00H
__catchsym$_PMCCS_GreatestCommonDivisor_X_L@16$2 DD 09H
	DD	FLAT:??_R0?AVException@Internal@Core@Math@Palmtree@@@8
	DD	0ffffffe8H
	DD	FLAT:__catch$_PMCCS_GreatestCommonDivisor_X_L@16$0
__unwindtable$_PMCCS_GreatestCommonDivisor_X_L@16 DD 0ffffffffH
	DD	00H
	DD	0ffffffffH
	DD	00H
__catchsym$_PMCCS_GreatestCommonDivisor_X_I@12$2 DD 09H
	DD	FLAT:??_R0?AVException@Internal@Core@Math@Palmtree@@@8
	DD	0ffffffe8H
	DD	FLAT:__catch$_PMCCS_GreatestCommonDivisor_X_I@12$0
__unwindtable$_PMCCS_GreatestCommonDivisor_X_I@12 DD 0ffffffffH
	DD	00H
	DD	0ffffffffH
	DD	00H
__catchsym$_PMCCS_GreatestCommonDivisor_L_X@16$2 DD 09H
	DD	FLAT:??_R0?AVException@Internal@Core@Math@Palmtree@@@8
	DD	0ffffffe8H
	DD	FLAT:__catch$_PMCCS_GreatestCommonDivisor_L_X@16$0
__unwindtable$_PMCCS_GreatestCommonDivisor_L_X@16 DD 0ffffffffH
	DD	00H
	DD	0ffffffffH
	DD	00H
__catchsym$_PMCCS_GreatestCommonDivisor_I_X@12$2 DD 09H
	DD	FLAT:??_R0?AVException@Internal@Core@Math@Palmtree@@@8
	DD	0ffffffe8H
	DD	FLAT:__catch$_PMCCS_GreatestCommonDivisor_I_X@12$0
__unwindtable$_PMCCS_GreatestCommonDivisor_I_X@12 DD 0ffffffffH
	DD	00H
	DD	0ffffffffH
	DD	00H
__catchsym$_PMCCS_Equals_X_X@12$2 DD 09H
	DD	FLAT:??_R0?AVException@Internal@Core@Math@Palmtree@@@8
	DD	0ffffffe8H
	DD	FLAT:__catch$_PMCCS_Equals_X_X@12$0
__unwindtable$_PMCCS_Equals_X_X@12 DD 0ffffffffH
	DD	00H
	DD	0ffffffffH
	DD	00H
__catchsym$_PMCCS_Equals_X_L@16$2 DD 09H
	DD	FLAT:??_R0?AVException@Internal@Core@Math@Palmtree@@@8
	DD	0ffffffe8H
	DD	FLAT:__catch$_PMCCS_Equals_X_L@16$0
__unwindtable$_PMCCS_Equals_X_L@16 DD 0ffffffffH
	DD	00H
	DD	0ffffffffH
	DD	00H
__catchsym$_PMCCS_Equals_X_I@12$2 DD 09H
	DD	FLAT:??_R0?AVException@Internal@Core@Math@Palmtree@@@8
	DD	0ffffffe8H
	DD	FLAT:__catch$_PMCCS_Equals_X_I@12$0
__unwindtable$_PMCCS_Equals_X_I@12 DD 0ffffffffH
	DD	00H
	DD	0ffffffffH
	DD	00H
__catchsym$_PMCCS_Equals_L_X@16$2 DD 09H
	DD	FLAT:??_R0?AVException@Internal@Core@Math@Palmtree@@@8
	DD	0ffffffe8H
	DD	FLAT:__catch$_PMCCS_Equals_L_X@16$0
__unwindtable$_PMCCS_Equals_L_X@16 DD 0ffffffffH
	DD	00H
	DD	0ffffffffH
	DD	00H
__catchsym$_PMCCS_Equals_I_X@12$2 DD 09H
	DD	FLAT:??_R0?AVException@Internal@Core@Math@Palmtree@@@8
	DD	0ffffffe8H
	DD	FLAT:__catch$_PMCCS_Equals_I_X@12$0
__unwindtable$_PMCCS_Equals_I_X@12 DD 0ffffffffH
	DD	00H
	DD	0ffffffffH
	DD	00H
__catchsym$_PMCCS_Compare_X_X@12$2 DD 09H
	DD	FLAT:??_R0?AVException@Internal@Core@Math@Palmtree@@@8
	DD	0ffffffe8H
	DD	FLAT:__catch$_PMCCS_Compare_X_X@12$0
__unwindtable$_PMCCS_Compare_X_X@12 DD 0ffffffffH
	DD	00H
	DD	0ffffffffH
	DD	00H
__catchsym$_PMCCS_Compare_X_L@16$2 DD 09H
	DD	FLAT:??_R0?AVException@Internal@Core@Math@Palmtree@@@8
	DD	0ffffffe8H
	DD	FLAT:__catch$_PMCCS_Compare_X_L@16$0
__unwindtable$_PMCCS_Compare_X_L@16 DD 0ffffffffH
	DD	00H
	DD	0ffffffffH
	DD	00H
__catchsym$_PMCCS_Compare_X_I@12$2 DD 09H
	DD	FLAT:??_R0?AVException@Internal@Core@Math@Palmtree@@@8
	DD	0ffffffe8H
	DD	FLAT:__catch$_PMCCS_Compare_X_I@12$0
__unwindtable$_PMCCS_Compare_X_I@12 DD 0ffffffffH
	DD	00H
	DD	0ffffffffH
	DD	00H
__catchsym$_PMCCS_Compare_L_X@16$2 DD 09H
	DD	FLAT:??_R0?AVException@Internal@Core@Math@Palmtree@@@8
	DD	0ffffffe8H
	DD	FLAT:__catch$_PMCCS_Compare_L_X@16$0
__unwindtable$_PMCCS_Compare_L_X@16 DD 0ffffffffH
	DD	00H
	DD	0ffffffffH
	DD	00H
__catchsym$_PMCCS_Compare_I_X@12$2 DD 09H
	DD	FLAT:??_R0?AVException@Internal@Core@Math@Palmtree@@@8
	DD	0ffffffe8H
	DD	FLAT:__catch$_PMCCS_Compare_I_X@12$0
__unwindtable$_PMCCS_Compare_I_X@12 DD 0ffffffffH
	DD	00H
	DD	0ffffffffH
	DD	00H
__catchsym$_PMCCS_ExclusiveOr_X_X@12$2 DD 09H
	DD	FLAT:??_R0?AVException@Internal@Core@Math@Palmtree@@@8
	DD	0ffffffe8H
	DD	FLAT:__catch$_PMCCS_ExclusiveOr_X_X@12$0
__unwindtable$_PMCCS_ExclusiveOr_X_X@12 DD 0ffffffffH
	DD	00H
	DD	0ffffffffH
	DD	00H
__catchsym$_PMCCS_ExclusiveOr_X_L@16$2 DD 09H
	DD	FLAT:??_R0?AVException@Internal@Core@Math@Palmtree@@@8
	DD	0ffffffe8H
	DD	FLAT:__catch$_PMCCS_ExclusiveOr_X_L@16$0
__unwindtable$_PMCCS_ExclusiveOr_X_L@16 DD 0ffffffffH
	DD	00H
	DD	0ffffffffH
	DD	00H
__catchsym$_PMCCS_ExclusiveOr_X_I@12$2 DD 09H
	DD	FLAT:??_R0?AVException@Internal@Core@Math@Palmtree@@@8
	DD	0ffffffe8H
	DD	FLAT:__catch$_PMCCS_ExclusiveOr_X_I@12$0
__unwindtable$_PMCCS_ExclusiveOr_X_I@12 DD 0ffffffffH
	DD	00H
	DD	0ffffffffH
	DD	00H
__catchsym$_PMCCS_ExclusiveOr_L_X@16$2 DD 09H
	DD	FLAT:??_R0?AVException@Internal@Core@Math@Palmtree@@@8
	DD	0ffffffe8H
	DD	FLAT:__catch$_PMCCS_ExclusiveOr_L_X@16$0
__unwindtable$_PMCCS_ExclusiveOr_L_X@16 DD 0ffffffffH
	DD	00H
	DD	0ffffffffH
	DD	00H
__catchsym$_PMCCS_ExclusiveOr_I_X@12$2 DD 09H
	DD	FLAT:??_R0?AVException@Internal@Core@Math@Palmtree@@@8
	DD	0ffffffe8H
	DD	FLAT:__catch$_PMCCS_ExclusiveOr_I_X@12$0
__unwindtable$_PMCCS_ExclusiveOr_I_X@12 DD 0ffffffffH
	DD	00H
	DD	0ffffffffH
	DD	00H
__catchsym$_PMCCS_BitwiseOr_X_X@12$2 DD 09H
	DD	FLAT:??_R0?AVException@Internal@Core@Math@Palmtree@@@8
	DD	0ffffffe8H
	DD	FLAT:__catch$_PMCCS_BitwiseOr_X_X@12$0
__unwindtable$_PMCCS_BitwiseOr_X_X@12 DD 0ffffffffH
	DD	00H
	DD	0ffffffffH
	DD	00H
__catchsym$_PMCCS_BitwiseOr_X_L@16$2 DD 09H
	DD	FLAT:??_R0?AVException@Internal@Core@Math@Palmtree@@@8
	DD	0ffffffe8H
	DD	FLAT:__catch$_PMCCS_BitwiseOr_X_L@16$0
__unwindtable$_PMCCS_BitwiseOr_X_L@16 DD 0ffffffffH
	DD	00H
	DD	0ffffffffH
	DD	00H
__catchsym$_PMCCS_BitwiseOr_X_I@12$2 DD 09H
	DD	FLAT:??_R0?AVException@Internal@Core@Math@Palmtree@@@8
	DD	0ffffffe8H
	DD	FLAT:__catch$_PMCCS_BitwiseOr_X_I@12$0
__unwindtable$_PMCCS_BitwiseOr_X_I@12 DD 0ffffffffH
	DD	00H
	DD	0ffffffffH
	DD	00H
__catchsym$_PMCCS_BitwiseOr_L_X@16$2 DD 09H
	DD	FLAT:??_R0?AVException@Internal@Core@Math@Palmtree@@@8
	DD	0ffffffe8H
	DD	FLAT:__catch$_PMCCS_BitwiseOr_L_X@16$0
__unwindtable$_PMCCS_BitwiseOr_L_X@16 DD 0ffffffffH
	DD	00H
	DD	0ffffffffH
	DD	00H
__catchsym$_PMCCS_BitwiseOr_I_X@12$2 DD 09H
	DD	FLAT:??_R0?AVException@Internal@Core@Math@Palmtree@@@8
	DD	0ffffffe8H
	DD	FLAT:__catch$_PMCCS_BitwiseOr_I_X@12$0
__unwindtable$_PMCCS_BitwiseOr_I_X@12 DD 0ffffffffH
	DD	00H
	DD	0ffffffffH
	DD	00H
__catchsym$_PMCCS_BitwiseAnd_X_X@12$2 DD 09H
	DD	FLAT:??_R0?AVException@Internal@Core@Math@Palmtree@@@8
	DD	0ffffffe8H
	DD	FLAT:__catch$_PMCCS_BitwiseAnd_X_X@12$0
__unwindtable$_PMCCS_BitwiseAnd_X_X@12 DD 0ffffffffH
	DD	00H
	DD	0ffffffffH
	DD	00H
__catchsym$_PMCCS_BitwiseAnd_X_L@16$2 DD 09H
	DD	FLAT:??_R0?AVException@Internal@Core@Math@Palmtree@@@8
	DD	0ffffffe8H
	DD	FLAT:__catch$_PMCCS_BitwiseAnd_X_L@16$0
__unwindtable$_PMCCS_BitwiseAnd_X_L@16 DD 0ffffffffH
	DD	00H
	DD	0ffffffffH
	DD	00H
__catchsym$_PMCCS_BitwiseAnd_X_I@12$2 DD 09H
	DD	FLAT:??_R0?AVException@Internal@Core@Math@Palmtree@@@8
	DD	0ffffffe8H
	DD	FLAT:__catch$_PMCCS_BitwiseAnd_X_I@12$0
__unwindtable$_PMCCS_BitwiseAnd_X_I@12 DD 0ffffffffH
	DD	00H
	DD	0ffffffffH
	DD	00H
__catchsym$_PMCCS_BitwiseAnd_L_X@16$2 DD 09H
	DD	FLAT:??_R0?AVException@Internal@Core@Math@Palmtree@@@8
	DD	0ffffffe8H
	DD	FLAT:__catch$_PMCCS_BitwiseAnd_L_X@16$0
__unwindtable$_PMCCS_BitwiseAnd_L_X@16 DD 0ffffffffH
	DD	00H
	DD	0ffffffffH
	DD	00H
__catchsym$_PMCCS_BitwiseAnd_I_X@12$2 DD 09H
	DD	FLAT:??_R0?AVException@Internal@Core@Math@Palmtree@@@8
	DD	0ffffffe8H
	DD	FLAT:__catch$_PMCCS_BitwiseAnd_I_X@12$0
__unwindtable$_PMCCS_BitwiseAnd_I_X@12 DD 0ffffffffH
	DD	00H
	DD	0ffffffffH
	DD	00H
__catchsym$_PMCCS_LeftShift_X_I@12$2 DD 09H
	DD	FLAT:??_R0?AVException@Internal@Core@Math@Palmtree@@@8
	DD	0ffffffe8H
	DD	FLAT:__catch$_PMCCS_LeftShift_X_I@12$0
__unwindtable$_PMCCS_LeftShift_X_I@12 DD 0ffffffffH
	DD	00H
	DD	0ffffffffH
	DD	00H
__catchsym$_PMCCS_RightShift_X_I@12$2 DD 09H
	DD	FLAT:??_R0?AVException@Internal@Core@Math@Palmtree@@@8
	DD	0ffffffe8H
	DD	FLAT:__catch$_PMCCS_RightShift_X_I@12$0
__unwindtable$_PMCCS_RightShift_X_I@12 DD 0ffffffffH
	DD	00H
	DD	0ffffffffH
	DD	00H
__catchsym$_PMCCS_Remainder_X_X@12$2 DD 09H
	DD	FLAT:??_R0?AVException@Internal@Core@Math@Palmtree@@@8
	DD	0ffffffe8H
	DD	FLAT:__catch$_PMCCS_Remainder_X_X@12$0
__unwindtable$_PMCCS_Remainder_X_X@12 DD 0ffffffffH
	DD	00H
	DD	0ffffffffH
	DD	00H
__catchsym$_PMCCS_Remainder_X_L@16$2 DD 09H
	DD	FLAT:??_R0?AVException@Internal@Core@Math@Palmtree@@@8
	DD	0ffffffe8H
	DD	FLAT:__catch$_PMCCS_Remainder_X_L@16$0
__unwindtable$_PMCCS_Remainder_X_L@16 DD 0ffffffffH
	DD	00H
	DD	0ffffffffH
	DD	00H
__catchsym$_PMCCS_Remainder_X_I@12$2 DD 09H
	DD	FLAT:??_R0?AVException@Internal@Core@Math@Palmtree@@@8
	DD	0ffffffe8H
	DD	FLAT:__catch$_PMCCS_Remainder_X_I@12$0
__unwindtable$_PMCCS_Remainder_X_I@12 DD 0ffffffffH
	DD	00H
	DD	0ffffffffH
	DD	00H
__catchsym$_PMCCS_Remainder_L_X@16$2 DD 09H
	DD	FLAT:??_R0?AVException@Internal@Core@Math@Palmtree@@@8
	DD	0ffffffe8H
	DD	FLAT:__catch$_PMCCS_Remainder_L_X@16$0
__unwindtable$_PMCCS_Remainder_L_X@16 DD 0ffffffffH
	DD	00H
	DD	0ffffffffH
	DD	00H
__catchsym$_PMCCS_Remainder_I_X@12$2 DD 09H
	DD	FLAT:??_R0?AVException@Internal@Core@Math@Palmtree@@@8
	DD	0ffffffe8H
	DD	FLAT:__catch$_PMCCS_Remainder_I_X@12$0
__unwindtable$_PMCCS_Remainder_I_X@12 DD 0ffffffffH
	DD	00H
	DD	0ffffffffH
	DD	00H
__catchsym$_PMCCS_DivRem_X_X@16$2 DD 09H
	DD	FLAT:??_R0?AVException@Internal@Core@Math@Palmtree@@@8
	DD	0ffffffe8H
	DD	FLAT:__catch$_PMCCS_DivRem_X_X@16$0
__unwindtable$_PMCCS_DivRem_X_X@16 DD 0ffffffffH
	DD	00H
	DD	0ffffffffH
	DD	00H
__catchsym$_PMCCS_DivRem_X_L@20$2 DD 09H
	DD	FLAT:??_R0?AVException@Internal@Core@Math@Palmtree@@@8
	DD	0ffffffe8H
	DD	FLAT:__catch$_PMCCS_DivRem_X_L@20$0
__unwindtable$_PMCCS_DivRem_X_L@20 DD 0ffffffffH
	DD	00H
	DD	0ffffffffH
	DD	00H
__catchsym$_PMCCS_DivRem_X_I@16$2 DD 09H
	DD	FLAT:??_R0?AVException@Internal@Core@Math@Palmtree@@@8
	DD	0ffffffe8H
	DD	FLAT:__catch$_PMCCS_DivRem_X_I@16$0
__unwindtable$_PMCCS_DivRem_X_I@16 DD 0ffffffffH
	DD	00H
	DD	0ffffffffH
	DD	00H
__catchsym$_PMCCS_DivRem_L_X@20$2 DD 09H
	DD	FLAT:??_R0?AVException@Internal@Core@Math@Palmtree@@@8
	DD	0ffffffe8H
	DD	FLAT:__catch$_PMCCS_DivRem_L_X@20$0
__unwindtable$_PMCCS_DivRem_L_X@20 DD 0ffffffffH
	DD	00H
	DD	0ffffffffH
	DD	00H
__catchsym$_PMCCS_DivRem_I_X@16$2 DD 09H
	DD	FLAT:??_R0?AVException@Internal@Core@Math@Palmtree@@@8
	DD	0ffffffe8H
	DD	FLAT:__catch$_PMCCS_DivRem_I_X@16$0
__unwindtable$_PMCCS_DivRem_I_X@16 DD 0ffffffffH
	DD	00H
	DD	0ffffffffH
	DD	00H
__catchsym$_PMCCS_Multiply_X_X@12$2 DD 09H
	DD	FLAT:??_R0?AVException@Internal@Core@Math@Palmtree@@@8
	DD	0ffffffe8H
	DD	FLAT:__catch$_PMCCS_Multiply_X_X@12$0
__unwindtable$_PMCCS_Multiply_X_X@12 DD 0ffffffffH
	DD	00H
	DD	0ffffffffH
	DD	00H
__catchsym$_PMCCS_Multiply_X_L@16$2 DD 09H
	DD	FLAT:??_R0?AVException@Internal@Core@Math@Palmtree@@@8
	DD	0ffffffe8H
	DD	FLAT:__catch$_PMCCS_Multiply_X_L@16$0
__unwindtable$_PMCCS_Multiply_X_L@16 DD 0ffffffffH
	DD	00H
	DD	0ffffffffH
	DD	00H
__catchsym$_PMCCS_Multiply_X_I@12$2 DD 09H
	DD	FLAT:??_R0?AVException@Internal@Core@Math@Palmtree@@@8
	DD	0ffffffe8H
	DD	FLAT:__catch$_PMCCS_Multiply_X_I@12$0
__unwindtable$_PMCCS_Multiply_X_I@12 DD 0ffffffffH
	DD	00H
	DD	0ffffffffH
	DD	00H
__catchsym$_PMCCS_Multiply_L_X@16$2 DD 09H
	DD	FLAT:??_R0?AVException@Internal@Core@Math@Palmtree@@@8
	DD	0ffffffe8H
	DD	FLAT:__catch$_PMCCS_Multiply_L_X@16$0
__unwindtable$_PMCCS_Multiply_L_X@16 DD 0ffffffffH
	DD	00H
	DD	0ffffffffH
	DD	00H
__catchsym$_PMCCS_Multiply_I_X@12$2 DD 09H
	DD	FLAT:??_R0?AVException@Internal@Core@Math@Palmtree@@@8
	DD	0ffffffe8H
	DD	FLAT:__catch$_PMCCS_Multiply_I_X@12$0
__unwindtable$_PMCCS_Multiply_I_X@12 DD 0ffffffffH
	DD	00H
	DD	0ffffffffH
	DD	00H
__catchsym$_PMCCS_Subtruct_X_X@12$2 DD 09H
	DD	FLAT:??_R0?AVException@Internal@Core@Math@Palmtree@@@8
	DD	0ffffffe8H
	DD	FLAT:__catch$_PMCCS_Subtruct_X_X@12$0
__unwindtable$_PMCCS_Subtruct_X_X@12 DD 0ffffffffH
	DD	00H
	DD	0ffffffffH
	DD	00H
__catchsym$_PMCCS_Subtruct_X_L@16$2 DD 09H
	DD	FLAT:??_R0?AVException@Internal@Core@Math@Palmtree@@@8
	DD	0ffffffe8H
	DD	FLAT:__catch$_PMCCS_Subtruct_X_L@16$0
__unwindtable$_PMCCS_Subtruct_X_L@16 DD 0ffffffffH
	DD	00H
	DD	0ffffffffH
	DD	00H
__catchsym$_PMCCS_Subtruct_X_I@12$2 DD 09H
	DD	FLAT:??_R0?AVException@Internal@Core@Math@Palmtree@@@8
	DD	0ffffffe8H
	DD	FLAT:__catch$_PMCCS_Subtruct_X_I@12$0
__unwindtable$_PMCCS_Subtruct_X_I@12 DD 0ffffffffH
	DD	00H
	DD	0ffffffffH
	DD	00H
__catchsym$_PMCCS_Subtruct_L_X@16$2 DD 09H
	DD	FLAT:??_R0?AVException@Internal@Core@Math@Palmtree@@@8
	DD	0ffffffe8H
	DD	FLAT:__catch$_PMCCS_Subtruct_L_X@16$0
__unwindtable$_PMCCS_Subtruct_L_X@16 DD 0ffffffffH
	DD	00H
	DD	0ffffffffH
	DD	00H
__catchsym$_PMCCS_Subtruct_I_X@12$2 DD 09H
	DD	FLAT:??_R0?AVException@Internal@Core@Math@Palmtree@@@8
	DD	0ffffffe8H
	DD	FLAT:__catch$_PMCCS_Subtruct_I_X@12$0
__unwindtable$_PMCCS_Subtruct_I_X@12 DD 0ffffffffH
	DD	00H
	DD	0ffffffffH
	DD	00H
__catchsym$_PMCCS_Add_X_X@12$2 DD 09H
	DD	FLAT:??_R0?AVException@Internal@Core@Math@Palmtree@@@8
	DD	0ffffffe8H
	DD	FLAT:__catch$_PMCCS_Add_X_X@12$0
__unwindtable$_PMCCS_Add_X_X@12 DD 0ffffffffH
	DD	00H
	DD	0ffffffffH
	DD	00H
__catchsym$_PMCCS_Add_X_L@16$2 DD 09H
	DD	FLAT:??_R0?AVException@Internal@Core@Math@Palmtree@@@8
	DD	0ffffffe8H
	DD	FLAT:__catch$_PMCCS_Add_X_L@16$0
__unwindtable$_PMCCS_Add_X_L@16 DD 0ffffffffH
	DD	00H
	DD	0ffffffffH
	DD	00H
__catchsym$_PMCCS_Add_X_I@12$2 DD 09H
	DD	FLAT:??_R0?AVException@Internal@Core@Math@Palmtree@@@8
	DD	0ffffffe8H
	DD	FLAT:__catch$_PMCCS_Add_X_I@12$0
__unwindtable$_PMCCS_Add_X_I@12 DD 0ffffffffH
	DD	00H
	DD	0ffffffffH
	DD	00H
__catchsym$_PMCCS_Add_L_X@16$2 DD 09H
	DD	FLAT:??_R0?AVException@Internal@Core@Math@Palmtree@@@8
	DD	0ffffffe8H
	DD	FLAT:__catch$_PMCCS_Add_L_X@16$0
__unwindtable$_PMCCS_Add_L_X@16 DD 0ffffffffH
	DD	00H
	DD	0ffffffffH
	DD	00H
__catchsym$_PMCCS_Add_I_X@12$2 DD 09H
	DD	FLAT:??_R0?AVException@Internal@Core@Math@Palmtree@@@8
	DD	0ffffffe8H
	DD	FLAT:__catch$_PMCCS_Add_I_X@12$0
__unwindtable$_PMCCS_Add_I_X@12 DD 0ffffffffH
	DD	00H
	DD	0ffffffffH
	DD	00H
__catchsym$_PMCCS_TryParse@20$2 DD 09H
	DD	FLAT:??_R0?AVException@Internal@Core@Math@Palmtree@@@8
	DD	0ffffffe4H
	DD	FLAT:__catch$_PMCCS_TryParse@20$0
__unwindtable$_PMCCS_TryParse@20 DD 0ffffffffH
	DD	00H
	DD	0ffffffffH
	DD	00H
__catchsym$_PMCCS_Parse@16$2 DD 09H
	DD	FLAT:??_R0?AVException@Internal@Core@Math@Palmtree@@@8
	DD	0ffffffd8H
	DD	FLAT:__catch$_PMCCS_Parse@16$0
__unwindtable$_PMCCS_Parse@16 DD 0ffffffffH
	DD	00H
	DD	0ffffffffH
	DD	00H
__catchsym$_PMCCS_ToString@24$2 DD 09H
	DD	FLAT:??_R0?AVException@Internal@Core@Math@Palmtree@@@8
	DD	0ffffffe4H
	DD	FLAT:__catch$_PMCCS_ToString@24$0
__unwindtable$_PMCCS_ToString@24 DD 0ffffffffH
	DD	00H
	DD	0ffffffffH
	DD	00H
__catchsym$_PMCCS_To_X_L@8$2 DD 09H
	DD	FLAT:??_R0?AVException@Internal@Core@Math@Palmtree@@@8
	DD	0ffffffe8H
	DD	FLAT:__catch$_PMCCS_To_X_L@8$0
__unwindtable$_PMCCS_To_X_L@8 DD 0ffffffffH
	DD	00H
	DD	0ffffffffH
	DD	00H
__catchsym$_PMCCS_To_X_I@8$2 DD 09H
	DD	FLAT:??_R0?AVException@Internal@Core@Math@Palmtree@@@8
	DD	0ffffffe8H
	DD	FLAT:__catch$_PMCCS_To_X_I@8$0
__unwindtable$_PMCCS_To_X_I@8 DD 0ffffffffH
	DD	00H
	DD	0ffffffffH
	DD	00H
__catchsym$_PMCCS_GetAllocatedMemorySize@4$2 DD 09H
	DD	FLAT:??_R0?AVException@Internal@Core@Math@Palmtree@@@8
	DD	0ffffffe8H
	DD	FLAT:__catch$_PMCCS_GetAllocatedMemorySize@4$0
__unwindtable$_PMCCS_GetAllocatedMemorySize@4 DD 0ffffffffH
	DD	00H
	DD	0ffffffffH
	DD	00H
__catchsym$_PMCCS_Clone_X@8$2 DD 09H
	DD	FLAT:??_R0?AVException@Internal@Core@Math@Palmtree@@@8
	DD	0ffffffe8H
	DD	FLAT:__catch$_PMCCS_Clone_X@8$0
__unwindtable$_PMCCS_Clone_X@8 DD 0ffffffffH
	DD	00H
	DD	0ffffffffH
	DD	00H
__catchsym$_PMCCS_ToByteArray@16$2 DD 09H
	DD	FLAT:??_R0?AVException@Internal@Core@Math@Palmtree@@@8
	DD	0ffffffe4H
	DD	FLAT:__catch$_PMCCS_ToByteArray@16$0
__unwindtable$_PMCCS_ToByteArray@16 DD 0ffffffffH
	DD	00H
	DD	0ffffffffH
	DD	00H
__catchsym$_PMCCS_FromByteArray@12$2 DD 09H
	DD	FLAT:??_R0?AVException@Internal@Core@Math@Palmtree@@@8
	DD	0ffffffe8H
	DD	FLAT:__catch$_PMCCS_FromByteArray@12$0
__unwindtable$_PMCCS_FromByteArray@12 DD 0ffffffffH
	DD	00H
	DD	0ffffffffH
	DD	00H
__catchsym$_PMCCS_GetConstantValue_I@8$2 DD 09H
	DD	FLAT:??_R0?AVException@Internal@Core@Math@Palmtree@@@8
	DD	0ffffffe8H
	DD	FLAT:__catch$_PMCCS_GetConstantValue_I@8$0
__unwindtable$_PMCCS_GetConstantValue_I@8 DD 0ffffffffH
	DD	00H
	DD	0ffffffffH
	DD	00H
__catchsym$_PMCCS_Dispose@4$2 DD 09H
	DD	FLAT:??_R0?AVException@Internal@Core@Math@Palmtree@@@8
	DD	0ffffffe8H
	DD	FLAT:__catch$_PMCCS_Dispose@4$0
__unwindtable$_PMCCS_Dispose@4 DD 0ffffffffH
	DD	00H
	DD	0ffffffffH
	DD	00H
__catchsym$_PMCCS_From_L@12$2 DD 09H
	DD	FLAT:??_R0?AVException@Internal@Core@Math@Palmtree@@@8
	DD	0ffffffe8H
	DD	FLAT:__catch$_PMCCS_From_L@12$0
__unwindtable$_PMCCS_From_L@12 DD 0ffffffffH
	DD	00H
	DD	0ffffffffH
	DD	00H
__catchsym$_PMCCS_From_I@8$2 DD 09H
	DD	FLAT:??_R0?AVException@Internal@Core@Math@Palmtree@@@8
	DD	0ffffffe8H
	DD	FLAT:__catch$_PMCCS_From_I@8$0
__unwindtable$_PMCCS_From_I@8 DD 0ffffffffH
	DD	00H
	DD	0ffffffffH
	DD	00H
__catchsym$_PMCCS_GET_HASH_CODE@8$2 DD 09H
	DD	FLAT:??_R0?AVException@Internal@Core@Math@Palmtree@@@8
	DD	0ffffffe8H
	DD	FLAT:__catch$_PMCCS_GET_HASH_CODE@8$0
__unwindtable$_PMCCS_GET_HASH_CODE@8 DD 0ffffffffH
	DD	00H
	DD	0ffffffffH
	DD	00H
__catchsym$_PMCCS_IS_ZERO@8$2 DD 09H
	DD	FLAT:??_R0?AVException@Internal@Core@Math@Palmtree@@@8
	DD	0ffffffe8H
	DD	FLAT:__catch$_PMCCS_IS_ZERO@8$0
__unwindtable$_PMCCS_IS_ZERO@8 DD 0ffffffffH
	DD	00H
	DD	0ffffffffH
	DD	00H
__catchsym$_PMCCS_IS_POWER_OF_TWO@8$2 DD 09H
	DD	FLAT:??_R0?AVException@Internal@Core@Math@Palmtree@@@8
	DD	0ffffffe8H
	DD	FLAT:__catch$_PMCCS_IS_POWER_OF_TWO@8$0
__unwindtable$_PMCCS_IS_POWER_OF_TWO@8 DD 0ffffffffH
	DD	00H
	DD	0ffffffffH
	DD	00H
__catchsym$_PMCCS_IS_ONE@8$2 DD 09H
	DD	FLAT:??_R0?AVException@Internal@Core@Math@Palmtree@@@8
	DD	0ffffffe8H
	DD	FLAT:__catch$_PMCCS_IS_ONE@8$0
__unwindtable$_PMCCS_IS_ONE@8 DD 0ffffffffH
	DD	00H
	DD	0ffffffffH
	DD	00H
__catchsym$_PMCCS_IS_EVEN@8$2 DD 09H
	DD	FLAT:??_R0?AVException@Internal@Core@Math@Palmtree@@@8
	DD	0ffffffe8H
	DD	FLAT:__catch$_PMCCS_IS_EVEN@8$0
__unwindtable$_PMCCS_IS_EVEN@8 DD 0ffffffffH
	DD	00H
	DD	0ffffffffH
	DD	00H
__tryblocktable$_PMCCS_ModPow_X_X_X@16 DD 00H
	DD	00H
	DD	01H
	DD	01H
	DD	FLAT:__catchsym$_PMCCS_ModPow_X_X_X@16$2
__tryblocktable$_PMCCS_Pow_X_L@16 DD 00H
	DD	00H
	DD	01H
	DD	01H
	DD	FLAT:__catchsym$_PMCCS_Pow_X_L@16$2
__tryblocktable$_PMCCS_Pow_X_I@12 DD 00H
	DD	00H
	DD	01H
	DD	01H
	DD	FLAT:__catchsym$_PMCCS_Pow_X_I@12$2
__tryblocktable$_PMCCS_GreatestCommonDivisor_X_X@12 DD 00H
	DD	00H
	DD	01H
	DD	01H
	DD	FLAT:__catchsym$_PMCCS_GreatestCommonDivisor_X_X@12$2
__tryblocktable$_PMCCS_GreatestCommonDivisor_X_L@16 DD 00H
	DD	00H
	DD	01H
	DD	01H
	DD	FLAT:__catchsym$_PMCCS_GreatestCommonDivisor_X_L@16$2
__tryblocktable$_PMCCS_GreatestCommonDivisor_X_I@12 DD 00H
	DD	00H
	DD	01H
	DD	01H
	DD	FLAT:__catchsym$_PMCCS_GreatestCommonDivisor_X_I@12$2
__tryblocktable$_PMCCS_GreatestCommonDivisor_L_X@16 DD 00H
	DD	00H
	DD	01H
	DD	01H
	DD	FLAT:__catchsym$_PMCCS_GreatestCommonDivisor_L_X@16$2
__tryblocktable$_PMCCS_GreatestCommonDivisor_I_X@12 DD 00H
	DD	00H
	DD	01H
	DD	01H
	DD	FLAT:__catchsym$_PMCCS_GreatestCommonDivisor_I_X@12$2
__tryblocktable$_PMCCS_Equals_X_X@12 DD 00H
	DD	00H
	DD	01H
	DD	01H
	DD	FLAT:__catchsym$_PMCCS_Equals_X_X@12$2
__tryblocktable$_PMCCS_Equals_X_L@16 DD 00H
	DD	00H
	DD	01H
	DD	01H
	DD	FLAT:__catchsym$_PMCCS_Equals_X_L@16$2
__tryblocktable$_PMCCS_Equals_X_I@12 DD 00H
	DD	00H
	DD	01H
	DD	01H
	DD	FLAT:__catchsym$_PMCCS_Equals_X_I@12$2
__tryblocktable$_PMCCS_Equals_L_X@16 DD 00H
	DD	00H
	DD	01H
	DD	01H
	DD	FLAT:__catchsym$_PMCCS_Equals_L_X@16$2
__tryblocktable$_PMCCS_Equals_I_X@12 DD 00H
	DD	00H
	DD	01H
	DD	01H
	DD	FLAT:__catchsym$_PMCCS_Equals_I_X@12$2
__tryblocktable$_PMCCS_Compare_X_X@12 DD 00H
	DD	00H
	DD	01H
	DD	01H
	DD	FLAT:__catchsym$_PMCCS_Compare_X_X@12$2
__tryblocktable$_PMCCS_Compare_X_L@16 DD 00H
	DD	00H
	DD	01H
	DD	01H
	DD	FLAT:__catchsym$_PMCCS_Compare_X_L@16$2
__tryblocktable$_PMCCS_Compare_X_I@12 DD 00H
	DD	00H
	DD	01H
	DD	01H
	DD	FLAT:__catchsym$_PMCCS_Compare_X_I@12$2
__tryblocktable$_PMCCS_Compare_L_X@16 DD 00H
	DD	00H
	DD	01H
	DD	01H
	DD	FLAT:__catchsym$_PMCCS_Compare_L_X@16$2
__tryblocktable$_PMCCS_Compare_I_X@12 DD 00H
	DD	00H
	DD	01H
	DD	01H
	DD	FLAT:__catchsym$_PMCCS_Compare_I_X@12$2
__tryblocktable$_PMCCS_ExclusiveOr_X_X@12 DD 00H
	DD	00H
	DD	01H
	DD	01H
	DD	FLAT:__catchsym$_PMCCS_ExclusiveOr_X_X@12$2
__tryblocktable$_PMCCS_ExclusiveOr_X_L@16 DD 00H
	DD	00H
	DD	01H
	DD	01H
	DD	FLAT:__catchsym$_PMCCS_ExclusiveOr_X_L@16$2
__tryblocktable$_PMCCS_ExclusiveOr_X_I@12 DD 00H
	DD	00H
	DD	01H
	DD	01H
	DD	FLAT:__catchsym$_PMCCS_ExclusiveOr_X_I@12$2
__tryblocktable$_PMCCS_ExclusiveOr_L_X@16 DD 00H
	DD	00H
	DD	01H
	DD	01H
	DD	FLAT:__catchsym$_PMCCS_ExclusiveOr_L_X@16$2
__tryblocktable$_PMCCS_ExclusiveOr_I_X@12 DD 00H
	DD	00H
	DD	01H
	DD	01H
	DD	FLAT:__catchsym$_PMCCS_ExclusiveOr_I_X@12$2
__tryblocktable$_PMCCS_BitwiseOr_X_X@12 DD 00H
	DD	00H
	DD	01H
	DD	01H
	DD	FLAT:__catchsym$_PMCCS_BitwiseOr_X_X@12$2
__tryblocktable$_PMCCS_BitwiseOr_X_L@16 DD 00H
	DD	00H
	DD	01H
	DD	01H
	DD	FLAT:__catchsym$_PMCCS_BitwiseOr_X_L@16$2
__tryblocktable$_PMCCS_BitwiseOr_X_I@12 DD 00H
	DD	00H
	DD	01H
	DD	01H
	DD	FLAT:__catchsym$_PMCCS_BitwiseOr_X_I@12$2
__tryblocktable$_PMCCS_BitwiseOr_L_X@16 DD 00H
	DD	00H
	DD	01H
	DD	01H
	DD	FLAT:__catchsym$_PMCCS_BitwiseOr_L_X@16$2
__tryblocktable$_PMCCS_BitwiseOr_I_X@12 DD 00H
	DD	00H
	DD	01H
	DD	01H
	DD	FLAT:__catchsym$_PMCCS_BitwiseOr_I_X@12$2
__tryblocktable$_PMCCS_BitwiseAnd_X_X@12 DD 00H
	DD	00H
	DD	01H
	DD	01H
	DD	FLAT:__catchsym$_PMCCS_BitwiseAnd_X_X@12$2
__tryblocktable$_PMCCS_BitwiseAnd_X_L@16 DD 00H
	DD	00H
	DD	01H
	DD	01H
	DD	FLAT:__catchsym$_PMCCS_BitwiseAnd_X_L@16$2
__tryblocktable$_PMCCS_BitwiseAnd_X_I@12 DD 00H
	DD	00H
	DD	01H
	DD	01H
	DD	FLAT:__catchsym$_PMCCS_BitwiseAnd_X_I@12$2
__tryblocktable$_PMCCS_BitwiseAnd_L_X@16 DD 00H
	DD	00H
	DD	01H
	DD	01H
	DD	FLAT:__catchsym$_PMCCS_BitwiseAnd_L_X@16$2
__tryblocktable$_PMCCS_BitwiseAnd_I_X@12 DD 00H
	DD	00H
	DD	01H
	DD	01H
	DD	FLAT:__catchsym$_PMCCS_BitwiseAnd_I_X@12$2
__tryblocktable$_PMCCS_LeftShift_X_I@12 DD 00H
	DD	00H
	DD	01H
	DD	01H
	DD	FLAT:__catchsym$_PMCCS_LeftShift_X_I@12$2
__tryblocktable$_PMCCS_RightShift_X_I@12 DD 00H
	DD	00H
	DD	01H
	DD	01H
	DD	FLAT:__catchsym$_PMCCS_RightShift_X_I@12$2
__tryblocktable$_PMCCS_Remainder_X_X@12 DD 00H
	DD	00H
	DD	01H
	DD	01H
	DD	FLAT:__catchsym$_PMCCS_Remainder_X_X@12$2
__tryblocktable$_PMCCS_Remainder_X_L@16 DD 00H
	DD	00H
	DD	01H
	DD	01H
	DD	FLAT:__catchsym$_PMCCS_Remainder_X_L@16$2
__tryblocktable$_PMCCS_Remainder_X_I@12 DD 00H
	DD	00H
	DD	01H
	DD	01H
	DD	FLAT:__catchsym$_PMCCS_Remainder_X_I@12$2
__tryblocktable$_PMCCS_Remainder_L_X@16 DD 00H
	DD	00H
	DD	01H
	DD	01H
	DD	FLAT:__catchsym$_PMCCS_Remainder_L_X@16$2
__tryblocktable$_PMCCS_Remainder_I_X@12 DD 00H
	DD	00H
	DD	01H
	DD	01H
	DD	FLAT:__catchsym$_PMCCS_Remainder_I_X@12$2
__tryblocktable$_PMCCS_DivRem_X_X@16 DD 00H
	DD	00H
	DD	01H
	DD	01H
	DD	FLAT:__catchsym$_PMCCS_DivRem_X_X@16$2
__tryblocktable$_PMCCS_DivRem_X_L@20 DD 00H
	DD	00H
	DD	01H
	DD	01H
	DD	FLAT:__catchsym$_PMCCS_DivRem_X_L@20$2
__tryblocktable$_PMCCS_DivRem_X_I@16 DD 00H
	DD	00H
	DD	01H
	DD	01H
	DD	FLAT:__catchsym$_PMCCS_DivRem_X_I@16$2
__tryblocktable$_PMCCS_DivRem_L_X@20 DD 00H
	DD	00H
	DD	01H
	DD	01H
	DD	FLAT:__catchsym$_PMCCS_DivRem_L_X@20$2
__tryblocktable$_PMCCS_DivRem_I_X@16 DD 00H
	DD	00H
	DD	01H
	DD	01H
	DD	FLAT:__catchsym$_PMCCS_DivRem_I_X@16$2
__tryblocktable$_PMCCS_Multiply_X_X@12 DD 00H
	DD	00H
	DD	01H
	DD	01H
	DD	FLAT:__catchsym$_PMCCS_Multiply_X_X@12$2
__tryblocktable$_PMCCS_Multiply_X_L@16 DD 00H
	DD	00H
	DD	01H
	DD	01H
	DD	FLAT:__catchsym$_PMCCS_Multiply_X_L@16$2
__tryblocktable$_PMCCS_Multiply_X_I@12 DD 00H
	DD	00H
	DD	01H
	DD	01H
	DD	FLAT:__catchsym$_PMCCS_Multiply_X_I@12$2
__tryblocktable$_PMCCS_Multiply_L_X@16 DD 00H
	DD	00H
	DD	01H
	DD	01H
	DD	FLAT:__catchsym$_PMCCS_Multiply_L_X@16$2
__tryblocktable$_PMCCS_Multiply_I_X@12 DD 00H
	DD	00H
	DD	01H
	DD	01H
	DD	FLAT:__catchsym$_PMCCS_Multiply_I_X@12$2
__tryblocktable$_PMCCS_Subtruct_X_X@12 DD 00H
	DD	00H
	DD	01H
	DD	01H
	DD	FLAT:__catchsym$_PMCCS_Subtruct_X_X@12$2
__tryblocktable$_PMCCS_Subtruct_X_L@16 DD 00H
	DD	00H
	DD	01H
	DD	01H
	DD	FLAT:__catchsym$_PMCCS_Subtruct_X_L@16$2
__tryblocktable$_PMCCS_Subtruct_X_I@12 DD 00H
	DD	00H
	DD	01H
	DD	01H
	DD	FLAT:__catchsym$_PMCCS_Subtruct_X_I@12$2
__tryblocktable$_PMCCS_Subtruct_L_X@16 DD 00H
	DD	00H
	DD	01H
	DD	01H
	DD	FLAT:__catchsym$_PMCCS_Subtruct_L_X@16$2
__tryblocktable$_PMCCS_Subtruct_I_X@12 DD 00H
	DD	00H
	DD	01H
	DD	01H
	DD	FLAT:__catchsym$_PMCCS_Subtruct_I_X@12$2
__tryblocktable$_PMCCS_Add_X_X@12 DD 00H
	DD	00H
	DD	01H
	DD	01H
	DD	FLAT:__catchsym$_PMCCS_Add_X_X@12$2
__tryblocktable$_PMCCS_Add_X_L@16 DD 00H
	DD	00H
	DD	01H
	DD	01H
	DD	FLAT:__catchsym$_PMCCS_Add_X_L@16$2
__tryblocktable$_PMCCS_Add_X_I@12 DD 00H
	DD	00H
	DD	01H
	DD	01H
	DD	FLAT:__catchsym$_PMCCS_Add_X_I@12$2
__tryblocktable$_PMCCS_Add_L_X@16 DD 00H
	DD	00H
	DD	01H
	DD	01H
	DD	FLAT:__catchsym$_PMCCS_Add_L_X@16$2
__tryblocktable$_PMCCS_Add_I_X@12 DD 00H
	DD	00H
	DD	01H
	DD	01H
	DD	FLAT:__catchsym$_PMCCS_Add_I_X@12$2
__tryblocktable$_PMCCS_TryParse@20 DD 00H
	DD	00H
	DD	01H
	DD	01H
	DD	FLAT:__catchsym$_PMCCS_TryParse@20$2
__tryblocktable$_PMCCS_Parse@16 DD 00H
	DD	00H
	DD	01H
	DD	01H
	DD	FLAT:__catchsym$_PMCCS_Parse@16$2
__tryblocktable$_PMCCS_ToString@24 DD 00H
	DD	00H
	DD	01H
	DD	01H
	DD	FLAT:__catchsym$_PMCCS_ToString@24$2
__tryblocktable$_PMCCS_To_X_L@8 DD 00H
	DD	00H
	DD	01H
	DD	01H
	DD	FLAT:__catchsym$_PMCCS_To_X_L@8$2
__tryblocktable$_PMCCS_To_X_I@8 DD 00H
	DD	00H
	DD	01H
	DD	01H
	DD	FLAT:__catchsym$_PMCCS_To_X_I@8$2
__tryblocktable$_PMCCS_GetAllocatedMemorySize@4 DD 00H
	DD	00H
	DD	01H
	DD	01H
	DD	FLAT:__catchsym$_PMCCS_GetAllocatedMemorySize@4$2
__tryblocktable$_PMCCS_Clone_X@8 DD 00H
	DD	00H
	DD	01H
	DD	01H
	DD	FLAT:__catchsym$_PMCCS_Clone_X@8$2
__tryblocktable$_PMCCS_ToByteArray@16 DD 00H
	DD	00H
	DD	01H
	DD	01H
	DD	FLAT:__catchsym$_PMCCS_ToByteArray@16$2
__tryblocktable$_PMCCS_FromByteArray@12 DD 00H
	DD	00H
	DD	01H
	DD	01H
	DD	FLAT:__catchsym$_PMCCS_FromByteArray@12$2
__tryblocktable$_PMCCS_GetConstantValue_I@8 DD 00H
	DD	00H
	DD	01H
	DD	01H
	DD	FLAT:__catchsym$_PMCCS_GetConstantValue_I@8$2
__tryblocktable$_PMCCS_Dispose@4 DD 00H
	DD	00H
	DD	01H
	DD	01H
	DD	FLAT:__catchsym$_PMCCS_Dispose@4$2
__tryblocktable$_PMCCS_From_L@12 DD 00H
	DD	00H
	DD	01H
	DD	01H
	DD	FLAT:__catchsym$_PMCCS_From_L@12$2
__tryblocktable$_PMCCS_From_I@8 DD 00H
	DD	00H
	DD	01H
	DD	01H
	DD	FLAT:__catchsym$_PMCCS_From_I@8$2
__tryblocktable$_PMCCS_GET_HASH_CODE@8 DD 00H
	DD	00H
	DD	01H
	DD	01H
	DD	FLAT:__catchsym$_PMCCS_GET_HASH_CODE@8$2
__tryblocktable$_PMCCS_IS_ZERO@8 DD 00H
	DD	00H
	DD	01H
	DD	01H
	DD	FLAT:__catchsym$_PMCCS_IS_ZERO@8$2
__tryblocktable$_PMCCS_IS_POWER_OF_TWO@8 DD 00H
	DD	00H
	DD	01H
	DD	01H
	DD	FLAT:__catchsym$_PMCCS_IS_POWER_OF_TWO@8$2
__tryblocktable$_PMCCS_IS_ONE@8 DD 00H
	DD	00H
	DD	01H
	DD	01H
	DD	FLAT:__catchsym$_PMCCS_IS_ONE@8$2
__tryblocktable$_PMCCS_IS_EVEN@8 DD 00H
	DD	00H
	DD	01H
	DD	01H
	DD	FLAT:__catchsym$_PMCCS_IS_EVEN@8$2
__ehfuncinfo$_PMCCS_ModPow_X_X_X@16 DD 019930522H
	DD	02H
	DD	FLAT:__unwindtable$_PMCCS_ModPow_X_X_X@16
	DD	01H
	DD	FLAT:__tryblocktable$_PMCCS_ModPow_X_X_X@16
	DD	2 DUP(00H)
	DD	00H
	DD	00H
__ehfuncinfo$_PMCCS_Pow_X_L@16 DD 019930522H
	DD	02H
	DD	FLAT:__unwindtable$_PMCCS_Pow_X_L@16
	DD	01H
	DD	FLAT:__tryblocktable$_PMCCS_Pow_X_L@16
	DD	2 DUP(00H)
	DD	00H
	DD	00H
__ehfuncinfo$_PMCCS_Pow_X_I@12 DD 019930522H
	DD	02H
	DD	FLAT:__unwindtable$_PMCCS_Pow_X_I@12
	DD	01H
	DD	FLAT:__tryblocktable$_PMCCS_Pow_X_I@12
	DD	2 DUP(00H)
	DD	00H
	DD	00H
__ehfuncinfo$_PMCCS_GreatestCommonDivisor_X_X@12 DD 019930522H
	DD	02H
	DD	FLAT:__unwindtable$_PMCCS_GreatestCommonDivisor_X_X@12
	DD	01H
	DD	FLAT:__tryblocktable$_PMCCS_GreatestCommonDivisor_X_X@12
	DD	2 DUP(00H)
	DD	00H
	DD	00H
__ehfuncinfo$_PMCCS_GreatestCommonDivisor_X_L@16 DD 019930522H
	DD	02H
	DD	FLAT:__unwindtable$_PMCCS_GreatestCommonDivisor_X_L@16
	DD	01H
	DD	FLAT:__tryblocktable$_PMCCS_GreatestCommonDivisor_X_L@16
	DD	2 DUP(00H)
	DD	00H
	DD	00H
__ehfuncinfo$_PMCCS_GreatestCommonDivisor_X_I@12 DD 019930522H
	DD	02H
	DD	FLAT:__unwindtable$_PMCCS_GreatestCommonDivisor_X_I@12
	DD	01H
	DD	FLAT:__tryblocktable$_PMCCS_GreatestCommonDivisor_X_I@12
	DD	2 DUP(00H)
	DD	00H
	DD	00H
__ehfuncinfo$_PMCCS_GreatestCommonDivisor_L_X@16 DD 019930522H
	DD	02H
	DD	FLAT:__unwindtable$_PMCCS_GreatestCommonDivisor_L_X@16
	DD	01H
	DD	FLAT:__tryblocktable$_PMCCS_GreatestCommonDivisor_L_X@16
	DD	2 DUP(00H)
	DD	00H
	DD	00H
__ehfuncinfo$_PMCCS_GreatestCommonDivisor_I_X@12 DD 019930522H
	DD	02H
	DD	FLAT:__unwindtable$_PMCCS_GreatestCommonDivisor_I_X@12
	DD	01H
	DD	FLAT:__tryblocktable$_PMCCS_GreatestCommonDivisor_I_X@12
	DD	2 DUP(00H)
	DD	00H
	DD	00H
__ehfuncinfo$_PMCCS_Equals_X_X@12 DD 019930522H
	DD	02H
	DD	FLAT:__unwindtable$_PMCCS_Equals_X_X@12
	DD	01H
	DD	FLAT:__tryblocktable$_PMCCS_Equals_X_X@12
	DD	2 DUP(00H)
	DD	00H
	DD	00H
__ehfuncinfo$_PMCCS_Equals_X_L@16 DD 019930522H
	DD	02H
	DD	FLAT:__unwindtable$_PMCCS_Equals_X_L@16
	DD	01H
	DD	FLAT:__tryblocktable$_PMCCS_Equals_X_L@16
	DD	2 DUP(00H)
	DD	00H
	DD	00H
__ehfuncinfo$_PMCCS_Equals_X_I@12 DD 019930522H
	DD	02H
	DD	FLAT:__unwindtable$_PMCCS_Equals_X_I@12
	DD	01H
	DD	FLAT:__tryblocktable$_PMCCS_Equals_X_I@12
	DD	2 DUP(00H)
	DD	00H
	DD	00H
__ehfuncinfo$_PMCCS_Equals_L_X@16 DD 019930522H
	DD	02H
	DD	FLAT:__unwindtable$_PMCCS_Equals_L_X@16
	DD	01H
	DD	FLAT:__tryblocktable$_PMCCS_Equals_L_X@16
	DD	2 DUP(00H)
	DD	00H
	DD	00H
__ehfuncinfo$_PMCCS_Equals_I_X@12 DD 019930522H
	DD	02H
	DD	FLAT:__unwindtable$_PMCCS_Equals_I_X@12
	DD	01H
	DD	FLAT:__tryblocktable$_PMCCS_Equals_I_X@12
	DD	2 DUP(00H)
	DD	00H
	DD	00H
__ehfuncinfo$_PMCCS_Compare_X_X@12 DD 019930522H
	DD	02H
	DD	FLAT:__unwindtable$_PMCCS_Compare_X_X@12
	DD	01H
	DD	FLAT:__tryblocktable$_PMCCS_Compare_X_X@12
	DD	2 DUP(00H)
	DD	00H
	DD	00H
__ehfuncinfo$_PMCCS_Compare_X_L@16 DD 019930522H
	DD	02H
	DD	FLAT:__unwindtable$_PMCCS_Compare_X_L@16
	DD	01H
	DD	FLAT:__tryblocktable$_PMCCS_Compare_X_L@16
	DD	2 DUP(00H)
	DD	00H
	DD	00H
__ehfuncinfo$_PMCCS_Compare_X_I@12 DD 019930522H
	DD	02H
	DD	FLAT:__unwindtable$_PMCCS_Compare_X_I@12
	DD	01H
	DD	FLAT:__tryblocktable$_PMCCS_Compare_X_I@12
	DD	2 DUP(00H)
	DD	00H
	DD	00H
__ehfuncinfo$_PMCCS_Compare_L_X@16 DD 019930522H
	DD	02H
	DD	FLAT:__unwindtable$_PMCCS_Compare_L_X@16
	DD	01H
	DD	FLAT:__tryblocktable$_PMCCS_Compare_L_X@16
	DD	2 DUP(00H)
	DD	00H
	DD	00H
__ehfuncinfo$_PMCCS_Compare_I_X@12 DD 019930522H
	DD	02H
	DD	FLAT:__unwindtable$_PMCCS_Compare_I_X@12
	DD	01H
	DD	FLAT:__tryblocktable$_PMCCS_Compare_I_X@12
	DD	2 DUP(00H)
	DD	00H
	DD	00H
__ehfuncinfo$_PMCCS_ExclusiveOr_X_X@12 DD 019930522H
	DD	02H
	DD	FLAT:__unwindtable$_PMCCS_ExclusiveOr_X_X@12
	DD	01H
	DD	FLAT:__tryblocktable$_PMCCS_ExclusiveOr_X_X@12
	DD	2 DUP(00H)
	DD	00H
	DD	00H
__ehfuncinfo$_PMCCS_ExclusiveOr_X_L@16 DD 019930522H
	DD	02H
	DD	FLAT:__unwindtable$_PMCCS_ExclusiveOr_X_L@16
	DD	01H
	DD	FLAT:__tryblocktable$_PMCCS_ExclusiveOr_X_L@16
	DD	2 DUP(00H)
	DD	00H
	DD	00H
__ehfuncinfo$_PMCCS_ExclusiveOr_X_I@12 DD 019930522H
	DD	02H
	DD	FLAT:__unwindtable$_PMCCS_ExclusiveOr_X_I@12
	DD	01H
	DD	FLAT:__tryblocktable$_PMCCS_ExclusiveOr_X_I@12
	DD	2 DUP(00H)
	DD	00H
	DD	00H
__ehfuncinfo$_PMCCS_ExclusiveOr_L_X@16 DD 019930522H
	DD	02H
	DD	FLAT:__unwindtable$_PMCCS_ExclusiveOr_L_X@16
	DD	01H
	DD	FLAT:__tryblocktable$_PMCCS_ExclusiveOr_L_X@16
	DD	2 DUP(00H)
	DD	00H
	DD	00H
__ehfuncinfo$_PMCCS_ExclusiveOr_I_X@12 DD 019930522H
	DD	02H
	DD	FLAT:__unwindtable$_PMCCS_ExclusiveOr_I_X@12
	DD	01H
	DD	FLAT:__tryblocktable$_PMCCS_ExclusiveOr_I_X@12
	DD	2 DUP(00H)
	DD	00H
	DD	00H
__ehfuncinfo$_PMCCS_BitwiseOr_X_X@12 DD 019930522H
	DD	02H
	DD	FLAT:__unwindtable$_PMCCS_BitwiseOr_X_X@12
	DD	01H
	DD	FLAT:__tryblocktable$_PMCCS_BitwiseOr_X_X@12
	DD	2 DUP(00H)
	DD	00H
	DD	00H
__ehfuncinfo$_PMCCS_BitwiseOr_X_L@16 DD 019930522H
	DD	02H
	DD	FLAT:__unwindtable$_PMCCS_BitwiseOr_X_L@16
	DD	01H
	DD	FLAT:__tryblocktable$_PMCCS_BitwiseOr_X_L@16
	DD	2 DUP(00H)
	DD	00H
	DD	00H
__ehfuncinfo$_PMCCS_BitwiseOr_X_I@12 DD 019930522H
	DD	02H
	DD	FLAT:__unwindtable$_PMCCS_BitwiseOr_X_I@12
	DD	01H
	DD	FLAT:__tryblocktable$_PMCCS_BitwiseOr_X_I@12
	DD	2 DUP(00H)
	DD	00H
	DD	00H
__ehfuncinfo$_PMCCS_BitwiseOr_L_X@16 DD 019930522H
	DD	02H
	DD	FLAT:__unwindtable$_PMCCS_BitwiseOr_L_X@16
	DD	01H
	DD	FLAT:__tryblocktable$_PMCCS_BitwiseOr_L_X@16
	DD	2 DUP(00H)
	DD	00H
	DD	00H
__ehfuncinfo$_PMCCS_BitwiseOr_I_X@12 DD 019930522H
	DD	02H
	DD	FLAT:__unwindtable$_PMCCS_BitwiseOr_I_X@12
	DD	01H
	DD	FLAT:__tryblocktable$_PMCCS_BitwiseOr_I_X@12
	DD	2 DUP(00H)
	DD	00H
	DD	00H
__ehfuncinfo$_PMCCS_BitwiseAnd_X_X@12 DD 019930522H
	DD	02H
	DD	FLAT:__unwindtable$_PMCCS_BitwiseAnd_X_X@12
	DD	01H
	DD	FLAT:__tryblocktable$_PMCCS_BitwiseAnd_X_X@12
	DD	2 DUP(00H)
	DD	00H
	DD	00H
__ehfuncinfo$_PMCCS_BitwiseAnd_X_L@16 DD 019930522H
	DD	02H
	DD	FLAT:__unwindtable$_PMCCS_BitwiseAnd_X_L@16
	DD	01H
	DD	FLAT:__tryblocktable$_PMCCS_BitwiseAnd_X_L@16
	DD	2 DUP(00H)
	DD	00H
	DD	00H
__ehfuncinfo$_PMCCS_BitwiseAnd_X_I@12 DD 019930522H
	DD	02H
	DD	FLAT:__unwindtable$_PMCCS_BitwiseAnd_X_I@12
	DD	01H
	DD	FLAT:__tryblocktable$_PMCCS_BitwiseAnd_X_I@12
	DD	2 DUP(00H)
	DD	00H
	DD	00H
__ehfuncinfo$_PMCCS_BitwiseAnd_L_X@16 DD 019930522H
	DD	02H
	DD	FLAT:__unwindtable$_PMCCS_BitwiseAnd_L_X@16
	DD	01H
	DD	FLAT:__tryblocktable$_PMCCS_BitwiseAnd_L_X@16
	DD	2 DUP(00H)
	DD	00H
	DD	00H
__ehfuncinfo$_PMCCS_BitwiseAnd_I_X@12 DD 019930522H
	DD	02H
	DD	FLAT:__unwindtable$_PMCCS_BitwiseAnd_I_X@12
	DD	01H
	DD	FLAT:__tryblocktable$_PMCCS_BitwiseAnd_I_X@12
	DD	2 DUP(00H)
	DD	00H
	DD	00H
__ehfuncinfo$_PMCCS_LeftShift_X_I@12 DD 019930522H
	DD	02H
	DD	FLAT:__unwindtable$_PMCCS_LeftShift_X_I@12
	DD	01H
	DD	FLAT:__tryblocktable$_PMCCS_LeftShift_X_I@12
	DD	2 DUP(00H)
	DD	00H
	DD	00H
__ehfuncinfo$_PMCCS_RightShift_X_I@12 DD 019930522H
	DD	02H
	DD	FLAT:__unwindtable$_PMCCS_RightShift_X_I@12
	DD	01H
	DD	FLAT:__tryblocktable$_PMCCS_RightShift_X_I@12
	DD	2 DUP(00H)
	DD	00H
	DD	00H
__ehfuncinfo$_PMCCS_Remainder_X_X@12 DD 019930522H
	DD	02H
	DD	FLAT:__unwindtable$_PMCCS_Remainder_X_X@12
	DD	01H
	DD	FLAT:__tryblocktable$_PMCCS_Remainder_X_X@12
	DD	2 DUP(00H)
	DD	00H
	DD	00H
__ehfuncinfo$_PMCCS_Remainder_X_L@16 DD 019930522H
	DD	02H
	DD	FLAT:__unwindtable$_PMCCS_Remainder_X_L@16
	DD	01H
	DD	FLAT:__tryblocktable$_PMCCS_Remainder_X_L@16
	DD	2 DUP(00H)
	DD	00H
	DD	00H
__ehfuncinfo$_PMCCS_Remainder_X_I@12 DD 019930522H
	DD	02H
	DD	FLAT:__unwindtable$_PMCCS_Remainder_X_I@12
	DD	01H
	DD	FLAT:__tryblocktable$_PMCCS_Remainder_X_I@12
	DD	2 DUP(00H)
	DD	00H
	DD	00H
__ehfuncinfo$_PMCCS_Remainder_L_X@16 DD 019930522H
	DD	02H
	DD	FLAT:__unwindtable$_PMCCS_Remainder_L_X@16
	DD	01H
	DD	FLAT:__tryblocktable$_PMCCS_Remainder_L_X@16
	DD	2 DUP(00H)
	DD	00H
	DD	00H
__ehfuncinfo$_PMCCS_Remainder_I_X@12 DD 019930522H
	DD	02H
	DD	FLAT:__unwindtable$_PMCCS_Remainder_I_X@12
	DD	01H
	DD	FLAT:__tryblocktable$_PMCCS_Remainder_I_X@12
	DD	2 DUP(00H)
	DD	00H
	DD	00H
__ehfuncinfo$_PMCCS_DivRem_X_X@16 DD 019930522H
	DD	02H
	DD	FLAT:__unwindtable$_PMCCS_DivRem_X_X@16
	DD	01H
	DD	FLAT:__tryblocktable$_PMCCS_DivRem_X_X@16
	DD	2 DUP(00H)
	DD	00H
	DD	00H
__ehfuncinfo$_PMCCS_DivRem_X_L@20 DD 019930522H
	DD	02H
	DD	FLAT:__unwindtable$_PMCCS_DivRem_X_L@20
	DD	01H
	DD	FLAT:__tryblocktable$_PMCCS_DivRem_X_L@20
	DD	2 DUP(00H)
	DD	00H
	DD	00H
__ehfuncinfo$_PMCCS_DivRem_X_I@16 DD 019930522H
	DD	02H
	DD	FLAT:__unwindtable$_PMCCS_DivRem_X_I@16
	DD	01H
	DD	FLAT:__tryblocktable$_PMCCS_DivRem_X_I@16
	DD	2 DUP(00H)
	DD	00H
	DD	00H
__ehfuncinfo$_PMCCS_DivRem_L_X@20 DD 019930522H
	DD	02H
	DD	FLAT:__unwindtable$_PMCCS_DivRem_L_X@20
	DD	01H
	DD	FLAT:__tryblocktable$_PMCCS_DivRem_L_X@20
	DD	2 DUP(00H)
	DD	00H
	DD	00H
__ehfuncinfo$_PMCCS_DivRem_I_X@16 DD 019930522H
	DD	02H
	DD	FLAT:__unwindtable$_PMCCS_DivRem_I_X@16
	DD	01H
	DD	FLAT:__tryblocktable$_PMCCS_DivRem_I_X@16
	DD	2 DUP(00H)
	DD	00H
	DD	00H
__ehfuncinfo$_PMCCS_Multiply_X_X@12 DD 019930522H
	DD	02H
	DD	FLAT:__unwindtable$_PMCCS_Multiply_X_X@12
	DD	01H
	DD	FLAT:__tryblocktable$_PMCCS_Multiply_X_X@12
	DD	2 DUP(00H)
	DD	00H
	DD	00H
__ehfuncinfo$_PMCCS_Multiply_X_L@16 DD 019930522H
	DD	02H
	DD	FLAT:__unwindtable$_PMCCS_Multiply_X_L@16
	DD	01H
	DD	FLAT:__tryblocktable$_PMCCS_Multiply_X_L@16
	DD	2 DUP(00H)
	DD	00H
	DD	00H
__ehfuncinfo$_PMCCS_Multiply_X_I@12 DD 019930522H
	DD	02H
	DD	FLAT:__unwindtable$_PMCCS_Multiply_X_I@12
	DD	01H
	DD	FLAT:__tryblocktable$_PMCCS_Multiply_X_I@12
	DD	2 DUP(00H)
	DD	00H
	DD	00H
__ehfuncinfo$_PMCCS_Multiply_L_X@16 DD 019930522H
	DD	02H
	DD	FLAT:__unwindtable$_PMCCS_Multiply_L_X@16
	DD	01H
	DD	FLAT:__tryblocktable$_PMCCS_Multiply_L_X@16
	DD	2 DUP(00H)
	DD	00H
	DD	00H
__ehfuncinfo$_PMCCS_Multiply_I_X@12 DD 019930522H
	DD	02H
	DD	FLAT:__unwindtable$_PMCCS_Multiply_I_X@12
	DD	01H
	DD	FLAT:__tryblocktable$_PMCCS_Multiply_I_X@12
	DD	2 DUP(00H)
	DD	00H
	DD	00H
__ehfuncinfo$_PMCCS_Subtruct_X_X@12 DD 019930522H
	DD	02H
	DD	FLAT:__unwindtable$_PMCCS_Subtruct_X_X@12
	DD	01H
	DD	FLAT:__tryblocktable$_PMCCS_Subtruct_X_X@12
	DD	2 DUP(00H)
	DD	00H
	DD	00H
__ehfuncinfo$_PMCCS_Subtruct_X_L@16 DD 019930522H
	DD	02H
	DD	FLAT:__unwindtable$_PMCCS_Subtruct_X_L@16
	DD	01H
	DD	FLAT:__tryblocktable$_PMCCS_Subtruct_X_L@16
	DD	2 DUP(00H)
	DD	00H
	DD	00H
__ehfuncinfo$_PMCCS_Subtruct_X_I@12 DD 019930522H
	DD	02H
	DD	FLAT:__unwindtable$_PMCCS_Subtruct_X_I@12
	DD	01H
	DD	FLAT:__tryblocktable$_PMCCS_Subtruct_X_I@12
	DD	2 DUP(00H)
	DD	00H
	DD	00H
__ehfuncinfo$_PMCCS_Subtruct_L_X@16 DD 019930522H
	DD	02H
	DD	FLAT:__unwindtable$_PMCCS_Subtruct_L_X@16
	DD	01H
	DD	FLAT:__tryblocktable$_PMCCS_Subtruct_L_X@16
	DD	2 DUP(00H)
	DD	00H
	DD	00H
__ehfuncinfo$_PMCCS_Subtruct_I_X@12 DD 019930522H
	DD	02H
	DD	FLAT:__unwindtable$_PMCCS_Subtruct_I_X@12
	DD	01H
	DD	FLAT:__tryblocktable$_PMCCS_Subtruct_I_X@12
	DD	2 DUP(00H)
	DD	00H
	DD	00H
__ehfuncinfo$_PMCCS_Add_X_X@12 DD 019930522H
	DD	02H
	DD	FLAT:__unwindtable$_PMCCS_Add_X_X@12
	DD	01H
	DD	FLAT:__tryblocktable$_PMCCS_Add_X_X@12
	DD	2 DUP(00H)
	DD	00H
	DD	00H
__ehfuncinfo$_PMCCS_Add_X_L@16 DD 019930522H
	DD	02H
	DD	FLAT:__unwindtable$_PMCCS_Add_X_L@16
	DD	01H
	DD	FLAT:__tryblocktable$_PMCCS_Add_X_L@16
	DD	2 DUP(00H)
	DD	00H
	DD	00H
__ehfuncinfo$_PMCCS_Add_X_I@12 DD 019930522H
	DD	02H
	DD	FLAT:__unwindtable$_PMCCS_Add_X_I@12
	DD	01H
	DD	FLAT:__tryblocktable$_PMCCS_Add_X_I@12
	DD	2 DUP(00H)
	DD	00H
	DD	00H
__ehfuncinfo$_PMCCS_Add_L_X@16 DD 019930522H
	DD	02H
	DD	FLAT:__unwindtable$_PMCCS_Add_L_X@16
	DD	01H
	DD	FLAT:__tryblocktable$_PMCCS_Add_L_X@16
	DD	2 DUP(00H)
	DD	00H
	DD	00H
__ehfuncinfo$_PMCCS_Add_I_X@12 DD 019930522H
	DD	02H
	DD	FLAT:__unwindtable$_PMCCS_Add_I_X@12
	DD	01H
	DD	FLAT:__tryblocktable$_PMCCS_Add_I_X@12
	DD	2 DUP(00H)
	DD	00H
	DD	00H
__ehfuncinfo$_PMCCS_TryParse@20 DD 019930522H
	DD	02H
	DD	FLAT:__unwindtable$_PMCCS_TryParse@20
	DD	01H
	DD	FLAT:__tryblocktable$_PMCCS_TryParse@20
	DD	2 DUP(00H)
	DD	00H
	DD	00H
__ehfuncinfo$_PMCCS_Parse@16 DD 019930522H
	DD	02H
	DD	FLAT:__unwindtable$_PMCCS_Parse@16
	DD	01H
	DD	FLAT:__tryblocktable$_PMCCS_Parse@16
	DD	2 DUP(00H)
	DD	00H
	DD	00H
__ehfuncinfo$_PMCCS_ToString@24 DD 019930522H
	DD	02H
	DD	FLAT:__unwindtable$_PMCCS_ToString@24
	DD	01H
	DD	FLAT:__tryblocktable$_PMCCS_ToString@24
	DD	2 DUP(00H)
	DD	00H
	DD	00H
__ehfuncinfo$_PMCCS_To_X_L@8 DD 019930522H
	DD	02H
	DD	FLAT:__unwindtable$_PMCCS_To_X_L@8
	DD	01H
	DD	FLAT:__tryblocktable$_PMCCS_To_X_L@8
	DD	2 DUP(00H)
	DD	00H
	DD	00H
__ehfuncinfo$_PMCCS_To_X_I@8 DD 019930522H
	DD	02H
	DD	FLAT:__unwindtable$_PMCCS_To_X_I@8
	DD	01H
	DD	FLAT:__tryblocktable$_PMCCS_To_X_I@8
	DD	2 DUP(00H)
	DD	00H
	DD	00H
__ehfuncinfo$_PMCCS_GetAllocatedMemorySize@4 DD 019930522H
	DD	02H
	DD	FLAT:__unwindtable$_PMCCS_GetAllocatedMemorySize@4
	DD	01H
	DD	FLAT:__tryblocktable$_PMCCS_GetAllocatedMemorySize@4
	DD	2 DUP(00H)
	DD	00H
	DD	00H
__ehfuncinfo$_PMCCS_Clone_X@8 DD 019930522H
	DD	02H
	DD	FLAT:__unwindtable$_PMCCS_Clone_X@8
	DD	01H
	DD	FLAT:__tryblocktable$_PMCCS_Clone_X@8
	DD	2 DUP(00H)
	DD	00H
	DD	00H
__ehfuncinfo$_PMCCS_ToByteArray@16 DD 019930522H
	DD	02H
	DD	FLAT:__unwindtable$_PMCCS_ToByteArray@16
	DD	01H
	DD	FLAT:__tryblocktable$_PMCCS_ToByteArray@16
	DD	2 DUP(00H)
	DD	00H
	DD	00H
__ehfuncinfo$_PMCCS_FromByteArray@12 DD 019930522H
	DD	02H
	DD	FLAT:__unwindtable$_PMCCS_FromByteArray@12
	DD	01H
	DD	FLAT:__tryblocktable$_PMCCS_FromByteArray@12
	DD	2 DUP(00H)
	DD	00H
	DD	00H
__ehfuncinfo$_PMCCS_GetConstantValue_I@8 DD 019930522H
	DD	02H
	DD	FLAT:__unwindtable$_PMCCS_GetConstantValue_I@8
	DD	01H
	DD	FLAT:__tryblocktable$_PMCCS_GetConstantValue_I@8
	DD	2 DUP(00H)
	DD	00H
	DD	00H
__ehfuncinfo$_PMCCS_Dispose@4 DD 019930522H
	DD	02H
	DD	FLAT:__unwindtable$_PMCCS_Dispose@4
	DD	01H
	DD	FLAT:__tryblocktable$_PMCCS_Dispose@4
	DD	2 DUP(00H)
	DD	00H
	DD	00H
__ehfuncinfo$_PMCCS_From_L@12 DD 019930522H
	DD	02H
	DD	FLAT:__unwindtable$_PMCCS_From_L@12
	DD	01H
	DD	FLAT:__tryblocktable$_PMCCS_From_L@12
	DD	2 DUP(00H)
	DD	00H
	DD	00H
__ehfuncinfo$_PMCCS_From_I@8 DD 019930522H
	DD	02H
	DD	FLAT:__unwindtable$_PMCCS_From_I@8
	DD	01H
	DD	FLAT:__tryblocktable$_PMCCS_From_I@8
	DD	2 DUP(00H)
	DD	00H
	DD	00H
__ehfuncinfo$_PMCCS_GET_HASH_CODE@8 DD 019930522H
	DD	02H
	DD	FLAT:__unwindtable$_PMCCS_GET_HASH_CODE@8
	DD	01H
	DD	FLAT:__tryblocktable$_PMCCS_GET_HASH_CODE@8
	DD	2 DUP(00H)
	DD	00H
	DD	00H
__ehfuncinfo$_PMCCS_IS_ZERO@8 DD 019930522H
	DD	02H
	DD	FLAT:__unwindtable$_PMCCS_IS_ZERO@8
	DD	01H
	DD	FLAT:__tryblocktable$_PMCCS_IS_ZERO@8
	DD	2 DUP(00H)
	DD	00H
	DD	00H
__ehfuncinfo$_PMCCS_IS_POWER_OF_TWO@8 DD 019930522H
	DD	02H
	DD	FLAT:__unwindtable$_PMCCS_IS_POWER_OF_TWO@8
	DD	01H
	DD	FLAT:__tryblocktable$_PMCCS_IS_POWER_OF_TWO@8
	DD	2 DUP(00H)
	DD	00H
	DD	00H
__ehfuncinfo$_PMCCS_IS_ONE@8 DD 019930522H
	DD	02H
	DD	FLAT:__unwindtable$_PMCCS_IS_ONE@8
	DD	01H
	DD	FLAT:__tryblocktable$_PMCCS_IS_ONE@8
	DD	2 DUP(00H)
	DD	00H
	DD	00H
__ehfuncinfo$_PMCCS_IS_EVEN@8 DD 019930522H
	DD	02H
	DD	FLAT:__unwindtable$_PMCCS_IS_EVEN@8
	DD	01H
	DD	FLAT:__tryblocktable$_PMCCS_IS_EVEN@8
	DD	2 DUP(00H)
	DD	00H
	DD	00H
xdata$x	ENDS
;	COMDAT xdata$x
xdata$x	SEGMENT
__ehfuncinfo$?GetStatusCode@Exception@Internal@Core@Math@Palmtree@@QBEHXZ DD 019930522H
	DD	00H
	DD	00H
	DD	2 DUP(00H)
	DD	2 DUP(00H)
	DD	00H
	DD	04H
xdata$x	ENDS
; Function compile flags: /Odt
;	COMDAT __JustMyCode_Default
_TEXT	SEGMENT
__JustMyCode_Default PROC				; COMDAT
  00000	55		 push	 ebp
  00001	8b ec		 mov	 ebp, esp
  00003	5d		 pop	 ebp
  00004	c3		 ret	 0
__JustMyCode_Default ENDP
_TEXT	ENDS
; Function compile flags: /Odtp /RTCsu
; File z:\sources\lunor\repos\rougemeilland\palmtree.math.core.uint\palmtree.math.core.uint\pmc_interface_csharp.cpp
_TEXT	SEGMENT
$T2 = -32						; size = 4
_ex$3 = -24						; size = 4
__$EHRec$ = -16						; size = 16
_v$ = 8							; size = 4
_e$ = 12						; size = 4
_m$ = 16						; size = 4
_r$ = 20						; size = 4
_PMCCS_ModPow_X_X_X@16 PROC

; 1232 :     {

  00000	55		 push	 ebp
  00001	8b ec		 mov	 ebp, esp
  00003	6a ff		 push	 -1
  00005	68 00 00 00 00	 push	 __ehhandler$_PMCCS_ModPow_X_X_X@16
  0000a	64 a1 00 00 00
	00		 mov	 eax, DWORD PTR fs:0
  00010	50		 push	 eax
  00011	51		 push	 ecx
  00012	83 ec 10	 sub	 esp, 16			; 00000010H
  00015	53		 push	 ebx
  00016	56		 push	 esi
  00017	57		 push	 edi
  00018	b8 cc cc cc cc	 mov	 eax, -858993460		; ccccccccH
  0001d	89 45 e0	 mov	 DWORD PTR [ebp-32], eax
  00020	89 45 e4	 mov	 DWORD PTR [ebp-28], eax
  00023	89 45 e8	 mov	 DWORD PTR [ebp-24], eax
  00026	89 45 ec	 mov	 DWORD PTR [ebp-20], eax
  00029	a1 00 00 00 00	 mov	 eax, DWORD PTR ___security_cookie
  0002e	33 c5		 xor	 eax, ebp
  00030	50		 push	 eax
  00031	8d 45 f4	 lea	 eax, DWORD PTR __$EHRec$[ebp+4]
  00034	64 a3 00 00 00
	00		 mov	 DWORD PTR fs:0, eax
  0003a	89 65 f0	 mov	 DWORD PTR __$EHRec$[ebp], esp
  0003d	b9 00 00 00 00	 mov	 ecx, OFFSET __C21BA676_pmc_interface_csharp@cpp
  00042	e8 00 00 00 00	 call	 @__CheckForDebuggerJustMyCode@4

; 1233 :         if (r == nullptr)

  00047	83 7d 14 00	 cmp	 DWORD PTR _r$[ebp], 0
  0004b	75 07		 jne	 SHORT $LN2@PMCCS_ModP

; 1234 :             return (PMC_STATUS_ARGUMENT_NULL_ERROR);

  0004d	b8 fe ff ff ff	 mov	 eax, -2			; fffffffeH
  00052	eb 4b		 jmp	 SHORT $LN1@PMCCS_ModP
$LN2@PMCCS_ModP:

; 1235 :         try

  00054	c7 45 fc 00 00
	00 00		 mov	 DWORD PTR __$EHRec$[ebp+12], 0

; 1236 :         {
; 1237 :             *r = PMC_ModPow_X_X_X(v, e, m);

  0005b	8b 45 10	 mov	 eax, DWORD PTR _m$[ebp]
  0005e	50		 push	 eax
  0005f	8b 4d 0c	 mov	 ecx, DWORD PTR _e$[ebp]
  00062	51		 push	 ecx
  00063	8b 55 08	 mov	 edx, DWORD PTR _v$[ebp]
  00066	52		 push	 edx
  00067	e8 00 00 00 00	 call	 ?PMC_ModPow_X_X_X@Internal@Core@Math@Palmtree@@YGPAU__tag_PMC_HANDLE_UINT@1234@PAU51234@00@Z ; Palmtree::Math::Core::Internal::PMC_ModPow_X_X_X
  0006c	8b 4d 14	 mov	 ecx, DWORD PTR _r$[ebp]
  0006f	89 01		 mov	 DWORD PTR [ecx], eax

; 1238 :             return (PMC_STATUS_OK);

  00071	33 c0		 xor	 eax, eax
  00073	eb 2a		 jmp	 SHORT $LN1@PMCCS_ModP
__catch$_PMCCS_ModPow_X_X_X@16$0:

; 1239 :         }
; 1240 :         catch (const Palmtree::Math::Core::Internal::Exception& ex)
; 1241 :         {
; 1242 :             return (ex.GetStatusCode());

  00075	8b 4d e8	 mov	 ecx, DWORD PTR _ex$3[ebp]
  00078	e8 00 00 00 00	 call	 ?GetStatusCode@Exception@Internal@Core@Math@Palmtree@@QBEHXZ ; Palmtree::Math::Core::Internal::Exception::GetStatusCode
  0007d	89 45 e0	 mov	 DWORD PTR $T2[ebp], eax
  00080	b8 00 00 00 00	 mov	 eax, $LN8@PMCCS_ModP
  00085	c3		 ret	 0

; 1243 :         }

  00086	b8 00 00 00 00	 mov	 eax, __tryend$_PMCCS_ModPow_X_X_X@16$1
  0008b	c3		 ret	 0
__tryend$_PMCCS_ModPow_X_X_X@16$1:
  0008c	c7 45 fc ff ff
	ff ff		 mov	 DWORD PTR __$EHRec$[ebp+12], -1
  00093	eb 0a		 jmp	 SHORT $LN1@PMCCS_ModP
$LN8@PMCCS_ModP:
  00095	c7 45 fc ff ff
	ff ff		 mov	 DWORD PTR __$EHRec$[ebp+12], -1

; 1239 :         }
; 1240 :         catch (const Palmtree::Math::Core::Internal::Exception& ex)
; 1241 :         {
; 1242 :             return (ex.GetStatusCode());

  0009c	8b 45 e0	 mov	 eax, DWORD PTR $T2[ebp]
$LN1@PMCCS_ModP:

; 1244 :     }

  0009f	52		 push	 edx
  000a0	8b cd		 mov	 ecx, ebp
  000a2	50		 push	 eax
  000a3	8d 15 00 00 00
	00		 lea	 edx, DWORD PTR $LN12@PMCCS_ModP
  000a9	e8 00 00 00 00	 call	 @_RTC_CheckStackVars@8
  000ae	58		 pop	 eax
  000af	5a		 pop	 edx
  000b0	8b 4d f4	 mov	 ecx, DWORD PTR __$EHRec$[ebp+4]
  000b3	64 89 0d 00 00
	00 00		 mov	 DWORD PTR fs:0, ecx
  000ba	59		 pop	 ecx
  000bb	5f		 pop	 edi
  000bc	5e		 pop	 esi
  000bd	5b		 pop	 ebx
  000be	83 c4 20	 add	 esp, 32			; 00000020H
  000c1	3b ec		 cmp	 ebp, esp
  000c3	e8 00 00 00 00	 call	 __RTC_CheckEsp
  000c8	8b e5		 mov	 esp, ebp
  000ca	5d		 pop	 ebp
  000cb	c2 10 00	 ret	 16			; 00000010H
  000ce	66 90		 npad	 2
$LN12@PMCCS_ModP:
  000d0	01 00 00 00	 DD	 1
  000d4	00 00 00 00	 DD	 $LN11@PMCCS_ModP
$LN11@PMCCS_ModP:
  000d8	e8 ff ff ff	 DD	 -24			; ffffffe8H
  000dc	04 00 00 00	 DD	 4
  000e0	00 00 00 00	 DD	 $LN9@PMCCS_ModP
$LN9@PMCCS_ModP:
  000e4	65		 DB	 101			; 00000065H
  000e5	78		 DB	 120			; 00000078H
  000e6	00		 DB	 0
_TEXT	ENDS
text$x	SEGMENT
__ehhandler$_PMCCS_ModPow_X_X_X@16:
  00000	8b 54 24 08	 mov	 edx, DWORD PTR [esp+8]
  00004	8d 42 0c	 lea	 eax, DWORD PTR [edx+12]
  00007	8b 4a dc	 mov	 ecx, DWORD PTR [edx-36]
  0000a	33 c8		 xor	 ecx, eax
  0000c	e8 00 00 00 00	 call	 @__security_check_cookie@4
  00011	b8 00 00 00 00	 mov	 eax, OFFSET __ehfuncinfo$_PMCCS_ModPow_X_X_X@16
  00016	e9 00 00 00 00	 jmp	 ___CxxFrameHandler3
text$x	ENDS
_PMCCS_ModPow_X_X_X@16 ENDP
; Function compile flags: /Odtp /RTCsu
; File z:\sources\lunor\repos\rougemeilland\palmtree.math.core.uint\palmtree.math.core.uint\pmc_interface_csharp.cpp
_TEXT	SEGMENT
$T2 = -32						; size = 4
_ex$3 = -24						; size = 4
__$EHRec$ = -16						; size = 16
_x$ = 8							; size = 4
_n$ = 12						; size = 8
_v$ = 20						; size = 4
_PMCCS_Pow_X_L@16 PROC

; 1217 :     {

  00000	55		 push	 ebp
  00001	8b ec		 mov	 ebp, esp
  00003	6a ff		 push	 -1
  00005	68 00 00 00 00	 push	 __ehhandler$_PMCCS_Pow_X_L@16
  0000a	64 a1 00 00 00
	00		 mov	 eax, DWORD PTR fs:0
  00010	50		 push	 eax
  00011	51		 push	 ecx
  00012	83 ec 10	 sub	 esp, 16			; 00000010H
  00015	53		 push	 ebx
  00016	56		 push	 esi
  00017	57		 push	 edi
  00018	b8 cc cc cc cc	 mov	 eax, -858993460		; ccccccccH
  0001d	89 45 e0	 mov	 DWORD PTR [ebp-32], eax
  00020	89 45 e4	 mov	 DWORD PTR [ebp-28], eax
  00023	89 45 e8	 mov	 DWORD PTR [ebp-24], eax
  00026	89 45 ec	 mov	 DWORD PTR [ebp-20], eax
  00029	a1 00 00 00 00	 mov	 eax, DWORD PTR ___security_cookie
  0002e	33 c5		 xor	 eax, ebp
  00030	50		 push	 eax
  00031	8d 45 f4	 lea	 eax, DWORD PTR __$EHRec$[ebp+4]
  00034	64 a3 00 00 00
	00		 mov	 DWORD PTR fs:0, eax
  0003a	89 65 f0	 mov	 DWORD PTR __$EHRec$[ebp], esp
  0003d	b9 00 00 00 00	 mov	 ecx, OFFSET __C21BA676_pmc_interface_csharp@cpp
  00042	e8 00 00 00 00	 call	 @__CheckForDebuggerJustMyCode@4

; 1218 :         if (v == nullptr)

  00047	83 7d 14 00	 cmp	 DWORD PTR _v$[ebp], 0
  0004b	75 07		 jne	 SHORT $LN2@PMCCS_Pow_

; 1219 :             return (PMC_STATUS_ARGUMENT_NULL_ERROR);

  0004d	b8 fe ff ff ff	 mov	 eax, -2			; fffffffeH
  00052	eb 4b		 jmp	 SHORT $LN1@PMCCS_Pow_
$LN2@PMCCS_Pow_:

; 1220 :         try

  00054	c7 45 fc 00 00
	00 00		 mov	 DWORD PTR __$EHRec$[ebp+12], 0

; 1221 :         {
; 1222 :             *v = PMC_Pow_X_L(x, n);

  0005b	8b 45 10	 mov	 eax, DWORD PTR _n$[ebp+4]
  0005e	50		 push	 eax
  0005f	8b 4d 0c	 mov	 ecx, DWORD PTR _n$[ebp]
  00062	51		 push	 ecx
  00063	8b 55 08	 mov	 edx, DWORD PTR _x$[ebp]
  00066	52		 push	 edx
  00067	e8 00 00 00 00	 call	 ?PMC_Pow_X_L@Internal@Core@Math@Palmtree@@YGPAU__tag_PMC_HANDLE_UINT@1234@PAU51234@_K@Z ; Palmtree::Math::Core::Internal::PMC_Pow_X_L
  0006c	8b 4d 14	 mov	 ecx, DWORD PTR _v$[ebp]
  0006f	89 01		 mov	 DWORD PTR [ecx], eax

; 1223 :             return (PMC_STATUS_OK);

  00071	33 c0		 xor	 eax, eax
  00073	eb 2a		 jmp	 SHORT $LN1@PMCCS_Pow_
__catch$_PMCCS_Pow_X_L@16$0:

; 1224 :         }
; 1225 :         catch (const Palmtree::Math::Core::Internal::Exception& ex)
; 1226 :         {
; 1227 :             return (ex.GetStatusCode());

  00075	8b 4d e8	 mov	 ecx, DWORD PTR _ex$3[ebp]
  00078	e8 00 00 00 00	 call	 ?GetStatusCode@Exception@Internal@Core@Math@Palmtree@@QBEHXZ ; Palmtree::Math::Core::Internal::Exception::GetStatusCode
  0007d	89 45 e0	 mov	 DWORD PTR $T2[ebp], eax
  00080	b8 00 00 00 00	 mov	 eax, $LN8@PMCCS_Pow_
  00085	c3		 ret	 0

; 1228 :         }

  00086	b8 00 00 00 00	 mov	 eax, __tryend$_PMCCS_Pow_X_L@16$1
  0008b	c3		 ret	 0
__tryend$_PMCCS_Pow_X_L@16$1:
  0008c	c7 45 fc ff ff
	ff ff		 mov	 DWORD PTR __$EHRec$[ebp+12], -1
  00093	eb 0a		 jmp	 SHORT $LN1@PMCCS_Pow_
$LN8@PMCCS_Pow_:
  00095	c7 45 fc ff ff
	ff ff		 mov	 DWORD PTR __$EHRec$[ebp+12], -1

; 1224 :         }
; 1225 :         catch (const Palmtree::Math::Core::Internal::Exception& ex)
; 1226 :         {
; 1227 :             return (ex.GetStatusCode());

  0009c	8b 45 e0	 mov	 eax, DWORD PTR $T2[ebp]
$LN1@PMCCS_Pow_:

; 1229 :     }

  0009f	52		 push	 edx
  000a0	8b cd		 mov	 ecx, ebp
  000a2	50		 push	 eax
  000a3	8d 15 00 00 00
	00		 lea	 edx, DWORD PTR $LN12@PMCCS_Pow_
  000a9	e8 00 00 00 00	 call	 @_RTC_CheckStackVars@8
  000ae	58		 pop	 eax
  000af	5a		 pop	 edx
  000b0	8b 4d f4	 mov	 ecx, DWORD PTR __$EHRec$[ebp+4]
  000b3	64 89 0d 00 00
	00 00		 mov	 DWORD PTR fs:0, ecx
  000ba	59		 pop	 ecx
  000bb	5f		 pop	 edi
  000bc	5e		 pop	 esi
  000bd	5b		 pop	 ebx
  000be	83 c4 20	 add	 esp, 32			; 00000020H
  000c1	3b ec		 cmp	 ebp, esp
  000c3	e8 00 00 00 00	 call	 __RTC_CheckEsp
  000c8	8b e5		 mov	 esp, ebp
  000ca	5d		 pop	 ebp
  000cb	c2 10 00	 ret	 16			; 00000010H
  000ce	66 90		 npad	 2
$LN12@PMCCS_Pow_:
  000d0	01 00 00 00	 DD	 1
  000d4	00 00 00 00	 DD	 $LN11@PMCCS_Pow_
$LN11@PMCCS_Pow_:
  000d8	e8 ff ff ff	 DD	 -24			; ffffffe8H
  000dc	04 00 00 00	 DD	 4
  000e0	00 00 00 00	 DD	 $LN9@PMCCS_Pow_
$LN9@PMCCS_Pow_:
  000e4	65		 DB	 101			; 00000065H
  000e5	78		 DB	 120			; 00000078H
  000e6	00		 DB	 0
_TEXT	ENDS
text$x	SEGMENT
__ehhandler$_PMCCS_Pow_X_L@16:
  00000	8b 54 24 08	 mov	 edx, DWORD PTR [esp+8]
  00004	8d 42 0c	 lea	 eax, DWORD PTR [edx+12]
  00007	8b 4a dc	 mov	 ecx, DWORD PTR [edx-36]
  0000a	33 c8		 xor	 ecx, eax
  0000c	e8 00 00 00 00	 call	 @__security_check_cookie@4
  00011	b8 00 00 00 00	 mov	 eax, OFFSET __ehfuncinfo$_PMCCS_Pow_X_L@16
  00016	e9 00 00 00 00	 jmp	 ___CxxFrameHandler3
text$x	ENDS
_PMCCS_Pow_X_L@16 ENDP
; Function compile flags: /Odtp /RTCsu
; File z:\sources\lunor\repos\rougemeilland\palmtree.math.core.uint\palmtree.math.core.uint\pmc_interface_csharp.cpp
_TEXT	SEGMENT
$T2 = -32						; size = 4
_ex$3 = -24						; size = 4
__$EHRec$ = -16						; size = 16
_x$ = 8							; size = 4
_n$ = 12						; size = 4
_v$ = 16						; size = 4
_PMCCS_Pow_X_I@12 PROC

; 1202 :     {

  00000	55		 push	 ebp
  00001	8b ec		 mov	 ebp, esp
  00003	6a ff		 push	 -1
  00005	68 00 00 00 00	 push	 __ehhandler$_PMCCS_Pow_X_I@12
  0000a	64 a1 00 00 00
	00		 mov	 eax, DWORD PTR fs:0
  00010	50		 push	 eax
  00011	51		 push	 ecx
  00012	83 ec 10	 sub	 esp, 16			; 00000010H
  00015	53		 push	 ebx
  00016	56		 push	 esi
  00017	57		 push	 edi
  00018	b8 cc cc cc cc	 mov	 eax, -858993460		; ccccccccH
  0001d	89 45 e0	 mov	 DWORD PTR [ebp-32], eax
  00020	89 45 e4	 mov	 DWORD PTR [ebp-28], eax
  00023	89 45 e8	 mov	 DWORD PTR [ebp-24], eax
  00026	89 45 ec	 mov	 DWORD PTR [ebp-20], eax
  00029	a1 00 00 00 00	 mov	 eax, DWORD PTR ___security_cookie
  0002e	33 c5		 xor	 eax, ebp
  00030	50		 push	 eax
  00031	8d 45 f4	 lea	 eax, DWORD PTR __$EHRec$[ebp+4]
  00034	64 a3 00 00 00
	00		 mov	 DWORD PTR fs:0, eax
  0003a	89 65 f0	 mov	 DWORD PTR __$EHRec$[ebp], esp
  0003d	b9 00 00 00 00	 mov	 ecx, OFFSET __C21BA676_pmc_interface_csharp@cpp
  00042	e8 00 00 00 00	 call	 @__CheckForDebuggerJustMyCode@4

; 1203 :         if (v == nullptr)

  00047	83 7d 10 00	 cmp	 DWORD PTR _v$[ebp], 0
  0004b	75 07		 jne	 SHORT $LN2@PMCCS_Pow_

; 1204 :             return (PMC_STATUS_ARGUMENT_NULL_ERROR);

  0004d	b8 fe ff ff ff	 mov	 eax, -2			; fffffffeH
  00052	eb 47		 jmp	 SHORT $LN1@PMCCS_Pow_
$LN2@PMCCS_Pow_:

; 1205 :         try

  00054	c7 45 fc 00 00
	00 00		 mov	 DWORD PTR __$EHRec$[ebp+12], 0

; 1206 :         {
; 1207 :             *v = PMC_Pow_X_I(x, n);

  0005b	8b 45 0c	 mov	 eax, DWORD PTR _n$[ebp]
  0005e	50		 push	 eax
  0005f	8b 4d 08	 mov	 ecx, DWORD PTR _x$[ebp]
  00062	51		 push	 ecx
  00063	e8 00 00 00 00	 call	 ?PMC_Pow_X_I@Internal@Core@Math@Palmtree@@YGPAU__tag_PMC_HANDLE_UINT@1234@PAU51234@I@Z ; Palmtree::Math::Core::Internal::PMC_Pow_X_I
  00068	8b 55 10	 mov	 edx, DWORD PTR _v$[ebp]
  0006b	89 02		 mov	 DWORD PTR [edx], eax

; 1208 :             return (PMC_STATUS_OK);

  0006d	33 c0		 xor	 eax, eax
  0006f	eb 2a		 jmp	 SHORT $LN1@PMCCS_Pow_
__catch$_PMCCS_Pow_X_I@12$0:

; 1209 :         }
; 1210 :         catch (const Palmtree::Math::Core::Internal::Exception& ex)
; 1211 :         {
; 1212 :             return (ex.GetStatusCode());

  00071	8b 4d e8	 mov	 ecx, DWORD PTR _ex$3[ebp]
  00074	e8 00 00 00 00	 call	 ?GetStatusCode@Exception@Internal@Core@Math@Palmtree@@QBEHXZ ; Palmtree::Math::Core::Internal::Exception::GetStatusCode
  00079	89 45 e0	 mov	 DWORD PTR $T2[ebp], eax
  0007c	b8 00 00 00 00	 mov	 eax, $LN8@PMCCS_Pow_
  00081	c3		 ret	 0

; 1213 :         }

  00082	b8 00 00 00 00	 mov	 eax, __tryend$_PMCCS_Pow_X_I@12$1
  00087	c3		 ret	 0
__tryend$_PMCCS_Pow_X_I@12$1:
  00088	c7 45 fc ff ff
	ff ff		 mov	 DWORD PTR __$EHRec$[ebp+12], -1
  0008f	eb 0a		 jmp	 SHORT $LN1@PMCCS_Pow_
$LN8@PMCCS_Pow_:
  00091	c7 45 fc ff ff
	ff ff		 mov	 DWORD PTR __$EHRec$[ebp+12], -1

; 1209 :         }
; 1210 :         catch (const Palmtree::Math::Core::Internal::Exception& ex)
; 1211 :         {
; 1212 :             return (ex.GetStatusCode());

  00098	8b 45 e0	 mov	 eax, DWORD PTR $T2[ebp]
$LN1@PMCCS_Pow_:

; 1214 :     }

  0009b	52		 push	 edx
  0009c	8b cd		 mov	 ecx, ebp
  0009e	50		 push	 eax
  0009f	8d 15 00 00 00
	00		 lea	 edx, DWORD PTR $LN12@PMCCS_Pow_
  000a5	e8 00 00 00 00	 call	 @_RTC_CheckStackVars@8
  000aa	58		 pop	 eax
  000ab	5a		 pop	 edx
  000ac	8b 4d f4	 mov	 ecx, DWORD PTR __$EHRec$[ebp+4]
  000af	64 89 0d 00 00
	00 00		 mov	 DWORD PTR fs:0, ecx
  000b6	59		 pop	 ecx
  000b7	5f		 pop	 edi
  000b8	5e		 pop	 esi
  000b9	5b		 pop	 ebx
  000ba	83 c4 20	 add	 esp, 32			; 00000020H
  000bd	3b ec		 cmp	 ebp, esp
  000bf	e8 00 00 00 00	 call	 __RTC_CheckEsp
  000c4	8b e5		 mov	 esp, ebp
  000c6	5d		 pop	 ebp
  000c7	c2 0c 00	 ret	 12			; 0000000cH
  000ca	66 90		 npad	 2
$LN12@PMCCS_Pow_:
  000cc	01 00 00 00	 DD	 1
  000d0	00 00 00 00	 DD	 $LN11@PMCCS_Pow_
$LN11@PMCCS_Pow_:
  000d4	e8 ff ff ff	 DD	 -24			; ffffffe8H
  000d8	04 00 00 00	 DD	 4
  000dc	00 00 00 00	 DD	 $LN9@PMCCS_Pow_
$LN9@PMCCS_Pow_:
  000e0	65		 DB	 101			; 00000065H
  000e1	78		 DB	 120			; 00000078H
  000e2	00		 DB	 0
_TEXT	ENDS
text$x	SEGMENT
__ehhandler$_PMCCS_Pow_X_I@12:
  00000	8b 54 24 08	 mov	 edx, DWORD PTR [esp+8]
  00004	8d 42 0c	 lea	 eax, DWORD PTR [edx+12]
  00007	8b 4a dc	 mov	 ecx, DWORD PTR [edx-36]
  0000a	33 c8		 xor	 ecx, eax
  0000c	e8 00 00 00 00	 call	 @__security_check_cookie@4
  00011	b8 00 00 00 00	 mov	 eax, OFFSET __ehfuncinfo$_PMCCS_Pow_X_I@12
  00016	e9 00 00 00 00	 jmp	 ___CxxFrameHandler3
text$x	ENDS
_PMCCS_Pow_X_I@12 ENDP
; Function compile flags: /Odtp /RTCsu
; File z:\sources\lunor\repos\rougemeilland\palmtree.math.core.uint\palmtree.math.core.uint\pmc_interface_csharp.cpp
_TEXT	SEGMENT
$T2 = -32						; size = 4
_ex$3 = -24						; size = 4
__$EHRec$ = -16						; size = 16
_u$ = 8							; size = 4
_v$ = 12						; size = 4
_w$ = 16						; size = 4
_PMCCS_GreatestCommonDivisor_X_X@12 PROC

; 1187 :     {

  00000	55		 push	 ebp
  00001	8b ec		 mov	 ebp, esp
  00003	6a ff		 push	 -1
  00005	68 00 00 00 00	 push	 __ehhandler$_PMCCS_GreatestCommonDivisor_X_X@12
  0000a	64 a1 00 00 00
	00		 mov	 eax, DWORD PTR fs:0
  00010	50		 push	 eax
  00011	51		 push	 ecx
  00012	83 ec 10	 sub	 esp, 16			; 00000010H
  00015	53		 push	 ebx
  00016	56		 push	 esi
  00017	57		 push	 edi
  00018	b8 cc cc cc cc	 mov	 eax, -858993460		; ccccccccH
  0001d	89 45 e0	 mov	 DWORD PTR [ebp-32], eax
  00020	89 45 e4	 mov	 DWORD PTR [ebp-28], eax
  00023	89 45 e8	 mov	 DWORD PTR [ebp-24], eax
  00026	89 45 ec	 mov	 DWORD PTR [ebp-20], eax
  00029	a1 00 00 00 00	 mov	 eax, DWORD PTR ___security_cookie
  0002e	33 c5		 xor	 eax, ebp
  00030	50		 push	 eax
  00031	8d 45 f4	 lea	 eax, DWORD PTR __$EHRec$[ebp+4]
  00034	64 a3 00 00 00
	00		 mov	 DWORD PTR fs:0, eax
  0003a	89 65 f0	 mov	 DWORD PTR __$EHRec$[ebp], esp
  0003d	b9 00 00 00 00	 mov	 ecx, OFFSET __C21BA676_pmc_interface_csharp@cpp
  00042	e8 00 00 00 00	 call	 @__CheckForDebuggerJustMyCode@4

; 1188 :         if (w == nullptr)

  00047	83 7d 10 00	 cmp	 DWORD PTR _w$[ebp], 0
  0004b	75 07		 jne	 SHORT $LN2@PMCCS_Grea

; 1189 :             return (PMC_STATUS_ARGUMENT_NULL_ERROR);

  0004d	b8 fe ff ff ff	 mov	 eax, -2			; fffffffeH
  00052	eb 47		 jmp	 SHORT $LN1@PMCCS_Grea
$LN2@PMCCS_Grea:

; 1190 :         try

  00054	c7 45 fc 00 00
	00 00		 mov	 DWORD PTR __$EHRec$[ebp+12], 0

; 1191 :         {
; 1192 :             *w = PMC_GreatestCommonDivisor_X_X(u, v);

  0005b	8b 45 0c	 mov	 eax, DWORD PTR _v$[ebp]
  0005e	50		 push	 eax
  0005f	8b 4d 08	 mov	 ecx, DWORD PTR _u$[ebp]
  00062	51		 push	 ecx
  00063	e8 00 00 00 00	 call	 ?PMC_GreatestCommonDivisor_X_X@Internal@Core@Math@Palmtree@@YGPAU__tag_PMC_HANDLE_UINT@1234@PAU51234@0@Z ; Palmtree::Math::Core::Internal::PMC_GreatestCommonDivisor_X_X
  00068	8b 55 10	 mov	 edx, DWORD PTR _w$[ebp]
  0006b	89 02		 mov	 DWORD PTR [edx], eax

; 1193 :             return (PMC_STATUS_OK);

  0006d	33 c0		 xor	 eax, eax
  0006f	eb 2a		 jmp	 SHORT $LN1@PMCCS_Grea
__catch$_PMCCS_GreatestCommonDivisor_X_X@12$0:

; 1194 :         }
; 1195 :         catch (const Palmtree::Math::Core::Internal::Exception& ex)
; 1196 :         {
; 1197 :             return (ex.GetStatusCode());

  00071	8b 4d e8	 mov	 ecx, DWORD PTR _ex$3[ebp]
  00074	e8 00 00 00 00	 call	 ?GetStatusCode@Exception@Internal@Core@Math@Palmtree@@QBEHXZ ; Palmtree::Math::Core::Internal::Exception::GetStatusCode
  00079	89 45 e0	 mov	 DWORD PTR $T2[ebp], eax
  0007c	b8 00 00 00 00	 mov	 eax, $LN8@PMCCS_Grea
  00081	c3		 ret	 0

; 1198 :         }

  00082	b8 00 00 00 00	 mov	 eax, __tryend$_PMCCS_GreatestCommonDivisor_X_X@12$1
  00087	c3		 ret	 0
__tryend$_PMCCS_GreatestCommonDivisor_X_X@12$1:
  00088	c7 45 fc ff ff
	ff ff		 mov	 DWORD PTR __$EHRec$[ebp+12], -1
  0008f	eb 0a		 jmp	 SHORT $LN1@PMCCS_Grea
$LN8@PMCCS_Grea:
  00091	c7 45 fc ff ff
	ff ff		 mov	 DWORD PTR __$EHRec$[ebp+12], -1

; 1194 :         }
; 1195 :         catch (const Palmtree::Math::Core::Internal::Exception& ex)
; 1196 :         {
; 1197 :             return (ex.GetStatusCode());

  00098	8b 45 e0	 mov	 eax, DWORD PTR $T2[ebp]
$LN1@PMCCS_Grea:

; 1199 :     }

  0009b	52		 push	 edx
  0009c	8b cd		 mov	 ecx, ebp
  0009e	50		 push	 eax
  0009f	8d 15 00 00 00
	00		 lea	 edx, DWORD PTR $LN12@PMCCS_Grea
  000a5	e8 00 00 00 00	 call	 @_RTC_CheckStackVars@8
  000aa	58		 pop	 eax
  000ab	5a		 pop	 edx
  000ac	8b 4d f4	 mov	 ecx, DWORD PTR __$EHRec$[ebp+4]
  000af	64 89 0d 00 00
	00 00		 mov	 DWORD PTR fs:0, ecx
  000b6	59		 pop	 ecx
  000b7	5f		 pop	 edi
  000b8	5e		 pop	 esi
  000b9	5b		 pop	 ebx
  000ba	83 c4 20	 add	 esp, 32			; 00000020H
  000bd	3b ec		 cmp	 ebp, esp
  000bf	e8 00 00 00 00	 call	 __RTC_CheckEsp
  000c4	8b e5		 mov	 esp, ebp
  000c6	5d		 pop	 ebp
  000c7	c2 0c 00	 ret	 12			; 0000000cH
  000ca	66 90		 npad	 2
$LN12@PMCCS_Grea:
  000cc	01 00 00 00	 DD	 1
  000d0	00 00 00 00	 DD	 $LN11@PMCCS_Grea
$LN11@PMCCS_Grea:
  000d4	e8 ff ff ff	 DD	 -24			; ffffffe8H
  000d8	04 00 00 00	 DD	 4
  000dc	00 00 00 00	 DD	 $LN9@PMCCS_Grea
$LN9@PMCCS_Grea:
  000e0	65		 DB	 101			; 00000065H
  000e1	78		 DB	 120			; 00000078H
  000e2	00		 DB	 0
_TEXT	ENDS
text$x	SEGMENT
__ehhandler$_PMCCS_GreatestCommonDivisor_X_X@12:
  00000	8b 54 24 08	 mov	 edx, DWORD PTR [esp+8]
  00004	8d 42 0c	 lea	 eax, DWORD PTR [edx+12]
  00007	8b 4a dc	 mov	 ecx, DWORD PTR [edx-36]
  0000a	33 c8		 xor	 ecx, eax
  0000c	e8 00 00 00 00	 call	 @__security_check_cookie@4
  00011	b8 00 00 00 00	 mov	 eax, OFFSET __ehfuncinfo$_PMCCS_GreatestCommonDivisor_X_X@12
  00016	e9 00 00 00 00	 jmp	 ___CxxFrameHandler3
text$x	ENDS
_PMCCS_GreatestCommonDivisor_X_X@12 ENDP
; Function compile flags: /Odtp /RTCsu
; File z:\sources\lunor\repos\rougemeilland\palmtree.math.core.uint\palmtree.math.core.uint\pmc_interface_csharp.cpp
_TEXT	SEGMENT
$T2 = -32						; size = 4
_ex$3 = -24						; size = 4
__$EHRec$ = -16						; size = 16
_u$ = 8							; size = 4
_v$ = 12						; size = 8
_w$ = 20						; size = 4
_PMCCS_GreatestCommonDivisor_X_L@16 PROC

; 1172 :     {

  00000	55		 push	 ebp
  00001	8b ec		 mov	 ebp, esp
  00003	6a ff		 push	 -1
  00005	68 00 00 00 00	 push	 __ehhandler$_PMCCS_GreatestCommonDivisor_X_L@16
  0000a	64 a1 00 00 00
	00		 mov	 eax, DWORD PTR fs:0
  00010	50		 push	 eax
  00011	51		 push	 ecx
  00012	83 ec 10	 sub	 esp, 16			; 00000010H
  00015	53		 push	 ebx
  00016	56		 push	 esi
  00017	57		 push	 edi
  00018	b8 cc cc cc cc	 mov	 eax, -858993460		; ccccccccH
  0001d	89 45 e0	 mov	 DWORD PTR [ebp-32], eax
  00020	89 45 e4	 mov	 DWORD PTR [ebp-28], eax
  00023	89 45 e8	 mov	 DWORD PTR [ebp-24], eax
  00026	89 45 ec	 mov	 DWORD PTR [ebp-20], eax
  00029	a1 00 00 00 00	 mov	 eax, DWORD PTR ___security_cookie
  0002e	33 c5		 xor	 eax, ebp
  00030	50		 push	 eax
  00031	8d 45 f4	 lea	 eax, DWORD PTR __$EHRec$[ebp+4]
  00034	64 a3 00 00 00
	00		 mov	 DWORD PTR fs:0, eax
  0003a	89 65 f0	 mov	 DWORD PTR __$EHRec$[ebp], esp
  0003d	b9 00 00 00 00	 mov	 ecx, OFFSET __C21BA676_pmc_interface_csharp@cpp
  00042	e8 00 00 00 00	 call	 @__CheckForDebuggerJustMyCode@4

; 1173 :         if (w == nullptr)

  00047	83 7d 14 00	 cmp	 DWORD PTR _w$[ebp], 0
  0004b	75 07		 jne	 SHORT $LN2@PMCCS_Grea

; 1174 :             return (PMC_STATUS_ARGUMENT_NULL_ERROR);

  0004d	b8 fe ff ff ff	 mov	 eax, -2			; fffffffeH
  00052	eb 4b		 jmp	 SHORT $LN1@PMCCS_Grea
$LN2@PMCCS_Grea:

; 1175 :         try

  00054	c7 45 fc 00 00
	00 00		 mov	 DWORD PTR __$EHRec$[ebp+12], 0

; 1176 :         {
; 1177 :             *w = PMC_GreatestCommonDivisor_X_L(u, v);

  0005b	8b 45 10	 mov	 eax, DWORD PTR _v$[ebp+4]
  0005e	50		 push	 eax
  0005f	8b 4d 0c	 mov	 ecx, DWORD PTR _v$[ebp]
  00062	51		 push	 ecx
  00063	8b 55 08	 mov	 edx, DWORD PTR _u$[ebp]
  00066	52		 push	 edx
  00067	e8 00 00 00 00	 call	 ?PMC_GreatestCommonDivisor_X_L@Internal@Core@Math@Palmtree@@YGPAU__tag_PMC_HANDLE_UINT@1234@PAU51234@_K@Z ; Palmtree::Math::Core::Internal::PMC_GreatestCommonDivisor_X_L
  0006c	8b 4d 14	 mov	 ecx, DWORD PTR _w$[ebp]
  0006f	89 01		 mov	 DWORD PTR [ecx], eax

; 1178 :             return (PMC_STATUS_OK);

  00071	33 c0		 xor	 eax, eax
  00073	eb 2a		 jmp	 SHORT $LN1@PMCCS_Grea
__catch$_PMCCS_GreatestCommonDivisor_X_L@16$0:

; 1179 :         }
; 1180 :         catch (const Palmtree::Math::Core::Internal::Exception& ex)
; 1181 :         {
; 1182 :             return (ex.GetStatusCode());

  00075	8b 4d e8	 mov	 ecx, DWORD PTR _ex$3[ebp]
  00078	e8 00 00 00 00	 call	 ?GetStatusCode@Exception@Internal@Core@Math@Palmtree@@QBEHXZ ; Palmtree::Math::Core::Internal::Exception::GetStatusCode
  0007d	89 45 e0	 mov	 DWORD PTR $T2[ebp], eax
  00080	b8 00 00 00 00	 mov	 eax, $LN8@PMCCS_Grea
  00085	c3		 ret	 0

; 1183 :         }

  00086	b8 00 00 00 00	 mov	 eax, __tryend$_PMCCS_GreatestCommonDivisor_X_L@16$1
  0008b	c3		 ret	 0
__tryend$_PMCCS_GreatestCommonDivisor_X_L@16$1:
  0008c	c7 45 fc ff ff
	ff ff		 mov	 DWORD PTR __$EHRec$[ebp+12], -1
  00093	eb 0a		 jmp	 SHORT $LN1@PMCCS_Grea
$LN8@PMCCS_Grea:
  00095	c7 45 fc ff ff
	ff ff		 mov	 DWORD PTR __$EHRec$[ebp+12], -1

; 1179 :         }
; 1180 :         catch (const Palmtree::Math::Core::Internal::Exception& ex)
; 1181 :         {
; 1182 :             return (ex.GetStatusCode());

  0009c	8b 45 e0	 mov	 eax, DWORD PTR $T2[ebp]
$LN1@PMCCS_Grea:

; 1184 :     }

  0009f	52		 push	 edx
  000a0	8b cd		 mov	 ecx, ebp
  000a2	50		 push	 eax
  000a3	8d 15 00 00 00
	00		 lea	 edx, DWORD PTR $LN12@PMCCS_Grea
  000a9	e8 00 00 00 00	 call	 @_RTC_CheckStackVars@8
  000ae	58		 pop	 eax
  000af	5a		 pop	 edx
  000b0	8b 4d f4	 mov	 ecx, DWORD PTR __$EHRec$[ebp+4]
  000b3	64 89 0d 00 00
	00 00		 mov	 DWORD PTR fs:0, ecx
  000ba	59		 pop	 ecx
  000bb	5f		 pop	 edi
  000bc	5e		 pop	 esi
  000bd	5b		 pop	 ebx
  000be	83 c4 20	 add	 esp, 32			; 00000020H
  000c1	3b ec		 cmp	 ebp, esp
  000c3	e8 00 00 00 00	 call	 __RTC_CheckEsp
  000c8	8b e5		 mov	 esp, ebp
  000ca	5d		 pop	 ebp
  000cb	c2 10 00	 ret	 16			; 00000010H
  000ce	66 90		 npad	 2
$LN12@PMCCS_Grea:
  000d0	01 00 00 00	 DD	 1
  000d4	00 00 00 00	 DD	 $LN11@PMCCS_Grea
$LN11@PMCCS_Grea:
  000d8	e8 ff ff ff	 DD	 -24			; ffffffe8H
  000dc	04 00 00 00	 DD	 4
  000e0	00 00 00 00	 DD	 $LN9@PMCCS_Grea
$LN9@PMCCS_Grea:
  000e4	65		 DB	 101			; 00000065H
  000e5	78		 DB	 120			; 00000078H
  000e6	00		 DB	 0
_TEXT	ENDS
text$x	SEGMENT
__ehhandler$_PMCCS_GreatestCommonDivisor_X_L@16:
  00000	8b 54 24 08	 mov	 edx, DWORD PTR [esp+8]
  00004	8d 42 0c	 lea	 eax, DWORD PTR [edx+12]
  00007	8b 4a dc	 mov	 ecx, DWORD PTR [edx-36]
  0000a	33 c8		 xor	 ecx, eax
  0000c	e8 00 00 00 00	 call	 @__security_check_cookie@4
  00011	b8 00 00 00 00	 mov	 eax, OFFSET __ehfuncinfo$_PMCCS_GreatestCommonDivisor_X_L@16
  00016	e9 00 00 00 00	 jmp	 ___CxxFrameHandler3
text$x	ENDS
_PMCCS_GreatestCommonDivisor_X_L@16 ENDP
; Function compile flags: /Odtp /RTCsu
; File z:\sources\lunor\repos\rougemeilland\palmtree.math.core.uint\palmtree.math.core.uint\pmc_interface_csharp.cpp
_TEXT	SEGMENT
$T2 = -32						; size = 4
_ex$3 = -24						; size = 4
__$EHRec$ = -16						; size = 16
_u$ = 8							; size = 4
_v$ = 12						; size = 4
_w$ = 16						; size = 4
_PMCCS_GreatestCommonDivisor_X_I@12 PROC

; 1157 :     {

  00000	55		 push	 ebp
  00001	8b ec		 mov	 ebp, esp
  00003	6a ff		 push	 -1
  00005	68 00 00 00 00	 push	 __ehhandler$_PMCCS_GreatestCommonDivisor_X_I@12
  0000a	64 a1 00 00 00
	00		 mov	 eax, DWORD PTR fs:0
  00010	50		 push	 eax
  00011	51		 push	 ecx
  00012	83 ec 10	 sub	 esp, 16			; 00000010H
  00015	53		 push	 ebx
  00016	56		 push	 esi
  00017	57		 push	 edi
  00018	b8 cc cc cc cc	 mov	 eax, -858993460		; ccccccccH
  0001d	89 45 e0	 mov	 DWORD PTR [ebp-32], eax
  00020	89 45 e4	 mov	 DWORD PTR [ebp-28], eax
  00023	89 45 e8	 mov	 DWORD PTR [ebp-24], eax
  00026	89 45 ec	 mov	 DWORD PTR [ebp-20], eax
  00029	a1 00 00 00 00	 mov	 eax, DWORD PTR ___security_cookie
  0002e	33 c5		 xor	 eax, ebp
  00030	50		 push	 eax
  00031	8d 45 f4	 lea	 eax, DWORD PTR __$EHRec$[ebp+4]
  00034	64 a3 00 00 00
	00		 mov	 DWORD PTR fs:0, eax
  0003a	89 65 f0	 mov	 DWORD PTR __$EHRec$[ebp], esp
  0003d	b9 00 00 00 00	 mov	 ecx, OFFSET __C21BA676_pmc_interface_csharp@cpp
  00042	e8 00 00 00 00	 call	 @__CheckForDebuggerJustMyCode@4

; 1158 :         if (w == nullptr)

  00047	83 7d 10 00	 cmp	 DWORD PTR _w$[ebp], 0
  0004b	75 07		 jne	 SHORT $LN2@PMCCS_Grea

; 1159 :             return (PMC_STATUS_ARGUMENT_NULL_ERROR);

  0004d	b8 fe ff ff ff	 mov	 eax, -2			; fffffffeH
  00052	eb 47		 jmp	 SHORT $LN1@PMCCS_Grea
$LN2@PMCCS_Grea:

; 1160 :         try

  00054	c7 45 fc 00 00
	00 00		 mov	 DWORD PTR __$EHRec$[ebp+12], 0

; 1161 :         {
; 1162 :             *w = PMC_GreatestCommonDivisor_X_I(u, v);

  0005b	8b 45 0c	 mov	 eax, DWORD PTR _v$[ebp]
  0005e	50		 push	 eax
  0005f	8b 4d 08	 mov	 ecx, DWORD PTR _u$[ebp]
  00062	51		 push	 ecx
  00063	e8 00 00 00 00	 call	 ?PMC_GreatestCommonDivisor_X_I@Internal@Core@Math@Palmtree@@YGPAU__tag_PMC_HANDLE_UINT@1234@PAU51234@I@Z ; Palmtree::Math::Core::Internal::PMC_GreatestCommonDivisor_X_I
  00068	8b 55 10	 mov	 edx, DWORD PTR _w$[ebp]
  0006b	89 02		 mov	 DWORD PTR [edx], eax

; 1163 :             return (PMC_STATUS_OK);

  0006d	33 c0		 xor	 eax, eax
  0006f	eb 2a		 jmp	 SHORT $LN1@PMCCS_Grea
__catch$_PMCCS_GreatestCommonDivisor_X_I@12$0:

; 1164 :         }
; 1165 :         catch (const Palmtree::Math::Core::Internal::Exception& ex)
; 1166 :         {
; 1167 :             return (ex.GetStatusCode());

  00071	8b 4d e8	 mov	 ecx, DWORD PTR _ex$3[ebp]
  00074	e8 00 00 00 00	 call	 ?GetStatusCode@Exception@Internal@Core@Math@Palmtree@@QBEHXZ ; Palmtree::Math::Core::Internal::Exception::GetStatusCode
  00079	89 45 e0	 mov	 DWORD PTR $T2[ebp], eax
  0007c	b8 00 00 00 00	 mov	 eax, $LN8@PMCCS_Grea
  00081	c3		 ret	 0

; 1168 :         }

  00082	b8 00 00 00 00	 mov	 eax, __tryend$_PMCCS_GreatestCommonDivisor_X_I@12$1
  00087	c3		 ret	 0
__tryend$_PMCCS_GreatestCommonDivisor_X_I@12$1:
  00088	c7 45 fc ff ff
	ff ff		 mov	 DWORD PTR __$EHRec$[ebp+12], -1
  0008f	eb 0a		 jmp	 SHORT $LN1@PMCCS_Grea
$LN8@PMCCS_Grea:
  00091	c7 45 fc ff ff
	ff ff		 mov	 DWORD PTR __$EHRec$[ebp+12], -1

; 1164 :         }
; 1165 :         catch (const Palmtree::Math::Core::Internal::Exception& ex)
; 1166 :         {
; 1167 :             return (ex.GetStatusCode());

  00098	8b 45 e0	 mov	 eax, DWORD PTR $T2[ebp]
$LN1@PMCCS_Grea:

; 1169 :     }

  0009b	52		 push	 edx
  0009c	8b cd		 mov	 ecx, ebp
  0009e	50		 push	 eax
  0009f	8d 15 00 00 00
	00		 lea	 edx, DWORD PTR $LN12@PMCCS_Grea
  000a5	e8 00 00 00 00	 call	 @_RTC_CheckStackVars@8
  000aa	58		 pop	 eax
  000ab	5a		 pop	 edx
  000ac	8b 4d f4	 mov	 ecx, DWORD PTR __$EHRec$[ebp+4]
  000af	64 89 0d 00 00
	00 00		 mov	 DWORD PTR fs:0, ecx
  000b6	59		 pop	 ecx
  000b7	5f		 pop	 edi
  000b8	5e		 pop	 esi
  000b9	5b		 pop	 ebx
  000ba	83 c4 20	 add	 esp, 32			; 00000020H
  000bd	3b ec		 cmp	 ebp, esp
  000bf	e8 00 00 00 00	 call	 __RTC_CheckEsp
  000c4	8b e5		 mov	 esp, ebp
  000c6	5d		 pop	 ebp
  000c7	c2 0c 00	 ret	 12			; 0000000cH
  000ca	66 90		 npad	 2
$LN12@PMCCS_Grea:
  000cc	01 00 00 00	 DD	 1
  000d0	00 00 00 00	 DD	 $LN11@PMCCS_Grea
$LN11@PMCCS_Grea:
  000d4	e8 ff ff ff	 DD	 -24			; ffffffe8H
  000d8	04 00 00 00	 DD	 4
  000dc	00 00 00 00	 DD	 $LN9@PMCCS_Grea
$LN9@PMCCS_Grea:
  000e0	65		 DB	 101			; 00000065H
  000e1	78		 DB	 120			; 00000078H
  000e2	00		 DB	 0
_TEXT	ENDS
text$x	SEGMENT
__ehhandler$_PMCCS_GreatestCommonDivisor_X_I@12:
  00000	8b 54 24 08	 mov	 edx, DWORD PTR [esp+8]
  00004	8d 42 0c	 lea	 eax, DWORD PTR [edx+12]
  00007	8b 4a dc	 mov	 ecx, DWORD PTR [edx-36]
  0000a	33 c8		 xor	 ecx, eax
  0000c	e8 00 00 00 00	 call	 @__security_check_cookie@4
  00011	b8 00 00 00 00	 mov	 eax, OFFSET __ehfuncinfo$_PMCCS_GreatestCommonDivisor_X_I@12
  00016	e9 00 00 00 00	 jmp	 ___CxxFrameHandler3
text$x	ENDS
_PMCCS_GreatestCommonDivisor_X_I@12 ENDP
; Function compile flags: /Odtp /RTCsu
; File z:\sources\lunor\repos\rougemeilland\palmtree.math.core.uint\palmtree.math.core.uint\pmc_interface_csharp.cpp
_TEXT	SEGMENT
$T2 = -32						; size = 4
_ex$3 = -24						; size = 4
__$EHRec$ = -16						; size = 16
_u$ = 8							; size = 8
_v$ = 16						; size = 4
_w$ = 20						; size = 4
_PMCCS_GreatestCommonDivisor_L_X@16 PROC

; 1142 :     {

  00000	55		 push	 ebp
  00001	8b ec		 mov	 ebp, esp
  00003	6a ff		 push	 -1
  00005	68 00 00 00 00	 push	 __ehhandler$_PMCCS_GreatestCommonDivisor_L_X@16
  0000a	64 a1 00 00 00
	00		 mov	 eax, DWORD PTR fs:0
  00010	50		 push	 eax
  00011	51		 push	 ecx
  00012	83 ec 10	 sub	 esp, 16			; 00000010H
  00015	53		 push	 ebx
  00016	56		 push	 esi
  00017	57		 push	 edi
  00018	b8 cc cc cc cc	 mov	 eax, -858993460		; ccccccccH
  0001d	89 45 e0	 mov	 DWORD PTR [ebp-32], eax
  00020	89 45 e4	 mov	 DWORD PTR [ebp-28], eax
  00023	89 45 e8	 mov	 DWORD PTR [ebp-24], eax
  00026	89 45 ec	 mov	 DWORD PTR [ebp-20], eax
  00029	a1 00 00 00 00	 mov	 eax, DWORD PTR ___security_cookie
  0002e	33 c5		 xor	 eax, ebp
  00030	50		 push	 eax
  00031	8d 45 f4	 lea	 eax, DWORD PTR __$EHRec$[ebp+4]
  00034	64 a3 00 00 00
	00		 mov	 DWORD PTR fs:0, eax
  0003a	89 65 f0	 mov	 DWORD PTR __$EHRec$[ebp], esp
  0003d	b9 00 00 00 00	 mov	 ecx, OFFSET __C21BA676_pmc_interface_csharp@cpp
  00042	e8 00 00 00 00	 call	 @__CheckForDebuggerJustMyCode@4

; 1143 :         if (w == nullptr)

  00047	83 7d 14 00	 cmp	 DWORD PTR _w$[ebp], 0
  0004b	75 07		 jne	 SHORT $LN2@PMCCS_Grea

; 1144 :             return (PMC_STATUS_ARGUMENT_NULL_ERROR);

  0004d	b8 fe ff ff ff	 mov	 eax, -2			; fffffffeH
  00052	eb 4b		 jmp	 SHORT $LN1@PMCCS_Grea
$LN2@PMCCS_Grea:

; 1145 :         try

  00054	c7 45 fc 00 00
	00 00		 mov	 DWORD PTR __$EHRec$[ebp+12], 0

; 1146 :         {
; 1147 :             *w = PMC_GreatestCommonDivisor_L_X(u, v);

  0005b	8b 45 10	 mov	 eax, DWORD PTR _v$[ebp]
  0005e	50		 push	 eax
  0005f	8b 4d 0c	 mov	 ecx, DWORD PTR _u$[ebp+4]
  00062	51		 push	 ecx
  00063	8b 55 08	 mov	 edx, DWORD PTR _u$[ebp]
  00066	52		 push	 edx
  00067	e8 00 00 00 00	 call	 ?PMC_GreatestCommonDivisor_L_X@Internal@Core@Math@Palmtree@@YGPAU__tag_PMC_HANDLE_UINT@1234@_KPAU51234@@Z ; Palmtree::Math::Core::Internal::PMC_GreatestCommonDivisor_L_X
  0006c	8b 4d 14	 mov	 ecx, DWORD PTR _w$[ebp]
  0006f	89 01		 mov	 DWORD PTR [ecx], eax

; 1148 :             return (PMC_STATUS_OK);

  00071	33 c0		 xor	 eax, eax
  00073	eb 2a		 jmp	 SHORT $LN1@PMCCS_Grea
__catch$_PMCCS_GreatestCommonDivisor_L_X@16$0:

; 1149 :         }
; 1150 :         catch (const Palmtree::Math::Core::Internal::Exception& ex)
; 1151 :         {
; 1152 :             return (ex.GetStatusCode());

  00075	8b 4d e8	 mov	 ecx, DWORD PTR _ex$3[ebp]
  00078	e8 00 00 00 00	 call	 ?GetStatusCode@Exception@Internal@Core@Math@Palmtree@@QBEHXZ ; Palmtree::Math::Core::Internal::Exception::GetStatusCode
  0007d	89 45 e0	 mov	 DWORD PTR $T2[ebp], eax
  00080	b8 00 00 00 00	 mov	 eax, $LN8@PMCCS_Grea
  00085	c3		 ret	 0

; 1153 :         }

  00086	b8 00 00 00 00	 mov	 eax, __tryend$_PMCCS_GreatestCommonDivisor_L_X@16$1
  0008b	c3		 ret	 0
__tryend$_PMCCS_GreatestCommonDivisor_L_X@16$1:
  0008c	c7 45 fc ff ff
	ff ff		 mov	 DWORD PTR __$EHRec$[ebp+12], -1
  00093	eb 0a		 jmp	 SHORT $LN1@PMCCS_Grea
$LN8@PMCCS_Grea:
  00095	c7 45 fc ff ff
	ff ff		 mov	 DWORD PTR __$EHRec$[ebp+12], -1

; 1149 :         }
; 1150 :         catch (const Palmtree::Math::Core::Internal::Exception& ex)
; 1151 :         {
; 1152 :             return (ex.GetStatusCode());

  0009c	8b 45 e0	 mov	 eax, DWORD PTR $T2[ebp]
$LN1@PMCCS_Grea:

; 1154 :     }

  0009f	52		 push	 edx
  000a0	8b cd		 mov	 ecx, ebp
  000a2	50		 push	 eax
  000a3	8d 15 00 00 00
	00		 lea	 edx, DWORD PTR $LN12@PMCCS_Grea
  000a9	e8 00 00 00 00	 call	 @_RTC_CheckStackVars@8
  000ae	58		 pop	 eax
  000af	5a		 pop	 edx
  000b0	8b 4d f4	 mov	 ecx, DWORD PTR __$EHRec$[ebp+4]
  000b3	64 89 0d 00 00
	00 00		 mov	 DWORD PTR fs:0, ecx
  000ba	59		 pop	 ecx
  000bb	5f		 pop	 edi
  000bc	5e		 pop	 esi
  000bd	5b		 pop	 ebx
  000be	83 c4 20	 add	 esp, 32			; 00000020H
  000c1	3b ec		 cmp	 ebp, esp
  000c3	e8 00 00 00 00	 call	 __RTC_CheckEsp
  000c8	8b e5		 mov	 esp, ebp
  000ca	5d		 pop	 ebp
  000cb	c2 10 00	 ret	 16			; 00000010H
  000ce	66 90		 npad	 2
$LN12@PMCCS_Grea:
  000d0	01 00 00 00	 DD	 1
  000d4	00 00 00 00	 DD	 $LN11@PMCCS_Grea
$LN11@PMCCS_Grea:
  000d8	e8 ff ff ff	 DD	 -24			; ffffffe8H
  000dc	04 00 00 00	 DD	 4
  000e0	00 00 00 00	 DD	 $LN9@PMCCS_Grea
$LN9@PMCCS_Grea:
  000e4	65		 DB	 101			; 00000065H
  000e5	78		 DB	 120			; 00000078H
  000e6	00		 DB	 0
_TEXT	ENDS
text$x	SEGMENT
__ehhandler$_PMCCS_GreatestCommonDivisor_L_X@16:
  00000	8b 54 24 08	 mov	 edx, DWORD PTR [esp+8]
  00004	8d 42 0c	 lea	 eax, DWORD PTR [edx+12]
  00007	8b 4a dc	 mov	 ecx, DWORD PTR [edx-36]
  0000a	33 c8		 xor	 ecx, eax
  0000c	e8 00 00 00 00	 call	 @__security_check_cookie@4
  00011	b8 00 00 00 00	 mov	 eax, OFFSET __ehfuncinfo$_PMCCS_GreatestCommonDivisor_L_X@16
  00016	e9 00 00 00 00	 jmp	 ___CxxFrameHandler3
text$x	ENDS
_PMCCS_GreatestCommonDivisor_L_X@16 ENDP
; Function compile flags: /Odtp /RTCsu
; File z:\sources\lunor\repos\rougemeilland\palmtree.math.core.uint\palmtree.math.core.uint\pmc_interface_csharp.cpp
_TEXT	SEGMENT
$T2 = -32						; size = 4
_ex$3 = -24						; size = 4
__$EHRec$ = -16						; size = 16
_u$ = 8							; size = 4
_v$ = 12						; size = 4
_w$ = 16						; size = 4
_PMCCS_GreatestCommonDivisor_I_X@12 PROC

; 1127 :     {

  00000	55		 push	 ebp
  00001	8b ec		 mov	 ebp, esp
  00003	6a ff		 push	 -1
  00005	68 00 00 00 00	 push	 __ehhandler$_PMCCS_GreatestCommonDivisor_I_X@12
  0000a	64 a1 00 00 00
	00		 mov	 eax, DWORD PTR fs:0
  00010	50		 push	 eax
  00011	51		 push	 ecx
  00012	83 ec 10	 sub	 esp, 16			; 00000010H
  00015	53		 push	 ebx
  00016	56		 push	 esi
  00017	57		 push	 edi
  00018	b8 cc cc cc cc	 mov	 eax, -858993460		; ccccccccH
  0001d	89 45 e0	 mov	 DWORD PTR [ebp-32], eax
  00020	89 45 e4	 mov	 DWORD PTR [ebp-28], eax
  00023	89 45 e8	 mov	 DWORD PTR [ebp-24], eax
  00026	89 45 ec	 mov	 DWORD PTR [ebp-20], eax
  00029	a1 00 00 00 00	 mov	 eax, DWORD PTR ___security_cookie
  0002e	33 c5		 xor	 eax, ebp
  00030	50		 push	 eax
  00031	8d 45 f4	 lea	 eax, DWORD PTR __$EHRec$[ebp+4]
  00034	64 a3 00 00 00
	00		 mov	 DWORD PTR fs:0, eax
  0003a	89 65 f0	 mov	 DWORD PTR __$EHRec$[ebp], esp
  0003d	b9 00 00 00 00	 mov	 ecx, OFFSET __C21BA676_pmc_interface_csharp@cpp
  00042	e8 00 00 00 00	 call	 @__CheckForDebuggerJustMyCode@4

; 1128 :         if (w == nullptr)

  00047	83 7d 10 00	 cmp	 DWORD PTR _w$[ebp], 0
  0004b	75 07		 jne	 SHORT $LN2@PMCCS_Grea

; 1129 :             return (PMC_STATUS_ARGUMENT_NULL_ERROR);

  0004d	b8 fe ff ff ff	 mov	 eax, -2			; fffffffeH
  00052	eb 47		 jmp	 SHORT $LN1@PMCCS_Grea
$LN2@PMCCS_Grea:

; 1130 :         try

  00054	c7 45 fc 00 00
	00 00		 mov	 DWORD PTR __$EHRec$[ebp+12], 0

; 1131 :         {
; 1132 :             *w = PMC_GreatestCommonDivisor_I_X(u, v);

  0005b	8b 45 0c	 mov	 eax, DWORD PTR _v$[ebp]
  0005e	50		 push	 eax
  0005f	8b 4d 08	 mov	 ecx, DWORD PTR _u$[ebp]
  00062	51		 push	 ecx
  00063	e8 00 00 00 00	 call	 ?PMC_GreatestCommonDivisor_I_X@Internal@Core@Math@Palmtree@@YGPAU__tag_PMC_HANDLE_UINT@1234@IPAU51234@@Z ; Palmtree::Math::Core::Internal::PMC_GreatestCommonDivisor_I_X
  00068	8b 55 10	 mov	 edx, DWORD PTR _w$[ebp]
  0006b	89 02		 mov	 DWORD PTR [edx], eax

; 1133 :             return (PMC_STATUS_OK);

  0006d	33 c0		 xor	 eax, eax
  0006f	eb 2a		 jmp	 SHORT $LN1@PMCCS_Grea
__catch$_PMCCS_GreatestCommonDivisor_I_X@12$0:

; 1134 :         }
; 1135 :         catch (const Palmtree::Math::Core::Internal::Exception& ex)
; 1136 :         {
; 1137 :             return (ex.GetStatusCode());

  00071	8b 4d e8	 mov	 ecx, DWORD PTR _ex$3[ebp]
  00074	e8 00 00 00 00	 call	 ?GetStatusCode@Exception@Internal@Core@Math@Palmtree@@QBEHXZ ; Palmtree::Math::Core::Internal::Exception::GetStatusCode
  00079	89 45 e0	 mov	 DWORD PTR $T2[ebp], eax
  0007c	b8 00 00 00 00	 mov	 eax, $LN8@PMCCS_Grea
  00081	c3		 ret	 0

; 1138 :         }

  00082	b8 00 00 00 00	 mov	 eax, __tryend$_PMCCS_GreatestCommonDivisor_I_X@12$1
  00087	c3		 ret	 0
__tryend$_PMCCS_GreatestCommonDivisor_I_X@12$1:
  00088	c7 45 fc ff ff
	ff ff		 mov	 DWORD PTR __$EHRec$[ebp+12], -1
  0008f	eb 0a		 jmp	 SHORT $LN1@PMCCS_Grea
$LN8@PMCCS_Grea:
  00091	c7 45 fc ff ff
	ff ff		 mov	 DWORD PTR __$EHRec$[ebp+12], -1

; 1134 :         }
; 1135 :         catch (const Palmtree::Math::Core::Internal::Exception& ex)
; 1136 :         {
; 1137 :             return (ex.GetStatusCode());

  00098	8b 45 e0	 mov	 eax, DWORD PTR $T2[ebp]
$LN1@PMCCS_Grea:

; 1139 :     }

  0009b	52		 push	 edx
  0009c	8b cd		 mov	 ecx, ebp
  0009e	50		 push	 eax
  0009f	8d 15 00 00 00
	00		 lea	 edx, DWORD PTR $LN12@PMCCS_Grea
  000a5	e8 00 00 00 00	 call	 @_RTC_CheckStackVars@8
  000aa	58		 pop	 eax
  000ab	5a		 pop	 edx
  000ac	8b 4d f4	 mov	 ecx, DWORD PTR __$EHRec$[ebp+4]
  000af	64 89 0d 00 00
	00 00		 mov	 DWORD PTR fs:0, ecx
  000b6	59		 pop	 ecx
  000b7	5f		 pop	 edi
  000b8	5e		 pop	 esi
  000b9	5b		 pop	 ebx
  000ba	83 c4 20	 add	 esp, 32			; 00000020H
  000bd	3b ec		 cmp	 ebp, esp
  000bf	e8 00 00 00 00	 call	 __RTC_CheckEsp
  000c4	8b e5		 mov	 esp, ebp
  000c6	5d		 pop	 ebp
  000c7	c2 0c 00	 ret	 12			; 0000000cH
  000ca	66 90		 npad	 2
$LN12@PMCCS_Grea:
  000cc	01 00 00 00	 DD	 1
  000d0	00 00 00 00	 DD	 $LN11@PMCCS_Grea
$LN11@PMCCS_Grea:
  000d4	e8 ff ff ff	 DD	 -24			; ffffffe8H
  000d8	04 00 00 00	 DD	 4
  000dc	00 00 00 00	 DD	 $LN9@PMCCS_Grea
$LN9@PMCCS_Grea:
  000e0	65		 DB	 101			; 00000065H
  000e1	78		 DB	 120			; 00000078H
  000e2	00		 DB	 0
_TEXT	ENDS
text$x	SEGMENT
__ehhandler$_PMCCS_GreatestCommonDivisor_I_X@12:
  00000	8b 54 24 08	 mov	 edx, DWORD PTR [esp+8]
  00004	8d 42 0c	 lea	 eax, DWORD PTR [edx+12]
  00007	8b 4a dc	 mov	 ecx, DWORD PTR [edx-36]
  0000a	33 c8		 xor	 ecx, eax
  0000c	e8 00 00 00 00	 call	 @__security_check_cookie@4
  00011	b8 00 00 00 00	 mov	 eax, OFFSET __ehfuncinfo$_PMCCS_GreatestCommonDivisor_I_X@12
  00016	e9 00 00 00 00	 jmp	 ___CxxFrameHandler3
text$x	ENDS
_PMCCS_GreatestCommonDivisor_I_X@12 ENDP
; Function compile flags: /Odtp /RTCsu
; File z:\sources\lunor\repos\rougemeilland\palmtree.math.core.uint\palmtree.math.core.uint\pmc_interface_csharp.cpp
_TEXT	SEGMENT
$T2 = -32						; size = 4
_ex$3 = -24						; size = 4
__$EHRec$ = -16						; size = 16
_u$ = 8							; size = 4
_v$ = 12						; size = 4
_w$ = 16						; size = 4
_PMCCS_Equals_X_X@12 PROC

; 1112 :     {

  00000	55		 push	 ebp
  00001	8b ec		 mov	 ebp, esp
  00003	6a ff		 push	 -1
  00005	68 00 00 00 00	 push	 __ehhandler$_PMCCS_Equals_X_X@12
  0000a	64 a1 00 00 00
	00		 mov	 eax, DWORD PTR fs:0
  00010	50		 push	 eax
  00011	51		 push	 ecx
  00012	83 ec 10	 sub	 esp, 16			; 00000010H
  00015	53		 push	 ebx
  00016	56		 push	 esi
  00017	57		 push	 edi
  00018	b8 cc cc cc cc	 mov	 eax, -858993460		; ccccccccH
  0001d	89 45 e0	 mov	 DWORD PTR [ebp-32], eax
  00020	89 45 e4	 mov	 DWORD PTR [ebp-28], eax
  00023	89 45 e8	 mov	 DWORD PTR [ebp-24], eax
  00026	89 45 ec	 mov	 DWORD PTR [ebp-20], eax
  00029	a1 00 00 00 00	 mov	 eax, DWORD PTR ___security_cookie
  0002e	33 c5		 xor	 eax, ebp
  00030	50		 push	 eax
  00031	8d 45 f4	 lea	 eax, DWORD PTR __$EHRec$[ebp+4]
  00034	64 a3 00 00 00
	00		 mov	 DWORD PTR fs:0, eax
  0003a	89 65 f0	 mov	 DWORD PTR __$EHRec$[ebp], esp
  0003d	b9 00 00 00 00	 mov	 ecx, OFFSET __C21BA676_pmc_interface_csharp@cpp
  00042	e8 00 00 00 00	 call	 @__CheckForDebuggerJustMyCode@4

; 1113 :         if (w == nullptr)

  00047	83 7d 10 00	 cmp	 DWORD PTR _w$[ebp], 0
  0004b	75 07		 jne	 SHORT $LN2@PMCCS_Equa

; 1114 :             return (PMC_STATUS_ARGUMENT_NULL_ERROR);

  0004d	b8 fe ff ff ff	 mov	 eax, -2			; fffffffeH
  00052	eb 47		 jmp	 SHORT $LN1@PMCCS_Equa
$LN2@PMCCS_Equa:

; 1115 :         try

  00054	c7 45 fc 00 00
	00 00		 mov	 DWORD PTR __$EHRec$[ebp+12], 0

; 1116 :         {
; 1117 :             *w = PMC_Equals_X_X(u, v);

  0005b	8b 45 0c	 mov	 eax, DWORD PTR _v$[ebp]
  0005e	50		 push	 eax
  0005f	8b 4d 08	 mov	 ecx, DWORD PTR _u$[ebp]
  00062	51		 push	 ecx
  00063	e8 00 00 00 00	 call	 ?PMC_Equals_X_X@Internal@Core@Math@Palmtree@@YGIPAU__tag_PMC_HANDLE_UINT@1234@0@Z ; Palmtree::Math::Core::Internal::PMC_Equals_X_X
  00068	8b 55 10	 mov	 edx, DWORD PTR _w$[ebp]
  0006b	89 02		 mov	 DWORD PTR [edx], eax

; 1118 :             return (PMC_STATUS_OK);

  0006d	33 c0		 xor	 eax, eax
  0006f	eb 2a		 jmp	 SHORT $LN1@PMCCS_Equa
__catch$_PMCCS_Equals_X_X@12$0:

; 1119 :         }
; 1120 :         catch (const Palmtree::Math::Core::Internal::Exception& ex)
; 1121 :         {
; 1122 :             return (ex.GetStatusCode());

  00071	8b 4d e8	 mov	 ecx, DWORD PTR _ex$3[ebp]
  00074	e8 00 00 00 00	 call	 ?GetStatusCode@Exception@Internal@Core@Math@Palmtree@@QBEHXZ ; Palmtree::Math::Core::Internal::Exception::GetStatusCode
  00079	89 45 e0	 mov	 DWORD PTR $T2[ebp], eax
  0007c	b8 00 00 00 00	 mov	 eax, $LN8@PMCCS_Equa
  00081	c3		 ret	 0

; 1123 :         }

  00082	b8 00 00 00 00	 mov	 eax, __tryend$_PMCCS_Equals_X_X@12$1
  00087	c3		 ret	 0
__tryend$_PMCCS_Equals_X_X@12$1:
  00088	c7 45 fc ff ff
	ff ff		 mov	 DWORD PTR __$EHRec$[ebp+12], -1
  0008f	eb 0a		 jmp	 SHORT $LN1@PMCCS_Equa
$LN8@PMCCS_Equa:
  00091	c7 45 fc ff ff
	ff ff		 mov	 DWORD PTR __$EHRec$[ebp+12], -1

; 1119 :         }
; 1120 :         catch (const Palmtree::Math::Core::Internal::Exception& ex)
; 1121 :         {
; 1122 :             return (ex.GetStatusCode());

  00098	8b 45 e0	 mov	 eax, DWORD PTR $T2[ebp]
$LN1@PMCCS_Equa:

; 1124 :     }

  0009b	52		 push	 edx
  0009c	8b cd		 mov	 ecx, ebp
  0009e	50		 push	 eax
  0009f	8d 15 00 00 00
	00		 lea	 edx, DWORD PTR $LN12@PMCCS_Equa
  000a5	e8 00 00 00 00	 call	 @_RTC_CheckStackVars@8
  000aa	58		 pop	 eax
  000ab	5a		 pop	 edx
  000ac	8b 4d f4	 mov	 ecx, DWORD PTR __$EHRec$[ebp+4]
  000af	64 89 0d 00 00
	00 00		 mov	 DWORD PTR fs:0, ecx
  000b6	59		 pop	 ecx
  000b7	5f		 pop	 edi
  000b8	5e		 pop	 esi
  000b9	5b		 pop	 ebx
  000ba	83 c4 20	 add	 esp, 32			; 00000020H
  000bd	3b ec		 cmp	 ebp, esp
  000bf	e8 00 00 00 00	 call	 __RTC_CheckEsp
  000c4	8b e5		 mov	 esp, ebp
  000c6	5d		 pop	 ebp
  000c7	c2 0c 00	 ret	 12			; 0000000cH
  000ca	66 90		 npad	 2
$LN12@PMCCS_Equa:
  000cc	01 00 00 00	 DD	 1
  000d0	00 00 00 00	 DD	 $LN11@PMCCS_Equa
$LN11@PMCCS_Equa:
  000d4	e8 ff ff ff	 DD	 -24			; ffffffe8H
  000d8	04 00 00 00	 DD	 4
  000dc	00 00 00 00	 DD	 $LN9@PMCCS_Equa
$LN9@PMCCS_Equa:
  000e0	65		 DB	 101			; 00000065H
  000e1	78		 DB	 120			; 00000078H
  000e2	00		 DB	 0
_TEXT	ENDS
text$x	SEGMENT
__ehhandler$_PMCCS_Equals_X_X@12:
  00000	8b 54 24 08	 mov	 edx, DWORD PTR [esp+8]
  00004	8d 42 0c	 lea	 eax, DWORD PTR [edx+12]
  00007	8b 4a dc	 mov	 ecx, DWORD PTR [edx-36]
  0000a	33 c8		 xor	 ecx, eax
  0000c	e8 00 00 00 00	 call	 @__security_check_cookie@4
  00011	b8 00 00 00 00	 mov	 eax, OFFSET __ehfuncinfo$_PMCCS_Equals_X_X@12
  00016	e9 00 00 00 00	 jmp	 ___CxxFrameHandler3
text$x	ENDS
_PMCCS_Equals_X_X@12 ENDP
; Function compile flags: /Odtp /RTCsu
; File z:\sources\lunor\repos\rougemeilland\palmtree.math.core.uint\palmtree.math.core.uint\pmc_interface_csharp.cpp
_TEXT	SEGMENT
$T2 = -32						; size = 4
_ex$3 = -24						; size = 4
__$EHRec$ = -16						; size = 16
_u$ = 8							; size = 4
_v$ = 12						; size = 8
_w$ = 20						; size = 4
_PMCCS_Equals_X_L@16 PROC

; 1097 :     {

  00000	55		 push	 ebp
  00001	8b ec		 mov	 ebp, esp
  00003	6a ff		 push	 -1
  00005	68 00 00 00 00	 push	 __ehhandler$_PMCCS_Equals_X_L@16
  0000a	64 a1 00 00 00
	00		 mov	 eax, DWORD PTR fs:0
  00010	50		 push	 eax
  00011	51		 push	 ecx
  00012	83 ec 10	 sub	 esp, 16			; 00000010H
  00015	53		 push	 ebx
  00016	56		 push	 esi
  00017	57		 push	 edi
  00018	b8 cc cc cc cc	 mov	 eax, -858993460		; ccccccccH
  0001d	89 45 e0	 mov	 DWORD PTR [ebp-32], eax
  00020	89 45 e4	 mov	 DWORD PTR [ebp-28], eax
  00023	89 45 e8	 mov	 DWORD PTR [ebp-24], eax
  00026	89 45 ec	 mov	 DWORD PTR [ebp-20], eax
  00029	a1 00 00 00 00	 mov	 eax, DWORD PTR ___security_cookie
  0002e	33 c5		 xor	 eax, ebp
  00030	50		 push	 eax
  00031	8d 45 f4	 lea	 eax, DWORD PTR __$EHRec$[ebp+4]
  00034	64 a3 00 00 00
	00		 mov	 DWORD PTR fs:0, eax
  0003a	89 65 f0	 mov	 DWORD PTR __$EHRec$[ebp], esp
  0003d	b9 00 00 00 00	 mov	 ecx, OFFSET __C21BA676_pmc_interface_csharp@cpp
  00042	e8 00 00 00 00	 call	 @__CheckForDebuggerJustMyCode@4

; 1098 :         if (w == nullptr)

  00047	83 7d 14 00	 cmp	 DWORD PTR _w$[ebp], 0
  0004b	75 07		 jne	 SHORT $LN2@PMCCS_Equa

; 1099 :             return (PMC_STATUS_ARGUMENT_NULL_ERROR);

  0004d	b8 fe ff ff ff	 mov	 eax, -2			; fffffffeH
  00052	eb 4b		 jmp	 SHORT $LN1@PMCCS_Equa
$LN2@PMCCS_Equa:

; 1100 :         try

  00054	c7 45 fc 00 00
	00 00		 mov	 DWORD PTR __$EHRec$[ebp+12], 0

; 1101 :         {
; 1102 :             *w = PMC_Equals_X_L(u, v);

  0005b	8b 45 10	 mov	 eax, DWORD PTR _v$[ebp+4]
  0005e	50		 push	 eax
  0005f	8b 4d 0c	 mov	 ecx, DWORD PTR _v$[ebp]
  00062	51		 push	 ecx
  00063	8b 55 08	 mov	 edx, DWORD PTR _u$[ebp]
  00066	52		 push	 edx
  00067	e8 00 00 00 00	 call	 ?PMC_Equals_X_L@Internal@Core@Math@Palmtree@@YGIPAU__tag_PMC_HANDLE_UINT@1234@_K@Z ; Palmtree::Math::Core::Internal::PMC_Equals_X_L
  0006c	8b 4d 14	 mov	 ecx, DWORD PTR _w$[ebp]
  0006f	89 01		 mov	 DWORD PTR [ecx], eax

; 1103 :             return (PMC_STATUS_OK);

  00071	33 c0		 xor	 eax, eax
  00073	eb 2a		 jmp	 SHORT $LN1@PMCCS_Equa
__catch$_PMCCS_Equals_X_L@16$0:

; 1104 :         }
; 1105 :         catch (const Palmtree::Math::Core::Internal::Exception& ex)
; 1106 :         {
; 1107 :             return (ex.GetStatusCode());

  00075	8b 4d e8	 mov	 ecx, DWORD PTR _ex$3[ebp]
  00078	e8 00 00 00 00	 call	 ?GetStatusCode@Exception@Internal@Core@Math@Palmtree@@QBEHXZ ; Palmtree::Math::Core::Internal::Exception::GetStatusCode
  0007d	89 45 e0	 mov	 DWORD PTR $T2[ebp], eax
  00080	b8 00 00 00 00	 mov	 eax, $LN8@PMCCS_Equa
  00085	c3		 ret	 0

; 1108 :         }

  00086	b8 00 00 00 00	 mov	 eax, __tryend$_PMCCS_Equals_X_L@16$1
  0008b	c3		 ret	 0
__tryend$_PMCCS_Equals_X_L@16$1:
  0008c	c7 45 fc ff ff
	ff ff		 mov	 DWORD PTR __$EHRec$[ebp+12], -1
  00093	eb 0a		 jmp	 SHORT $LN1@PMCCS_Equa
$LN8@PMCCS_Equa:
  00095	c7 45 fc ff ff
	ff ff		 mov	 DWORD PTR __$EHRec$[ebp+12], -1

; 1104 :         }
; 1105 :         catch (const Palmtree::Math::Core::Internal::Exception& ex)
; 1106 :         {
; 1107 :             return (ex.GetStatusCode());

  0009c	8b 45 e0	 mov	 eax, DWORD PTR $T2[ebp]
$LN1@PMCCS_Equa:

; 1109 :     }

  0009f	52		 push	 edx
  000a0	8b cd		 mov	 ecx, ebp
  000a2	50		 push	 eax
  000a3	8d 15 00 00 00
	00		 lea	 edx, DWORD PTR $LN12@PMCCS_Equa
  000a9	e8 00 00 00 00	 call	 @_RTC_CheckStackVars@8
  000ae	58		 pop	 eax
  000af	5a		 pop	 edx
  000b0	8b 4d f4	 mov	 ecx, DWORD PTR __$EHRec$[ebp+4]
  000b3	64 89 0d 00 00
	00 00		 mov	 DWORD PTR fs:0, ecx
  000ba	59		 pop	 ecx
  000bb	5f		 pop	 edi
  000bc	5e		 pop	 esi
  000bd	5b		 pop	 ebx
  000be	83 c4 20	 add	 esp, 32			; 00000020H
  000c1	3b ec		 cmp	 ebp, esp
  000c3	e8 00 00 00 00	 call	 __RTC_CheckEsp
  000c8	8b e5		 mov	 esp, ebp
  000ca	5d		 pop	 ebp
  000cb	c2 10 00	 ret	 16			; 00000010H
  000ce	66 90		 npad	 2
$LN12@PMCCS_Equa:
  000d0	01 00 00 00	 DD	 1
  000d4	00 00 00 00	 DD	 $LN11@PMCCS_Equa
$LN11@PMCCS_Equa:
  000d8	e8 ff ff ff	 DD	 -24			; ffffffe8H
  000dc	04 00 00 00	 DD	 4
  000e0	00 00 00 00	 DD	 $LN9@PMCCS_Equa
$LN9@PMCCS_Equa:
  000e4	65		 DB	 101			; 00000065H
  000e5	78		 DB	 120			; 00000078H
  000e6	00		 DB	 0
_TEXT	ENDS
text$x	SEGMENT
__ehhandler$_PMCCS_Equals_X_L@16:
  00000	8b 54 24 08	 mov	 edx, DWORD PTR [esp+8]
  00004	8d 42 0c	 lea	 eax, DWORD PTR [edx+12]
  00007	8b 4a dc	 mov	 ecx, DWORD PTR [edx-36]
  0000a	33 c8		 xor	 ecx, eax
  0000c	e8 00 00 00 00	 call	 @__security_check_cookie@4
  00011	b8 00 00 00 00	 mov	 eax, OFFSET __ehfuncinfo$_PMCCS_Equals_X_L@16
  00016	e9 00 00 00 00	 jmp	 ___CxxFrameHandler3
text$x	ENDS
_PMCCS_Equals_X_L@16 ENDP
; Function compile flags: /Odtp /RTCsu
; File z:\sources\lunor\repos\rougemeilland\palmtree.math.core.uint\palmtree.math.core.uint\pmc_interface_csharp.cpp
_TEXT	SEGMENT
$T2 = -32						; size = 4
_ex$3 = -24						; size = 4
__$EHRec$ = -16						; size = 16
_u$ = 8							; size = 4
_v$ = 12						; size = 4
_w$ = 16						; size = 4
_PMCCS_Equals_X_I@12 PROC

; 1082 :     {

  00000	55		 push	 ebp
  00001	8b ec		 mov	 ebp, esp
  00003	6a ff		 push	 -1
  00005	68 00 00 00 00	 push	 __ehhandler$_PMCCS_Equals_X_I@12
  0000a	64 a1 00 00 00
	00		 mov	 eax, DWORD PTR fs:0
  00010	50		 push	 eax
  00011	51		 push	 ecx
  00012	83 ec 10	 sub	 esp, 16			; 00000010H
  00015	53		 push	 ebx
  00016	56		 push	 esi
  00017	57		 push	 edi
  00018	b8 cc cc cc cc	 mov	 eax, -858993460		; ccccccccH
  0001d	89 45 e0	 mov	 DWORD PTR [ebp-32], eax
  00020	89 45 e4	 mov	 DWORD PTR [ebp-28], eax
  00023	89 45 e8	 mov	 DWORD PTR [ebp-24], eax
  00026	89 45 ec	 mov	 DWORD PTR [ebp-20], eax
  00029	a1 00 00 00 00	 mov	 eax, DWORD PTR ___security_cookie
  0002e	33 c5		 xor	 eax, ebp
  00030	50		 push	 eax
  00031	8d 45 f4	 lea	 eax, DWORD PTR __$EHRec$[ebp+4]
  00034	64 a3 00 00 00
	00		 mov	 DWORD PTR fs:0, eax
  0003a	89 65 f0	 mov	 DWORD PTR __$EHRec$[ebp], esp
  0003d	b9 00 00 00 00	 mov	 ecx, OFFSET __C21BA676_pmc_interface_csharp@cpp
  00042	e8 00 00 00 00	 call	 @__CheckForDebuggerJustMyCode@4

; 1083 :         if (w == nullptr)

  00047	83 7d 10 00	 cmp	 DWORD PTR _w$[ebp], 0
  0004b	75 07		 jne	 SHORT $LN2@PMCCS_Equa

; 1084 :             return (PMC_STATUS_ARGUMENT_NULL_ERROR);

  0004d	b8 fe ff ff ff	 mov	 eax, -2			; fffffffeH
  00052	eb 47		 jmp	 SHORT $LN1@PMCCS_Equa
$LN2@PMCCS_Equa:

; 1085 :         try

  00054	c7 45 fc 00 00
	00 00		 mov	 DWORD PTR __$EHRec$[ebp+12], 0

; 1086 :         {
; 1087 :             *w = PMC_Equals_X_I(u, v);

  0005b	8b 45 0c	 mov	 eax, DWORD PTR _v$[ebp]
  0005e	50		 push	 eax
  0005f	8b 4d 08	 mov	 ecx, DWORD PTR _u$[ebp]
  00062	51		 push	 ecx
  00063	e8 00 00 00 00	 call	 ?PMC_Equals_X_I@Internal@Core@Math@Palmtree@@YGIPAU__tag_PMC_HANDLE_UINT@1234@I@Z ; Palmtree::Math::Core::Internal::PMC_Equals_X_I
  00068	8b 55 10	 mov	 edx, DWORD PTR _w$[ebp]
  0006b	89 02		 mov	 DWORD PTR [edx], eax

; 1088 :             return (PMC_STATUS_OK);

  0006d	33 c0		 xor	 eax, eax
  0006f	eb 2a		 jmp	 SHORT $LN1@PMCCS_Equa
__catch$_PMCCS_Equals_X_I@12$0:

; 1089 :         }
; 1090 :         catch (const Palmtree::Math::Core::Internal::Exception& ex)
; 1091 :         {
; 1092 :             return (ex.GetStatusCode());

  00071	8b 4d e8	 mov	 ecx, DWORD PTR _ex$3[ebp]
  00074	e8 00 00 00 00	 call	 ?GetStatusCode@Exception@Internal@Core@Math@Palmtree@@QBEHXZ ; Palmtree::Math::Core::Internal::Exception::GetStatusCode
  00079	89 45 e0	 mov	 DWORD PTR $T2[ebp], eax
  0007c	b8 00 00 00 00	 mov	 eax, $LN8@PMCCS_Equa
  00081	c3		 ret	 0

; 1093 :         }

  00082	b8 00 00 00 00	 mov	 eax, __tryend$_PMCCS_Equals_X_I@12$1
  00087	c3		 ret	 0
__tryend$_PMCCS_Equals_X_I@12$1:
  00088	c7 45 fc ff ff
	ff ff		 mov	 DWORD PTR __$EHRec$[ebp+12], -1
  0008f	eb 0a		 jmp	 SHORT $LN1@PMCCS_Equa
$LN8@PMCCS_Equa:
  00091	c7 45 fc ff ff
	ff ff		 mov	 DWORD PTR __$EHRec$[ebp+12], -1

; 1089 :         }
; 1090 :         catch (const Palmtree::Math::Core::Internal::Exception& ex)
; 1091 :         {
; 1092 :             return (ex.GetStatusCode());

  00098	8b 45 e0	 mov	 eax, DWORD PTR $T2[ebp]
$LN1@PMCCS_Equa:

; 1094 :     }

  0009b	52		 push	 edx
  0009c	8b cd		 mov	 ecx, ebp
  0009e	50		 push	 eax
  0009f	8d 15 00 00 00
	00		 lea	 edx, DWORD PTR $LN12@PMCCS_Equa
  000a5	e8 00 00 00 00	 call	 @_RTC_CheckStackVars@8
  000aa	58		 pop	 eax
  000ab	5a		 pop	 edx
  000ac	8b 4d f4	 mov	 ecx, DWORD PTR __$EHRec$[ebp+4]
  000af	64 89 0d 00 00
	00 00		 mov	 DWORD PTR fs:0, ecx
  000b6	59		 pop	 ecx
  000b7	5f		 pop	 edi
  000b8	5e		 pop	 esi
  000b9	5b		 pop	 ebx
  000ba	83 c4 20	 add	 esp, 32			; 00000020H
  000bd	3b ec		 cmp	 ebp, esp
  000bf	e8 00 00 00 00	 call	 __RTC_CheckEsp
  000c4	8b e5		 mov	 esp, ebp
  000c6	5d		 pop	 ebp
  000c7	c2 0c 00	 ret	 12			; 0000000cH
  000ca	66 90		 npad	 2
$LN12@PMCCS_Equa:
  000cc	01 00 00 00	 DD	 1
  000d0	00 00 00 00	 DD	 $LN11@PMCCS_Equa
$LN11@PMCCS_Equa:
  000d4	e8 ff ff ff	 DD	 -24			; ffffffe8H
  000d8	04 00 00 00	 DD	 4
  000dc	00 00 00 00	 DD	 $LN9@PMCCS_Equa
$LN9@PMCCS_Equa:
  000e0	65		 DB	 101			; 00000065H
  000e1	78		 DB	 120			; 00000078H
  000e2	00		 DB	 0
_TEXT	ENDS
text$x	SEGMENT
__ehhandler$_PMCCS_Equals_X_I@12:
  00000	8b 54 24 08	 mov	 edx, DWORD PTR [esp+8]
  00004	8d 42 0c	 lea	 eax, DWORD PTR [edx+12]
  00007	8b 4a dc	 mov	 ecx, DWORD PTR [edx-36]
  0000a	33 c8		 xor	 ecx, eax
  0000c	e8 00 00 00 00	 call	 @__security_check_cookie@4
  00011	b8 00 00 00 00	 mov	 eax, OFFSET __ehfuncinfo$_PMCCS_Equals_X_I@12
  00016	e9 00 00 00 00	 jmp	 ___CxxFrameHandler3
text$x	ENDS
_PMCCS_Equals_X_I@12 ENDP
; Function compile flags: /Odtp /RTCsu
; File z:\sources\lunor\repos\rougemeilland\palmtree.math.core.uint\palmtree.math.core.uint\pmc_interface_csharp.cpp
_TEXT	SEGMENT
$T2 = -32						; size = 4
_ex$3 = -24						; size = 4
__$EHRec$ = -16						; size = 16
_u$ = 8							; size = 8
_v$ = 16						; size = 4
_w$ = 20						; size = 4
_PMCCS_Equals_L_X@16 PROC

; 1067 :     {

  00000	55		 push	 ebp
  00001	8b ec		 mov	 ebp, esp
  00003	6a ff		 push	 -1
  00005	68 00 00 00 00	 push	 __ehhandler$_PMCCS_Equals_L_X@16
  0000a	64 a1 00 00 00
	00		 mov	 eax, DWORD PTR fs:0
  00010	50		 push	 eax
  00011	51		 push	 ecx
  00012	83 ec 10	 sub	 esp, 16			; 00000010H
  00015	53		 push	 ebx
  00016	56		 push	 esi
  00017	57		 push	 edi
  00018	b8 cc cc cc cc	 mov	 eax, -858993460		; ccccccccH
  0001d	89 45 e0	 mov	 DWORD PTR [ebp-32], eax
  00020	89 45 e4	 mov	 DWORD PTR [ebp-28], eax
  00023	89 45 e8	 mov	 DWORD PTR [ebp-24], eax
  00026	89 45 ec	 mov	 DWORD PTR [ebp-20], eax
  00029	a1 00 00 00 00	 mov	 eax, DWORD PTR ___security_cookie
  0002e	33 c5		 xor	 eax, ebp
  00030	50		 push	 eax
  00031	8d 45 f4	 lea	 eax, DWORD PTR __$EHRec$[ebp+4]
  00034	64 a3 00 00 00
	00		 mov	 DWORD PTR fs:0, eax
  0003a	89 65 f0	 mov	 DWORD PTR __$EHRec$[ebp], esp
  0003d	b9 00 00 00 00	 mov	 ecx, OFFSET __C21BA676_pmc_interface_csharp@cpp
  00042	e8 00 00 00 00	 call	 @__CheckForDebuggerJustMyCode@4

; 1068 :         if (w == nullptr)

  00047	83 7d 14 00	 cmp	 DWORD PTR _w$[ebp], 0
  0004b	75 07		 jne	 SHORT $LN2@PMCCS_Equa

; 1069 :             return (PMC_STATUS_ARGUMENT_NULL_ERROR);

  0004d	b8 fe ff ff ff	 mov	 eax, -2			; fffffffeH
  00052	eb 4b		 jmp	 SHORT $LN1@PMCCS_Equa
$LN2@PMCCS_Equa:

; 1070 :         try

  00054	c7 45 fc 00 00
	00 00		 mov	 DWORD PTR __$EHRec$[ebp+12], 0

; 1071 :         {
; 1072 :             *w = PMC_Equals_L_X(u, v);

  0005b	8b 45 10	 mov	 eax, DWORD PTR _v$[ebp]
  0005e	50		 push	 eax
  0005f	8b 4d 0c	 mov	 ecx, DWORD PTR _u$[ebp+4]
  00062	51		 push	 ecx
  00063	8b 55 08	 mov	 edx, DWORD PTR _u$[ebp]
  00066	52		 push	 edx
  00067	e8 00 00 00 00	 call	 ?PMC_Equals_L_X@Internal@Core@Math@Palmtree@@YGI_KPAU__tag_PMC_HANDLE_UINT@1234@@Z ; Palmtree::Math::Core::Internal::PMC_Equals_L_X
  0006c	8b 4d 14	 mov	 ecx, DWORD PTR _w$[ebp]
  0006f	89 01		 mov	 DWORD PTR [ecx], eax

; 1073 :             return (PMC_STATUS_OK);

  00071	33 c0		 xor	 eax, eax
  00073	eb 2a		 jmp	 SHORT $LN1@PMCCS_Equa
__catch$_PMCCS_Equals_L_X@16$0:

; 1074 :         }
; 1075 :         catch (const Palmtree::Math::Core::Internal::Exception& ex)
; 1076 :         {
; 1077 :             return (ex.GetStatusCode());

  00075	8b 4d e8	 mov	 ecx, DWORD PTR _ex$3[ebp]
  00078	e8 00 00 00 00	 call	 ?GetStatusCode@Exception@Internal@Core@Math@Palmtree@@QBEHXZ ; Palmtree::Math::Core::Internal::Exception::GetStatusCode
  0007d	89 45 e0	 mov	 DWORD PTR $T2[ebp], eax
  00080	b8 00 00 00 00	 mov	 eax, $LN8@PMCCS_Equa
  00085	c3		 ret	 0

; 1078 :         }

  00086	b8 00 00 00 00	 mov	 eax, __tryend$_PMCCS_Equals_L_X@16$1
  0008b	c3		 ret	 0
__tryend$_PMCCS_Equals_L_X@16$1:
  0008c	c7 45 fc ff ff
	ff ff		 mov	 DWORD PTR __$EHRec$[ebp+12], -1
  00093	eb 0a		 jmp	 SHORT $LN1@PMCCS_Equa
$LN8@PMCCS_Equa:
  00095	c7 45 fc ff ff
	ff ff		 mov	 DWORD PTR __$EHRec$[ebp+12], -1

; 1074 :         }
; 1075 :         catch (const Palmtree::Math::Core::Internal::Exception& ex)
; 1076 :         {
; 1077 :             return (ex.GetStatusCode());

  0009c	8b 45 e0	 mov	 eax, DWORD PTR $T2[ebp]
$LN1@PMCCS_Equa:

; 1079 :     }

  0009f	52		 push	 edx
  000a0	8b cd		 mov	 ecx, ebp
  000a2	50		 push	 eax
  000a3	8d 15 00 00 00
	00		 lea	 edx, DWORD PTR $LN12@PMCCS_Equa
  000a9	e8 00 00 00 00	 call	 @_RTC_CheckStackVars@8
  000ae	58		 pop	 eax
  000af	5a		 pop	 edx
  000b0	8b 4d f4	 mov	 ecx, DWORD PTR __$EHRec$[ebp+4]
  000b3	64 89 0d 00 00
	00 00		 mov	 DWORD PTR fs:0, ecx
  000ba	59		 pop	 ecx
  000bb	5f		 pop	 edi
  000bc	5e		 pop	 esi
  000bd	5b		 pop	 ebx
  000be	83 c4 20	 add	 esp, 32			; 00000020H
  000c1	3b ec		 cmp	 ebp, esp
  000c3	e8 00 00 00 00	 call	 __RTC_CheckEsp
  000c8	8b e5		 mov	 esp, ebp
  000ca	5d		 pop	 ebp
  000cb	c2 10 00	 ret	 16			; 00000010H
  000ce	66 90		 npad	 2
$LN12@PMCCS_Equa:
  000d0	01 00 00 00	 DD	 1
  000d4	00 00 00 00	 DD	 $LN11@PMCCS_Equa
$LN11@PMCCS_Equa:
  000d8	e8 ff ff ff	 DD	 -24			; ffffffe8H
  000dc	04 00 00 00	 DD	 4
  000e0	00 00 00 00	 DD	 $LN9@PMCCS_Equa
$LN9@PMCCS_Equa:
  000e4	65		 DB	 101			; 00000065H
  000e5	78		 DB	 120			; 00000078H
  000e6	00		 DB	 0
_TEXT	ENDS
text$x	SEGMENT
__ehhandler$_PMCCS_Equals_L_X@16:
  00000	8b 54 24 08	 mov	 edx, DWORD PTR [esp+8]
  00004	8d 42 0c	 lea	 eax, DWORD PTR [edx+12]
  00007	8b 4a dc	 mov	 ecx, DWORD PTR [edx-36]
  0000a	33 c8		 xor	 ecx, eax
  0000c	e8 00 00 00 00	 call	 @__security_check_cookie@4
  00011	b8 00 00 00 00	 mov	 eax, OFFSET __ehfuncinfo$_PMCCS_Equals_L_X@16
  00016	e9 00 00 00 00	 jmp	 ___CxxFrameHandler3
text$x	ENDS
_PMCCS_Equals_L_X@16 ENDP
; Function compile flags: /Odtp /RTCsu
; File z:\sources\lunor\repos\rougemeilland\palmtree.math.core.uint\palmtree.math.core.uint\pmc_interface_csharp.cpp
_TEXT	SEGMENT
$T2 = -32						; size = 4
_ex$3 = -24						; size = 4
__$EHRec$ = -16						; size = 16
_u$ = 8							; size = 4
_v$ = 12						; size = 4
_w$ = 16						; size = 4
_PMCCS_Equals_I_X@12 PROC

; 1052 :     {

  00000	55		 push	 ebp
  00001	8b ec		 mov	 ebp, esp
  00003	6a ff		 push	 -1
  00005	68 00 00 00 00	 push	 __ehhandler$_PMCCS_Equals_I_X@12
  0000a	64 a1 00 00 00
	00		 mov	 eax, DWORD PTR fs:0
  00010	50		 push	 eax
  00011	51		 push	 ecx
  00012	83 ec 10	 sub	 esp, 16			; 00000010H
  00015	53		 push	 ebx
  00016	56		 push	 esi
  00017	57		 push	 edi
  00018	b8 cc cc cc cc	 mov	 eax, -858993460		; ccccccccH
  0001d	89 45 e0	 mov	 DWORD PTR [ebp-32], eax
  00020	89 45 e4	 mov	 DWORD PTR [ebp-28], eax
  00023	89 45 e8	 mov	 DWORD PTR [ebp-24], eax
  00026	89 45 ec	 mov	 DWORD PTR [ebp-20], eax
  00029	a1 00 00 00 00	 mov	 eax, DWORD PTR ___security_cookie
  0002e	33 c5		 xor	 eax, ebp
  00030	50		 push	 eax
  00031	8d 45 f4	 lea	 eax, DWORD PTR __$EHRec$[ebp+4]
  00034	64 a3 00 00 00
	00		 mov	 DWORD PTR fs:0, eax
  0003a	89 65 f0	 mov	 DWORD PTR __$EHRec$[ebp], esp
  0003d	b9 00 00 00 00	 mov	 ecx, OFFSET __C21BA676_pmc_interface_csharp@cpp
  00042	e8 00 00 00 00	 call	 @__CheckForDebuggerJustMyCode@4

; 1053 :         if (w == nullptr)

  00047	83 7d 10 00	 cmp	 DWORD PTR _w$[ebp], 0
  0004b	75 07		 jne	 SHORT $LN2@PMCCS_Equa

; 1054 :             return (PMC_STATUS_ARGUMENT_NULL_ERROR);

  0004d	b8 fe ff ff ff	 mov	 eax, -2			; fffffffeH
  00052	eb 47		 jmp	 SHORT $LN1@PMCCS_Equa
$LN2@PMCCS_Equa:

; 1055 :         try

  00054	c7 45 fc 00 00
	00 00		 mov	 DWORD PTR __$EHRec$[ebp+12], 0

; 1056 :         {
; 1057 :             *w = PMC_Equals_I_X(u, v);

  0005b	8b 45 0c	 mov	 eax, DWORD PTR _v$[ebp]
  0005e	50		 push	 eax
  0005f	8b 4d 08	 mov	 ecx, DWORD PTR _u$[ebp]
  00062	51		 push	 ecx
  00063	e8 00 00 00 00	 call	 ?PMC_Equals_I_X@Internal@Core@Math@Palmtree@@YGIIPAU__tag_PMC_HANDLE_UINT@1234@@Z ; Palmtree::Math::Core::Internal::PMC_Equals_I_X
  00068	8b 55 10	 mov	 edx, DWORD PTR _w$[ebp]
  0006b	89 02		 mov	 DWORD PTR [edx], eax

; 1058 :             return (PMC_STATUS_OK);

  0006d	33 c0		 xor	 eax, eax
  0006f	eb 2a		 jmp	 SHORT $LN1@PMCCS_Equa
__catch$_PMCCS_Equals_I_X@12$0:

; 1059 :         }
; 1060 :         catch (const Palmtree::Math::Core::Internal::Exception& ex)
; 1061 :         {
; 1062 :             return (ex.GetStatusCode());

  00071	8b 4d e8	 mov	 ecx, DWORD PTR _ex$3[ebp]
  00074	e8 00 00 00 00	 call	 ?GetStatusCode@Exception@Internal@Core@Math@Palmtree@@QBEHXZ ; Palmtree::Math::Core::Internal::Exception::GetStatusCode
  00079	89 45 e0	 mov	 DWORD PTR $T2[ebp], eax
  0007c	b8 00 00 00 00	 mov	 eax, $LN8@PMCCS_Equa
  00081	c3		 ret	 0

; 1063 :         }

  00082	b8 00 00 00 00	 mov	 eax, __tryend$_PMCCS_Equals_I_X@12$1
  00087	c3		 ret	 0
__tryend$_PMCCS_Equals_I_X@12$1:
  00088	c7 45 fc ff ff
	ff ff		 mov	 DWORD PTR __$EHRec$[ebp+12], -1
  0008f	eb 0a		 jmp	 SHORT $LN1@PMCCS_Equa
$LN8@PMCCS_Equa:
  00091	c7 45 fc ff ff
	ff ff		 mov	 DWORD PTR __$EHRec$[ebp+12], -1

; 1059 :         }
; 1060 :         catch (const Palmtree::Math::Core::Internal::Exception& ex)
; 1061 :         {
; 1062 :             return (ex.GetStatusCode());

  00098	8b 45 e0	 mov	 eax, DWORD PTR $T2[ebp]
$LN1@PMCCS_Equa:

; 1064 :     }

  0009b	52		 push	 edx
  0009c	8b cd		 mov	 ecx, ebp
  0009e	50		 push	 eax
  0009f	8d 15 00 00 00
	00		 lea	 edx, DWORD PTR $LN12@PMCCS_Equa
  000a5	e8 00 00 00 00	 call	 @_RTC_CheckStackVars@8
  000aa	58		 pop	 eax
  000ab	5a		 pop	 edx
  000ac	8b 4d f4	 mov	 ecx, DWORD PTR __$EHRec$[ebp+4]
  000af	64 89 0d 00 00
	00 00		 mov	 DWORD PTR fs:0, ecx
  000b6	59		 pop	 ecx
  000b7	5f		 pop	 edi
  000b8	5e		 pop	 esi
  000b9	5b		 pop	 ebx
  000ba	83 c4 20	 add	 esp, 32			; 00000020H
  000bd	3b ec		 cmp	 ebp, esp
  000bf	e8 00 00 00 00	 call	 __RTC_CheckEsp
  000c4	8b e5		 mov	 esp, ebp
  000c6	5d		 pop	 ebp
  000c7	c2 0c 00	 ret	 12			; 0000000cH
  000ca	66 90		 npad	 2
$LN12@PMCCS_Equa:
  000cc	01 00 00 00	 DD	 1
  000d0	00 00 00 00	 DD	 $LN11@PMCCS_Equa
$LN11@PMCCS_Equa:
  000d4	e8 ff ff ff	 DD	 -24			; ffffffe8H
  000d8	04 00 00 00	 DD	 4
  000dc	00 00 00 00	 DD	 $LN9@PMCCS_Equa
$LN9@PMCCS_Equa:
  000e0	65		 DB	 101			; 00000065H
  000e1	78		 DB	 120			; 00000078H
  000e2	00		 DB	 0
_TEXT	ENDS
text$x	SEGMENT
__ehhandler$_PMCCS_Equals_I_X@12:
  00000	8b 54 24 08	 mov	 edx, DWORD PTR [esp+8]
  00004	8d 42 0c	 lea	 eax, DWORD PTR [edx+12]
  00007	8b 4a dc	 mov	 ecx, DWORD PTR [edx-36]
  0000a	33 c8		 xor	 ecx, eax
  0000c	e8 00 00 00 00	 call	 @__security_check_cookie@4
  00011	b8 00 00 00 00	 mov	 eax, OFFSET __ehfuncinfo$_PMCCS_Equals_I_X@12
  00016	e9 00 00 00 00	 jmp	 ___CxxFrameHandler3
text$x	ENDS
_PMCCS_Equals_I_X@12 ENDP
; Function compile flags: /Odtp /RTCsu
; File z:\sources\lunor\repos\rougemeilland\palmtree.math.core.uint\palmtree.math.core.uint\pmc_interface_csharp.cpp
_TEXT	SEGMENT
$T2 = -32						; size = 4
_ex$3 = -24						; size = 4
__$EHRec$ = -16						; size = 16
_u$ = 8							; size = 4
_v$ = 12						; size = 4
_w$ = 16						; size = 4
_PMCCS_Compare_X_X@12 PROC

; 1037 :     {

  00000	55		 push	 ebp
  00001	8b ec		 mov	 ebp, esp
  00003	6a ff		 push	 -1
  00005	68 00 00 00 00	 push	 __ehhandler$_PMCCS_Compare_X_X@12
  0000a	64 a1 00 00 00
	00		 mov	 eax, DWORD PTR fs:0
  00010	50		 push	 eax
  00011	51		 push	 ecx
  00012	83 ec 10	 sub	 esp, 16			; 00000010H
  00015	53		 push	 ebx
  00016	56		 push	 esi
  00017	57		 push	 edi
  00018	b8 cc cc cc cc	 mov	 eax, -858993460		; ccccccccH
  0001d	89 45 e0	 mov	 DWORD PTR [ebp-32], eax
  00020	89 45 e4	 mov	 DWORD PTR [ebp-28], eax
  00023	89 45 e8	 mov	 DWORD PTR [ebp-24], eax
  00026	89 45 ec	 mov	 DWORD PTR [ebp-20], eax
  00029	a1 00 00 00 00	 mov	 eax, DWORD PTR ___security_cookie
  0002e	33 c5		 xor	 eax, ebp
  00030	50		 push	 eax
  00031	8d 45 f4	 lea	 eax, DWORD PTR __$EHRec$[ebp+4]
  00034	64 a3 00 00 00
	00		 mov	 DWORD PTR fs:0, eax
  0003a	89 65 f0	 mov	 DWORD PTR __$EHRec$[ebp], esp
  0003d	b9 00 00 00 00	 mov	 ecx, OFFSET __C21BA676_pmc_interface_csharp@cpp
  00042	e8 00 00 00 00	 call	 @__CheckForDebuggerJustMyCode@4

; 1038 :         if (w == nullptr)

  00047	83 7d 10 00	 cmp	 DWORD PTR _w$[ebp], 0
  0004b	75 07		 jne	 SHORT $LN2@PMCCS_Comp

; 1039 :             return (PMC_STATUS_ARGUMENT_NULL_ERROR);

  0004d	b8 fe ff ff ff	 mov	 eax, -2			; fffffffeH
  00052	eb 47		 jmp	 SHORT $LN1@PMCCS_Comp
$LN2@PMCCS_Comp:

; 1040 :         try

  00054	c7 45 fc 00 00
	00 00		 mov	 DWORD PTR __$EHRec$[ebp+12], 0

; 1041 :         {
; 1042 :             *w = PMC_Compare_X_X(u, v);

  0005b	8b 45 0c	 mov	 eax, DWORD PTR _v$[ebp]
  0005e	50		 push	 eax
  0005f	8b 4d 08	 mov	 ecx, DWORD PTR _u$[ebp]
  00062	51		 push	 ecx
  00063	e8 00 00 00 00	 call	 ?PMC_Compare_X_X@Internal@Core@Math@Palmtree@@YGHPAU__tag_PMC_HANDLE_UINT@1234@0@Z ; Palmtree::Math::Core::Internal::PMC_Compare_X_X
  00068	8b 55 10	 mov	 edx, DWORD PTR _w$[ebp]
  0006b	89 02		 mov	 DWORD PTR [edx], eax

; 1043 :             return (PMC_STATUS_OK);

  0006d	33 c0		 xor	 eax, eax
  0006f	eb 2a		 jmp	 SHORT $LN1@PMCCS_Comp
__catch$_PMCCS_Compare_X_X@12$0:

; 1044 :         }
; 1045 :         catch (const Palmtree::Math::Core::Internal::Exception& ex)
; 1046 :         {
; 1047 :             return (ex.GetStatusCode());

  00071	8b 4d e8	 mov	 ecx, DWORD PTR _ex$3[ebp]
  00074	e8 00 00 00 00	 call	 ?GetStatusCode@Exception@Internal@Core@Math@Palmtree@@QBEHXZ ; Palmtree::Math::Core::Internal::Exception::GetStatusCode
  00079	89 45 e0	 mov	 DWORD PTR $T2[ebp], eax
  0007c	b8 00 00 00 00	 mov	 eax, $LN8@PMCCS_Comp
  00081	c3		 ret	 0

; 1048 :         }

  00082	b8 00 00 00 00	 mov	 eax, __tryend$_PMCCS_Compare_X_X@12$1
  00087	c3		 ret	 0
__tryend$_PMCCS_Compare_X_X@12$1:
  00088	c7 45 fc ff ff
	ff ff		 mov	 DWORD PTR __$EHRec$[ebp+12], -1
  0008f	eb 0a		 jmp	 SHORT $LN1@PMCCS_Comp
$LN8@PMCCS_Comp:
  00091	c7 45 fc ff ff
	ff ff		 mov	 DWORD PTR __$EHRec$[ebp+12], -1

; 1044 :         }
; 1045 :         catch (const Palmtree::Math::Core::Internal::Exception& ex)
; 1046 :         {
; 1047 :             return (ex.GetStatusCode());

  00098	8b 45 e0	 mov	 eax, DWORD PTR $T2[ebp]
$LN1@PMCCS_Comp:

; 1049 :     }

  0009b	52		 push	 edx
  0009c	8b cd		 mov	 ecx, ebp
  0009e	50		 push	 eax
  0009f	8d 15 00 00 00
	00		 lea	 edx, DWORD PTR $LN12@PMCCS_Comp
  000a5	e8 00 00 00 00	 call	 @_RTC_CheckStackVars@8
  000aa	58		 pop	 eax
  000ab	5a		 pop	 edx
  000ac	8b 4d f4	 mov	 ecx, DWORD PTR __$EHRec$[ebp+4]
  000af	64 89 0d 00 00
	00 00		 mov	 DWORD PTR fs:0, ecx
  000b6	59		 pop	 ecx
  000b7	5f		 pop	 edi
  000b8	5e		 pop	 esi
  000b9	5b		 pop	 ebx
  000ba	83 c4 20	 add	 esp, 32			; 00000020H
  000bd	3b ec		 cmp	 ebp, esp
  000bf	e8 00 00 00 00	 call	 __RTC_CheckEsp
  000c4	8b e5		 mov	 esp, ebp
  000c6	5d		 pop	 ebp
  000c7	c2 0c 00	 ret	 12			; 0000000cH
  000ca	66 90		 npad	 2
$LN12@PMCCS_Comp:
  000cc	01 00 00 00	 DD	 1
  000d0	00 00 00 00	 DD	 $LN11@PMCCS_Comp
$LN11@PMCCS_Comp:
  000d4	e8 ff ff ff	 DD	 -24			; ffffffe8H
  000d8	04 00 00 00	 DD	 4
  000dc	00 00 00 00	 DD	 $LN9@PMCCS_Comp
$LN9@PMCCS_Comp:
  000e0	65		 DB	 101			; 00000065H
  000e1	78		 DB	 120			; 00000078H
  000e2	00		 DB	 0
_TEXT	ENDS
text$x	SEGMENT
__ehhandler$_PMCCS_Compare_X_X@12:
  00000	8b 54 24 08	 mov	 edx, DWORD PTR [esp+8]
  00004	8d 42 0c	 lea	 eax, DWORD PTR [edx+12]
  00007	8b 4a dc	 mov	 ecx, DWORD PTR [edx-36]
  0000a	33 c8		 xor	 ecx, eax
  0000c	e8 00 00 00 00	 call	 @__security_check_cookie@4
  00011	b8 00 00 00 00	 mov	 eax, OFFSET __ehfuncinfo$_PMCCS_Compare_X_X@12
  00016	e9 00 00 00 00	 jmp	 ___CxxFrameHandler3
text$x	ENDS
_PMCCS_Compare_X_X@12 ENDP
; Function compile flags: /Odtp /RTCsu
; File z:\sources\lunor\repos\rougemeilland\palmtree.math.core.uint\palmtree.math.core.uint\pmc_interface_csharp.cpp
_TEXT	SEGMENT
$T2 = -32						; size = 4
_ex$3 = -24						; size = 4
__$EHRec$ = -16						; size = 16
_u$ = 8							; size = 4
_v$ = 12						; size = 8
_w$ = 20						; size = 4
_PMCCS_Compare_X_L@16 PROC

; 1022 :     {

  00000	55		 push	 ebp
  00001	8b ec		 mov	 ebp, esp
  00003	6a ff		 push	 -1
  00005	68 00 00 00 00	 push	 __ehhandler$_PMCCS_Compare_X_L@16
  0000a	64 a1 00 00 00
	00		 mov	 eax, DWORD PTR fs:0
  00010	50		 push	 eax
  00011	51		 push	 ecx
  00012	83 ec 10	 sub	 esp, 16			; 00000010H
  00015	53		 push	 ebx
  00016	56		 push	 esi
  00017	57		 push	 edi
  00018	b8 cc cc cc cc	 mov	 eax, -858993460		; ccccccccH
  0001d	89 45 e0	 mov	 DWORD PTR [ebp-32], eax
  00020	89 45 e4	 mov	 DWORD PTR [ebp-28], eax
  00023	89 45 e8	 mov	 DWORD PTR [ebp-24], eax
  00026	89 45 ec	 mov	 DWORD PTR [ebp-20], eax
  00029	a1 00 00 00 00	 mov	 eax, DWORD PTR ___security_cookie
  0002e	33 c5		 xor	 eax, ebp
  00030	50		 push	 eax
  00031	8d 45 f4	 lea	 eax, DWORD PTR __$EHRec$[ebp+4]
  00034	64 a3 00 00 00
	00		 mov	 DWORD PTR fs:0, eax
  0003a	89 65 f0	 mov	 DWORD PTR __$EHRec$[ebp], esp
  0003d	b9 00 00 00 00	 mov	 ecx, OFFSET __C21BA676_pmc_interface_csharp@cpp
  00042	e8 00 00 00 00	 call	 @__CheckForDebuggerJustMyCode@4

; 1023 :         if (w == nullptr)

  00047	83 7d 14 00	 cmp	 DWORD PTR _w$[ebp], 0
  0004b	75 07		 jne	 SHORT $LN2@PMCCS_Comp

; 1024 :             return (PMC_STATUS_ARGUMENT_NULL_ERROR);

  0004d	b8 fe ff ff ff	 mov	 eax, -2			; fffffffeH
  00052	eb 4b		 jmp	 SHORT $LN1@PMCCS_Comp
$LN2@PMCCS_Comp:

; 1025 :         try

  00054	c7 45 fc 00 00
	00 00		 mov	 DWORD PTR __$EHRec$[ebp+12], 0

; 1026 :         {
; 1027 :             *w = PMC_Compare_X_L(u, v);

  0005b	8b 45 10	 mov	 eax, DWORD PTR _v$[ebp+4]
  0005e	50		 push	 eax
  0005f	8b 4d 0c	 mov	 ecx, DWORD PTR _v$[ebp]
  00062	51		 push	 ecx
  00063	8b 55 08	 mov	 edx, DWORD PTR _u$[ebp]
  00066	52		 push	 edx
  00067	e8 00 00 00 00	 call	 ?PMC_Compare_X_L@Internal@Core@Math@Palmtree@@YGHPAU__tag_PMC_HANDLE_UINT@1234@_K@Z ; Palmtree::Math::Core::Internal::PMC_Compare_X_L
  0006c	8b 4d 14	 mov	 ecx, DWORD PTR _w$[ebp]
  0006f	89 01		 mov	 DWORD PTR [ecx], eax

; 1028 :             return (PMC_STATUS_OK);

  00071	33 c0		 xor	 eax, eax
  00073	eb 2a		 jmp	 SHORT $LN1@PMCCS_Comp
__catch$_PMCCS_Compare_X_L@16$0:

; 1029 :         }
; 1030 :         catch (const Palmtree::Math::Core::Internal::Exception& ex)
; 1031 :         {
; 1032 :             return (ex.GetStatusCode());

  00075	8b 4d e8	 mov	 ecx, DWORD PTR _ex$3[ebp]
  00078	e8 00 00 00 00	 call	 ?GetStatusCode@Exception@Internal@Core@Math@Palmtree@@QBEHXZ ; Palmtree::Math::Core::Internal::Exception::GetStatusCode
  0007d	89 45 e0	 mov	 DWORD PTR $T2[ebp], eax
  00080	b8 00 00 00 00	 mov	 eax, $LN8@PMCCS_Comp
  00085	c3		 ret	 0

; 1033 :         }

  00086	b8 00 00 00 00	 mov	 eax, __tryend$_PMCCS_Compare_X_L@16$1
  0008b	c3		 ret	 0
__tryend$_PMCCS_Compare_X_L@16$1:
  0008c	c7 45 fc ff ff
	ff ff		 mov	 DWORD PTR __$EHRec$[ebp+12], -1
  00093	eb 0a		 jmp	 SHORT $LN1@PMCCS_Comp
$LN8@PMCCS_Comp:
  00095	c7 45 fc ff ff
	ff ff		 mov	 DWORD PTR __$EHRec$[ebp+12], -1

; 1029 :         }
; 1030 :         catch (const Palmtree::Math::Core::Internal::Exception& ex)
; 1031 :         {
; 1032 :             return (ex.GetStatusCode());

  0009c	8b 45 e0	 mov	 eax, DWORD PTR $T2[ebp]
$LN1@PMCCS_Comp:

; 1034 :     }

  0009f	52		 push	 edx
  000a0	8b cd		 mov	 ecx, ebp
  000a2	50		 push	 eax
  000a3	8d 15 00 00 00
	00		 lea	 edx, DWORD PTR $LN12@PMCCS_Comp
  000a9	e8 00 00 00 00	 call	 @_RTC_CheckStackVars@8
  000ae	58		 pop	 eax
  000af	5a		 pop	 edx
  000b0	8b 4d f4	 mov	 ecx, DWORD PTR __$EHRec$[ebp+4]
  000b3	64 89 0d 00 00
	00 00		 mov	 DWORD PTR fs:0, ecx
  000ba	59		 pop	 ecx
  000bb	5f		 pop	 edi
  000bc	5e		 pop	 esi
  000bd	5b		 pop	 ebx
  000be	83 c4 20	 add	 esp, 32			; 00000020H
  000c1	3b ec		 cmp	 ebp, esp
  000c3	e8 00 00 00 00	 call	 __RTC_CheckEsp
  000c8	8b e5		 mov	 esp, ebp
  000ca	5d		 pop	 ebp
  000cb	c2 10 00	 ret	 16			; 00000010H
  000ce	66 90		 npad	 2
$LN12@PMCCS_Comp:
  000d0	01 00 00 00	 DD	 1
  000d4	00 00 00 00	 DD	 $LN11@PMCCS_Comp
$LN11@PMCCS_Comp:
  000d8	e8 ff ff ff	 DD	 -24			; ffffffe8H
  000dc	04 00 00 00	 DD	 4
  000e0	00 00 00 00	 DD	 $LN9@PMCCS_Comp
$LN9@PMCCS_Comp:
  000e4	65		 DB	 101			; 00000065H
  000e5	78		 DB	 120			; 00000078H
  000e6	00		 DB	 0
_TEXT	ENDS
text$x	SEGMENT
__ehhandler$_PMCCS_Compare_X_L@16:
  00000	8b 54 24 08	 mov	 edx, DWORD PTR [esp+8]
  00004	8d 42 0c	 lea	 eax, DWORD PTR [edx+12]
  00007	8b 4a dc	 mov	 ecx, DWORD PTR [edx-36]
  0000a	33 c8		 xor	 ecx, eax
  0000c	e8 00 00 00 00	 call	 @__security_check_cookie@4
  00011	b8 00 00 00 00	 mov	 eax, OFFSET __ehfuncinfo$_PMCCS_Compare_X_L@16
  00016	e9 00 00 00 00	 jmp	 ___CxxFrameHandler3
text$x	ENDS
_PMCCS_Compare_X_L@16 ENDP
; Function compile flags: /Odtp /RTCsu
; File z:\sources\lunor\repos\rougemeilland\palmtree.math.core.uint\palmtree.math.core.uint\pmc_interface_csharp.cpp
_TEXT	SEGMENT
$T2 = -32						; size = 4
_ex$3 = -24						; size = 4
__$EHRec$ = -16						; size = 16
_u$ = 8							; size = 4
_v$ = 12						; size = 4
_w$ = 16						; size = 4
_PMCCS_Compare_X_I@12 PROC

; 1007 :     {

  00000	55		 push	 ebp
  00001	8b ec		 mov	 ebp, esp
  00003	6a ff		 push	 -1
  00005	68 00 00 00 00	 push	 __ehhandler$_PMCCS_Compare_X_I@12
  0000a	64 a1 00 00 00
	00		 mov	 eax, DWORD PTR fs:0
  00010	50		 push	 eax
  00011	51		 push	 ecx
  00012	83 ec 10	 sub	 esp, 16			; 00000010H
  00015	53		 push	 ebx
  00016	56		 push	 esi
  00017	57		 push	 edi
  00018	b8 cc cc cc cc	 mov	 eax, -858993460		; ccccccccH
  0001d	89 45 e0	 mov	 DWORD PTR [ebp-32], eax
  00020	89 45 e4	 mov	 DWORD PTR [ebp-28], eax
  00023	89 45 e8	 mov	 DWORD PTR [ebp-24], eax
  00026	89 45 ec	 mov	 DWORD PTR [ebp-20], eax
  00029	a1 00 00 00 00	 mov	 eax, DWORD PTR ___security_cookie
  0002e	33 c5		 xor	 eax, ebp
  00030	50		 push	 eax
  00031	8d 45 f4	 lea	 eax, DWORD PTR __$EHRec$[ebp+4]
  00034	64 a3 00 00 00
	00		 mov	 DWORD PTR fs:0, eax
  0003a	89 65 f0	 mov	 DWORD PTR __$EHRec$[ebp], esp
  0003d	b9 00 00 00 00	 mov	 ecx, OFFSET __C21BA676_pmc_interface_csharp@cpp
  00042	e8 00 00 00 00	 call	 @__CheckForDebuggerJustMyCode@4

; 1008 :         if (w == nullptr)

  00047	83 7d 10 00	 cmp	 DWORD PTR _w$[ebp], 0
  0004b	75 07		 jne	 SHORT $LN2@PMCCS_Comp

; 1009 :             return (PMC_STATUS_ARGUMENT_NULL_ERROR);

  0004d	b8 fe ff ff ff	 mov	 eax, -2			; fffffffeH
  00052	eb 47		 jmp	 SHORT $LN1@PMCCS_Comp
$LN2@PMCCS_Comp:

; 1010 :         try

  00054	c7 45 fc 00 00
	00 00		 mov	 DWORD PTR __$EHRec$[ebp+12], 0

; 1011 :         {
; 1012 :             *w = PMC_Compare_X_I(u, v);

  0005b	8b 45 0c	 mov	 eax, DWORD PTR _v$[ebp]
  0005e	50		 push	 eax
  0005f	8b 4d 08	 mov	 ecx, DWORD PTR _u$[ebp]
  00062	51		 push	 ecx
  00063	e8 00 00 00 00	 call	 ?PMC_Compare_X_I@Internal@Core@Math@Palmtree@@YGHPAU__tag_PMC_HANDLE_UINT@1234@I@Z ; Palmtree::Math::Core::Internal::PMC_Compare_X_I
  00068	8b 55 10	 mov	 edx, DWORD PTR _w$[ebp]
  0006b	89 02		 mov	 DWORD PTR [edx], eax

; 1013 :             return (PMC_STATUS_OK);

  0006d	33 c0		 xor	 eax, eax
  0006f	eb 2a		 jmp	 SHORT $LN1@PMCCS_Comp
__catch$_PMCCS_Compare_X_I@12$0:

; 1014 :         }
; 1015 :         catch (const Palmtree::Math::Core::Internal::Exception& ex)
; 1016 :         {
; 1017 :             return (ex.GetStatusCode());

  00071	8b 4d e8	 mov	 ecx, DWORD PTR _ex$3[ebp]
  00074	e8 00 00 00 00	 call	 ?GetStatusCode@Exception@Internal@Core@Math@Palmtree@@QBEHXZ ; Palmtree::Math::Core::Internal::Exception::GetStatusCode
  00079	89 45 e0	 mov	 DWORD PTR $T2[ebp], eax
  0007c	b8 00 00 00 00	 mov	 eax, $LN8@PMCCS_Comp
  00081	c3		 ret	 0

; 1018 :         }

  00082	b8 00 00 00 00	 mov	 eax, __tryend$_PMCCS_Compare_X_I@12$1
  00087	c3		 ret	 0
__tryend$_PMCCS_Compare_X_I@12$1:
  00088	c7 45 fc ff ff
	ff ff		 mov	 DWORD PTR __$EHRec$[ebp+12], -1
  0008f	eb 0a		 jmp	 SHORT $LN1@PMCCS_Comp
$LN8@PMCCS_Comp:
  00091	c7 45 fc ff ff
	ff ff		 mov	 DWORD PTR __$EHRec$[ebp+12], -1

; 1014 :         }
; 1015 :         catch (const Palmtree::Math::Core::Internal::Exception& ex)
; 1016 :         {
; 1017 :             return (ex.GetStatusCode());

  00098	8b 45 e0	 mov	 eax, DWORD PTR $T2[ebp]
$LN1@PMCCS_Comp:

; 1019 :     }

  0009b	52		 push	 edx
  0009c	8b cd		 mov	 ecx, ebp
  0009e	50		 push	 eax
  0009f	8d 15 00 00 00
	00		 lea	 edx, DWORD PTR $LN12@PMCCS_Comp
  000a5	e8 00 00 00 00	 call	 @_RTC_CheckStackVars@8
  000aa	58		 pop	 eax
  000ab	5a		 pop	 edx
  000ac	8b 4d f4	 mov	 ecx, DWORD PTR __$EHRec$[ebp+4]
  000af	64 89 0d 00 00
	00 00		 mov	 DWORD PTR fs:0, ecx
  000b6	59		 pop	 ecx
  000b7	5f		 pop	 edi
  000b8	5e		 pop	 esi
  000b9	5b		 pop	 ebx
  000ba	83 c4 20	 add	 esp, 32			; 00000020H
  000bd	3b ec		 cmp	 ebp, esp
  000bf	e8 00 00 00 00	 call	 __RTC_CheckEsp
  000c4	8b e5		 mov	 esp, ebp
  000c6	5d		 pop	 ebp
  000c7	c2 0c 00	 ret	 12			; 0000000cH
  000ca	66 90		 npad	 2
$LN12@PMCCS_Comp:
  000cc	01 00 00 00	 DD	 1
  000d0	00 00 00 00	 DD	 $LN11@PMCCS_Comp
$LN11@PMCCS_Comp:
  000d4	e8 ff ff ff	 DD	 -24			; ffffffe8H
  000d8	04 00 00 00	 DD	 4
  000dc	00 00 00 00	 DD	 $LN9@PMCCS_Comp
$LN9@PMCCS_Comp:
  000e0	65		 DB	 101			; 00000065H
  000e1	78		 DB	 120			; 00000078H
  000e2	00		 DB	 0
_TEXT	ENDS
text$x	SEGMENT
__ehhandler$_PMCCS_Compare_X_I@12:
  00000	8b 54 24 08	 mov	 edx, DWORD PTR [esp+8]
  00004	8d 42 0c	 lea	 eax, DWORD PTR [edx+12]
  00007	8b 4a dc	 mov	 ecx, DWORD PTR [edx-36]
  0000a	33 c8		 xor	 ecx, eax
  0000c	e8 00 00 00 00	 call	 @__security_check_cookie@4
  00011	b8 00 00 00 00	 mov	 eax, OFFSET __ehfuncinfo$_PMCCS_Compare_X_I@12
  00016	e9 00 00 00 00	 jmp	 ___CxxFrameHandler3
text$x	ENDS
_PMCCS_Compare_X_I@12 ENDP
; Function compile flags: /Odtp /RTCsu
; File z:\sources\lunor\repos\rougemeilland\palmtree.math.core.uint\palmtree.math.core.uint\pmc_interface_csharp.cpp
_TEXT	SEGMENT
$T2 = -32						; size = 4
_ex$3 = -24						; size = 4
__$EHRec$ = -16						; size = 16
_u$ = 8							; size = 8
_v$ = 16						; size = 4
_w$ = 20						; size = 4
_PMCCS_Compare_L_X@16 PROC

; 992  :     {

  00000	55		 push	 ebp
  00001	8b ec		 mov	 ebp, esp
  00003	6a ff		 push	 -1
  00005	68 00 00 00 00	 push	 __ehhandler$_PMCCS_Compare_L_X@16
  0000a	64 a1 00 00 00
	00		 mov	 eax, DWORD PTR fs:0
  00010	50		 push	 eax
  00011	51		 push	 ecx
  00012	83 ec 10	 sub	 esp, 16			; 00000010H
  00015	53		 push	 ebx
  00016	56		 push	 esi
  00017	57		 push	 edi
  00018	b8 cc cc cc cc	 mov	 eax, -858993460		; ccccccccH
  0001d	89 45 e0	 mov	 DWORD PTR [ebp-32], eax
  00020	89 45 e4	 mov	 DWORD PTR [ebp-28], eax
  00023	89 45 e8	 mov	 DWORD PTR [ebp-24], eax
  00026	89 45 ec	 mov	 DWORD PTR [ebp-20], eax
  00029	a1 00 00 00 00	 mov	 eax, DWORD PTR ___security_cookie
  0002e	33 c5		 xor	 eax, ebp
  00030	50		 push	 eax
  00031	8d 45 f4	 lea	 eax, DWORD PTR __$EHRec$[ebp+4]
  00034	64 a3 00 00 00
	00		 mov	 DWORD PTR fs:0, eax
  0003a	89 65 f0	 mov	 DWORD PTR __$EHRec$[ebp], esp
  0003d	b9 00 00 00 00	 mov	 ecx, OFFSET __C21BA676_pmc_interface_csharp@cpp
  00042	e8 00 00 00 00	 call	 @__CheckForDebuggerJustMyCode@4

; 993  :         if (w == nullptr)

  00047	83 7d 14 00	 cmp	 DWORD PTR _w$[ebp], 0
  0004b	75 07		 jne	 SHORT $LN2@PMCCS_Comp

; 994  :             return (PMC_STATUS_ARGUMENT_NULL_ERROR);

  0004d	b8 fe ff ff ff	 mov	 eax, -2			; fffffffeH
  00052	eb 4b		 jmp	 SHORT $LN1@PMCCS_Comp
$LN2@PMCCS_Comp:

; 995  :         try

  00054	c7 45 fc 00 00
	00 00		 mov	 DWORD PTR __$EHRec$[ebp+12], 0

; 996  :         {
; 997  :             *w = PMC_Compare_L_X(u, v);

  0005b	8b 45 10	 mov	 eax, DWORD PTR _v$[ebp]
  0005e	50		 push	 eax
  0005f	8b 4d 0c	 mov	 ecx, DWORD PTR _u$[ebp+4]
  00062	51		 push	 ecx
  00063	8b 55 08	 mov	 edx, DWORD PTR _u$[ebp]
  00066	52		 push	 edx
  00067	e8 00 00 00 00	 call	 ?PMC_Compare_L_X@Internal@Core@Math@Palmtree@@YGH_KPAU__tag_PMC_HANDLE_UINT@1234@@Z ; Palmtree::Math::Core::Internal::PMC_Compare_L_X
  0006c	8b 4d 14	 mov	 ecx, DWORD PTR _w$[ebp]
  0006f	89 01		 mov	 DWORD PTR [ecx], eax

; 998  :             return (PMC_STATUS_OK);

  00071	33 c0		 xor	 eax, eax
  00073	eb 2a		 jmp	 SHORT $LN1@PMCCS_Comp
__catch$_PMCCS_Compare_L_X@16$0:

; 999  :         }
; 1000 :         catch (const Palmtree::Math::Core::Internal::Exception& ex)
; 1001 :         {
; 1002 :             return (ex.GetStatusCode());

  00075	8b 4d e8	 mov	 ecx, DWORD PTR _ex$3[ebp]
  00078	e8 00 00 00 00	 call	 ?GetStatusCode@Exception@Internal@Core@Math@Palmtree@@QBEHXZ ; Palmtree::Math::Core::Internal::Exception::GetStatusCode
  0007d	89 45 e0	 mov	 DWORD PTR $T2[ebp], eax
  00080	b8 00 00 00 00	 mov	 eax, $LN8@PMCCS_Comp
  00085	c3		 ret	 0

; 1003 :         }

  00086	b8 00 00 00 00	 mov	 eax, __tryend$_PMCCS_Compare_L_X@16$1
  0008b	c3		 ret	 0
__tryend$_PMCCS_Compare_L_X@16$1:
  0008c	c7 45 fc ff ff
	ff ff		 mov	 DWORD PTR __$EHRec$[ebp+12], -1
  00093	eb 0a		 jmp	 SHORT $LN1@PMCCS_Comp
$LN8@PMCCS_Comp:
  00095	c7 45 fc ff ff
	ff ff		 mov	 DWORD PTR __$EHRec$[ebp+12], -1

; 999  :         }
; 1000 :         catch (const Palmtree::Math::Core::Internal::Exception& ex)
; 1001 :         {
; 1002 :             return (ex.GetStatusCode());

  0009c	8b 45 e0	 mov	 eax, DWORD PTR $T2[ebp]
$LN1@PMCCS_Comp:

; 1004 :     }

  0009f	52		 push	 edx
  000a0	8b cd		 mov	 ecx, ebp
  000a2	50		 push	 eax
  000a3	8d 15 00 00 00
	00		 lea	 edx, DWORD PTR $LN12@PMCCS_Comp
  000a9	e8 00 00 00 00	 call	 @_RTC_CheckStackVars@8
  000ae	58		 pop	 eax
  000af	5a		 pop	 edx
  000b0	8b 4d f4	 mov	 ecx, DWORD PTR __$EHRec$[ebp+4]
  000b3	64 89 0d 00 00
	00 00		 mov	 DWORD PTR fs:0, ecx
  000ba	59		 pop	 ecx
  000bb	5f		 pop	 edi
  000bc	5e		 pop	 esi
  000bd	5b		 pop	 ebx
  000be	83 c4 20	 add	 esp, 32			; 00000020H
  000c1	3b ec		 cmp	 ebp, esp
  000c3	e8 00 00 00 00	 call	 __RTC_CheckEsp
  000c8	8b e5		 mov	 esp, ebp
  000ca	5d		 pop	 ebp
  000cb	c2 10 00	 ret	 16			; 00000010H
  000ce	66 90		 npad	 2
$LN12@PMCCS_Comp:
  000d0	01 00 00 00	 DD	 1
  000d4	00 00 00 00	 DD	 $LN11@PMCCS_Comp
$LN11@PMCCS_Comp:
  000d8	e8 ff ff ff	 DD	 -24			; ffffffe8H
  000dc	04 00 00 00	 DD	 4
  000e0	00 00 00 00	 DD	 $LN9@PMCCS_Comp
$LN9@PMCCS_Comp:
  000e4	65		 DB	 101			; 00000065H
  000e5	78		 DB	 120			; 00000078H
  000e6	00		 DB	 0
_TEXT	ENDS
text$x	SEGMENT
__ehhandler$_PMCCS_Compare_L_X@16:
  00000	8b 54 24 08	 mov	 edx, DWORD PTR [esp+8]
  00004	8d 42 0c	 lea	 eax, DWORD PTR [edx+12]
  00007	8b 4a dc	 mov	 ecx, DWORD PTR [edx-36]
  0000a	33 c8		 xor	 ecx, eax
  0000c	e8 00 00 00 00	 call	 @__security_check_cookie@4
  00011	b8 00 00 00 00	 mov	 eax, OFFSET __ehfuncinfo$_PMCCS_Compare_L_X@16
  00016	e9 00 00 00 00	 jmp	 ___CxxFrameHandler3
text$x	ENDS
_PMCCS_Compare_L_X@16 ENDP
; Function compile flags: /Odtp /RTCsu
; File z:\sources\lunor\repos\rougemeilland\palmtree.math.core.uint\palmtree.math.core.uint\pmc_interface_csharp.cpp
_TEXT	SEGMENT
$T2 = -32						; size = 4
_ex$3 = -24						; size = 4
__$EHRec$ = -16						; size = 16
_u$ = 8							; size = 4
_v$ = 12						; size = 4
_w$ = 16						; size = 4
_PMCCS_Compare_I_X@12 PROC

; 977  :     {

  00000	55		 push	 ebp
  00001	8b ec		 mov	 ebp, esp
  00003	6a ff		 push	 -1
  00005	68 00 00 00 00	 push	 __ehhandler$_PMCCS_Compare_I_X@12
  0000a	64 a1 00 00 00
	00		 mov	 eax, DWORD PTR fs:0
  00010	50		 push	 eax
  00011	51		 push	 ecx
  00012	83 ec 10	 sub	 esp, 16			; 00000010H
  00015	53		 push	 ebx
  00016	56		 push	 esi
  00017	57		 push	 edi
  00018	b8 cc cc cc cc	 mov	 eax, -858993460		; ccccccccH
  0001d	89 45 e0	 mov	 DWORD PTR [ebp-32], eax
  00020	89 45 e4	 mov	 DWORD PTR [ebp-28], eax
  00023	89 45 e8	 mov	 DWORD PTR [ebp-24], eax
  00026	89 45 ec	 mov	 DWORD PTR [ebp-20], eax
  00029	a1 00 00 00 00	 mov	 eax, DWORD PTR ___security_cookie
  0002e	33 c5		 xor	 eax, ebp
  00030	50		 push	 eax
  00031	8d 45 f4	 lea	 eax, DWORD PTR __$EHRec$[ebp+4]
  00034	64 a3 00 00 00
	00		 mov	 DWORD PTR fs:0, eax
  0003a	89 65 f0	 mov	 DWORD PTR __$EHRec$[ebp], esp
  0003d	b9 00 00 00 00	 mov	 ecx, OFFSET __C21BA676_pmc_interface_csharp@cpp
  00042	e8 00 00 00 00	 call	 @__CheckForDebuggerJustMyCode@4

; 978  :         if (w == nullptr)

  00047	83 7d 10 00	 cmp	 DWORD PTR _w$[ebp], 0
  0004b	75 07		 jne	 SHORT $LN2@PMCCS_Comp

; 979  :             return (PMC_STATUS_ARGUMENT_NULL_ERROR);

  0004d	b8 fe ff ff ff	 mov	 eax, -2			; fffffffeH
  00052	eb 47		 jmp	 SHORT $LN1@PMCCS_Comp
$LN2@PMCCS_Comp:

; 980  :         try

  00054	c7 45 fc 00 00
	00 00		 mov	 DWORD PTR __$EHRec$[ebp+12], 0

; 981  :         {
; 982  :             *w = PMC_Compare_I_X(u, v);

  0005b	8b 45 0c	 mov	 eax, DWORD PTR _v$[ebp]
  0005e	50		 push	 eax
  0005f	8b 4d 08	 mov	 ecx, DWORD PTR _u$[ebp]
  00062	51		 push	 ecx
  00063	e8 00 00 00 00	 call	 ?PMC_Compare_I_X@Internal@Core@Math@Palmtree@@YGHIPAU__tag_PMC_HANDLE_UINT@1234@@Z ; Palmtree::Math::Core::Internal::PMC_Compare_I_X
  00068	8b 55 10	 mov	 edx, DWORD PTR _w$[ebp]
  0006b	89 02		 mov	 DWORD PTR [edx], eax

; 983  :             return (PMC_STATUS_OK);

  0006d	33 c0		 xor	 eax, eax
  0006f	eb 2a		 jmp	 SHORT $LN1@PMCCS_Comp
__catch$_PMCCS_Compare_I_X@12$0:

; 984  :         }
; 985  :         catch (const Palmtree::Math::Core::Internal::Exception& ex)
; 986  :         {
; 987  :             return (ex.GetStatusCode());

  00071	8b 4d e8	 mov	 ecx, DWORD PTR _ex$3[ebp]
  00074	e8 00 00 00 00	 call	 ?GetStatusCode@Exception@Internal@Core@Math@Palmtree@@QBEHXZ ; Palmtree::Math::Core::Internal::Exception::GetStatusCode
  00079	89 45 e0	 mov	 DWORD PTR $T2[ebp], eax
  0007c	b8 00 00 00 00	 mov	 eax, $LN8@PMCCS_Comp
  00081	c3		 ret	 0

; 988  :         }

  00082	b8 00 00 00 00	 mov	 eax, __tryend$_PMCCS_Compare_I_X@12$1
  00087	c3		 ret	 0
__tryend$_PMCCS_Compare_I_X@12$1:
  00088	c7 45 fc ff ff
	ff ff		 mov	 DWORD PTR __$EHRec$[ebp+12], -1
  0008f	eb 0a		 jmp	 SHORT $LN1@PMCCS_Comp
$LN8@PMCCS_Comp:
  00091	c7 45 fc ff ff
	ff ff		 mov	 DWORD PTR __$EHRec$[ebp+12], -1

; 984  :         }
; 985  :         catch (const Palmtree::Math::Core::Internal::Exception& ex)
; 986  :         {
; 987  :             return (ex.GetStatusCode());

  00098	8b 45 e0	 mov	 eax, DWORD PTR $T2[ebp]
$LN1@PMCCS_Comp:

; 989  :     }

  0009b	52		 push	 edx
  0009c	8b cd		 mov	 ecx, ebp
  0009e	50		 push	 eax
  0009f	8d 15 00 00 00
	00		 lea	 edx, DWORD PTR $LN12@PMCCS_Comp
  000a5	e8 00 00 00 00	 call	 @_RTC_CheckStackVars@8
  000aa	58		 pop	 eax
  000ab	5a		 pop	 edx
  000ac	8b 4d f4	 mov	 ecx, DWORD PTR __$EHRec$[ebp+4]
  000af	64 89 0d 00 00
	00 00		 mov	 DWORD PTR fs:0, ecx
  000b6	59		 pop	 ecx
  000b7	5f		 pop	 edi
  000b8	5e		 pop	 esi
  000b9	5b		 pop	 ebx
  000ba	83 c4 20	 add	 esp, 32			; 00000020H
  000bd	3b ec		 cmp	 ebp, esp
  000bf	e8 00 00 00 00	 call	 __RTC_CheckEsp
  000c4	8b e5		 mov	 esp, ebp
  000c6	5d		 pop	 ebp
  000c7	c2 0c 00	 ret	 12			; 0000000cH
  000ca	66 90		 npad	 2
$LN12@PMCCS_Comp:
  000cc	01 00 00 00	 DD	 1
  000d0	00 00 00 00	 DD	 $LN11@PMCCS_Comp
$LN11@PMCCS_Comp:
  000d4	e8 ff ff ff	 DD	 -24			; ffffffe8H
  000d8	04 00 00 00	 DD	 4
  000dc	00 00 00 00	 DD	 $LN9@PMCCS_Comp
$LN9@PMCCS_Comp:
  000e0	65		 DB	 101			; 00000065H
  000e1	78		 DB	 120			; 00000078H
  000e2	00		 DB	 0
_TEXT	ENDS
text$x	SEGMENT
__ehhandler$_PMCCS_Compare_I_X@12:
  00000	8b 54 24 08	 mov	 edx, DWORD PTR [esp+8]
  00004	8d 42 0c	 lea	 eax, DWORD PTR [edx+12]
  00007	8b 4a dc	 mov	 ecx, DWORD PTR [edx-36]
  0000a	33 c8		 xor	 ecx, eax
  0000c	e8 00 00 00 00	 call	 @__security_check_cookie@4
  00011	b8 00 00 00 00	 mov	 eax, OFFSET __ehfuncinfo$_PMCCS_Compare_I_X@12
  00016	e9 00 00 00 00	 jmp	 ___CxxFrameHandler3
text$x	ENDS
_PMCCS_Compare_I_X@12 ENDP
; Function compile flags: /Odtp /RTCsu
; File z:\sources\lunor\repos\rougemeilland\palmtree.math.core.uint\palmtree.math.core.uint\pmc_interface_csharp.cpp
_TEXT	SEGMENT
$T2 = -32						; size = 4
_ex$3 = -24						; size = 4
__$EHRec$ = -16						; size = 16
_u$ = 8							; size = 4
_v$ = 12						; size = 4
_w$ = 16						; size = 4
_PMCCS_ExclusiveOr_X_X@12 PROC

; 962  :     {

  00000	55		 push	 ebp
  00001	8b ec		 mov	 ebp, esp
  00003	6a ff		 push	 -1
  00005	68 00 00 00 00	 push	 __ehhandler$_PMCCS_ExclusiveOr_X_X@12
  0000a	64 a1 00 00 00
	00		 mov	 eax, DWORD PTR fs:0
  00010	50		 push	 eax
  00011	51		 push	 ecx
  00012	83 ec 10	 sub	 esp, 16			; 00000010H
  00015	53		 push	 ebx
  00016	56		 push	 esi
  00017	57		 push	 edi
  00018	b8 cc cc cc cc	 mov	 eax, -858993460		; ccccccccH
  0001d	89 45 e0	 mov	 DWORD PTR [ebp-32], eax
  00020	89 45 e4	 mov	 DWORD PTR [ebp-28], eax
  00023	89 45 e8	 mov	 DWORD PTR [ebp-24], eax
  00026	89 45 ec	 mov	 DWORD PTR [ebp-20], eax
  00029	a1 00 00 00 00	 mov	 eax, DWORD PTR ___security_cookie
  0002e	33 c5		 xor	 eax, ebp
  00030	50		 push	 eax
  00031	8d 45 f4	 lea	 eax, DWORD PTR __$EHRec$[ebp+4]
  00034	64 a3 00 00 00
	00		 mov	 DWORD PTR fs:0, eax
  0003a	89 65 f0	 mov	 DWORD PTR __$EHRec$[ebp], esp
  0003d	b9 00 00 00 00	 mov	 ecx, OFFSET __C21BA676_pmc_interface_csharp@cpp
  00042	e8 00 00 00 00	 call	 @__CheckForDebuggerJustMyCode@4

; 963  :         if (w == nullptr)

  00047	83 7d 10 00	 cmp	 DWORD PTR _w$[ebp], 0
  0004b	75 07		 jne	 SHORT $LN2@PMCCS_Excl

; 964  :             return (PMC_STATUS_ARGUMENT_NULL_ERROR);

  0004d	b8 fe ff ff ff	 mov	 eax, -2			; fffffffeH
  00052	eb 47		 jmp	 SHORT $LN1@PMCCS_Excl
$LN2@PMCCS_Excl:

; 965  :         try

  00054	c7 45 fc 00 00
	00 00		 mov	 DWORD PTR __$EHRec$[ebp+12], 0

; 966  :         {
; 967  :             *w = PMC_ExclusiveOr_X_X(u, v);

  0005b	8b 45 0c	 mov	 eax, DWORD PTR _v$[ebp]
  0005e	50		 push	 eax
  0005f	8b 4d 08	 mov	 ecx, DWORD PTR _u$[ebp]
  00062	51		 push	 ecx
  00063	e8 00 00 00 00	 call	 ?PMC_ExclusiveOr_X_X@Internal@Core@Math@Palmtree@@YGPAU__tag_PMC_HANDLE_UINT@1234@PAU51234@0@Z ; Palmtree::Math::Core::Internal::PMC_ExclusiveOr_X_X
  00068	8b 55 10	 mov	 edx, DWORD PTR _w$[ebp]
  0006b	89 02		 mov	 DWORD PTR [edx], eax

; 968  :             return (PMC_STATUS_OK);

  0006d	33 c0		 xor	 eax, eax
  0006f	eb 2a		 jmp	 SHORT $LN1@PMCCS_Excl
__catch$_PMCCS_ExclusiveOr_X_X@12$0:

; 969  :         }
; 970  :         catch (const Palmtree::Math::Core::Internal::Exception& ex)
; 971  :         {
; 972  :             return (ex.GetStatusCode());

  00071	8b 4d e8	 mov	 ecx, DWORD PTR _ex$3[ebp]
  00074	e8 00 00 00 00	 call	 ?GetStatusCode@Exception@Internal@Core@Math@Palmtree@@QBEHXZ ; Palmtree::Math::Core::Internal::Exception::GetStatusCode
  00079	89 45 e0	 mov	 DWORD PTR $T2[ebp], eax
  0007c	b8 00 00 00 00	 mov	 eax, $LN8@PMCCS_Excl
  00081	c3		 ret	 0

; 973  :         }

  00082	b8 00 00 00 00	 mov	 eax, __tryend$_PMCCS_ExclusiveOr_X_X@12$1
  00087	c3		 ret	 0
__tryend$_PMCCS_ExclusiveOr_X_X@12$1:
  00088	c7 45 fc ff ff
	ff ff		 mov	 DWORD PTR __$EHRec$[ebp+12], -1
  0008f	eb 0a		 jmp	 SHORT $LN1@PMCCS_Excl
$LN8@PMCCS_Excl:
  00091	c7 45 fc ff ff
	ff ff		 mov	 DWORD PTR __$EHRec$[ebp+12], -1

; 969  :         }
; 970  :         catch (const Palmtree::Math::Core::Internal::Exception& ex)
; 971  :         {
; 972  :             return (ex.GetStatusCode());

  00098	8b 45 e0	 mov	 eax, DWORD PTR $T2[ebp]
$LN1@PMCCS_Excl:

; 974  :     }

  0009b	52		 push	 edx
  0009c	8b cd		 mov	 ecx, ebp
  0009e	50		 push	 eax
  0009f	8d 15 00 00 00
	00		 lea	 edx, DWORD PTR $LN12@PMCCS_Excl
  000a5	e8 00 00 00 00	 call	 @_RTC_CheckStackVars@8
  000aa	58		 pop	 eax
  000ab	5a		 pop	 edx
  000ac	8b 4d f4	 mov	 ecx, DWORD PTR __$EHRec$[ebp+4]
  000af	64 89 0d 00 00
	00 00		 mov	 DWORD PTR fs:0, ecx
  000b6	59		 pop	 ecx
  000b7	5f		 pop	 edi
  000b8	5e		 pop	 esi
  000b9	5b		 pop	 ebx
  000ba	83 c4 20	 add	 esp, 32			; 00000020H
  000bd	3b ec		 cmp	 ebp, esp
  000bf	e8 00 00 00 00	 call	 __RTC_CheckEsp
  000c4	8b e5		 mov	 esp, ebp
  000c6	5d		 pop	 ebp
  000c7	c2 0c 00	 ret	 12			; 0000000cH
  000ca	66 90		 npad	 2
$LN12@PMCCS_Excl:
  000cc	01 00 00 00	 DD	 1
  000d0	00 00 00 00	 DD	 $LN11@PMCCS_Excl
$LN11@PMCCS_Excl:
  000d4	e8 ff ff ff	 DD	 -24			; ffffffe8H
  000d8	04 00 00 00	 DD	 4
  000dc	00 00 00 00	 DD	 $LN9@PMCCS_Excl
$LN9@PMCCS_Excl:
  000e0	65		 DB	 101			; 00000065H
  000e1	78		 DB	 120			; 00000078H
  000e2	00		 DB	 0
_TEXT	ENDS
text$x	SEGMENT
__ehhandler$_PMCCS_ExclusiveOr_X_X@12:
  00000	8b 54 24 08	 mov	 edx, DWORD PTR [esp+8]
  00004	8d 42 0c	 lea	 eax, DWORD PTR [edx+12]
  00007	8b 4a dc	 mov	 ecx, DWORD PTR [edx-36]
  0000a	33 c8		 xor	 ecx, eax
  0000c	e8 00 00 00 00	 call	 @__security_check_cookie@4
  00011	b8 00 00 00 00	 mov	 eax, OFFSET __ehfuncinfo$_PMCCS_ExclusiveOr_X_X@12
  00016	e9 00 00 00 00	 jmp	 ___CxxFrameHandler3
text$x	ENDS
_PMCCS_ExclusiveOr_X_X@12 ENDP
; Function compile flags: /Odtp /RTCsu
; File z:\sources\lunor\repos\rougemeilland\palmtree.math.core.uint\palmtree.math.core.uint\pmc_interface_csharp.cpp
_TEXT	SEGMENT
$T2 = -32						; size = 4
_ex$3 = -24						; size = 4
__$EHRec$ = -16						; size = 16
_u$ = 8							; size = 4
_v$ = 12						; size = 8
_w$ = 20						; size = 4
_PMCCS_ExclusiveOr_X_L@16 PROC

; 947  :     {

  00000	55		 push	 ebp
  00001	8b ec		 mov	 ebp, esp
  00003	6a ff		 push	 -1
  00005	68 00 00 00 00	 push	 __ehhandler$_PMCCS_ExclusiveOr_X_L@16
  0000a	64 a1 00 00 00
	00		 mov	 eax, DWORD PTR fs:0
  00010	50		 push	 eax
  00011	51		 push	 ecx
  00012	83 ec 10	 sub	 esp, 16			; 00000010H
  00015	53		 push	 ebx
  00016	56		 push	 esi
  00017	57		 push	 edi
  00018	b8 cc cc cc cc	 mov	 eax, -858993460		; ccccccccH
  0001d	89 45 e0	 mov	 DWORD PTR [ebp-32], eax
  00020	89 45 e4	 mov	 DWORD PTR [ebp-28], eax
  00023	89 45 e8	 mov	 DWORD PTR [ebp-24], eax
  00026	89 45 ec	 mov	 DWORD PTR [ebp-20], eax
  00029	a1 00 00 00 00	 mov	 eax, DWORD PTR ___security_cookie
  0002e	33 c5		 xor	 eax, ebp
  00030	50		 push	 eax
  00031	8d 45 f4	 lea	 eax, DWORD PTR __$EHRec$[ebp+4]
  00034	64 a3 00 00 00
	00		 mov	 DWORD PTR fs:0, eax
  0003a	89 65 f0	 mov	 DWORD PTR __$EHRec$[ebp], esp
  0003d	b9 00 00 00 00	 mov	 ecx, OFFSET __C21BA676_pmc_interface_csharp@cpp
  00042	e8 00 00 00 00	 call	 @__CheckForDebuggerJustMyCode@4

; 948  :         if (w == nullptr)

  00047	83 7d 14 00	 cmp	 DWORD PTR _w$[ebp], 0
  0004b	75 07		 jne	 SHORT $LN2@PMCCS_Excl

; 949  :             return (PMC_STATUS_ARGUMENT_NULL_ERROR);

  0004d	b8 fe ff ff ff	 mov	 eax, -2			; fffffffeH
  00052	eb 4b		 jmp	 SHORT $LN1@PMCCS_Excl
$LN2@PMCCS_Excl:

; 950  :         try

  00054	c7 45 fc 00 00
	00 00		 mov	 DWORD PTR __$EHRec$[ebp+12], 0

; 951  :         {
; 952  :             *w = PMC_ExclusiveOr_X_L(u, v);

  0005b	8b 45 10	 mov	 eax, DWORD PTR _v$[ebp+4]
  0005e	50		 push	 eax
  0005f	8b 4d 0c	 mov	 ecx, DWORD PTR _v$[ebp]
  00062	51		 push	 ecx
  00063	8b 55 08	 mov	 edx, DWORD PTR _u$[ebp]
  00066	52		 push	 edx
  00067	e8 00 00 00 00	 call	 ?PMC_ExclusiveOr_X_L@Internal@Core@Math@Palmtree@@YGPAU__tag_PMC_HANDLE_UINT@1234@PAU51234@_K@Z ; Palmtree::Math::Core::Internal::PMC_ExclusiveOr_X_L
  0006c	8b 4d 14	 mov	 ecx, DWORD PTR _w$[ebp]
  0006f	89 01		 mov	 DWORD PTR [ecx], eax

; 953  :             return (PMC_STATUS_OK);

  00071	33 c0		 xor	 eax, eax
  00073	eb 2a		 jmp	 SHORT $LN1@PMCCS_Excl
__catch$_PMCCS_ExclusiveOr_X_L@16$0:

; 954  :         }
; 955  :         catch (const Palmtree::Math::Core::Internal::Exception& ex)
; 956  :         {
; 957  :             return (ex.GetStatusCode());

  00075	8b 4d e8	 mov	 ecx, DWORD PTR _ex$3[ebp]
  00078	e8 00 00 00 00	 call	 ?GetStatusCode@Exception@Internal@Core@Math@Palmtree@@QBEHXZ ; Palmtree::Math::Core::Internal::Exception::GetStatusCode
  0007d	89 45 e0	 mov	 DWORD PTR $T2[ebp], eax
  00080	b8 00 00 00 00	 mov	 eax, $LN8@PMCCS_Excl
  00085	c3		 ret	 0

; 958  :         }

  00086	b8 00 00 00 00	 mov	 eax, __tryend$_PMCCS_ExclusiveOr_X_L@16$1
  0008b	c3		 ret	 0
__tryend$_PMCCS_ExclusiveOr_X_L@16$1:
  0008c	c7 45 fc ff ff
	ff ff		 mov	 DWORD PTR __$EHRec$[ebp+12], -1
  00093	eb 0a		 jmp	 SHORT $LN1@PMCCS_Excl
$LN8@PMCCS_Excl:
  00095	c7 45 fc ff ff
	ff ff		 mov	 DWORD PTR __$EHRec$[ebp+12], -1

; 954  :         }
; 955  :         catch (const Palmtree::Math::Core::Internal::Exception& ex)
; 956  :         {
; 957  :             return (ex.GetStatusCode());

  0009c	8b 45 e0	 mov	 eax, DWORD PTR $T2[ebp]
$LN1@PMCCS_Excl:

; 959  :     }

  0009f	52		 push	 edx
  000a0	8b cd		 mov	 ecx, ebp
  000a2	50		 push	 eax
  000a3	8d 15 00 00 00
	00		 lea	 edx, DWORD PTR $LN12@PMCCS_Excl
  000a9	e8 00 00 00 00	 call	 @_RTC_CheckStackVars@8
  000ae	58		 pop	 eax
  000af	5a		 pop	 edx
  000b0	8b 4d f4	 mov	 ecx, DWORD PTR __$EHRec$[ebp+4]
  000b3	64 89 0d 00 00
	00 00		 mov	 DWORD PTR fs:0, ecx
  000ba	59		 pop	 ecx
  000bb	5f		 pop	 edi
  000bc	5e		 pop	 esi
  000bd	5b		 pop	 ebx
  000be	83 c4 20	 add	 esp, 32			; 00000020H
  000c1	3b ec		 cmp	 ebp, esp
  000c3	e8 00 00 00 00	 call	 __RTC_CheckEsp
  000c8	8b e5		 mov	 esp, ebp
  000ca	5d		 pop	 ebp
  000cb	c2 10 00	 ret	 16			; 00000010H
  000ce	66 90		 npad	 2
$LN12@PMCCS_Excl:
  000d0	01 00 00 00	 DD	 1
  000d4	00 00 00 00	 DD	 $LN11@PMCCS_Excl
$LN11@PMCCS_Excl:
  000d8	e8 ff ff ff	 DD	 -24			; ffffffe8H
  000dc	04 00 00 00	 DD	 4
  000e0	00 00 00 00	 DD	 $LN9@PMCCS_Excl
$LN9@PMCCS_Excl:
  000e4	65		 DB	 101			; 00000065H
  000e5	78		 DB	 120			; 00000078H
  000e6	00		 DB	 0
_TEXT	ENDS
text$x	SEGMENT
__ehhandler$_PMCCS_ExclusiveOr_X_L@16:
  00000	8b 54 24 08	 mov	 edx, DWORD PTR [esp+8]
  00004	8d 42 0c	 lea	 eax, DWORD PTR [edx+12]
  00007	8b 4a dc	 mov	 ecx, DWORD PTR [edx-36]
  0000a	33 c8		 xor	 ecx, eax
  0000c	e8 00 00 00 00	 call	 @__security_check_cookie@4
  00011	b8 00 00 00 00	 mov	 eax, OFFSET __ehfuncinfo$_PMCCS_ExclusiveOr_X_L@16
  00016	e9 00 00 00 00	 jmp	 ___CxxFrameHandler3
text$x	ENDS
_PMCCS_ExclusiveOr_X_L@16 ENDP
; Function compile flags: /Odtp /RTCsu
; File z:\sources\lunor\repos\rougemeilland\palmtree.math.core.uint\palmtree.math.core.uint\pmc_interface_csharp.cpp
_TEXT	SEGMENT
$T2 = -32						; size = 4
_ex$3 = -24						; size = 4
__$EHRec$ = -16						; size = 16
_u$ = 8							; size = 4
_v$ = 12						; size = 4
_w$ = 16						; size = 4
_PMCCS_ExclusiveOr_X_I@12 PROC

; 932  :     {

  00000	55		 push	 ebp
  00001	8b ec		 mov	 ebp, esp
  00003	6a ff		 push	 -1
  00005	68 00 00 00 00	 push	 __ehhandler$_PMCCS_ExclusiveOr_X_I@12
  0000a	64 a1 00 00 00
	00		 mov	 eax, DWORD PTR fs:0
  00010	50		 push	 eax
  00011	51		 push	 ecx
  00012	83 ec 10	 sub	 esp, 16			; 00000010H
  00015	53		 push	 ebx
  00016	56		 push	 esi
  00017	57		 push	 edi
  00018	b8 cc cc cc cc	 mov	 eax, -858993460		; ccccccccH
  0001d	89 45 e0	 mov	 DWORD PTR [ebp-32], eax
  00020	89 45 e4	 mov	 DWORD PTR [ebp-28], eax
  00023	89 45 e8	 mov	 DWORD PTR [ebp-24], eax
  00026	89 45 ec	 mov	 DWORD PTR [ebp-20], eax
  00029	a1 00 00 00 00	 mov	 eax, DWORD PTR ___security_cookie
  0002e	33 c5		 xor	 eax, ebp
  00030	50		 push	 eax
  00031	8d 45 f4	 lea	 eax, DWORD PTR __$EHRec$[ebp+4]
  00034	64 a3 00 00 00
	00		 mov	 DWORD PTR fs:0, eax
  0003a	89 65 f0	 mov	 DWORD PTR __$EHRec$[ebp], esp
  0003d	b9 00 00 00 00	 mov	 ecx, OFFSET __C21BA676_pmc_interface_csharp@cpp
  00042	e8 00 00 00 00	 call	 @__CheckForDebuggerJustMyCode@4

; 933  :         if (w == nullptr)

  00047	83 7d 10 00	 cmp	 DWORD PTR _w$[ebp], 0
  0004b	75 07		 jne	 SHORT $LN2@PMCCS_Excl

; 934  :             return (PMC_STATUS_ARGUMENT_NULL_ERROR);

  0004d	b8 fe ff ff ff	 mov	 eax, -2			; fffffffeH
  00052	eb 47		 jmp	 SHORT $LN1@PMCCS_Excl
$LN2@PMCCS_Excl:

; 935  :         try

  00054	c7 45 fc 00 00
	00 00		 mov	 DWORD PTR __$EHRec$[ebp+12], 0

; 936  :         {
; 937  :             *w = PMC_ExclusiveOr_X_I(u, v);

  0005b	8b 45 0c	 mov	 eax, DWORD PTR _v$[ebp]
  0005e	50		 push	 eax
  0005f	8b 4d 08	 mov	 ecx, DWORD PTR _u$[ebp]
  00062	51		 push	 ecx
  00063	e8 00 00 00 00	 call	 ?PMC_ExclusiveOr_X_I@Internal@Core@Math@Palmtree@@YGPAU__tag_PMC_HANDLE_UINT@1234@PAU51234@I@Z ; Palmtree::Math::Core::Internal::PMC_ExclusiveOr_X_I
  00068	8b 55 10	 mov	 edx, DWORD PTR _w$[ebp]
  0006b	89 02		 mov	 DWORD PTR [edx], eax

; 938  :             return (PMC_STATUS_OK);

  0006d	33 c0		 xor	 eax, eax
  0006f	eb 2a		 jmp	 SHORT $LN1@PMCCS_Excl
__catch$_PMCCS_ExclusiveOr_X_I@12$0:

; 939  :         }
; 940  :         catch (const Palmtree::Math::Core::Internal::Exception& ex)
; 941  :         {
; 942  :             return (ex.GetStatusCode());

  00071	8b 4d e8	 mov	 ecx, DWORD PTR _ex$3[ebp]
  00074	e8 00 00 00 00	 call	 ?GetStatusCode@Exception@Internal@Core@Math@Palmtree@@QBEHXZ ; Palmtree::Math::Core::Internal::Exception::GetStatusCode
  00079	89 45 e0	 mov	 DWORD PTR $T2[ebp], eax
  0007c	b8 00 00 00 00	 mov	 eax, $LN8@PMCCS_Excl
  00081	c3		 ret	 0

; 943  :         }

  00082	b8 00 00 00 00	 mov	 eax, __tryend$_PMCCS_ExclusiveOr_X_I@12$1
  00087	c3		 ret	 0
__tryend$_PMCCS_ExclusiveOr_X_I@12$1:
  00088	c7 45 fc ff ff
	ff ff		 mov	 DWORD PTR __$EHRec$[ebp+12], -1
  0008f	eb 0a		 jmp	 SHORT $LN1@PMCCS_Excl
$LN8@PMCCS_Excl:
  00091	c7 45 fc ff ff
	ff ff		 mov	 DWORD PTR __$EHRec$[ebp+12], -1

; 939  :         }
; 940  :         catch (const Palmtree::Math::Core::Internal::Exception& ex)
; 941  :         {
; 942  :             return (ex.GetStatusCode());

  00098	8b 45 e0	 mov	 eax, DWORD PTR $T2[ebp]
$LN1@PMCCS_Excl:

; 944  :     }

  0009b	52		 push	 edx
  0009c	8b cd		 mov	 ecx, ebp
  0009e	50		 push	 eax
  0009f	8d 15 00 00 00
	00		 lea	 edx, DWORD PTR $LN12@PMCCS_Excl
  000a5	e8 00 00 00 00	 call	 @_RTC_CheckStackVars@8
  000aa	58		 pop	 eax
  000ab	5a		 pop	 edx
  000ac	8b 4d f4	 mov	 ecx, DWORD PTR __$EHRec$[ebp+4]
  000af	64 89 0d 00 00
	00 00		 mov	 DWORD PTR fs:0, ecx
  000b6	59		 pop	 ecx
  000b7	5f		 pop	 edi
  000b8	5e		 pop	 esi
  000b9	5b		 pop	 ebx
  000ba	83 c4 20	 add	 esp, 32			; 00000020H
  000bd	3b ec		 cmp	 ebp, esp
  000bf	e8 00 00 00 00	 call	 __RTC_CheckEsp
  000c4	8b e5		 mov	 esp, ebp
  000c6	5d		 pop	 ebp
  000c7	c2 0c 00	 ret	 12			; 0000000cH
  000ca	66 90		 npad	 2
$LN12@PMCCS_Excl:
  000cc	01 00 00 00	 DD	 1
  000d0	00 00 00 00	 DD	 $LN11@PMCCS_Excl
$LN11@PMCCS_Excl:
  000d4	e8 ff ff ff	 DD	 -24			; ffffffe8H
  000d8	04 00 00 00	 DD	 4
  000dc	00 00 00 00	 DD	 $LN9@PMCCS_Excl
$LN9@PMCCS_Excl:
  000e0	65		 DB	 101			; 00000065H
  000e1	78		 DB	 120			; 00000078H
  000e2	00		 DB	 0
_TEXT	ENDS
text$x	SEGMENT
__ehhandler$_PMCCS_ExclusiveOr_X_I@12:
  00000	8b 54 24 08	 mov	 edx, DWORD PTR [esp+8]
  00004	8d 42 0c	 lea	 eax, DWORD PTR [edx+12]
  00007	8b 4a dc	 mov	 ecx, DWORD PTR [edx-36]
  0000a	33 c8		 xor	 ecx, eax
  0000c	e8 00 00 00 00	 call	 @__security_check_cookie@4
  00011	b8 00 00 00 00	 mov	 eax, OFFSET __ehfuncinfo$_PMCCS_ExclusiveOr_X_I@12
  00016	e9 00 00 00 00	 jmp	 ___CxxFrameHandler3
text$x	ENDS
_PMCCS_ExclusiveOr_X_I@12 ENDP
; Function compile flags: /Odtp /RTCsu
; File z:\sources\lunor\repos\rougemeilland\palmtree.math.core.uint\palmtree.math.core.uint\pmc_interface_csharp.cpp
_TEXT	SEGMENT
$T2 = -32						; size = 4
_ex$3 = -24						; size = 4
__$EHRec$ = -16						; size = 16
_u$ = 8							; size = 8
_v$ = 16						; size = 4
_w$ = 20						; size = 4
_PMCCS_ExclusiveOr_L_X@16 PROC

; 917  :     {

  00000	55		 push	 ebp
  00001	8b ec		 mov	 ebp, esp
  00003	6a ff		 push	 -1
  00005	68 00 00 00 00	 push	 __ehhandler$_PMCCS_ExclusiveOr_L_X@16
  0000a	64 a1 00 00 00
	00		 mov	 eax, DWORD PTR fs:0
  00010	50		 push	 eax
  00011	51		 push	 ecx
  00012	83 ec 10	 sub	 esp, 16			; 00000010H
  00015	53		 push	 ebx
  00016	56		 push	 esi
  00017	57		 push	 edi
  00018	b8 cc cc cc cc	 mov	 eax, -858993460		; ccccccccH
  0001d	89 45 e0	 mov	 DWORD PTR [ebp-32], eax
  00020	89 45 e4	 mov	 DWORD PTR [ebp-28], eax
  00023	89 45 e8	 mov	 DWORD PTR [ebp-24], eax
  00026	89 45 ec	 mov	 DWORD PTR [ebp-20], eax
  00029	a1 00 00 00 00	 mov	 eax, DWORD PTR ___security_cookie
  0002e	33 c5		 xor	 eax, ebp
  00030	50		 push	 eax
  00031	8d 45 f4	 lea	 eax, DWORD PTR __$EHRec$[ebp+4]
  00034	64 a3 00 00 00
	00		 mov	 DWORD PTR fs:0, eax
  0003a	89 65 f0	 mov	 DWORD PTR __$EHRec$[ebp], esp
  0003d	b9 00 00 00 00	 mov	 ecx, OFFSET __C21BA676_pmc_interface_csharp@cpp
  00042	e8 00 00 00 00	 call	 @__CheckForDebuggerJustMyCode@4

; 918  :         if (w == nullptr)

  00047	83 7d 14 00	 cmp	 DWORD PTR _w$[ebp], 0
  0004b	75 07		 jne	 SHORT $LN2@PMCCS_Excl

; 919  :             return (PMC_STATUS_ARGUMENT_NULL_ERROR);

  0004d	b8 fe ff ff ff	 mov	 eax, -2			; fffffffeH
  00052	eb 4b		 jmp	 SHORT $LN1@PMCCS_Excl
$LN2@PMCCS_Excl:

; 920  :         try

  00054	c7 45 fc 00 00
	00 00		 mov	 DWORD PTR __$EHRec$[ebp+12], 0

; 921  :         {
; 922  :             *w = PMC_ExclusiveOr_L_X(u, v);

  0005b	8b 45 10	 mov	 eax, DWORD PTR _v$[ebp]
  0005e	50		 push	 eax
  0005f	8b 4d 0c	 mov	 ecx, DWORD PTR _u$[ebp+4]
  00062	51		 push	 ecx
  00063	8b 55 08	 mov	 edx, DWORD PTR _u$[ebp]
  00066	52		 push	 edx
  00067	e8 00 00 00 00	 call	 ?PMC_ExclusiveOr_L_X@Internal@Core@Math@Palmtree@@YGPAU__tag_PMC_HANDLE_UINT@1234@_KPAU51234@@Z ; Palmtree::Math::Core::Internal::PMC_ExclusiveOr_L_X
  0006c	8b 4d 14	 mov	 ecx, DWORD PTR _w$[ebp]
  0006f	89 01		 mov	 DWORD PTR [ecx], eax

; 923  :             return (PMC_STATUS_OK);

  00071	33 c0		 xor	 eax, eax
  00073	eb 2a		 jmp	 SHORT $LN1@PMCCS_Excl
__catch$_PMCCS_ExclusiveOr_L_X@16$0:

; 924  :         }
; 925  :         catch (const Palmtree::Math::Core::Internal::Exception& ex)
; 926  :         {
; 927  :             return (ex.GetStatusCode());

  00075	8b 4d e8	 mov	 ecx, DWORD PTR _ex$3[ebp]
  00078	e8 00 00 00 00	 call	 ?GetStatusCode@Exception@Internal@Core@Math@Palmtree@@QBEHXZ ; Palmtree::Math::Core::Internal::Exception::GetStatusCode
  0007d	89 45 e0	 mov	 DWORD PTR $T2[ebp], eax
  00080	b8 00 00 00 00	 mov	 eax, $LN8@PMCCS_Excl
  00085	c3		 ret	 0

; 928  :         }

  00086	b8 00 00 00 00	 mov	 eax, __tryend$_PMCCS_ExclusiveOr_L_X@16$1
  0008b	c3		 ret	 0
__tryend$_PMCCS_ExclusiveOr_L_X@16$1:
  0008c	c7 45 fc ff ff
	ff ff		 mov	 DWORD PTR __$EHRec$[ebp+12], -1
  00093	eb 0a		 jmp	 SHORT $LN1@PMCCS_Excl
$LN8@PMCCS_Excl:
  00095	c7 45 fc ff ff
	ff ff		 mov	 DWORD PTR __$EHRec$[ebp+12], -1

; 924  :         }
; 925  :         catch (const Palmtree::Math::Core::Internal::Exception& ex)
; 926  :         {
; 927  :             return (ex.GetStatusCode());

  0009c	8b 45 e0	 mov	 eax, DWORD PTR $T2[ebp]
$LN1@PMCCS_Excl:

; 929  :     }

  0009f	52		 push	 edx
  000a0	8b cd		 mov	 ecx, ebp
  000a2	50		 push	 eax
  000a3	8d 15 00 00 00
	00		 lea	 edx, DWORD PTR $LN12@PMCCS_Excl
  000a9	e8 00 00 00 00	 call	 @_RTC_CheckStackVars@8
  000ae	58		 pop	 eax
  000af	5a		 pop	 edx
  000b0	8b 4d f4	 mov	 ecx, DWORD PTR __$EHRec$[ebp+4]
  000b3	64 89 0d 00 00
	00 00		 mov	 DWORD PTR fs:0, ecx
  000ba	59		 pop	 ecx
  000bb	5f		 pop	 edi
  000bc	5e		 pop	 esi
  000bd	5b		 pop	 ebx
  000be	83 c4 20	 add	 esp, 32			; 00000020H
  000c1	3b ec		 cmp	 ebp, esp
  000c3	e8 00 00 00 00	 call	 __RTC_CheckEsp
  000c8	8b e5		 mov	 esp, ebp
  000ca	5d		 pop	 ebp
  000cb	c2 10 00	 ret	 16			; 00000010H
  000ce	66 90		 npad	 2
$LN12@PMCCS_Excl:
  000d0	01 00 00 00	 DD	 1
  000d4	00 00 00 00	 DD	 $LN11@PMCCS_Excl
$LN11@PMCCS_Excl:
  000d8	e8 ff ff ff	 DD	 -24			; ffffffe8H
  000dc	04 00 00 00	 DD	 4
  000e0	00 00 00 00	 DD	 $LN9@PMCCS_Excl
$LN9@PMCCS_Excl:
  000e4	65		 DB	 101			; 00000065H
  000e5	78		 DB	 120			; 00000078H
  000e6	00		 DB	 0
_TEXT	ENDS
text$x	SEGMENT
__ehhandler$_PMCCS_ExclusiveOr_L_X@16:
  00000	8b 54 24 08	 mov	 edx, DWORD PTR [esp+8]
  00004	8d 42 0c	 lea	 eax, DWORD PTR [edx+12]
  00007	8b 4a dc	 mov	 ecx, DWORD PTR [edx-36]
  0000a	33 c8		 xor	 ecx, eax
  0000c	e8 00 00 00 00	 call	 @__security_check_cookie@4
  00011	b8 00 00 00 00	 mov	 eax, OFFSET __ehfuncinfo$_PMCCS_ExclusiveOr_L_X@16
  00016	e9 00 00 00 00	 jmp	 ___CxxFrameHandler3
text$x	ENDS
_PMCCS_ExclusiveOr_L_X@16 ENDP
; Function compile flags: /Odtp /RTCsu
; File z:\sources\lunor\repos\rougemeilland\palmtree.math.core.uint\palmtree.math.core.uint\pmc_interface_csharp.cpp
_TEXT	SEGMENT
$T2 = -32						; size = 4
_ex$3 = -24						; size = 4
__$EHRec$ = -16						; size = 16
_u$ = 8							; size = 4
_v$ = 12						; size = 4
_w$ = 16						; size = 4
_PMCCS_ExclusiveOr_I_X@12 PROC

; 902  :     {

  00000	55		 push	 ebp
  00001	8b ec		 mov	 ebp, esp
  00003	6a ff		 push	 -1
  00005	68 00 00 00 00	 push	 __ehhandler$_PMCCS_ExclusiveOr_I_X@12
  0000a	64 a1 00 00 00
	00		 mov	 eax, DWORD PTR fs:0
  00010	50		 push	 eax
  00011	51		 push	 ecx
  00012	83 ec 10	 sub	 esp, 16			; 00000010H
  00015	53		 push	 ebx
  00016	56		 push	 esi
  00017	57		 push	 edi
  00018	b8 cc cc cc cc	 mov	 eax, -858993460		; ccccccccH
  0001d	89 45 e0	 mov	 DWORD PTR [ebp-32], eax
  00020	89 45 e4	 mov	 DWORD PTR [ebp-28], eax
  00023	89 45 e8	 mov	 DWORD PTR [ebp-24], eax
  00026	89 45 ec	 mov	 DWORD PTR [ebp-20], eax
  00029	a1 00 00 00 00	 mov	 eax, DWORD PTR ___security_cookie
  0002e	33 c5		 xor	 eax, ebp
  00030	50		 push	 eax
  00031	8d 45 f4	 lea	 eax, DWORD PTR __$EHRec$[ebp+4]
  00034	64 a3 00 00 00
	00		 mov	 DWORD PTR fs:0, eax
  0003a	89 65 f0	 mov	 DWORD PTR __$EHRec$[ebp], esp
  0003d	b9 00 00 00 00	 mov	 ecx, OFFSET __C21BA676_pmc_interface_csharp@cpp
  00042	e8 00 00 00 00	 call	 @__CheckForDebuggerJustMyCode@4

; 903  :         if (w == nullptr)

  00047	83 7d 10 00	 cmp	 DWORD PTR _w$[ebp], 0
  0004b	75 07		 jne	 SHORT $LN2@PMCCS_Excl

; 904  :             return (PMC_STATUS_ARGUMENT_NULL_ERROR);

  0004d	b8 fe ff ff ff	 mov	 eax, -2			; fffffffeH
  00052	eb 47		 jmp	 SHORT $LN1@PMCCS_Excl
$LN2@PMCCS_Excl:

; 905  :         try

  00054	c7 45 fc 00 00
	00 00		 mov	 DWORD PTR __$EHRec$[ebp+12], 0

; 906  :         {
; 907  :             *w = PMC_ExclusiveOr_I_X(u, v);

  0005b	8b 45 0c	 mov	 eax, DWORD PTR _v$[ebp]
  0005e	50		 push	 eax
  0005f	8b 4d 08	 mov	 ecx, DWORD PTR _u$[ebp]
  00062	51		 push	 ecx
  00063	e8 00 00 00 00	 call	 ?PMC_ExclusiveOr_I_X@Internal@Core@Math@Palmtree@@YGPAU__tag_PMC_HANDLE_UINT@1234@IPAU51234@@Z ; Palmtree::Math::Core::Internal::PMC_ExclusiveOr_I_X
  00068	8b 55 10	 mov	 edx, DWORD PTR _w$[ebp]
  0006b	89 02		 mov	 DWORD PTR [edx], eax

; 908  :             return (PMC_STATUS_OK);

  0006d	33 c0		 xor	 eax, eax
  0006f	eb 2a		 jmp	 SHORT $LN1@PMCCS_Excl
__catch$_PMCCS_ExclusiveOr_I_X@12$0:

; 909  :         }
; 910  :         catch (const Palmtree::Math::Core::Internal::Exception& ex)
; 911  :         {
; 912  :             return (ex.GetStatusCode());

  00071	8b 4d e8	 mov	 ecx, DWORD PTR _ex$3[ebp]
  00074	e8 00 00 00 00	 call	 ?GetStatusCode@Exception@Internal@Core@Math@Palmtree@@QBEHXZ ; Palmtree::Math::Core::Internal::Exception::GetStatusCode
  00079	89 45 e0	 mov	 DWORD PTR $T2[ebp], eax
  0007c	b8 00 00 00 00	 mov	 eax, $LN8@PMCCS_Excl
  00081	c3		 ret	 0

; 913  :         }

  00082	b8 00 00 00 00	 mov	 eax, __tryend$_PMCCS_ExclusiveOr_I_X@12$1
  00087	c3		 ret	 0
__tryend$_PMCCS_ExclusiveOr_I_X@12$1:
  00088	c7 45 fc ff ff
	ff ff		 mov	 DWORD PTR __$EHRec$[ebp+12], -1
  0008f	eb 0a		 jmp	 SHORT $LN1@PMCCS_Excl
$LN8@PMCCS_Excl:
  00091	c7 45 fc ff ff
	ff ff		 mov	 DWORD PTR __$EHRec$[ebp+12], -1

; 909  :         }
; 910  :         catch (const Palmtree::Math::Core::Internal::Exception& ex)
; 911  :         {
; 912  :             return (ex.GetStatusCode());

  00098	8b 45 e0	 mov	 eax, DWORD PTR $T2[ebp]
$LN1@PMCCS_Excl:

; 914  :     }

  0009b	52		 push	 edx
  0009c	8b cd		 mov	 ecx, ebp
  0009e	50		 push	 eax
  0009f	8d 15 00 00 00
	00		 lea	 edx, DWORD PTR $LN12@PMCCS_Excl
  000a5	e8 00 00 00 00	 call	 @_RTC_CheckStackVars@8
  000aa	58		 pop	 eax
  000ab	5a		 pop	 edx
  000ac	8b 4d f4	 mov	 ecx, DWORD PTR __$EHRec$[ebp+4]
  000af	64 89 0d 00 00
	00 00		 mov	 DWORD PTR fs:0, ecx
  000b6	59		 pop	 ecx
  000b7	5f		 pop	 edi
  000b8	5e		 pop	 esi
  000b9	5b		 pop	 ebx
  000ba	83 c4 20	 add	 esp, 32			; 00000020H
  000bd	3b ec		 cmp	 ebp, esp
  000bf	e8 00 00 00 00	 call	 __RTC_CheckEsp
  000c4	8b e5		 mov	 esp, ebp
  000c6	5d		 pop	 ebp
  000c7	c2 0c 00	 ret	 12			; 0000000cH
  000ca	66 90		 npad	 2
$LN12@PMCCS_Excl:
  000cc	01 00 00 00	 DD	 1
  000d0	00 00 00 00	 DD	 $LN11@PMCCS_Excl
$LN11@PMCCS_Excl:
  000d4	e8 ff ff ff	 DD	 -24			; ffffffe8H
  000d8	04 00 00 00	 DD	 4
  000dc	00 00 00 00	 DD	 $LN9@PMCCS_Excl
$LN9@PMCCS_Excl:
  000e0	65		 DB	 101			; 00000065H
  000e1	78		 DB	 120			; 00000078H
  000e2	00		 DB	 0
_TEXT	ENDS
text$x	SEGMENT
__ehhandler$_PMCCS_ExclusiveOr_I_X@12:
  00000	8b 54 24 08	 mov	 edx, DWORD PTR [esp+8]
  00004	8d 42 0c	 lea	 eax, DWORD PTR [edx+12]
  00007	8b 4a dc	 mov	 ecx, DWORD PTR [edx-36]
  0000a	33 c8		 xor	 ecx, eax
  0000c	e8 00 00 00 00	 call	 @__security_check_cookie@4
  00011	b8 00 00 00 00	 mov	 eax, OFFSET __ehfuncinfo$_PMCCS_ExclusiveOr_I_X@12
  00016	e9 00 00 00 00	 jmp	 ___CxxFrameHandler3
text$x	ENDS
_PMCCS_ExclusiveOr_I_X@12 ENDP
; Function compile flags: /Odtp /RTCsu
; File z:\sources\lunor\repos\rougemeilland\palmtree.math.core.uint\palmtree.math.core.uint\pmc_interface_csharp.cpp
_TEXT	SEGMENT
$T2 = -32						; size = 4
_ex$3 = -24						; size = 4
__$EHRec$ = -16						; size = 16
_u$ = 8							; size = 4
_v$ = 12						; size = 4
_w$ = 16						; size = 4
_PMCCS_BitwiseOr_X_X@12 PROC

; 887  :     {

  00000	55		 push	 ebp
  00001	8b ec		 mov	 ebp, esp
  00003	6a ff		 push	 -1
  00005	68 00 00 00 00	 push	 __ehhandler$_PMCCS_BitwiseOr_X_X@12
  0000a	64 a1 00 00 00
	00		 mov	 eax, DWORD PTR fs:0
  00010	50		 push	 eax
  00011	51		 push	 ecx
  00012	83 ec 10	 sub	 esp, 16			; 00000010H
  00015	53		 push	 ebx
  00016	56		 push	 esi
  00017	57		 push	 edi
  00018	b8 cc cc cc cc	 mov	 eax, -858993460		; ccccccccH
  0001d	89 45 e0	 mov	 DWORD PTR [ebp-32], eax
  00020	89 45 e4	 mov	 DWORD PTR [ebp-28], eax
  00023	89 45 e8	 mov	 DWORD PTR [ebp-24], eax
  00026	89 45 ec	 mov	 DWORD PTR [ebp-20], eax
  00029	a1 00 00 00 00	 mov	 eax, DWORD PTR ___security_cookie
  0002e	33 c5		 xor	 eax, ebp
  00030	50		 push	 eax
  00031	8d 45 f4	 lea	 eax, DWORD PTR __$EHRec$[ebp+4]
  00034	64 a3 00 00 00
	00		 mov	 DWORD PTR fs:0, eax
  0003a	89 65 f0	 mov	 DWORD PTR __$EHRec$[ebp], esp
  0003d	b9 00 00 00 00	 mov	 ecx, OFFSET __C21BA676_pmc_interface_csharp@cpp
  00042	e8 00 00 00 00	 call	 @__CheckForDebuggerJustMyCode@4

; 888  :         if (w == nullptr)

  00047	83 7d 10 00	 cmp	 DWORD PTR _w$[ebp], 0
  0004b	75 07		 jne	 SHORT $LN2@PMCCS_Bitw

; 889  :             return (PMC_STATUS_ARGUMENT_NULL_ERROR);

  0004d	b8 fe ff ff ff	 mov	 eax, -2			; fffffffeH
  00052	eb 47		 jmp	 SHORT $LN1@PMCCS_Bitw
$LN2@PMCCS_Bitw:

; 890  :         try

  00054	c7 45 fc 00 00
	00 00		 mov	 DWORD PTR __$EHRec$[ebp+12], 0

; 891  :         {
; 892  :             *w = PMC_BitwiseOr_X_X(u, v);

  0005b	8b 45 0c	 mov	 eax, DWORD PTR _v$[ebp]
  0005e	50		 push	 eax
  0005f	8b 4d 08	 mov	 ecx, DWORD PTR _u$[ebp]
  00062	51		 push	 ecx
  00063	e8 00 00 00 00	 call	 ?PMC_BitwiseOr_X_X@Internal@Core@Math@Palmtree@@YGPAU__tag_PMC_HANDLE_UINT@1234@PAU51234@0@Z ; Palmtree::Math::Core::Internal::PMC_BitwiseOr_X_X
  00068	8b 55 10	 mov	 edx, DWORD PTR _w$[ebp]
  0006b	89 02		 mov	 DWORD PTR [edx], eax

; 893  :             return (PMC_STATUS_OK);

  0006d	33 c0		 xor	 eax, eax
  0006f	eb 2a		 jmp	 SHORT $LN1@PMCCS_Bitw
__catch$_PMCCS_BitwiseOr_X_X@12$0:

; 894  :         }
; 895  :         catch (const Palmtree::Math::Core::Internal::Exception& ex)
; 896  :         {
; 897  :             return (ex.GetStatusCode());

  00071	8b 4d e8	 mov	 ecx, DWORD PTR _ex$3[ebp]
  00074	e8 00 00 00 00	 call	 ?GetStatusCode@Exception@Internal@Core@Math@Palmtree@@QBEHXZ ; Palmtree::Math::Core::Internal::Exception::GetStatusCode
  00079	89 45 e0	 mov	 DWORD PTR $T2[ebp], eax
  0007c	b8 00 00 00 00	 mov	 eax, $LN8@PMCCS_Bitw
  00081	c3		 ret	 0

; 898  :         }

  00082	b8 00 00 00 00	 mov	 eax, __tryend$_PMCCS_BitwiseOr_X_X@12$1
  00087	c3		 ret	 0
__tryend$_PMCCS_BitwiseOr_X_X@12$1:
  00088	c7 45 fc ff ff
	ff ff		 mov	 DWORD PTR __$EHRec$[ebp+12], -1
  0008f	eb 0a		 jmp	 SHORT $LN1@PMCCS_Bitw
$LN8@PMCCS_Bitw:
  00091	c7 45 fc ff ff
	ff ff		 mov	 DWORD PTR __$EHRec$[ebp+12], -1

; 894  :         }
; 895  :         catch (const Palmtree::Math::Core::Internal::Exception& ex)
; 896  :         {
; 897  :             return (ex.GetStatusCode());

  00098	8b 45 e0	 mov	 eax, DWORD PTR $T2[ebp]
$LN1@PMCCS_Bitw:

; 899  :     }

  0009b	52		 push	 edx
  0009c	8b cd		 mov	 ecx, ebp
  0009e	50		 push	 eax
  0009f	8d 15 00 00 00
	00		 lea	 edx, DWORD PTR $LN12@PMCCS_Bitw
  000a5	e8 00 00 00 00	 call	 @_RTC_CheckStackVars@8
  000aa	58		 pop	 eax
  000ab	5a		 pop	 edx
  000ac	8b 4d f4	 mov	 ecx, DWORD PTR __$EHRec$[ebp+4]
  000af	64 89 0d 00 00
	00 00		 mov	 DWORD PTR fs:0, ecx
  000b6	59		 pop	 ecx
  000b7	5f		 pop	 edi
  000b8	5e		 pop	 esi
  000b9	5b		 pop	 ebx
  000ba	83 c4 20	 add	 esp, 32			; 00000020H
  000bd	3b ec		 cmp	 ebp, esp
  000bf	e8 00 00 00 00	 call	 __RTC_CheckEsp
  000c4	8b e5		 mov	 esp, ebp
  000c6	5d		 pop	 ebp
  000c7	c2 0c 00	 ret	 12			; 0000000cH
  000ca	66 90		 npad	 2
$LN12@PMCCS_Bitw:
  000cc	01 00 00 00	 DD	 1
  000d0	00 00 00 00	 DD	 $LN11@PMCCS_Bitw
$LN11@PMCCS_Bitw:
  000d4	e8 ff ff ff	 DD	 -24			; ffffffe8H
  000d8	04 00 00 00	 DD	 4
  000dc	00 00 00 00	 DD	 $LN9@PMCCS_Bitw
$LN9@PMCCS_Bitw:
  000e0	65		 DB	 101			; 00000065H
  000e1	78		 DB	 120			; 00000078H
  000e2	00		 DB	 0
_TEXT	ENDS
text$x	SEGMENT
__ehhandler$_PMCCS_BitwiseOr_X_X@12:
  00000	8b 54 24 08	 mov	 edx, DWORD PTR [esp+8]
  00004	8d 42 0c	 lea	 eax, DWORD PTR [edx+12]
  00007	8b 4a dc	 mov	 ecx, DWORD PTR [edx-36]
  0000a	33 c8		 xor	 ecx, eax
  0000c	e8 00 00 00 00	 call	 @__security_check_cookie@4
  00011	b8 00 00 00 00	 mov	 eax, OFFSET __ehfuncinfo$_PMCCS_BitwiseOr_X_X@12
  00016	e9 00 00 00 00	 jmp	 ___CxxFrameHandler3
text$x	ENDS
_PMCCS_BitwiseOr_X_X@12 ENDP
; Function compile flags: /Odtp /RTCsu
; File z:\sources\lunor\repos\rougemeilland\palmtree.math.core.uint\palmtree.math.core.uint\pmc_interface_csharp.cpp
_TEXT	SEGMENT
$T2 = -32						; size = 4
_ex$3 = -24						; size = 4
__$EHRec$ = -16						; size = 16
_u$ = 8							; size = 4
_v$ = 12						; size = 8
_w$ = 20						; size = 4
_PMCCS_BitwiseOr_X_L@16 PROC

; 872  :     {

  00000	55		 push	 ebp
  00001	8b ec		 mov	 ebp, esp
  00003	6a ff		 push	 -1
  00005	68 00 00 00 00	 push	 __ehhandler$_PMCCS_BitwiseOr_X_L@16
  0000a	64 a1 00 00 00
	00		 mov	 eax, DWORD PTR fs:0
  00010	50		 push	 eax
  00011	51		 push	 ecx
  00012	83 ec 10	 sub	 esp, 16			; 00000010H
  00015	53		 push	 ebx
  00016	56		 push	 esi
  00017	57		 push	 edi
  00018	b8 cc cc cc cc	 mov	 eax, -858993460		; ccccccccH
  0001d	89 45 e0	 mov	 DWORD PTR [ebp-32], eax
  00020	89 45 e4	 mov	 DWORD PTR [ebp-28], eax
  00023	89 45 e8	 mov	 DWORD PTR [ebp-24], eax
  00026	89 45 ec	 mov	 DWORD PTR [ebp-20], eax
  00029	a1 00 00 00 00	 mov	 eax, DWORD PTR ___security_cookie
  0002e	33 c5		 xor	 eax, ebp
  00030	50		 push	 eax
  00031	8d 45 f4	 lea	 eax, DWORD PTR __$EHRec$[ebp+4]
  00034	64 a3 00 00 00
	00		 mov	 DWORD PTR fs:0, eax
  0003a	89 65 f0	 mov	 DWORD PTR __$EHRec$[ebp], esp
  0003d	b9 00 00 00 00	 mov	 ecx, OFFSET __C21BA676_pmc_interface_csharp@cpp
  00042	e8 00 00 00 00	 call	 @__CheckForDebuggerJustMyCode@4

; 873  :         if (w == nullptr)

  00047	83 7d 14 00	 cmp	 DWORD PTR _w$[ebp], 0
  0004b	75 07		 jne	 SHORT $LN2@PMCCS_Bitw

; 874  :             return (PMC_STATUS_ARGUMENT_NULL_ERROR);

  0004d	b8 fe ff ff ff	 mov	 eax, -2			; fffffffeH
  00052	eb 4b		 jmp	 SHORT $LN1@PMCCS_Bitw
$LN2@PMCCS_Bitw:

; 875  :         try

  00054	c7 45 fc 00 00
	00 00		 mov	 DWORD PTR __$EHRec$[ebp+12], 0

; 876  :         {
; 877  :             *w = PMC_BitwiseOr_X_L(u, v);

  0005b	8b 45 10	 mov	 eax, DWORD PTR _v$[ebp+4]
  0005e	50		 push	 eax
  0005f	8b 4d 0c	 mov	 ecx, DWORD PTR _v$[ebp]
  00062	51		 push	 ecx
  00063	8b 55 08	 mov	 edx, DWORD PTR _u$[ebp]
  00066	52		 push	 edx
  00067	e8 00 00 00 00	 call	 ?PMC_BitwiseOr_X_L@Internal@Core@Math@Palmtree@@YGPAU__tag_PMC_HANDLE_UINT@1234@PAU51234@_K@Z ; Palmtree::Math::Core::Internal::PMC_BitwiseOr_X_L
  0006c	8b 4d 14	 mov	 ecx, DWORD PTR _w$[ebp]
  0006f	89 01		 mov	 DWORD PTR [ecx], eax

; 878  :             return (PMC_STATUS_OK);

  00071	33 c0		 xor	 eax, eax
  00073	eb 2a		 jmp	 SHORT $LN1@PMCCS_Bitw
__catch$_PMCCS_BitwiseOr_X_L@16$0:

; 879  :         }
; 880  :         catch (const Palmtree::Math::Core::Internal::Exception& ex)
; 881  :         {
; 882  :             return (ex.GetStatusCode());

  00075	8b 4d e8	 mov	 ecx, DWORD PTR _ex$3[ebp]
  00078	e8 00 00 00 00	 call	 ?GetStatusCode@Exception@Internal@Core@Math@Palmtree@@QBEHXZ ; Palmtree::Math::Core::Internal::Exception::GetStatusCode
  0007d	89 45 e0	 mov	 DWORD PTR $T2[ebp], eax
  00080	b8 00 00 00 00	 mov	 eax, $LN8@PMCCS_Bitw
  00085	c3		 ret	 0

; 883  :         }

  00086	b8 00 00 00 00	 mov	 eax, __tryend$_PMCCS_BitwiseOr_X_L@16$1
  0008b	c3		 ret	 0
__tryend$_PMCCS_BitwiseOr_X_L@16$1:
  0008c	c7 45 fc ff ff
	ff ff		 mov	 DWORD PTR __$EHRec$[ebp+12], -1
  00093	eb 0a		 jmp	 SHORT $LN1@PMCCS_Bitw
$LN8@PMCCS_Bitw:
  00095	c7 45 fc ff ff
	ff ff		 mov	 DWORD PTR __$EHRec$[ebp+12], -1

; 879  :         }
; 880  :         catch (const Palmtree::Math::Core::Internal::Exception& ex)
; 881  :         {
; 882  :             return (ex.GetStatusCode());

  0009c	8b 45 e0	 mov	 eax, DWORD PTR $T2[ebp]
$LN1@PMCCS_Bitw:

; 884  :     }

  0009f	52		 push	 edx
  000a0	8b cd		 mov	 ecx, ebp
  000a2	50		 push	 eax
  000a3	8d 15 00 00 00
	00		 lea	 edx, DWORD PTR $LN12@PMCCS_Bitw
  000a9	e8 00 00 00 00	 call	 @_RTC_CheckStackVars@8
  000ae	58		 pop	 eax
  000af	5a		 pop	 edx
  000b0	8b 4d f4	 mov	 ecx, DWORD PTR __$EHRec$[ebp+4]
  000b3	64 89 0d 00 00
	00 00		 mov	 DWORD PTR fs:0, ecx
  000ba	59		 pop	 ecx
  000bb	5f		 pop	 edi
  000bc	5e		 pop	 esi
  000bd	5b		 pop	 ebx
  000be	83 c4 20	 add	 esp, 32			; 00000020H
  000c1	3b ec		 cmp	 ebp, esp
  000c3	e8 00 00 00 00	 call	 __RTC_CheckEsp
  000c8	8b e5		 mov	 esp, ebp
  000ca	5d		 pop	 ebp
  000cb	c2 10 00	 ret	 16			; 00000010H
  000ce	66 90		 npad	 2
$LN12@PMCCS_Bitw:
  000d0	01 00 00 00	 DD	 1
  000d4	00 00 00 00	 DD	 $LN11@PMCCS_Bitw
$LN11@PMCCS_Bitw:
  000d8	e8 ff ff ff	 DD	 -24			; ffffffe8H
  000dc	04 00 00 00	 DD	 4
  000e0	00 00 00 00	 DD	 $LN9@PMCCS_Bitw
$LN9@PMCCS_Bitw:
  000e4	65		 DB	 101			; 00000065H
  000e5	78		 DB	 120			; 00000078H
  000e6	00		 DB	 0
_TEXT	ENDS
text$x	SEGMENT
__ehhandler$_PMCCS_BitwiseOr_X_L@16:
  00000	8b 54 24 08	 mov	 edx, DWORD PTR [esp+8]
  00004	8d 42 0c	 lea	 eax, DWORD PTR [edx+12]
  00007	8b 4a dc	 mov	 ecx, DWORD PTR [edx-36]
  0000a	33 c8		 xor	 ecx, eax
  0000c	e8 00 00 00 00	 call	 @__security_check_cookie@4
  00011	b8 00 00 00 00	 mov	 eax, OFFSET __ehfuncinfo$_PMCCS_BitwiseOr_X_L@16
  00016	e9 00 00 00 00	 jmp	 ___CxxFrameHandler3
text$x	ENDS
_PMCCS_BitwiseOr_X_L@16 ENDP
; Function compile flags: /Odtp /RTCsu
; File z:\sources\lunor\repos\rougemeilland\palmtree.math.core.uint\palmtree.math.core.uint\pmc_interface_csharp.cpp
_TEXT	SEGMENT
$T2 = -32						; size = 4
_ex$3 = -24						; size = 4
__$EHRec$ = -16						; size = 16
_u$ = 8							; size = 4
_v$ = 12						; size = 4
_w$ = 16						; size = 4
_PMCCS_BitwiseOr_X_I@12 PROC

; 857  :     {

  00000	55		 push	 ebp
  00001	8b ec		 mov	 ebp, esp
  00003	6a ff		 push	 -1
  00005	68 00 00 00 00	 push	 __ehhandler$_PMCCS_BitwiseOr_X_I@12
  0000a	64 a1 00 00 00
	00		 mov	 eax, DWORD PTR fs:0
  00010	50		 push	 eax
  00011	51		 push	 ecx
  00012	83 ec 10	 sub	 esp, 16			; 00000010H
  00015	53		 push	 ebx
  00016	56		 push	 esi
  00017	57		 push	 edi
  00018	b8 cc cc cc cc	 mov	 eax, -858993460		; ccccccccH
  0001d	89 45 e0	 mov	 DWORD PTR [ebp-32], eax
  00020	89 45 e4	 mov	 DWORD PTR [ebp-28], eax
  00023	89 45 e8	 mov	 DWORD PTR [ebp-24], eax
  00026	89 45 ec	 mov	 DWORD PTR [ebp-20], eax
  00029	a1 00 00 00 00	 mov	 eax, DWORD PTR ___security_cookie
  0002e	33 c5		 xor	 eax, ebp
  00030	50		 push	 eax
  00031	8d 45 f4	 lea	 eax, DWORD PTR __$EHRec$[ebp+4]
  00034	64 a3 00 00 00
	00		 mov	 DWORD PTR fs:0, eax
  0003a	89 65 f0	 mov	 DWORD PTR __$EHRec$[ebp], esp
  0003d	b9 00 00 00 00	 mov	 ecx, OFFSET __C21BA676_pmc_interface_csharp@cpp
  00042	e8 00 00 00 00	 call	 @__CheckForDebuggerJustMyCode@4

; 858  :         if (w == nullptr)

  00047	83 7d 10 00	 cmp	 DWORD PTR _w$[ebp], 0
  0004b	75 07		 jne	 SHORT $LN2@PMCCS_Bitw

; 859  :             return (PMC_STATUS_ARGUMENT_NULL_ERROR);

  0004d	b8 fe ff ff ff	 mov	 eax, -2			; fffffffeH
  00052	eb 47		 jmp	 SHORT $LN1@PMCCS_Bitw
$LN2@PMCCS_Bitw:

; 860  :         try

  00054	c7 45 fc 00 00
	00 00		 mov	 DWORD PTR __$EHRec$[ebp+12], 0

; 861  :         {
; 862  :             *w = PMC_BitwiseOr_X_I(u, v);

  0005b	8b 45 0c	 mov	 eax, DWORD PTR _v$[ebp]
  0005e	50		 push	 eax
  0005f	8b 4d 08	 mov	 ecx, DWORD PTR _u$[ebp]
  00062	51		 push	 ecx
  00063	e8 00 00 00 00	 call	 ?PMC_BitwiseOr_X_I@Internal@Core@Math@Palmtree@@YGPAU__tag_PMC_HANDLE_UINT@1234@PAU51234@I@Z ; Palmtree::Math::Core::Internal::PMC_BitwiseOr_X_I
  00068	8b 55 10	 mov	 edx, DWORD PTR _w$[ebp]
  0006b	89 02		 mov	 DWORD PTR [edx], eax

; 863  :             return (PMC_STATUS_OK);

  0006d	33 c0		 xor	 eax, eax
  0006f	eb 2a		 jmp	 SHORT $LN1@PMCCS_Bitw
__catch$_PMCCS_BitwiseOr_X_I@12$0:

; 864  :         }
; 865  :         catch (const Palmtree::Math::Core::Internal::Exception& ex)
; 866  :         {
; 867  :             return (ex.GetStatusCode());

  00071	8b 4d e8	 mov	 ecx, DWORD PTR _ex$3[ebp]
  00074	e8 00 00 00 00	 call	 ?GetStatusCode@Exception@Internal@Core@Math@Palmtree@@QBEHXZ ; Palmtree::Math::Core::Internal::Exception::GetStatusCode
  00079	89 45 e0	 mov	 DWORD PTR $T2[ebp], eax
  0007c	b8 00 00 00 00	 mov	 eax, $LN8@PMCCS_Bitw
  00081	c3		 ret	 0

; 868  :         }

  00082	b8 00 00 00 00	 mov	 eax, __tryend$_PMCCS_BitwiseOr_X_I@12$1
  00087	c3		 ret	 0
__tryend$_PMCCS_BitwiseOr_X_I@12$1:
  00088	c7 45 fc ff ff
	ff ff		 mov	 DWORD PTR __$EHRec$[ebp+12], -1
  0008f	eb 0a		 jmp	 SHORT $LN1@PMCCS_Bitw
$LN8@PMCCS_Bitw:
  00091	c7 45 fc ff ff
	ff ff		 mov	 DWORD PTR __$EHRec$[ebp+12], -1

; 864  :         }
; 865  :         catch (const Palmtree::Math::Core::Internal::Exception& ex)
; 866  :         {
; 867  :             return (ex.GetStatusCode());

  00098	8b 45 e0	 mov	 eax, DWORD PTR $T2[ebp]
$LN1@PMCCS_Bitw:

; 869  :     }

  0009b	52		 push	 edx
  0009c	8b cd		 mov	 ecx, ebp
  0009e	50		 push	 eax
  0009f	8d 15 00 00 00
	00		 lea	 edx, DWORD PTR $LN12@PMCCS_Bitw
  000a5	e8 00 00 00 00	 call	 @_RTC_CheckStackVars@8
  000aa	58		 pop	 eax
  000ab	5a		 pop	 edx
  000ac	8b 4d f4	 mov	 ecx, DWORD PTR __$EHRec$[ebp+4]
  000af	64 89 0d 00 00
	00 00		 mov	 DWORD PTR fs:0, ecx
  000b6	59		 pop	 ecx
  000b7	5f		 pop	 edi
  000b8	5e		 pop	 esi
  000b9	5b		 pop	 ebx
  000ba	83 c4 20	 add	 esp, 32			; 00000020H
  000bd	3b ec		 cmp	 ebp, esp
  000bf	e8 00 00 00 00	 call	 __RTC_CheckEsp
  000c4	8b e5		 mov	 esp, ebp
  000c6	5d		 pop	 ebp
  000c7	c2 0c 00	 ret	 12			; 0000000cH
  000ca	66 90		 npad	 2
$LN12@PMCCS_Bitw:
  000cc	01 00 00 00	 DD	 1
  000d0	00 00 00 00	 DD	 $LN11@PMCCS_Bitw
$LN11@PMCCS_Bitw:
  000d4	e8 ff ff ff	 DD	 -24			; ffffffe8H
  000d8	04 00 00 00	 DD	 4
  000dc	00 00 00 00	 DD	 $LN9@PMCCS_Bitw
$LN9@PMCCS_Bitw:
  000e0	65		 DB	 101			; 00000065H
  000e1	78		 DB	 120			; 00000078H
  000e2	00		 DB	 0
_TEXT	ENDS
text$x	SEGMENT
__ehhandler$_PMCCS_BitwiseOr_X_I@12:
  00000	8b 54 24 08	 mov	 edx, DWORD PTR [esp+8]
  00004	8d 42 0c	 lea	 eax, DWORD PTR [edx+12]
  00007	8b 4a dc	 mov	 ecx, DWORD PTR [edx-36]
  0000a	33 c8		 xor	 ecx, eax
  0000c	e8 00 00 00 00	 call	 @__security_check_cookie@4
  00011	b8 00 00 00 00	 mov	 eax, OFFSET __ehfuncinfo$_PMCCS_BitwiseOr_X_I@12
  00016	e9 00 00 00 00	 jmp	 ___CxxFrameHandler3
text$x	ENDS
_PMCCS_BitwiseOr_X_I@12 ENDP
; Function compile flags: /Odtp /RTCsu
; File z:\sources\lunor\repos\rougemeilland\palmtree.math.core.uint\palmtree.math.core.uint\pmc_interface_csharp.cpp
_TEXT	SEGMENT
$T2 = -32						; size = 4
_ex$3 = -24						; size = 4
__$EHRec$ = -16						; size = 16
_u$ = 8							; size = 8
_v$ = 16						; size = 4
_w$ = 20						; size = 4
_PMCCS_BitwiseOr_L_X@16 PROC

; 842  :     {

  00000	55		 push	 ebp
  00001	8b ec		 mov	 ebp, esp
  00003	6a ff		 push	 -1
  00005	68 00 00 00 00	 push	 __ehhandler$_PMCCS_BitwiseOr_L_X@16
  0000a	64 a1 00 00 00
	00		 mov	 eax, DWORD PTR fs:0
  00010	50		 push	 eax
  00011	51		 push	 ecx
  00012	83 ec 10	 sub	 esp, 16			; 00000010H
  00015	53		 push	 ebx
  00016	56		 push	 esi
  00017	57		 push	 edi
  00018	b8 cc cc cc cc	 mov	 eax, -858993460		; ccccccccH
  0001d	89 45 e0	 mov	 DWORD PTR [ebp-32], eax
  00020	89 45 e4	 mov	 DWORD PTR [ebp-28], eax
  00023	89 45 e8	 mov	 DWORD PTR [ebp-24], eax
  00026	89 45 ec	 mov	 DWORD PTR [ebp-20], eax
  00029	a1 00 00 00 00	 mov	 eax, DWORD PTR ___security_cookie
  0002e	33 c5		 xor	 eax, ebp
  00030	50		 push	 eax
  00031	8d 45 f4	 lea	 eax, DWORD PTR __$EHRec$[ebp+4]
  00034	64 a3 00 00 00
	00		 mov	 DWORD PTR fs:0, eax
  0003a	89 65 f0	 mov	 DWORD PTR __$EHRec$[ebp], esp
  0003d	b9 00 00 00 00	 mov	 ecx, OFFSET __C21BA676_pmc_interface_csharp@cpp
  00042	e8 00 00 00 00	 call	 @__CheckForDebuggerJustMyCode@4

; 843  :         if (w == nullptr)

  00047	83 7d 14 00	 cmp	 DWORD PTR _w$[ebp], 0
  0004b	75 07		 jne	 SHORT $LN2@PMCCS_Bitw

; 844  :             return (PMC_STATUS_ARGUMENT_NULL_ERROR);

  0004d	b8 fe ff ff ff	 mov	 eax, -2			; fffffffeH
  00052	eb 4b		 jmp	 SHORT $LN1@PMCCS_Bitw
$LN2@PMCCS_Bitw:

; 845  :         try

  00054	c7 45 fc 00 00
	00 00		 mov	 DWORD PTR __$EHRec$[ebp+12], 0

; 846  :         {
; 847  :             *w = PMC_BitwiseOr_L_X(u, v);

  0005b	8b 45 10	 mov	 eax, DWORD PTR _v$[ebp]
  0005e	50		 push	 eax
  0005f	8b 4d 0c	 mov	 ecx, DWORD PTR _u$[ebp+4]
  00062	51		 push	 ecx
  00063	8b 55 08	 mov	 edx, DWORD PTR _u$[ebp]
  00066	52		 push	 edx
  00067	e8 00 00 00 00	 call	 ?PMC_BitwiseOr_L_X@Internal@Core@Math@Palmtree@@YGPAU__tag_PMC_HANDLE_UINT@1234@_KPAU51234@@Z ; Palmtree::Math::Core::Internal::PMC_BitwiseOr_L_X
  0006c	8b 4d 14	 mov	 ecx, DWORD PTR _w$[ebp]
  0006f	89 01		 mov	 DWORD PTR [ecx], eax

; 848  :             return (PMC_STATUS_OK);

  00071	33 c0		 xor	 eax, eax
  00073	eb 2a		 jmp	 SHORT $LN1@PMCCS_Bitw
__catch$_PMCCS_BitwiseOr_L_X@16$0:

; 849  :         }
; 850  :         catch (const Palmtree::Math::Core::Internal::Exception& ex)
; 851  :         {
; 852  :             return (ex.GetStatusCode());

  00075	8b 4d e8	 mov	 ecx, DWORD PTR _ex$3[ebp]
  00078	e8 00 00 00 00	 call	 ?GetStatusCode@Exception@Internal@Core@Math@Palmtree@@QBEHXZ ; Palmtree::Math::Core::Internal::Exception::GetStatusCode
  0007d	89 45 e0	 mov	 DWORD PTR $T2[ebp], eax
  00080	b8 00 00 00 00	 mov	 eax, $LN8@PMCCS_Bitw
  00085	c3		 ret	 0

; 853  :         }

  00086	b8 00 00 00 00	 mov	 eax, __tryend$_PMCCS_BitwiseOr_L_X@16$1
  0008b	c3		 ret	 0
__tryend$_PMCCS_BitwiseOr_L_X@16$1:
  0008c	c7 45 fc ff ff
	ff ff		 mov	 DWORD PTR __$EHRec$[ebp+12], -1
  00093	eb 0a		 jmp	 SHORT $LN1@PMCCS_Bitw
$LN8@PMCCS_Bitw:
  00095	c7 45 fc ff ff
	ff ff		 mov	 DWORD PTR __$EHRec$[ebp+12], -1

; 849  :         }
; 850  :         catch (const Palmtree::Math::Core::Internal::Exception& ex)
; 851  :         {
; 852  :             return (ex.GetStatusCode());

  0009c	8b 45 e0	 mov	 eax, DWORD PTR $T2[ebp]
$LN1@PMCCS_Bitw:

; 854  :     }

  0009f	52		 push	 edx
  000a0	8b cd		 mov	 ecx, ebp
  000a2	50		 push	 eax
  000a3	8d 15 00 00 00
	00		 lea	 edx, DWORD PTR $LN12@PMCCS_Bitw
  000a9	e8 00 00 00 00	 call	 @_RTC_CheckStackVars@8
  000ae	58		 pop	 eax
  000af	5a		 pop	 edx
  000b0	8b 4d f4	 mov	 ecx, DWORD PTR __$EHRec$[ebp+4]
  000b3	64 89 0d 00 00
	00 00		 mov	 DWORD PTR fs:0, ecx
  000ba	59		 pop	 ecx
  000bb	5f		 pop	 edi
  000bc	5e		 pop	 esi
  000bd	5b		 pop	 ebx
  000be	83 c4 20	 add	 esp, 32			; 00000020H
  000c1	3b ec		 cmp	 ebp, esp
  000c3	e8 00 00 00 00	 call	 __RTC_CheckEsp
  000c8	8b e5		 mov	 esp, ebp
  000ca	5d		 pop	 ebp
  000cb	c2 10 00	 ret	 16			; 00000010H
  000ce	66 90		 npad	 2
$LN12@PMCCS_Bitw:
  000d0	01 00 00 00	 DD	 1
  000d4	00 00 00 00	 DD	 $LN11@PMCCS_Bitw
$LN11@PMCCS_Bitw:
  000d8	e8 ff ff ff	 DD	 -24			; ffffffe8H
  000dc	04 00 00 00	 DD	 4
  000e0	00 00 00 00	 DD	 $LN9@PMCCS_Bitw
$LN9@PMCCS_Bitw:
  000e4	65		 DB	 101			; 00000065H
  000e5	78		 DB	 120			; 00000078H
  000e6	00		 DB	 0
_TEXT	ENDS
text$x	SEGMENT
__ehhandler$_PMCCS_BitwiseOr_L_X@16:
  00000	8b 54 24 08	 mov	 edx, DWORD PTR [esp+8]
  00004	8d 42 0c	 lea	 eax, DWORD PTR [edx+12]
  00007	8b 4a dc	 mov	 ecx, DWORD PTR [edx-36]
  0000a	33 c8		 xor	 ecx, eax
  0000c	e8 00 00 00 00	 call	 @__security_check_cookie@4
  00011	b8 00 00 00 00	 mov	 eax, OFFSET __ehfuncinfo$_PMCCS_BitwiseOr_L_X@16
  00016	e9 00 00 00 00	 jmp	 ___CxxFrameHandler3
text$x	ENDS
_PMCCS_BitwiseOr_L_X@16 ENDP
; Function compile flags: /Odtp /RTCsu
; File z:\sources\lunor\repos\rougemeilland\palmtree.math.core.uint\palmtree.math.core.uint\pmc_interface_csharp.cpp
_TEXT	SEGMENT
$T2 = -32						; size = 4
_ex$3 = -24						; size = 4
__$EHRec$ = -16						; size = 16
_u$ = 8							; size = 4
_v$ = 12						; size = 4
_w$ = 16						; size = 4
_PMCCS_BitwiseOr_I_X@12 PROC

; 827  :     {

  00000	55		 push	 ebp
  00001	8b ec		 mov	 ebp, esp
  00003	6a ff		 push	 -1
  00005	68 00 00 00 00	 push	 __ehhandler$_PMCCS_BitwiseOr_I_X@12
  0000a	64 a1 00 00 00
	00		 mov	 eax, DWORD PTR fs:0
  00010	50		 push	 eax
  00011	51		 push	 ecx
  00012	83 ec 10	 sub	 esp, 16			; 00000010H
  00015	53		 push	 ebx
  00016	56		 push	 esi
  00017	57		 push	 edi
  00018	b8 cc cc cc cc	 mov	 eax, -858993460		; ccccccccH
  0001d	89 45 e0	 mov	 DWORD PTR [ebp-32], eax
  00020	89 45 e4	 mov	 DWORD PTR [ebp-28], eax
  00023	89 45 e8	 mov	 DWORD PTR [ebp-24], eax
  00026	89 45 ec	 mov	 DWORD PTR [ebp-20], eax
  00029	a1 00 00 00 00	 mov	 eax, DWORD PTR ___security_cookie
  0002e	33 c5		 xor	 eax, ebp
  00030	50		 push	 eax
  00031	8d 45 f4	 lea	 eax, DWORD PTR __$EHRec$[ebp+4]
  00034	64 a3 00 00 00
	00		 mov	 DWORD PTR fs:0, eax
  0003a	89 65 f0	 mov	 DWORD PTR __$EHRec$[ebp], esp
  0003d	b9 00 00 00 00	 mov	 ecx, OFFSET __C21BA676_pmc_interface_csharp@cpp
  00042	e8 00 00 00 00	 call	 @__CheckForDebuggerJustMyCode@4

; 828  :         if (w == nullptr)

  00047	83 7d 10 00	 cmp	 DWORD PTR _w$[ebp], 0
  0004b	75 07		 jne	 SHORT $LN2@PMCCS_Bitw

; 829  :             return (PMC_STATUS_ARGUMENT_NULL_ERROR);

  0004d	b8 fe ff ff ff	 mov	 eax, -2			; fffffffeH
  00052	eb 47		 jmp	 SHORT $LN1@PMCCS_Bitw
$LN2@PMCCS_Bitw:

; 830  :         try

  00054	c7 45 fc 00 00
	00 00		 mov	 DWORD PTR __$EHRec$[ebp+12], 0

; 831  :         {
; 832  :             *w = PMC_BitwiseOr_I_X(u, v);

  0005b	8b 45 0c	 mov	 eax, DWORD PTR _v$[ebp]
  0005e	50		 push	 eax
  0005f	8b 4d 08	 mov	 ecx, DWORD PTR _u$[ebp]
  00062	51		 push	 ecx
  00063	e8 00 00 00 00	 call	 ?PMC_BitwiseOr_I_X@Internal@Core@Math@Palmtree@@YGPAU__tag_PMC_HANDLE_UINT@1234@IPAU51234@@Z ; Palmtree::Math::Core::Internal::PMC_BitwiseOr_I_X
  00068	8b 55 10	 mov	 edx, DWORD PTR _w$[ebp]
  0006b	89 02		 mov	 DWORD PTR [edx], eax

; 833  :             return (PMC_STATUS_OK);

  0006d	33 c0		 xor	 eax, eax
  0006f	eb 2a		 jmp	 SHORT $LN1@PMCCS_Bitw
__catch$_PMCCS_BitwiseOr_I_X@12$0:

; 834  :         }
; 835  :         catch (const Palmtree::Math::Core::Internal::Exception& ex)
; 836  :         {
; 837  :             return (ex.GetStatusCode());

  00071	8b 4d e8	 mov	 ecx, DWORD PTR _ex$3[ebp]
  00074	e8 00 00 00 00	 call	 ?GetStatusCode@Exception@Internal@Core@Math@Palmtree@@QBEHXZ ; Palmtree::Math::Core::Internal::Exception::GetStatusCode
  00079	89 45 e0	 mov	 DWORD PTR $T2[ebp], eax
  0007c	b8 00 00 00 00	 mov	 eax, $LN8@PMCCS_Bitw
  00081	c3		 ret	 0

; 838  :         }

  00082	b8 00 00 00 00	 mov	 eax, __tryend$_PMCCS_BitwiseOr_I_X@12$1
  00087	c3		 ret	 0
__tryend$_PMCCS_BitwiseOr_I_X@12$1:
  00088	c7 45 fc ff ff
	ff ff		 mov	 DWORD PTR __$EHRec$[ebp+12], -1
  0008f	eb 0a		 jmp	 SHORT $LN1@PMCCS_Bitw
$LN8@PMCCS_Bitw:
  00091	c7 45 fc ff ff
	ff ff		 mov	 DWORD PTR __$EHRec$[ebp+12], -1

; 834  :         }
; 835  :         catch (const Palmtree::Math::Core::Internal::Exception& ex)
; 836  :         {
; 837  :             return (ex.GetStatusCode());

  00098	8b 45 e0	 mov	 eax, DWORD PTR $T2[ebp]
$LN1@PMCCS_Bitw:

; 839  :     }

  0009b	52		 push	 edx
  0009c	8b cd		 mov	 ecx, ebp
  0009e	50		 push	 eax
  0009f	8d 15 00 00 00
	00		 lea	 edx, DWORD PTR $LN12@PMCCS_Bitw
  000a5	e8 00 00 00 00	 call	 @_RTC_CheckStackVars@8
  000aa	58		 pop	 eax
  000ab	5a		 pop	 edx
  000ac	8b 4d f4	 mov	 ecx, DWORD PTR __$EHRec$[ebp+4]
  000af	64 89 0d 00 00
	00 00		 mov	 DWORD PTR fs:0, ecx
  000b6	59		 pop	 ecx
  000b7	5f		 pop	 edi
  000b8	5e		 pop	 esi
  000b9	5b		 pop	 ebx
  000ba	83 c4 20	 add	 esp, 32			; 00000020H
  000bd	3b ec		 cmp	 ebp, esp
  000bf	e8 00 00 00 00	 call	 __RTC_CheckEsp
  000c4	8b e5		 mov	 esp, ebp
  000c6	5d		 pop	 ebp
  000c7	c2 0c 00	 ret	 12			; 0000000cH
  000ca	66 90		 npad	 2
$LN12@PMCCS_Bitw:
  000cc	01 00 00 00	 DD	 1
  000d0	00 00 00 00	 DD	 $LN11@PMCCS_Bitw
$LN11@PMCCS_Bitw:
  000d4	e8 ff ff ff	 DD	 -24			; ffffffe8H
  000d8	04 00 00 00	 DD	 4
  000dc	00 00 00 00	 DD	 $LN9@PMCCS_Bitw
$LN9@PMCCS_Bitw:
  000e0	65		 DB	 101			; 00000065H
  000e1	78		 DB	 120			; 00000078H
  000e2	00		 DB	 0
_TEXT	ENDS
text$x	SEGMENT
__ehhandler$_PMCCS_BitwiseOr_I_X@12:
  00000	8b 54 24 08	 mov	 edx, DWORD PTR [esp+8]
  00004	8d 42 0c	 lea	 eax, DWORD PTR [edx+12]
  00007	8b 4a dc	 mov	 ecx, DWORD PTR [edx-36]
  0000a	33 c8		 xor	 ecx, eax
  0000c	e8 00 00 00 00	 call	 @__security_check_cookie@4
  00011	b8 00 00 00 00	 mov	 eax, OFFSET __ehfuncinfo$_PMCCS_BitwiseOr_I_X@12
  00016	e9 00 00 00 00	 jmp	 ___CxxFrameHandler3
text$x	ENDS
_PMCCS_BitwiseOr_I_X@12 ENDP
; Function compile flags: /Odtp /RTCsu
; File z:\sources\lunor\repos\rougemeilland\palmtree.math.core.uint\palmtree.math.core.uint\pmc_interface_csharp.cpp
_TEXT	SEGMENT
$T2 = -32						; size = 4
_ex$3 = -24						; size = 4
__$EHRec$ = -16						; size = 16
_u$ = 8							; size = 4
_v$ = 12						; size = 4
_w$ = 16						; size = 4
_PMCCS_BitwiseAnd_X_X@12 PROC

; 812  :     {

  00000	55		 push	 ebp
  00001	8b ec		 mov	 ebp, esp
  00003	6a ff		 push	 -1
  00005	68 00 00 00 00	 push	 __ehhandler$_PMCCS_BitwiseAnd_X_X@12
  0000a	64 a1 00 00 00
	00		 mov	 eax, DWORD PTR fs:0
  00010	50		 push	 eax
  00011	51		 push	 ecx
  00012	83 ec 10	 sub	 esp, 16			; 00000010H
  00015	53		 push	 ebx
  00016	56		 push	 esi
  00017	57		 push	 edi
  00018	b8 cc cc cc cc	 mov	 eax, -858993460		; ccccccccH
  0001d	89 45 e0	 mov	 DWORD PTR [ebp-32], eax
  00020	89 45 e4	 mov	 DWORD PTR [ebp-28], eax
  00023	89 45 e8	 mov	 DWORD PTR [ebp-24], eax
  00026	89 45 ec	 mov	 DWORD PTR [ebp-20], eax
  00029	a1 00 00 00 00	 mov	 eax, DWORD PTR ___security_cookie
  0002e	33 c5		 xor	 eax, ebp
  00030	50		 push	 eax
  00031	8d 45 f4	 lea	 eax, DWORD PTR __$EHRec$[ebp+4]
  00034	64 a3 00 00 00
	00		 mov	 DWORD PTR fs:0, eax
  0003a	89 65 f0	 mov	 DWORD PTR __$EHRec$[ebp], esp
  0003d	b9 00 00 00 00	 mov	 ecx, OFFSET __C21BA676_pmc_interface_csharp@cpp
  00042	e8 00 00 00 00	 call	 @__CheckForDebuggerJustMyCode@4

; 813  :         if (w == nullptr)

  00047	83 7d 10 00	 cmp	 DWORD PTR _w$[ebp], 0
  0004b	75 07		 jne	 SHORT $LN2@PMCCS_Bitw

; 814  :             return (PMC_STATUS_ARGUMENT_NULL_ERROR);

  0004d	b8 fe ff ff ff	 mov	 eax, -2			; fffffffeH
  00052	eb 47		 jmp	 SHORT $LN1@PMCCS_Bitw
$LN2@PMCCS_Bitw:

; 815  :         try

  00054	c7 45 fc 00 00
	00 00		 mov	 DWORD PTR __$EHRec$[ebp+12], 0

; 816  :         {
; 817  :             *w = PMC_BitwiseAnd_X_X(u, v);

  0005b	8b 45 0c	 mov	 eax, DWORD PTR _v$[ebp]
  0005e	50		 push	 eax
  0005f	8b 4d 08	 mov	 ecx, DWORD PTR _u$[ebp]
  00062	51		 push	 ecx
  00063	e8 00 00 00 00	 call	 ?PMC_BitwiseAnd_X_X@Internal@Core@Math@Palmtree@@YGPAU__tag_PMC_HANDLE_UINT@1234@PAU51234@0@Z ; Palmtree::Math::Core::Internal::PMC_BitwiseAnd_X_X
  00068	8b 55 10	 mov	 edx, DWORD PTR _w$[ebp]
  0006b	89 02		 mov	 DWORD PTR [edx], eax

; 818  :             return (PMC_STATUS_OK);

  0006d	33 c0		 xor	 eax, eax
  0006f	eb 2a		 jmp	 SHORT $LN1@PMCCS_Bitw
__catch$_PMCCS_BitwiseAnd_X_X@12$0:

; 819  :         }
; 820  :         catch (const Palmtree::Math::Core::Internal::Exception& ex)
; 821  :         {
; 822  :             return (ex.GetStatusCode());

  00071	8b 4d e8	 mov	 ecx, DWORD PTR _ex$3[ebp]
  00074	e8 00 00 00 00	 call	 ?GetStatusCode@Exception@Internal@Core@Math@Palmtree@@QBEHXZ ; Palmtree::Math::Core::Internal::Exception::GetStatusCode
  00079	89 45 e0	 mov	 DWORD PTR $T2[ebp], eax
  0007c	b8 00 00 00 00	 mov	 eax, $LN8@PMCCS_Bitw
  00081	c3		 ret	 0

; 823  :         }

  00082	b8 00 00 00 00	 mov	 eax, __tryend$_PMCCS_BitwiseAnd_X_X@12$1
  00087	c3		 ret	 0
__tryend$_PMCCS_BitwiseAnd_X_X@12$1:
  00088	c7 45 fc ff ff
	ff ff		 mov	 DWORD PTR __$EHRec$[ebp+12], -1
  0008f	eb 0a		 jmp	 SHORT $LN1@PMCCS_Bitw
$LN8@PMCCS_Bitw:
  00091	c7 45 fc ff ff
	ff ff		 mov	 DWORD PTR __$EHRec$[ebp+12], -1

; 819  :         }
; 820  :         catch (const Palmtree::Math::Core::Internal::Exception& ex)
; 821  :         {
; 822  :             return (ex.GetStatusCode());

  00098	8b 45 e0	 mov	 eax, DWORD PTR $T2[ebp]
$LN1@PMCCS_Bitw:

; 824  :     }

  0009b	52		 push	 edx
  0009c	8b cd		 mov	 ecx, ebp
  0009e	50		 push	 eax
  0009f	8d 15 00 00 00
	00		 lea	 edx, DWORD PTR $LN12@PMCCS_Bitw
  000a5	e8 00 00 00 00	 call	 @_RTC_CheckStackVars@8
  000aa	58		 pop	 eax
  000ab	5a		 pop	 edx
  000ac	8b 4d f4	 mov	 ecx, DWORD PTR __$EHRec$[ebp+4]
  000af	64 89 0d 00 00
	00 00		 mov	 DWORD PTR fs:0, ecx
  000b6	59		 pop	 ecx
  000b7	5f		 pop	 edi
  000b8	5e		 pop	 esi
  000b9	5b		 pop	 ebx
  000ba	83 c4 20	 add	 esp, 32			; 00000020H
  000bd	3b ec		 cmp	 ebp, esp
  000bf	e8 00 00 00 00	 call	 __RTC_CheckEsp
  000c4	8b e5		 mov	 esp, ebp
  000c6	5d		 pop	 ebp
  000c7	c2 0c 00	 ret	 12			; 0000000cH
  000ca	66 90		 npad	 2
$LN12@PMCCS_Bitw:
  000cc	01 00 00 00	 DD	 1
  000d0	00 00 00 00	 DD	 $LN11@PMCCS_Bitw
$LN11@PMCCS_Bitw:
  000d4	e8 ff ff ff	 DD	 -24			; ffffffe8H
  000d8	04 00 00 00	 DD	 4
  000dc	00 00 00 00	 DD	 $LN9@PMCCS_Bitw
$LN9@PMCCS_Bitw:
  000e0	65		 DB	 101			; 00000065H
  000e1	78		 DB	 120			; 00000078H
  000e2	00		 DB	 0
_TEXT	ENDS
text$x	SEGMENT
__ehhandler$_PMCCS_BitwiseAnd_X_X@12:
  00000	8b 54 24 08	 mov	 edx, DWORD PTR [esp+8]
  00004	8d 42 0c	 lea	 eax, DWORD PTR [edx+12]
  00007	8b 4a dc	 mov	 ecx, DWORD PTR [edx-36]
  0000a	33 c8		 xor	 ecx, eax
  0000c	e8 00 00 00 00	 call	 @__security_check_cookie@4
  00011	b8 00 00 00 00	 mov	 eax, OFFSET __ehfuncinfo$_PMCCS_BitwiseAnd_X_X@12
  00016	e9 00 00 00 00	 jmp	 ___CxxFrameHandler3
text$x	ENDS
_PMCCS_BitwiseAnd_X_X@12 ENDP
; Function compile flags: /Odtp /RTCsu
; File z:\sources\lunor\repos\rougemeilland\palmtree.math.core.uint\palmtree.math.core.uint\pmc_interface_csharp.cpp
_TEXT	SEGMENT
$T2 = -32						; size = 4
_ex$3 = -24						; size = 4
__$EHRec$ = -16						; size = 16
_u$ = 8							; size = 4
_v$ = 12						; size = 8
_w$ = 20						; size = 4
_PMCCS_BitwiseAnd_X_L@16 PROC

; 797  :     {

  00000	55		 push	 ebp
  00001	8b ec		 mov	 ebp, esp
  00003	6a ff		 push	 -1
  00005	68 00 00 00 00	 push	 __ehhandler$_PMCCS_BitwiseAnd_X_L@16
  0000a	64 a1 00 00 00
	00		 mov	 eax, DWORD PTR fs:0
  00010	50		 push	 eax
  00011	51		 push	 ecx
  00012	83 ec 10	 sub	 esp, 16			; 00000010H
  00015	53		 push	 ebx
  00016	56		 push	 esi
  00017	57		 push	 edi
  00018	b8 cc cc cc cc	 mov	 eax, -858993460		; ccccccccH
  0001d	89 45 e0	 mov	 DWORD PTR [ebp-32], eax
  00020	89 45 e4	 mov	 DWORD PTR [ebp-28], eax
  00023	89 45 e8	 mov	 DWORD PTR [ebp-24], eax
  00026	89 45 ec	 mov	 DWORD PTR [ebp-20], eax
  00029	a1 00 00 00 00	 mov	 eax, DWORD PTR ___security_cookie
  0002e	33 c5		 xor	 eax, ebp
  00030	50		 push	 eax
  00031	8d 45 f4	 lea	 eax, DWORD PTR __$EHRec$[ebp+4]
  00034	64 a3 00 00 00
	00		 mov	 DWORD PTR fs:0, eax
  0003a	89 65 f0	 mov	 DWORD PTR __$EHRec$[ebp], esp
  0003d	b9 00 00 00 00	 mov	 ecx, OFFSET __C21BA676_pmc_interface_csharp@cpp
  00042	e8 00 00 00 00	 call	 @__CheckForDebuggerJustMyCode@4

; 798  :         if (w == nullptr)

  00047	83 7d 14 00	 cmp	 DWORD PTR _w$[ebp], 0
  0004b	75 07		 jne	 SHORT $LN2@PMCCS_Bitw

; 799  :             return (PMC_STATUS_ARGUMENT_NULL_ERROR);

  0004d	b8 fe ff ff ff	 mov	 eax, -2			; fffffffeH
  00052	eb 4e		 jmp	 SHORT $LN1@PMCCS_Bitw
$LN2@PMCCS_Bitw:

; 800  :         try

  00054	c7 45 fc 00 00
	00 00		 mov	 DWORD PTR __$EHRec$[ebp+12], 0

; 801  :         {
; 802  :             *w = PMC_BitwiseAnd_X_L(u, v);

  0005b	8b 45 10	 mov	 eax, DWORD PTR _v$[ebp+4]
  0005e	50		 push	 eax
  0005f	8b 4d 0c	 mov	 ecx, DWORD PTR _v$[ebp]
  00062	51		 push	 ecx
  00063	8b 55 08	 mov	 edx, DWORD PTR _u$[ebp]
  00066	52		 push	 edx
  00067	e8 00 00 00 00	 call	 ?PMC_BitwiseAnd_X_L@Internal@Core@Math@Palmtree@@YG_KPAU__tag_PMC_HANDLE_UINT@1234@_K@Z ; Palmtree::Math::Core::Internal::PMC_BitwiseAnd_X_L
  0006c	8b 4d 14	 mov	 ecx, DWORD PTR _w$[ebp]
  0006f	89 01		 mov	 DWORD PTR [ecx], eax
  00071	89 51 04	 mov	 DWORD PTR [ecx+4], edx

; 803  :             return (PMC_STATUS_OK);

  00074	33 c0		 xor	 eax, eax
  00076	eb 2a		 jmp	 SHORT $LN1@PMCCS_Bitw
__catch$_PMCCS_BitwiseAnd_X_L@16$0:

; 804  :         }
; 805  :         catch (const Palmtree::Math::Core::Internal::Exception& ex)
; 806  :         {
; 807  :             return (ex.GetStatusCode());

  00078	8b 4d e8	 mov	 ecx, DWORD PTR _ex$3[ebp]
  0007b	e8 00 00 00 00	 call	 ?GetStatusCode@Exception@Internal@Core@Math@Palmtree@@QBEHXZ ; Palmtree::Math::Core::Internal::Exception::GetStatusCode
  00080	89 45 e0	 mov	 DWORD PTR $T2[ebp], eax
  00083	b8 00 00 00 00	 mov	 eax, $LN8@PMCCS_Bitw
  00088	c3		 ret	 0

; 808  :         }

  00089	b8 00 00 00 00	 mov	 eax, __tryend$_PMCCS_BitwiseAnd_X_L@16$1
  0008e	c3		 ret	 0
__tryend$_PMCCS_BitwiseAnd_X_L@16$1:
  0008f	c7 45 fc ff ff
	ff ff		 mov	 DWORD PTR __$EHRec$[ebp+12], -1
  00096	eb 0a		 jmp	 SHORT $LN1@PMCCS_Bitw
$LN8@PMCCS_Bitw:
  00098	c7 45 fc ff ff
	ff ff		 mov	 DWORD PTR __$EHRec$[ebp+12], -1

; 804  :         }
; 805  :         catch (const Palmtree::Math::Core::Internal::Exception& ex)
; 806  :         {
; 807  :             return (ex.GetStatusCode());

  0009f	8b 45 e0	 mov	 eax, DWORD PTR $T2[ebp]
$LN1@PMCCS_Bitw:

; 809  :     }

  000a2	52		 push	 edx
  000a3	8b cd		 mov	 ecx, ebp
  000a5	50		 push	 eax
  000a6	8d 15 00 00 00
	00		 lea	 edx, DWORD PTR $LN12@PMCCS_Bitw
  000ac	e8 00 00 00 00	 call	 @_RTC_CheckStackVars@8
  000b1	58		 pop	 eax
  000b2	5a		 pop	 edx
  000b3	8b 4d f4	 mov	 ecx, DWORD PTR __$EHRec$[ebp+4]
  000b6	64 89 0d 00 00
	00 00		 mov	 DWORD PTR fs:0, ecx
  000bd	59		 pop	 ecx
  000be	5f		 pop	 edi
  000bf	5e		 pop	 esi
  000c0	5b		 pop	 ebx
  000c1	83 c4 20	 add	 esp, 32			; 00000020H
  000c4	3b ec		 cmp	 ebp, esp
  000c6	e8 00 00 00 00	 call	 __RTC_CheckEsp
  000cb	8b e5		 mov	 esp, ebp
  000cd	5d		 pop	 ebp
  000ce	c2 10 00	 ret	 16			; 00000010H
  000d1	0f 1f 00	 npad	 3
$LN12@PMCCS_Bitw:
  000d4	01 00 00 00	 DD	 1
  000d8	00 00 00 00	 DD	 $LN11@PMCCS_Bitw
$LN11@PMCCS_Bitw:
  000dc	e8 ff ff ff	 DD	 -24			; ffffffe8H
  000e0	04 00 00 00	 DD	 4
  000e4	00 00 00 00	 DD	 $LN9@PMCCS_Bitw
$LN9@PMCCS_Bitw:
  000e8	65		 DB	 101			; 00000065H
  000e9	78		 DB	 120			; 00000078H
  000ea	00		 DB	 0
_TEXT	ENDS
text$x	SEGMENT
__ehhandler$_PMCCS_BitwiseAnd_X_L@16:
  00000	8b 54 24 08	 mov	 edx, DWORD PTR [esp+8]
  00004	8d 42 0c	 lea	 eax, DWORD PTR [edx+12]
  00007	8b 4a dc	 mov	 ecx, DWORD PTR [edx-36]
  0000a	33 c8		 xor	 ecx, eax
  0000c	e8 00 00 00 00	 call	 @__security_check_cookie@4
  00011	b8 00 00 00 00	 mov	 eax, OFFSET __ehfuncinfo$_PMCCS_BitwiseAnd_X_L@16
  00016	e9 00 00 00 00	 jmp	 ___CxxFrameHandler3
text$x	ENDS
_PMCCS_BitwiseAnd_X_L@16 ENDP
; Function compile flags: /Odtp /RTCsu
; File z:\sources\lunor\repos\rougemeilland\palmtree.math.core.uint\palmtree.math.core.uint\pmc_interface_csharp.cpp
_TEXT	SEGMENT
$T2 = -32						; size = 4
_ex$3 = -24						; size = 4
__$EHRec$ = -16						; size = 16
_u$ = 8							; size = 4
_v$ = 12						; size = 4
_w$ = 16						; size = 4
_PMCCS_BitwiseAnd_X_I@12 PROC

; 782  :     {

  00000	55		 push	 ebp
  00001	8b ec		 mov	 ebp, esp
  00003	6a ff		 push	 -1
  00005	68 00 00 00 00	 push	 __ehhandler$_PMCCS_BitwiseAnd_X_I@12
  0000a	64 a1 00 00 00
	00		 mov	 eax, DWORD PTR fs:0
  00010	50		 push	 eax
  00011	51		 push	 ecx
  00012	83 ec 10	 sub	 esp, 16			; 00000010H
  00015	53		 push	 ebx
  00016	56		 push	 esi
  00017	57		 push	 edi
  00018	b8 cc cc cc cc	 mov	 eax, -858993460		; ccccccccH
  0001d	89 45 e0	 mov	 DWORD PTR [ebp-32], eax
  00020	89 45 e4	 mov	 DWORD PTR [ebp-28], eax
  00023	89 45 e8	 mov	 DWORD PTR [ebp-24], eax
  00026	89 45 ec	 mov	 DWORD PTR [ebp-20], eax
  00029	a1 00 00 00 00	 mov	 eax, DWORD PTR ___security_cookie
  0002e	33 c5		 xor	 eax, ebp
  00030	50		 push	 eax
  00031	8d 45 f4	 lea	 eax, DWORD PTR __$EHRec$[ebp+4]
  00034	64 a3 00 00 00
	00		 mov	 DWORD PTR fs:0, eax
  0003a	89 65 f0	 mov	 DWORD PTR __$EHRec$[ebp], esp
  0003d	b9 00 00 00 00	 mov	 ecx, OFFSET __C21BA676_pmc_interface_csharp@cpp
  00042	e8 00 00 00 00	 call	 @__CheckForDebuggerJustMyCode@4

; 783  :         if (w == nullptr)

  00047	83 7d 10 00	 cmp	 DWORD PTR _w$[ebp], 0
  0004b	75 07		 jne	 SHORT $LN2@PMCCS_Bitw

; 784  :             return (PMC_STATUS_ARGUMENT_NULL_ERROR);

  0004d	b8 fe ff ff ff	 mov	 eax, -2			; fffffffeH
  00052	eb 47		 jmp	 SHORT $LN1@PMCCS_Bitw
$LN2@PMCCS_Bitw:

; 785  :         try

  00054	c7 45 fc 00 00
	00 00		 mov	 DWORD PTR __$EHRec$[ebp+12], 0

; 786  :         {
; 787  :             *w = PMC_BitwiseAnd_X_I(u, v);

  0005b	8b 45 0c	 mov	 eax, DWORD PTR _v$[ebp]
  0005e	50		 push	 eax
  0005f	8b 4d 08	 mov	 ecx, DWORD PTR _u$[ebp]
  00062	51		 push	 ecx
  00063	e8 00 00 00 00	 call	 ?PMC_BitwiseAnd_X_I@Internal@Core@Math@Palmtree@@YGIPAU__tag_PMC_HANDLE_UINT@1234@I@Z ; Palmtree::Math::Core::Internal::PMC_BitwiseAnd_X_I
  00068	8b 55 10	 mov	 edx, DWORD PTR _w$[ebp]
  0006b	89 02		 mov	 DWORD PTR [edx], eax

; 788  :             return (PMC_STATUS_OK);

  0006d	33 c0		 xor	 eax, eax
  0006f	eb 2a		 jmp	 SHORT $LN1@PMCCS_Bitw
__catch$_PMCCS_BitwiseAnd_X_I@12$0:

; 789  :         }
; 790  :         catch (const Palmtree::Math::Core::Internal::Exception& ex)
; 791  :         {
; 792  :             return (ex.GetStatusCode());

  00071	8b 4d e8	 mov	 ecx, DWORD PTR _ex$3[ebp]
  00074	e8 00 00 00 00	 call	 ?GetStatusCode@Exception@Internal@Core@Math@Palmtree@@QBEHXZ ; Palmtree::Math::Core::Internal::Exception::GetStatusCode
  00079	89 45 e0	 mov	 DWORD PTR $T2[ebp], eax
  0007c	b8 00 00 00 00	 mov	 eax, $LN8@PMCCS_Bitw
  00081	c3		 ret	 0

; 793  :         }

  00082	b8 00 00 00 00	 mov	 eax, __tryend$_PMCCS_BitwiseAnd_X_I@12$1
  00087	c3		 ret	 0
__tryend$_PMCCS_BitwiseAnd_X_I@12$1:
  00088	c7 45 fc ff ff
	ff ff		 mov	 DWORD PTR __$EHRec$[ebp+12], -1
  0008f	eb 0a		 jmp	 SHORT $LN1@PMCCS_Bitw
$LN8@PMCCS_Bitw:
  00091	c7 45 fc ff ff
	ff ff		 mov	 DWORD PTR __$EHRec$[ebp+12], -1

; 789  :         }
; 790  :         catch (const Palmtree::Math::Core::Internal::Exception& ex)
; 791  :         {
; 792  :             return (ex.GetStatusCode());

  00098	8b 45 e0	 mov	 eax, DWORD PTR $T2[ebp]
$LN1@PMCCS_Bitw:

; 794  :     }

  0009b	52		 push	 edx
  0009c	8b cd		 mov	 ecx, ebp
  0009e	50		 push	 eax
  0009f	8d 15 00 00 00
	00		 lea	 edx, DWORD PTR $LN12@PMCCS_Bitw
  000a5	e8 00 00 00 00	 call	 @_RTC_CheckStackVars@8
  000aa	58		 pop	 eax
  000ab	5a		 pop	 edx
  000ac	8b 4d f4	 mov	 ecx, DWORD PTR __$EHRec$[ebp+4]
  000af	64 89 0d 00 00
	00 00		 mov	 DWORD PTR fs:0, ecx
  000b6	59		 pop	 ecx
  000b7	5f		 pop	 edi
  000b8	5e		 pop	 esi
  000b9	5b		 pop	 ebx
  000ba	83 c4 20	 add	 esp, 32			; 00000020H
  000bd	3b ec		 cmp	 ebp, esp
  000bf	e8 00 00 00 00	 call	 __RTC_CheckEsp
  000c4	8b e5		 mov	 esp, ebp
  000c6	5d		 pop	 ebp
  000c7	c2 0c 00	 ret	 12			; 0000000cH
  000ca	66 90		 npad	 2
$LN12@PMCCS_Bitw:
  000cc	01 00 00 00	 DD	 1
  000d0	00 00 00 00	 DD	 $LN11@PMCCS_Bitw
$LN11@PMCCS_Bitw:
  000d4	e8 ff ff ff	 DD	 -24			; ffffffe8H
  000d8	04 00 00 00	 DD	 4
  000dc	00 00 00 00	 DD	 $LN9@PMCCS_Bitw
$LN9@PMCCS_Bitw:
  000e0	65		 DB	 101			; 00000065H
  000e1	78		 DB	 120			; 00000078H
  000e2	00		 DB	 0
_TEXT	ENDS
text$x	SEGMENT
__ehhandler$_PMCCS_BitwiseAnd_X_I@12:
  00000	8b 54 24 08	 mov	 edx, DWORD PTR [esp+8]
  00004	8d 42 0c	 lea	 eax, DWORD PTR [edx+12]
  00007	8b 4a dc	 mov	 ecx, DWORD PTR [edx-36]
  0000a	33 c8		 xor	 ecx, eax
  0000c	e8 00 00 00 00	 call	 @__security_check_cookie@4
  00011	b8 00 00 00 00	 mov	 eax, OFFSET __ehfuncinfo$_PMCCS_BitwiseAnd_X_I@12
  00016	e9 00 00 00 00	 jmp	 ___CxxFrameHandler3
text$x	ENDS
_PMCCS_BitwiseAnd_X_I@12 ENDP
; Function compile flags: /Odtp /RTCsu
; File z:\sources\lunor\repos\rougemeilland\palmtree.math.core.uint\palmtree.math.core.uint\pmc_interface_csharp.cpp
_TEXT	SEGMENT
$T2 = -32						; size = 4
_ex$3 = -24						; size = 4
__$EHRec$ = -16						; size = 16
_u$ = 8							; size = 8
_v$ = 16						; size = 4
_w$ = 20						; size = 4
_PMCCS_BitwiseAnd_L_X@16 PROC

; 767  :     {

  00000	55		 push	 ebp
  00001	8b ec		 mov	 ebp, esp
  00003	6a ff		 push	 -1
  00005	68 00 00 00 00	 push	 __ehhandler$_PMCCS_BitwiseAnd_L_X@16
  0000a	64 a1 00 00 00
	00		 mov	 eax, DWORD PTR fs:0
  00010	50		 push	 eax
  00011	51		 push	 ecx
  00012	83 ec 10	 sub	 esp, 16			; 00000010H
  00015	53		 push	 ebx
  00016	56		 push	 esi
  00017	57		 push	 edi
  00018	b8 cc cc cc cc	 mov	 eax, -858993460		; ccccccccH
  0001d	89 45 e0	 mov	 DWORD PTR [ebp-32], eax
  00020	89 45 e4	 mov	 DWORD PTR [ebp-28], eax
  00023	89 45 e8	 mov	 DWORD PTR [ebp-24], eax
  00026	89 45 ec	 mov	 DWORD PTR [ebp-20], eax
  00029	a1 00 00 00 00	 mov	 eax, DWORD PTR ___security_cookie
  0002e	33 c5		 xor	 eax, ebp
  00030	50		 push	 eax
  00031	8d 45 f4	 lea	 eax, DWORD PTR __$EHRec$[ebp+4]
  00034	64 a3 00 00 00
	00		 mov	 DWORD PTR fs:0, eax
  0003a	89 65 f0	 mov	 DWORD PTR __$EHRec$[ebp], esp
  0003d	b9 00 00 00 00	 mov	 ecx, OFFSET __C21BA676_pmc_interface_csharp@cpp
  00042	e8 00 00 00 00	 call	 @__CheckForDebuggerJustMyCode@4

; 768  :         if (w == nullptr)

  00047	83 7d 14 00	 cmp	 DWORD PTR _w$[ebp], 0
  0004b	75 07		 jne	 SHORT $LN2@PMCCS_Bitw

; 769  :             return (PMC_STATUS_ARGUMENT_NULL_ERROR);

  0004d	b8 fe ff ff ff	 mov	 eax, -2			; fffffffeH
  00052	eb 4e		 jmp	 SHORT $LN1@PMCCS_Bitw
$LN2@PMCCS_Bitw:

; 770  :         try

  00054	c7 45 fc 00 00
	00 00		 mov	 DWORD PTR __$EHRec$[ebp+12], 0

; 771  :         {
; 772  :             *w = PMC_BitwiseAnd_L_X(u, v);

  0005b	8b 45 10	 mov	 eax, DWORD PTR _v$[ebp]
  0005e	50		 push	 eax
  0005f	8b 4d 0c	 mov	 ecx, DWORD PTR _u$[ebp+4]
  00062	51		 push	 ecx
  00063	8b 55 08	 mov	 edx, DWORD PTR _u$[ebp]
  00066	52		 push	 edx
  00067	e8 00 00 00 00	 call	 ?PMC_BitwiseAnd_L_X@Internal@Core@Math@Palmtree@@YG_K_KPAU__tag_PMC_HANDLE_UINT@1234@@Z ; Palmtree::Math::Core::Internal::PMC_BitwiseAnd_L_X
  0006c	8b 4d 14	 mov	 ecx, DWORD PTR _w$[ebp]
  0006f	89 01		 mov	 DWORD PTR [ecx], eax
  00071	89 51 04	 mov	 DWORD PTR [ecx+4], edx

; 773  :             return (PMC_STATUS_OK);

  00074	33 c0		 xor	 eax, eax
  00076	eb 2a		 jmp	 SHORT $LN1@PMCCS_Bitw
__catch$_PMCCS_BitwiseAnd_L_X@16$0:

; 774  :         }
; 775  :         catch (const Palmtree::Math::Core::Internal::Exception& ex)
; 776  :         {
; 777  :             return (ex.GetStatusCode());

  00078	8b 4d e8	 mov	 ecx, DWORD PTR _ex$3[ebp]
  0007b	e8 00 00 00 00	 call	 ?GetStatusCode@Exception@Internal@Core@Math@Palmtree@@QBEHXZ ; Palmtree::Math::Core::Internal::Exception::GetStatusCode
  00080	89 45 e0	 mov	 DWORD PTR $T2[ebp], eax
  00083	b8 00 00 00 00	 mov	 eax, $LN8@PMCCS_Bitw
  00088	c3		 ret	 0

; 778  :         }

  00089	b8 00 00 00 00	 mov	 eax, __tryend$_PMCCS_BitwiseAnd_L_X@16$1
  0008e	c3		 ret	 0
__tryend$_PMCCS_BitwiseAnd_L_X@16$1:
  0008f	c7 45 fc ff ff
	ff ff		 mov	 DWORD PTR __$EHRec$[ebp+12], -1
  00096	eb 0a		 jmp	 SHORT $LN1@PMCCS_Bitw
$LN8@PMCCS_Bitw:
  00098	c7 45 fc ff ff
	ff ff		 mov	 DWORD PTR __$EHRec$[ebp+12], -1

; 774  :         }
; 775  :         catch (const Palmtree::Math::Core::Internal::Exception& ex)
; 776  :         {
; 777  :             return (ex.GetStatusCode());

  0009f	8b 45 e0	 mov	 eax, DWORD PTR $T2[ebp]
$LN1@PMCCS_Bitw:

; 779  :     }

  000a2	52		 push	 edx
  000a3	8b cd		 mov	 ecx, ebp
  000a5	50		 push	 eax
  000a6	8d 15 00 00 00
	00		 lea	 edx, DWORD PTR $LN12@PMCCS_Bitw
  000ac	e8 00 00 00 00	 call	 @_RTC_CheckStackVars@8
  000b1	58		 pop	 eax
  000b2	5a		 pop	 edx
  000b3	8b 4d f4	 mov	 ecx, DWORD PTR __$EHRec$[ebp+4]
  000b6	64 89 0d 00 00
	00 00		 mov	 DWORD PTR fs:0, ecx
  000bd	59		 pop	 ecx
  000be	5f		 pop	 edi
  000bf	5e		 pop	 esi
  000c0	5b		 pop	 ebx
  000c1	83 c4 20	 add	 esp, 32			; 00000020H
  000c4	3b ec		 cmp	 ebp, esp
  000c6	e8 00 00 00 00	 call	 __RTC_CheckEsp
  000cb	8b e5		 mov	 esp, ebp
  000cd	5d		 pop	 ebp
  000ce	c2 10 00	 ret	 16			; 00000010H
  000d1	0f 1f 00	 npad	 3
$LN12@PMCCS_Bitw:
  000d4	01 00 00 00	 DD	 1
  000d8	00 00 00 00	 DD	 $LN11@PMCCS_Bitw
$LN11@PMCCS_Bitw:
  000dc	e8 ff ff ff	 DD	 -24			; ffffffe8H
  000e0	04 00 00 00	 DD	 4
  000e4	00 00 00 00	 DD	 $LN9@PMCCS_Bitw
$LN9@PMCCS_Bitw:
  000e8	65		 DB	 101			; 00000065H
  000e9	78		 DB	 120			; 00000078H
  000ea	00		 DB	 0
_TEXT	ENDS
text$x	SEGMENT
__ehhandler$_PMCCS_BitwiseAnd_L_X@16:
  00000	8b 54 24 08	 mov	 edx, DWORD PTR [esp+8]
  00004	8d 42 0c	 lea	 eax, DWORD PTR [edx+12]
  00007	8b 4a dc	 mov	 ecx, DWORD PTR [edx-36]
  0000a	33 c8		 xor	 ecx, eax
  0000c	e8 00 00 00 00	 call	 @__security_check_cookie@4
  00011	b8 00 00 00 00	 mov	 eax, OFFSET __ehfuncinfo$_PMCCS_BitwiseAnd_L_X@16
  00016	e9 00 00 00 00	 jmp	 ___CxxFrameHandler3
text$x	ENDS
_PMCCS_BitwiseAnd_L_X@16 ENDP
; Function compile flags: /Odtp /RTCsu
; File z:\sources\lunor\repos\rougemeilland\palmtree.math.core.uint\palmtree.math.core.uint\pmc_interface_csharp.cpp
_TEXT	SEGMENT
$T2 = -32						; size = 4
_ex$3 = -24						; size = 4
__$EHRec$ = -16						; size = 16
_u$ = 8							; size = 4
_v$ = 12						; size = 4
_w$ = 16						; size = 4
_PMCCS_BitwiseAnd_I_X@12 PROC

; 752  :     {

  00000	55		 push	 ebp
  00001	8b ec		 mov	 ebp, esp
  00003	6a ff		 push	 -1
  00005	68 00 00 00 00	 push	 __ehhandler$_PMCCS_BitwiseAnd_I_X@12
  0000a	64 a1 00 00 00
	00		 mov	 eax, DWORD PTR fs:0
  00010	50		 push	 eax
  00011	51		 push	 ecx
  00012	83 ec 10	 sub	 esp, 16			; 00000010H
  00015	53		 push	 ebx
  00016	56		 push	 esi
  00017	57		 push	 edi
  00018	b8 cc cc cc cc	 mov	 eax, -858993460		; ccccccccH
  0001d	89 45 e0	 mov	 DWORD PTR [ebp-32], eax
  00020	89 45 e4	 mov	 DWORD PTR [ebp-28], eax
  00023	89 45 e8	 mov	 DWORD PTR [ebp-24], eax
  00026	89 45 ec	 mov	 DWORD PTR [ebp-20], eax
  00029	a1 00 00 00 00	 mov	 eax, DWORD PTR ___security_cookie
  0002e	33 c5		 xor	 eax, ebp
  00030	50		 push	 eax
  00031	8d 45 f4	 lea	 eax, DWORD PTR __$EHRec$[ebp+4]
  00034	64 a3 00 00 00
	00		 mov	 DWORD PTR fs:0, eax
  0003a	89 65 f0	 mov	 DWORD PTR __$EHRec$[ebp], esp
  0003d	b9 00 00 00 00	 mov	 ecx, OFFSET __C21BA676_pmc_interface_csharp@cpp
  00042	e8 00 00 00 00	 call	 @__CheckForDebuggerJustMyCode@4

; 753  :         if (w == nullptr)

  00047	83 7d 10 00	 cmp	 DWORD PTR _w$[ebp], 0
  0004b	75 07		 jne	 SHORT $LN2@PMCCS_Bitw

; 754  :             return (PMC_STATUS_ARGUMENT_NULL_ERROR);

  0004d	b8 fe ff ff ff	 mov	 eax, -2			; fffffffeH
  00052	eb 47		 jmp	 SHORT $LN1@PMCCS_Bitw
$LN2@PMCCS_Bitw:

; 755  :         try

  00054	c7 45 fc 00 00
	00 00		 mov	 DWORD PTR __$EHRec$[ebp+12], 0

; 756  :         {
; 757  :             *w = PMC_BitwiseAnd_I_X(u, v);

  0005b	8b 45 0c	 mov	 eax, DWORD PTR _v$[ebp]
  0005e	50		 push	 eax
  0005f	8b 4d 08	 mov	 ecx, DWORD PTR _u$[ebp]
  00062	51		 push	 ecx
  00063	e8 00 00 00 00	 call	 ?PMC_BitwiseAnd_I_X@Internal@Core@Math@Palmtree@@YGIIPAU__tag_PMC_HANDLE_UINT@1234@@Z ; Palmtree::Math::Core::Internal::PMC_BitwiseAnd_I_X
  00068	8b 55 10	 mov	 edx, DWORD PTR _w$[ebp]
  0006b	89 02		 mov	 DWORD PTR [edx], eax

; 758  :             return (PMC_STATUS_OK);

  0006d	33 c0		 xor	 eax, eax
  0006f	eb 2a		 jmp	 SHORT $LN1@PMCCS_Bitw
__catch$_PMCCS_BitwiseAnd_I_X@12$0:

; 759  :         }
; 760  :         catch (const Palmtree::Math::Core::Internal::Exception& ex)
; 761  :         {
; 762  :             return (ex.GetStatusCode());

  00071	8b 4d e8	 mov	 ecx, DWORD PTR _ex$3[ebp]
  00074	e8 00 00 00 00	 call	 ?GetStatusCode@Exception@Internal@Core@Math@Palmtree@@QBEHXZ ; Palmtree::Math::Core::Internal::Exception::GetStatusCode
  00079	89 45 e0	 mov	 DWORD PTR $T2[ebp], eax
  0007c	b8 00 00 00 00	 mov	 eax, $LN8@PMCCS_Bitw
  00081	c3		 ret	 0

; 763  :         }

  00082	b8 00 00 00 00	 mov	 eax, __tryend$_PMCCS_BitwiseAnd_I_X@12$1
  00087	c3		 ret	 0
__tryend$_PMCCS_BitwiseAnd_I_X@12$1:
  00088	c7 45 fc ff ff
	ff ff		 mov	 DWORD PTR __$EHRec$[ebp+12], -1
  0008f	eb 0a		 jmp	 SHORT $LN1@PMCCS_Bitw
$LN8@PMCCS_Bitw:
  00091	c7 45 fc ff ff
	ff ff		 mov	 DWORD PTR __$EHRec$[ebp+12], -1

; 759  :         }
; 760  :         catch (const Palmtree::Math::Core::Internal::Exception& ex)
; 761  :         {
; 762  :             return (ex.GetStatusCode());

  00098	8b 45 e0	 mov	 eax, DWORD PTR $T2[ebp]
$LN1@PMCCS_Bitw:

; 764  :     }

  0009b	52		 push	 edx
  0009c	8b cd		 mov	 ecx, ebp
  0009e	50		 push	 eax
  0009f	8d 15 00 00 00
	00		 lea	 edx, DWORD PTR $LN12@PMCCS_Bitw
  000a5	e8 00 00 00 00	 call	 @_RTC_CheckStackVars@8
  000aa	58		 pop	 eax
  000ab	5a		 pop	 edx
  000ac	8b 4d f4	 mov	 ecx, DWORD PTR __$EHRec$[ebp+4]
  000af	64 89 0d 00 00
	00 00		 mov	 DWORD PTR fs:0, ecx
  000b6	59		 pop	 ecx
  000b7	5f		 pop	 edi
  000b8	5e		 pop	 esi
  000b9	5b		 pop	 ebx
  000ba	83 c4 20	 add	 esp, 32			; 00000020H
  000bd	3b ec		 cmp	 ebp, esp
  000bf	e8 00 00 00 00	 call	 __RTC_CheckEsp
  000c4	8b e5		 mov	 esp, ebp
  000c6	5d		 pop	 ebp
  000c7	c2 0c 00	 ret	 12			; 0000000cH
  000ca	66 90		 npad	 2
$LN12@PMCCS_Bitw:
  000cc	01 00 00 00	 DD	 1
  000d0	00 00 00 00	 DD	 $LN11@PMCCS_Bitw
$LN11@PMCCS_Bitw:
  000d4	e8 ff ff ff	 DD	 -24			; ffffffe8H
  000d8	04 00 00 00	 DD	 4
  000dc	00 00 00 00	 DD	 $LN9@PMCCS_Bitw
$LN9@PMCCS_Bitw:
  000e0	65		 DB	 101			; 00000065H
  000e1	78		 DB	 120			; 00000078H
  000e2	00		 DB	 0
_TEXT	ENDS
text$x	SEGMENT
__ehhandler$_PMCCS_BitwiseAnd_I_X@12:
  00000	8b 54 24 08	 mov	 edx, DWORD PTR [esp+8]
  00004	8d 42 0c	 lea	 eax, DWORD PTR [edx+12]
  00007	8b 4a dc	 mov	 ecx, DWORD PTR [edx-36]
  0000a	33 c8		 xor	 ecx, eax
  0000c	e8 00 00 00 00	 call	 @__security_check_cookie@4
  00011	b8 00 00 00 00	 mov	 eax, OFFSET __ehfuncinfo$_PMCCS_BitwiseAnd_I_X@12
  00016	e9 00 00 00 00	 jmp	 ___CxxFrameHandler3
text$x	ENDS
_PMCCS_BitwiseAnd_I_X@12 ENDP
; Function compile flags: /Odtp /RTCsu
; File z:\sources\lunor\repos\rougemeilland\palmtree.math.core.uint\palmtree.math.core.uint\pmc_interface_csharp.cpp
_TEXT	SEGMENT
$T2 = -32						; size = 4
_ex$3 = -24						; size = 4
__$EHRec$ = -16						; size = 16
_p$ = 8							; size = 4
_n$ = 12						; size = 4
_o$ = 16						; size = 4
_PMCCS_LeftShift_X_I@12 PROC

; 737  :     {

  00000	55		 push	 ebp
  00001	8b ec		 mov	 ebp, esp
  00003	6a ff		 push	 -1
  00005	68 00 00 00 00	 push	 __ehhandler$_PMCCS_LeftShift_X_I@12
  0000a	64 a1 00 00 00
	00		 mov	 eax, DWORD PTR fs:0
  00010	50		 push	 eax
  00011	51		 push	 ecx
  00012	83 ec 10	 sub	 esp, 16			; 00000010H
  00015	53		 push	 ebx
  00016	56		 push	 esi
  00017	57		 push	 edi
  00018	b8 cc cc cc cc	 mov	 eax, -858993460		; ccccccccH
  0001d	89 45 e0	 mov	 DWORD PTR [ebp-32], eax
  00020	89 45 e4	 mov	 DWORD PTR [ebp-28], eax
  00023	89 45 e8	 mov	 DWORD PTR [ebp-24], eax
  00026	89 45 ec	 mov	 DWORD PTR [ebp-20], eax
  00029	a1 00 00 00 00	 mov	 eax, DWORD PTR ___security_cookie
  0002e	33 c5		 xor	 eax, ebp
  00030	50		 push	 eax
  00031	8d 45 f4	 lea	 eax, DWORD PTR __$EHRec$[ebp+4]
  00034	64 a3 00 00 00
	00		 mov	 DWORD PTR fs:0, eax
  0003a	89 65 f0	 mov	 DWORD PTR __$EHRec$[ebp], esp
  0003d	b9 00 00 00 00	 mov	 ecx, OFFSET __C21BA676_pmc_interface_csharp@cpp
  00042	e8 00 00 00 00	 call	 @__CheckForDebuggerJustMyCode@4

; 738  :         if (o == nullptr)

  00047	83 7d 10 00	 cmp	 DWORD PTR _o$[ebp], 0
  0004b	75 07		 jne	 SHORT $LN2@PMCCS_Left

; 739  :             return (PMC_STATUS_ARGUMENT_NULL_ERROR);

  0004d	b8 fe ff ff ff	 mov	 eax, -2			; fffffffeH
  00052	eb 47		 jmp	 SHORT $LN1@PMCCS_Left
$LN2@PMCCS_Left:

; 740  :         try

  00054	c7 45 fc 00 00
	00 00		 mov	 DWORD PTR __$EHRec$[ebp+12], 0

; 741  :         {
; 742  :             *o = PMC_LeftShift_X_I(p, n);

  0005b	8b 45 0c	 mov	 eax, DWORD PTR _n$[ebp]
  0005e	50		 push	 eax
  0005f	8b 4d 08	 mov	 ecx, DWORD PTR _p$[ebp]
  00062	51		 push	 ecx
  00063	e8 00 00 00 00	 call	 ?PMC_LeftShift_X_I@Internal@Core@Math@Palmtree@@YGPAU__tag_PMC_HANDLE_UINT@1234@PAU51234@H@Z ; Palmtree::Math::Core::Internal::PMC_LeftShift_X_I
  00068	8b 55 10	 mov	 edx, DWORD PTR _o$[ebp]
  0006b	89 02		 mov	 DWORD PTR [edx], eax

; 743  :             return (PMC_STATUS_OK);

  0006d	33 c0		 xor	 eax, eax
  0006f	eb 2a		 jmp	 SHORT $LN1@PMCCS_Left
__catch$_PMCCS_LeftShift_X_I@12$0:

; 744  :         }
; 745  :         catch (const Palmtree::Math::Core::Internal::Exception& ex)
; 746  :         {
; 747  :             return (ex.GetStatusCode());

  00071	8b 4d e8	 mov	 ecx, DWORD PTR _ex$3[ebp]
  00074	e8 00 00 00 00	 call	 ?GetStatusCode@Exception@Internal@Core@Math@Palmtree@@QBEHXZ ; Palmtree::Math::Core::Internal::Exception::GetStatusCode
  00079	89 45 e0	 mov	 DWORD PTR $T2[ebp], eax
  0007c	b8 00 00 00 00	 mov	 eax, $LN8@PMCCS_Left
  00081	c3		 ret	 0

; 748  :         }

  00082	b8 00 00 00 00	 mov	 eax, __tryend$_PMCCS_LeftShift_X_I@12$1
  00087	c3		 ret	 0
__tryend$_PMCCS_LeftShift_X_I@12$1:
  00088	c7 45 fc ff ff
	ff ff		 mov	 DWORD PTR __$EHRec$[ebp+12], -1
  0008f	eb 0a		 jmp	 SHORT $LN1@PMCCS_Left
$LN8@PMCCS_Left:
  00091	c7 45 fc ff ff
	ff ff		 mov	 DWORD PTR __$EHRec$[ebp+12], -1

; 744  :         }
; 745  :         catch (const Palmtree::Math::Core::Internal::Exception& ex)
; 746  :         {
; 747  :             return (ex.GetStatusCode());

  00098	8b 45 e0	 mov	 eax, DWORD PTR $T2[ebp]
$LN1@PMCCS_Left:

; 749  :     }

  0009b	52		 push	 edx
  0009c	8b cd		 mov	 ecx, ebp
  0009e	50		 push	 eax
  0009f	8d 15 00 00 00
	00		 lea	 edx, DWORD PTR $LN12@PMCCS_Left
  000a5	e8 00 00 00 00	 call	 @_RTC_CheckStackVars@8
  000aa	58		 pop	 eax
  000ab	5a		 pop	 edx
  000ac	8b 4d f4	 mov	 ecx, DWORD PTR __$EHRec$[ebp+4]
  000af	64 89 0d 00 00
	00 00		 mov	 DWORD PTR fs:0, ecx
  000b6	59		 pop	 ecx
  000b7	5f		 pop	 edi
  000b8	5e		 pop	 esi
  000b9	5b		 pop	 ebx
  000ba	83 c4 20	 add	 esp, 32			; 00000020H
  000bd	3b ec		 cmp	 ebp, esp
  000bf	e8 00 00 00 00	 call	 __RTC_CheckEsp
  000c4	8b e5		 mov	 esp, ebp
  000c6	5d		 pop	 ebp
  000c7	c2 0c 00	 ret	 12			; 0000000cH
  000ca	66 90		 npad	 2
$LN12@PMCCS_Left:
  000cc	01 00 00 00	 DD	 1
  000d0	00 00 00 00	 DD	 $LN11@PMCCS_Left
$LN11@PMCCS_Left:
  000d4	e8 ff ff ff	 DD	 -24			; ffffffe8H
  000d8	04 00 00 00	 DD	 4
  000dc	00 00 00 00	 DD	 $LN9@PMCCS_Left
$LN9@PMCCS_Left:
  000e0	65		 DB	 101			; 00000065H
  000e1	78		 DB	 120			; 00000078H
  000e2	00		 DB	 0
_TEXT	ENDS
text$x	SEGMENT
__ehhandler$_PMCCS_LeftShift_X_I@12:
  00000	8b 54 24 08	 mov	 edx, DWORD PTR [esp+8]
  00004	8d 42 0c	 lea	 eax, DWORD PTR [edx+12]
  00007	8b 4a dc	 mov	 ecx, DWORD PTR [edx-36]
  0000a	33 c8		 xor	 ecx, eax
  0000c	e8 00 00 00 00	 call	 @__security_check_cookie@4
  00011	b8 00 00 00 00	 mov	 eax, OFFSET __ehfuncinfo$_PMCCS_LeftShift_X_I@12
  00016	e9 00 00 00 00	 jmp	 ___CxxFrameHandler3
text$x	ENDS
_PMCCS_LeftShift_X_I@12 ENDP
; Function compile flags: /Odtp /RTCsu
; File z:\sources\lunor\repos\rougemeilland\palmtree.math.core.uint\palmtree.math.core.uint\pmc_interface_csharp.cpp
_TEXT	SEGMENT
$T2 = -32						; size = 4
_ex$3 = -24						; size = 4
__$EHRec$ = -16						; size = 16
_p$ = 8							; size = 4
_n$ = 12						; size = 4
_o$ = 16						; size = 4
_PMCCS_RightShift_X_I@12 PROC

; 722  :     {

  00000	55		 push	 ebp
  00001	8b ec		 mov	 ebp, esp
  00003	6a ff		 push	 -1
  00005	68 00 00 00 00	 push	 __ehhandler$_PMCCS_RightShift_X_I@12
  0000a	64 a1 00 00 00
	00		 mov	 eax, DWORD PTR fs:0
  00010	50		 push	 eax
  00011	51		 push	 ecx
  00012	83 ec 10	 sub	 esp, 16			; 00000010H
  00015	53		 push	 ebx
  00016	56		 push	 esi
  00017	57		 push	 edi
  00018	b8 cc cc cc cc	 mov	 eax, -858993460		; ccccccccH
  0001d	89 45 e0	 mov	 DWORD PTR [ebp-32], eax
  00020	89 45 e4	 mov	 DWORD PTR [ebp-28], eax
  00023	89 45 e8	 mov	 DWORD PTR [ebp-24], eax
  00026	89 45 ec	 mov	 DWORD PTR [ebp-20], eax
  00029	a1 00 00 00 00	 mov	 eax, DWORD PTR ___security_cookie
  0002e	33 c5		 xor	 eax, ebp
  00030	50		 push	 eax
  00031	8d 45 f4	 lea	 eax, DWORD PTR __$EHRec$[ebp+4]
  00034	64 a3 00 00 00
	00		 mov	 DWORD PTR fs:0, eax
  0003a	89 65 f0	 mov	 DWORD PTR __$EHRec$[ebp], esp
  0003d	b9 00 00 00 00	 mov	 ecx, OFFSET __C21BA676_pmc_interface_csharp@cpp
  00042	e8 00 00 00 00	 call	 @__CheckForDebuggerJustMyCode@4

; 723  :         if (o == nullptr)

  00047	83 7d 10 00	 cmp	 DWORD PTR _o$[ebp], 0
  0004b	75 07		 jne	 SHORT $LN2@PMCCS_Righ

; 724  :             return (PMC_STATUS_ARGUMENT_NULL_ERROR);

  0004d	b8 fe ff ff ff	 mov	 eax, -2			; fffffffeH
  00052	eb 47		 jmp	 SHORT $LN1@PMCCS_Righ
$LN2@PMCCS_Righ:

; 725  :         try

  00054	c7 45 fc 00 00
	00 00		 mov	 DWORD PTR __$EHRec$[ebp+12], 0

; 726  :         {
; 727  :             *o = PMC_RightShift_X_I(p, n);

  0005b	8b 45 0c	 mov	 eax, DWORD PTR _n$[ebp]
  0005e	50		 push	 eax
  0005f	8b 4d 08	 mov	 ecx, DWORD PTR _p$[ebp]
  00062	51		 push	 ecx
  00063	e8 00 00 00 00	 call	 ?PMC_RightShift_X_I@Internal@Core@Math@Palmtree@@YGPAU__tag_PMC_HANDLE_UINT@1234@PAU51234@H@Z ; Palmtree::Math::Core::Internal::PMC_RightShift_X_I
  00068	8b 55 10	 mov	 edx, DWORD PTR _o$[ebp]
  0006b	89 02		 mov	 DWORD PTR [edx], eax

; 728  :             return (PMC_STATUS_OK);

  0006d	33 c0		 xor	 eax, eax
  0006f	eb 2a		 jmp	 SHORT $LN1@PMCCS_Righ
__catch$_PMCCS_RightShift_X_I@12$0:

; 729  :         }
; 730  :         catch (const Palmtree::Math::Core::Internal::Exception& ex)
; 731  :         {
; 732  :             return (ex.GetStatusCode());

  00071	8b 4d e8	 mov	 ecx, DWORD PTR _ex$3[ebp]
  00074	e8 00 00 00 00	 call	 ?GetStatusCode@Exception@Internal@Core@Math@Palmtree@@QBEHXZ ; Palmtree::Math::Core::Internal::Exception::GetStatusCode
  00079	89 45 e0	 mov	 DWORD PTR $T2[ebp], eax
  0007c	b8 00 00 00 00	 mov	 eax, $LN8@PMCCS_Righ
  00081	c3		 ret	 0

; 733  :         }

  00082	b8 00 00 00 00	 mov	 eax, __tryend$_PMCCS_RightShift_X_I@12$1
  00087	c3		 ret	 0
__tryend$_PMCCS_RightShift_X_I@12$1:
  00088	c7 45 fc ff ff
	ff ff		 mov	 DWORD PTR __$EHRec$[ebp+12], -1
  0008f	eb 0a		 jmp	 SHORT $LN1@PMCCS_Righ
$LN8@PMCCS_Righ:
  00091	c7 45 fc ff ff
	ff ff		 mov	 DWORD PTR __$EHRec$[ebp+12], -1

; 729  :         }
; 730  :         catch (const Palmtree::Math::Core::Internal::Exception& ex)
; 731  :         {
; 732  :             return (ex.GetStatusCode());

  00098	8b 45 e0	 mov	 eax, DWORD PTR $T2[ebp]
$LN1@PMCCS_Righ:

; 734  :     }

  0009b	52		 push	 edx
  0009c	8b cd		 mov	 ecx, ebp
  0009e	50		 push	 eax
  0009f	8d 15 00 00 00
	00		 lea	 edx, DWORD PTR $LN12@PMCCS_Righ
  000a5	e8 00 00 00 00	 call	 @_RTC_CheckStackVars@8
  000aa	58		 pop	 eax
  000ab	5a		 pop	 edx
  000ac	8b 4d f4	 mov	 ecx, DWORD PTR __$EHRec$[ebp+4]
  000af	64 89 0d 00 00
	00 00		 mov	 DWORD PTR fs:0, ecx
  000b6	59		 pop	 ecx
  000b7	5f		 pop	 edi
  000b8	5e		 pop	 esi
  000b9	5b		 pop	 ebx
  000ba	83 c4 20	 add	 esp, 32			; 00000020H
  000bd	3b ec		 cmp	 ebp, esp
  000bf	e8 00 00 00 00	 call	 __RTC_CheckEsp
  000c4	8b e5		 mov	 esp, ebp
  000c6	5d		 pop	 ebp
  000c7	c2 0c 00	 ret	 12			; 0000000cH
  000ca	66 90		 npad	 2
$LN12@PMCCS_Righ:
  000cc	01 00 00 00	 DD	 1
  000d0	00 00 00 00	 DD	 $LN11@PMCCS_Righ
$LN11@PMCCS_Righ:
  000d4	e8 ff ff ff	 DD	 -24			; ffffffe8H
  000d8	04 00 00 00	 DD	 4
  000dc	00 00 00 00	 DD	 $LN9@PMCCS_Righ
$LN9@PMCCS_Righ:
  000e0	65		 DB	 101			; 00000065H
  000e1	78		 DB	 120			; 00000078H
  000e2	00		 DB	 0
_TEXT	ENDS
text$x	SEGMENT
__ehhandler$_PMCCS_RightShift_X_I@12:
  00000	8b 54 24 08	 mov	 edx, DWORD PTR [esp+8]
  00004	8d 42 0c	 lea	 eax, DWORD PTR [edx+12]
  00007	8b 4a dc	 mov	 ecx, DWORD PTR [edx-36]
  0000a	33 c8		 xor	 ecx, eax
  0000c	e8 00 00 00 00	 call	 @__security_check_cookie@4
  00011	b8 00 00 00 00	 mov	 eax, OFFSET __ehfuncinfo$_PMCCS_RightShift_X_I@12
  00016	e9 00 00 00 00	 jmp	 ___CxxFrameHandler3
text$x	ENDS
_PMCCS_RightShift_X_I@12 ENDP
; Function compile flags: /Odtp /RTCsu
; File z:\sources\lunor\repos\rougemeilland\palmtree.math.core.uint\palmtree.math.core.uint\pmc_interface_csharp.cpp
_TEXT	SEGMENT
$T2 = -32						; size = 4
_ex$3 = -24						; size = 4
__$EHRec$ = -16						; size = 16
_u$ = 8							; size = 4
_v$ = 12						; size = 4
_r$ = 16						; size = 4
_PMCCS_Remainder_X_X@12 PROC

; 707  :     {

  00000	55		 push	 ebp
  00001	8b ec		 mov	 ebp, esp
  00003	6a ff		 push	 -1
  00005	68 00 00 00 00	 push	 __ehhandler$_PMCCS_Remainder_X_X@12
  0000a	64 a1 00 00 00
	00		 mov	 eax, DWORD PTR fs:0
  00010	50		 push	 eax
  00011	51		 push	 ecx
  00012	83 ec 10	 sub	 esp, 16			; 00000010H
  00015	53		 push	 ebx
  00016	56		 push	 esi
  00017	57		 push	 edi
  00018	b8 cc cc cc cc	 mov	 eax, -858993460		; ccccccccH
  0001d	89 45 e0	 mov	 DWORD PTR [ebp-32], eax
  00020	89 45 e4	 mov	 DWORD PTR [ebp-28], eax
  00023	89 45 e8	 mov	 DWORD PTR [ebp-24], eax
  00026	89 45 ec	 mov	 DWORD PTR [ebp-20], eax
  00029	a1 00 00 00 00	 mov	 eax, DWORD PTR ___security_cookie
  0002e	33 c5		 xor	 eax, ebp
  00030	50		 push	 eax
  00031	8d 45 f4	 lea	 eax, DWORD PTR __$EHRec$[ebp+4]
  00034	64 a3 00 00 00
	00		 mov	 DWORD PTR fs:0, eax
  0003a	89 65 f0	 mov	 DWORD PTR __$EHRec$[ebp], esp
  0003d	b9 00 00 00 00	 mov	 ecx, OFFSET __C21BA676_pmc_interface_csharp@cpp
  00042	e8 00 00 00 00	 call	 @__CheckForDebuggerJustMyCode@4

; 708  :         if (r == nullptr)

  00047	83 7d 10 00	 cmp	 DWORD PTR _r$[ebp], 0
  0004b	75 07		 jne	 SHORT $LN2@PMCCS_Rema

; 709  :             return (PMC_STATUS_ARGUMENT_NULL_ERROR);

  0004d	b8 fe ff ff ff	 mov	 eax, -2			; fffffffeH
  00052	eb 49		 jmp	 SHORT $LN1@PMCCS_Rema
$LN2@PMCCS_Rema:

; 710  :         try

  00054	c7 45 fc 00 00
	00 00		 mov	 DWORD PTR __$EHRec$[ebp+12], 0

; 711  :         {
; 712  :             *r = PMC_DivRem_X_X(u, v, nullptr);

  0005b	6a 00		 push	 0
  0005d	8b 45 0c	 mov	 eax, DWORD PTR _v$[ebp]
  00060	50		 push	 eax
  00061	8b 4d 08	 mov	 ecx, DWORD PTR _u$[ebp]
  00064	51		 push	 ecx
  00065	e8 00 00 00 00	 call	 ?PMC_DivRem_X_X@Internal@Core@Math@Palmtree@@YGPAU__tag_PMC_HANDLE_UINT@1234@PAU51234@0PAPAU51234@@Z ; Palmtree::Math::Core::Internal::PMC_DivRem_X_X
  0006a	8b 55 10	 mov	 edx, DWORD PTR _r$[ebp]
  0006d	89 02		 mov	 DWORD PTR [edx], eax

; 713  :             return (PMC_STATUS_OK);

  0006f	33 c0		 xor	 eax, eax
  00071	eb 2a		 jmp	 SHORT $LN1@PMCCS_Rema
__catch$_PMCCS_Remainder_X_X@12$0:

; 714  :         }
; 715  :         catch (const Palmtree::Math::Core::Internal::Exception& ex)
; 716  :         {
; 717  :             return (ex.GetStatusCode());

  00073	8b 4d e8	 mov	 ecx, DWORD PTR _ex$3[ebp]
  00076	e8 00 00 00 00	 call	 ?GetStatusCode@Exception@Internal@Core@Math@Palmtree@@QBEHXZ ; Palmtree::Math::Core::Internal::Exception::GetStatusCode
  0007b	89 45 e0	 mov	 DWORD PTR $T2[ebp], eax
  0007e	b8 00 00 00 00	 mov	 eax, $LN8@PMCCS_Rema
  00083	c3		 ret	 0

; 718  :         }

  00084	b8 00 00 00 00	 mov	 eax, __tryend$_PMCCS_Remainder_X_X@12$1
  00089	c3		 ret	 0
__tryend$_PMCCS_Remainder_X_X@12$1:
  0008a	c7 45 fc ff ff
	ff ff		 mov	 DWORD PTR __$EHRec$[ebp+12], -1
  00091	eb 0a		 jmp	 SHORT $LN1@PMCCS_Rema
$LN8@PMCCS_Rema:
  00093	c7 45 fc ff ff
	ff ff		 mov	 DWORD PTR __$EHRec$[ebp+12], -1

; 714  :         }
; 715  :         catch (const Palmtree::Math::Core::Internal::Exception& ex)
; 716  :         {
; 717  :             return (ex.GetStatusCode());

  0009a	8b 45 e0	 mov	 eax, DWORD PTR $T2[ebp]
$LN1@PMCCS_Rema:

; 719  :     }

  0009d	52		 push	 edx
  0009e	8b cd		 mov	 ecx, ebp
  000a0	50		 push	 eax
  000a1	8d 15 00 00 00
	00		 lea	 edx, DWORD PTR $LN12@PMCCS_Rema
  000a7	e8 00 00 00 00	 call	 @_RTC_CheckStackVars@8
  000ac	58		 pop	 eax
  000ad	5a		 pop	 edx
  000ae	8b 4d f4	 mov	 ecx, DWORD PTR __$EHRec$[ebp+4]
  000b1	64 89 0d 00 00
	00 00		 mov	 DWORD PTR fs:0, ecx
  000b8	59		 pop	 ecx
  000b9	5f		 pop	 edi
  000ba	5e		 pop	 esi
  000bb	5b		 pop	 ebx
  000bc	83 c4 20	 add	 esp, 32			; 00000020H
  000bf	3b ec		 cmp	 ebp, esp
  000c1	e8 00 00 00 00	 call	 __RTC_CheckEsp
  000c6	8b e5		 mov	 esp, ebp
  000c8	5d		 pop	 ebp
  000c9	c2 0c 00	 ret	 12			; 0000000cH
$LN12@PMCCS_Rema:
  000cc	01 00 00 00	 DD	 1
  000d0	00 00 00 00	 DD	 $LN11@PMCCS_Rema
$LN11@PMCCS_Rema:
  000d4	e8 ff ff ff	 DD	 -24			; ffffffe8H
  000d8	04 00 00 00	 DD	 4
  000dc	00 00 00 00	 DD	 $LN9@PMCCS_Rema
$LN9@PMCCS_Rema:
  000e0	65		 DB	 101			; 00000065H
  000e1	78		 DB	 120			; 00000078H
  000e2	00		 DB	 0
_TEXT	ENDS
text$x	SEGMENT
__ehhandler$_PMCCS_Remainder_X_X@12:
  00000	8b 54 24 08	 mov	 edx, DWORD PTR [esp+8]
  00004	8d 42 0c	 lea	 eax, DWORD PTR [edx+12]
  00007	8b 4a dc	 mov	 ecx, DWORD PTR [edx-36]
  0000a	33 c8		 xor	 ecx, eax
  0000c	e8 00 00 00 00	 call	 @__security_check_cookie@4
  00011	b8 00 00 00 00	 mov	 eax, OFFSET __ehfuncinfo$_PMCCS_Remainder_X_X@12
  00016	e9 00 00 00 00	 jmp	 ___CxxFrameHandler3
text$x	ENDS
_PMCCS_Remainder_X_X@12 ENDP
; Function compile flags: /Odtp /RTCsu
; File z:\sources\lunor\repos\rougemeilland\palmtree.math.core.uint\palmtree.math.core.uint\pmc_interface_csharp.cpp
_TEXT	SEGMENT
$T2 = -32						; size = 4
_ex$3 = -24						; size = 4
__$EHRec$ = -16						; size = 16
_u$ = 8							; size = 4
_v$ = 12						; size = 8
_r$ = 20						; size = 4
_PMCCS_Remainder_X_L@16 PROC

; 692  :     {

  00000	55		 push	 ebp
  00001	8b ec		 mov	 ebp, esp
  00003	6a ff		 push	 -1
  00005	68 00 00 00 00	 push	 __ehhandler$_PMCCS_Remainder_X_L@16
  0000a	64 a1 00 00 00
	00		 mov	 eax, DWORD PTR fs:0
  00010	50		 push	 eax
  00011	51		 push	 ecx
  00012	83 ec 10	 sub	 esp, 16			; 00000010H
  00015	53		 push	 ebx
  00016	56		 push	 esi
  00017	57		 push	 edi
  00018	b8 cc cc cc cc	 mov	 eax, -858993460		; ccccccccH
  0001d	89 45 e0	 mov	 DWORD PTR [ebp-32], eax
  00020	89 45 e4	 mov	 DWORD PTR [ebp-28], eax
  00023	89 45 e8	 mov	 DWORD PTR [ebp-24], eax
  00026	89 45 ec	 mov	 DWORD PTR [ebp-20], eax
  00029	a1 00 00 00 00	 mov	 eax, DWORD PTR ___security_cookie
  0002e	33 c5		 xor	 eax, ebp
  00030	50		 push	 eax
  00031	8d 45 f4	 lea	 eax, DWORD PTR __$EHRec$[ebp+4]
  00034	64 a3 00 00 00
	00		 mov	 DWORD PTR fs:0, eax
  0003a	89 65 f0	 mov	 DWORD PTR __$EHRec$[ebp], esp
  0003d	b9 00 00 00 00	 mov	 ecx, OFFSET __C21BA676_pmc_interface_csharp@cpp
  00042	e8 00 00 00 00	 call	 @__CheckForDebuggerJustMyCode@4

; 693  :         if (r == nullptr)

  00047	83 7d 14 00	 cmp	 DWORD PTR _r$[ebp], 0
  0004b	75 07		 jne	 SHORT $LN2@PMCCS_Rema

; 694  :             return (PMC_STATUS_ARGUMENT_NULL_ERROR);

  0004d	b8 fe ff ff ff	 mov	 eax, -2			; fffffffeH
  00052	eb 50		 jmp	 SHORT $LN1@PMCCS_Rema
$LN2@PMCCS_Rema:

; 695  :         try

  00054	c7 45 fc 00 00
	00 00		 mov	 DWORD PTR __$EHRec$[ebp+12], 0

; 696  :         {
; 697  :             *r = PMC_DivRem_X_L(u, v, nullptr);

  0005b	6a 00		 push	 0
  0005d	8b 45 10	 mov	 eax, DWORD PTR _v$[ebp+4]
  00060	50		 push	 eax
  00061	8b 4d 0c	 mov	 ecx, DWORD PTR _v$[ebp]
  00064	51		 push	 ecx
  00065	8b 55 08	 mov	 edx, DWORD PTR _u$[ebp]
  00068	52		 push	 edx
  00069	e8 00 00 00 00	 call	 ?PMC_DivRem_X_L@Internal@Core@Math@Palmtree@@YG_KPAU__tag_PMC_HANDLE_UINT@1234@_KPAPAU51234@@Z ; Palmtree::Math::Core::Internal::PMC_DivRem_X_L
  0006e	8b 4d 14	 mov	 ecx, DWORD PTR _r$[ebp]
  00071	89 01		 mov	 DWORD PTR [ecx], eax
  00073	89 51 04	 mov	 DWORD PTR [ecx+4], edx

; 698  :             return (PMC_STATUS_OK);

  00076	33 c0		 xor	 eax, eax
  00078	eb 2a		 jmp	 SHORT $LN1@PMCCS_Rema
__catch$_PMCCS_Remainder_X_L@16$0:

; 699  :         }
; 700  :         catch (const Palmtree::Math::Core::Internal::Exception& ex)
; 701  :         {
; 702  :             return (ex.GetStatusCode());

  0007a	8b 4d e8	 mov	 ecx, DWORD PTR _ex$3[ebp]
  0007d	e8 00 00 00 00	 call	 ?GetStatusCode@Exception@Internal@Core@Math@Palmtree@@QBEHXZ ; Palmtree::Math::Core::Internal::Exception::GetStatusCode
  00082	89 45 e0	 mov	 DWORD PTR $T2[ebp], eax
  00085	b8 00 00 00 00	 mov	 eax, $LN8@PMCCS_Rema
  0008a	c3		 ret	 0

; 703  :         }

  0008b	b8 00 00 00 00	 mov	 eax, __tryend$_PMCCS_Remainder_X_L@16$1
  00090	c3		 ret	 0
__tryend$_PMCCS_Remainder_X_L@16$1:
  00091	c7 45 fc ff ff
	ff ff		 mov	 DWORD PTR __$EHRec$[ebp+12], -1
  00098	eb 0a		 jmp	 SHORT $LN1@PMCCS_Rema
$LN8@PMCCS_Rema:
  0009a	c7 45 fc ff ff
	ff ff		 mov	 DWORD PTR __$EHRec$[ebp+12], -1

; 699  :         }
; 700  :         catch (const Palmtree::Math::Core::Internal::Exception& ex)
; 701  :         {
; 702  :             return (ex.GetStatusCode());

  000a1	8b 45 e0	 mov	 eax, DWORD PTR $T2[ebp]
$LN1@PMCCS_Rema:

; 704  :     }

  000a4	52		 push	 edx
  000a5	8b cd		 mov	 ecx, ebp
  000a7	50		 push	 eax
  000a8	8d 15 00 00 00
	00		 lea	 edx, DWORD PTR $LN12@PMCCS_Rema
  000ae	e8 00 00 00 00	 call	 @_RTC_CheckStackVars@8
  000b3	58		 pop	 eax
  000b4	5a		 pop	 edx
  000b5	8b 4d f4	 mov	 ecx, DWORD PTR __$EHRec$[ebp+4]
  000b8	64 89 0d 00 00
	00 00		 mov	 DWORD PTR fs:0, ecx
  000bf	59		 pop	 ecx
  000c0	5f		 pop	 edi
  000c1	5e		 pop	 esi
  000c2	5b		 pop	 ebx
  000c3	83 c4 20	 add	 esp, 32			; 00000020H
  000c6	3b ec		 cmp	 ebp, esp
  000c8	e8 00 00 00 00	 call	 __RTC_CheckEsp
  000cd	8b e5		 mov	 esp, ebp
  000cf	5d		 pop	 ebp
  000d0	c2 10 00	 ret	 16			; 00000010H
  000d3	90		 npad	 1
$LN12@PMCCS_Rema:
  000d4	01 00 00 00	 DD	 1
  000d8	00 00 00 00	 DD	 $LN11@PMCCS_Rema
$LN11@PMCCS_Rema:
  000dc	e8 ff ff ff	 DD	 -24			; ffffffe8H
  000e0	04 00 00 00	 DD	 4
  000e4	00 00 00 00	 DD	 $LN9@PMCCS_Rema
$LN9@PMCCS_Rema:
  000e8	65		 DB	 101			; 00000065H
  000e9	78		 DB	 120			; 00000078H
  000ea	00		 DB	 0
_TEXT	ENDS
text$x	SEGMENT
__ehhandler$_PMCCS_Remainder_X_L@16:
  00000	8b 54 24 08	 mov	 edx, DWORD PTR [esp+8]
  00004	8d 42 0c	 lea	 eax, DWORD PTR [edx+12]
  00007	8b 4a dc	 mov	 ecx, DWORD PTR [edx-36]
  0000a	33 c8		 xor	 ecx, eax
  0000c	e8 00 00 00 00	 call	 @__security_check_cookie@4
  00011	b8 00 00 00 00	 mov	 eax, OFFSET __ehfuncinfo$_PMCCS_Remainder_X_L@16
  00016	e9 00 00 00 00	 jmp	 ___CxxFrameHandler3
text$x	ENDS
_PMCCS_Remainder_X_L@16 ENDP
; Function compile flags: /Odtp /RTCsu
; File z:\sources\lunor\repos\rougemeilland\palmtree.math.core.uint\palmtree.math.core.uint\pmc_interface_csharp.cpp
_TEXT	SEGMENT
$T2 = -32						; size = 4
_ex$3 = -24						; size = 4
__$EHRec$ = -16						; size = 16
_u$ = 8							; size = 4
_v$ = 12						; size = 4
_r$ = 16						; size = 4
_PMCCS_Remainder_X_I@12 PROC

; 677  :     {

  00000	55		 push	 ebp
  00001	8b ec		 mov	 ebp, esp
  00003	6a ff		 push	 -1
  00005	68 00 00 00 00	 push	 __ehhandler$_PMCCS_Remainder_X_I@12
  0000a	64 a1 00 00 00
	00		 mov	 eax, DWORD PTR fs:0
  00010	50		 push	 eax
  00011	51		 push	 ecx
  00012	83 ec 10	 sub	 esp, 16			; 00000010H
  00015	53		 push	 ebx
  00016	56		 push	 esi
  00017	57		 push	 edi
  00018	b8 cc cc cc cc	 mov	 eax, -858993460		; ccccccccH
  0001d	89 45 e0	 mov	 DWORD PTR [ebp-32], eax
  00020	89 45 e4	 mov	 DWORD PTR [ebp-28], eax
  00023	89 45 e8	 mov	 DWORD PTR [ebp-24], eax
  00026	89 45 ec	 mov	 DWORD PTR [ebp-20], eax
  00029	a1 00 00 00 00	 mov	 eax, DWORD PTR ___security_cookie
  0002e	33 c5		 xor	 eax, ebp
  00030	50		 push	 eax
  00031	8d 45 f4	 lea	 eax, DWORD PTR __$EHRec$[ebp+4]
  00034	64 a3 00 00 00
	00		 mov	 DWORD PTR fs:0, eax
  0003a	89 65 f0	 mov	 DWORD PTR __$EHRec$[ebp], esp
  0003d	b9 00 00 00 00	 mov	 ecx, OFFSET __C21BA676_pmc_interface_csharp@cpp
  00042	e8 00 00 00 00	 call	 @__CheckForDebuggerJustMyCode@4

; 678  :         if (r == nullptr)

  00047	83 7d 10 00	 cmp	 DWORD PTR _r$[ebp], 0
  0004b	75 07		 jne	 SHORT $LN2@PMCCS_Rema

; 679  :             return (PMC_STATUS_ARGUMENT_NULL_ERROR);

  0004d	b8 fe ff ff ff	 mov	 eax, -2			; fffffffeH
  00052	eb 49		 jmp	 SHORT $LN1@PMCCS_Rema
$LN2@PMCCS_Rema:

; 680  :         try

  00054	c7 45 fc 00 00
	00 00		 mov	 DWORD PTR __$EHRec$[ebp+12], 0

; 681  :         {
; 682  :             *r = PMC_DivRem_X_I(u, v, nullptr);

  0005b	6a 00		 push	 0
  0005d	8b 45 0c	 mov	 eax, DWORD PTR _v$[ebp]
  00060	50		 push	 eax
  00061	8b 4d 08	 mov	 ecx, DWORD PTR _u$[ebp]
  00064	51		 push	 ecx
  00065	e8 00 00 00 00	 call	 ?PMC_DivRem_X_I@Internal@Core@Math@Palmtree@@YGIPAU__tag_PMC_HANDLE_UINT@1234@IPAPAU51234@@Z ; Palmtree::Math::Core::Internal::PMC_DivRem_X_I
  0006a	8b 55 10	 mov	 edx, DWORD PTR _r$[ebp]
  0006d	89 02		 mov	 DWORD PTR [edx], eax

; 683  :             return (PMC_STATUS_OK);

  0006f	33 c0		 xor	 eax, eax
  00071	eb 2a		 jmp	 SHORT $LN1@PMCCS_Rema
__catch$_PMCCS_Remainder_X_I@12$0:

; 684  :         }
; 685  :         catch (const Palmtree::Math::Core::Internal::Exception& ex)
; 686  :         {
; 687  :             return (ex.GetStatusCode());

  00073	8b 4d e8	 mov	 ecx, DWORD PTR _ex$3[ebp]
  00076	e8 00 00 00 00	 call	 ?GetStatusCode@Exception@Internal@Core@Math@Palmtree@@QBEHXZ ; Palmtree::Math::Core::Internal::Exception::GetStatusCode
  0007b	89 45 e0	 mov	 DWORD PTR $T2[ebp], eax
  0007e	b8 00 00 00 00	 mov	 eax, $LN8@PMCCS_Rema
  00083	c3		 ret	 0

; 688  :         }

  00084	b8 00 00 00 00	 mov	 eax, __tryend$_PMCCS_Remainder_X_I@12$1
  00089	c3		 ret	 0
__tryend$_PMCCS_Remainder_X_I@12$1:
  0008a	c7 45 fc ff ff
	ff ff		 mov	 DWORD PTR __$EHRec$[ebp+12], -1
  00091	eb 0a		 jmp	 SHORT $LN1@PMCCS_Rema
$LN8@PMCCS_Rema:
  00093	c7 45 fc ff ff
	ff ff		 mov	 DWORD PTR __$EHRec$[ebp+12], -1

; 684  :         }
; 685  :         catch (const Palmtree::Math::Core::Internal::Exception& ex)
; 686  :         {
; 687  :             return (ex.GetStatusCode());

  0009a	8b 45 e0	 mov	 eax, DWORD PTR $T2[ebp]
$LN1@PMCCS_Rema:

; 689  :     }

  0009d	52		 push	 edx
  0009e	8b cd		 mov	 ecx, ebp
  000a0	50		 push	 eax
  000a1	8d 15 00 00 00
	00		 lea	 edx, DWORD PTR $LN12@PMCCS_Rema
  000a7	e8 00 00 00 00	 call	 @_RTC_CheckStackVars@8
  000ac	58		 pop	 eax
  000ad	5a		 pop	 edx
  000ae	8b 4d f4	 mov	 ecx, DWORD PTR __$EHRec$[ebp+4]
  000b1	64 89 0d 00 00
	00 00		 mov	 DWORD PTR fs:0, ecx
  000b8	59		 pop	 ecx
  000b9	5f		 pop	 edi
  000ba	5e		 pop	 esi
  000bb	5b		 pop	 ebx
  000bc	83 c4 20	 add	 esp, 32			; 00000020H
  000bf	3b ec		 cmp	 ebp, esp
  000c1	e8 00 00 00 00	 call	 __RTC_CheckEsp
  000c6	8b e5		 mov	 esp, ebp
  000c8	5d		 pop	 ebp
  000c9	c2 0c 00	 ret	 12			; 0000000cH
$LN12@PMCCS_Rema:
  000cc	01 00 00 00	 DD	 1
  000d0	00 00 00 00	 DD	 $LN11@PMCCS_Rema
$LN11@PMCCS_Rema:
  000d4	e8 ff ff ff	 DD	 -24			; ffffffe8H
  000d8	04 00 00 00	 DD	 4
  000dc	00 00 00 00	 DD	 $LN9@PMCCS_Rema
$LN9@PMCCS_Rema:
  000e0	65		 DB	 101			; 00000065H
  000e1	78		 DB	 120			; 00000078H
  000e2	00		 DB	 0
_TEXT	ENDS
text$x	SEGMENT
__ehhandler$_PMCCS_Remainder_X_I@12:
  00000	8b 54 24 08	 mov	 edx, DWORD PTR [esp+8]
  00004	8d 42 0c	 lea	 eax, DWORD PTR [edx+12]
  00007	8b 4a dc	 mov	 ecx, DWORD PTR [edx-36]
  0000a	33 c8		 xor	 ecx, eax
  0000c	e8 00 00 00 00	 call	 @__security_check_cookie@4
  00011	b8 00 00 00 00	 mov	 eax, OFFSET __ehfuncinfo$_PMCCS_Remainder_X_I@12
  00016	e9 00 00 00 00	 jmp	 ___CxxFrameHandler3
text$x	ENDS
_PMCCS_Remainder_X_I@12 ENDP
; Function compile flags: /Odtp /RTCsu
; File z:\sources\lunor\repos\rougemeilland\palmtree.math.core.uint\palmtree.math.core.uint\pmc_interface_csharp.cpp
_TEXT	SEGMENT
$T2 = -32						; size = 4
_ex$3 = -24						; size = 4
__$EHRec$ = -16						; size = 16
_u$ = 8							; size = 8
_v$ = 16						; size = 4
_r$ = 20						; size = 4
_PMCCS_Remainder_L_X@16 PROC

; 662  :     {

  00000	55		 push	 ebp
  00001	8b ec		 mov	 ebp, esp
  00003	6a ff		 push	 -1
  00005	68 00 00 00 00	 push	 __ehhandler$_PMCCS_Remainder_L_X@16
  0000a	64 a1 00 00 00
	00		 mov	 eax, DWORD PTR fs:0
  00010	50		 push	 eax
  00011	51		 push	 ecx
  00012	83 ec 10	 sub	 esp, 16			; 00000010H
  00015	53		 push	 ebx
  00016	56		 push	 esi
  00017	57		 push	 edi
  00018	b8 cc cc cc cc	 mov	 eax, -858993460		; ccccccccH
  0001d	89 45 e0	 mov	 DWORD PTR [ebp-32], eax
  00020	89 45 e4	 mov	 DWORD PTR [ebp-28], eax
  00023	89 45 e8	 mov	 DWORD PTR [ebp-24], eax
  00026	89 45 ec	 mov	 DWORD PTR [ebp-20], eax
  00029	a1 00 00 00 00	 mov	 eax, DWORD PTR ___security_cookie
  0002e	33 c5		 xor	 eax, ebp
  00030	50		 push	 eax
  00031	8d 45 f4	 lea	 eax, DWORD PTR __$EHRec$[ebp+4]
  00034	64 a3 00 00 00
	00		 mov	 DWORD PTR fs:0, eax
  0003a	89 65 f0	 mov	 DWORD PTR __$EHRec$[ebp], esp
  0003d	b9 00 00 00 00	 mov	 ecx, OFFSET __C21BA676_pmc_interface_csharp@cpp
  00042	e8 00 00 00 00	 call	 @__CheckForDebuggerJustMyCode@4

; 663  :         if (r == nullptr)

  00047	83 7d 14 00	 cmp	 DWORD PTR _r$[ebp], 0
  0004b	75 07		 jne	 SHORT $LN2@PMCCS_Rema

; 664  :             return (PMC_STATUS_ARGUMENT_NULL_ERROR);

  0004d	b8 fe ff ff ff	 mov	 eax, -2			; fffffffeH
  00052	eb 50		 jmp	 SHORT $LN1@PMCCS_Rema
$LN2@PMCCS_Rema:

; 665  :         try

  00054	c7 45 fc 00 00
	00 00		 mov	 DWORD PTR __$EHRec$[ebp+12], 0

; 666  :         {
; 667  :             *r = PMC_DivRem_L_X(u, v, nullptr);

  0005b	6a 00		 push	 0
  0005d	8b 45 10	 mov	 eax, DWORD PTR _v$[ebp]
  00060	50		 push	 eax
  00061	8b 4d 0c	 mov	 ecx, DWORD PTR _u$[ebp+4]
  00064	51		 push	 ecx
  00065	8b 55 08	 mov	 edx, DWORD PTR _u$[ebp]
  00068	52		 push	 edx
  00069	e8 00 00 00 00	 call	 ?PMC_DivRem_L_X@Internal@Core@Math@Palmtree@@YG_K_KPAU__tag_PMC_HANDLE_UINT@1234@PA_K@Z ; Palmtree::Math::Core::Internal::PMC_DivRem_L_X
  0006e	8b 4d 14	 mov	 ecx, DWORD PTR _r$[ebp]
  00071	89 01		 mov	 DWORD PTR [ecx], eax
  00073	89 51 04	 mov	 DWORD PTR [ecx+4], edx

; 668  :             return (PMC_STATUS_OK);

  00076	33 c0		 xor	 eax, eax
  00078	eb 2a		 jmp	 SHORT $LN1@PMCCS_Rema
__catch$_PMCCS_Remainder_L_X@16$0:

; 669  :         }
; 670  :         catch (const Palmtree::Math::Core::Internal::Exception& ex)
; 671  :         {
; 672  :             return (ex.GetStatusCode());

  0007a	8b 4d e8	 mov	 ecx, DWORD PTR _ex$3[ebp]
  0007d	e8 00 00 00 00	 call	 ?GetStatusCode@Exception@Internal@Core@Math@Palmtree@@QBEHXZ ; Palmtree::Math::Core::Internal::Exception::GetStatusCode
  00082	89 45 e0	 mov	 DWORD PTR $T2[ebp], eax
  00085	b8 00 00 00 00	 mov	 eax, $LN8@PMCCS_Rema
  0008a	c3		 ret	 0

; 673  :         }

  0008b	b8 00 00 00 00	 mov	 eax, __tryend$_PMCCS_Remainder_L_X@16$1
  00090	c3		 ret	 0
__tryend$_PMCCS_Remainder_L_X@16$1:
  00091	c7 45 fc ff ff
	ff ff		 mov	 DWORD PTR __$EHRec$[ebp+12], -1
  00098	eb 0a		 jmp	 SHORT $LN1@PMCCS_Rema
$LN8@PMCCS_Rema:
  0009a	c7 45 fc ff ff
	ff ff		 mov	 DWORD PTR __$EHRec$[ebp+12], -1

; 669  :         }
; 670  :         catch (const Palmtree::Math::Core::Internal::Exception& ex)
; 671  :         {
; 672  :             return (ex.GetStatusCode());

  000a1	8b 45 e0	 mov	 eax, DWORD PTR $T2[ebp]
$LN1@PMCCS_Rema:

; 674  :     }

  000a4	52		 push	 edx
  000a5	8b cd		 mov	 ecx, ebp
  000a7	50		 push	 eax
  000a8	8d 15 00 00 00
	00		 lea	 edx, DWORD PTR $LN12@PMCCS_Rema
  000ae	e8 00 00 00 00	 call	 @_RTC_CheckStackVars@8
  000b3	58		 pop	 eax
  000b4	5a		 pop	 edx
  000b5	8b 4d f4	 mov	 ecx, DWORD PTR __$EHRec$[ebp+4]
  000b8	64 89 0d 00 00
	00 00		 mov	 DWORD PTR fs:0, ecx
  000bf	59		 pop	 ecx
  000c0	5f		 pop	 edi
  000c1	5e		 pop	 esi
  000c2	5b		 pop	 ebx
  000c3	83 c4 20	 add	 esp, 32			; 00000020H
  000c6	3b ec		 cmp	 ebp, esp
  000c8	e8 00 00 00 00	 call	 __RTC_CheckEsp
  000cd	8b e5		 mov	 esp, ebp
  000cf	5d		 pop	 ebp
  000d0	c2 10 00	 ret	 16			; 00000010H
  000d3	90		 npad	 1
$LN12@PMCCS_Rema:
  000d4	01 00 00 00	 DD	 1
  000d8	00 00 00 00	 DD	 $LN11@PMCCS_Rema
$LN11@PMCCS_Rema:
  000dc	e8 ff ff ff	 DD	 -24			; ffffffe8H
  000e0	04 00 00 00	 DD	 4
  000e4	00 00 00 00	 DD	 $LN9@PMCCS_Rema
$LN9@PMCCS_Rema:
  000e8	65		 DB	 101			; 00000065H
  000e9	78		 DB	 120			; 00000078H
  000ea	00		 DB	 0
_TEXT	ENDS
text$x	SEGMENT
__ehhandler$_PMCCS_Remainder_L_X@16:
  00000	8b 54 24 08	 mov	 edx, DWORD PTR [esp+8]
  00004	8d 42 0c	 lea	 eax, DWORD PTR [edx+12]
  00007	8b 4a dc	 mov	 ecx, DWORD PTR [edx-36]
  0000a	33 c8		 xor	 ecx, eax
  0000c	e8 00 00 00 00	 call	 @__security_check_cookie@4
  00011	b8 00 00 00 00	 mov	 eax, OFFSET __ehfuncinfo$_PMCCS_Remainder_L_X@16
  00016	e9 00 00 00 00	 jmp	 ___CxxFrameHandler3
text$x	ENDS
_PMCCS_Remainder_L_X@16 ENDP
; Function compile flags: /Odtp /RTCsu
; File z:\sources\lunor\repos\rougemeilland\palmtree.math.core.uint\palmtree.math.core.uint\pmc_interface_csharp.cpp
_TEXT	SEGMENT
$T2 = -32						; size = 4
_ex$3 = -24						; size = 4
__$EHRec$ = -16						; size = 16
_u$ = 8							; size = 4
_v$ = 12						; size = 4
_r$ = 16						; size = 4
_PMCCS_Remainder_I_X@12 PROC

; 647  :     {

  00000	55		 push	 ebp
  00001	8b ec		 mov	 ebp, esp
  00003	6a ff		 push	 -1
  00005	68 00 00 00 00	 push	 __ehhandler$_PMCCS_Remainder_I_X@12
  0000a	64 a1 00 00 00
	00		 mov	 eax, DWORD PTR fs:0
  00010	50		 push	 eax
  00011	51		 push	 ecx
  00012	83 ec 10	 sub	 esp, 16			; 00000010H
  00015	53		 push	 ebx
  00016	56		 push	 esi
  00017	57		 push	 edi
  00018	b8 cc cc cc cc	 mov	 eax, -858993460		; ccccccccH
  0001d	89 45 e0	 mov	 DWORD PTR [ebp-32], eax
  00020	89 45 e4	 mov	 DWORD PTR [ebp-28], eax
  00023	89 45 e8	 mov	 DWORD PTR [ebp-24], eax
  00026	89 45 ec	 mov	 DWORD PTR [ebp-20], eax
  00029	a1 00 00 00 00	 mov	 eax, DWORD PTR ___security_cookie
  0002e	33 c5		 xor	 eax, ebp
  00030	50		 push	 eax
  00031	8d 45 f4	 lea	 eax, DWORD PTR __$EHRec$[ebp+4]
  00034	64 a3 00 00 00
	00		 mov	 DWORD PTR fs:0, eax
  0003a	89 65 f0	 mov	 DWORD PTR __$EHRec$[ebp], esp
  0003d	b9 00 00 00 00	 mov	 ecx, OFFSET __C21BA676_pmc_interface_csharp@cpp
  00042	e8 00 00 00 00	 call	 @__CheckForDebuggerJustMyCode@4

; 648  :         if (r == nullptr)

  00047	83 7d 10 00	 cmp	 DWORD PTR _r$[ebp], 0
  0004b	75 07		 jne	 SHORT $LN2@PMCCS_Rema

; 649  :             return (PMC_STATUS_ARGUMENT_NULL_ERROR);

  0004d	b8 fe ff ff ff	 mov	 eax, -2			; fffffffeH
  00052	eb 49		 jmp	 SHORT $LN1@PMCCS_Rema
$LN2@PMCCS_Rema:

; 650  :         try

  00054	c7 45 fc 00 00
	00 00		 mov	 DWORD PTR __$EHRec$[ebp+12], 0

; 651  :         {
; 652  :             *r = PMC_DivRem_I_X(u, v, nullptr);

  0005b	6a 00		 push	 0
  0005d	8b 45 0c	 mov	 eax, DWORD PTR _v$[ebp]
  00060	50		 push	 eax
  00061	8b 4d 08	 mov	 ecx, DWORD PTR _u$[ebp]
  00064	51		 push	 ecx
  00065	e8 00 00 00 00	 call	 ?PMC_DivRem_I_X@Internal@Core@Math@Palmtree@@YGIIPAU__tag_PMC_HANDLE_UINT@1234@PAI@Z ; Palmtree::Math::Core::Internal::PMC_DivRem_I_X
  0006a	8b 55 10	 mov	 edx, DWORD PTR _r$[ebp]
  0006d	89 02		 mov	 DWORD PTR [edx], eax

; 653  :             return (PMC_STATUS_OK);

  0006f	33 c0		 xor	 eax, eax
  00071	eb 2a		 jmp	 SHORT $LN1@PMCCS_Rema
__catch$_PMCCS_Remainder_I_X@12$0:

; 654  :         }
; 655  :         catch (const Palmtree::Math::Core::Internal::Exception& ex)
; 656  :         {
; 657  :             return (ex.GetStatusCode());

  00073	8b 4d e8	 mov	 ecx, DWORD PTR _ex$3[ebp]
  00076	e8 00 00 00 00	 call	 ?GetStatusCode@Exception@Internal@Core@Math@Palmtree@@QBEHXZ ; Palmtree::Math::Core::Internal::Exception::GetStatusCode
  0007b	89 45 e0	 mov	 DWORD PTR $T2[ebp], eax
  0007e	b8 00 00 00 00	 mov	 eax, $LN8@PMCCS_Rema
  00083	c3		 ret	 0

; 658  :         }

  00084	b8 00 00 00 00	 mov	 eax, __tryend$_PMCCS_Remainder_I_X@12$1
  00089	c3		 ret	 0
__tryend$_PMCCS_Remainder_I_X@12$1:
  0008a	c7 45 fc ff ff
	ff ff		 mov	 DWORD PTR __$EHRec$[ebp+12], -1
  00091	eb 0a		 jmp	 SHORT $LN1@PMCCS_Rema
$LN8@PMCCS_Rema:
  00093	c7 45 fc ff ff
	ff ff		 mov	 DWORD PTR __$EHRec$[ebp+12], -1

; 654  :         }
; 655  :         catch (const Palmtree::Math::Core::Internal::Exception& ex)
; 656  :         {
; 657  :             return (ex.GetStatusCode());

  0009a	8b 45 e0	 mov	 eax, DWORD PTR $T2[ebp]
$LN1@PMCCS_Rema:

; 659  :     }

  0009d	52		 push	 edx
  0009e	8b cd		 mov	 ecx, ebp
  000a0	50		 push	 eax
  000a1	8d 15 00 00 00
	00		 lea	 edx, DWORD PTR $LN12@PMCCS_Rema
  000a7	e8 00 00 00 00	 call	 @_RTC_CheckStackVars@8
  000ac	58		 pop	 eax
  000ad	5a		 pop	 edx
  000ae	8b 4d f4	 mov	 ecx, DWORD PTR __$EHRec$[ebp+4]
  000b1	64 89 0d 00 00
	00 00		 mov	 DWORD PTR fs:0, ecx
  000b8	59		 pop	 ecx
  000b9	5f		 pop	 edi
  000ba	5e		 pop	 esi
  000bb	5b		 pop	 ebx
  000bc	83 c4 20	 add	 esp, 32			; 00000020H
  000bf	3b ec		 cmp	 ebp, esp
  000c1	e8 00 00 00 00	 call	 __RTC_CheckEsp
  000c6	8b e5		 mov	 esp, ebp
  000c8	5d		 pop	 ebp
  000c9	c2 0c 00	 ret	 12			; 0000000cH
$LN12@PMCCS_Rema:
  000cc	01 00 00 00	 DD	 1
  000d0	00 00 00 00	 DD	 $LN11@PMCCS_Rema
$LN11@PMCCS_Rema:
  000d4	e8 ff ff ff	 DD	 -24			; ffffffe8H
  000d8	04 00 00 00	 DD	 4
  000dc	00 00 00 00	 DD	 $LN9@PMCCS_Rema
$LN9@PMCCS_Rema:
  000e0	65		 DB	 101			; 00000065H
  000e1	78		 DB	 120			; 00000078H
  000e2	00		 DB	 0
_TEXT	ENDS
text$x	SEGMENT
__ehhandler$_PMCCS_Remainder_I_X@12:
  00000	8b 54 24 08	 mov	 edx, DWORD PTR [esp+8]
  00004	8d 42 0c	 lea	 eax, DWORD PTR [edx+12]
  00007	8b 4a dc	 mov	 ecx, DWORD PTR [edx-36]
  0000a	33 c8		 xor	 ecx, eax
  0000c	e8 00 00 00 00	 call	 @__security_check_cookie@4
  00011	b8 00 00 00 00	 mov	 eax, OFFSET __ehfuncinfo$_PMCCS_Remainder_I_X@12
  00016	e9 00 00 00 00	 jmp	 ___CxxFrameHandler3
text$x	ENDS
_PMCCS_Remainder_I_X@12 ENDP
; Function compile flags: /Odtp /RTCsu
; File z:\sources\lunor\repos\rougemeilland\palmtree.math.core.uint\palmtree.math.core.uint\pmc_interface_csharp.cpp
_TEXT	SEGMENT
$T2 = -32						; size = 4
_ex$3 = -24						; size = 4
__$EHRec$ = -16						; size = 16
_u$ = 8							; size = 4
_v$ = 12						; size = 4
_q$ = 16						; size = 4
_r$ = 20						; size = 4
_PMCCS_DivRem_X_X@16 PROC

; 632  :     {

  00000	55		 push	 ebp
  00001	8b ec		 mov	 ebp, esp
  00003	6a ff		 push	 -1
  00005	68 00 00 00 00	 push	 __ehhandler$_PMCCS_DivRem_X_X@16
  0000a	64 a1 00 00 00
	00		 mov	 eax, DWORD PTR fs:0
  00010	50		 push	 eax
  00011	51		 push	 ecx
  00012	83 ec 10	 sub	 esp, 16			; 00000010H
  00015	53		 push	 ebx
  00016	56		 push	 esi
  00017	57		 push	 edi
  00018	b8 cc cc cc cc	 mov	 eax, -858993460		; ccccccccH
  0001d	89 45 e0	 mov	 DWORD PTR [ebp-32], eax
  00020	89 45 e4	 mov	 DWORD PTR [ebp-28], eax
  00023	89 45 e8	 mov	 DWORD PTR [ebp-24], eax
  00026	89 45 ec	 mov	 DWORD PTR [ebp-20], eax
  00029	a1 00 00 00 00	 mov	 eax, DWORD PTR ___security_cookie
  0002e	33 c5		 xor	 eax, ebp
  00030	50		 push	 eax
  00031	8d 45 f4	 lea	 eax, DWORD PTR __$EHRec$[ebp+4]
  00034	64 a3 00 00 00
	00		 mov	 DWORD PTR fs:0, eax
  0003a	89 65 f0	 mov	 DWORD PTR __$EHRec$[ebp], esp
  0003d	b9 00 00 00 00	 mov	 ecx, OFFSET __C21BA676_pmc_interface_csharp@cpp
  00042	e8 00 00 00 00	 call	 @__CheckForDebuggerJustMyCode@4

; 633  :         if (r == nullptr)

  00047	83 7d 14 00	 cmp	 DWORD PTR _r$[ebp], 0
  0004b	75 07		 jne	 SHORT $LN2@PMCCS_DivR

; 634  :             return (PMC_STATUS_ARGUMENT_NULL_ERROR);

  0004d	b8 fe ff ff ff	 mov	 eax, -2			; fffffffeH
  00052	eb 4b		 jmp	 SHORT $LN1@PMCCS_DivR
$LN2@PMCCS_DivR:

; 635  :         try

  00054	c7 45 fc 00 00
	00 00		 mov	 DWORD PTR __$EHRec$[ebp+12], 0

; 636  :         {
; 637  :             *r = PMC_DivRem_X_X(u, v, q);

  0005b	8b 45 10	 mov	 eax, DWORD PTR _q$[ebp]
  0005e	50		 push	 eax
  0005f	8b 4d 0c	 mov	 ecx, DWORD PTR _v$[ebp]
  00062	51		 push	 ecx
  00063	8b 55 08	 mov	 edx, DWORD PTR _u$[ebp]
  00066	52		 push	 edx
  00067	e8 00 00 00 00	 call	 ?PMC_DivRem_X_X@Internal@Core@Math@Palmtree@@YGPAU__tag_PMC_HANDLE_UINT@1234@PAU51234@0PAPAU51234@@Z ; Palmtree::Math::Core::Internal::PMC_DivRem_X_X
  0006c	8b 4d 14	 mov	 ecx, DWORD PTR _r$[ebp]
  0006f	89 01		 mov	 DWORD PTR [ecx], eax

; 638  :             return (PMC_STATUS_OK);

  00071	33 c0		 xor	 eax, eax
  00073	eb 2a		 jmp	 SHORT $LN1@PMCCS_DivR
__catch$_PMCCS_DivRem_X_X@16$0:

; 639  :         }
; 640  :         catch (const Palmtree::Math::Core::Internal::Exception& ex)
; 641  :         {
; 642  :             return (ex.GetStatusCode());

  00075	8b 4d e8	 mov	 ecx, DWORD PTR _ex$3[ebp]
  00078	e8 00 00 00 00	 call	 ?GetStatusCode@Exception@Internal@Core@Math@Palmtree@@QBEHXZ ; Palmtree::Math::Core::Internal::Exception::GetStatusCode
  0007d	89 45 e0	 mov	 DWORD PTR $T2[ebp], eax
  00080	b8 00 00 00 00	 mov	 eax, $LN8@PMCCS_DivR
  00085	c3		 ret	 0

; 643  :         }

  00086	b8 00 00 00 00	 mov	 eax, __tryend$_PMCCS_DivRem_X_X@16$1
  0008b	c3		 ret	 0
__tryend$_PMCCS_DivRem_X_X@16$1:
  0008c	c7 45 fc ff ff
	ff ff		 mov	 DWORD PTR __$EHRec$[ebp+12], -1
  00093	eb 0a		 jmp	 SHORT $LN1@PMCCS_DivR
$LN8@PMCCS_DivR:
  00095	c7 45 fc ff ff
	ff ff		 mov	 DWORD PTR __$EHRec$[ebp+12], -1

; 639  :         }
; 640  :         catch (const Palmtree::Math::Core::Internal::Exception& ex)
; 641  :         {
; 642  :             return (ex.GetStatusCode());

  0009c	8b 45 e0	 mov	 eax, DWORD PTR $T2[ebp]
$LN1@PMCCS_DivR:

; 644  :     }

  0009f	52		 push	 edx
  000a0	8b cd		 mov	 ecx, ebp
  000a2	50		 push	 eax
  000a3	8d 15 00 00 00
	00		 lea	 edx, DWORD PTR $LN12@PMCCS_DivR
  000a9	e8 00 00 00 00	 call	 @_RTC_CheckStackVars@8
  000ae	58		 pop	 eax
  000af	5a		 pop	 edx
  000b0	8b 4d f4	 mov	 ecx, DWORD PTR __$EHRec$[ebp+4]
  000b3	64 89 0d 00 00
	00 00		 mov	 DWORD PTR fs:0, ecx
  000ba	59		 pop	 ecx
  000bb	5f		 pop	 edi
  000bc	5e		 pop	 esi
  000bd	5b		 pop	 ebx
  000be	83 c4 20	 add	 esp, 32			; 00000020H
  000c1	3b ec		 cmp	 ebp, esp
  000c3	e8 00 00 00 00	 call	 __RTC_CheckEsp
  000c8	8b e5		 mov	 esp, ebp
  000ca	5d		 pop	 ebp
  000cb	c2 10 00	 ret	 16			; 00000010H
  000ce	66 90		 npad	 2
$LN12@PMCCS_DivR:
  000d0	01 00 00 00	 DD	 1
  000d4	00 00 00 00	 DD	 $LN11@PMCCS_DivR
$LN11@PMCCS_DivR:
  000d8	e8 ff ff ff	 DD	 -24			; ffffffe8H
  000dc	04 00 00 00	 DD	 4
  000e0	00 00 00 00	 DD	 $LN9@PMCCS_DivR
$LN9@PMCCS_DivR:
  000e4	65		 DB	 101			; 00000065H
  000e5	78		 DB	 120			; 00000078H
  000e6	00		 DB	 0
_TEXT	ENDS
text$x	SEGMENT
__ehhandler$_PMCCS_DivRem_X_X@16:
  00000	8b 54 24 08	 mov	 edx, DWORD PTR [esp+8]
  00004	8d 42 0c	 lea	 eax, DWORD PTR [edx+12]
  00007	8b 4a dc	 mov	 ecx, DWORD PTR [edx-36]
  0000a	33 c8		 xor	 ecx, eax
  0000c	e8 00 00 00 00	 call	 @__security_check_cookie@4
  00011	b8 00 00 00 00	 mov	 eax, OFFSET __ehfuncinfo$_PMCCS_DivRem_X_X@16
  00016	e9 00 00 00 00	 jmp	 ___CxxFrameHandler3
text$x	ENDS
_PMCCS_DivRem_X_X@16 ENDP
; Function compile flags: /Odtp /RTCsu
; File z:\sources\lunor\repos\rougemeilland\palmtree.math.core.uint\palmtree.math.core.uint\pmc_interface_csharp.cpp
_TEXT	SEGMENT
$T2 = -32						; size = 4
_ex$3 = -24						; size = 4
__$EHRec$ = -16						; size = 16
_u$ = 8							; size = 4
_v$ = 12						; size = 8
_q$ = 20						; size = 4
_r$ = 24						; size = 4
_PMCCS_DivRem_X_L@20 PROC

; 617  :     {

  00000	55		 push	 ebp
  00001	8b ec		 mov	 ebp, esp
  00003	6a ff		 push	 -1
  00005	68 00 00 00 00	 push	 __ehhandler$_PMCCS_DivRem_X_L@20
  0000a	64 a1 00 00 00
	00		 mov	 eax, DWORD PTR fs:0
  00010	50		 push	 eax
  00011	51		 push	 ecx
  00012	83 ec 10	 sub	 esp, 16			; 00000010H
  00015	53		 push	 ebx
  00016	56		 push	 esi
  00017	57		 push	 edi
  00018	b8 cc cc cc cc	 mov	 eax, -858993460		; ccccccccH
  0001d	89 45 e0	 mov	 DWORD PTR [ebp-32], eax
  00020	89 45 e4	 mov	 DWORD PTR [ebp-28], eax
  00023	89 45 e8	 mov	 DWORD PTR [ebp-24], eax
  00026	89 45 ec	 mov	 DWORD PTR [ebp-20], eax
  00029	a1 00 00 00 00	 mov	 eax, DWORD PTR ___security_cookie
  0002e	33 c5		 xor	 eax, ebp
  00030	50		 push	 eax
  00031	8d 45 f4	 lea	 eax, DWORD PTR __$EHRec$[ebp+4]
  00034	64 a3 00 00 00
	00		 mov	 DWORD PTR fs:0, eax
  0003a	89 65 f0	 mov	 DWORD PTR __$EHRec$[ebp], esp
  0003d	b9 00 00 00 00	 mov	 ecx, OFFSET __C21BA676_pmc_interface_csharp@cpp
  00042	e8 00 00 00 00	 call	 @__CheckForDebuggerJustMyCode@4

; 618  :         if (r == nullptr)

  00047	83 7d 18 00	 cmp	 DWORD PTR _r$[ebp], 0
  0004b	75 07		 jne	 SHORT $LN2@PMCCS_DivR

; 619  :             return (PMC_STATUS_ARGUMENT_NULL_ERROR);

  0004d	b8 fe ff ff ff	 mov	 eax, -2			; fffffffeH
  00052	eb 52		 jmp	 SHORT $LN1@PMCCS_DivR
$LN2@PMCCS_DivR:

; 620  :         try

  00054	c7 45 fc 00 00
	00 00		 mov	 DWORD PTR __$EHRec$[ebp+12], 0

; 621  :         {
; 622  :             *r = PMC_DivRem_X_L(u, v, q);

  0005b	8b 45 14	 mov	 eax, DWORD PTR _q$[ebp]
  0005e	50		 push	 eax
  0005f	8b 4d 10	 mov	 ecx, DWORD PTR _v$[ebp+4]
  00062	51		 push	 ecx
  00063	8b 55 0c	 mov	 edx, DWORD PTR _v$[ebp]
  00066	52		 push	 edx
  00067	8b 45 08	 mov	 eax, DWORD PTR _u$[ebp]
  0006a	50		 push	 eax
  0006b	e8 00 00 00 00	 call	 ?PMC_DivRem_X_L@Internal@Core@Math@Palmtree@@YG_KPAU__tag_PMC_HANDLE_UINT@1234@_KPAPAU51234@@Z ; Palmtree::Math::Core::Internal::PMC_DivRem_X_L
  00070	8b 4d 18	 mov	 ecx, DWORD PTR _r$[ebp]
  00073	89 01		 mov	 DWORD PTR [ecx], eax
  00075	89 51 04	 mov	 DWORD PTR [ecx+4], edx

; 623  :             return (PMC_STATUS_OK);

  00078	33 c0		 xor	 eax, eax
  0007a	eb 2a		 jmp	 SHORT $LN1@PMCCS_DivR
__catch$_PMCCS_DivRem_X_L@20$0:

; 624  :         }
; 625  :         catch (const Palmtree::Math::Core::Internal::Exception& ex)
; 626  :         {
; 627  :             return (ex.GetStatusCode());

  0007c	8b 4d e8	 mov	 ecx, DWORD PTR _ex$3[ebp]
  0007f	e8 00 00 00 00	 call	 ?GetStatusCode@Exception@Internal@Core@Math@Palmtree@@QBEHXZ ; Palmtree::Math::Core::Internal::Exception::GetStatusCode
  00084	89 45 e0	 mov	 DWORD PTR $T2[ebp], eax
  00087	b8 00 00 00 00	 mov	 eax, $LN8@PMCCS_DivR
  0008c	c3		 ret	 0

; 628  :         }

  0008d	b8 00 00 00 00	 mov	 eax, __tryend$_PMCCS_DivRem_X_L@20$1
  00092	c3		 ret	 0
__tryend$_PMCCS_DivRem_X_L@20$1:
  00093	c7 45 fc ff ff
	ff ff		 mov	 DWORD PTR __$EHRec$[ebp+12], -1
  0009a	eb 0a		 jmp	 SHORT $LN1@PMCCS_DivR
$LN8@PMCCS_DivR:
  0009c	c7 45 fc ff ff
	ff ff		 mov	 DWORD PTR __$EHRec$[ebp+12], -1

; 624  :         }
; 625  :         catch (const Palmtree::Math::Core::Internal::Exception& ex)
; 626  :         {
; 627  :             return (ex.GetStatusCode());

  000a3	8b 45 e0	 mov	 eax, DWORD PTR $T2[ebp]
$LN1@PMCCS_DivR:

; 629  :     }

  000a6	52		 push	 edx
  000a7	8b cd		 mov	 ecx, ebp
  000a9	50		 push	 eax
  000aa	8d 15 00 00 00
	00		 lea	 edx, DWORD PTR $LN12@PMCCS_DivR
  000b0	e8 00 00 00 00	 call	 @_RTC_CheckStackVars@8
  000b5	58		 pop	 eax
  000b6	5a		 pop	 edx
  000b7	8b 4d f4	 mov	 ecx, DWORD PTR __$EHRec$[ebp+4]
  000ba	64 89 0d 00 00
	00 00		 mov	 DWORD PTR fs:0, ecx
  000c1	59		 pop	 ecx
  000c2	5f		 pop	 edi
  000c3	5e		 pop	 esi
  000c4	5b		 pop	 ebx
  000c5	83 c4 20	 add	 esp, 32			; 00000020H
  000c8	3b ec		 cmp	 ebp, esp
  000ca	e8 00 00 00 00	 call	 __RTC_CheckEsp
  000cf	8b e5		 mov	 esp, ebp
  000d1	5d		 pop	 ebp
  000d2	c2 14 00	 ret	 20			; 00000014H
  000d5	0f 1f 00	 npad	 3
$LN12@PMCCS_DivR:
  000d8	01 00 00 00	 DD	 1
  000dc	00 00 00 00	 DD	 $LN11@PMCCS_DivR
$LN11@PMCCS_DivR:
  000e0	e8 ff ff ff	 DD	 -24			; ffffffe8H
  000e4	04 00 00 00	 DD	 4
  000e8	00 00 00 00	 DD	 $LN9@PMCCS_DivR
$LN9@PMCCS_DivR:
  000ec	65		 DB	 101			; 00000065H
  000ed	78		 DB	 120			; 00000078H
  000ee	00		 DB	 0
_TEXT	ENDS
text$x	SEGMENT
__ehhandler$_PMCCS_DivRem_X_L@20:
  00000	8b 54 24 08	 mov	 edx, DWORD PTR [esp+8]
  00004	8d 42 0c	 lea	 eax, DWORD PTR [edx+12]
  00007	8b 4a dc	 mov	 ecx, DWORD PTR [edx-36]
  0000a	33 c8		 xor	 ecx, eax
  0000c	e8 00 00 00 00	 call	 @__security_check_cookie@4
  00011	b8 00 00 00 00	 mov	 eax, OFFSET __ehfuncinfo$_PMCCS_DivRem_X_L@20
  00016	e9 00 00 00 00	 jmp	 ___CxxFrameHandler3
text$x	ENDS
_PMCCS_DivRem_X_L@20 ENDP
; Function compile flags: /Odtp /RTCsu
; File z:\sources\lunor\repos\rougemeilland\palmtree.math.core.uint\palmtree.math.core.uint\pmc_interface_csharp.cpp
_TEXT	SEGMENT
$T2 = -32						; size = 4
_ex$3 = -24						; size = 4
__$EHRec$ = -16						; size = 16
_u$ = 8							; size = 4
_v$ = 12						; size = 4
_q$ = 16						; size = 4
_r$ = 20						; size = 4
_PMCCS_DivRem_X_I@16 PROC

; 602  :     {

  00000	55		 push	 ebp
  00001	8b ec		 mov	 ebp, esp
  00003	6a ff		 push	 -1
  00005	68 00 00 00 00	 push	 __ehhandler$_PMCCS_DivRem_X_I@16
  0000a	64 a1 00 00 00
	00		 mov	 eax, DWORD PTR fs:0
  00010	50		 push	 eax
  00011	51		 push	 ecx
  00012	83 ec 10	 sub	 esp, 16			; 00000010H
  00015	53		 push	 ebx
  00016	56		 push	 esi
  00017	57		 push	 edi
  00018	b8 cc cc cc cc	 mov	 eax, -858993460		; ccccccccH
  0001d	89 45 e0	 mov	 DWORD PTR [ebp-32], eax
  00020	89 45 e4	 mov	 DWORD PTR [ebp-28], eax
  00023	89 45 e8	 mov	 DWORD PTR [ebp-24], eax
  00026	89 45 ec	 mov	 DWORD PTR [ebp-20], eax
  00029	a1 00 00 00 00	 mov	 eax, DWORD PTR ___security_cookie
  0002e	33 c5		 xor	 eax, ebp
  00030	50		 push	 eax
  00031	8d 45 f4	 lea	 eax, DWORD PTR __$EHRec$[ebp+4]
  00034	64 a3 00 00 00
	00		 mov	 DWORD PTR fs:0, eax
  0003a	89 65 f0	 mov	 DWORD PTR __$EHRec$[ebp], esp
  0003d	b9 00 00 00 00	 mov	 ecx, OFFSET __C21BA676_pmc_interface_csharp@cpp
  00042	e8 00 00 00 00	 call	 @__CheckForDebuggerJustMyCode@4

; 603  :         if (r == nullptr)

  00047	83 7d 14 00	 cmp	 DWORD PTR _r$[ebp], 0
  0004b	75 07		 jne	 SHORT $LN2@PMCCS_DivR

; 604  :             return (PMC_STATUS_ARGUMENT_NULL_ERROR);

  0004d	b8 fe ff ff ff	 mov	 eax, -2			; fffffffeH
  00052	eb 4b		 jmp	 SHORT $LN1@PMCCS_DivR
$LN2@PMCCS_DivR:

; 605  :         try

  00054	c7 45 fc 00 00
	00 00		 mov	 DWORD PTR __$EHRec$[ebp+12], 0

; 606  :         {
; 607  :             *r = PMC_DivRem_X_I(u, v, q);

  0005b	8b 45 10	 mov	 eax, DWORD PTR _q$[ebp]
  0005e	50		 push	 eax
  0005f	8b 4d 0c	 mov	 ecx, DWORD PTR _v$[ebp]
  00062	51		 push	 ecx
  00063	8b 55 08	 mov	 edx, DWORD PTR _u$[ebp]
  00066	52		 push	 edx
  00067	e8 00 00 00 00	 call	 ?PMC_DivRem_X_I@Internal@Core@Math@Palmtree@@YGIPAU__tag_PMC_HANDLE_UINT@1234@IPAPAU51234@@Z ; Palmtree::Math::Core::Internal::PMC_DivRem_X_I
  0006c	8b 4d 14	 mov	 ecx, DWORD PTR _r$[ebp]
  0006f	89 01		 mov	 DWORD PTR [ecx], eax

; 608  :             return (PMC_STATUS_OK);

  00071	33 c0		 xor	 eax, eax
  00073	eb 2a		 jmp	 SHORT $LN1@PMCCS_DivR
__catch$_PMCCS_DivRem_X_I@16$0:

; 609  :         }
; 610  :         catch (const Palmtree::Math::Core::Internal::Exception& ex)
; 611  :         {
; 612  :             return (ex.GetStatusCode());

  00075	8b 4d e8	 mov	 ecx, DWORD PTR _ex$3[ebp]
  00078	e8 00 00 00 00	 call	 ?GetStatusCode@Exception@Internal@Core@Math@Palmtree@@QBEHXZ ; Palmtree::Math::Core::Internal::Exception::GetStatusCode
  0007d	89 45 e0	 mov	 DWORD PTR $T2[ebp], eax
  00080	b8 00 00 00 00	 mov	 eax, $LN8@PMCCS_DivR
  00085	c3		 ret	 0

; 613  :         }

  00086	b8 00 00 00 00	 mov	 eax, __tryend$_PMCCS_DivRem_X_I@16$1
  0008b	c3		 ret	 0
__tryend$_PMCCS_DivRem_X_I@16$1:
  0008c	c7 45 fc ff ff
	ff ff		 mov	 DWORD PTR __$EHRec$[ebp+12], -1
  00093	eb 0a		 jmp	 SHORT $LN1@PMCCS_DivR
$LN8@PMCCS_DivR:
  00095	c7 45 fc ff ff
	ff ff		 mov	 DWORD PTR __$EHRec$[ebp+12], -1

; 609  :         }
; 610  :         catch (const Palmtree::Math::Core::Internal::Exception& ex)
; 611  :         {
; 612  :             return (ex.GetStatusCode());

  0009c	8b 45 e0	 mov	 eax, DWORD PTR $T2[ebp]
$LN1@PMCCS_DivR:

; 614  :     }

  0009f	52		 push	 edx
  000a0	8b cd		 mov	 ecx, ebp
  000a2	50		 push	 eax
  000a3	8d 15 00 00 00
	00		 lea	 edx, DWORD PTR $LN12@PMCCS_DivR
  000a9	e8 00 00 00 00	 call	 @_RTC_CheckStackVars@8
  000ae	58		 pop	 eax
  000af	5a		 pop	 edx
  000b0	8b 4d f4	 mov	 ecx, DWORD PTR __$EHRec$[ebp+4]
  000b3	64 89 0d 00 00
	00 00		 mov	 DWORD PTR fs:0, ecx
  000ba	59		 pop	 ecx
  000bb	5f		 pop	 edi
  000bc	5e		 pop	 esi
  000bd	5b		 pop	 ebx
  000be	83 c4 20	 add	 esp, 32			; 00000020H
  000c1	3b ec		 cmp	 ebp, esp
  000c3	e8 00 00 00 00	 call	 __RTC_CheckEsp
  000c8	8b e5		 mov	 esp, ebp
  000ca	5d		 pop	 ebp
  000cb	c2 10 00	 ret	 16			; 00000010H
  000ce	66 90		 npad	 2
$LN12@PMCCS_DivR:
  000d0	01 00 00 00	 DD	 1
  000d4	00 00 00 00	 DD	 $LN11@PMCCS_DivR
$LN11@PMCCS_DivR:
  000d8	e8 ff ff ff	 DD	 -24			; ffffffe8H
  000dc	04 00 00 00	 DD	 4
  000e0	00 00 00 00	 DD	 $LN9@PMCCS_DivR
$LN9@PMCCS_DivR:
  000e4	65		 DB	 101			; 00000065H
  000e5	78		 DB	 120			; 00000078H
  000e6	00		 DB	 0
_TEXT	ENDS
text$x	SEGMENT
__ehhandler$_PMCCS_DivRem_X_I@16:
  00000	8b 54 24 08	 mov	 edx, DWORD PTR [esp+8]
  00004	8d 42 0c	 lea	 eax, DWORD PTR [edx+12]
  00007	8b 4a dc	 mov	 ecx, DWORD PTR [edx-36]
  0000a	33 c8		 xor	 ecx, eax
  0000c	e8 00 00 00 00	 call	 @__security_check_cookie@4
  00011	b8 00 00 00 00	 mov	 eax, OFFSET __ehfuncinfo$_PMCCS_DivRem_X_I@16
  00016	e9 00 00 00 00	 jmp	 ___CxxFrameHandler3
text$x	ENDS
_PMCCS_DivRem_X_I@16 ENDP
; Function compile flags: /Odtp /RTCsu
; File z:\sources\lunor\repos\rougemeilland\palmtree.math.core.uint\palmtree.math.core.uint\pmc_interface_csharp.cpp
_TEXT	SEGMENT
$T2 = -32						; size = 4
_ex$3 = -24						; size = 4
__$EHRec$ = -16						; size = 16
_u$ = 8							; size = 8
_v$ = 16						; size = 4
_q$ = 20						; size = 4
_r$ = 24						; size = 4
_PMCCS_DivRem_L_X@20 PROC

; 587  :     {

  00000	55		 push	 ebp
  00001	8b ec		 mov	 ebp, esp
  00003	6a ff		 push	 -1
  00005	68 00 00 00 00	 push	 __ehhandler$_PMCCS_DivRem_L_X@20
  0000a	64 a1 00 00 00
	00		 mov	 eax, DWORD PTR fs:0
  00010	50		 push	 eax
  00011	51		 push	 ecx
  00012	83 ec 10	 sub	 esp, 16			; 00000010H
  00015	53		 push	 ebx
  00016	56		 push	 esi
  00017	57		 push	 edi
  00018	b8 cc cc cc cc	 mov	 eax, -858993460		; ccccccccH
  0001d	89 45 e0	 mov	 DWORD PTR [ebp-32], eax
  00020	89 45 e4	 mov	 DWORD PTR [ebp-28], eax
  00023	89 45 e8	 mov	 DWORD PTR [ebp-24], eax
  00026	89 45 ec	 mov	 DWORD PTR [ebp-20], eax
  00029	a1 00 00 00 00	 mov	 eax, DWORD PTR ___security_cookie
  0002e	33 c5		 xor	 eax, ebp
  00030	50		 push	 eax
  00031	8d 45 f4	 lea	 eax, DWORD PTR __$EHRec$[ebp+4]
  00034	64 a3 00 00 00
	00		 mov	 DWORD PTR fs:0, eax
  0003a	89 65 f0	 mov	 DWORD PTR __$EHRec$[ebp], esp
  0003d	b9 00 00 00 00	 mov	 ecx, OFFSET __C21BA676_pmc_interface_csharp@cpp
  00042	e8 00 00 00 00	 call	 @__CheckForDebuggerJustMyCode@4

; 588  :         if (r == nullptr)

  00047	83 7d 18 00	 cmp	 DWORD PTR _r$[ebp], 0
  0004b	75 07		 jne	 SHORT $LN2@PMCCS_DivR

; 589  :             return (PMC_STATUS_ARGUMENT_NULL_ERROR);

  0004d	b8 fe ff ff ff	 mov	 eax, -2			; fffffffeH
  00052	eb 52		 jmp	 SHORT $LN1@PMCCS_DivR
$LN2@PMCCS_DivR:

; 590  :         try

  00054	c7 45 fc 00 00
	00 00		 mov	 DWORD PTR __$EHRec$[ebp+12], 0

; 591  :         {
; 592  :             *r = PMC_DivRem_L_X(u, v, q);

  0005b	8b 45 14	 mov	 eax, DWORD PTR _q$[ebp]
  0005e	50		 push	 eax
  0005f	8b 4d 10	 mov	 ecx, DWORD PTR _v$[ebp]
  00062	51		 push	 ecx
  00063	8b 55 0c	 mov	 edx, DWORD PTR _u$[ebp+4]
  00066	52		 push	 edx
  00067	8b 45 08	 mov	 eax, DWORD PTR _u$[ebp]
  0006a	50		 push	 eax
  0006b	e8 00 00 00 00	 call	 ?PMC_DivRem_L_X@Internal@Core@Math@Palmtree@@YG_K_KPAU__tag_PMC_HANDLE_UINT@1234@PA_K@Z ; Palmtree::Math::Core::Internal::PMC_DivRem_L_X
  00070	8b 4d 18	 mov	 ecx, DWORD PTR _r$[ebp]
  00073	89 01		 mov	 DWORD PTR [ecx], eax
  00075	89 51 04	 mov	 DWORD PTR [ecx+4], edx

; 593  :             return (PMC_STATUS_OK);

  00078	33 c0		 xor	 eax, eax
  0007a	eb 2a		 jmp	 SHORT $LN1@PMCCS_DivR
__catch$_PMCCS_DivRem_L_X@20$0:

; 594  :         }
; 595  :         catch (const Palmtree::Math::Core::Internal::Exception& ex)
; 596  :         {
; 597  :             return (ex.GetStatusCode());

  0007c	8b 4d e8	 mov	 ecx, DWORD PTR _ex$3[ebp]
  0007f	e8 00 00 00 00	 call	 ?GetStatusCode@Exception@Internal@Core@Math@Palmtree@@QBEHXZ ; Palmtree::Math::Core::Internal::Exception::GetStatusCode
  00084	89 45 e0	 mov	 DWORD PTR $T2[ebp], eax
  00087	b8 00 00 00 00	 mov	 eax, $LN8@PMCCS_DivR
  0008c	c3		 ret	 0

; 598  :         }

  0008d	b8 00 00 00 00	 mov	 eax, __tryend$_PMCCS_DivRem_L_X@20$1
  00092	c3		 ret	 0
__tryend$_PMCCS_DivRem_L_X@20$1:
  00093	c7 45 fc ff ff
	ff ff		 mov	 DWORD PTR __$EHRec$[ebp+12], -1
  0009a	eb 0a		 jmp	 SHORT $LN1@PMCCS_DivR
$LN8@PMCCS_DivR:
  0009c	c7 45 fc ff ff
	ff ff		 mov	 DWORD PTR __$EHRec$[ebp+12], -1

; 594  :         }
; 595  :         catch (const Palmtree::Math::Core::Internal::Exception& ex)
; 596  :         {
; 597  :             return (ex.GetStatusCode());

  000a3	8b 45 e0	 mov	 eax, DWORD PTR $T2[ebp]
$LN1@PMCCS_DivR:

; 599  :     }

  000a6	52		 push	 edx
  000a7	8b cd		 mov	 ecx, ebp
  000a9	50		 push	 eax
  000aa	8d 15 00 00 00
	00		 lea	 edx, DWORD PTR $LN12@PMCCS_DivR
  000b0	e8 00 00 00 00	 call	 @_RTC_CheckStackVars@8
  000b5	58		 pop	 eax
  000b6	5a		 pop	 edx
  000b7	8b 4d f4	 mov	 ecx, DWORD PTR __$EHRec$[ebp+4]
  000ba	64 89 0d 00 00
	00 00		 mov	 DWORD PTR fs:0, ecx
  000c1	59		 pop	 ecx
  000c2	5f		 pop	 edi
  000c3	5e		 pop	 esi
  000c4	5b		 pop	 ebx
  000c5	83 c4 20	 add	 esp, 32			; 00000020H
  000c8	3b ec		 cmp	 ebp, esp
  000ca	e8 00 00 00 00	 call	 __RTC_CheckEsp
  000cf	8b e5		 mov	 esp, ebp
  000d1	5d		 pop	 ebp
  000d2	c2 14 00	 ret	 20			; 00000014H
  000d5	0f 1f 00	 npad	 3
$LN12@PMCCS_DivR:
  000d8	01 00 00 00	 DD	 1
  000dc	00 00 00 00	 DD	 $LN11@PMCCS_DivR
$LN11@PMCCS_DivR:
  000e0	e8 ff ff ff	 DD	 -24			; ffffffe8H
  000e4	04 00 00 00	 DD	 4
  000e8	00 00 00 00	 DD	 $LN9@PMCCS_DivR
$LN9@PMCCS_DivR:
  000ec	65		 DB	 101			; 00000065H
  000ed	78		 DB	 120			; 00000078H
  000ee	00		 DB	 0
_TEXT	ENDS
text$x	SEGMENT
__ehhandler$_PMCCS_DivRem_L_X@20:
  00000	8b 54 24 08	 mov	 edx, DWORD PTR [esp+8]
  00004	8d 42 0c	 lea	 eax, DWORD PTR [edx+12]
  00007	8b 4a dc	 mov	 ecx, DWORD PTR [edx-36]
  0000a	33 c8		 xor	 ecx, eax
  0000c	e8 00 00 00 00	 call	 @__security_check_cookie@4
  00011	b8 00 00 00 00	 mov	 eax, OFFSET __ehfuncinfo$_PMCCS_DivRem_L_X@20
  00016	e9 00 00 00 00	 jmp	 ___CxxFrameHandler3
text$x	ENDS
_PMCCS_DivRem_L_X@20 ENDP
; Function compile flags: /Odtp /RTCsu
; File z:\sources\lunor\repos\rougemeilland\palmtree.math.core.uint\palmtree.math.core.uint\pmc_interface_csharp.cpp
_TEXT	SEGMENT
$T2 = -32						; size = 4
_ex$3 = -24						; size = 4
__$EHRec$ = -16						; size = 16
_u$ = 8							; size = 4
_v$ = 12						; size = 4
_q$ = 16						; size = 4
_r$ = 20						; size = 4
_PMCCS_DivRem_I_X@16 PROC

; 572  :     {

  00000	55		 push	 ebp
  00001	8b ec		 mov	 ebp, esp
  00003	6a ff		 push	 -1
  00005	68 00 00 00 00	 push	 __ehhandler$_PMCCS_DivRem_I_X@16
  0000a	64 a1 00 00 00
	00		 mov	 eax, DWORD PTR fs:0
  00010	50		 push	 eax
  00011	51		 push	 ecx
  00012	83 ec 10	 sub	 esp, 16			; 00000010H
  00015	53		 push	 ebx
  00016	56		 push	 esi
  00017	57		 push	 edi
  00018	b8 cc cc cc cc	 mov	 eax, -858993460		; ccccccccH
  0001d	89 45 e0	 mov	 DWORD PTR [ebp-32], eax
  00020	89 45 e4	 mov	 DWORD PTR [ebp-28], eax
  00023	89 45 e8	 mov	 DWORD PTR [ebp-24], eax
  00026	89 45 ec	 mov	 DWORD PTR [ebp-20], eax
  00029	a1 00 00 00 00	 mov	 eax, DWORD PTR ___security_cookie
  0002e	33 c5		 xor	 eax, ebp
  00030	50		 push	 eax
  00031	8d 45 f4	 lea	 eax, DWORD PTR __$EHRec$[ebp+4]
  00034	64 a3 00 00 00
	00		 mov	 DWORD PTR fs:0, eax
  0003a	89 65 f0	 mov	 DWORD PTR __$EHRec$[ebp], esp
  0003d	b9 00 00 00 00	 mov	 ecx, OFFSET __C21BA676_pmc_interface_csharp@cpp
  00042	e8 00 00 00 00	 call	 @__CheckForDebuggerJustMyCode@4

; 573  :         if (r == nullptr)

  00047	83 7d 14 00	 cmp	 DWORD PTR _r$[ebp], 0
  0004b	75 07		 jne	 SHORT $LN2@PMCCS_DivR

; 574  :             return (PMC_STATUS_ARGUMENT_NULL_ERROR);

  0004d	b8 fe ff ff ff	 mov	 eax, -2			; fffffffeH
  00052	eb 4b		 jmp	 SHORT $LN1@PMCCS_DivR
$LN2@PMCCS_DivR:

; 575  :         try

  00054	c7 45 fc 00 00
	00 00		 mov	 DWORD PTR __$EHRec$[ebp+12], 0

; 576  :         {
; 577  :             *r = PMC_DivRem_I_X(u, v, q);

  0005b	8b 45 10	 mov	 eax, DWORD PTR _q$[ebp]
  0005e	50		 push	 eax
  0005f	8b 4d 0c	 mov	 ecx, DWORD PTR _v$[ebp]
  00062	51		 push	 ecx
  00063	8b 55 08	 mov	 edx, DWORD PTR _u$[ebp]
  00066	52		 push	 edx
  00067	e8 00 00 00 00	 call	 ?PMC_DivRem_I_X@Internal@Core@Math@Palmtree@@YGIIPAU__tag_PMC_HANDLE_UINT@1234@PAI@Z ; Palmtree::Math::Core::Internal::PMC_DivRem_I_X
  0006c	8b 4d 14	 mov	 ecx, DWORD PTR _r$[ebp]
  0006f	89 01		 mov	 DWORD PTR [ecx], eax

; 578  :             return (PMC_STATUS_OK);

  00071	33 c0		 xor	 eax, eax
  00073	eb 2a		 jmp	 SHORT $LN1@PMCCS_DivR
__catch$_PMCCS_DivRem_I_X@16$0:

; 579  :         }
; 580  :         catch (const Palmtree::Math::Core::Internal::Exception& ex)
; 581  :         {
; 582  :             return (ex.GetStatusCode());

  00075	8b 4d e8	 mov	 ecx, DWORD PTR _ex$3[ebp]
  00078	e8 00 00 00 00	 call	 ?GetStatusCode@Exception@Internal@Core@Math@Palmtree@@QBEHXZ ; Palmtree::Math::Core::Internal::Exception::GetStatusCode
  0007d	89 45 e0	 mov	 DWORD PTR $T2[ebp], eax
  00080	b8 00 00 00 00	 mov	 eax, $LN8@PMCCS_DivR
  00085	c3		 ret	 0

; 583  :         }

  00086	b8 00 00 00 00	 mov	 eax, __tryend$_PMCCS_DivRem_I_X@16$1
  0008b	c3		 ret	 0
__tryend$_PMCCS_DivRem_I_X@16$1:
  0008c	c7 45 fc ff ff
	ff ff		 mov	 DWORD PTR __$EHRec$[ebp+12], -1
  00093	eb 0a		 jmp	 SHORT $LN1@PMCCS_DivR
$LN8@PMCCS_DivR:
  00095	c7 45 fc ff ff
	ff ff		 mov	 DWORD PTR __$EHRec$[ebp+12], -1

; 579  :         }
; 580  :         catch (const Palmtree::Math::Core::Internal::Exception& ex)
; 581  :         {
; 582  :             return (ex.GetStatusCode());

  0009c	8b 45 e0	 mov	 eax, DWORD PTR $T2[ebp]
$LN1@PMCCS_DivR:

; 584  :     }

  0009f	52		 push	 edx
  000a0	8b cd		 mov	 ecx, ebp
  000a2	50		 push	 eax
  000a3	8d 15 00 00 00
	00		 lea	 edx, DWORD PTR $LN12@PMCCS_DivR
  000a9	e8 00 00 00 00	 call	 @_RTC_CheckStackVars@8
  000ae	58		 pop	 eax
  000af	5a		 pop	 edx
  000b0	8b 4d f4	 mov	 ecx, DWORD PTR __$EHRec$[ebp+4]
  000b3	64 89 0d 00 00
	00 00		 mov	 DWORD PTR fs:0, ecx
  000ba	59		 pop	 ecx
  000bb	5f		 pop	 edi
  000bc	5e		 pop	 esi
  000bd	5b		 pop	 ebx
  000be	83 c4 20	 add	 esp, 32			; 00000020H
  000c1	3b ec		 cmp	 ebp, esp
  000c3	e8 00 00 00 00	 call	 __RTC_CheckEsp
  000c8	8b e5		 mov	 esp, ebp
  000ca	5d		 pop	 ebp
  000cb	c2 10 00	 ret	 16			; 00000010H
  000ce	66 90		 npad	 2
$LN12@PMCCS_DivR:
  000d0	01 00 00 00	 DD	 1
  000d4	00 00 00 00	 DD	 $LN11@PMCCS_DivR
$LN11@PMCCS_DivR:
  000d8	e8 ff ff ff	 DD	 -24			; ffffffe8H
  000dc	04 00 00 00	 DD	 4
  000e0	00 00 00 00	 DD	 $LN9@PMCCS_DivR
$LN9@PMCCS_DivR:
  000e4	65		 DB	 101			; 00000065H
  000e5	78		 DB	 120			; 00000078H
  000e6	00		 DB	 0
_TEXT	ENDS
text$x	SEGMENT
__ehhandler$_PMCCS_DivRem_I_X@16:
  00000	8b 54 24 08	 mov	 edx, DWORD PTR [esp+8]
  00004	8d 42 0c	 lea	 eax, DWORD PTR [edx+12]
  00007	8b 4a dc	 mov	 ecx, DWORD PTR [edx-36]
  0000a	33 c8		 xor	 ecx, eax
  0000c	e8 00 00 00 00	 call	 @__security_check_cookie@4
  00011	b8 00 00 00 00	 mov	 eax, OFFSET __ehfuncinfo$_PMCCS_DivRem_I_X@16
  00016	e9 00 00 00 00	 jmp	 ___CxxFrameHandler3
text$x	ENDS
_PMCCS_DivRem_I_X@16 ENDP
; Function compile flags: /Odtp /RTCsu
; File z:\sources\lunor\repos\rougemeilland\palmtree.math.core.uint\palmtree.math.core.uint\pmc_interface_csharp.cpp
_TEXT	SEGMENT
$T2 = -32						; size = 4
_ex$3 = -24						; size = 4
__$EHRec$ = -16						; size = 16
_u$ = 8							; size = 4
_v$ = 12						; size = 4
_w$ = 16						; size = 4
_PMCCS_Multiply_X_X@12 PROC

; 557  :     {

  00000	55		 push	 ebp
  00001	8b ec		 mov	 ebp, esp
  00003	6a ff		 push	 -1
  00005	68 00 00 00 00	 push	 __ehhandler$_PMCCS_Multiply_X_X@12
  0000a	64 a1 00 00 00
	00		 mov	 eax, DWORD PTR fs:0
  00010	50		 push	 eax
  00011	51		 push	 ecx
  00012	83 ec 10	 sub	 esp, 16			; 00000010H
  00015	53		 push	 ebx
  00016	56		 push	 esi
  00017	57		 push	 edi
  00018	b8 cc cc cc cc	 mov	 eax, -858993460		; ccccccccH
  0001d	89 45 e0	 mov	 DWORD PTR [ebp-32], eax
  00020	89 45 e4	 mov	 DWORD PTR [ebp-28], eax
  00023	89 45 e8	 mov	 DWORD PTR [ebp-24], eax
  00026	89 45 ec	 mov	 DWORD PTR [ebp-20], eax
  00029	a1 00 00 00 00	 mov	 eax, DWORD PTR ___security_cookie
  0002e	33 c5		 xor	 eax, ebp
  00030	50		 push	 eax
  00031	8d 45 f4	 lea	 eax, DWORD PTR __$EHRec$[ebp+4]
  00034	64 a3 00 00 00
	00		 mov	 DWORD PTR fs:0, eax
  0003a	89 65 f0	 mov	 DWORD PTR __$EHRec$[ebp], esp
  0003d	b9 00 00 00 00	 mov	 ecx, OFFSET __C21BA676_pmc_interface_csharp@cpp
  00042	e8 00 00 00 00	 call	 @__CheckForDebuggerJustMyCode@4

; 558  :         if (w == nullptr)

  00047	83 7d 10 00	 cmp	 DWORD PTR _w$[ebp], 0
  0004b	75 07		 jne	 SHORT $LN2@PMCCS_Mult

; 559  :             return (PMC_STATUS_ARGUMENT_NULL_ERROR);

  0004d	b8 fe ff ff ff	 mov	 eax, -2			; fffffffeH
  00052	eb 47		 jmp	 SHORT $LN1@PMCCS_Mult
$LN2@PMCCS_Mult:

; 560  :         try

  00054	c7 45 fc 00 00
	00 00		 mov	 DWORD PTR __$EHRec$[ebp+12], 0

; 561  :         {
; 562  :             *w = PMC_Multiply_X_X(u, v);

  0005b	8b 45 0c	 mov	 eax, DWORD PTR _v$[ebp]
  0005e	50		 push	 eax
  0005f	8b 4d 08	 mov	 ecx, DWORD PTR _u$[ebp]
  00062	51		 push	 ecx
  00063	e8 00 00 00 00	 call	 ?PMC_Multiply_X_X@Internal@Core@Math@Palmtree@@YGPAU__tag_PMC_HANDLE_UINT@1234@PAU51234@0@Z ; Palmtree::Math::Core::Internal::PMC_Multiply_X_X
  00068	8b 55 10	 mov	 edx, DWORD PTR _w$[ebp]
  0006b	89 02		 mov	 DWORD PTR [edx], eax

; 563  :             return (PMC_STATUS_OK);

  0006d	33 c0		 xor	 eax, eax
  0006f	eb 2a		 jmp	 SHORT $LN1@PMCCS_Mult
__catch$_PMCCS_Multiply_X_X@12$0:

; 564  :         }
; 565  :         catch (const Palmtree::Math::Core::Internal::Exception& ex)
; 566  :         {
; 567  :             return (ex.GetStatusCode());

  00071	8b 4d e8	 mov	 ecx, DWORD PTR _ex$3[ebp]
  00074	e8 00 00 00 00	 call	 ?GetStatusCode@Exception@Internal@Core@Math@Palmtree@@QBEHXZ ; Palmtree::Math::Core::Internal::Exception::GetStatusCode
  00079	89 45 e0	 mov	 DWORD PTR $T2[ebp], eax
  0007c	b8 00 00 00 00	 mov	 eax, $LN8@PMCCS_Mult
  00081	c3		 ret	 0

; 568  :         }

  00082	b8 00 00 00 00	 mov	 eax, __tryend$_PMCCS_Multiply_X_X@12$1
  00087	c3		 ret	 0
__tryend$_PMCCS_Multiply_X_X@12$1:
  00088	c7 45 fc ff ff
	ff ff		 mov	 DWORD PTR __$EHRec$[ebp+12], -1
  0008f	eb 0a		 jmp	 SHORT $LN1@PMCCS_Mult
$LN8@PMCCS_Mult:
  00091	c7 45 fc ff ff
	ff ff		 mov	 DWORD PTR __$EHRec$[ebp+12], -1

; 564  :         }
; 565  :         catch (const Palmtree::Math::Core::Internal::Exception& ex)
; 566  :         {
; 567  :             return (ex.GetStatusCode());

  00098	8b 45 e0	 mov	 eax, DWORD PTR $T2[ebp]
$LN1@PMCCS_Mult:

; 569  :     }

  0009b	52		 push	 edx
  0009c	8b cd		 mov	 ecx, ebp
  0009e	50		 push	 eax
  0009f	8d 15 00 00 00
	00		 lea	 edx, DWORD PTR $LN12@PMCCS_Mult
  000a5	e8 00 00 00 00	 call	 @_RTC_CheckStackVars@8
  000aa	58		 pop	 eax
  000ab	5a		 pop	 edx
  000ac	8b 4d f4	 mov	 ecx, DWORD PTR __$EHRec$[ebp+4]
  000af	64 89 0d 00 00
	00 00		 mov	 DWORD PTR fs:0, ecx
  000b6	59		 pop	 ecx
  000b7	5f		 pop	 edi
  000b8	5e		 pop	 esi
  000b9	5b		 pop	 ebx
  000ba	83 c4 20	 add	 esp, 32			; 00000020H
  000bd	3b ec		 cmp	 ebp, esp
  000bf	e8 00 00 00 00	 call	 __RTC_CheckEsp
  000c4	8b e5		 mov	 esp, ebp
  000c6	5d		 pop	 ebp
  000c7	c2 0c 00	 ret	 12			; 0000000cH
  000ca	66 90		 npad	 2
$LN12@PMCCS_Mult:
  000cc	01 00 00 00	 DD	 1
  000d0	00 00 00 00	 DD	 $LN11@PMCCS_Mult
$LN11@PMCCS_Mult:
  000d4	e8 ff ff ff	 DD	 -24			; ffffffe8H
  000d8	04 00 00 00	 DD	 4
  000dc	00 00 00 00	 DD	 $LN9@PMCCS_Mult
$LN9@PMCCS_Mult:
  000e0	65		 DB	 101			; 00000065H
  000e1	78		 DB	 120			; 00000078H
  000e2	00		 DB	 0
_TEXT	ENDS
text$x	SEGMENT
__ehhandler$_PMCCS_Multiply_X_X@12:
  00000	8b 54 24 08	 mov	 edx, DWORD PTR [esp+8]
  00004	8d 42 0c	 lea	 eax, DWORD PTR [edx+12]
  00007	8b 4a dc	 mov	 ecx, DWORD PTR [edx-36]
  0000a	33 c8		 xor	 ecx, eax
  0000c	e8 00 00 00 00	 call	 @__security_check_cookie@4
  00011	b8 00 00 00 00	 mov	 eax, OFFSET __ehfuncinfo$_PMCCS_Multiply_X_X@12
  00016	e9 00 00 00 00	 jmp	 ___CxxFrameHandler3
text$x	ENDS
_PMCCS_Multiply_X_X@12 ENDP
; Function compile flags: /Odtp /RTCsu
; File z:\sources\lunor\repos\rougemeilland\palmtree.math.core.uint\palmtree.math.core.uint\pmc_interface_csharp.cpp
_TEXT	SEGMENT
$T2 = -32						; size = 4
_ex$3 = -24						; size = 4
__$EHRec$ = -16						; size = 16
_u$ = 8							; size = 4
_v$ = 12						; size = 8
_w$ = 20						; size = 4
_PMCCS_Multiply_X_L@16 PROC

; 542  :     {

  00000	55		 push	 ebp
  00001	8b ec		 mov	 ebp, esp
  00003	6a ff		 push	 -1
  00005	68 00 00 00 00	 push	 __ehhandler$_PMCCS_Multiply_X_L@16
  0000a	64 a1 00 00 00
	00		 mov	 eax, DWORD PTR fs:0
  00010	50		 push	 eax
  00011	51		 push	 ecx
  00012	83 ec 10	 sub	 esp, 16			; 00000010H
  00015	53		 push	 ebx
  00016	56		 push	 esi
  00017	57		 push	 edi
  00018	b8 cc cc cc cc	 mov	 eax, -858993460		; ccccccccH
  0001d	89 45 e0	 mov	 DWORD PTR [ebp-32], eax
  00020	89 45 e4	 mov	 DWORD PTR [ebp-28], eax
  00023	89 45 e8	 mov	 DWORD PTR [ebp-24], eax
  00026	89 45 ec	 mov	 DWORD PTR [ebp-20], eax
  00029	a1 00 00 00 00	 mov	 eax, DWORD PTR ___security_cookie
  0002e	33 c5		 xor	 eax, ebp
  00030	50		 push	 eax
  00031	8d 45 f4	 lea	 eax, DWORD PTR __$EHRec$[ebp+4]
  00034	64 a3 00 00 00
	00		 mov	 DWORD PTR fs:0, eax
  0003a	89 65 f0	 mov	 DWORD PTR __$EHRec$[ebp], esp
  0003d	b9 00 00 00 00	 mov	 ecx, OFFSET __C21BA676_pmc_interface_csharp@cpp
  00042	e8 00 00 00 00	 call	 @__CheckForDebuggerJustMyCode@4

; 543  :         if (w == nullptr)

  00047	83 7d 14 00	 cmp	 DWORD PTR _w$[ebp], 0
  0004b	75 07		 jne	 SHORT $LN2@PMCCS_Mult

; 544  :             return (PMC_STATUS_ARGUMENT_NULL_ERROR);

  0004d	b8 fe ff ff ff	 mov	 eax, -2			; fffffffeH
  00052	eb 4b		 jmp	 SHORT $LN1@PMCCS_Mult
$LN2@PMCCS_Mult:

; 545  :         try

  00054	c7 45 fc 00 00
	00 00		 mov	 DWORD PTR __$EHRec$[ebp+12], 0

; 546  :         {
; 547  :             *w = PMC_Multiply_X_L(u, v);

  0005b	8b 45 10	 mov	 eax, DWORD PTR _v$[ebp+4]
  0005e	50		 push	 eax
  0005f	8b 4d 0c	 mov	 ecx, DWORD PTR _v$[ebp]
  00062	51		 push	 ecx
  00063	8b 55 08	 mov	 edx, DWORD PTR _u$[ebp]
  00066	52		 push	 edx
  00067	e8 00 00 00 00	 call	 ?PMC_Multiply_X_L@Internal@Core@Math@Palmtree@@YGPAU__tag_PMC_HANDLE_UINT@1234@PAU51234@_K@Z ; Palmtree::Math::Core::Internal::PMC_Multiply_X_L
  0006c	8b 4d 14	 mov	 ecx, DWORD PTR _w$[ebp]
  0006f	89 01		 mov	 DWORD PTR [ecx], eax

; 548  :             return (PMC_STATUS_OK);

  00071	33 c0		 xor	 eax, eax
  00073	eb 2a		 jmp	 SHORT $LN1@PMCCS_Mult
__catch$_PMCCS_Multiply_X_L@16$0:

; 549  :         }
; 550  :         catch (const Palmtree::Math::Core::Internal::Exception& ex)
; 551  :         {
; 552  :             return (ex.GetStatusCode());

  00075	8b 4d e8	 mov	 ecx, DWORD PTR _ex$3[ebp]
  00078	e8 00 00 00 00	 call	 ?GetStatusCode@Exception@Internal@Core@Math@Palmtree@@QBEHXZ ; Palmtree::Math::Core::Internal::Exception::GetStatusCode
  0007d	89 45 e0	 mov	 DWORD PTR $T2[ebp], eax
  00080	b8 00 00 00 00	 mov	 eax, $LN8@PMCCS_Mult
  00085	c3		 ret	 0

; 553  :         }

  00086	b8 00 00 00 00	 mov	 eax, __tryend$_PMCCS_Multiply_X_L@16$1
  0008b	c3		 ret	 0
__tryend$_PMCCS_Multiply_X_L@16$1:
  0008c	c7 45 fc ff ff
	ff ff		 mov	 DWORD PTR __$EHRec$[ebp+12], -1
  00093	eb 0a		 jmp	 SHORT $LN1@PMCCS_Mult
$LN8@PMCCS_Mult:
  00095	c7 45 fc ff ff
	ff ff		 mov	 DWORD PTR __$EHRec$[ebp+12], -1

; 549  :         }
; 550  :         catch (const Palmtree::Math::Core::Internal::Exception& ex)
; 551  :         {
; 552  :             return (ex.GetStatusCode());

  0009c	8b 45 e0	 mov	 eax, DWORD PTR $T2[ebp]
$LN1@PMCCS_Mult:

; 554  :     }

  0009f	52		 push	 edx
  000a0	8b cd		 mov	 ecx, ebp
  000a2	50		 push	 eax
  000a3	8d 15 00 00 00
	00		 lea	 edx, DWORD PTR $LN12@PMCCS_Mult
  000a9	e8 00 00 00 00	 call	 @_RTC_CheckStackVars@8
  000ae	58		 pop	 eax
  000af	5a		 pop	 edx
  000b0	8b 4d f4	 mov	 ecx, DWORD PTR __$EHRec$[ebp+4]
  000b3	64 89 0d 00 00
	00 00		 mov	 DWORD PTR fs:0, ecx
  000ba	59		 pop	 ecx
  000bb	5f		 pop	 edi
  000bc	5e		 pop	 esi
  000bd	5b		 pop	 ebx
  000be	83 c4 20	 add	 esp, 32			; 00000020H
  000c1	3b ec		 cmp	 ebp, esp
  000c3	e8 00 00 00 00	 call	 __RTC_CheckEsp
  000c8	8b e5		 mov	 esp, ebp
  000ca	5d		 pop	 ebp
  000cb	c2 10 00	 ret	 16			; 00000010H
  000ce	66 90		 npad	 2
$LN12@PMCCS_Mult:
  000d0	01 00 00 00	 DD	 1
  000d4	00 00 00 00	 DD	 $LN11@PMCCS_Mult
$LN11@PMCCS_Mult:
  000d8	e8 ff ff ff	 DD	 -24			; ffffffe8H
  000dc	04 00 00 00	 DD	 4
  000e0	00 00 00 00	 DD	 $LN9@PMCCS_Mult
$LN9@PMCCS_Mult:
  000e4	65		 DB	 101			; 00000065H
  000e5	78		 DB	 120			; 00000078H
  000e6	00		 DB	 0
_TEXT	ENDS
text$x	SEGMENT
__ehhandler$_PMCCS_Multiply_X_L@16:
  00000	8b 54 24 08	 mov	 edx, DWORD PTR [esp+8]
  00004	8d 42 0c	 lea	 eax, DWORD PTR [edx+12]
  00007	8b 4a dc	 mov	 ecx, DWORD PTR [edx-36]
  0000a	33 c8		 xor	 ecx, eax
  0000c	e8 00 00 00 00	 call	 @__security_check_cookie@4
  00011	b8 00 00 00 00	 mov	 eax, OFFSET __ehfuncinfo$_PMCCS_Multiply_X_L@16
  00016	e9 00 00 00 00	 jmp	 ___CxxFrameHandler3
text$x	ENDS
_PMCCS_Multiply_X_L@16 ENDP
; Function compile flags: /Odtp /RTCsu
; File z:\sources\lunor\repos\rougemeilland\palmtree.math.core.uint\palmtree.math.core.uint\pmc_interface_csharp.cpp
_TEXT	SEGMENT
$T2 = -32						; size = 4
_ex$3 = -24						; size = 4
__$EHRec$ = -16						; size = 16
_u$ = 8							; size = 4
_v$ = 12						; size = 4
_w$ = 16						; size = 4
_PMCCS_Multiply_X_I@12 PROC

; 527  :     {

  00000	55		 push	 ebp
  00001	8b ec		 mov	 ebp, esp
  00003	6a ff		 push	 -1
  00005	68 00 00 00 00	 push	 __ehhandler$_PMCCS_Multiply_X_I@12
  0000a	64 a1 00 00 00
	00		 mov	 eax, DWORD PTR fs:0
  00010	50		 push	 eax
  00011	51		 push	 ecx
  00012	83 ec 10	 sub	 esp, 16			; 00000010H
  00015	53		 push	 ebx
  00016	56		 push	 esi
  00017	57		 push	 edi
  00018	b8 cc cc cc cc	 mov	 eax, -858993460		; ccccccccH
  0001d	89 45 e0	 mov	 DWORD PTR [ebp-32], eax
  00020	89 45 e4	 mov	 DWORD PTR [ebp-28], eax
  00023	89 45 e8	 mov	 DWORD PTR [ebp-24], eax
  00026	89 45 ec	 mov	 DWORD PTR [ebp-20], eax
  00029	a1 00 00 00 00	 mov	 eax, DWORD PTR ___security_cookie
  0002e	33 c5		 xor	 eax, ebp
  00030	50		 push	 eax
  00031	8d 45 f4	 lea	 eax, DWORD PTR __$EHRec$[ebp+4]
  00034	64 a3 00 00 00
	00		 mov	 DWORD PTR fs:0, eax
  0003a	89 65 f0	 mov	 DWORD PTR __$EHRec$[ebp], esp
  0003d	b9 00 00 00 00	 mov	 ecx, OFFSET __C21BA676_pmc_interface_csharp@cpp
  00042	e8 00 00 00 00	 call	 @__CheckForDebuggerJustMyCode@4

; 528  :         if (w == nullptr)

  00047	83 7d 10 00	 cmp	 DWORD PTR _w$[ebp], 0
  0004b	75 07		 jne	 SHORT $LN2@PMCCS_Mult

; 529  :             return (PMC_STATUS_ARGUMENT_NULL_ERROR);

  0004d	b8 fe ff ff ff	 mov	 eax, -2			; fffffffeH
  00052	eb 47		 jmp	 SHORT $LN1@PMCCS_Mult
$LN2@PMCCS_Mult:

; 530  :         try

  00054	c7 45 fc 00 00
	00 00		 mov	 DWORD PTR __$EHRec$[ebp+12], 0

; 531  :         {
; 532  :             *w = PMC_Multiply_X_I(u, v);

  0005b	8b 45 0c	 mov	 eax, DWORD PTR _v$[ebp]
  0005e	50		 push	 eax
  0005f	8b 4d 08	 mov	 ecx, DWORD PTR _u$[ebp]
  00062	51		 push	 ecx
  00063	e8 00 00 00 00	 call	 ?PMC_Multiply_X_I@Internal@Core@Math@Palmtree@@YGPAU__tag_PMC_HANDLE_UINT@1234@PAU51234@I@Z ; Palmtree::Math::Core::Internal::PMC_Multiply_X_I
  00068	8b 55 10	 mov	 edx, DWORD PTR _w$[ebp]
  0006b	89 02		 mov	 DWORD PTR [edx], eax

; 533  :             return (PMC_STATUS_OK);

  0006d	33 c0		 xor	 eax, eax
  0006f	eb 2a		 jmp	 SHORT $LN1@PMCCS_Mult
__catch$_PMCCS_Multiply_X_I@12$0:

; 534  :         }
; 535  :         catch (const Palmtree::Math::Core::Internal::Exception& ex)
; 536  :         {
; 537  :             return (ex.GetStatusCode());

  00071	8b 4d e8	 mov	 ecx, DWORD PTR _ex$3[ebp]
  00074	e8 00 00 00 00	 call	 ?GetStatusCode@Exception@Internal@Core@Math@Palmtree@@QBEHXZ ; Palmtree::Math::Core::Internal::Exception::GetStatusCode
  00079	89 45 e0	 mov	 DWORD PTR $T2[ebp], eax
  0007c	b8 00 00 00 00	 mov	 eax, $LN8@PMCCS_Mult
  00081	c3		 ret	 0

; 538  :         }

  00082	b8 00 00 00 00	 mov	 eax, __tryend$_PMCCS_Multiply_X_I@12$1
  00087	c3		 ret	 0
__tryend$_PMCCS_Multiply_X_I@12$1:
  00088	c7 45 fc ff ff
	ff ff		 mov	 DWORD PTR __$EHRec$[ebp+12], -1
  0008f	eb 0a		 jmp	 SHORT $LN1@PMCCS_Mult
$LN8@PMCCS_Mult:
  00091	c7 45 fc ff ff
	ff ff		 mov	 DWORD PTR __$EHRec$[ebp+12], -1

; 534  :         }
; 535  :         catch (const Palmtree::Math::Core::Internal::Exception& ex)
; 536  :         {
; 537  :             return (ex.GetStatusCode());

  00098	8b 45 e0	 mov	 eax, DWORD PTR $T2[ebp]
$LN1@PMCCS_Mult:

; 539  :     }

  0009b	52		 push	 edx
  0009c	8b cd		 mov	 ecx, ebp
  0009e	50		 push	 eax
  0009f	8d 15 00 00 00
	00		 lea	 edx, DWORD PTR $LN12@PMCCS_Mult
  000a5	e8 00 00 00 00	 call	 @_RTC_CheckStackVars@8
  000aa	58		 pop	 eax
  000ab	5a		 pop	 edx
  000ac	8b 4d f4	 mov	 ecx, DWORD PTR __$EHRec$[ebp+4]
  000af	64 89 0d 00 00
	00 00		 mov	 DWORD PTR fs:0, ecx
  000b6	59		 pop	 ecx
  000b7	5f		 pop	 edi
  000b8	5e		 pop	 esi
  000b9	5b		 pop	 ebx
  000ba	83 c4 20	 add	 esp, 32			; 00000020H
  000bd	3b ec		 cmp	 ebp, esp
  000bf	e8 00 00 00 00	 call	 __RTC_CheckEsp
  000c4	8b e5		 mov	 esp, ebp
  000c6	5d		 pop	 ebp
  000c7	c2 0c 00	 ret	 12			; 0000000cH
  000ca	66 90		 npad	 2
$LN12@PMCCS_Mult:
  000cc	01 00 00 00	 DD	 1
  000d0	00 00 00 00	 DD	 $LN11@PMCCS_Mult
$LN11@PMCCS_Mult:
  000d4	e8 ff ff ff	 DD	 -24			; ffffffe8H
  000d8	04 00 00 00	 DD	 4
  000dc	00 00 00 00	 DD	 $LN9@PMCCS_Mult
$LN9@PMCCS_Mult:
  000e0	65		 DB	 101			; 00000065H
  000e1	78		 DB	 120			; 00000078H
  000e2	00		 DB	 0
_TEXT	ENDS
text$x	SEGMENT
__ehhandler$_PMCCS_Multiply_X_I@12:
  00000	8b 54 24 08	 mov	 edx, DWORD PTR [esp+8]
  00004	8d 42 0c	 lea	 eax, DWORD PTR [edx+12]
  00007	8b 4a dc	 mov	 ecx, DWORD PTR [edx-36]
  0000a	33 c8		 xor	 ecx, eax
  0000c	e8 00 00 00 00	 call	 @__security_check_cookie@4
  00011	b8 00 00 00 00	 mov	 eax, OFFSET __ehfuncinfo$_PMCCS_Multiply_X_I@12
  00016	e9 00 00 00 00	 jmp	 ___CxxFrameHandler3
text$x	ENDS
_PMCCS_Multiply_X_I@12 ENDP
; Function compile flags: /Odtp /RTCsu
; File z:\sources\lunor\repos\rougemeilland\palmtree.math.core.uint\palmtree.math.core.uint\pmc_interface_csharp.cpp
_TEXT	SEGMENT
$T2 = -32						; size = 4
_ex$3 = -24						; size = 4
__$EHRec$ = -16						; size = 16
_u$ = 8							; size = 8
_v$ = 16						; size = 4
_w$ = 20						; size = 4
_PMCCS_Multiply_L_X@16 PROC

; 512  :     {

  00000	55		 push	 ebp
  00001	8b ec		 mov	 ebp, esp
  00003	6a ff		 push	 -1
  00005	68 00 00 00 00	 push	 __ehhandler$_PMCCS_Multiply_L_X@16
  0000a	64 a1 00 00 00
	00		 mov	 eax, DWORD PTR fs:0
  00010	50		 push	 eax
  00011	51		 push	 ecx
  00012	83 ec 10	 sub	 esp, 16			; 00000010H
  00015	53		 push	 ebx
  00016	56		 push	 esi
  00017	57		 push	 edi
  00018	b8 cc cc cc cc	 mov	 eax, -858993460		; ccccccccH
  0001d	89 45 e0	 mov	 DWORD PTR [ebp-32], eax
  00020	89 45 e4	 mov	 DWORD PTR [ebp-28], eax
  00023	89 45 e8	 mov	 DWORD PTR [ebp-24], eax
  00026	89 45 ec	 mov	 DWORD PTR [ebp-20], eax
  00029	a1 00 00 00 00	 mov	 eax, DWORD PTR ___security_cookie
  0002e	33 c5		 xor	 eax, ebp
  00030	50		 push	 eax
  00031	8d 45 f4	 lea	 eax, DWORD PTR __$EHRec$[ebp+4]
  00034	64 a3 00 00 00
	00		 mov	 DWORD PTR fs:0, eax
  0003a	89 65 f0	 mov	 DWORD PTR __$EHRec$[ebp], esp
  0003d	b9 00 00 00 00	 mov	 ecx, OFFSET __C21BA676_pmc_interface_csharp@cpp
  00042	e8 00 00 00 00	 call	 @__CheckForDebuggerJustMyCode@4

; 513  :         if (w == nullptr)

  00047	83 7d 14 00	 cmp	 DWORD PTR _w$[ebp], 0
  0004b	75 07		 jne	 SHORT $LN2@PMCCS_Mult

; 514  :             return (PMC_STATUS_ARGUMENT_NULL_ERROR);

  0004d	b8 fe ff ff ff	 mov	 eax, -2			; fffffffeH
  00052	eb 4b		 jmp	 SHORT $LN1@PMCCS_Mult
$LN2@PMCCS_Mult:

; 515  :         try

  00054	c7 45 fc 00 00
	00 00		 mov	 DWORD PTR __$EHRec$[ebp+12], 0

; 516  :         {
; 517  :             *w = PMC_Multiply_L_X(u, v);

  0005b	8b 45 10	 mov	 eax, DWORD PTR _v$[ebp]
  0005e	50		 push	 eax
  0005f	8b 4d 0c	 mov	 ecx, DWORD PTR _u$[ebp+4]
  00062	51		 push	 ecx
  00063	8b 55 08	 mov	 edx, DWORD PTR _u$[ebp]
  00066	52		 push	 edx
  00067	e8 00 00 00 00	 call	 ?PMC_Multiply_L_X@Internal@Core@Math@Palmtree@@YGPAU__tag_PMC_HANDLE_UINT@1234@_KPAU51234@@Z ; Palmtree::Math::Core::Internal::PMC_Multiply_L_X
  0006c	8b 4d 14	 mov	 ecx, DWORD PTR _w$[ebp]
  0006f	89 01		 mov	 DWORD PTR [ecx], eax

; 518  :             return (PMC_STATUS_OK);

  00071	33 c0		 xor	 eax, eax
  00073	eb 2a		 jmp	 SHORT $LN1@PMCCS_Mult
__catch$_PMCCS_Multiply_L_X@16$0:

; 519  :         }
; 520  :         catch (const Palmtree::Math::Core::Internal::Exception& ex)
; 521  :         {
; 522  :             return (ex.GetStatusCode());

  00075	8b 4d e8	 mov	 ecx, DWORD PTR _ex$3[ebp]
  00078	e8 00 00 00 00	 call	 ?GetStatusCode@Exception@Internal@Core@Math@Palmtree@@QBEHXZ ; Palmtree::Math::Core::Internal::Exception::GetStatusCode
  0007d	89 45 e0	 mov	 DWORD PTR $T2[ebp], eax
  00080	b8 00 00 00 00	 mov	 eax, $LN8@PMCCS_Mult
  00085	c3		 ret	 0

; 523  :         }

  00086	b8 00 00 00 00	 mov	 eax, __tryend$_PMCCS_Multiply_L_X@16$1
  0008b	c3		 ret	 0
__tryend$_PMCCS_Multiply_L_X@16$1:
  0008c	c7 45 fc ff ff
	ff ff		 mov	 DWORD PTR __$EHRec$[ebp+12], -1
  00093	eb 0a		 jmp	 SHORT $LN1@PMCCS_Mult
$LN8@PMCCS_Mult:
  00095	c7 45 fc ff ff
	ff ff		 mov	 DWORD PTR __$EHRec$[ebp+12], -1

; 519  :         }
; 520  :         catch (const Palmtree::Math::Core::Internal::Exception& ex)
; 521  :         {
; 522  :             return (ex.GetStatusCode());

  0009c	8b 45 e0	 mov	 eax, DWORD PTR $T2[ebp]
$LN1@PMCCS_Mult:

; 524  :     }

  0009f	52		 push	 edx
  000a0	8b cd		 mov	 ecx, ebp
  000a2	50		 push	 eax
  000a3	8d 15 00 00 00
	00		 lea	 edx, DWORD PTR $LN12@PMCCS_Mult
  000a9	e8 00 00 00 00	 call	 @_RTC_CheckStackVars@8
  000ae	58		 pop	 eax
  000af	5a		 pop	 edx
  000b0	8b 4d f4	 mov	 ecx, DWORD PTR __$EHRec$[ebp+4]
  000b3	64 89 0d 00 00
	00 00		 mov	 DWORD PTR fs:0, ecx
  000ba	59		 pop	 ecx
  000bb	5f		 pop	 edi
  000bc	5e		 pop	 esi
  000bd	5b		 pop	 ebx
  000be	83 c4 20	 add	 esp, 32			; 00000020H
  000c1	3b ec		 cmp	 ebp, esp
  000c3	e8 00 00 00 00	 call	 __RTC_CheckEsp
  000c8	8b e5		 mov	 esp, ebp
  000ca	5d		 pop	 ebp
  000cb	c2 10 00	 ret	 16			; 00000010H
  000ce	66 90		 npad	 2
$LN12@PMCCS_Mult:
  000d0	01 00 00 00	 DD	 1
  000d4	00 00 00 00	 DD	 $LN11@PMCCS_Mult
$LN11@PMCCS_Mult:
  000d8	e8 ff ff ff	 DD	 -24			; ffffffe8H
  000dc	04 00 00 00	 DD	 4
  000e0	00 00 00 00	 DD	 $LN9@PMCCS_Mult
$LN9@PMCCS_Mult:
  000e4	65		 DB	 101			; 00000065H
  000e5	78		 DB	 120			; 00000078H
  000e6	00		 DB	 0
_TEXT	ENDS
text$x	SEGMENT
__ehhandler$_PMCCS_Multiply_L_X@16:
  00000	8b 54 24 08	 mov	 edx, DWORD PTR [esp+8]
  00004	8d 42 0c	 lea	 eax, DWORD PTR [edx+12]
  00007	8b 4a dc	 mov	 ecx, DWORD PTR [edx-36]
  0000a	33 c8		 xor	 ecx, eax
  0000c	e8 00 00 00 00	 call	 @__security_check_cookie@4
  00011	b8 00 00 00 00	 mov	 eax, OFFSET __ehfuncinfo$_PMCCS_Multiply_L_X@16
  00016	e9 00 00 00 00	 jmp	 ___CxxFrameHandler3
text$x	ENDS
_PMCCS_Multiply_L_X@16 ENDP
; Function compile flags: /Odtp /RTCsu
; File z:\sources\lunor\repos\rougemeilland\palmtree.math.core.uint\palmtree.math.core.uint\pmc_interface_csharp.cpp
_TEXT	SEGMENT
$T2 = -32						; size = 4
_ex$3 = -24						; size = 4
__$EHRec$ = -16						; size = 16
_u$ = 8							; size = 4
_v$ = 12						; size = 4
_w$ = 16						; size = 4
_PMCCS_Multiply_I_X@12 PROC

; 497  :     {

  00000	55		 push	 ebp
  00001	8b ec		 mov	 ebp, esp
  00003	6a ff		 push	 -1
  00005	68 00 00 00 00	 push	 __ehhandler$_PMCCS_Multiply_I_X@12
  0000a	64 a1 00 00 00
	00		 mov	 eax, DWORD PTR fs:0
  00010	50		 push	 eax
  00011	51		 push	 ecx
  00012	83 ec 10	 sub	 esp, 16			; 00000010H
  00015	53		 push	 ebx
  00016	56		 push	 esi
  00017	57		 push	 edi
  00018	b8 cc cc cc cc	 mov	 eax, -858993460		; ccccccccH
  0001d	89 45 e0	 mov	 DWORD PTR [ebp-32], eax
  00020	89 45 e4	 mov	 DWORD PTR [ebp-28], eax
  00023	89 45 e8	 mov	 DWORD PTR [ebp-24], eax
  00026	89 45 ec	 mov	 DWORD PTR [ebp-20], eax
  00029	a1 00 00 00 00	 mov	 eax, DWORD PTR ___security_cookie
  0002e	33 c5		 xor	 eax, ebp
  00030	50		 push	 eax
  00031	8d 45 f4	 lea	 eax, DWORD PTR __$EHRec$[ebp+4]
  00034	64 a3 00 00 00
	00		 mov	 DWORD PTR fs:0, eax
  0003a	89 65 f0	 mov	 DWORD PTR __$EHRec$[ebp], esp
  0003d	b9 00 00 00 00	 mov	 ecx, OFFSET __C21BA676_pmc_interface_csharp@cpp
  00042	e8 00 00 00 00	 call	 @__CheckForDebuggerJustMyCode@4

; 498  :         if (w == nullptr)

  00047	83 7d 10 00	 cmp	 DWORD PTR _w$[ebp], 0
  0004b	75 07		 jne	 SHORT $LN2@PMCCS_Mult

; 499  :             return (PMC_STATUS_ARGUMENT_NULL_ERROR);

  0004d	b8 fe ff ff ff	 mov	 eax, -2			; fffffffeH
  00052	eb 47		 jmp	 SHORT $LN1@PMCCS_Mult
$LN2@PMCCS_Mult:

; 500  :         try

  00054	c7 45 fc 00 00
	00 00		 mov	 DWORD PTR __$EHRec$[ebp+12], 0

; 501  :         {
; 502  :             *w = PMC_Multiply_I_X(u, v);

  0005b	8b 45 0c	 mov	 eax, DWORD PTR _v$[ebp]
  0005e	50		 push	 eax
  0005f	8b 4d 08	 mov	 ecx, DWORD PTR _u$[ebp]
  00062	51		 push	 ecx
  00063	e8 00 00 00 00	 call	 ?PMC_Multiply_I_X@Internal@Core@Math@Palmtree@@YGPAU__tag_PMC_HANDLE_UINT@1234@IPAU51234@@Z ; Palmtree::Math::Core::Internal::PMC_Multiply_I_X
  00068	8b 55 10	 mov	 edx, DWORD PTR _w$[ebp]
  0006b	89 02		 mov	 DWORD PTR [edx], eax

; 503  :             return (PMC_STATUS_OK);

  0006d	33 c0		 xor	 eax, eax
  0006f	eb 2a		 jmp	 SHORT $LN1@PMCCS_Mult
__catch$_PMCCS_Multiply_I_X@12$0:

; 504  :         }
; 505  :         catch (const Palmtree::Math::Core::Internal::Exception& ex)
; 506  :         {
; 507  :             return (ex.GetStatusCode());

  00071	8b 4d e8	 mov	 ecx, DWORD PTR _ex$3[ebp]
  00074	e8 00 00 00 00	 call	 ?GetStatusCode@Exception@Internal@Core@Math@Palmtree@@QBEHXZ ; Palmtree::Math::Core::Internal::Exception::GetStatusCode
  00079	89 45 e0	 mov	 DWORD PTR $T2[ebp], eax
  0007c	b8 00 00 00 00	 mov	 eax, $LN8@PMCCS_Mult
  00081	c3		 ret	 0

; 508  :         }

  00082	b8 00 00 00 00	 mov	 eax, __tryend$_PMCCS_Multiply_I_X@12$1
  00087	c3		 ret	 0
__tryend$_PMCCS_Multiply_I_X@12$1:
  00088	c7 45 fc ff ff
	ff ff		 mov	 DWORD PTR __$EHRec$[ebp+12], -1
  0008f	eb 0a		 jmp	 SHORT $LN1@PMCCS_Mult
$LN8@PMCCS_Mult:
  00091	c7 45 fc ff ff
	ff ff		 mov	 DWORD PTR __$EHRec$[ebp+12], -1

; 504  :         }
; 505  :         catch (const Palmtree::Math::Core::Internal::Exception& ex)
; 506  :         {
; 507  :             return (ex.GetStatusCode());

  00098	8b 45 e0	 mov	 eax, DWORD PTR $T2[ebp]
$LN1@PMCCS_Mult:

; 509  :     }

  0009b	52		 push	 edx
  0009c	8b cd		 mov	 ecx, ebp
  0009e	50		 push	 eax
  0009f	8d 15 00 00 00
	00		 lea	 edx, DWORD PTR $LN12@PMCCS_Mult
  000a5	e8 00 00 00 00	 call	 @_RTC_CheckStackVars@8
  000aa	58		 pop	 eax
  000ab	5a		 pop	 edx
  000ac	8b 4d f4	 mov	 ecx, DWORD PTR __$EHRec$[ebp+4]
  000af	64 89 0d 00 00
	00 00		 mov	 DWORD PTR fs:0, ecx
  000b6	59		 pop	 ecx
  000b7	5f		 pop	 edi
  000b8	5e		 pop	 esi
  000b9	5b		 pop	 ebx
  000ba	83 c4 20	 add	 esp, 32			; 00000020H
  000bd	3b ec		 cmp	 ebp, esp
  000bf	e8 00 00 00 00	 call	 __RTC_CheckEsp
  000c4	8b e5		 mov	 esp, ebp
  000c6	5d		 pop	 ebp
  000c7	c2 0c 00	 ret	 12			; 0000000cH
  000ca	66 90		 npad	 2
$LN12@PMCCS_Mult:
  000cc	01 00 00 00	 DD	 1
  000d0	00 00 00 00	 DD	 $LN11@PMCCS_Mult
$LN11@PMCCS_Mult:
  000d4	e8 ff ff ff	 DD	 -24			; ffffffe8H
  000d8	04 00 00 00	 DD	 4
  000dc	00 00 00 00	 DD	 $LN9@PMCCS_Mult
$LN9@PMCCS_Mult:
  000e0	65		 DB	 101			; 00000065H
  000e1	78		 DB	 120			; 00000078H
  000e2	00		 DB	 0
_TEXT	ENDS
text$x	SEGMENT
__ehhandler$_PMCCS_Multiply_I_X@12:
  00000	8b 54 24 08	 mov	 edx, DWORD PTR [esp+8]
  00004	8d 42 0c	 lea	 eax, DWORD PTR [edx+12]
  00007	8b 4a dc	 mov	 ecx, DWORD PTR [edx-36]
  0000a	33 c8		 xor	 ecx, eax
  0000c	e8 00 00 00 00	 call	 @__security_check_cookie@4
  00011	b8 00 00 00 00	 mov	 eax, OFFSET __ehfuncinfo$_PMCCS_Multiply_I_X@12
  00016	e9 00 00 00 00	 jmp	 ___CxxFrameHandler3
text$x	ENDS
_PMCCS_Multiply_I_X@12 ENDP
; Function compile flags: /Odtp /RTCsu
; File z:\sources\lunor\repos\rougemeilland\palmtree.math.core.uint\palmtree.math.core.uint\pmc_interface_csharp.cpp
_TEXT	SEGMENT
$T2 = -32						; size = 4
_ex$3 = -24						; size = 4
__$EHRec$ = -16						; size = 16
_u$ = 8							; size = 4
_v$ = 12						; size = 4
_w$ = 16						; size = 4
_PMCCS_Subtruct_X_X@12 PROC

; 482  :     {

  00000	55		 push	 ebp
  00001	8b ec		 mov	 ebp, esp
  00003	6a ff		 push	 -1
  00005	68 00 00 00 00	 push	 __ehhandler$_PMCCS_Subtruct_X_X@12
  0000a	64 a1 00 00 00
	00		 mov	 eax, DWORD PTR fs:0
  00010	50		 push	 eax
  00011	51		 push	 ecx
  00012	83 ec 10	 sub	 esp, 16			; 00000010H
  00015	53		 push	 ebx
  00016	56		 push	 esi
  00017	57		 push	 edi
  00018	b8 cc cc cc cc	 mov	 eax, -858993460		; ccccccccH
  0001d	89 45 e0	 mov	 DWORD PTR [ebp-32], eax
  00020	89 45 e4	 mov	 DWORD PTR [ebp-28], eax
  00023	89 45 e8	 mov	 DWORD PTR [ebp-24], eax
  00026	89 45 ec	 mov	 DWORD PTR [ebp-20], eax
  00029	a1 00 00 00 00	 mov	 eax, DWORD PTR ___security_cookie
  0002e	33 c5		 xor	 eax, ebp
  00030	50		 push	 eax
  00031	8d 45 f4	 lea	 eax, DWORD PTR __$EHRec$[ebp+4]
  00034	64 a3 00 00 00
	00		 mov	 DWORD PTR fs:0, eax
  0003a	89 65 f0	 mov	 DWORD PTR __$EHRec$[ebp], esp
  0003d	b9 00 00 00 00	 mov	 ecx, OFFSET __C21BA676_pmc_interface_csharp@cpp
  00042	e8 00 00 00 00	 call	 @__CheckForDebuggerJustMyCode@4

; 483  :         if (w == nullptr)

  00047	83 7d 10 00	 cmp	 DWORD PTR _w$[ebp], 0
  0004b	75 07		 jne	 SHORT $LN2@PMCCS_Subt

; 484  :             return (PMC_STATUS_ARGUMENT_NULL_ERROR);

  0004d	b8 fe ff ff ff	 mov	 eax, -2			; fffffffeH
  00052	eb 47		 jmp	 SHORT $LN1@PMCCS_Subt
$LN2@PMCCS_Subt:

; 485  :         try

  00054	c7 45 fc 00 00
	00 00		 mov	 DWORD PTR __$EHRec$[ebp+12], 0

; 486  :         {
; 487  :             *w = PMC_Subtruct_X_X(u, v);

  0005b	8b 45 0c	 mov	 eax, DWORD PTR _v$[ebp]
  0005e	50		 push	 eax
  0005f	8b 4d 08	 mov	 ecx, DWORD PTR _u$[ebp]
  00062	51		 push	 ecx
  00063	e8 00 00 00 00	 call	 ?PMC_Subtruct_X_X@Internal@Core@Math@Palmtree@@YGPAU__tag_PMC_HANDLE_UINT@1234@PAU51234@0@Z ; Palmtree::Math::Core::Internal::PMC_Subtruct_X_X
  00068	8b 55 10	 mov	 edx, DWORD PTR _w$[ebp]
  0006b	89 02		 mov	 DWORD PTR [edx], eax

; 488  :             return (PMC_STATUS_OK);

  0006d	33 c0		 xor	 eax, eax
  0006f	eb 2a		 jmp	 SHORT $LN1@PMCCS_Subt
__catch$_PMCCS_Subtruct_X_X@12$0:

; 489  :         }
; 490  :         catch (const Palmtree::Math::Core::Internal::Exception& ex)
; 491  :         {
; 492  :             return (ex.GetStatusCode());

  00071	8b 4d e8	 mov	 ecx, DWORD PTR _ex$3[ebp]
  00074	e8 00 00 00 00	 call	 ?GetStatusCode@Exception@Internal@Core@Math@Palmtree@@QBEHXZ ; Palmtree::Math::Core::Internal::Exception::GetStatusCode
  00079	89 45 e0	 mov	 DWORD PTR $T2[ebp], eax
  0007c	b8 00 00 00 00	 mov	 eax, $LN8@PMCCS_Subt
  00081	c3		 ret	 0

; 493  :         }

  00082	b8 00 00 00 00	 mov	 eax, __tryend$_PMCCS_Subtruct_X_X@12$1
  00087	c3		 ret	 0
__tryend$_PMCCS_Subtruct_X_X@12$1:
  00088	c7 45 fc ff ff
	ff ff		 mov	 DWORD PTR __$EHRec$[ebp+12], -1
  0008f	eb 0a		 jmp	 SHORT $LN1@PMCCS_Subt
$LN8@PMCCS_Subt:
  00091	c7 45 fc ff ff
	ff ff		 mov	 DWORD PTR __$EHRec$[ebp+12], -1

; 489  :         }
; 490  :         catch (const Palmtree::Math::Core::Internal::Exception& ex)
; 491  :         {
; 492  :             return (ex.GetStatusCode());

  00098	8b 45 e0	 mov	 eax, DWORD PTR $T2[ebp]
$LN1@PMCCS_Subt:

; 494  :     }

  0009b	52		 push	 edx
  0009c	8b cd		 mov	 ecx, ebp
  0009e	50		 push	 eax
  0009f	8d 15 00 00 00
	00		 lea	 edx, DWORD PTR $LN12@PMCCS_Subt
  000a5	e8 00 00 00 00	 call	 @_RTC_CheckStackVars@8
  000aa	58		 pop	 eax
  000ab	5a		 pop	 edx
  000ac	8b 4d f4	 mov	 ecx, DWORD PTR __$EHRec$[ebp+4]
  000af	64 89 0d 00 00
	00 00		 mov	 DWORD PTR fs:0, ecx
  000b6	59		 pop	 ecx
  000b7	5f		 pop	 edi
  000b8	5e		 pop	 esi
  000b9	5b		 pop	 ebx
  000ba	83 c4 20	 add	 esp, 32			; 00000020H
  000bd	3b ec		 cmp	 ebp, esp
  000bf	e8 00 00 00 00	 call	 __RTC_CheckEsp
  000c4	8b e5		 mov	 esp, ebp
  000c6	5d		 pop	 ebp
  000c7	c2 0c 00	 ret	 12			; 0000000cH
  000ca	66 90		 npad	 2
$LN12@PMCCS_Subt:
  000cc	01 00 00 00	 DD	 1
  000d0	00 00 00 00	 DD	 $LN11@PMCCS_Subt
$LN11@PMCCS_Subt:
  000d4	e8 ff ff ff	 DD	 -24			; ffffffe8H
  000d8	04 00 00 00	 DD	 4
  000dc	00 00 00 00	 DD	 $LN9@PMCCS_Subt
$LN9@PMCCS_Subt:
  000e0	65		 DB	 101			; 00000065H
  000e1	78		 DB	 120			; 00000078H
  000e2	00		 DB	 0
_TEXT	ENDS
text$x	SEGMENT
__ehhandler$_PMCCS_Subtruct_X_X@12:
  00000	8b 54 24 08	 mov	 edx, DWORD PTR [esp+8]
  00004	8d 42 0c	 lea	 eax, DWORD PTR [edx+12]
  00007	8b 4a dc	 mov	 ecx, DWORD PTR [edx-36]
  0000a	33 c8		 xor	 ecx, eax
  0000c	e8 00 00 00 00	 call	 @__security_check_cookie@4
  00011	b8 00 00 00 00	 mov	 eax, OFFSET __ehfuncinfo$_PMCCS_Subtruct_X_X@12
  00016	e9 00 00 00 00	 jmp	 ___CxxFrameHandler3
text$x	ENDS
_PMCCS_Subtruct_X_X@12 ENDP
; Function compile flags: /Odtp /RTCsu
; File z:\sources\lunor\repos\rougemeilland\palmtree.math.core.uint\palmtree.math.core.uint\pmc_interface_csharp.cpp
_TEXT	SEGMENT
$T2 = -32						; size = 4
_ex$3 = -24						; size = 4
__$EHRec$ = -16						; size = 16
_u$ = 8							; size = 4
_v$ = 12						; size = 8
_w$ = 20						; size = 4
_PMCCS_Subtruct_X_L@16 PROC

; 467  :     {

  00000	55		 push	 ebp
  00001	8b ec		 mov	 ebp, esp
  00003	6a ff		 push	 -1
  00005	68 00 00 00 00	 push	 __ehhandler$_PMCCS_Subtruct_X_L@16
  0000a	64 a1 00 00 00
	00		 mov	 eax, DWORD PTR fs:0
  00010	50		 push	 eax
  00011	51		 push	 ecx
  00012	83 ec 10	 sub	 esp, 16			; 00000010H
  00015	53		 push	 ebx
  00016	56		 push	 esi
  00017	57		 push	 edi
  00018	b8 cc cc cc cc	 mov	 eax, -858993460		; ccccccccH
  0001d	89 45 e0	 mov	 DWORD PTR [ebp-32], eax
  00020	89 45 e4	 mov	 DWORD PTR [ebp-28], eax
  00023	89 45 e8	 mov	 DWORD PTR [ebp-24], eax
  00026	89 45 ec	 mov	 DWORD PTR [ebp-20], eax
  00029	a1 00 00 00 00	 mov	 eax, DWORD PTR ___security_cookie
  0002e	33 c5		 xor	 eax, ebp
  00030	50		 push	 eax
  00031	8d 45 f4	 lea	 eax, DWORD PTR __$EHRec$[ebp+4]
  00034	64 a3 00 00 00
	00		 mov	 DWORD PTR fs:0, eax
  0003a	89 65 f0	 mov	 DWORD PTR __$EHRec$[ebp], esp
  0003d	b9 00 00 00 00	 mov	 ecx, OFFSET __C21BA676_pmc_interface_csharp@cpp
  00042	e8 00 00 00 00	 call	 @__CheckForDebuggerJustMyCode@4

; 468  :         if (w == nullptr)

  00047	83 7d 14 00	 cmp	 DWORD PTR _w$[ebp], 0
  0004b	75 07		 jne	 SHORT $LN2@PMCCS_Subt

; 469  :             return (PMC_STATUS_ARGUMENT_NULL_ERROR);

  0004d	b8 fe ff ff ff	 mov	 eax, -2			; fffffffeH
  00052	eb 4b		 jmp	 SHORT $LN1@PMCCS_Subt
$LN2@PMCCS_Subt:

; 470  :         try

  00054	c7 45 fc 00 00
	00 00		 mov	 DWORD PTR __$EHRec$[ebp+12], 0

; 471  :         {
; 472  :             *w = PMC_Subtruct_X_L(u, v);

  0005b	8b 45 10	 mov	 eax, DWORD PTR _v$[ebp+4]
  0005e	50		 push	 eax
  0005f	8b 4d 0c	 mov	 ecx, DWORD PTR _v$[ebp]
  00062	51		 push	 ecx
  00063	8b 55 08	 mov	 edx, DWORD PTR _u$[ebp]
  00066	52		 push	 edx
  00067	e8 00 00 00 00	 call	 ?PMC_Subtruct_X_L@Internal@Core@Math@Palmtree@@YGPAU__tag_PMC_HANDLE_UINT@1234@PAU51234@_K@Z ; Palmtree::Math::Core::Internal::PMC_Subtruct_X_L
  0006c	8b 4d 14	 mov	 ecx, DWORD PTR _w$[ebp]
  0006f	89 01		 mov	 DWORD PTR [ecx], eax

; 473  :             return (PMC_STATUS_OK);

  00071	33 c0		 xor	 eax, eax
  00073	eb 2a		 jmp	 SHORT $LN1@PMCCS_Subt
__catch$_PMCCS_Subtruct_X_L@16$0:

; 474  :         }
; 475  :         catch (const Palmtree::Math::Core::Internal::Exception& ex)
; 476  :         {
; 477  :             return (ex.GetStatusCode());

  00075	8b 4d e8	 mov	 ecx, DWORD PTR _ex$3[ebp]
  00078	e8 00 00 00 00	 call	 ?GetStatusCode@Exception@Internal@Core@Math@Palmtree@@QBEHXZ ; Palmtree::Math::Core::Internal::Exception::GetStatusCode
  0007d	89 45 e0	 mov	 DWORD PTR $T2[ebp], eax
  00080	b8 00 00 00 00	 mov	 eax, $LN8@PMCCS_Subt
  00085	c3		 ret	 0

; 478  :         }

  00086	b8 00 00 00 00	 mov	 eax, __tryend$_PMCCS_Subtruct_X_L@16$1
  0008b	c3		 ret	 0
__tryend$_PMCCS_Subtruct_X_L@16$1:
  0008c	c7 45 fc ff ff
	ff ff		 mov	 DWORD PTR __$EHRec$[ebp+12], -1
  00093	eb 0a		 jmp	 SHORT $LN1@PMCCS_Subt
$LN8@PMCCS_Subt:
  00095	c7 45 fc ff ff
	ff ff		 mov	 DWORD PTR __$EHRec$[ebp+12], -1

; 474  :         }
; 475  :         catch (const Palmtree::Math::Core::Internal::Exception& ex)
; 476  :         {
; 477  :             return (ex.GetStatusCode());

  0009c	8b 45 e0	 mov	 eax, DWORD PTR $T2[ebp]
$LN1@PMCCS_Subt:

; 479  :     }

  0009f	52		 push	 edx
  000a0	8b cd		 mov	 ecx, ebp
  000a2	50		 push	 eax
  000a3	8d 15 00 00 00
	00		 lea	 edx, DWORD PTR $LN12@PMCCS_Subt
  000a9	e8 00 00 00 00	 call	 @_RTC_CheckStackVars@8
  000ae	58		 pop	 eax
  000af	5a		 pop	 edx
  000b0	8b 4d f4	 mov	 ecx, DWORD PTR __$EHRec$[ebp+4]
  000b3	64 89 0d 00 00
	00 00		 mov	 DWORD PTR fs:0, ecx
  000ba	59		 pop	 ecx
  000bb	5f		 pop	 edi
  000bc	5e		 pop	 esi
  000bd	5b		 pop	 ebx
  000be	83 c4 20	 add	 esp, 32			; 00000020H
  000c1	3b ec		 cmp	 ebp, esp
  000c3	e8 00 00 00 00	 call	 __RTC_CheckEsp
  000c8	8b e5		 mov	 esp, ebp
  000ca	5d		 pop	 ebp
  000cb	c2 10 00	 ret	 16			; 00000010H
  000ce	66 90		 npad	 2
$LN12@PMCCS_Subt:
  000d0	01 00 00 00	 DD	 1
  000d4	00 00 00 00	 DD	 $LN11@PMCCS_Subt
$LN11@PMCCS_Subt:
  000d8	e8 ff ff ff	 DD	 -24			; ffffffe8H
  000dc	04 00 00 00	 DD	 4
  000e0	00 00 00 00	 DD	 $LN9@PMCCS_Subt
$LN9@PMCCS_Subt:
  000e4	65		 DB	 101			; 00000065H
  000e5	78		 DB	 120			; 00000078H
  000e6	00		 DB	 0
_TEXT	ENDS
text$x	SEGMENT
__ehhandler$_PMCCS_Subtruct_X_L@16:
  00000	8b 54 24 08	 mov	 edx, DWORD PTR [esp+8]
  00004	8d 42 0c	 lea	 eax, DWORD PTR [edx+12]
  00007	8b 4a dc	 mov	 ecx, DWORD PTR [edx-36]
  0000a	33 c8		 xor	 ecx, eax
  0000c	e8 00 00 00 00	 call	 @__security_check_cookie@4
  00011	b8 00 00 00 00	 mov	 eax, OFFSET __ehfuncinfo$_PMCCS_Subtruct_X_L@16
  00016	e9 00 00 00 00	 jmp	 ___CxxFrameHandler3
text$x	ENDS
_PMCCS_Subtruct_X_L@16 ENDP
; Function compile flags: /Odtp /RTCsu
; File z:\sources\lunor\repos\rougemeilland\palmtree.math.core.uint\palmtree.math.core.uint\pmc_interface_csharp.cpp
_TEXT	SEGMENT
$T2 = -32						; size = 4
_ex$3 = -24						; size = 4
__$EHRec$ = -16						; size = 16
_u$ = 8							; size = 4
_v$ = 12						; size = 4
_w$ = 16						; size = 4
_PMCCS_Subtruct_X_I@12 PROC

; 452  :     {

  00000	55		 push	 ebp
  00001	8b ec		 mov	 ebp, esp
  00003	6a ff		 push	 -1
  00005	68 00 00 00 00	 push	 __ehhandler$_PMCCS_Subtruct_X_I@12
  0000a	64 a1 00 00 00
	00		 mov	 eax, DWORD PTR fs:0
  00010	50		 push	 eax
  00011	51		 push	 ecx
  00012	83 ec 10	 sub	 esp, 16			; 00000010H
  00015	53		 push	 ebx
  00016	56		 push	 esi
  00017	57		 push	 edi
  00018	b8 cc cc cc cc	 mov	 eax, -858993460		; ccccccccH
  0001d	89 45 e0	 mov	 DWORD PTR [ebp-32], eax
  00020	89 45 e4	 mov	 DWORD PTR [ebp-28], eax
  00023	89 45 e8	 mov	 DWORD PTR [ebp-24], eax
  00026	89 45 ec	 mov	 DWORD PTR [ebp-20], eax
  00029	a1 00 00 00 00	 mov	 eax, DWORD PTR ___security_cookie
  0002e	33 c5		 xor	 eax, ebp
  00030	50		 push	 eax
  00031	8d 45 f4	 lea	 eax, DWORD PTR __$EHRec$[ebp+4]
  00034	64 a3 00 00 00
	00		 mov	 DWORD PTR fs:0, eax
  0003a	89 65 f0	 mov	 DWORD PTR __$EHRec$[ebp], esp
  0003d	b9 00 00 00 00	 mov	 ecx, OFFSET __C21BA676_pmc_interface_csharp@cpp
  00042	e8 00 00 00 00	 call	 @__CheckForDebuggerJustMyCode@4

; 453  :         if (w == nullptr)

  00047	83 7d 10 00	 cmp	 DWORD PTR _w$[ebp], 0
  0004b	75 07		 jne	 SHORT $LN2@PMCCS_Subt

; 454  :             return (PMC_STATUS_ARGUMENT_NULL_ERROR);

  0004d	b8 fe ff ff ff	 mov	 eax, -2			; fffffffeH
  00052	eb 47		 jmp	 SHORT $LN1@PMCCS_Subt
$LN2@PMCCS_Subt:

; 455  :         try

  00054	c7 45 fc 00 00
	00 00		 mov	 DWORD PTR __$EHRec$[ebp+12], 0

; 456  :         {
; 457  :             *w = PMC_Subtruct_X_I(u, v);

  0005b	8b 45 0c	 mov	 eax, DWORD PTR _v$[ebp]
  0005e	50		 push	 eax
  0005f	8b 4d 08	 mov	 ecx, DWORD PTR _u$[ebp]
  00062	51		 push	 ecx
  00063	e8 00 00 00 00	 call	 ?PMC_Subtruct_X_I@Internal@Core@Math@Palmtree@@YGPAU__tag_PMC_HANDLE_UINT@1234@PAU51234@I@Z ; Palmtree::Math::Core::Internal::PMC_Subtruct_X_I
  00068	8b 55 10	 mov	 edx, DWORD PTR _w$[ebp]
  0006b	89 02		 mov	 DWORD PTR [edx], eax

; 458  :             return (PMC_STATUS_OK);

  0006d	33 c0		 xor	 eax, eax
  0006f	eb 2a		 jmp	 SHORT $LN1@PMCCS_Subt
__catch$_PMCCS_Subtruct_X_I@12$0:

; 459  :         }
; 460  :         catch (const Palmtree::Math::Core::Internal::Exception& ex)
; 461  :         {
; 462  :             return (ex.GetStatusCode());

  00071	8b 4d e8	 mov	 ecx, DWORD PTR _ex$3[ebp]
  00074	e8 00 00 00 00	 call	 ?GetStatusCode@Exception@Internal@Core@Math@Palmtree@@QBEHXZ ; Palmtree::Math::Core::Internal::Exception::GetStatusCode
  00079	89 45 e0	 mov	 DWORD PTR $T2[ebp], eax
  0007c	b8 00 00 00 00	 mov	 eax, $LN8@PMCCS_Subt
  00081	c3		 ret	 0

; 463  :         }

  00082	b8 00 00 00 00	 mov	 eax, __tryend$_PMCCS_Subtruct_X_I@12$1
  00087	c3		 ret	 0
__tryend$_PMCCS_Subtruct_X_I@12$1:
  00088	c7 45 fc ff ff
	ff ff		 mov	 DWORD PTR __$EHRec$[ebp+12], -1
  0008f	eb 0a		 jmp	 SHORT $LN1@PMCCS_Subt
$LN8@PMCCS_Subt:
  00091	c7 45 fc ff ff
	ff ff		 mov	 DWORD PTR __$EHRec$[ebp+12], -1

; 459  :         }
; 460  :         catch (const Palmtree::Math::Core::Internal::Exception& ex)
; 461  :         {
; 462  :             return (ex.GetStatusCode());

  00098	8b 45 e0	 mov	 eax, DWORD PTR $T2[ebp]
$LN1@PMCCS_Subt:

; 464  :     }

  0009b	52		 push	 edx
  0009c	8b cd		 mov	 ecx, ebp
  0009e	50		 push	 eax
  0009f	8d 15 00 00 00
	00		 lea	 edx, DWORD PTR $LN12@PMCCS_Subt
  000a5	e8 00 00 00 00	 call	 @_RTC_CheckStackVars@8
  000aa	58		 pop	 eax
  000ab	5a		 pop	 edx
  000ac	8b 4d f4	 mov	 ecx, DWORD PTR __$EHRec$[ebp+4]
  000af	64 89 0d 00 00
	00 00		 mov	 DWORD PTR fs:0, ecx
  000b6	59		 pop	 ecx
  000b7	5f		 pop	 edi
  000b8	5e		 pop	 esi
  000b9	5b		 pop	 ebx
  000ba	83 c4 20	 add	 esp, 32			; 00000020H
  000bd	3b ec		 cmp	 ebp, esp
  000bf	e8 00 00 00 00	 call	 __RTC_CheckEsp
  000c4	8b e5		 mov	 esp, ebp
  000c6	5d		 pop	 ebp
  000c7	c2 0c 00	 ret	 12			; 0000000cH
  000ca	66 90		 npad	 2
$LN12@PMCCS_Subt:
  000cc	01 00 00 00	 DD	 1
  000d0	00 00 00 00	 DD	 $LN11@PMCCS_Subt
$LN11@PMCCS_Subt:
  000d4	e8 ff ff ff	 DD	 -24			; ffffffe8H
  000d8	04 00 00 00	 DD	 4
  000dc	00 00 00 00	 DD	 $LN9@PMCCS_Subt
$LN9@PMCCS_Subt:
  000e0	65		 DB	 101			; 00000065H
  000e1	78		 DB	 120			; 00000078H
  000e2	00		 DB	 0
_TEXT	ENDS
text$x	SEGMENT
__ehhandler$_PMCCS_Subtruct_X_I@12:
  00000	8b 54 24 08	 mov	 edx, DWORD PTR [esp+8]
  00004	8d 42 0c	 lea	 eax, DWORD PTR [edx+12]
  00007	8b 4a dc	 mov	 ecx, DWORD PTR [edx-36]
  0000a	33 c8		 xor	 ecx, eax
  0000c	e8 00 00 00 00	 call	 @__security_check_cookie@4
  00011	b8 00 00 00 00	 mov	 eax, OFFSET __ehfuncinfo$_PMCCS_Subtruct_X_I@12
  00016	e9 00 00 00 00	 jmp	 ___CxxFrameHandler3
text$x	ENDS
_PMCCS_Subtruct_X_I@12 ENDP
; Function compile flags: /Odtp /RTCsu
; File z:\sources\lunor\repos\rougemeilland\palmtree.math.core.uint\palmtree.math.core.uint\pmc_interface_csharp.cpp
_TEXT	SEGMENT
$T2 = -32						; size = 4
_ex$3 = -24						; size = 4
__$EHRec$ = -16						; size = 16
_u$ = 8							; size = 8
_v$ = 16						; size = 4
_w$ = 20						; size = 4
_PMCCS_Subtruct_L_X@16 PROC

; 437  :     {

  00000	55		 push	 ebp
  00001	8b ec		 mov	 ebp, esp
  00003	6a ff		 push	 -1
  00005	68 00 00 00 00	 push	 __ehhandler$_PMCCS_Subtruct_L_X@16
  0000a	64 a1 00 00 00
	00		 mov	 eax, DWORD PTR fs:0
  00010	50		 push	 eax
  00011	51		 push	 ecx
  00012	83 ec 10	 sub	 esp, 16			; 00000010H
  00015	53		 push	 ebx
  00016	56		 push	 esi
  00017	57		 push	 edi
  00018	b8 cc cc cc cc	 mov	 eax, -858993460		; ccccccccH
  0001d	89 45 e0	 mov	 DWORD PTR [ebp-32], eax
  00020	89 45 e4	 mov	 DWORD PTR [ebp-28], eax
  00023	89 45 e8	 mov	 DWORD PTR [ebp-24], eax
  00026	89 45 ec	 mov	 DWORD PTR [ebp-20], eax
  00029	a1 00 00 00 00	 mov	 eax, DWORD PTR ___security_cookie
  0002e	33 c5		 xor	 eax, ebp
  00030	50		 push	 eax
  00031	8d 45 f4	 lea	 eax, DWORD PTR __$EHRec$[ebp+4]
  00034	64 a3 00 00 00
	00		 mov	 DWORD PTR fs:0, eax
  0003a	89 65 f0	 mov	 DWORD PTR __$EHRec$[ebp], esp
  0003d	b9 00 00 00 00	 mov	 ecx, OFFSET __C21BA676_pmc_interface_csharp@cpp
  00042	e8 00 00 00 00	 call	 @__CheckForDebuggerJustMyCode@4

; 438  :         if (w == nullptr)

  00047	83 7d 14 00	 cmp	 DWORD PTR _w$[ebp], 0
  0004b	75 07		 jne	 SHORT $LN2@PMCCS_Subt

; 439  :             return (PMC_STATUS_ARGUMENT_NULL_ERROR);

  0004d	b8 fe ff ff ff	 mov	 eax, -2			; fffffffeH
  00052	eb 4e		 jmp	 SHORT $LN1@PMCCS_Subt
$LN2@PMCCS_Subt:

; 440  :         try

  00054	c7 45 fc 00 00
	00 00		 mov	 DWORD PTR __$EHRec$[ebp+12], 0

; 441  :         {
; 442  :             *w = PMC_Subtruct_L_X(u, v);

  0005b	8b 45 10	 mov	 eax, DWORD PTR _v$[ebp]
  0005e	50		 push	 eax
  0005f	8b 4d 0c	 mov	 ecx, DWORD PTR _u$[ebp+4]
  00062	51		 push	 ecx
  00063	8b 55 08	 mov	 edx, DWORD PTR _u$[ebp]
  00066	52		 push	 edx
  00067	e8 00 00 00 00	 call	 ?PMC_Subtruct_L_X@Internal@Core@Math@Palmtree@@YG_K_KPAU__tag_PMC_HANDLE_UINT@1234@@Z ; Palmtree::Math::Core::Internal::PMC_Subtruct_L_X
  0006c	8b 4d 14	 mov	 ecx, DWORD PTR _w$[ebp]
  0006f	89 01		 mov	 DWORD PTR [ecx], eax
  00071	89 51 04	 mov	 DWORD PTR [ecx+4], edx

; 443  :             return (PMC_STATUS_OK);

  00074	33 c0		 xor	 eax, eax
  00076	eb 2a		 jmp	 SHORT $LN1@PMCCS_Subt
__catch$_PMCCS_Subtruct_L_X@16$0:

; 444  :         }
; 445  :         catch (const Palmtree::Math::Core::Internal::Exception& ex)
; 446  :         {
; 447  :             return (ex.GetStatusCode());

  00078	8b 4d e8	 mov	 ecx, DWORD PTR _ex$3[ebp]
  0007b	e8 00 00 00 00	 call	 ?GetStatusCode@Exception@Internal@Core@Math@Palmtree@@QBEHXZ ; Palmtree::Math::Core::Internal::Exception::GetStatusCode
  00080	89 45 e0	 mov	 DWORD PTR $T2[ebp], eax
  00083	b8 00 00 00 00	 mov	 eax, $LN8@PMCCS_Subt
  00088	c3		 ret	 0

; 448  :         }

  00089	b8 00 00 00 00	 mov	 eax, __tryend$_PMCCS_Subtruct_L_X@16$1
  0008e	c3		 ret	 0
__tryend$_PMCCS_Subtruct_L_X@16$1:
  0008f	c7 45 fc ff ff
	ff ff		 mov	 DWORD PTR __$EHRec$[ebp+12], -1
  00096	eb 0a		 jmp	 SHORT $LN1@PMCCS_Subt
$LN8@PMCCS_Subt:
  00098	c7 45 fc ff ff
	ff ff		 mov	 DWORD PTR __$EHRec$[ebp+12], -1

; 444  :         }
; 445  :         catch (const Palmtree::Math::Core::Internal::Exception& ex)
; 446  :         {
; 447  :             return (ex.GetStatusCode());

  0009f	8b 45 e0	 mov	 eax, DWORD PTR $T2[ebp]
$LN1@PMCCS_Subt:

; 449  :     }

  000a2	52		 push	 edx
  000a3	8b cd		 mov	 ecx, ebp
  000a5	50		 push	 eax
  000a6	8d 15 00 00 00
	00		 lea	 edx, DWORD PTR $LN12@PMCCS_Subt
  000ac	e8 00 00 00 00	 call	 @_RTC_CheckStackVars@8
  000b1	58		 pop	 eax
  000b2	5a		 pop	 edx
  000b3	8b 4d f4	 mov	 ecx, DWORD PTR __$EHRec$[ebp+4]
  000b6	64 89 0d 00 00
	00 00		 mov	 DWORD PTR fs:0, ecx
  000bd	59		 pop	 ecx
  000be	5f		 pop	 edi
  000bf	5e		 pop	 esi
  000c0	5b		 pop	 ebx
  000c1	83 c4 20	 add	 esp, 32			; 00000020H
  000c4	3b ec		 cmp	 ebp, esp
  000c6	e8 00 00 00 00	 call	 __RTC_CheckEsp
  000cb	8b e5		 mov	 esp, ebp
  000cd	5d		 pop	 ebp
  000ce	c2 10 00	 ret	 16			; 00000010H
  000d1	0f 1f 00	 npad	 3
$LN12@PMCCS_Subt:
  000d4	01 00 00 00	 DD	 1
  000d8	00 00 00 00	 DD	 $LN11@PMCCS_Subt
$LN11@PMCCS_Subt:
  000dc	e8 ff ff ff	 DD	 -24			; ffffffe8H
  000e0	04 00 00 00	 DD	 4
  000e4	00 00 00 00	 DD	 $LN9@PMCCS_Subt
$LN9@PMCCS_Subt:
  000e8	65		 DB	 101			; 00000065H
  000e9	78		 DB	 120			; 00000078H
  000ea	00		 DB	 0
_TEXT	ENDS
text$x	SEGMENT
__ehhandler$_PMCCS_Subtruct_L_X@16:
  00000	8b 54 24 08	 mov	 edx, DWORD PTR [esp+8]
  00004	8d 42 0c	 lea	 eax, DWORD PTR [edx+12]
  00007	8b 4a dc	 mov	 ecx, DWORD PTR [edx-36]
  0000a	33 c8		 xor	 ecx, eax
  0000c	e8 00 00 00 00	 call	 @__security_check_cookie@4
  00011	b8 00 00 00 00	 mov	 eax, OFFSET __ehfuncinfo$_PMCCS_Subtruct_L_X@16
  00016	e9 00 00 00 00	 jmp	 ___CxxFrameHandler3
text$x	ENDS
_PMCCS_Subtruct_L_X@16 ENDP
; Function compile flags: /Odtp /RTCsu
; File z:\sources\lunor\repos\rougemeilland\palmtree.math.core.uint\palmtree.math.core.uint\pmc_interface_csharp.cpp
_TEXT	SEGMENT
$T2 = -32						; size = 4
_ex$3 = -24						; size = 4
__$EHRec$ = -16						; size = 16
_u$ = 8							; size = 4
_v$ = 12						; size = 4
_w$ = 16						; size = 4
_PMCCS_Subtruct_I_X@12 PROC

; 422  :     {

  00000	55		 push	 ebp
  00001	8b ec		 mov	 ebp, esp
  00003	6a ff		 push	 -1
  00005	68 00 00 00 00	 push	 __ehhandler$_PMCCS_Subtruct_I_X@12
  0000a	64 a1 00 00 00
	00		 mov	 eax, DWORD PTR fs:0
  00010	50		 push	 eax
  00011	51		 push	 ecx
  00012	83 ec 10	 sub	 esp, 16			; 00000010H
  00015	53		 push	 ebx
  00016	56		 push	 esi
  00017	57		 push	 edi
  00018	b8 cc cc cc cc	 mov	 eax, -858993460		; ccccccccH
  0001d	89 45 e0	 mov	 DWORD PTR [ebp-32], eax
  00020	89 45 e4	 mov	 DWORD PTR [ebp-28], eax
  00023	89 45 e8	 mov	 DWORD PTR [ebp-24], eax
  00026	89 45 ec	 mov	 DWORD PTR [ebp-20], eax
  00029	a1 00 00 00 00	 mov	 eax, DWORD PTR ___security_cookie
  0002e	33 c5		 xor	 eax, ebp
  00030	50		 push	 eax
  00031	8d 45 f4	 lea	 eax, DWORD PTR __$EHRec$[ebp+4]
  00034	64 a3 00 00 00
	00		 mov	 DWORD PTR fs:0, eax
  0003a	89 65 f0	 mov	 DWORD PTR __$EHRec$[ebp], esp
  0003d	b9 00 00 00 00	 mov	 ecx, OFFSET __C21BA676_pmc_interface_csharp@cpp
  00042	e8 00 00 00 00	 call	 @__CheckForDebuggerJustMyCode@4

; 423  :         if (w == nullptr)

  00047	83 7d 10 00	 cmp	 DWORD PTR _w$[ebp], 0
  0004b	75 07		 jne	 SHORT $LN2@PMCCS_Subt

; 424  :             return (PMC_STATUS_ARGUMENT_NULL_ERROR);

  0004d	b8 fe ff ff ff	 mov	 eax, -2			; fffffffeH
  00052	eb 47		 jmp	 SHORT $LN1@PMCCS_Subt
$LN2@PMCCS_Subt:

; 425  :         try

  00054	c7 45 fc 00 00
	00 00		 mov	 DWORD PTR __$EHRec$[ebp+12], 0

; 426  :         {
; 427  :             *w = PMC_Subtruct_I_X(u, v);

  0005b	8b 45 0c	 mov	 eax, DWORD PTR _v$[ebp]
  0005e	50		 push	 eax
  0005f	8b 4d 08	 mov	 ecx, DWORD PTR _u$[ebp]
  00062	51		 push	 ecx
  00063	e8 00 00 00 00	 call	 ?PMC_Subtruct_I_X@Internal@Core@Math@Palmtree@@YGIIPAU__tag_PMC_HANDLE_UINT@1234@@Z ; Palmtree::Math::Core::Internal::PMC_Subtruct_I_X
  00068	8b 55 10	 mov	 edx, DWORD PTR _w$[ebp]
  0006b	89 02		 mov	 DWORD PTR [edx], eax

; 428  :             return (PMC_STATUS_OK);

  0006d	33 c0		 xor	 eax, eax
  0006f	eb 2a		 jmp	 SHORT $LN1@PMCCS_Subt
__catch$_PMCCS_Subtruct_I_X@12$0:

; 429  :         }
; 430  :         catch (const Palmtree::Math::Core::Internal::Exception& ex)
; 431  :         {
; 432  :             return (ex.GetStatusCode());

  00071	8b 4d e8	 mov	 ecx, DWORD PTR _ex$3[ebp]
  00074	e8 00 00 00 00	 call	 ?GetStatusCode@Exception@Internal@Core@Math@Palmtree@@QBEHXZ ; Palmtree::Math::Core::Internal::Exception::GetStatusCode
  00079	89 45 e0	 mov	 DWORD PTR $T2[ebp], eax
  0007c	b8 00 00 00 00	 mov	 eax, $LN8@PMCCS_Subt
  00081	c3		 ret	 0

; 433  :         }

  00082	b8 00 00 00 00	 mov	 eax, __tryend$_PMCCS_Subtruct_I_X@12$1
  00087	c3		 ret	 0
__tryend$_PMCCS_Subtruct_I_X@12$1:
  00088	c7 45 fc ff ff
	ff ff		 mov	 DWORD PTR __$EHRec$[ebp+12], -1
  0008f	eb 0a		 jmp	 SHORT $LN1@PMCCS_Subt
$LN8@PMCCS_Subt:
  00091	c7 45 fc ff ff
	ff ff		 mov	 DWORD PTR __$EHRec$[ebp+12], -1

; 429  :         }
; 430  :         catch (const Palmtree::Math::Core::Internal::Exception& ex)
; 431  :         {
; 432  :             return (ex.GetStatusCode());

  00098	8b 45 e0	 mov	 eax, DWORD PTR $T2[ebp]
$LN1@PMCCS_Subt:

; 434  :     }

  0009b	52		 push	 edx
  0009c	8b cd		 mov	 ecx, ebp
  0009e	50		 push	 eax
  0009f	8d 15 00 00 00
	00		 lea	 edx, DWORD PTR $LN12@PMCCS_Subt
  000a5	e8 00 00 00 00	 call	 @_RTC_CheckStackVars@8
  000aa	58		 pop	 eax
  000ab	5a		 pop	 edx
  000ac	8b 4d f4	 mov	 ecx, DWORD PTR __$EHRec$[ebp+4]
  000af	64 89 0d 00 00
	00 00		 mov	 DWORD PTR fs:0, ecx
  000b6	59		 pop	 ecx
  000b7	5f		 pop	 edi
  000b8	5e		 pop	 esi
  000b9	5b		 pop	 ebx
  000ba	83 c4 20	 add	 esp, 32			; 00000020H
  000bd	3b ec		 cmp	 ebp, esp
  000bf	e8 00 00 00 00	 call	 __RTC_CheckEsp
  000c4	8b e5		 mov	 esp, ebp
  000c6	5d		 pop	 ebp
  000c7	c2 0c 00	 ret	 12			; 0000000cH
  000ca	66 90		 npad	 2
$LN12@PMCCS_Subt:
  000cc	01 00 00 00	 DD	 1
  000d0	00 00 00 00	 DD	 $LN11@PMCCS_Subt
$LN11@PMCCS_Subt:
  000d4	e8 ff ff ff	 DD	 -24			; ffffffe8H
  000d8	04 00 00 00	 DD	 4
  000dc	00 00 00 00	 DD	 $LN9@PMCCS_Subt
$LN9@PMCCS_Subt:
  000e0	65		 DB	 101			; 00000065H
  000e1	78		 DB	 120			; 00000078H
  000e2	00		 DB	 0
_TEXT	ENDS
text$x	SEGMENT
__ehhandler$_PMCCS_Subtruct_I_X@12:
  00000	8b 54 24 08	 mov	 edx, DWORD PTR [esp+8]
  00004	8d 42 0c	 lea	 eax, DWORD PTR [edx+12]
  00007	8b 4a dc	 mov	 ecx, DWORD PTR [edx-36]
  0000a	33 c8		 xor	 ecx, eax
  0000c	e8 00 00 00 00	 call	 @__security_check_cookie@4
  00011	b8 00 00 00 00	 mov	 eax, OFFSET __ehfuncinfo$_PMCCS_Subtruct_I_X@12
  00016	e9 00 00 00 00	 jmp	 ___CxxFrameHandler3
text$x	ENDS
_PMCCS_Subtruct_I_X@12 ENDP
; Function compile flags: /Odtp /RTCsu
; File z:\sources\lunor\repos\rougemeilland\palmtree.math.core.uint\palmtree.math.core.uint\pmc_interface_csharp.cpp
_TEXT	SEGMENT
$T2 = -32						; size = 4
_ex$3 = -24						; size = 4
__$EHRec$ = -16						; size = 16
_u$ = 8							; size = 4
_v$ = 12						; size = 4
_w$ = 16						; size = 4
_PMCCS_Add_X_X@12 PROC

; 407  :     {

  00000	55		 push	 ebp
  00001	8b ec		 mov	 ebp, esp
  00003	6a ff		 push	 -1
  00005	68 00 00 00 00	 push	 __ehhandler$_PMCCS_Add_X_X@12
  0000a	64 a1 00 00 00
	00		 mov	 eax, DWORD PTR fs:0
  00010	50		 push	 eax
  00011	51		 push	 ecx
  00012	83 ec 10	 sub	 esp, 16			; 00000010H
  00015	53		 push	 ebx
  00016	56		 push	 esi
  00017	57		 push	 edi
  00018	b8 cc cc cc cc	 mov	 eax, -858993460		; ccccccccH
  0001d	89 45 e0	 mov	 DWORD PTR [ebp-32], eax
  00020	89 45 e4	 mov	 DWORD PTR [ebp-28], eax
  00023	89 45 e8	 mov	 DWORD PTR [ebp-24], eax
  00026	89 45 ec	 mov	 DWORD PTR [ebp-20], eax
  00029	a1 00 00 00 00	 mov	 eax, DWORD PTR ___security_cookie
  0002e	33 c5		 xor	 eax, ebp
  00030	50		 push	 eax
  00031	8d 45 f4	 lea	 eax, DWORD PTR __$EHRec$[ebp+4]
  00034	64 a3 00 00 00
	00		 mov	 DWORD PTR fs:0, eax
  0003a	89 65 f0	 mov	 DWORD PTR __$EHRec$[ebp], esp
  0003d	b9 00 00 00 00	 mov	 ecx, OFFSET __C21BA676_pmc_interface_csharp@cpp
  00042	e8 00 00 00 00	 call	 @__CheckForDebuggerJustMyCode@4

; 408  :         if (w == nullptr)

  00047	83 7d 10 00	 cmp	 DWORD PTR _w$[ebp], 0
  0004b	75 07		 jne	 SHORT $LN2@PMCCS_Add_

; 409  :             return (PMC_STATUS_ARGUMENT_NULL_ERROR);

  0004d	b8 fe ff ff ff	 mov	 eax, -2			; fffffffeH
  00052	eb 47		 jmp	 SHORT $LN1@PMCCS_Add_
$LN2@PMCCS_Add_:

; 410  :         try

  00054	c7 45 fc 00 00
	00 00		 mov	 DWORD PTR __$EHRec$[ebp+12], 0

; 411  :         {
; 412  :             *w = PMC_Add_X_X(u, v);

  0005b	8b 45 0c	 mov	 eax, DWORD PTR _v$[ebp]
  0005e	50		 push	 eax
  0005f	8b 4d 08	 mov	 ecx, DWORD PTR _u$[ebp]
  00062	51		 push	 ecx
  00063	e8 00 00 00 00	 call	 ?PMC_Add_X_X@Internal@Core@Math@Palmtree@@YGPAU__tag_PMC_HANDLE_UINT@1234@PAU51234@0@Z ; Palmtree::Math::Core::Internal::PMC_Add_X_X
  00068	8b 55 10	 mov	 edx, DWORD PTR _w$[ebp]
  0006b	89 02		 mov	 DWORD PTR [edx], eax

; 413  :             return (PMC_STATUS_OK);

  0006d	33 c0		 xor	 eax, eax
  0006f	eb 2a		 jmp	 SHORT $LN1@PMCCS_Add_
__catch$_PMCCS_Add_X_X@12$0:

; 414  :         }
; 415  :         catch (const Palmtree::Math::Core::Internal::Exception& ex)
; 416  :         {
; 417  :             return (ex.GetStatusCode());

  00071	8b 4d e8	 mov	 ecx, DWORD PTR _ex$3[ebp]
  00074	e8 00 00 00 00	 call	 ?GetStatusCode@Exception@Internal@Core@Math@Palmtree@@QBEHXZ ; Palmtree::Math::Core::Internal::Exception::GetStatusCode
  00079	89 45 e0	 mov	 DWORD PTR $T2[ebp], eax
  0007c	b8 00 00 00 00	 mov	 eax, $LN8@PMCCS_Add_
  00081	c3		 ret	 0

; 418  :         }

  00082	b8 00 00 00 00	 mov	 eax, __tryend$_PMCCS_Add_X_X@12$1
  00087	c3		 ret	 0
__tryend$_PMCCS_Add_X_X@12$1:
  00088	c7 45 fc ff ff
	ff ff		 mov	 DWORD PTR __$EHRec$[ebp+12], -1
  0008f	eb 0a		 jmp	 SHORT $LN1@PMCCS_Add_
$LN8@PMCCS_Add_:
  00091	c7 45 fc ff ff
	ff ff		 mov	 DWORD PTR __$EHRec$[ebp+12], -1

; 414  :         }
; 415  :         catch (const Palmtree::Math::Core::Internal::Exception& ex)
; 416  :         {
; 417  :             return (ex.GetStatusCode());

  00098	8b 45 e0	 mov	 eax, DWORD PTR $T2[ebp]
$LN1@PMCCS_Add_:

; 419  :     }

  0009b	52		 push	 edx
  0009c	8b cd		 mov	 ecx, ebp
  0009e	50		 push	 eax
  0009f	8d 15 00 00 00
	00		 lea	 edx, DWORD PTR $LN12@PMCCS_Add_
  000a5	e8 00 00 00 00	 call	 @_RTC_CheckStackVars@8
  000aa	58		 pop	 eax
  000ab	5a		 pop	 edx
  000ac	8b 4d f4	 mov	 ecx, DWORD PTR __$EHRec$[ebp+4]
  000af	64 89 0d 00 00
	00 00		 mov	 DWORD PTR fs:0, ecx
  000b6	59		 pop	 ecx
  000b7	5f		 pop	 edi
  000b8	5e		 pop	 esi
  000b9	5b		 pop	 ebx
  000ba	83 c4 20	 add	 esp, 32			; 00000020H
  000bd	3b ec		 cmp	 ebp, esp
  000bf	e8 00 00 00 00	 call	 __RTC_CheckEsp
  000c4	8b e5		 mov	 esp, ebp
  000c6	5d		 pop	 ebp
  000c7	c2 0c 00	 ret	 12			; 0000000cH
  000ca	66 90		 npad	 2
$LN12@PMCCS_Add_:
  000cc	01 00 00 00	 DD	 1
  000d0	00 00 00 00	 DD	 $LN11@PMCCS_Add_
$LN11@PMCCS_Add_:
  000d4	e8 ff ff ff	 DD	 -24			; ffffffe8H
  000d8	04 00 00 00	 DD	 4
  000dc	00 00 00 00	 DD	 $LN9@PMCCS_Add_
$LN9@PMCCS_Add_:
  000e0	65		 DB	 101			; 00000065H
  000e1	78		 DB	 120			; 00000078H
  000e2	00		 DB	 0
_TEXT	ENDS
text$x	SEGMENT
__ehhandler$_PMCCS_Add_X_X@12:
  00000	8b 54 24 08	 mov	 edx, DWORD PTR [esp+8]
  00004	8d 42 0c	 lea	 eax, DWORD PTR [edx+12]
  00007	8b 4a dc	 mov	 ecx, DWORD PTR [edx-36]
  0000a	33 c8		 xor	 ecx, eax
  0000c	e8 00 00 00 00	 call	 @__security_check_cookie@4
  00011	b8 00 00 00 00	 mov	 eax, OFFSET __ehfuncinfo$_PMCCS_Add_X_X@12
  00016	e9 00 00 00 00	 jmp	 ___CxxFrameHandler3
text$x	ENDS
_PMCCS_Add_X_X@12 ENDP
; Function compile flags: /Odtp /RTCsu
; File z:\sources\lunor\repos\rougemeilland\palmtree.math.core.uint\palmtree.math.core.uint\pmc_interface_csharp.cpp
_TEXT	SEGMENT
$T2 = -32						; size = 4
_ex$3 = -24						; size = 4
__$EHRec$ = -16						; size = 16
_u$ = 8							; size = 4
_v$ = 12						; size = 8
_w$ = 20						; size = 4
_PMCCS_Add_X_L@16 PROC

; 392  :     {

  00000	55		 push	 ebp
  00001	8b ec		 mov	 ebp, esp
  00003	6a ff		 push	 -1
  00005	68 00 00 00 00	 push	 __ehhandler$_PMCCS_Add_X_L@16
  0000a	64 a1 00 00 00
	00		 mov	 eax, DWORD PTR fs:0
  00010	50		 push	 eax
  00011	51		 push	 ecx
  00012	83 ec 10	 sub	 esp, 16			; 00000010H
  00015	53		 push	 ebx
  00016	56		 push	 esi
  00017	57		 push	 edi
  00018	b8 cc cc cc cc	 mov	 eax, -858993460		; ccccccccH
  0001d	89 45 e0	 mov	 DWORD PTR [ebp-32], eax
  00020	89 45 e4	 mov	 DWORD PTR [ebp-28], eax
  00023	89 45 e8	 mov	 DWORD PTR [ebp-24], eax
  00026	89 45 ec	 mov	 DWORD PTR [ebp-20], eax
  00029	a1 00 00 00 00	 mov	 eax, DWORD PTR ___security_cookie
  0002e	33 c5		 xor	 eax, ebp
  00030	50		 push	 eax
  00031	8d 45 f4	 lea	 eax, DWORD PTR __$EHRec$[ebp+4]
  00034	64 a3 00 00 00
	00		 mov	 DWORD PTR fs:0, eax
  0003a	89 65 f0	 mov	 DWORD PTR __$EHRec$[ebp], esp
  0003d	b9 00 00 00 00	 mov	 ecx, OFFSET __C21BA676_pmc_interface_csharp@cpp
  00042	e8 00 00 00 00	 call	 @__CheckForDebuggerJustMyCode@4

; 393  :         if (w == nullptr)

  00047	83 7d 14 00	 cmp	 DWORD PTR _w$[ebp], 0
  0004b	75 07		 jne	 SHORT $LN2@PMCCS_Add_

; 394  :             return (PMC_STATUS_ARGUMENT_NULL_ERROR);

  0004d	b8 fe ff ff ff	 mov	 eax, -2			; fffffffeH
  00052	eb 4b		 jmp	 SHORT $LN1@PMCCS_Add_
$LN2@PMCCS_Add_:

; 395  :         try

  00054	c7 45 fc 00 00
	00 00		 mov	 DWORD PTR __$EHRec$[ebp+12], 0

; 396  :         {
; 397  :             *w = PMC_Add_X_L(u, v);

  0005b	8b 45 10	 mov	 eax, DWORD PTR _v$[ebp+4]
  0005e	50		 push	 eax
  0005f	8b 4d 0c	 mov	 ecx, DWORD PTR _v$[ebp]
  00062	51		 push	 ecx
  00063	8b 55 08	 mov	 edx, DWORD PTR _u$[ebp]
  00066	52		 push	 edx
  00067	e8 00 00 00 00	 call	 ?PMC_Add_X_L@Internal@Core@Math@Palmtree@@YGPAU__tag_PMC_HANDLE_UINT@1234@PAU51234@_K@Z ; Palmtree::Math::Core::Internal::PMC_Add_X_L
  0006c	8b 4d 14	 mov	 ecx, DWORD PTR _w$[ebp]
  0006f	89 01		 mov	 DWORD PTR [ecx], eax

; 398  :             return (PMC_STATUS_OK);

  00071	33 c0		 xor	 eax, eax
  00073	eb 2a		 jmp	 SHORT $LN1@PMCCS_Add_
__catch$_PMCCS_Add_X_L@16$0:

; 399  :         }
; 400  :         catch (const Palmtree::Math::Core::Internal::Exception& ex)
; 401  :         {
; 402  :             return (ex.GetStatusCode());

  00075	8b 4d e8	 mov	 ecx, DWORD PTR _ex$3[ebp]
  00078	e8 00 00 00 00	 call	 ?GetStatusCode@Exception@Internal@Core@Math@Palmtree@@QBEHXZ ; Palmtree::Math::Core::Internal::Exception::GetStatusCode
  0007d	89 45 e0	 mov	 DWORD PTR $T2[ebp], eax
  00080	b8 00 00 00 00	 mov	 eax, $LN8@PMCCS_Add_
  00085	c3		 ret	 0

; 403  :         }

  00086	b8 00 00 00 00	 mov	 eax, __tryend$_PMCCS_Add_X_L@16$1
  0008b	c3		 ret	 0
__tryend$_PMCCS_Add_X_L@16$1:
  0008c	c7 45 fc ff ff
	ff ff		 mov	 DWORD PTR __$EHRec$[ebp+12], -1
  00093	eb 0a		 jmp	 SHORT $LN1@PMCCS_Add_
$LN8@PMCCS_Add_:
  00095	c7 45 fc ff ff
	ff ff		 mov	 DWORD PTR __$EHRec$[ebp+12], -1

; 399  :         }
; 400  :         catch (const Palmtree::Math::Core::Internal::Exception& ex)
; 401  :         {
; 402  :             return (ex.GetStatusCode());

  0009c	8b 45 e0	 mov	 eax, DWORD PTR $T2[ebp]
$LN1@PMCCS_Add_:

; 404  :     }

  0009f	52		 push	 edx
  000a0	8b cd		 mov	 ecx, ebp
  000a2	50		 push	 eax
  000a3	8d 15 00 00 00
	00		 lea	 edx, DWORD PTR $LN12@PMCCS_Add_
  000a9	e8 00 00 00 00	 call	 @_RTC_CheckStackVars@8
  000ae	58		 pop	 eax
  000af	5a		 pop	 edx
  000b0	8b 4d f4	 mov	 ecx, DWORD PTR __$EHRec$[ebp+4]
  000b3	64 89 0d 00 00
	00 00		 mov	 DWORD PTR fs:0, ecx
  000ba	59		 pop	 ecx
  000bb	5f		 pop	 edi
  000bc	5e		 pop	 esi
  000bd	5b		 pop	 ebx
  000be	83 c4 20	 add	 esp, 32			; 00000020H
  000c1	3b ec		 cmp	 ebp, esp
  000c3	e8 00 00 00 00	 call	 __RTC_CheckEsp
  000c8	8b e5		 mov	 esp, ebp
  000ca	5d		 pop	 ebp
  000cb	c2 10 00	 ret	 16			; 00000010H
  000ce	66 90		 npad	 2
$LN12@PMCCS_Add_:
  000d0	01 00 00 00	 DD	 1
  000d4	00 00 00 00	 DD	 $LN11@PMCCS_Add_
$LN11@PMCCS_Add_:
  000d8	e8 ff ff ff	 DD	 -24			; ffffffe8H
  000dc	04 00 00 00	 DD	 4
  000e0	00 00 00 00	 DD	 $LN9@PMCCS_Add_
$LN9@PMCCS_Add_:
  000e4	65		 DB	 101			; 00000065H
  000e5	78		 DB	 120			; 00000078H
  000e6	00		 DB	 0
_TEXT	ENDS
text$x	SEGMENT
__ehhandler$_PMCCS_Add_X_L@16:
  00000	8b 54 24 08	 mov	 edx, DWORD PTR [esp+8]
  00004	8d 42 0c	 lea	 eax, DWORD PTR [edx+12]
  00007	8b 4a dc	 mov	 ecx, DWORD PTR [edx-36]
  0000a	33 c8		 xor	 ecx, eax
  0000c	e8 00 00 00 00	 call	 @__security_check_cookie@4
  00011	b8 00 00 00 00	 mov	 eax, OFFSET __ehfuncinfo$_PMCCS_Add_X_L@16
  00016	e9 00 00 00 00	 jmp	 ___CxxFrameHandler3
text$x	ENDS
_PMCCS_Add_X_L@16 ENDP
; Function compile flags: /Odtp /RTCsu
; File z:\sources\lunor\repos\rougemeilland\palmtree.math.core.uint\palmtree.math.core.uint\pmc_interface_csharp.cpp
_TEXT	SEGMENT
$T2 = -32						; size = 4
_ex$3 = -24						; size = 4
__$EHRec$ = -16						; size = 16
_u$ = 8							; size = 4
_v$ = 12						; size = 4
_w$ = 16						; size = 4
_PMCCS_Add_X_I@12 PROC

; 377  :     {

  00000	55		 push	 ebp
  00001	8b ec		 mov	 ebp, esp
  00003	6a ff		 push	 -1
  00005	68 00 00 00 00	 push	 __ehhandler$_PMCCS_Add_X_I@12
  0000a	64 a1 00 00 00
	00		 mov	 eax, DWORD PTR fs:0
  00010	50		 push	 eax
  00011	51		 push	 ecx
  00012	83 ec 10	 sub	 esp, 16			; 00000010H
  00015	53		 push	 ebx
  00016	56		 push	 esi
  00017	57		 push	 edi
  00018	b8 cc cc cc cc	 mov	 eax, -858993460		; ccccccccH
  0001d	89 45 e0	 mov	 DWORD PTR [ebp-32], eax
  00020	89 45 e4	 mov	 DWORD PTR [ebp-28], eax
  00023	89 45 e8	 mov	 DWORD PTR [ebp-24], eax
  00026	89 45 ec	 mov	 DWORD PTR [ebp-20], eax
  00029	a1 00 00 00 00	 mov	 eax, DWORD PTR ___security_cookie
  0002e	33 c5		 xor	 eax, ebp
  00030	50		 push	 eax
  00031	8d 45 f4	 lea	 eax, DWORD PTR __$EHRec$[ebp+4]
  00034	64 a3 00 00 00
	00		 mov	 DWORD PTR fs:0, eax
  0003a	89 65 f0	 mov	 DWORD PTR __$EHRec$[ebp], esp
  0003d	b9 00 00 00 00	 mov	 ecx, OFFSET __C21BA676_pmc_interface_csharp@cpp
  00042	e8 00 00 00 00	 call	 @__CheckForDebuggerJustMyCode@4

; 378  :         if (w == nullptr)

  00047	83 7d 10 00	 cmp	 DWORD PTR _w$[ebp], 0
  0004b	75 07		 jne	 SHORT $LN2@PMCCS_Add_

; 379  :             return (PMC_STATUS_ARGUMENT_NULL_ERROR);

  0004d	b8 fe ff ff ff	 mov	 eax, -2			; fffffffeH
  00052	eb 47		 jmp	 SHORT $LN1@PMCCS_Add_
$LN2@PMCCS_Add_:

; 380  :         try

  00054	c7 45 fc 00 00
	00 00		 mov	 DWORD PTR __$EHRec$[ebp+12], 0

; 381  :         {
; 382  :             *w = PMC_Add_X_I(u, v);

  0005b	8b 45 0c	 mov	 eax, DWORD PTR _v$[ebp]
  0005e	50		 push	 eax
  0005f	8b 4d 08	 mov	 ecx, DWORD PTR _u$[ebp]
  00062	51		 push	 ecx
  00063	e8 00 00 00 00	 call	 ?PMC_Add_X_I@Internal@Core@Math@Palmtree@@YGPAU__tag_PMC_HANDLE_UINT@1234@PAU51234@I@Z ; Palmtree::Math::Core::Internal::PMC_Add_X_I
  00068	8b 55 10	 mov	 edx, DWORD PTR _w$[ebp]
  0006b	89 02		 mov	 DWORD PTR [edx], eax

; 383  :             return (PMC_STATUS_OK);

  0006d	33 c0		 xor	 eax, eax
  0006f	eb 2a		 jmp	 SHORT $LN1@PMCCS_Add_
__catch$_PMCCS_Add_X_I@12$0:

; 384  :         }
; 385  :         catch (const Palmtree::Math::Core::Internal::Exception& ex)
; 386  :         {
; 387  :             return (ex.GetStatusCode());

  00071	8b 4d e8	 mov	 ecx, DWORD PTR _ex$3[ebp]
  00074	e8 00 00 00 00	 call	 ?GetStatusCode@Exception@Internal@Core@Math@Palmtree@@QBEHXZ ; Palmtree::Math::Core::Internal::Exception::GetStatusCode
  00079	89 45 e0	 mov	 DWORD PTR $T2[ebp], eax
  0007c	b8 00 00 00 00	 mov	 eax, $LN8@PMCCS_Add_
  00081	c3		 ret	 0

; 388  :         }

  00082	b8 00 00 00 00	 mov	 eax, __tryend$_PMCCS_Add_X_I@12$1
  00087	c3		 ret	 0
__tryend$_PMCCS_Add_X_I@12$1:
  00088	c7 45 fc ff ff
	ff ff		 mov	 DWORD PTR __$EHRec$[ebp+12], -1
  0008f	eb 0a		 jmp	 SHORT $LN1@PMCCS_Add_
$LN8@PMCCS_Add_:
  00091	c7 45 fc ff ff
	ff ff		 mov	 DWORD PTR __$EHRec$[ebp+12], -1

; 384  :         }
; 385  :         catch (const Palmtree::Math::Core::Internal::Exception& ex)
; 386  :         {
; 387  :             return (ex.GetStatusCode());

  00098	8b 45 e0	 mov	 eax, DWORD PTR $T2[ebp]
$LN1@PMCCS_Add_:

; 389  :     }

  0009b	52		 push	 edx
  0009c	8b cd		 mov	 ecx, ebp
  0009e	50		 push	 eax
  0009f	8d 15 00 00 00
	00		 lea	 edx, DWORD PTR $LN12@PMCCS_Add_
  000a5	e8 00 00 00 00	 call	 @_RTC_CheckStackVars@8
  000aa	58		 pop	 eax
  000ab	5a		 pop	 edx
  000ac	8b 4d f4	 mov	 ecx, DWORD PTR __$EHRec$[ebp+4]
  000af	64 89 0d 00 00
	00 00		 mov	 DWORD PTR fs:0, ecx
  000b6	59		 pop	 ecx
  000b7	5f		 pop	 edi
  000b8	5e		 pop	 esi
  000b9	5b		 pop	 ebx
  000ba	83 c4 20	 add	 esp, 32			; 00000020H
  000bd	3b ec		 cmp	 ebp, esp
  000bf	e8 00 00 00 00	 call	 __RTC_CheckEsp
  000c4	8b e5		 mov	 esp, ebp
  000c6	5d		 pop	 ebp
  000c7	c2 0c 00	 ret	 12			; 0000000cH
  000ca	66 90		 npad	 2
$LN12@PMCCS_Add_:
  000cc	01 00 00 00	 DD	 1
  000d0	00 00 00 00	 DD	 $LN11@PMCCS_Add_
$LN11@PMCCS_Add_:
  000d4	e8 ff ff ff	 DD	 -24			; ffffffe8H
  000d8	04 00 00 00	 DD	 4
  000dc	00 00 00 00	 DD	 $LN9@PMCCS_Add_
$LN9@PMCCS_Add_:
  000e0	65		 DB	 101			; 00000065H
  000e1	78		 DB	 120			; 00000078H
  000e2	00		 DB	 0
_TEXT	ENDS
text$x	SEGMENT
__ehhandler$_PMCCS_Add_X_I@12:
  00000	8b 54 24 08	 mov	 edx, DWORD PTR [esp+8]
  00004	8d 42 0c	 lea	 eax, DWORD PTR [edx+12]
  00007	8b 4a dc	 mov	 ecx, DWORD PTR [edx-36]
  0000a	33 c8		 xor	 ecx, eax
  0000c	e8 00 00 00 00	 call	 @__security_check_cookie@4
  00011	b8 00 00 00 00	 mov	 eax, OFFSET __ehfuncinfo$_PMCCS_Add_X_I@12
  00016	e9 00 00 00 00	 jmp	 ___CxxFrameHandler3
text$x	ENDS
_PMCCS_Add_X_I@12 ENDP
; Function compile flags: /Odtp /RTCsu
; File z:\sources\lunor\repos\rougemeilland\palmtree.math.core.uint\palmtree.math.core.uint\pmc_interface_csharp.cpp
_TEXT	SEGMENT
$T2 = -32						; size = 4
_ex$3 = -24						; size = 4
__$EHRec$ = -16						; size = 16
_u$ = 8							; size = 8
_v$ = 16						; size = 4
_w$ = 20						; size = 4
_PMCCS_Add_L_X@16 PROC

; 362  :     {

  00000	55		 push	 ebp
  00001	8b ec		 mov	 ebp, esp
  00003	6a ff		 push	 -1
  00005	68 00 00 00 00	 push	 __ehhandler$_PMCCS_Add_L_X@16
  0000a	64 a1 00 00 00
	00		 mov	 eax, DWORD PTR fs:0
  00010	50		 push	 eax
  00011	51		 push	 ecx
  00012	83 ec 10	 sub	 esp, 16			; 00000010H
  00015	53		 push	 ebx
  00016	56		 push	 esi
  00017	57		 push	 edi
  00018	b8 cc cc cc cc	 mov	 eax, -858993460		; ccccccccH
  0001d	89 45 e0	 mov	 DWORD PTR [ebp-32], eax
  00020	89 45 e4	 mov	 DWORD PTR [ebp-28], eax
  00023	89 45 e8	 mov	 DWORD PTR [ebp-24], eax
  00026	89 45 ec	 mov	 DWORD PTR [ebp-20], eax
  00029	a1 00 00 00 00	 mov	 eax, DWORD PTR ___security_cookie
  0002e	33 c5		 xor	 eax, ebp
  00030	50		 push	 eax
  00031	8d 45 f4	 lea	 eax, DWORD PTR __$EHRec$[ebp+4]
  00034	64 a3 00 00 00
	00		 mov	 DWORD PTR fs:0, eax
  0003a	89 65 f0	 mov	 DWORD PTR __$EHRec$[ebp], esp
  0003d	b9 00 00 00 00	 mov	 ecx, OFFSET __C21BA676_pmc_interface_csharp@cpp
  00042	e8 00 00 00 00	 call	 @__CheckForDebuggerJustMyCode@4

; 363  :         if (w == nullptr)

  00047	83 7d 14 00	 cmp	 DWORD PTR _w$[ebp], 0
  0004b	75 07		 jne	 SHORT $LN2@PMCCS_Add_

; 364  :             return (PMC_STATUS_ARGUMENT_NULL_ERROR);

  0004d	b8 fe ff ff ff	 mov	 eax, -2			; fffffffeH
  00052	eb 4b		 jmp	 SHORT $LN1@PMCCS_Add_
$LN2@PMCCS_Add_:

; 365  :         try

  00054	c7 45 fc 00 00
	00 00		 mov	 DWORD PTR __$EHRec$[ebp+12], 0

; 366  :         {
; 367  :             *w = PMC_Add_L_X(u, v);

  0005b	8b 45 10	 mov	 eax, DWORD PTR _v$[ebp]
  0005e	50		 push	 eax
  0005f	8b 4d 0c	 mov	 ecx, DWORD PTR _u$[ebp+4]
  00062	51		 push	 ecx
  00063	8b 55 08	 mov	 edx, DWORD PTR _u$[ebp]
  00066	52		 push	 edx
  00067	e8 00 00 00 00	 call	 ?PMC_Add_L_X@Internal@Core@Math@Palmtree@@YGPAU__tag_PMC_HANDLE_UINT@1234@_KPAU51234@@Z ; Palmtree::Math::Core::Internal::PMC_Add_L_X
  0006c	8b 4d 14	 mov	 ecx, DWORD PTR _w$[ebp]
  0006f	89 01		 mov	 DWORD PTR [ecx], eax

; 368  :             return (PMC_STATUS_OK);

  00071	33 c0		 xor	 eax, eax
  00073	eb 2a		 jmp	 SHORT $LN1@PMCCS_Add_
__catch$_PMCCS_Add_L_X@16$0:

; 369  :         }
; 370  :         catch (const Palmtree::Math::Core::Internal::Exception& ex)
; 371  :         {
; 372  :             return (ex.GetStatusCode());

  00075	8b 4d e8	 mov	 ecx, DWORD PTR _ex$3[ebp]
  00078	e8 00 00 00 00	 call	 ?GetStatusCode@Exception@Internal@Core@Math@Palmtree@@QBEHXZ ; Palmtree::Math::Core::Internal::Exception::GetStatusCode
  0007d	89 45 e0	 mov	 DWORD PTR $T2[ebp], eax
  00080	b8 00 00 00 00	 mov	 eax, $LN8@PMCCS_Add_
  00085	c3		 ret	 0

; 373  :         }

  00086	b8 00 00 00 00	 mov	 eax, __tryend$_PMCCS_Add_L_X@16$1
  0008b	c3		 ret	 0
__tryend$_PMCCS_Add_L_X@16$1:
  0008c	c7 45 fc ff ff
	ff ff		 mov	 DWORD PTR __$EHRec$[ebp+12], -1
  00093	eb 0a		 jmp	 SHORT $LN1@PMCCS_Add_
$LN8@PMCCS_Add_:
  00095	c7 45 fc ff ff
	ff ff		 mov	 DWORD PTR __$EHRec$[ebp+12], -1

; 369  :         }
; 370  :         catch (const Palmtree::Math::Core::Internal::Exception& ex)
; 371  :         {
; 372  :             return (ex.GetStatusCode());

  0009c	8b 45 e0	 mov	 eax, DWORD PTR $T2[ebp]
$LN1@PMCCS_Add_:

; 374  :     }

  0009f	52		 push	 edx
  000a0	8b cd		 mov	 ecx, ebp
  000a2	50		 push	 eax
  000a3	8d 15 00 00 00
	00		 lea	 edx, DWORD PTR $LN12@PMCCS_Add_
  000a9	e8 00 00 00 00	 call	 @_RTC_CheckStackVars@8
  000ae	58		 pop	 eax
  000af	5a		 pop	 edx
  000b0	8b 4d f4	 mov	 ecx, DWORD PTR __$EHRec$[ebp+4]
  000b3	64 89 0d 00 00
	00 00		 mov	 DWORD PTR fs:0, ecx
  000ba	59		 pop	 ecx
  000bb	5f		 pop	 edi
  000bc	5e		 pop	 esi
  000bd	5b		 pop	 ebx
  000be	83 c4 20	 add	 esp, 32			; 00000020H
  000c1	3b ec		 cmp	 ebp, esp
  000c3	e8 00 00 00 00	 call	 __RTC_CheckEsp
  000c8	8b e5		 mov	 esp, ebp
  000ca	5d		 pop	 ebp
  000cb	c2 10 00	 ret	 16			; 00000010H
  000ce	66 90		 npad	 2
$LN12@PMCCS_Add_:
  000d0	01 00 00 00	 DD	 1
  000d4	00 00 00 00	 DD	 $LN11@PMCCS_Add_
$LN11@PMCCS_Add_:
  000d8	e8 ff ff ff	 DD	 -24			; ffffffe8H
  000dc	04 00 00 00	 DD	 4
  000e0	00 00 00 00	 DD	 $LN9@PMCCS_Add_
$LN9@PMCCS_Add_:
  000e4	65		 DB	 101			; 00000065H
  000e5	78		 DB	 120			; 00000078H
  000e6	00		 DB	 0
_TEXT	ENDS
text$x	SEGMENT
__ehhandler$_PMCCS_Add_L_X@16:
  00000	8b 54 24 08	 mov	 edx, DWORD PTR [esp+8]
  00004	8d 42 0c	 lea	 eax, DWORD PTR [edx+12]
  00007	8b 4a dc	 mov	 ecx, DWORD PTR [edx-36]
  0000a	33 c8		 xor	 ecx, eax
  0000c	e8 00 00 00 00	 call	 @__security_check_cookie@4
  00011	b8 00 00 00 00	 mov	 eax, OFFSET __ehfuncinfo$_PMCCS_Add_L_X@16
  00016	e9 00 00 00 00	 jmp	 ___CxxFrameHandler3
text$x	ENDS
_PMCCS_Add_L_X@16 ENDP
; Function compile flags: /Odtp /RTCsu
; File z:\sources\lunor\repos\rougemeilland\palmtree.math.core.uint\palmtree.math.core.uint\pmc_interface_csharp.cpp
_TEXT	SEGMENT
$T2 = -32						; size = 4
_ex$3 = -24						; size = 4
__$EHRec$ = -16						; size = 16
_u$ = 8							; size = 4
_v$ = 12						; size = 4
_w$ = 16						; size = 4
_PMCCS_Add_I_X@12 PROC

; 347  :     {

  00000	55		 push	 ebp
  00001	8b ec		 mov	 ebp, esp
  00003	6a ff		 push	 -1
  00005	68 00 00 00 00	 push	 __ehhandler$_PMCCS_Add_I_X@12
  0000a	64 a1 00 00 00
	00		 mov	 eax, DWORD PTR fs:0
  00010	50		 push	 eax
  00011	51		 push	 ecx
  00012	83 ec 10	 sub	 esp, 16			; 00000010H
  00015	53		 push	 ebx
  00016	56		 push	 esi
  00017	57		 push	 edi
  00018	b8 cc cc cc cc	 mov	 eax, -858993460		; ccccccccH
  0001d	89 45 e0	 mov	 DWORD PTR [ebp-32], eax
  00020	89 45 e4	 mov	 DWORD PTR [ebp-28], eax
  00023	89 45 e8	 mov	 DWORD PTR [ebp-24], eax
  00026	89 45 ec	 mov	 DWORD PTR [ebp-20], eax
  00029	a1 00 00 00 00	 mov	 eax, DWORD PTR ___security_cookie
  0002e	33 c5		 xor	 eax, ebp
  00030	50		 push	 eax
  00031	8d 45 f4	 lea	 eax, DWORD PTR __$EHRec$[ebp+4]
  00034	64 a3 00 00 00
	00		 mov	 DWORD PTR fs:0, eax
  0003a	89 65 f0	 mov	 DWORD PTR __$EHRec$[ebp], esp
  0003d	b9 00 00 00 00	 mov	 ecx, OFFSET __C21BA676_pmc_interface_csharp@cpp
  00042	e8 00 00 00 00	 call	 @__CheckForDebuggerJustMyCode@4

; 348  :         if (w == nullptr)

  00047	83 7d 10 00	 cmp	 DWORD PTR _w$[ebp], 0
  0004b	75 07		 jne	 SHORT $LN2@PMCCS_Add_

; 349  :             return (PMC_STATUS_ARGUMENT_NULL_ERROR);

  0004d	b8 fe ff ff ff	 mov	 eax, -2			; fffffffeH
  00052	eb 47		 jmp	 SHORT $LN1@PMCCS_Add_
$LN2@PMCCS_Add_:

; 350  :         try

  00054	c7 45 fc 00 00
	00 00		 mov	 DWORD PTR __$EHRec$[ebp+12], 0

; 351  :         {
; 352  :             *w = PMC_Add_I_X(u, v);

  0005b	8b 45 0c	 mov	 eax, DWORD PTR _v$[ebp]
  0005e	50		 push	 eax
  0005f	8b 4d 08	 mov	 ecx, DWORD PTR _u$[ebp]
  00062	51		 push	 ecx
  00063	e8 00 00 00 00	 call	 ?PMC_Add_I_X@Internal@Core@Math@Palmtree@@YGPAU__tag_PMC_HANDLE_UINT@1234@IPAU51234@@Z ; Palmtree::Math::Core::Internal::PMC_Add_I_X
  00068	8b 55 10	 mov	 edx, DWORD PTR _w$[ebp]
  0006b	89 02		 mov	 DWORD PTR [edx], eax

; 353  :             return (PMC_STATUS_OK);

  0006d	33 c0		 xor	 eax, eax
  0006f	eb 2a		 jmp	 SHORT $LN1@PMCCS_Add_
__catch$_PMCCS_Add_I_X@12$0:

; 354  :         }
; 355  :         catch (const Palmtree::Math::Core::Internal::Exception& ex)
; 356  :         {
; 357  :             return (ex.GetStatusCode());

  00071	8b 4d e8	 mov	 ecx, DWORD PTR _ex$3[ebp]
  00074	e8 00 00 00 00	 call	 ?GetStatusCode@Exception@Internal@Core@Math@Palmtree@@QBEHXZ ; Palmtree::Math::Core::Internal::Exception::GetStatusCode
  00079	89 45 e0	 mov	 DWORD PTR $T2[ebp], eax
  0007c	b8 00 00 00 00	 mov	 eax, $LN8@PMCCS_Add_
  00081	c3		 ret	 0

; 358  :         }

  00082	b8 00 00 00 00	 mov	 eax, __tryend$_PMCCS_Add_I_X@12$1
  00087	c3		 ret	 0
__tryend$_PMCCS_Add_I_X@12$1:
  00088	c7 45 fc ff ff
	ff ff		 mov	 DWORD PTR __$EHRec$[ebp+12], -1
  0008f	eb 0a		 jmp	 SHORT $LN1@PMCCS_Add_
$LN8@PMCCS_Add_:
  00091	c7 45 fc ff ff
	ff ff		 mov	 DWORD PTR __$EHRec$[ebp+12], -1

; 354  :         }
; 355  :         catch (const Palmtree::Math::Core::Internal::Exception& ex)
; 356  :         {
; 357  :             return (ex.GetStatusCode());

  00098	8b 45 e0	 mov	 eax, DWORD PTR $T2[ebp]
$LN1@PMCCS_Add_:

; 359  :     }

  0009b	52		 push	 edx
  0009c	8b cd		 mov	 ecx, ebp
  0009e	50		 push	 eax
  0009f	8d 15 00 00 00
	00		 lea	 edx, DWORD PTR $LN12@PMCCS_Add_
  000a5	e8 00 00 00 00	 call	 @_RTC_CheckStackVars@8
  000aa	58		 pop	 eax
  000ab	5a		 pop	 edx
  000ac	8b 4d f4	 mov	 ecx, DWORD PTR __$EHRec$[ebp+4]
  000af	64 89 0d 00 00
	00 00		 mov	 DWORD PTR fs:0, ecx
  000b6	59		 pop	 ecx
  000b7	5f		 pop	 edi
  000b8	5e		 pop	 esi
  000b9	5b		 pop	 ebx
  000ba	83 c4 20	 add	 esp, 32			; 00000020H
  000bd	3b ec		 cmp	 ebp, esp
  000bf	e8 00 00 00 00	 call	 __RTC_CheckEsp
  000c4	8b e5		 mov	 esp, ebp
  000c6	5d		 pop	 ebp
  000c7	c2 0c 00	 ret	 12			; 0000000cH
  000ca	66 90		 npad	 2
$LN12@PMCCS_Add_:
  000cc	01 00 00 00	 DD	 1
  000d0	00 00 00 00	 DD	 $LN11@PMCCS_Add_
$LN11@PMCCS_Add_:
  000d4	e8 ff ff ff	 DD	 -24			; ffffffe8H
  000d8	04 00 00 00	 DD	 4
  000dc	00 00 00 00	 DD	 $LN9@PMCCS_Add_
$LN9@PMCCS_Add_:
  000e0	65		 DB	 101			; 00000065H
  000e1	78		 DB	 120			; 00000078H
  000e2	00		 DB	 0
_TEXT	ENDS
text$x	SEGMENT
__ehhandler$_PMCCS_Add_I_X@12:
  00000	8b 54 24 08	 mov	 edx, DWORD PTR [esp+8]
  00004	8d 42 0c	 lea	 eax, DWORD PTR [edx+12]
  00007	8b 4a dc	 mov	 ecx, DWORD PTR [edx-36]
  0000a	33 c8		 xor	 ecx, eax
  0000c	e8 00 00 00 00	 call	 @__security_check_cookie@4
  00011	b8 00 00 00 00	 mov	 eax, OFFSET __ehfuncinfo$_PMCCS_Add_I_X@12
  00016	e9 00 00 00 00	 jmp	 ___CxxFrameHandler3
text$x	ENDS
_PMCCS_Add_I_X@12 ENDP
; Function compile flags: /Odtp /RTCsu
; File z:\sources\lunor\repos\rougemeilland\palmtree.math.core.uint\palmtree.math.core.uint\pmc_interface_csharp.cpp
_TEXT	SEGMENT
$T2 = -36						; size = 4
_ex$3 = -28						; size = 4
_err$4 = -20						; size = 4
__$EHRec$ = -16						; size = 16
_source$ = 8						; size = 4
_number_styles$ = 12					; size = 4
_format_option$ = 16					; size = 4
_o$ = 20						; size = 4
_result$ = 24						; size = 4
_PMCCS_TryParse@20 PROC

; 330  :     {

  00000	55		 push	 ebp
  00001	8b ec		 mov	 ebp, esp
  00003	6a ff		 push	 -1
  00005	68 00 00 00 00	 push	 __ehhandler$_PMCCS_TryParse@20
  0000a	64 a1 00 00 00
	00		 mov	 eax, DWORD PTR fs:0
  00010	50		 push	 eax
  00011	51		 push	 ecx
  00012	83 ec 14	 sub	 esp, 20			; 00000014H
  00015	53		 push	 ebx
  00016	56		 push	 esi
  00017	57		 push	 edi
  00018	b8 cc cc cc cc	 mov	 eax, -858993460		; ccccccccH
  0001d	89 45 dc	 mov	 DWORD PTR [ebp-36], eax
  00020	89 45 e0	 mov	 DWORD PTR [ebp-32], eax
  00023	89 45 e4	 mov	 DWORD PTR [ebp-28], eax
  00026	89 45 e8	 mov	 DWORD PTR [ebp-24], eax
  00029	89 45 ec	 mov	 DWORD PTR [ebp-20], eax
  0002c	a1 00 00 00 00	 mov	 eax, DWORD PTR ___security_cookie
  00031	33 c5		 xor	 eax, ebp
  00033	50		 push	 eax
  00034	8d 45 f4	 lea	 eax, DWORD PTR __$EHRec$[ebp+4]
  00037	64 a3 00 00 00
	00		 mov	 DWORD PTR fs:0, eax
  0003d	89 65 f0	 mov	 DWORD PTR __$EHRec$[ebp], esp
  00040	b9 00 00 00 00	 mov	 ecx, OFFSET __C21BA676_pmc_interface_csharp@cpp
  00045	e8 00 00 00 00	 call	 @__CheckForDebuggerJustMyCode@4

; 331  :         if (o == nullptr)

  0004a	83 7d 14 00	 cmp	 DWORD PTR _o$[ebp], 0
  0004e	75 07		 jne	 SHORT $LN2@PMCCS_TryP

; 332  :             return (PMC_STATUS_ARGUMENT_NULL_ERROR);

  00050	b8 fe ff ff ff	 mov	 eax, -2			; fffffffeH
  00055	eb 5c		 jmp	 SHORT $LN1@PMCCS_TryP
$LN2@PMCCS_TryP:

; 333  :         try

  00057	c7 45 fc 00 00
	00 00		 mov	 DWORD PTR __$EHRec$[ebp+12], 0

; 334  :         {
; 335  :             PMC_STATUS_CODE err = PMC_TryParse(source, number_styles, format_option, o, result);

  0005e	8b 45 18	 mov	 eax, DWORD PTR _result$[ebp]
  00061	50		 push	 eax
  00062	8b 4d 14	 mov	 ecx, DWORD PTR _o$[ebp]
  00065	51		 push	 ecx
  00066	8b 55 10	 mov	 edx, DWORD PTR _format_option$[ebp]
  00069	52		 push	 edx
  0006a	8b 45 0c	 mov	 eax, DWORD PTR _number_styles$[ebp]
  0006d	50		 push	 eax
  0006e	8b 4d 08	 mov	 ecx, DWORD PTR _source$[ebp]
  00071	51		 push	 ecx
  00072	e8 00 00 00 00	 call	 ?PMC_TryParse@Internal@Core@Math@Palmtree@@YGHPB_WHPBU__tag_PMC_NUMBER_FORMAT_INFO@1234@PAPAU__tag_PMC_HANDLE_UINT@1234@PAI@Z ; Palmtree::Math::Core::Internal::PMC_TryParse
  00077	89 45 ec	 mov	 DWORD PTR _err$4[ebp], eax

; 336  :             if (err != PMC_STATUS_OK)

  0007a	83 7d ec 00	 cmp	 DWORD PTR _err$4[ebp], 0
  0007e	74 05		 je	 SHORT $LN4@PMCCS_TryP

; 337  :                 return (err);

  00080	8b 45 ec	 mov	 eax, DWORD PTR _err$4[ebp]
  00083	eb 2e		 jmp	 SHORT $LN1@PMCCS_TryP
$LN4@PMCCS_TryP:

; 338  :             return (PMC_STATUS_OK);

  00085	33 c0		 xor	 eax, eax
  00087	eb 2a		 jmp	 SHORT $LN1@PMCCS_TryP
__catch$_PMCCS_TryParse@20$0:

; 339  :         }
; 340  :         catch (const Palmtree::Math::Core::Internal::Exception& ex)
; 341  :         {
; 342  :             return (ex.GetStatusCode());

  00089	8b 4d e4	 mov	 ecx, DWORD PTR _ex$3[ebp]
  0008c	e8 00 00 00 00	 call	 ?GetStatusCode@Exception@Internal@Core@Math@Palmtree@@QBEHXZ ; Palmtree::Math::Core::Internal::Exception::GetStatusCode
  00091	89 45 dc	 mov	 DWORD PTR $T2[ebp], eax
  00094	b8 00 00 00 00	 mov	 eax, $LN9@PMCCS_TryP
  00099	c3		 ret	 0

; 343  :         }

  0009a	b8 00 00 00 00	 mov	 eax, __tryend$_PMCCS_TryParse@20$1
  0009f	c3		 ret	 0
__tryend$_PMCCS_TryParse@20$1:
  000a0	c7 45 fc ff ff
	ff ff		 mov	 DWORD PTR __$EHRec$[ebp+12], -1
  000a7	eb 0a		 jmp	 SHORT $LN1@PMCCS_TryP
$LN9@PMCCS_TryP:
  000a9	c7 45 fc ff ff
	ff ff		 mov	 DWORD PTR __$EHRec$[ebp+12], -1

; 339  :         }
; 340  :         catch (const Palmtree::Math::Core::Internal::Exception& ex)
; 341  :         {
; 342  :             return (ex.GetStatusCode());

  000b0	8b 45 dc	 mov	 eax, DWORD PTR $T2[ebp]
$LN1@PMCCS_TryP:

; 344  :     }

  000b3	52		 push	 edx
  000b4	8b cd		 mov	 ecx, ebp
  000b6	50		 push	 eax
  000b7	8d 15 00 00 00
	00		 lea	 edx, DWORD PTR $LN13@PMCCS_TryP
  000bd	e8 00 00 00 00	 call	 @_RTC_CheckStackVars@8
  000c2	58		 pop	 eax
  000c3	5a		 pop	 edx
  000c4	8b 4d f4	 mov	 ecx, DWORD PTR __$EHRec$[ebp+4]
  000c7	64 89 0d 00 00
	00 00		 mov	 DWORD PTR fs:0, ecx
  000ce	59		 pop	 ecx
  000cf	5f		 pop	 edi
  000d0	5e		 pop	 esi
  000d1	5b		 pop	 ebx
  000d2	83 c4 24	 add	 esp, 36			; 00000024H
  000d5	3b ec		 cmp	 ebp, esp
  000d7	e8 00 00 00 00	 call	 __RTC_CheckEsp
  000dc	8b e5		 mov	 esp, ebp
  000de	5d		 pop	 ebp
  000df	c2 14 00	 ret	 20			; 00000014H
  000e2	66 90		 npad	 2
$LN13@PMCCS_TryP:
  000e4	01 00 00 00	 DD	 1
  000e8	00 00 00 00	 DD	 $LN12@PMCCS_TryP
$LN12@PMCCS_TryP:
  000ec	e4 ff ff ff	 DD	 -28			; ffffffe4H
  000f0	04 00 00 00	 DD	 4
  000f4	00 00 00 00	 DD	 $LN10@PMCCS_TryP
$LN10@PMCCS_TryP:
  000f8	65		 DB	 101			; 00000065H
  000f9	78		 DB	 120			; 00000078H
  000fa	00		 DB	 0
_TEXT	ENDS
text$x	SEGMENT
__ehhandler$_PMCCS_TryParse@20:
  00000	8b 54 24 08	 mov	 edx, DWORD PTR [esp+8]
  00004	8d 42 0c	 lea	 eax, DWORD PTR [edx+12]
  00007	8b 4a d8	 mov	 ecx, DWORD PTR [edx-40]
  0000a	33 c8		 xor	 ecx, eax
  0000c	e8 00 00 00 00	 call	 @__security_check_cookie@4
  00011	b8 00 00 00 00	 mov	 eax, OFFSET __ehfuncinfo$_PMCCS_TryParse@20
  00016	e9 00 00 00 00	 jmp	 ___CxxFrameHandler3
text$x	ENDS
_PMCCS_TryParse@20 ENDP
; Function compile flags: /Odtp /RTCsu
; File z:\sources\lunor\repos\rougemeilland\palmtree.math.core.uint\palmtree.math.core.uint\pmc_interface_csharp.cpp
_TEXT	SEGMENT
$T2 = -48						; size = 4
_ex$3 = -40						; size = 4
_err$4 = -32						; size = 4
_result$5 = -24						; size = 4
__$EHRec$ = -16						; size = 16
_source$ = 8						; size = 4
_number_styles$ = 12					; size = 4
_format_option$ = 16					; size = 4
_o$ = 20						; size = 4
_PMCCS_Parse@16 PROC

; 307  :     {

  00000	55		 push	 ebp
  00001	8b ec		 mov	 ebp, esp
  00003	6a ff		 push	 -1
  00005	68 00 00 00 00	 push	 __ehhandler$_PMCCS_Parse@16
  0000a	64 a1 00 00 00
	00		 mov	 eax, DWORD PTR fs:0
  00010	50		 push	 eax
  00011	51		 push	 ecx
  00012	83 ec 20	 sub	 esp, 32			; 00000020H
  00015	53		 push	 ebx
  00016	56		 push	 esi
  00017	57		 push	 edi
  00018	b8 cc cc cc cc	 mov	 eax, -858993460		; ccccccccH
  0001d	89 45 d0	 mov	 DWORD PTR [ebp-48], eax
  00020	89 45 d4	 mov	 DWORD PTR [ebp-44], eax
  00023	89 45 d8	 mov	 DWORD PTR [ebp-40], eax
  00026	89 45 dc	 mov	 DWORD PTR [ebp-36], eax
  00029	89 45 e0	 mov	 DWORD PTR [ebp-32], eax
  0002c	89 45 e4	 mov	 DWORD PTR [ebp-28], eax
  0002f	89 45 e8	 mov	 DWORD PTR [ebp-24], eax
  00032	89 45 ec	 mov	 DWORD PTR [ebp-20], eax
  00035	a1 00 00 00 00	 mov	 eax, DWORD PTR ___security_cookie
  0003a	33 c5		 xor	 eax, ebp
  0003c	50		 push	 eax
  0003d	8d 45 f4	 lea	 eax, DWORD PTR __$EHRec$[ebp+4]
  00040	64 a3 00 00 00
	00		 mov	 DWORD PTR fs:0, eax
  00046	89 65 f0	 mov	 DWORD PTR __$EHRec$[ebp], esp
  00049	b9 00 00 00 00	 mov	 ecx, OFFSET __C21BA676_pmc_interface_csharp@cpp
  0004e	e8 00 00 00 00	 call	 @__CheckForDebuggerJustMyCode@4

; 308  :         if (o == nullptr)

  00053	83 7d 14 00	 cmp	 DWORD PTR _o$[ebp], 0
  00057	75 07		 jne	 SHORT $LN2@PMCCS_Pars

; 309  :             return (PMC_STATUS_ARGUMENT_NULL_ERROR);

  00059	b8 fe ff ff ff	 mov	 eax, -2			; fffffffeH
  0005e	eb 6e		 jmp	 SHORT $LN1@PMCCS_Pars
$LN2@PMCCS_Pars:

; 310  :         try

  00060	c7 45 fc 00 00
	00 00		 mov	 DWORD PTR __$EHRec$[ebp+12], 0

; 311  :         {
; 312  :             _UINT32_T result;
; 313  :             PMC_STATUS_CODE err = PMC_TryParse(source, number_styles | PMC_NUMBER_STYLE_ALLOW_EXCEPTION_THROWING, format_option, o, &result);

  00067	8d 45 e8	 lea	 eax, DWORD PTR _result$5[ebp]
  0006a	50		 push	 eax
  0006b	8b 4d 14	 mov	 ecx, DWORD PTR _o$[ebp]
  0006e	51		 push	 ecx
  0006f	8b 55 10	 mov	 edx, DWORD PTR _format_option$[ebp]
  00072	52		 push	 edx
  00073	8b 45 0c	 mov	 eax, DWORD PTR _number_styles$[ebp]
  00076	0d 00 00 00 02	 or	 eax, 33554432		; 02000000H
  0007b	50		 push	 eax
  0007c	8b 4d 08	 mov	 ecx, DWORD PTR _source$[ebp]
  0007f	51		 push	 ecx
  00080	e8 00 00 00 00	 call	 ?PMC_TryParse@Internal@Core@Math@Palmtree@@YGHPB_WHPBU__tag_PMC_NUMBER_FORMAT_INFO@1234@PAPAU__tag_PMC_HANDLE_UINT@1234@PAI@Z ; Palmtree::Math::Core::Internal::PMC_TryParse
  00085	89 45 e0	 mov	 DWORD PTR _err$4[ebp], eax

; 314  :             if (err != PMC_STATUS_OK)

  00088	83 7d e0 00	 cmp	 DWORD PTR _err$4[ebp], 0
  0008c	74 05		 je	 SHORT $LN4@PMCCS_Pars

; 315  :                 return (err);

  0008e	8b 45 e0	 mov	 eax, DWORD PTR _err$4[ebp]
  00091	eb 3b		 jmp	 SHORT $LN1@PMCCS_Pars
$LN4@PMCCS_Pars:

; 316  :             if (!result)

  00093	83 7d e8 00	 cmp	 DWORD PTR _result$5[ebp], 0
  00097	75 07		 jne	 SHORT $LN5@PMCCS_Pars

; 317  :             {
; 318  :                 // [gB
; 319  :                 return (PMC_STATUS_INTERNAL_ERROR);

  00099	b8 00 ff ff ff	 mov	 eax, -256		; ffffff00H
  0009e	eb 2e		 jmp	 SHORT $LN1@PMCCS_Pars
$LN5@PMCCS_Pars:

; 320  :             }
; 321  :             return (PMC_STATUS_OK);

  000a0	33 c0		 xor	 eax, eax
  000a2	eb 2a		 jmp	 SHORT $LN1@PMCCS_Pars
__catch$_PMCCS_Parse@16$0:

; 322  :         }
; 323  :         catch (const Palmtree::Math::Core::Internal::Exception& ex)
; 324  :         {
; 325  :             return (ex.GetStatusCode());

  000a4	8b 4d d8	 mov	 ecx, DWORD PTR _ex$3[ebp]
  000a7	e8 00 00 00 00	 call	 ?GetStatusCode@Exception@Internal@Core@Math@Palmtree@@QBEHXZ ; Palmtree::Math::Core::Internal::Exception::GetStatusCode
  000ac	89 45 d0	 mov	 DWORD PTR $T2[ebp], eax
  000af	b8 00 00 00 00	 mov	 eax, $LN10@PMCCS_Pars
  000b4	c3		 ret	 0

; 326  :         }

  000b5	b8 00 00 00 00	 mov	 eax, __tryend$_PMCCS_Parse@16$1
  000ba	c3		 ret	 0
__tryend$_PMCCS_Parse@16$1:
  000bb	c7 45 fc ff ff
	ff ff		 mov	 DWORD PTR __$EHRec$[ebp+12], -1
  000c2	eb 0a		 jmp	 SHORT $LN1@PMCCS_Pars
$LN10@PMCCS_Pars:
  000c4	c7 45 fc ff ff
	ff ff		 mov	 DWORD PTR __$EHRec$[ebp+12], -1

; 322  :         }
; 323  :         catch (const Palmtree::Math::Core::Internal::Exception& ex)
; 324  :         {
; 325  :             return (ex.GetStatusCode());

  000cb	8b 45 d0	 mov	 eax, DWORD PTR $T2[ebp]
$LN1@PMCCS_Pars:

; 327  :     }

  000ce	52		 push	 edx
  000cf	8b cd		 mov	 ecx, ebp
  000d1	50		 push	 eax
  000d2	8d 15 00 00 00
	00		 lea	 edx, DWORD PTR $LN15@PMCCS_Pars
  000d8	e8 00 00 00 00	 call	 @_RTC_CheckStackVars@8
  000dd	58		 pop	 eax
  000de	5a		 pop	 edx
  000df	8b 4d f4	 mov	 ecx, DWORD PTR __$EHRec$[ebp+4]
  000e2	64 89 0d 00 00
	00 00		 mov	 DWORD PTR fs:0, ecx
  000e9	59		 pop	 ecx
  000ea	5f		 pop	 edi
  000eb	5e		 pop	 esi
  000ec	5b		 pop	 ebx
  000ed	83 c4 30	 add	 esp, 48			; 00000030H
  000f0	3b ec		 cmp	 ebp, esp
  000f2	e8 00 00 00 00	 call	 __RTC_CheckEsp
  000f7	8b e5		 mov	 esp, ebp
  000f9	5d		 pop	 ebp
  000fa	c2 10 00	 ret	 16			; 00000010H
  000fd	0f 1f 00	 npad	 3
$LN15@PMCCS_Pars:
  00100	02 00 00 00	 DD	 2
  00104	00 00 00 00	 DD	 $LN14@PMCCS_Pars
$LN14@PMCCS_Pars:
  00108	e8 ff ff ff	 DD	 -24			; ffffffe8H
  0010c	04 00 00 00	 DD	 4
  00110	00 00 00 00	 DD	 $LN11@PMCCS_Pars
  00114	d8 ff ff ff	 DD	 -40			; ffffffd8H
  00118	04 00 00 00	 DD	 4
  0011c	00 00 00 00	 DD	 $LN12@PMCCS_Pars
$LN12@PMCCS_Pars:
  00120	65		 DB	 101			; 00000065H
  00121	78		 DB	 120			; 00000078H
  00122	00		 DB	 0
$LN11@PMCCS_Pars:
  00123	72		 DB	 114			; 00000072H
  00124	65		 DB	 101			; 00000065H
  00125	73		 DB	 115			; 00000073H
  00126	75		 DB	 117			; 00000075H
  00127	6c		 DB	 108			; 0000006cH
  00128	74		 DB	 116			; 00000074H
  00129	00		 DB	 0
_TEXT	ENDS
text$x	SEGMENT
__ehhandler$_PMCCS_Parse@16:
  00000	8b 54 24 08	 mov	 edx, DWORD PTR [esp+8]
  00004	8d 42 0c	 lea	 eax, DWORD PTR [edx+12]
  00007	8b 4a cc	 mov	 ecx, DWORD PTR [edx-52]
  0000a	33 c8		 xor	 ecx, eax
  0000c	e8 00 00 00 00	 call	 @__security_check_cookie@4
  00011	b8 00 00 00 00	 mov	 eax, OFFSET __ehfuncinfo$_PMCCS_Parse@16
  00016	e9 00 00 00 00	 jmp	 ___CxxFrameHandler3
text$x	ENDS
_PMCCS_Parse@16 ENDP
; Function compile flags: /Odtp /RTCsu
; File z:\sources\lunor\repos\rougemeilland\palmtree.math.core.uint\palmtree.math.core.uint\pmc_interface_csharp.cpp
_TEXT	SEGMENT
$T2 = -36						; size = 4
_ex$3 = -28						; size = 4
_r$4 = -20						; size = 4
__$EHRec$ = -16						; size = 16
_x$ = 8							; size = 4
_format$ = 12						; size = 4
_format_option$ = 16					; size = 4
_buffer$ = 20						; size = 4
_buffer_size$ = 24					; size = 4
_size$ = 28						; size = 4
_PMCCS_ToString@24 PROC

; 289  :     {

  00000	55		 push	 ebp
  00001	8b ec		 mov	 ebp, esp
  00003	6a ff		 push	 -1
  00005	68 00 00 00 00	 push	 __ehhandler$_PMCCS_ToString@24
  0000a	64 a1 00 00 00
	00		 mov	 eax, DWORD PTR fs:0
  00010	50		 push	 eax
  00011	51		 push	 ecx
  00012	83 ec 14	 sub	 esp, 20			; 00000014H
  00015	53		 push	 ebx
  00016	56		 push	 esi
  00017	57		 push	 edi
  00018	b8 cc cc cc cc	 mov	 eax, -858993460		; ccccccccH
  0001d	89 45 dc	 mov	 DWORD PTR [ebp-36], eax
  00020	89 45 e0	 mov	 DWORD PTR [ebp-32], eax
  00023	89 45 e4	 mov	 DWORD PTR [ebp-28], eax
  00026	89 45 e8	 mov	 DWORD PTR [ebp-24], eax
  00029	89 45 ec	 mov	 DWORD PTR [ebp-20], eax
  0002c	a1 00 00 00 00	 mov	 eax, DWORD PTR ___security_cookie
  00031	33 c5		 xor	 eax, ebp
  00033	50		 push	 eax
  00034	8d 45 f4	 lea	 eax, DWORD PTR __$EHRec$[ebp+4]
  00037	64 a3 00 00 00
	00		 mov	 DWORD PTR fs:0, eax
  0003d	89 65 f0	 mov	 DWORD PTR __$EHRec$[ebp], esp
  00040	b9 00 00 00 00	 mov	 ecx, OFFSET __C21BA676_pmc_interface_csharp@cpp
  00045	e8 00 00 00 00	 call	 @__CheckForDebuggerJustMyCode@4

; 290  :         if (size == nullptr)

  0004a	83 7d 1c 00	 cmp	 DWORD PTR _size$[ebp], 0
  0004e	75 07		 jne	 SHORT $LN2@PMCCS_ToSt

; 291  :             return (PMC_STATUS_ARGUMENT_NULL_ERROR);

  00050	b8 fe ff ff ff	 mov	 eax, -2			; fffffffeH
  00055	eb 69		 jmp	 SHORT $LN1@PMCCS_ToSt
$LN2@PMCCS_ToSt:

; 292  :         try

  00057	c7 45 fc 00 00
	00 00		 mov	 DWORD PTR __$EHRec$[ebp+12], 0

; 293  :         {
; 294  :             size_t r = PMC_ToString(x, format, format_option, buffer, buffer_size);

  0005e	8b 45 18	 mov	 eax, DWORD PTR _buffer_size$[ebp]
  00061	50		 push	 eax
  00062	8b 4d 14	 mov	 ecx, DWORD PTR _buffer$[ebp]
  00065	51		 push	 ecx
  00066	8b 55 10	 mov	 edx, DWORD PTR _format_option$[ebp]
  00069	52		 push	 edx
  0006a	8b 45 0c	 mov	 eax, DWORD PTR _format$[ebp]
  0006d	50		 push	 eax
  0006e	8b 4d 08	 mov	 ecx, DWORD PTR _x$[ebp]
  00071	51		 push	 ecx
  00072	e8 00 00 00 00	 call	 ?PMC_ToString@Internal@Core@Math@Palmtree@@YGIPAU__tag_PMC_HANDLE_UINT@1234@PB_WPBU__tag_PMC_NUMBER_FORMAT_INFO@1234@PA_WI@Z ; Palmtree::Math::Core::Internal::PMC_ToString
  00077	89 45 ec	 mov	 DWORD PTR _r$4[ebp], eax

; 295  :             if (r > 0x7fffffff)

  0007a	81 7d ec ff ff
	ff 7f		 cmp	 DWORD PTR _r$4[ebp], 2147483647 ; 7fffffffH
  00081	76 07		 jbe	 SHORT $LN4@PMCCS_ToSt

; 296  :                 return (PMC_STATUS_NOT_ENOUGH_MEMORY);

  00083	b8 f7 ff ff ff	 mov	 eax, -9			; fffffff7H
  00088	eb 36		 jmp	 SHORT $LN1@PMCCS_ToSt
$LN4@PMCCS_ToSt:

; 297  :             *size = (_INT32_T)r;

  0008a	8b 55 1c	 mov	 edx, DWORD PTR _size$[ebp]
  0008d	8b 45 ec	 mov	 eax, DWORD PTR _r$4[ebp]
  00090	89 02		 mov	 DWORD PTR [edx], eax

; 298  :             return (PMC_STATUS_OK);

  00092	33 c0		 xor	 eax, eax
  00094	eb 2a		 jmp	 SHORT $LN1@PMCCS_ToSt
__catch$_PMCCS_ToString@24$0:

; 299  :         }
; 300  :         catch (const Palmtree::Math::Core::Internal::Exception& ex)
; 301  :         {
; 302  :             return (ex.GetStatusCode());

  00096	8b 4d e4	 mov	 ecx, DWORD PTR _ex$3[ebp]
  00099	e8 00 00 00 00	 call	 ?GetStatusCode@Exception@Internal@Core@Math@Palmtree@@QBEHXZ ; Palmtree::Math::Core::Internal::Exception::GetStatusCode
  0009e	89 45 dc	 mov	 DWORD PTR $T2[ebp], eax
  000a1	b8 00 00 00 00	 mov	 eax, $LN9@PMCCS_ToSt
  000a6	c3		 ret	 0

; 303  :         }

  000a7	b8 00 00 00 00	 mov	 eax, __tryend$_PMCCS_ToString@24$1
  000ac	c3		 ret	 0
__tryend$_PMCCS_ToString@24$1:
  000ad	c7 45 fc ff ff
	ff ff		 mov	 DWORD PTR __$EHRec$[ebp+12], -1
  000b4	eb 0a		 jmp	 SHORT $LN1@PMCCS_ToSt
$LN9@PMCCS_ToSt:
  000b6	c7 45 fc ff ff
	ff ff		 mov	 DWORD PTR __$EHRec$[ebp+12], -1

; 299  :         }
; 300  :         catch (const Palmtree::Math::Core::Internal::Exception& ex)
; 301  :         {
; 302  :             return (ex.GetStatusCode());

  000bd	8b 45 dc	 mov	 eax, DWORD PTR $T2[ebp]
$LN1@PMCCS_ToSt:

; 304  :     }

  000c0	52		 push	 edx
  000c1	8b cd		 mov	 ecx, ebp
  000c3	50		 push	 eax
  000c4	8d 15 00 00 00
	00		 lea	 edx, DWORD PTR $LN13@PMCCS_ToSt
  000ca	e8 00 00 00 00	 call	 @_RTC_CheckStackVars@8
  000cf	58		 pop	 eax
  000d0	5a		 pop	 edx
  000d1	8b 4d f4	 mov	 ecx, DWORD PTR __$EHRec$[ebp+4]
  000d4	64 89 0d 00 00
	00 00		 mov	 DWORD PTR fs:0, ecx
  000db	59		 pop	 ecx
  000dc	5f		 pop	 edi
  000dd	5e		 pop	 esi
  000de	5b		 pop	 ebx
  000df	83 c4 24	 add	 esp, 36			; 00000024H
  000e2	3b ec		 cmp	 ebp, esp
  000e4	e8 00 00 00 00	 call	 __RTC_CheckEsp
  000e9	8b e5		 mov	 esp, ebp
  000eb	5d		 pop	 ebp
  000ec	c2 18 00	 ret	 24			; 00000018H
  000ef	90		 npad	 1
$LN13@PMCCS_ToSt:
  000f0	01 00 00 00	 DD	 1
  000f4	00 00 00 00	 DD	 $LN12@PMCCS_ToSt
$LN12@PMCCS_ToSt:
  000f8	e4 ff ff ff	 DD	 -28			; ffffffe4H
  000fc	04 00 00 00	 DD	 4
  00100	00 00 00 00	 DD	 $LN10@PMCCS_ToSt
$LN10@PMCCS_ToSt:
  00104	65		 DB	 101			; 00000065H
  00105	78		 DB	 120			; 00000078H
  00106	00		 DB	 0
_TEXT	ENDS
text$x	SEGMENT
__ehhandler$_PMCCS_ToString@24:
  00000	8b 54 24 08	 mov	 edx, DWORD PTR [esp+8]
  00004	8d 42 0c	 lea	 eax, DWORD PTR [edx+12]
  00007	8b 4a d8	 mov	 ecx, DWORD PTR [edx-40]
  0000a	33 c8		 xor	 ecx, eax
  0000c	e8 00 00 00 00	 call	 @__security_check_cookie@4
  00011	b8 00 00 00 00	 mov	 eax, OFFSET __ehfuncinfo$_PMCCS_ToString@24
  00016	e9 00 00 00 00	 jmp	 ___CxxFrameHandler3
text$x	ENDS
_PMCCS_ToString@24 ENDP
; Function compile flags: /Odtp /RTCsu
; File z:\sources\lunor\repos\rougemeilland\palmtree.math.core.uint\palmtree.math.core.uint\pmc_interface_csharp.cpp
_TEXT	SEGMENT
$T2 = -32						; size = 4
_ex$3 = -24						; size = 4
__$EHRec$ = -16						; size = 16
_p$ = 8							; size = 4
_o$ = 12						; size = 4
_PMCCS_To_X_L@8 PROC

; 274  :     {

  00000	55		 push	 ebp
  00001	8b ec		 mov	 ebp, esp
  00003	6a ff		 push	 -1
  00005	68 00 00 00 00	 push	 __ehhandler$_PMCCS_To_X_L@8
  0000a	64 a1 00 00 00
	00		 mov	 eax, DWORD PTR fs:0
  00010	50		 push	 eax
  00011	51		 push	 ecx
  00012	83 ec 10	 sub	 esp, 16			; 00000010H
  00015	53		 push	 ebx
  00016	56		 push	 esi
  00017	57		 push	 edi
  00018	b8 cc cc cc cc	 mov	 eax, -858993460		; ccccccccH
  0001d	89 45 e0	 mov	 DWORD PTR [ebp-32], eax
  00020	89 45 e4	 mov	 DWORD PTR [ebp-28], eax
  00023	89 45 e8	 mov	 DWORD PTR [ebp-24], eax
  00026	89 45 ec	 mov	 DWORD PTR [ebp-20], eax
  00029	a1 00 00 00 00	 mov	 eax, DWORD PTR ___security_cookie
  0002e	33 c5		 xor	 eax, ebp
  00030	50		 push	 eax
  00031	8d 45 f4	 lea	 eax, DWORD PTR __$EHRec$[ebp+4]
  00034	64 a3 00 00 00
	00		 mov	 DWORD PTR fs:0, eax
  0003a	89 65 f0	 mov	 DWORD PTR __$EHRec$[ebp], esp
  0003d	b9 00 00 00 00	 mov	 ecx, OFFSET __C21BA676_pmc_interface_csharp@cpp
  00042	e8 00 00 00 00	 call	 @__CheckForDebuggerJustMyCode@4

; 275  :         if (o == nullptr)

  00047	83 7d 0c 00	 cmp	 DWORD PTR _o$[ebp], 0
  0004b	75 07		 jne	 SHORT $LN2@PMCCS_To_X

; 276  :             return (PMC_STATUS_ARGUMENT_NULL_ERROR);

  0004d	b8 fe ff ff ff	 mov	 eax, -2			; fffffffeH
  00052	eb 46		 jmp	 SHORT $LN1@PMCCS_To_X
$LN2@PMCCS_To_X:

; 277  :         try

  00054	c7 45 fc 00 00
	00 00		 mov	 DWORD PTR __$EHRec$[ebp+12], 0

; 278  :         {
; 279  :             *o = PMC_To_X_L(p);

  0005b	8b 45 08	 mov	 eax, DWORD PTR _p$[ebp]
  0005e	50		 push	 eax
  0005f	e8 00 00 00 00	 call	 ?PMC_To_X_L@Internal@Core@Math@Palmtree@@YG_KPAU__tag_PMC_HANDLE_UINT@1234@@Z ; Palmtree::Math::Core::Internal::PMC_To_X_L
  00064	8b 4d 0c	 mov	 ecx, DWORD PTR _o$[ebp]
  00067	89 01		 mov	 DWORD PTR [ecx], eax
  00069	89 51 04	 mov	 DWORD PTR [ecx+4], edx

; 280  :             return (PMC_STATUS_OK);

  0006c	33 c0		 xor	 eax, eax
  0006e	eb 2a		 jmp	 SHORT $LN1@PMCCS_To_X
__catch$_PMCCS_To_X_L@8$0:

; 281  :         }
; 282  :         catch (const Palmtree::Math::Core::Internal::Exception& ex)
; 283  :         {
; 284  :             return (ex.GetStatusCode());

  00070	8b 4d e8	 mov	 ecx, DWORD PTR _ex$3[ebp]
  00073	e8 00 00 00 00	 call	 ?GetStatusCode@Exception@Internal@Core@Math@Palmtree@@QBEHXZ ; Palmtree::Math::Core::Internal::Exception::GetStatusCode
  00078	89 45 e0	 mov	 DWORD PTR $T2[ebp], eax
  0007b	b8 00 00 00 00	 mov	 eax, $LN8@PMCCS_To_X
  00080	c3		 ret	 0

; 285  :         }

  00081	b8 00 00 00 00	 mov	 eax, __tryend$_PMCCS_To_X_L@8$1
  00086	c3		 ret	 0
__tryend$_PMCCS_To_X_L@8$1:
  00087	c7 45 fc ff ff
	ff ff		 mov	 DWORD PTR __$EHRec$[ebp+12], -1
  0008e	eb 0a		 jmp	 SHORT $LN1@PMCCS_To_X
$LN8@PMCCS_To_X:
  00090	c7 45 fc ff ff
	ff ff		 mov	 DWORD PTR __$EHRec$[ebp+12], -1

; 281  :         }
; 282  :         catch (const Palmtree::Math::Core::Internal::Exception& ex)
; 283  :         {
; 284  :             return (ex.GetStatusCode());

  00097	8b 45 e0	 mov	 eax, DWORD PTR $T2[ebp]
$LN1@PMCCS_To_X:

; 286  :     }

  0009a	52		 push	 edx
  0009b	8b cd		 mov	 ecx, ebp
  0009d	50		 push	 eax
  0009e	8d 15 00 00 00
	00		 lea	 edx, DWORD PTR $LN12@PMCCS_To_X
  000a4	e8 00 00 00 00	 call	 @_RTC_CheckStackVars@8
  000a9	58		 pop	 eax
  000aa	5a		 pop	 edx
  000ab	8b 4d f4	 mov	 ecx, DWORD PTR __$EHRec$[ebp+4]
  000ae	64 89 0d 00 00
	00 00		 mov	 DWORD PTR fs:0, ecx
  000b5	59		 pop	 ecx
  000b6	5f		 pop	 edi
  000b7	5e		 pop	 esi
  000b8	5b		 pop	 ebx
  000b9	83 c4 20	 add	 esp, 32			; 00000020H
  000bc	3b ec		 cmp	 ebp, esp
  000be	e8 00 00 00 00	 call	 __RTC_CheckEsp
  000c3	8b e5		 mov	 esp, ebp
  000c5	5d		 pop	 ebp
  000c6	c2 08 00	 ret	 8
  000c9	0f 1f 00	 npad	 3
$LN12@PMCCS_To_X:
  000cc	01 00 00 00	 DD	 1
  000d0	00 00 00 00	 DD	 $LN11@PMCCS_To_X
$LN11@PMCCS_To_X:
  000d4	e8 ff ff ff	 DD	 -24			; ffffffe8H
  000d8	04 00 00 00	 DD	 4
  000dc	00 00 00 00	 DD	 $LN9@PMCCS_To_X
$LN9@PMCCS_To_X:
  000e0	65		 DB	 101			; 00000065H
  000e1	78		 DB	 120			; 00000078H
  000e2	00		 DB	 0
_TEXT	ENDS
text$x	SEGMENT
__ehhandler$_PMCCS_To_X_L@8:
  00000	8b 54 24 08	 mov	 edx, DWORD PTR [esp+8]
  00004	8d 42 0c	 lea	 eax, DWORD PTR [edx+12]
  00007	8b 4a dc	 mov	 ecx, DWORD PTR [edx-36]
  0000a	33 c8		 xor	 ecx, eax
  0000c	e8 00 00 00 00	 call	 @__security_check_cookie@4
  00011	b8 00 00 00 00	 mov	 eax, OFFSET __ehfuncinfo$_PMCCS_To_X_L@8
  00016	e9 00 00 00 00	 jmp	 ___CxxFrameHandler3
text$x	ENDS
_PMCCS_To_X_L@8 ENDP
; Function compile flags: /Odtp /RTCsu
; File z:\sources\lunor\repos\rougemeilland\palmtree.math.core.uint\palmtree.math.core.uint\pmc_interface_csharp.cpp
_TEXT	SEGMENT
$T2 = -32						; size = 4
_ex$3 = -24						; size = 4
__$EHRec$ = -16						; size = 16
_p$ = 8							; size = 4
_o$ = 12						; size = 4
_PMCCS_To_X_I@8 PROC

; 259  :     {

  00000	55		 push	 ebp
  00001	8b ec		 mov	 ebp, esp
  00003	6a ff		 push	 -1
  00005	68 00 00 00 00	 push	 __ehhandler$_PMCCS_To_X_I@8
  0000a	64 a1 00 00 00
	00		 mov	 eax, DWORD PTR fs:0
  00010	50		 push	 eax
  00011	51		 push	 ecx
  00012	83 ec 10	 sub	 esp, 16			; 00000010H
  00015	53		 push	 ebx
  00016	56		 push	 esi
  00017	57		 push	 edi
  00018	b8 cc cc cc cc	 mov	 eax, -858993460		; ccccccccH
  0001d	89 45 e0	 mov	 DWORD PTR [ebp-32], eax
  00020	89 45 e4	 mov	 DWORD PTR [ebp-28], eax
  00023	89 45 e8	 mov	 DWORD PTR [ebp-24], eax
  00026	89 45 ec	 mov	 DWORD PTR [ebp-20], eax
  00029	a1 00 00 00 00	 mov	 eax, DWORD PTR ___security_cookie
  0002e	33 c5		 xor	 eax, ebp
  00030	50		 push	 eax
  00031	8d 45 f4	 lea	 eax, DWORD PTR __$EHRec$[ebp+4]
  00034	64 a3 00 00 00
	00		 mov	 DWORD PTR fs:0, eax
  0003a	89 65 f0	 mov	 DWORD PTR __$EHRec$[ebp], esp
  0003d	b9 00 00 00 00	 mov	 ecx, OFFSET __C21BA676_pmc_interface_csharp@cpp
  00042	e8 00 00 00 00	 call	 @__CheckForDebuggerJustMyCode@4

; 260  :         if (o == nullptr)

  00047	83 7d 0c 00	 cmp	 DWORD PTR _o$[ebp], 0
  0004b	75 07		 jne	 SHORT $LN2@PMCCS_To_X

; 261  :             return (PMC_STATUS_ARGUMENT_NULL_ERROR);

  0004d	b8 fe ff ff ff	 mov	 eax, -2			; fffffffeH
  00052	eb 43		 jmp	 SHORT $LN1@PMCCS_To_X
$LN2@PMCCS_To_X:

; 262  :         try

  00054	c7 45 fc 00 00
	00 00		 mov	 DWORD PTR __$EHRec$[ebp+12], 0

; 263  :         {
; 264  :             *o = PMC_To_X_I(p);

  0005b	8b 45 08	 mov	 eax, DWORD PTR _p$[ebp]
  0005e	50		 push	 eax
  0005f	e8 00 00 00 00	 call	 ?PMC_To_X_I@Internal@Core@Math@Palmtree@@YGIPAU__tag_PMC_HANDLE_UINT@1234@@Z ; Palmtree::Math::Core::Internal::PMC_To_X_I
  00064	8b 4d 0c	 mov	 ecx, DWORD PTR _o$[ebp]
  00067	89 01		 mov	 DWORD PTR [ecx], eax

; 265  :             return (PMC_STATUS_OK);

  00069	33 c0		 xor	 eax, eax
  0006b	eb 2a		 jmp	 SHORT $LN1@PMCCS_To_X
__catch$_PMCCS_To_X_I@8$0:

; 266  :         }
; 267  :         catch (const Palmtree::Math::Core::Internal::Exception& ex)
; 268  :         {
; 269  :             return (ex.GetStatusCode());

  0006d	8b 4d e8	 mov	 ecx, DWORD PTR _ex$3[ebp]
  00070	e8 00 00 00 00	 call	 ?GetStatusCode@Exception@Internal@Core@Math@Palmtree@@QBEHXZ ; Palmtree::Math::Core::Internal::Exception::GetStatusCode
  00075	89 45 e0	 mov	 DWORD PTR $T2[ebp], eax
  00078	b8 00 00 00 00	 mov	 eax, $LN8@PMCCS_To_X
  0007d	c3		 ret	 0

; 270  :         }

  0007e	b8 00 00 00 00	 mov	 eax, __tryend$_PMCCS_To_X_I@8$1
  00083	c3		 ret	 0
__tryend$_PMCCS_To_X_I@8$1:
  00084	c7 45 fc ff ff
	ff ff		 mov	 DWORD PTR __$EHRec$[ebp+12], -1
  0008b	eb 0a		 jmp	 SHORT $LN1@PMCCS_To_X
$LN8@PMCCS_To_X:
  0008d	c7 45 fc ff ff
	ff ff		 mov	 DWORD PTR __$EHRec$[ebp+12], -1

; 266  :         }
; 267  :         catch (const Palmtree::Math::Core::Internal::Exception& ex)
; 268  :         {
; 269  :             return (ex.GetStatusCode());

  00094	8b 45 e0	 mov	 eax, DWORD PTR $T2[ebp]
$LN1@PMCCS_To_X:

; 271  :     }

  00097	52		 push	 edx
  00098	8b cd		 mov	 ecx, ebp
  0009a	50		 push	 eax
  0009b	8d 15 00 00 00
	00		 lea	 edx, DWORD PTR $LN12@PMCCS_To_X
  000a1	e8 00 00 00 00	 call	 @_RTC_CheckStackVars@8
  000a6	58		 pop	 eax
  000a7	5a		 pop	 edx
  000a8	8b 4d f4	 mov	 ecx, DWORD PTR __$EHRec$[ebp+4]
  000ab	64 89 0d 00 00
	00 00		 mov	 DWORD PTR fs:0, ecx
  000b2	59		 pop	 ecx
  000b3	5f		 pop	 edi
  000b4	5e		 pop	 esi
  000b5	5b		 pop	 ebx
  000b6	83 c4 20	 add	 esp, 32			; 00000020H
  000b9	3b ec		 cmp	 ebp, esp
  000bb	e8 00 00 00 00	 call	 __RTC_CheckEsp
  000c0	8b e5		 mov	 esp, ebp
  000c2	5d		 pop	 ebp
  000c3	c2 08 00	 ret	 8
  000c6	66 90		 npad	 2
$LN12@PMCCS_To_X:
  000c8	01 00 00 00	 DD	 1
  000cc	00 00 00 00	 DD	 $LN11@PMCCS_To_X
$LN11@PMCCS_To_X:
  000d0	e8 ff ff ff	 DD	 -24			; ffffffe8H
  000d4	04 00 00 00	 DD	 4
  000d8	00 00 00 00	 DD	 $LN9@PMCCS_To_X
$LN9@PMCCS_To_X:
  000dc	65		 DB	 101			; 00000065H
  000dd	78		 DB	 120			; 00000078H
  000de	00		 DB	 0
_TEXT	ENDS
text$x	SEGMENT
__ehhandler$_PMCCS_To_X_I@8:
  00000	8b 54 24 08	 mov	 edx, DWORD PTR [esp+8]
  00004	8d 42 0c	 lea	 eax, DWORD PTR [edx+12]
  00007	8b 4a dc	 mov	 ecx, DWORD PTR [edx-36]
  0000a	33 c8		 xor	 ecx, eax
  0000c	e8 00 00 00 00	 call	 @__security_check_cookie@4
  00011	b8 00 00 00 00	 mov	 eax, OFFSET __ehfuncinfo$_PMCCS_To_X_I@8
  00016	e9 00 00 00 00	 jmp	 ___CxxFrameHandler3
text$x	ENDS
_PMCCS_To_X_I@8 ENDP
; Function compile flags: /Odtp /RTCsu
; File z:\sources\lunor\repos\rougemeilland\palmtree.math.core.uint\palmtree.math.core.uint\pmc_interface_csharp.cpp
_TEXT	SEGMENT
$T2 = -32						; size = 4
_ex$3 = -24						; size = 4
__$EHRec$ = -16						; size = 16
_size$ = 8						; size = 4
_PMCCS_GetAllocatedMemorySize@4 PROC

; 244  :     {

  00000	55		 push	 ebp
  00001	8b ec		 mov	 ebp, esp
  00003	6a ff		 push	 -1
  00005	68 00 00 00 00	 push	 __ehhandler$_PMCCS_GetAllocatedMemorySize@4
  0000a	64 a1 00 00 00
	00		 mov	 eax, DWORD PTR fs:0
  00010	50		 push	 eax
  00011	51		 push	 ecx
  00012	83 ec 10	 sub	 esp, 16			; 00000010H
  00015	53		 push	 ebx
  00016	56		 push	 esi
  00017	57		 push	 edi
  00018	b8 cc cc cc cc	 mov	 eax, -858993460		; ccccccccH
  0001d	89 45 e0	 mov	 DWORD PTR [ebp-32], eax
  00020	89 45 e4	 mov	 DWORD PTR [ebp-28], eax
  00023	89 45 e8	 mov	 DWORD PTR [ebp-24], eax
  00026	89 45 ec	 mov	 DWORD PTR [ebp-20], eax
  00029	a1 00 00 00 00	 mov	 eax, DWORD PTR ___security_cookie
  0002e	33 c5		 xor	 eax, ebp
  00030	50		 push	 eax
  00031	8d 45 f4	 lea	 eax, DWORD PTR __$EHRec$[ebp+4]
  00034	64 a3 00 00 00
	00		 mov	 DWORD PTR fs:0, eax
  0003a	89 65 f0	 mov	 DWORD PTR __$EHRec$[ebp], esp
  0003d	b9 00 00 00 00	 mov	 ecx, OFFSET __C21BA676_pmc_interface_csharp@cpp
  00042	e8 00 00 00 00	 call	 @__CheckForDebuggerJustMyCode@4

; 245  :         if (size == nullptr)

  00047	83 7d 08 00	 cmp	 DWORD PTR _size$[ebp], 0
  0004b	75 07		 jne	 SHORT $LN2@PMCCS_GetA

; 246  :             return (PMC_STATUS_ARGUMENT_NULL_ERROR);

  0004d	b8 fe ff ff ff	 mov	 eax, -2			; fffffffeH
  00052	eb 42		 jmp	 SHORT $LN1@PMCCS_GetA
$LN2@PMCCS_GetA:

; 247  :         try

  00054	c7 45 fc 00 00
	00 00		 mov	 DWORD PTR __$EHRec$[ebp+12], 0

; 248  :         {
; 249  :             *size = PMC_GetAllocatedMemorySize();

  0005b	e8 00 00 00 00	 call	 ?PMC_GetAllocatedMemorySize@Internal@Core@Math@Palmtree@@YG_KXZ ; Palmtree::Math::Core::Internal::PMC_GetAllocatedMemorySize
  00060	8b 4d 08	 mov	 ecx, DWORD PTR _size$[ebp]
  00063	89 01		 mov	 DWORD PTR [ecx], eax
  00065	89 51 04	 mov	 DWORD PTR [ecx+4], edx

; 250  :             return (PMC_STATUS_OK);

  00068	33 c0		 xor	 eax, eax
  0006a	eb 2a		 jmp	 SHORT $LN1@PMCCS_GetA
__catch$_PMCCS_GetAllocatedMemorySize@4$0:

; 251  :         }
; 252  :         catch (const Palmtree::Math::Core::Internal::Exception& ex)
; 253  :         {
; 254  :             return (ex.GetStatusCode());

  0006c	8b 4d e8	 mov	 ecx, DWORD PTR _ex$3[ebp]
  0006f	e8 00 00 00 00	 call	 ?GetStatusCode@Exception@Internal@Core@Math@Palmtree@@QBEHXZ ; Palmtree::Math::Core::Internal::Exception::GetStatusCode
  00074	89 45 e0	 mov	 DWORD PTR $T2[ebp], eax
  00077	b8 00 00 00 00	 mov	 eax, $LN8@PMCCS_GetA
  0007c	c3		 ret	 0

; 255  :         }

  0007d	b8 00 00 00 00	 mov	 eax, __tryend$_PMCCS_GetAllocatedMemorySize@4$1
  00082	c3		 ret	 0
__tryend$_PMCCS_GetAllocatedMemorySize@4$1:
  00083	c7 45 fc ff ff
	ff ff		 mov	 DWORD PTR __$EHRec$[ebp+12], -1
  0008a	eb 0a		 jmp	 SHORT $LN1@PMCCS_GetA
$LN8@PMCCS_GetA:
  0008c	c7 45 fc ff ff
	ff ff		 mov	 DWORD PTR __$EHRec$[ebp+12], -1

; 251  :         }
; 252  :         catch (const Palmtree::Math::Core::Internal::Exception& ex)
; 253  :         {
; 254  :             return (ex.GetStatusCode());

  00093	8b 45 e0	 mov	 eax, DWORD PTR $T2[ebp]
$LN1@PMCCS_GetA:

; 256  :     }

  00096	52		 push	 edx
  00097	8b cd		 mov	 ecx, ebp
  00099	50		 push	 eax
  0009a	8d 15 00 00 00
	00		 lea	 edx, DWORD PTR $LN12@PMCCS_GetA
  000a0	e8 00 00 00 00	 call	 @_RTC_CheckStackVars@8
  000a5	58		 pop	 eax
  000a6	5a		 pop	 edx
  000a7	8b 4d f4	 mov	 ecx, DWORD PTR __$EHRec$[ebp+4]
  000aa	64 89 0d 00 00
	00 00		 mov	 DWORD PTR fs:0, ecx
  000b1	59		 pop	 ecx
  000b2	5f		 pop	 edi
  000b3	5e		 pop	 esi
  000b4	5b		 pop	 ebx
  000b5	83 c4 20	 add	 esp, 32			; 00000020H
  000b8	3b ec		 cmp	 ebp, esp
  000ba	e8 00 00 00 00	 call	 __RTC_CheckEsp
  000bf	8b e5		 mov	 esp, ebp
  000c1	5d		 pop	 ebp
  000c2	c2 04 00	 ret	 4
  000c5	0f 1f 00	 npad	 3
$LN12@PMCCS_GetA:
  000c8	01 00 00 00	 DD	 1
  000cc	00 00 00 00	 DD	 $LN11@PMCCS_GetA
$LN11@PMCCS_GetA:
  000d0	e8 ff ff ff	 DD	 -24			; ffffffe8H
  000d4	04 00 00 00	 DD	 4
  000d8	00 00 00 00	 DD	 $LN9@PMCCS_GetA
$LN9@PMCCS_GetA:
  000dc	65		 DB	 101			; 00000065H
  000dd	78		 DB	 120			; 00000078H
  000de	00		 DB	 0
_TEXT	ENDS
text$x	SEGMENT
__ehhandler$_PMCCS_GetAllocatedMemorySize@4:
  00000	8b 54 24 08	 mov	 edx, DWORD PTR [esp+8]
  00004	8d 42 0c	 lea	 eax, DWORD PTR [edx+12]
  00007	8b 4a dc	 mov	 ecx, DWORD PTR [edx-36]
  0000a	33 c8		 xor	 ecx, eax
  0000c	e8 00 00 00 00	 call	 @__security_check_cookie@4
  00011	b8 00 00 00 00	 mov	 eax, OFFSET __ehfuncinfo$_PMCCS_GetAllocatedMemorySize@4
  00016	e9 00 00 00 00	 jmp	 ___CxxFrameHandler3
text$x	ENDS
_PMCCS_GetAllocatedMemorySize@4 ENDP
; Function compile flags: /Odtp /RTCsu
; File z:\sources\lunor\repos\rougemeilland\palmtree.math.core.uint\palmtree.math.core.uint\pmc_interface_csharp.cpp
_TEXT	SEGMENT
$T2 = -32						; size = 4
_ex$3 = -24						; size = 4
__$EHRec$ = -16						; size = 16
_x$ = 8							; size = 4
_o$ = 12						; size = 4
_PMCCS_Clone_X@8 PROC

; 229  :     {

  00000	55		 push	 ebp
  00001	8b ec		 mov	 ebp, esp
  00003	6a ff		 push	 -1
  00005	68 00 00 00 00	 push	 __ehhandler$_PMCCS_Clone_X@8
  0000a	64 a1 00 00 00
	00		 mov	 eax, DWORD PTR fs:0
  00010	50		 push	 eax
  00011	51		 push	 ecx
  00012	83 ec 10	 sub	 esp, 16			; 00000010H
  00015	53		 push	 ebx
  00016	56		 push	 esi
  00017	57		 push	 edi
  00018	b8 cc cc cc cc	 mov	 eax, -858993460		; ccccccccH
  0001d	89 45 e0	 mov	 DWORD PTR [ebp-32], eax
  00020	89 45 e4	 mov	 DWORD PTR [ebp-28], eax
  00023	89 45 e8	 mov	 DWORD PTR [ebp-24], eax
  00026	89 45 ec	 mov	 DWORD PTR [ebp-20], eax
  00029	a1 00 00 00 00	 mov	 eax, DWORD PTR ___security_cookie
  0002e	33 c5		 xor	 eax, ebp
  00030	50		 push	 eax
  00031	8d 45 f4	 lea	 eax, DWORD PTR __$EHRec$[ebp+4]
  00034	64 a3 00 00 00
	00		 mov	 DWORD PTR fs:0, eax
  0003a	89 65 f0	 mov	 DWORD PTR __$EHRec$[ebp], esp
  0003d	b9 00 00 00 00	 mov	 ecx, OFFSET __C21BA676_pmc_interface_csharp@cpp
  00042	e8 00 00 00 00	 call	 @__CheckForDebuggerJustMyCode@4

; 230  :         if (o == nullptr)

  00047	83 7d 0c 00	 cmp	 DWORD PTR _o$[ebp], 0
  0004b	75 07		 jne	 SHORT $LN2@PMCCS_Clon

; 231  :             return (PMC_STATUS_ARGUMENT_NULL_ERROR);

  0004d	b8 fe ff ff ff	 mov	 eax, -2			; fffffffeH
  00052	eb 43		 jmp	 SHORT $LN1@PMCCS_Clon
$LN2@PMCCS_Clon:

; 232  :         try

  00054	c7 45 fc 00 00
	00 00		 mov	 DWORD PTR __$EHRec$[ebp+12], 0

; 233  :         {
; 234  :             *o = PMC_Clone_X(x);

  0005b	8b 45 08	 mov	 eax, DWORD PTR _x$[ebp]
  0005e	50		 push	 eax
  0005f	e8 00 00 00 00	 call	 ?PMC_Clone_X@Internal@Core@Math@Palmtree@@YGPAU__tag_PMC_HANDLE_UINT@1234@PAU51234@@Z ; Palmtree::Math::Core::Internal::PMC_Clone_X
  00064	8b 4d 0c	 mov	 ecx, DWORD PTR _o$[ebp]
  00067	89 01		 mov	 DWORD PTR [ecx], eax

; 235  :             return (PMC_STATUS_OK);

  00069	33 c0		 xor	 eax, eax
  0006b	eb 2a		 jmp	 SHORT $LN1@PMCCS_Clon
__catch$_PMCCS_Clone_X@8$0:

; 236  :         }
; 237  :         catch (const Palmtree::Math::Core::Internal::Exception& ex)
; 238  :         {
; 239  :             return (ex.GetStatusCode());

  0006d	8b 4d e8	 mov	 ecx, DWORD PTR _ex$3[ebp]
  00070	e8 00 00 00 00	 call	 ?GetStatusCode@Exception@Internal@Core@Math@Palmtree@@QBEHXZ ; Palmtree::Math::Core::Internal::Exception::GetStatusCode
  00075	89 45 e0	 mov	 DWORD PTR $T2[ebp], eax
  00078	b8 00 00 00 00	 mov	 eax, $LN8@PMCCS_Clon
  0007d	c3		 ret	 0

; 240  :         }

  0007e	b8 00 00 00 00	 mov	 eax, __tryend$_PMCCS_Clone_X@8$1
  00083	c3		 ret	 0
__tryend$_PMCCS_Clone_X@8$1:
  00084	c7 45 fc ff ff
	ff ff		 mov	 DWORD PTR __$EHRec$[ebp+12], -1
  0008b	eb 0a		 jmp	 SHORT $LN1@PMCCS_Clon
$LN8@PMCCS_Clon:
  0008d	c7 45 fc ff ff
	ff ff		 mov	 DWORD PTR __$EHRec$[ebp+12], -1

; 236  :         }
; 237  :         catch (const Palmtree::Math::Core::Internal::Exception& ex)
; 238  :         {
; 239  :             return (ex.GetStatusCode());

  00094	8b 45 e0	 mov	 eax, DWORD PTR $T2[ebp]
$LN1@PMCCS_Clon:

; 241  :     }

  00097	52		 push	 edx
  00098	8b cd		 mov	 ecx, ebp
  0009a	50		 push	 eax
  0009b	8d 15 00 00 00
	00		 lea	 edx, DWORD PTR $LN12@PMCCS_Clon
  000a1	e8 00 00 00 00	 call	 @_RTC_CheckStackVars@8
  000a6	58		 pop	 eax
  000a7	5a		 pop	 edx
  000a8	8b 4d f4	 mov	 ecx, DWORD PTR __$EHRec$[ebp+4]
  000ab	64 89 0d 00 00
	00 00		 mov	 DWORD PTR fs:0, ecx
  000b2	59		 pop	 ecx
  000b3	5f		 pop	 edi
  000b4	5e		 pop	 esi
  000b5	5b		 pop	 ebx
  000b6	83 c4 20	 add	 esp, 32			; 00000020H
  000b9	3b ec		 cmp	 ebp, esp
  000bb	e8 00 00 00 00	 call	 __RTC_CheckEsp
  000c0	8b e5		 mov	 esp, ebp
  000c2	5d		 pop	 ebp
  000c3	c2 08 00	 ret	 8
  000c6	66 90		 npad	 2
$LN12@PMCCS_Clon:
  000c8	01 00 00 00	 DD	 1
  000cc	00 00 00 00	 DD	 $LN11@PMCCS_Clon
$LN11@PMCCS_Clon:
  000d0	e8 ff ff ff	 DD	 -24			; ffffffe8H
  000d4	04 00 00 00	 DD	 4
  000d8	00 00 00 00	 DD	 $LN9@PMCCS_Clon
$LN9@PMCCS_Clon:
  000dc	65		 DB	 101			; 00000065H
  000dd	78		 DB	 120			; 00000078H
  000de	00		 DB	 0
_TEXT	ENDS
text$x	SEGMENT
__ehhandler$_PMCCS_Clone_X@8:
  00000	8b 54 24 08	 mov	 edx, DWORD PTR [esp+8]
  00004	8d 42 0c	 lea	 eax, DWORD PTR [edx+12]
  00007	8b 4a dc	 mov	 ecx, DWORD PTR [edx-36]
  0000a	33 c8		 xor	 ecx, eax
  0000c	e8 00 00 00 00	 call	 @__security_check_cookie@4
  00011	b8 00 00 00 00	 mov	 eax, OFFSET __ehfuncinfo$_PMCCS_Clone_X@8
  00016	e9 00 00 00 00	 jmp	 ___CxxFrameHandler3
text$x	ENDS
_PMCCS_Clone_X@8 ENDP
; Function compile flags: /Odtp /RTCsu
; File z:\sources\lunor\repos\rougemeilland\palmtree.math.core.uint\palmtree.math.core.uint\pmc_interface_csharp.cpp
_TEXT	SEGMENT
$T2 = -36						; size = 4
_ex$3 = -28						; size = 4
_r$4 = -20						; size = 4
__$EHRec$ = -16						; size = 16
_p$ = 8							; size = 4
_buffer$ = 12						; size = 4
_buffer_size$ = 16					; size = 4
_size$ = 20						; size = 4
_PMCCS_ToByteArray@16 PROC

; 211  :     {

  00000	55		 push	 ebp
  00001	8b ec		 mov	 ebp, esp
  00003	6a ff		 push	 -1
  00005	68 00 00 00 00	 push	 __ehhandler$_PMCCS_ToByteArray@16
  0000a	64 a1 00 00 00
	00		 mov	 eax, DWORD PTR fs:0
  00010	50		 push	 eax
  00011	51		 push	 ecx
  00012	83 ec 14	 sub	 esp, 20			; 00000014H
  00015	53		 push	 ebx
  00016	56		 push	 esi
  00017	57		 push	 edi
  00018	b8 cc cc cc cc	 mov	 eax, -858993460		; ccccccccH
  0001d	89 45 dc	 mov	 DWORD PTR [ebp-36], eax
  00020	89 45 e0	 mov	 DWORD PTR [ebp-32], eax
  00023	89 45 e4	 mov	 DWORD PTR [ebp-28], eax
  00026	89 45 e8	 mov	 DWORD PTR [ebp-24], eax
  00029	89 45 ec	 mov	 DWORD PTR [ebp-20], eax
  0002c	a1 00 00 00 00	 mov	 eax, DWORD PTR ___security_cookie
  00031	33 c5		 xor	 eax, ebp
  00033	50		 push	 eax
  00034	8d 45 f4	 lea	 eax, DWORD PTR __$EHRec$[ebp+4]
  00037	64 a3 00 00 00
	00		 mov	 DWORD PTR fs:0, eax
  0003d	89 65 f0	 mov	 DWORD PTR __$EHRec$[ebp], esp
  00040	b9 00 00 00 00	 mov	 ecx, OFFSET __C21BA676_pmc_interface_csharp@cpp
  00045	e8 00 00 00 00	 call	 @__CheckForDebuggerJustMyCode@4

; 212  :         if (size == nullptr)

  0004a	83 7d 14 00	 cmp	 DWORD PTR _size$[ebp], 0
  0004e	75 07		 jne	 SHORT $LN2@PMCCS_ToBy

; 213  :             return (PMC_STATUS_ARGUMENT_NULL_ERROR);

  00050	b8 fe ff ff ff	 mov	 eax, -2			; fffffffeH
  00055	eb 61		 jmp	 SHORT $LN1@PMCCS_ToBy
$LN2@PMCCS_ToBy:

; 214  :         try

  00057	c7 45 fc 00 00
	00 00		 mov	 DWORD PTR __$EHRec$[ebp+12], 0

; 215  :         {
; 216  :             size_t r = PMC_ToByteArray(p, buffer, buffer_size);

  0005e	8b 45 10	 mov	 eax, DWORD PTR _buffer_size$[ebp]
  00061	50		 push	 eax
  00062	8b 4d 0c	 mov	 ecx, DWORD PTR _buffer$[ebp]
  00065	51		 push	 ecx
  00066	8b 55 08	 mov	 edx, DWORD PTR _p$[ebp]
  00069	52		 push	 edx
  0006a	e8 00 00 00 00	 call	 ?PMC_ToByteArray@Internal@Core@Math@Palmtree@@YGIPAU__tag_PMC_HANDLE_UINT@1234@PAEI@Z ; Palmtree::Math::Core::Internal::PMC_ToByteArray
  0006f	89 45 ec	 mov	 DWORD PTR _r$4[ebp], eax

; 217  :             if (r > 0x7fffffff)

  00072	81 7d ec ff ff
	ff 7f		 cmp	 DWORD PTR _r$4[ebp], 2147483647 ; 7fffffffH
  00079	76 07		 jbe	 SHORT $LN4@PMCCS_ToBy

; 218  :                 return (PMC_STATUS_NOT_ENOUGH_MEMORY);

  0007b	b8 f7 ff ff ff	 mov	 eax, -9			; fffffff7H
  00080	eb 36		 jmp	 SHORT $LN1@PMCCS_ToBy
$LN4@PMCCS_ToBy:

; 219  :             *size = (_INT32_T)r;

  00082	8b 45 14	 mov	 eax, DWORD PTR _size$[ebp]
  00085	8b 4d ec	 mov	 ecx, DWORD PTR _r$4[ebp]
  00088	89 08		 mov	 DWORD PTR [eax], ecx

; 220  :             return (PMC_STATUS_OK);

  0008a	33 c0		 xor	 eax, eax
  0008c	eb 2a		 jmp	 SHORT $LN1@PMCCS_ToBy
__catch$_PMCCS_ToByteArray@16$0:

; 221  :         }
; 222  :         catch (const Palmtree::Math::Core::Internal::Exception& ex)
; 223  :         {
; 224  :             return (ex.GetStatusCode());

  0008e	8b 4d e4	 mov	 ecx, DWORD PTR _ex$3[ebp]
  00091	e8 00 00 00 00	 call	 ?GetStatusCode@Exception@Internal@Core@Math@Palmtree@@QBEHXZ ; Palmtree::Math::Core::Internal::Exception::GetStatusCode
  00096	89 45 dc	 mov	 DWORD PTR $T2[ebp], eax
  00099	b8 00 00 00 00	 mov	 eax, $LN9@PMCCS_ToBy
  0009e	c3		 ret	 0

; 225  :         }

  0009f	b8 00 00 00 00	 mov	 eax, __tryend$_PMCCS_ToByteArray@16$1
  000a4	c3		 ret	 0
__tryend$_PMCCS_ToByteArray@16$1:
  000a5	c7 45 fc ff ff
	ff ff		 mov	 DWORD PTR __$EHRec$[ebp+12], -1
  000ac	eb 0a		 jmp	 SHORT $LN1@PMCCS_ToBy
$LN9@PMCCS_ToBy:
  000ae	c7 45 fc ff ff
	ff ff		 mov	 DWORD PTR __$EHRec$[ebp+12], -1

; 221  :         }
; 222  :         catch (const Palmtree::Math::Core::Internal::Exception& ex)
; 223  :         {
; 224  :             return (ex.GetStatusCode());

  000b5	8b 45 dc	 mov	 eax, DWORD PTR $T2[ebp]
$LN1@PMCCS_ToBy:

; 226  :     }

  000b8	52		 push	 edx
  000b9	8b cd		 mov	 ecx, ebp
  000bb	50		 push	 eax
  000bc	8d 15 00 00 00
	00		 lea	 edx, DWORD PTR $LN13@PMCCS_ToBy
  000c2	e8 00 00 00 00	 call	 @_RTC_CheckStackVars@8
  000c7	58		 pop	 eax
  000c8	5a		 pop	 edx
  000c9	8b 4d f4	 mov	 ecx, DWORD PTR __$EHRec$[ebp+4]
  000cc	64 89 0d 00 00
	00 00		 mov	 DWORD PTR fs:0, ecx
  000d3	59		 pop	 ecx
  000d4	5f		 pop	 edi
  000d5	5e		 pop	 esi
  000d6	5b		 pop	 ebx
  000d7	83 c4 24	 add	 esp, 36			; 00000024H
  000da	3b ec		 cmp	 ebp, esp
  000dc	e8 00 00 00 00	 call	 __RTC_CheckEsp
  000e1	8b e5		 mov	 esp, ebp
  000e3	5d		 pop	 ebp
  000e4	c2 10 00	 ret	 16			; 00000010H
  000e7	90		 npad	 1
$LN13@PMCCS_ToBy:
  000e8	01 00 00 00	 DD	 1
  000ec	00 00 00 00	 DD	 $LN12@PMCCS_ToBy
$LN12@PMCCS_ToBy:
  000f0	e4 ff ff ff	 DD	 -28			; ffffffe4H
  000f4	04 00 00 00	 DD	 4
  000f8	00 00 00 00	 DD	 $LN10@PMCCS_ToBy
$LN10@PMCCS_ToBy:
  000fc	65		 DB	 101			; 00000065H
  000fd	78		 DB	 120			; 00000078H
  000fe	00		 DB	 0
_TEXT	ENDS
text$x	SEGMENT
__ehhandler$_PMCCS_ToByteArray@16:
  00000	8b 54 24 08	 mov	 edx, DWORD PTR [esp+8]
  00004	8d 42 0c	 lea	 eax, DWORD PTR [edx+12]
  00007	8b 4a d8	 mov	 ecx, DWORD PTR [edx-40]
  0000a	33 c8		 xor	 ecx, eax
  0000c	e8 00 00 00 00	 call	 @__security_check_cookie@4
  00011	b8 00 00 00 00	 mov	 eax, OFFSET __ehfuncinfo$_PMCCS_ToByteArray@16
  00016	e9 00 00 00 00	 jmp	 ___CxxFrameHandler3
text$x	ENDS
_PMCCS_ToByteArray@16 ENDP
; Function compile flags: /Odtp /RTCsu
; File z:\sources\lunor\repos\rougemeilland\palmtree.math.core.uint\palmtree.math.core.uint\pmc_interface_csharp.cpp
_TEXT	SEGMENT
$T2 = -32						; size = 4
_ex$3 = -24						; size = 4
__$EHRec$ = -16						; size = 16
_buffer$ = 8						; size = 4
_count$ = 12						; size = 4
_value$ = 16						; size = 4
_PMCCS_FromByteArray@12 PROC

; 196  :     {

  00000	55		 push	 ebp
  00001	8b ec		 mov	 ebp, esp
  00003	6a ff		 push	 -1
  00005	68 00 00 00 00	 push	 __ehhandler$_PMCCS_FromByteArray@12
  0000a	64 a1 00 00 00
	00		 mov	 eax, DWORD PTR fs:0
  00010	50		 push	 eax
  00011	51		 push	 ecx
  00012	83 ec 10	 sub	 esp, 16			; 00000010H
  00015	53		 push	 ebx
  00016	56		 push	 esi
  00017	57		 push	 edi
  00018	b8 cc cc cc cc	 mov	 eax, -858993460		; ccccccccH
  0001d	89 45 e0	 mov	 DWORD PTR [ebp-32], eax
  00020	89 45 e4	 mov	 DWORD PTR [ebp-28], eax
  00023	89 45 e8	 mov	 DWORD PTR [ebp-24], eax
  00026	89 45 ec	 mov	 DWORD PTR [ebp-20], eax
  00029	a1 00 00 00 00	 mov	 eax, DWORD PTR ___security_cookie
  0002e	33 c5		 xor	 eax, ebp
  00030	50		 push	 eax
  00031	8d 45 f4	 lea	 eax, DWORD PTR __$EHRec$[ebp+4]
  00034	64 a3 00 00 00
	00		 mov	 DWORD PTR fs:0, eax
  0003a	89 65 f0	 mov	 DWORD PTR __$EHRec$[ebp], esp
  0003d	b9 00 00 00 00	 mov	 ecx, OFFSET __C21BA676_pmc_interface_csharp@cpp
  00042	e8 00 00 00 00	 call	 @__CheckForDebuggerJustMyCode@4

; 197  :         if (value == nullptr)

  00047	83 7d 10 00	 cmp	 DWORD PTR _value$[ebp], 0
  0004b	75 07		 jne	 SHORT $LN2@PMCCS_From

; 198  :             return (PMC_STATUS_ARGUMENT_NULL_ERROR);

  0004d	b8 fe ff ff ff	 mov	 eax, -2			; fffffffeH
  00052	eb 47		 jmp	 SHORT $LN1@PMCCS_From
$LN2@PMCCS_From:

; 199  :         try

  00054	c7 45 fc 00 00
	00 00		 mov	 DWORD PTR __$EHRec$[ebp+12], 0

; 200  :         {
; 201  :             *value = PMC_FromByteArray(buffer, count);

  0005b	8b 45 0c	 mov	 eax, DWORD PTR _count$[ebp]
  0005e	50		 push	 eax
  0005f	8b 4d 08	 mov	 ecx, DWORD PTR _buffer$[ebp]
  00062	51		 push	 ecx
  00063	e8 00 00 00 00	 call	 ?PMC_FromByteArray@Internal@Core@Math@Palmtree@@YGPAU__tag_PMC_HANDLE_UINT@1234@PBEI@Z ; Palmtree::Math::Core::Internal::PMC_FromByteArray
  00068	8b 55 10	 mov	 edx, DWORD PTR _value$[ebp]
  0006b	89 02		 mov	 DWORD PTR [edx], eax

; 202  :             return (PMC_STATUS_OK);

  0006d	33 c0		 xor	 eax, eax
  0006f	eb 2a		 jmp	 SHORT $LN1@PMCCS_From
__catch$_PMCCS_FromByteArray@12$0:

; 203  :         }
; 204  :         catch (const Palmtree::Math::Core::Internal::Exception& ex)
; 205  :         {
; 206  :             return (ex.GetStatusCode());

  00071	8b 4d e8	 mov	 ecx, DWORD PTR _ex$3[ebp]
  00074	e8 00 00 00 00	 call	 ?GetStatusCode@Exception@Internal@Core@Math@Palmtree@@QBEHXZ ; Palmtree::Math::Core::Internal::Exception::GetStatusCode
  00079	89 45 e0	 mov	 DWORD PTR $T2[ebp], eax
  0007c	b8 00 00 00 00	 mov	 eax, $LN8@PMCCS_From
  00081	c3		 ret	 0

; 207  :         }

  00082	b8 00 00 00 00	 mov	 eax, __tryend$_PMCCS_FromByteArray@12$1
  00087	c3		 ret	 0
__tryend$_PMCCS_FromByteArray@12$1:
  00088	c7 45 fc ff ff
	ff ff		 mov	 DWORD PTR __$EHRec$[ebp+12], -1
  0008f	eb 0a		 jmp	 SHORT $LN1@PMCCS_From
$LN8@PMCCS_From:
  00091	c7 45 fc ff ff
	ff ff		 mov	 DWORD PTR __$EHRec$[ebp+12], -1

; 203  :         }
; 204  :         catch (const Palmtree::Math::Core::Internal::Exception& ex)
; 205  :         {
; 206  :             return (ex.GetStatusCode());

  00098	8b 45 e0	 mov	 eax, DWORD PTR $T2[ebp]
$LN1@PMCCS_From:

; 208  :     }

  0009b	52		 push	 edx
  0009c	8b cd		 mov	 ecx, ebp
  0009e	50		 push	 eax
  0009f	8d 15 00 00 00
	00		 lea	 edx, DWORD PTR $LN12@PMCCS_From
  000a5	e8 00 00 00 00	 call	 @_RTC_CheckStackVars@8
  000aa	58		 pop	 eax
  000ab	5a		 pop	 edx
  000ac	8b 4d f4	 mov	 ecx, DWORD PTR __$EHRec$[ebp+4]
  000af	64 89 0d 00 00
	00 00		 mov	 DWORD PTR fs:0, ecx
  000b6	59		 pop	 ecx
  000b7	5f		 pop	 edi
  000b8	5e		 pop	 esi
  000b9	5b		 pop	 ebx
  000ba	83 c4 20	 add	 esp, 32			; 00000020H
  000bd	3b ec		 cmp	 ebp, esp
  000bf	e8 00 00 00 00	 call	 __RTC_CheckEsp
  000c4	8b e5		 mov	 esp, ebp
  000c6	5d		 pop	 ebp
  000c7	c2 0c 00	 ret	 12			; 0000000cH
  000ca	66 90		 npad	 2
$LN12@PMCCS_From:
  000cc	01 00 00 00	 DD	 1
  000d0	00 00 00 00	 DD	 $LN11@PMCCS_From
$LN11@PMCCS_From:
  000d4	e8 ff ff ff	 DD	 -24			; ffffffe8H
  000d8	04 00 00 00	 DD	 4
  000dc	00 00 00 00	 DD	 $LN9@PMCCS_From
$LN9@PMCCS_From:
  000e0	65		 DB	 101			; 00000065H
  000e1	78		 DB	 120			; 00000078H
  000e2	00		 DB	 0
_TEXT	ENDS
text$x	SEGMENT
__ehhandler$_PMCCS_FromByteArray@12:
  00000	8b 54 24 08	 mov	 edx, DWORD PTR [esp+8]
  00004	8d 42 0c	 lea	 eax, DWORD PTR [edx+12]
  00007	8b 4a dc	 mov	 ecx, DWORD PTR [edx-36]
  0000a	33 c8		 xor	 ecx, eax
  0000c	e8 00 00 00 00	 call	 @__security_check_cookie@4
  00011	b8 00 00 00 00	 mov	 eax, OFFSET __ehfuncinfo$_PMCCS_FromByteArray@12
  00016	e9 00 00 00 00	 jmp	 ___CxxFrameHandler3
text$x	ENDS
_PMCCS_FromByteArray@12 ENDP
; Function compile flags: /Odtp /RTCsu
; File z:\sources\lunor\repos\rougemeilland\palmtree.math.core.uint\palmtree.math.core.uint\pmc_interface_csharp.cpp
_TEXT	SEGMENT
$T2 = -32						; size = 4
_ex$3 = -24						; size = 4
__$EHRec$ = -16						; size = 16
_type$ = 8						; size = 4
_value$ = 12						; size = 4
_PMCCS_GetConstantValue_I@8 PROC

; 181  :     {

  00000	55		 push	 ebp
  00001	8b ec		 mov	 ebp, esp
  00003	6a ff		 push	 -1
  00005	68 00 00 00 00	 push	 __ehhandler$_PMCCS_GetConstantValue_I@8
  0000a	64 a1 00 00 00
	00		 mov	 eax, DWORD PTR fs:0
  00010	50		 push	 eax
  00011	51		 push	 ecx
  00012	83 ec 10	 sub	 esp, 16			; 00000010H
  00015	53		 push	 ebx
  00016	56		 push	 esi
  00017	57		 push	 edi
  00018	b8 cc cc cc cc	 mov	 eax, -858993460		; ccccccccH
  0001d	89 45 e0	 mov	 DWORD PTR [ebp-32], eax
  00020	89 45 e4	 mov	 DWORD PTR [ebp-28], eax
  00023	89 45 e8	 mov	 DWORD PTR [ebp-24], eax
  00026	89 45 ec	 mov	 DWORD PTR [ebp-20], eax
  00029	a1 00 00 00 00	 mov	 eax, DWORD PTR ___security_cookie
  0002e	33 c5		 xor	 eax, ebp
  00030	50		 push	 eax
  00031	8d 45 f4	 lea	 eax, DWORD PTR __$EHRec$[ebp+4]
  00034	64 a3 00 00 00
	00		 mov	 DWORD PTR fs:0, eax
  0003a	89 65 f0	 mov	 DWORD PTR __$EHRec$[ebp], esp
  0003d	b9 00 00 00 00	 mov	 ecx, OFFSET __C21BA676_pmc_interface_csharp@cpp
  00042	e8 00 00 00 00	 call	 @__CheckForDebuggerJustMyCode@4

; 182  :         if (value == nullptr)

  00047	83 7d 0c 00	 cmp	 DWORD PTR _value$[ebp], 0
  0004b	75 07		 jne	 SHORT $LN2@PMCCS_GetC

; 183  :             return (PMC_STATUS_ARGUMENT_NULL_ERROR);

  0004d	b8 fe ff ff ff	 mov	 eax, -2			; fffffffeH
  00052	eb 43		 jmp	 SHORT $LN1@PMCCS_GetC
$LN2@PMCCS_GetC:

; 184  :         try

  00054	c7 45 fc 00 00
	00 00		 mov	 DWORD PTR __$EHRec$[ebp+12], 0

; 185  :         {
; 186  :             *value = PMC_GetConstantValue_I(type);

  0005b	8b 45 08	 mov	 eax, DWORD PTR _type$[ebp]
  0005e	50		 push	 eax
  0005f	e8 00 00 00 00	 call	 ?PMC_GetConstantValue_I@Internal@Core@Math@Palmtree@@YGPAU__tag_PMC_HANDLE_UINT@1234@H@Z ; Palmtree::Math::Core::Internal::PMC_GetConstantValue_I
  00064	8b 4d 0c	 mov	 ecx, DWORD PTR _value$[ebp]
  00067	89 01		 mov	 DWORD PTR [ecx], eax

; 187  :             return (PMC_STATUS_OK);

  00069	33 c0		 xor	 eax, eax
  0006b	eb 2a		 jmp	 SHORT $LN1@PMCCS_GetC
__catch$_PMCCS_GetConstantValue_I@8$0:

; 188  :         }
; 189  :         catch (const Palmtree::Math::Core::Internal::Exception& ex)
; 190  :         {
; 191  :             return (ex.GetStatusCode());

  0006d	8b 4d e8	 mov	 ecx, DWORD PTR _ex$3[ebp]
  00070	e8 00 00 00 00	 call	 ?GetStatusCode@Exception@Internal@Core@Math@Palmtree@@QBEHXZ ; Palmtree::Math::Core::Internal::Exception::GetStatusCode
  00075	89 45 e0	 mov	 DWORD PTR $T2[ebp], eax
  00078	b8 00 00 00 00	 mov	 eax, $LN8@PMCCS_GetC
  0007d	c3		 ret	 0

; 192  :         }

  0007e	b8 00 00 00 00	 mov	 eax, __tryend$_PMCCS_GetConstantValue_I@8$1
  00083	c3		 ret	 0
__tryend$_PMCCS_GetConstantValue_I@8$1:
  00084	c7 45 fc ff ff
	ff ff		 mov	 DWORD PTR __$EHRec$[ebp+12], -1
  0008b	eb 0a		 jmp	 SHORT $LN1@PMCCS_GetC
$LN8@PMCCS_GetC:
  0008d	c7 45 fc ff ff
	ff ff		 mov	 DWORD PTR __$EHRec$[ebp+12], -1

; 188  :         }
; 189  :         catch (const Palmtree::Math::Core::Internal::Exception& ex)
; 190  :         {
; 191  :             return (ex.GetStatusCode());

  00094	8b 45 e0	 mov	 eax, DWORD PTR $T2[ebp]
$LN1@PMCCS_GetC:

; 193  :     }

  00097	52		 push	 edx
  00098	8b cd		 mov	 ecx, ebp
  0009a	50		 push	 eax
  0009b	8d 15 00 00 00
	00		 lea	 edx, DWORD PTR $LN12@PMCCS_GetC
  000a1	e8 00 00 00 00	 call	 @_RTC_CheckStackVars@8
  000a6	58		 pop	 eax
  000a7	5a		 pop	 edx
  000a8	8b 4d f4	 mov	 ecx, DWORD PTR __$EHRec$[ebp+4]
  000ab	64 89 0d 00 00
	00 00		 mov	 DWORD PTR fs:0, ecx
  000b2	59		 pop	 ecx
  000b3	5f		 pop	 edi
  000b4	5e		 pop	 esi
  000b5	5b		 pop	 ebx
  000b6	83 c4 20	 add	 esp, 32			; 00000020H
  000b9	3b ec		 cmp	 ebp, esp
  000bb	e8 00 00 00 00	 call	 __RTC_CheckEsp
  000c0	8b e5		 mov	 esp, ebp
  000c2	5d		 pop	 ebp
  000c3	c2 08 00	 ret	 8
  000c6	66 90		 npad	 2
$LN12@PMCCS_GetC:
  000c8	01 00 00 00	 DD	 1
  000cc	00 00 00 00	 DD	 $LN11@PMCCS_GetC
$LN11@PMCCS_GetC:
  000d0	e8 ff ff ff	 DD	 -24			; ffffffe8H
  000d4	04 00 00 00	 DD	 4
  000d8	00 00 00 00	 DD	 $LN9@PMCCS_GetC
$LN9@PMCCS_GetC:
  000dc	65		 DB	 101			; 00000065H
  000dd	78		 DB	 120			; 00000078H
  000de	00		 DB	 0
_TEXT	ENDS
text$x	SEGMENT
__ehhandler$_PMCCS_GetConstantValue_I@8:
  00000	8b 54 24 08	 mov	 edx, DWORD PTR [esp+8]
  00004	8d 42 0c	 lea	 eax, DWORD PTR [edx+12]
  00007	8b 4a dc	 mov	 ecx, DWORD PTR [edx-36]
  0000a	33 c8		 xor	 ecx, eax
  0000c	e8 00 00 00 00	 call	 @__security_check_cookie@4
  00011	b8 00 00 00 00	 mov	 eax, OFFSET __ehfuncinfo$_PMCCS_GetConstantValue_I@8
  00016	e9 00 00 00 00	 jmp	 ___CxxFrameHandler3
text$x	ENDS
_PMCCS_GetConstantValue_I@8 ENDP
; Function compile flags: /Odtp /RTCsu
; File z:\sources\lunor\repos\rougemeilland\palmtree.math.core.uint\palmtree.math.core.uint\pmc_interface_csharp.cpp
_TEXT	SEGMENT
$T2 = -32						; size = 4
_ex$3 = -24						; size = 4
__$EHRec$ = -16						; size = 16
_p$ = 8							; size = 4
_PMCCS_Dispose@4 PROC

; 166  :     {

  00000	55		 push	 ebp
  00001	8b ec		 mov	 ebp, esp
  00003	6a ff		 push	 -1
  00005	68 00 00 00 00	 push	 __ehhandler$_PMCCS_Dispose@4
  0000a	64 a1 00 00 00
	00		 mov	 eax, DWORD PTR fs:0
  00010	50		 push	 eax
  00011	51		 push	 ecx
  00012	83 ec 10	 sub	 esp, 16			; 00000010H
  00015	53		 push	 ebx
  00016	56		 push	 esi
  00017	57		 push	 edi
  00018	b8 cc cc cc cc	 mov	 eax, -858993460		; ccccccccH
  0001d	89 45 e0	 mov	 DWORD PTR [ebp-32], eax
  00020	89 45 e4	 mov	 DWORD PTR [ebp-28], eax
  00023	89 45 e8	 mov	 DWORD PTR [ebp-24], eax
  00026	89 45 ec	 mov	 DWORD PTR [ebp-20], eax
  00029	a1 00 00 00 00	 mov	 eax, DWORD PTR ___security_cookie
  0002e	33 c5		 xor	 eax, ebp
  00030	50		 push	 eax
  00031	8d 45 f4	 lea	 eax, DWORD PTR __$EHRec$[ebp+4]
  00034	64 a3 00 00 00
	00		 mov	 DWORD PTR fs:0, eax
  0003a	89 65 f0	 mov	 DWORD PTR __$EHRec$[ebp], esp
  0003d	b9 00 00 00 00	 mov	 ecx, OFFSET __C21BA676_pmc_interface_csharp@cpp
  00042	e8 00 00 00 00	 call	 @__CheckForDebuggerJustMyCode@4

; 167  :         if (p == nullptr)

  00047	83 7d 08 00	 cmp	 DWORD PTR _p$[ebp], 0
  0004b	75 07		 jne	 SHORT $LN2@PMCCS_Disp

; 168  :             return (PMC_STATUS_ARGUMENT_NULL_ERROR);

  0004d	b8 fe ff ff ff	 mov	 eax, -2			; fffffffeH
  00052	eb 3e		 jmp	 SHORT $LN1@PMCCS_Disp
$LN2@PMCCS_Disp:

; 169  :         try

  00054	c7 45 fc 00 00
	00 00		 mov	 DWORD PTR __$EHRec$[ebp+12], 0

; 170  :         {
; 171  :             PMC_Dispose(p);

  0005b	8b 45 08	 mov	 eax, DWORD PTR _p$[ebp]
  0005e	50		 push	 eax
  0005f	e8 00 00 00 00	 call	 ?PMC_Dispose@Internal@Core@Math@Palmtree@@YGXPAU__tag_PMC_HANDLE_UINT@1234@@Z ; Palmtree::Math::Core::Internal::PMC_Dispose

; 172  :             return (PMC_STATUS_OK);

  00064	33 c0		 xor	 eax, eax
  00066	eb 2a		 jmp	 SHORT $LN1@PMCCS_Disp
__catch$_PMCCS_Dispose@4$0:

; 173  :         }
; 174  :         catch (const Palmtree::Math::Core::Internal::Exception& ex)
; 175  :         {
; 176  :             return (ex.GetStatusCode());

  00068	8b 4d e8	 mov	 ecx, DWORD PTR _ex$3[ebp]
  0006b	e8 00 00 00 00	 call	 ?GetStatusCode@Exception@Internal@Core@Math@Palmtree@@QBEHXZ ; Palmtree::Math::Core::Internal::Exception::GetStatusCode
  00070	89 45 e0	 mov	 DWORD PTR $T2[ebp], eax
  00073	b8 00 00 00 00	 mov	 eax, $LN8@PMCCS_Disp
  00078	c3		 ret	 0

; 177  :         }

  00079	b8 00 00 00 00	 mov	 eax, __tryend$_PMCCS_Dispose@4$1
  0007e	c3		 ret	 0
__tryend$_PMCCS_Dispose@4$1:
  0007f	c7 45 fc ff ff
	ff ff		 mov	 DWORD PTR __$EHRec$[ebp+12], -1
  00086	eb 0a		 jmp	 SHORT $LN1@PMCCS_Disp
$LN8@PMCCS_Disp:
  00088	c7 45 fc ff ff
	ff ff		 mov	 DWORD PTR __$EHRec$[ebp+12], -1

; 173  :         }
; 174  :         catch (const Palmtree::Math::Core::Internal::Exception& ex)
; 175  :         {
; 176  :             return (ex.GetStatusCode());

  0008f	8b 45 e0	 mov	 eax, DWORD PTR $T2[ebp]
$LN1@PMCCS_Disp:

; 178  :     }

  00092	52		 push	 edx
  00093	8b cd		 mov	 ecx, ebp
  00095	50		 push	 eax
  00096	8d 15 00 00 00
	00		 lea	 edx, DWORD PTR $LN12@PMCCS_Disp
  0009c	e8 00 00 00 00	 call	 @_RTC_CheckStackVars@8
  000a1	58		 pop	 eax
  000a2	5a		 pop	 edx
  000a3	8b 4d f4	 mov	 ecx, DWORD PTR __$EHRec$[ebp+4]
  000a6	64 89 0d 00 00
	00 00		 mov	 DWORD PTR fs:0, ecx
  000ad	59		 pop	 ecx
  000ae	5f		 pop	 edi
  000af	5e		 pop	 esi
  000b0	5b		 pop	 ebx
  000b1	83 c4 20	 add	 esp, 32			; 00000020H
  000b4	3b ec		 cmp	 ebp, esp
  000b6	e8 00 00 00 00	 call	 __RTC_CheckEsp
  000bb	8b e5		 mov	 esp, ebp
  000bd	5d		 pop	 ebp
  000be	c2 04 00	 ret	 4
  000c1	0f 1f 00	 npad	 3
$LN12@PMCCS_Disp:
  000c4	01 00 00 00	 DD	 1
  000c8	00 00 00 00	 DD	 $LN11@PMCCS_Disp
$LN11@PMCCS_Disp:
  000cc	e8 ff ff ff	 DD	 -24			; ffffffe8H
  000d0	04 00 00 00	 DD	 4
  000d4	00 00 00 00	 DD	 $LN9@PMCCS_Disp
$LN9@PMCCS_Disp:
  000d8	65		 DB	 101			; 00000065H
  000d9	78		 DB	 120			; 00000078H
  000da	00		 DB	 0
_TEXT	ENDS
text$x	SEGMENT
__ehhandler$_PMCCS_Dispose@4:
  00000	8b 54 24 08	 mov	 edx, DWORD PTR [esp+8]
  00004	8d 42 0c	 lea	 eax, DWORD PTR [edx+12]
  00007	8b 4a dc	 mov	 ecx, DWORD PTR [edx-36]
  0000a	33 c8		 xor	 ecx, eax
  0000c	e8 00 00 00 00	 call	 @__security_check_cookie@4
  00011	b8 00 00 00 00	 mov	 eax, OFFSET __ehfuncinfo$_PMCCS_Dispose@4
  00016	e9 00 00 00 00	 jmp	 ___CxxFrameHandler3
text$x	ENDS
_PMCCS_Dispose@4 ENDP
; Function compile flags: /Odtp /RTCsu
; File z:\sources\lunor\repos\rougemeilland\palmtree.math.core.uint\palmtree.math.core.uint\pmc_interface_csharp.cpp
_TEXT	SEGMENT
$T2 = -32						; size = 4
_ex$3 = -24						; size = 4
__$EHRec$ = -16						; size = 16
_x$ = 8							; size = 8
_o$ = 16						; size = 4
_PMCCS_From_L@12 PROC

; 151  :     {

  00000	55		 push	 ebp
  00001	8b ec		 mov	 ebp, esp
  00003	6a ff		 push	 -1
  00005	68 00 00 00 00	 push	 __ehhandler$_PMCCS_From_L@12
  0000a	64 a1 00 00 00
	00		 mov	 eax, DWORD PTR fs:0
  00010	50		 push	 eax
  00011	51		 push	 ecx
  00012	83 ec 10	 sub	 esp, 16			; 00000010H
  00015	53		 push	 ebx
  00016	56		 push	 esi
  00017	57		 push	 edi
  00018	b8 cc cc cc cc	 mov	 eax, -858993460		; ccccccccH
  0001d	89 45 e0	 mov	 DWORD PTR [ebp-32], eax
  00020	89 45 e4	 mov	 DWORD PTR [ebp-28], eax
  00023	89 45 e8	 mov	 DWORD PTR [ebp-24], eax
  00026	89 45 ec	 mov	 DWORD PTR [ebp-20], eax
  00029	a1 00 00 00 00	 mov	 eax, DWORD PTR ___security_cookie
  0002e	33 c5		 xor	 eax, ebp
  00030	50		 push	 eax
  00031	8d 45 f4	 lea	 eax, DWORD PTR __$EHRec$[ebp+4]
  00034	64 a3 00 00 00
	00		 mov	 DWORD PTR fs:0, eax
  0003a	89 65 f0	 mov	 DWORD PTR __$EHRec$[ebp], esp
  0003d	b9 00 00 00 00	 mov	 ecx, OFFSET __C21BA676_pmc_interface_csharp@cpp
  00042	e8 00 00 00 00	 call	 @__CheckForDebuggerJustMyCode@4

; 152  :         if (o == nullptr)

  00047	83 7d 10 00	 cmp	 DWORD PTR _o$[ebp], 0
  0004b	75 07		 jne	 SHORT $LN2@PMCCS_From

; 153  :             return (PMC_STATUS_ARGUMENT_NULL_ERROR);

  0004d	b8 fe ff ff ff	 mov	 eax, -2			; fffffffeH
  00052	eb 47		 jmp	 SHORT $LN1@PMCCS_From
$LN2@PMCCS_From:

; 154  :         try

  00054	c7 45 fc 00 00
	00 00		 mov	 DWORD PTR __$EHRec$[ebp+12], 0

; 155  :         {
; 156  :             *o = PMC_From_L(x);

  0005b	8b 45 0c	 mov	 eax, DWORD PTR _x$[ebp+4]
  0005e	50		 push	 eax
  0005f	8b 4d 08	 mov	 ecx, DWORD PTR _x$[ebp]
  00062	51		 push	 ecx
  00063	e8 00 00 00 00	 call	 ?PMC_From_L@Internal@Core@Math@Palmtree@@YGPAU__tag_PMC_HANDLE_UINT@1234@_K@Z ; Palmtree::Math::Core::Internal::PMC_From_L
  00068	8b 55 10	 mov	 edx, DWORD PTR _o$[ebp]
  0006b	89 02		 mov	 DWORD PTR [edx], eax

; 157  :             return (PMC_STATUS_OK);

  0006d	33 c0		 xor	 eax, eax
  0006f	eb 2a		 jmp	 SHORT $LN1@PMCCS_From
__catch$_PMCCS_From_L@12$0:

; 158  :         }
; 159  :         catch (const Palmtree::Math::Core::Internal::Exception& ex)
; 160  :         {
; 161  :             return (ex.GetStatusCode());

  00071	8b 4d e8	 mov	 ecx, DWORD PTR _ex$3[ebp]
  00074	e8 00 00 00 00	 call	 ?GetStatusCode@Exception@Internal@Core@Math@Palmtree@@QBEHXZ ; Palmtree::Math::Core::Internal::Exception::GetStatusCode
  00079	89 45 e0	 mov	 DWORD PTR $T2[ebp], eax
  0007c	b8 00 00 00 00	 mov	 eax, $LN8@PMCCS_From
  00081	c3		 ret	 0

; 162  :         }

  00082	b8 00 00 00 00	 mov	 eax, __tryend$_PMCCS_From_L@12$1
  00087	c3		 ret	 0
__tryend$_PMCCS_From_L@12$1:
  00088	c7 45 fc ff ff
	ff ff		 mov	 DWORD PTR __$EHRec$[ebp+12], -1
  0008f	eb 0a		 jmp	 SHORT $LN1@PMCCS_From
$LN8@PMCCS_From:
  00091	c7 45 fc ff ff
	ff ff		 mov	 DWORD PTR __$EHRec$[ebp+12], -1

; 158  :         }
; 159  :         catch (const Palmtree::Math::Core::Internal::Exception& ex)
; 160  :         {
; 161  :             return (ex.GetStatusCode());

  00098	8b 45 e0	 mov	 eax, DWORD PTR $T2[ebp]
$LN1@PMCCS_From:

; 163  :     }

  0009b	52		 push	 edx
  0009c	8b cd		 mov	 ecx, ebp
  0009e	50		 push	 eax
  0009f	8d 15 00 00 00
	00		 lea	 edx, DWORD PTR $LN12@PMCCS_From
  000a5	e8 00 00 00 00	 call	 @_RTC_CheckStackVars@8
  000aa	58		 pop	 eax
  000ab	5a		 pop	 edx
  000ac	8b 4d f4	 mov	 ecx, DWORD PTR __$EHRec$[ebp+4]
  000af	64 89 0d 00 00
	00 00		 mov	 DWORD PTR fs:0, ecx
  000b6	59		 pop	 ecx
  000b7	5f		 pop	 edi
  000b8	5e		 pop	 esi
  000b9	5b		 pop	 ebx
  000ba	83 c4 20	 add	 esp, 32			; 00000020H
  000bd	3b ec		 cmp	 ebp, esp
  000bf	e8 00 00 00 00	 call	 __RTC_CheckEsp
  000c4	8b e5		 mov	 esp, ebp
  000c6	5d		 pop	 ebp
  000c7	c2 0c 00	 ret	 12			; 0000000cH
  000ca	66 90		 npad	 2
$LN12@PMCCS_From:
  000cc	01 00 00 00	 DD	 1
  000d0	00 00 00 00	 DD	 $LN11@PMCCS_From
$LN11@PMCCS_From:
  000d4	e8 ff ff ff	 DD	 -24			; ffffffe8H
  000d8	04 00 00 00	 DD	 4
  000dc	00 00 00 00	 DD	 $LN9@PMCCS_From
$LN9@PMCCS_From:
  000e0	65		 DB	 101			; 00000065H
  000e1	78		 DB	 120			; 00000078H
  000e2	00		 DB	 0
_TEXT	ENDS
text$x	SEGMENT
__ehhandler$_PMCCS_From_L@12:
  00000	8b 54 24 08	 mov	 edx, DWORD PTR [esp+8]
  00004	8d 42 0c	 lea	 eax, DWORD PTR [edx+12]
  00007	8b 4a dc	 mov	 ecx, DWORD PTR [edx-36]
  0000a	33 c8		 xor	 ecx, eax
  0000c	e8 00 00 00 00	 call	 @__security_check_cookie@4
  00011	b8 00 00 00 00	 mov	 eax, OFFSET __ehfuncinfo$_PMCCS_From_L@12
  00016	e9 00 00 00 00	 jmp	 ___CxxFrameHandler3
text$x	ENDS
_PMCCS_From_L@12 ENDP
; Function compile flags: /Odtp /RTCsu
; File z:\sources\lunor\repos\rougemeilland\palmtree.math.core.uint\palmtree.math.core.uint\pmc_interface_csharp.cpp
_TEXT	SEGMENT
$T2 = -32						; size = 4
_ex$3 = -24						; size = 4
__$EHRec$ = -16						; size = 16
_x$ = 8							; size = 4
_o$ = 12						; size = 4
_PMCCS_From_I@8 PROC

; 136  :     {

  00000	55		 push	 ebp
  00001	8b ec		 mov	 ebp, esp
  00003	6a ff		 push	 -1
  00005	68 00 00 00 00	 push	 __ehhandler$_PMCCS_From_I@8
  0000a	64 a1 00 00 00
	00		 mov	 eax, DWORD PTR fs:0
  00010	50		 push	 eax
  00011	51		 push	 ecx
  00012	83 ec 10	 sub	 esp, 16			; 00000010H
  00015	53		 push	 ebx
  00016	56		 push	 esi
  00017	57		 push	 edi
  00018	b8 cc cc cc cc	 mov	 eax, -858993460		; ccccccccH
  0001d	89 45 e0	 mov	 DWORD PTR [ebp-32], eax
  00020	89 45 e4	 mov	 DWORD PTR [ebp-28], eax
  00023	89 45 e8	 mov	 DWORD PTR [ebp-24], eax
  00026	89 45 ec	 mov	 DWORD PTR [ebp-20], eax
  00029	a1 00 00 00 00	 mov	 eax, DWORD PTR ___security_cookie
  0002e	33 c5		 xor	 eax, ebp
  00030	50		 push	 eax
  00031	8d 45 f4	 lea	 eax, DWORD PTR __$EHRec$[ebp+4]
  00034	64 a3 00 00 00
	00		 mov	 DWORD PTR fs:0, eax
  0003a	89 65 f0	 mov	 DWORD PTR __$EHRec$[ebp], esp
  0003d	b9 00 00 00 00	 mov	 ecx, OFFSET __C21BA676_pmc_interface_csharp@cpp
  00042	e8 00 00 00 00	 call	 @__CheckForDebuggerJustMyCode@4

; 137  :         if (o == nullptr)

  00047	83 7d 0c 00	 cmp	 DWORD PTR _o$[ebp], 0
  0004b	75 07		 jne	 SHORT $LN2@PMCCS_From

; 138  :             return (PMC_STATUS_ARGUMENT_NULL_ERROR);

  0004d	b8 fe ff ff ff	 mov	 eax, -2			; fffffffeH
  00052	eb 43		 jmp	 SHORT $LN1@PMCCS_From
$LN2@PMCCS_From:

; 139  :         try

  00054	c7 45 fc 00 00
	00 00		 mov	 DWORD PTR __$EHRec$[ebp+12], 0

; 140  :         {
; 141  :             *o = PMC_From_I(x);

  0005b	8b 45 08	 mov	 eax, DWORD PTR _x$[ebp]
  0005e	50		 push	 eax
  0005f	e8 00 00 00 00	 call	 ?PMC_From_I@Internal@Core@Math@Palmtree@@YGPAU__tag_PMC_HANDLE_UINT@1234@I@Z ; Palmtree::Math::Core::Internal::PMC_From_I
  00064	8b 4d 0c	 mov	 ecx, DWORD PTR _o$[ebp]
  00067	89 01		 mov	 DWORD PTR [ecx], eax

; 142  :             return (PMC_STATUS_OK);

  00069	33 c0		 xor	 eax, eax
  0006b	eb 2a		 jmp	 SHORT $LN1@PMCCS_From
__catch$_PMCCS_From_I@8$0:

; 143  :         }
; 144  :         catch (const Palmtree::Math::Core::Internal::Exception& ex)
; 145  :         {
; 146  :             return (ex.GetStatusCode());

  0006d	8b 4d e8	 mov	 ecx, DWORD PTR _ex$3[ebp]
  00070	e8 00 00 00 00	 call	 ?GetStatusCode@Exception@Internal@Core@Math@Palmtree@@QBEHXZ ; Palmtree::Math::Core::Internal::Exception::GetStatusCode
  00075	89 45 e0	 mov	 DWORD PTR $T2[ebp], eax
  00078	b8 00 00 00 00	 mov	 eax, $LN8@PMCCS_From
  0007d	c3		 ret	 0

; 147  :         }

  0007e	b8 00 00 00 00	 mov	 eax, __tryend$_PMCCS_From_I@8$1
  00083	c3		 ret	 0
__tryend$_PMCCS_From_I@8$1:
  00084	c7 45 fc ff ff
	ff ff		 mov	 DWORD PTR __$EHRec$[ebp+12], -1
  0008b	eb 0a		 jmp	 SHORT $LN1@PMCCS_From
$LN8@PMCCS_From:
  0008d	c7 45 fc ff ff
	ff ff		 mov	 DWORD PTR __$EHRec$[ebp+12], -1

; 143  :         }
; 144  :         catch (const Palmtree::Math::Core::Internal::Exception& ex)
; 145  :         {
; 146  :             return (ex.GetStatusCode());

  00094	8b 45 e0	 mov	 eax, DWORD PTR $T2[ebp]
$LN1@PMCCS_From:

; 148  :     }

  00097	52		 push	 edx
  00098	8b cd		 mov	 ecx, ebp
  0009a	50		 push	 eax
  0009b	8d 15 00 00 00
	00		 lea	 edx, DWORD PTR $LN12@PMCCS_From
  000a1	e8 00 00 00 00	 call	 @_RTC_CheckStackVars@8
  000a6	58		 pop	 eax
  000a7	5a		 pop	 edx
  000a8	8b 4d f4	 mov	 ecx, DWORD PTR __$EHRec$[ebp+4]
  000ab	64 89 0d 00 00
	00 00		 mov	 DWORD PTR fs:0, ecx
  000b2	59		 pop	 ecx
  000b3	5f		 pop	 edi
  000b4	5e		 pop	 esi
  000b5	5b		 pop	 ebx
  000b6	83 c4 20	 add	 esp, 32			; 00000020H
  000b9	3b ec		 cmp	 ebp, esp
  000bb	e8 00 00 00 00	 call	 __RTC_CheckEsp
  000c0	8b e5		 mov	 esp, ebp
  000c2	5d		 pop	 ebp
  000c3	c2 08 00	 ret	 8
  000c6	66 90		 npad	 2
$LN12@PMCCS_From:
  000c8	01 00 00 00	 DD	 1
  000cc	00 00 00 00	 DD	 $LN11@PMCCS_From
$LN11@PMCCS_From:
  000d0	e8 ff ff ff	 DD	 -24			; ffffffe8H
  000d4	04 00 00 00	 DD	 4
  000d8	00 00 00 00	 DD	 $LN9@PMCCS_From
$LN9@PMCCS_From:
  000dc	65		 DB	 101			; 00000065H
  000dd	78		 DB	 120			; 00000078H
  000de	00		 DB	 0
_TEXT	ENDS
text$x	SEGMENT
__ehhandler$_PMCCS_From_I@8:
  00000	8b 54 24 08	 mov	 edx, DWORD PTR [esp+8]
  00004	8d 42 0c	 lea	 eax, DWORD PTR [edx+12]
  00007	8b 4a dc	 mov	 ecx, DWORD PTR [edx-36]
  0000a	33 c8		 xor	 ecx, eax
  0000c	e8 00 00 00 00	 call	 @__security_check_cookie@4
  00011	b8 00 00 00 00	 mov	 eax, OFFSET __ehfuncinfo$_PMCCS_From_I@8
  00016	e9 00 00 00 00	 jmp	 ___CxxFrameHandler3
text$x	ENDS
_PMCCS_From_I@8 ENDP
; Function compile flags: /Odtp /RTCsu
; File z:\sources\lunor\repos\rougemeilland\palmtree.math.core.uint\palmtree.math.core.uint\pmc_interface_csharp.cpp
_TEXT	SEGMENT
_p$ = 8							; size = 4
_PMCCS_GetStatisticsInfo@4 PROC

; 131  :     {

  00000	55		 push	 ebp
  00001	8b ec		 mov	 ebp, esp
  00003	b9 00 00 00 00	 mov	 ecx, OFFSET __C21BA676_pmc_interface_csharp@cpp
  00008	e8 00 00 00 00	 call	 @__CheckForDebuggerJustMyCode@4

; 132  :         PMC_GetStatisticsInfo(p);

  0000d	8b 45 08	 mov	 eax, DWORD PTR _p$[ebp]
  00010	50		 push	 eax
  00011	e8 00 00 00 00	 call	 ?PMC_GetStatisticsInfo@Internal@Core@Math@Palmtree@@YGXPAU__tag_PMC_STATISTICS_INFO@1234@@Z ; Palmtree::Math::Core::Internal::PMC_GetStatisticsInfo

; 133  :     }

  00016	3b ec		 cmp	 ebp, esp
  00018	e8 00 00 00 00	 call	 __RTC_CheckEsp
  0001d	5d		 pop	 ebp
  0001e	c2 04 00	 ret	 4
_PMCCS_GetStatisticsInfo@4 ENDP
_TEXT	ENDS
; Function compile flags: /Odtp /RTCsu
; File z:\sources\lunor\repos\rougemeilland\palmtree.math.core.uint\palmtree.math.core.uint\pmc_interface_csharp.cpp
_TEXT	SEGMENT
$T2 = -32						; size = 4
_ex$3 = -24						; size = 4
__$EHRec$ = -16						; size = 16
_p$ = 8							; size = 4
_r$ = 12						; size = 4
_PMCCS_GET_HASH_CODE@8 PROC

; 114  :     {

  00000	55		 push	 ebp
  00001	8b ec		 mov	 ebp, esp
  00003	6a ff		 push	 -1
  00005	68 00 00 00 00	 push	 __ehhandler$_PMCCS_GET_HASH_CODE@8
  0000a	64 a1 00 00 00
	00		 mov	 eax, DWORD PTR fs:0
  00010	50		 push	 eax
  00011	51		 push	 ecx
  00012	83 ec 10	 sub	 esp, 16			; 00000010H
  00015	53		 push	 ebx
  00016	56		 push	 esi
  00017	57		 push	 edi
  00018	b8 cc cc cc cc	 mov	 eax, -858993460		; ccccccccH
  0001d	89 45 e0	 mov	 DWORD PTR [ebp-32], eax
  00020	89 45 e4	 mov	 DWORD PTR [ebp-28], eax
  00023	89 45 e8	 mov	 DWORD PTR [ebp-24], eax
  00026	89 45 ec	 mov	 DWORD PTR [ebp-20], eax
  00029	a1 00 00 00 00	 mov	 eax, DWORD PTR ___security_cookie
  0002e	33 c5		 xor	 eax, ebp
  00030	50		 push	 eax
  00031	8d 45 f4	 lea	 eax, DWORD PTR __$EHRec$[ebp+4]
  00034	64 a3 00 00 00
	00		 mov	 DWORD PTR fs:0, eax
  0003a	89 65 f0	 mov	 DWORD PTR __$EHRec$[ebp], esp
  0003d	b9 00 00 00 00	 mov	 ecx, OFFSET __C21BA676_pmc_interface_csharp@cpp
  00042	e8 00 00 00 00	 call	 @__CheckForDebuggerJustMyCode@4

; 115  :         if (p == nullptr)

  00047	83 7d 08 00	 cmp	 DWORD PTR _p$[ebp], 0
  0004b	75 07		 jne	 SHORT $LN2@PMCCS_GET_

; 116  :             return (PMC_STATUS_ARGUMENT_NULL_ERROR);

  0004d	b8 fe ff ff ff	 mov	 eax, -2			; fffffffeH
  00052	eb 4c		 jmp	 SHORT $LN1@PMCCS_GET_
$LN2@PMCCS_GET_:

; 117  :         if (r == nullptr)

  00054	83 7d 0c 00	 cmp	 DWORD PTR _r$[ebp], 0
  00058	75 07		 jne	 SHORT $LN3@PMCCS_GET_

; 118  :             return (PMC_STATUS_ARGUMENT_NULL_ERROR);

  0005a	b8 fe ff ff ff	 mov	 eax, -2			; fffffffeH
  0005f	eb 3f		 jmp	 SHORT $LN1@PMCCS_GET_
$LN3@PMCCS_GET_:

; 119  :         try

  00061	c7 45 fc 00 00
	00 00		 mov	 DWORD PTR __$EHRec$[ebp+12], 0

; 120  :         {
; 121  :             *r = (_INT32_T)p->HASH_CODE;

  00068	8b 45 0c	 mov	 eax, DWORD PTR _r$[ebp]
  0006b	8b 4d 08	 mov	 ecx, DWORD PTR _p$[ebp]
  0006e	8b 11		 mov	 edx, DWORD PTR [ecx]
  00070	89 10		 mov	 DWORD PTR [eax], edx

; 122  :             return (PMC_STATUS_OK);

  00072	33 c0		 xor	 eax, eax
  00074	eb 2a		 jmp	 SHORT $LN1@PMCCS_GET_
__catch$_PMCCS_GET_HASH_CODE@8$0:

; 123  :         }
; 124  :         catch (const Palmtree::Math::Core::Internal::Exception& ex)
; 125  :         {
; 126  :             return (ex.GetStatusCode());

  00076	8b 4d e8	 mov	 ecx, DWORD PTR _ex$3[ebp]
  00079	e8 00 00 00 00	 call	 ?GetStatusCode@Exception@Internal@Core@Math@Palmtree@@QBEHXZ ; Palmtree::Math::Core::Internal::Exception::GetStatusCode
  0007e	89 45 e0	 mov	 DWORD PTR $T2[ebp], eax
  00081	b8 00 00 00 00	 mov	 eax, $LN9@PMCCS_GET_
  00086	c3		 ret	 0

; 127  :         }

  00087	b8 00 00 00 00	 mov	 eax, __tryend$_PMCCS_GET_HASH_CODE@8$1
  0008c	c3		 ret	 0
__tryend$_PMCCS_GET_HASH_CODE@8$1:
  0008d	c7 45 fc ff ff
	ff ff		 mov	 DWORD PTR __$EHRec$[ebp+12], -1
  00094	eb 0a		 jmp	 SHORT $LN1@PMCCS_GET_
$LN9@PMCCS_GET_:
  00096	c7 45 fc ff ff
	ff ff		 mov	 DWORD PTR __$EHRec$[ebp+12], -1

; 123  :         }
; 124  :         catch (const Palmtree::Math::Core::Internal::Exception& ex)
; 125  :         {
; 126  :             return (ex.GetStatusCode());

  0009d	8b 45 e0	 mov	 eax, DWORD PTR $T2[ebp]
$LN1@PMCCS_GET_:

; 128  :     }

  000a0	52		 push	 edx
  000a1	8b cd		 mov	 ecx, ebp
  000a3	50		 push	 eax
  000a4	8d 15 00 00 00
	00		 lea	 edx, DWORD PTR $LN13@PMCCS_GET_
  000aa	e8 00 00 00 00	 call	 @_RTC_CheckStackVars@8
  000af	58		 pop	 eax
  000b0	5a		 pop	 edx
  000b1	8b 4d f4	 mov	 ecx, DWORD PTR __$EHRec$[ebp+4]
  000b4	64 89 0d 00 00
	00 00		 mov	 DWORD PTR fs:0, ecx
  000bb	59		 pop	 ecx
  000bc	5f		 pop	 edi
  000bd	5e		 pop	 esi
  000be	5b		 pop	 ebx
  000bf	83 c4 20	 add	 esp, 32			; 00000020H
  000c2	3b ec		 cmp	 ebp, esp
  000c4	e8 00 00 00 00	 call	 __RTC_CheckEsp
  000c9	8b e5		 mov	 esp, ebp
  000cb	5d		 pop	 ebp
  000cc	c2 08 00	 ret	 8
  000cf	90		 npad	 1
$LN13@PMCCS_GET_:
  000d0	01 00 00 00	 DD	 1
  000d4	00 00 00 00	 DD	 $LN12@PMCCS_GET_
$LN12@PMCCS_GET_:
  000d8	e8 ff ff ff	 DD	 -24			; ffffffe8H
  000dc	04 00 00 00	 DD	 4
  000e0	00 00 00 00	 DD	 $LN10@PMCCS_GET_
$LN10@PMCCS_GET_:
  000e4	65		 DB	 101			; 00000065H
  000e5	78		 DB	 120			; 00000078H
  000e6	00		 DB	 0
_TEXT	ENDS
text$x	SEGMENT
__ehhandler$_PMCCS_GET_HASH_CODE@8:
  00000	8b 54 24 08	 mov	 edx, DWORD PTR [esp+8]
  00004	8d 42 0c	 lea	 eax, DWORD PTR [edx+12]
  00007	8b 4a dc	 mov	 ecx, DWORD PTR [edx-36]
  0000a	33 c8		 xor	 ecx, eax
  0000c	e8 00 00 00 00	 call	 @__security_check_cookie@4
  00011	b8 00 00 00 00	 mov	 eax, OFFSET __ehfuncinfo$_PMCCS_GET_HASH_CODE@8
  00016	e9 00 00 00 00	 jmp	 ___CxxFrameHandler3
text$x	ENDS
_PMCCS_GET_HASH_CODE@8 ENDP
; Function compile flags: /Odtp /RTCsu
; File z:\sources\lunor\repos\rougemeilland\palmtree.math.core.uint\palmtree.math.core.uint\pmc_interface_csharp.cpp
_TEXT	SEGMENT
$T2 = -32						; size = 4
_ex$3 = -24						; size = 4
__$EHRec$ = -16						; size = 16
_p$ = 8							; size = 4
_r$ = 12						; size = 4
_PMCCS_IS_ZERO@8 PROC

; 97   :     {

  00000	55		 push	 ebp
  00001	8b ec		 mov	 ebp, esp
  00003	6a ff		 push	 -1
  00005	68 00 00 00 00	 push	 __ehhandler$_PMCCS_IS_ZERO@8
  0000a	64 a1 00 00 00
	00		 mov	 eax, DWORD PTR fs:0
  00010	50		 push	 eax
  00011	51		 push	 ecx
  00012	83 ec 10	 sub	 esp, 16			; 00000010H
  00015	53		 push	 ebx
  00016	56		 push	 esi
  00017	57		 push	 edi
  00018	b8 cc cc cc cc	 mov	 eax, -858993460		; ccccccccH
  0001d	89 45 e0	 mov	 DWORD PTR [ebp-32], eax
  00020	89 45 e4	 mov	 DWORD PTR [ebp-28], eax
  00023	89 45 e8	 mov	 DWORD PTR [ebp-24], eax
  00026	89 45 ec	 mov	 DWORD PTR [ebp-20], eax
  00029	a1 00 00 00 00	 mov	 eax, DWORD PTR ___security_cookie
  0002e	33 c5		 xor	 eax, ebp
  00030	50		 push	 eax
  00031	8d 45 f4	 lea	 eax, DWORD PTR __$EHRec$[ebp+4]
  00034	64 a3 00 00 00
	00		 mov	 DWORD PTR fs:0, eax
  0003a	89 65 f0	 mov	 DWORD PTR __$EHRec$[ebp], esp
  0003d	b9 00 00 00 00	 mov	 ecx, OFFSET __C21BA676_pmc_interface_csharp@cpp
  00042	e8 00 00 00 00	 call	 @__CheckForDebuggerJustMyCode@4

; 98   :         if (p == nullptr)

  00047	83 7d 08 00	 cmp	 DWORD PTR _p$[ebp], 0
  0004b	75 07		 jne	 SHORT $LN2@PMCCS_IS_Z

; 99   :             return (PMC_STATUS_ARGUMENT_NULL_ERROR);

  0004d	b8 fe ff ff ff	 mov	 eax, -2			; fffffffeH
  00052	eb 50		 jmp	 SHORT $LN1@PMCCS_IS_Z
$LN2@PMCCS_IS_Z:

; 100  :         if (r == nullptr)

  00054	83 7d 0c 00	 cmp	 DWORD PTR _r$[ebp], 0
  00058	75 07		 jne	 SHORT $LN3@PMCCS_IS_Z

; 101  :             return (PMC_STATUS_ARGUMENT_NULL_ERROR);

  0005a	b8 fe ff ff ff	 mov	 eax, -2			; fffffffeH
  0005f	eb 43		 jmp	 SHORT $LN1@PMCCS_IS_Z
$LN3@PMCCS_IS_Z:

; 102  :         try

  00061	c7 45 fc 00 00
	00 00		 mov	 DWORD PTR __$EHRec$[ebp+12], 0

; 103  :         {
; 104  :             *r = p->FLAGS.IS_ZERO;

  00068	8b 45 08	 mov	 eax, DWORD PTR _p$[ebp]
  0006b	8b 48 04	 mov	 ecx, DWORD PTR [eax+4]
  0006e	83 e1 01	 and	 ecx, 1
  00071	8b 55 0c	 mov	 edx, DWORD PTR _r$[ebp]
  00074	89 0a		 mov	 DWORD PTR [edx], ecx

; 105  :             return (PMC_STATUS_OK);

  00076	33 c0		 xor	 eax, eax
  00078	eb 2a		 jmp	 SHORT $LN1@PMCCS_IS_Z
__catch$_PMCCS_IS_ZERO@8$0:

; 106  :         }
; 107  :         catch (const Palmtree::Math::Core::Internal::Exception& ex)
; 108  :         {
; 109  :             return (ex.GetStatusCode());

  0007a	8b 4d e8	 mov	 ecx, DWORD PTR _ex$3[ebp]
  0007d	e8 00 00 00 00	 call	 ?GetStatusCode@Exception@Internal@Core@Math@Palmtree@@QBEHXZ ; Palmtree::Math::Core::Internal::Exception::GetStatusCode
  00082	89 45 e0	 mov	 DWORD PTR $T2[ebp], eax
  00085	b8 00 00 00 00	 mov	 eax, $LN9@PMCCS_IS_Z
  0008a	c3		 ret	 0

; 110  :         }

  0008b	b8 00 00 00 00	 mov	 eax, __tryend$_PMCCS_IS_ZERO@8$1
  00090	c3		 ret	 0
__tryend$_PMCCS_IS_ZERO@8$1:
  00091	c7 45 fc ff ff
	ff ff		 mov	 DWORD PTR __$EHRec$[ebp+12], -1
  00098	eb 0a		 jmp	 SHORT $LN1@PMCCS_IS_Z
$LN9@PMCCS_IS_Z:
  0009a	c7 45 fc ff ff
	ff ff		 mov	 DWORD PTR __$EHRec$[ebp+12], -1

; 106  :         }
; 107  :         catch (const Palmtree::Math::Core::Internal::Exception& ex)
; 108  :         {
; 109  :             return (ex.GetStatusCode());

  000a1	8b 45 e0	 mov	 eax, DWORD PTR $T2[ebp]
$LN1@PMCCS_IS_Z:

; 111  :     }

  000a4	52		 push	 edx
  000a5	8b cd		 mov	 ecx, ebp
  000a7	50		 push	 eax
  000a8	8d 15 00 00 00
	00		 lea	 edx, DWORD PTR $LN13@PMCCS_IS_Z
  000ae	e8 00 00 00 00	 call	 @_RTC_CheckStackVars@8
  000b3	58		 pop	 eax
  000b4	5a		 pop	 edx
  000b5	8b 4d f4	 mov	 ecx, DWORD PTR __$EHRec$[ebp+4]
  000b8	64 89 0d 00 00
	00 00		 mov	 DWORD PTR fs:0, ecx
  000bf	59		 pop	 ecx
  000c0	5f		 pop	 edi
  000c1	5e		 pop	 esi
  000c2	5b		 pop	 ebx
  000c3	83 c4 20	 add	 esp, 32			; 00000020H
  000c6	3b ec		 cmp	 ebp, esp
  000c8	e8 00 00 00 00	 call	 __RTC_CheckEsp
  000cd	8b e5		 mov	 esp, ebp
  000cf	5d		 pop	 ebp
  000d0	c2 08 00	 ret	 8
  000d3	90		 npad	 1
$LN13@PMCCS_IS_Z:
  000d4	01 00 00 00	 DD	 1
  000d8	00 00 00 00	 DD	 $LN12@PMCCS_IS_Z
$LN12@PMCCS_IS_Z:
  000dc	e8 ff ff ff	 DD	 -24			; ffffffe8H
  000e0	04 00 00 00	 DD	 4
  000e4	00 00 00 00	 DD	 $LN10@PMCCS_IS_Z
$LN10@PMCCS_IS_Z:
  000e8	65		 DB	 101			; 00000065H
  000e9	78		 DB	 120			; 00000078H
  000ea	00		 DB	 0
_TEXT	ENDS
text$x	SEGMENT
__ehhandler$_PMCCS_IS_ZERO@8:
  00000	8b 54 24 08	 mov	 edx, DWORD PTR [esp+8]
  00004	8d 42 0c	 lea	 eax, DWORD PTR [edx+12]
  00007	8b 4a dc	 mov	 ecx, DWORD PTR [edx-36]
  0000a	33 c8		 xor	 ecx, eax
  0000c	e8 00 00 00 00	 call	 @__security_check_cookie@4
  00011	b8 00 00 00 00	 mov	 eax, OFFSET __ehfuncinfo$_PMCCS_IS_ZERO@8
  00016	e9 00 00 00 00	 jmp	 ___CxxFrameHandler3
text$x	ENDS
_PMCCS_IS_ZERO@8 ENDP
; Function compile flags: /Odtp /RTCsu
; File z:\sources\lunor\repos\rougemeilland\palmtree.math.core.uint\palmtree.math.core.uint\pmc_interface_csharp.cpp
_TEXT	SEGMENT
$T2 = -32						; size = 4
_ex$3 = -24						; size = 4
__$EHRec$ = -16						; size = 16
_p$ = 8							; size = 4
_r$ = 12						; size = 4
_PMCCS_IS_POWER_OF_TWO@8 PROC

; 80   :     {

  00000	55		 push	 ebp
  00001	8b ec		 mov	 ebp, esp
  00003	6a ff		 push	 -1
  00005	68 00 00 00 00	 push	 __ehhandler$_PMCCS_IS_POWER_OF_TWO@8
  0000a	64 a1 00 00 00
	00		 mov	 eax, DWORD PTR fs:0
  00010	50		 push	 eax
  00011	51		 push	 ecx
  00012	83 ec 10	 sub	 esp, 16			; 00000010H
  00015	53		 push	 ebx
  00016	56		 push	 esi
  00017	57		 push	 edi
  00018	b8 cc cc cc cc	 mov	 eax, -858993460		; ccccccccH
  0001d	89 45 e0	 mov	 DWORD PTR [ebp-32], eax
  00020	89 45 e4	 mov	 DWORD PTR [ebp-28], eax
  00023	89 45 e8	 mov	 DWORD PTR [ebp-24], eax
  00026	89 45 ec	 mov	 DWORD PTR [ebp-20], eax
  00029	a1 00 00 00 00	 mov	 eax, DWORD PTR ___security_cookie
  0002e	33 c5		 xor	 eax, ebp
  00030	50		 push	 eax
  00031	8d 45 f4	 lea	 eax, DWORD PTR __$EHRec$[ebp+4]
  00034	64 a3 00 00 00
	00		 mov	 DWORD PTR fs:0, eax
  0003a	89 65 f0	 mov	 DWORD PTR __$EHRec$[ebp], esp
  0003d	b9 00 00 00 00	 mov	 ecx, OFFSET __C21BA676_pmc_interface_csharp@cpp
  00042	e8 00 00 00 00	 call	 @__CheckForDebuggerJustMyCode@4

; 81   :         if (p == nullptr)

  00047	83 7d 08 00	 cmp	 DWORD PTR _p$[ebp], 0
  0004b	75 07		 jne	 SHORT $LN2@PMCCS_IS_P

; 82   :             return (PMC_STATUS_ARGUMENT_NULL_ERROR);

  0004d	b8 fe ff ff ff	 mov	 eax, -2			; fffffffeH
  00052	eb 53		 jmp	 SHORT $LN1@PMCCS_IS_P
$LN2@PMCCS_IS_P:

; 83   :         if (r == nullptr)

  00054	83 7d 0c 00	 cmp	 DWORD PTR _r$[ebp], 0
  00058	75 07		 jne	 SHORT $LN3@PMCCS_IS_P

; 84   :             return (PMC_STATUS_ARGUMENT_NULL_ERROR);

  0005a	b8 fe ff ff ff	 mov	 eax, -2			; fffffffeH
  0005f	eb 46		 jmp	 SHORT $LN1@PMCCS_IS_P
$LN3@PMCCS_IS_P:

; 85   :         try

  00061	c7 45 fc 00 00
	00 00		 mov	 DWORD PTR __$EHRec$[ebp+12], 0

; 86   :         {
; 87   :             *r = p->FLAGS.IS_POWER_OF_TWO;

  00068	8b 45 08	 mov	 eax, DWORD PTR _p$[ebp]
  0006b	8b 48 04	 mov	 ecx, DWORD PTR [eax+4]
  0006e	c1 e9 03	 shr	 ecx, 3
  00071	83 e1 01	 and	 ecx, 1
  00074	8b 55 0c	 mov	 edx, DWORD PTR _r$[ebp]
  00077	89 0a		 mov	 DWORD PTR [edx], ecx

; 88   :             return (PMC_STATUS_OK);

  00079	33 c0		 xor	 eax, eax
  0007b	eb 2a		 jmp	 SHORT $LN1@PMCCS_IS_P
__catch$_PMCCS_IS_POWER_OF_TWO@8$0:

; 89   :         }
; 90   :         catch (const Palmtree::Math::Core::Internal::Exception& ex)
; 91   :         {
; 92   :             return (ex.GetStatusCode());

  0007d	8b 4d e8	 mov	 ecx, DWORD PTR _ex$3[ebp]
  00080	e8 00 00 00 00	 call	 ?GetStatusCode@Exception@Internal@Core@Math@Palmtree@@QBEHXZ ; Palmtree::Math::Core::Internal::Exception::GetStatusCode
  00085	89 45 e0	 mov	 DWORD PTR $T2[ebp], eax
  00088	b8 00 00 00 00	 mov	 eax, $LN9@PMCCS_IS_P
  0008d	c3		 ret	 0

; 93   :         }

  0008e	b8 00 00 00 00	 mov	 eax, __tryend$_PMCCS_IS_POWER_OF_TWO@8$1
  00093	c3		 ret	 0
__tryend$_PMCCS_IS_POWER_OF_TWO@8$1:
  00094	c7 45 fc ff ff
	ff ff		 mov	 DWORD PTR __$EHRec$[ebp+12], -1
  0009b	eb 0a		 jmp	 SHORT $LN1@PMCCS_IS_P
$LN9@PMCCS_IS_P:
  0009d	c7 45 fc ff ff
	ff ff		 mov	 DWORD PTR __$EHRec$[ebp+12], -1

; 89   :         }
; 90   :         catch (const Palmtree::Math::Core::Internal::Exception& ex)
; 91   :         {
; 92   :             return (ex.GetStatusCode());

  000a4	8b 45 e0	 mov	 eax, DWORD PTR $T2[ebp]
$LN1@PMCCS_IS_P:

; 94   :     }

  000a7	52		 push	 edx
  000a8	8b cd		 mov	 ecx, ebp
  000aa	50		 push	 eax
  000ab	8d 15 00 00 00
	00		 lea	 edx, DWORD PTR $LN13@PMCCS_IS_P
  000b1	e8 00 00 00 00	 call	 @_RTC_CheckStackVars@8
  000b6	58		 pop	 eax
  000b7	5a		 pop	 edx
  000b8	8b 4d f4	 mov	 ecx, DWORD PTR __$EHRec$[ebp+4]
  000bb	64 89 0d 00 00
	00 00		 mov	 DWORD PTR fs:0, ecx
  000c2	59		 pop	 ecx
  000c3	5f		 pop	 edi
  000c4	5e		 pop	 esi
  000c5	5b		 pop	 ebx
  000c6	83 c4 20	 add	 esp, 32			; 00000020H
  000c9	3b ec		 cmp	 ebp, esp
  000cb	e8 00 00 00 00	 call	 __RTC_CheckEsp
  000d0	8b e5		 mov	 esp, ebp
  000d2	5d		 pop	 ebp
  000d3	c2 08 00	 ret	 8
  000d6	66 90		 npad	 2
$LN13@PMCCS_IS_P:
  000d8	01 00 00 00	 DD	 1
  000dc	00 00 00 00	 DD	 $LN12@PMCCS_IS_P
$LN12@PMCCS_IS_P:
  000e0	e8 ff ff ff	 DD	 -24			; ffffffe8H
  000e4	04 00 00 00	 DD	 4
  000e8	00 00 00 00	 DD	 $LN10@PMCCS_IS_P
$LN10@PMCCS_IS_P:
  000ec	65		 DB	 101			; 00000065H
  000ed	78		 DB	 120			; 00000078H
  000ee	00		 DB	 0
_TEXT	ENDS
text$x	SEGMENT
__ehhandler$_PMCCS_IS_POWER_OF_TWO@8:
  00000	8b 54 24 08	 mov	 edx, DWORD PTR [esp+8]
  00004	8d 42 0c	 lea	 eax, DWORD PTR [edx+12]
  00007	8b 4a dc	 mov	 ecx, DWORD PTR [edx-36]
  0000a	33 c8		 xor	 ecx, eax
  0000c	e8 00 00 00 00	 call	 @__security_check_cookie@4
  00011	b8 00 00 00 00	 mov	 eax, OFFSET __ehfuncinfo$_PMCCS_IS_POWER_OF_TWO@8
  00016	e9 00 00 00 00	 jmp	 ___CxxFrameHandler3
text$x	ENDS
_PMCCS_IS_POWER_OF_TWO@8 ENDP
; Function compile flags: /Odtp /RTCsu
; File z:\sources\lunor\repos\rougemeilland\palmtree.math.core.uint\palmtree.math.core.uint\pmc_interface_csharp.cpp
_TEXT	SEGMENT
$T2 = -32						; size = 4
_ex$3 = -24						; size = 4
__$EHRec$ = -16						; size = 16
_p$ = 8							; size = 4
_r$ = 12						; size = 4
_PMCCS_IS_ONE@8 PROC

; 63   :     {

  00000	55		 push	 ebp
  00001	8b ec		 mov	 ebp, esp
  00003	6a ff		 push	 -1
  00005	68 00 00 00 00	 push	 __ehhandler$_PMCCS_IS_ONE@8
  0000a	64 a1 00 00 00
	00		 mov	 eax, DWORD PTR fs:0
  00010	50		 push	 eax
  00011	51		 push	 ecx
  00012	83 ec 10	 sub	 esp, 16			; 00000010H
  00015	53		 push	 ebx
  00016	56		 push	 esi
  00017	57		 push	 edi
  00018	b8 cc cc cc cc	 mov	 eax, -858993460		; ccccccccH
  0001d	89 45 e0	 mov	 DWORD PTR [ebp-32], eax
  00020	89 45 e4	 mov	 DWORD PTR [ebp-28], eax
  00023	89 45 e8	 mov	 DWORD PTR [ebp-24], eax
  00026	89 45 ec	 mov	 DWORD PTR [ebp-20], eax
  00029	a1 00 00 00 00	 mov	 eax, DWORD PTR ___security_cookie
  0002e	33 c5		 xor	 eax, ebp
  00030	50		 push	 eax
  00031	8d 45 f4	 lea	 eax, DWORD PTR __$EHRec$[ebp+4]
  00034	64 a3 00 00 00
	00		 mov	 DWORD PTR fs:0, eax
  0003a	89 65 f0	 mov	 DWORD PTR __$EHRec$[ebp], esp
  0003d	b9 00 00 00 00	 mov	 ecx, OFFSET __C21BA676_pmc_interface_csharp@cpp
  00042	e8 00 00 00 00	 call	 @__CheckForDebuggerJustMyCode@4

; 64   :         if (p == nullptr)

  00047	83 7d 08 00	 cmp	 DWORD PTR _p$[ebp], 0
  0004b	75 07		 jne	 SHORT $LN2@PMCCS_IS_O

; 65   :             return (PMC_STATUS_ARGUMENT_NULL_ERROR);

  0004d	b8 fe ff ff ff	 mov	 eax, -2			; fffffffeH
  00052	eb 52		 jmp	 SHORT $LN1@PMCCS_IS_O
$LN2@PMCCS_IS_O:

; 66   :         if (r == nullptr)

  00054	83 7d 0c 00	 cmp	 DWORD PTR _r$[ebp], 0
  00058	75 07		 jne	 SHORT $LN3@PMCCS_IS_O

; 67   :             return (PMC_STATUS_ARGUMENT_NULL_ERROR);

  0005a	b8 fe ff ff ff	 mov	 eax, -2			; fffffffeH
  0005f	eb 45		 jmp	 SHORT $LN1@PMCCS_IS_O
$LN3@PMCCS_IS_O:

; 68   :         try

  00061	c7 45 fc 00 00
	00 00		 mov	 DWORD PTR __$EHRec$[ebp+12], 0

; 69   :         {
; 70   :             *r = p->FLAGS.IS_ONE;

  00068	8b 45 08	 mov	 eax, DWORD PTR _p$[ebp]
  0006b	8b 48 04	 mov	 ecx, DWORD PTR [eax+4]
  0006e	d1 e9		 shr	 ecx, 1
  00070	83 e1 01	 and	 ecx, 1
  00073	8b 55 0c	 mov	 edx, DWORD PTR _r$[ebp]
  00076	89 0a		 mov	 DWORD PTR [edx], ecx

; 71   :             return (PMC_STATUS_OK);

  00078	33 c0		 xor	 eax, eax
  0007a	eb 2a		 jmp	 SHORT $LN1@PMCCS_IS_O
__catch$_PMCCS_IS_ONE@8$0:

; 72   :         }
; 73   :         catch (const Palmtree::Math::Core::Internal::Exception& ex)
; 74   :         {
; 75   :             return (ex.GetStatusCode());

  0007c	8b 4d e8	 mov	 ecx, DWORD PTR _ex$3[ebp]
  0007f	e8 00 00 00 00	 call	 ?GetStatusCode@Exception@Internal@Core@Math@Palmtree@@QBEHXZ ; Palmtree::Math::Core::Internal::Exception::GetStatusCode
  00084	89 45 e0	 mov	 DWORD PTR $T2[ebp], eax
  00087	b8 00 00 00 00	 mov	 eax, $LN9@PMCCS_IS_O
  0008c	c3		 ret	 0

; 76   :         }

  0008d	b8 00 00 00 00	 mov	 eax, __tryend$_PMCCS_IS_ONE@8$1
  00092	c3		 ret	 0
__tryend$_PMCCS_IS_ONE@8$1:
  00093	c7 45 fc ff ff
	ff ff		 mov	 DWORD PTR __$EHRec$[ebp+12], -1
  0009a	eb 0a		 jmp	 SHORT $LN1@PMCCS_IS_O
$LN9@PMCCS_IS_O:
  0009c	c7 45 fc ff ff
	ff ff		 mov	 DWORD PTR __$EHRec$[ebp+12], -1

; 72   :         }
; 73   :         catch (const Palmtree::Math::Core::Internal::Exception& ex)
; 74   :         {
; 75   :             return (ex.GetStatusCode());

  000a3	8b 45 e0	 mov	 eax, DWORD PTR $T2[ebp]
$LN1@PMCCS_IS_O:

; 77   :     }

  000a6	52		 push	 edx
  000a7	8b cd		 mov	 ecx, ebp
  000a9	50		 push	 eax
  000aa	8d 15 00 00 00
	00		 lea	 edx, DWORD PTR $LN13@PMCCS_IS_O
  000b0	e8 00 00 00 00	 call	 @_RTC_CheckStackVars@8
  000b5	58		 pop	 eax
  000b6	5a		 pop	 edx
  000b7	8b 4d f4	 mov	 ecx, DWORD PTR __$EHRec$[ebp+4]
  000ba	64 89 0d 00 00
	00 00		 mov	 DWORD PTR fs:0, ecx
  000c1	59		 pop	 ecx
  000c2	5f		 pop	 edi
  000c3	5e		 pop	 esi
  000c4	5b		 pop	 ebx
  000c5	83 c4 20	 add	 esp, 32			; 00000020H
  000c8	3b ec		 cmp	 ebp, esp
  000ca	e8 00 00 00 00	 call	 __RTC_CheckEsp
  000cf	8b e5		 mov	 esp, ebp
  000d1	5d		 pop	 ebp
  000d2	c2 08 00	 ret	 8
  000d5	0f 1f 00	 npad	 3
$LN13@PMCCS_IS_O:
  000d8	01 00 00 00	 DD	 1
  000dc	00 00 00 00	 DD	 $LN12@PMCCS_IS_O
$LN12@PMCCS_IS_O:
  000e0	e8 ff ff ff	 DD	 -24			; ffffffe8H
  000e4	04 00 00 00	 DD	 4
  000e8	00 00 00 00	 DD	 $LN10@PMCCS_IS_O
$LN10@PMCCS_IS_O:
  000ec	65		 DB	 101			; 00000065H
  000ed	78		 DB	 120			; 00000078H
  000ee	00		 DB	 0
_TEXT	ENDS
text$x	SEGMENT
__ehhandler$_PMCCS_IS_ONE@8:
  00000	8b 54 24 08	 mov	 edx, DWORD PTR [esp+8]
  00004	8d 42 0c	 lea	 eax, DWORD PTR [edx+12]
  00007	8b 4a dc	 mov	 ecx, DWORD PTR [edx-36]
  0000a	33 c8		 xor	 ecx, eax
  0000c	e8 00 00 00 00	 call	 @__security_check_cookie@4
  00011	b8 00 00 00 00	 mov	 eax, OFFSET __ehfuncinfo$_PMCCS_IS_ONE@8
  00016	e9 00 00 00 00	 jmp	 ___CxxFrameHandler3
text$x	ENDS
_PMCCS_IS_ONE@8 ENDP
; Function compile flags: /Odtp /RTCsu
; File z:\sources\lunor\repos\rougemeilland\palmtree.math.core.uint\palmtree.math.core.uint\pmc_interface_csharp.cpp
_TEXT	SEGMENT
$T2 = -32						; size = 4
_ex$3 = -24						; size = 4
__$EHRec$ = -16						; size = 16
_p$ = 8							; size = 4
_r$ = 12						; size = 4
_PMCCS_IS_EVEN@8 PROC

; 46   :     {

  00000	55		 push	 ebp
  00001	8b ec		 mov	 ebp, esp
  00003	6a ff		 push	 -1
  00005	68 00 00 00 00	 push	 __ehhandler$_PMCCS_IS_EVEN@8
  0000a	64 a1 00 00 00
	00		 mov	 eax, DWORD PTR fs:0
  00010	50		 push	 eax
  00011	51		 push	 ecx
  00012	83 ec 10	 sub	 esp, 16			; 00000010H
  00015	53		 push	 ebx
  00016	56		 push	 esi
  00017	57		 push	 edi
  00018	b8 cc cc cc cc	 mov	 eax, -858993460		; ccccccccH
  0001d	89 45 e0	 mov	 DWORD PTR [ebp-32], eax
  00020	89 45 e4	 mov	 DWORD PTR [ebp-28], eax
  00023	89 45 e8	 mov	 DWORD PTR [ebp-24], eax
  00026	89 45 ec	 mov	 DWORD PTR [ebp-20], eax
  00029	a1 00 00 00 00	 mov	 eax, DWORD PTR ___security_cookie
  0002e	33 c5		 xor	 eax, ebp
  00030	50		 push	 eax
  00031	8d 45 f4	 lea	 eax, DWORD PTR __$EHRec$[ebp+4]
  00034	64 a3 00 00 00
	00		 mov	 DWORD PTR fs:0, eax
  0003a	89 65 f0	 mov	 DWORD PTR __$EHRec$[ebp], esp
  0003d	b9 00 00 00 00	 mov	 ecx, OFFSET __C21BA676_pmc_interface_csharp@cpp
  00042	e8 00 00 00 00	 call	 @__CheckForDebuggerJustMyCode@4

; 47   :         if (p == nullptr)

  00047	83 7d 08 00	 cmp	 DWORD PTR _p$[ebp], 0
  0004b	75 07		 jne	 SHORT $LN2@PMCCS_IS_E

; 48   :             return (PMC_STATUS_ARGUMENT_NULL_ERROR);

  0004d	b8 fe ff ff ff	 mov	 eax, -2			; fffffffeH
  00052	eb 53		 jmp	 SHORT $LN1@PMCCS_IS_E
$LN2@PMCCS_IS_E:

; 49   :         if (r == nullptr)

  00054	83 7d 0c 00	 cmp	 DWORD PTR _r$[ebp], 0
  00058	75 07		 jne	 SHORT $LN3@PMCCS_IS_E

; 50   :             return (PMC_STATUS_ARGUMENT_NULL_ERROR);

  0005a	b8 fe ff ff ff	 mov	 eax, -2			; fffffffeH
  0005f	eb 46		 jmp	 SHORT $LN1@PMCCS_IS_E
$LN3@PMCCS_IS_E:

; 51   :         try

  00061	c7 45 fc 00 00
	00 00		 mov	 DWORD PTR __$EHRec$[ebp+12], 0

; 52   :         {
; 53   :             *r = p->FLAGS.IS_EVEN;

  00068	8b 45 08	 mov	 eax, DWORD PTR _p$[ebp]
  0006b	8b 48 04	 mov	 ecx, DWORD PTR [eax+4]
  0006e	c1 e9 02	 shr	 ecx, 2
  00071	83 e1 01	 and	 ecx, 1
  00074	8b 55 0c	 mov	 edx, DWORD PTR _r$[ebp]
  00077	89 0a		 mov	 DWORD PTR [edx], ecx

; 54   :             return (PMC_STATUS_OK);

  00079	33 c0		 xor	 eax, eax
  0007b	eb 2a		 jmp	 SHORT $LN1@PMCCS_IS_E
__catch$_PMCCS_IS_EVEN@8$0:

; 55   :         }
; 56   :         catch (const Palmtree::Math::Core::Internal::Exception& ex)
; 57   :         {
; 58   :             return (ex.GetStatusCode());

  0007d	8b 4d e8	 mov	 ecx, DWORD PTR _ex$3[ebp]
  00080	e8 00 00 00 00	 call	 ?GetStatusCode@Exception@Internal@Core@Math@Palmtree@@QBEHXZ ; Palmtree::Math::Core::Internal::Exception::GetStatusCode
  00085	89 45 e0	 mov	 DWORD PTR $T2[ebp], eax
  00088	b8 00 00 00 00	 mov	 eax, $LN9@PMCCS_IS_E
  0008d	c3		 ret	 0

; 59   :         }

  0008e	b8 00 00 00 00	 mov	 eax, __tryend$_PMCCS_IS_EVEN@8$1
  00093	c3		 ret	 0
__tryend$_PMCCS_IS_EVEN@8$1:
  00094	c7 45 fc ff ff
	ff ff		 mov	 DWORD PTR __$EHRec$[ebp+12], -1
  0009b	eb 0a		 jmp	 SHORT $LN1@PMCCS_IS_E
$LN9@PMCCS_IS_E:
  0009d	c7 45 fc ff ff
	ff ff		 mov	 DWORD PTR __$EHRec$[ebp+12], -1

; 55   :         }
; 56   :         catch (const Palmtree::Math::Core::Internal::Exception& ex)
; 57   :         {
; 58   :             return (ex.GetStatusCode());

  000a4	8b 45 e0	 mov	 eax, DWORD PTR $T2[ebp]
$LN1@PMCCS_IS_E:

; 60   :     }

  000a7	52		 push	 edx
  000a8	8b cd		 mov	 ecx, ebp
  000aa	50		 push	 eax
  000ab	8d 15 00 00 00
	00		 lea	 edx, DWORD PTR $LN13@PMCCS_IS_E
  000b1	e8 00 00 00 00	 call	 @_RTC_CheckStackVars@8
  000b6	58		 pop	 eax
  000b7	5a		 pop	 edx
  000b8	8b 4d f4	 mov	 ecx, DWORD PTR __$EHRec$[ebp+4]
  000bb	64 89 0d 00 00
	00 00		 mov	 DWORD PTR fs:0, ecx
  000c2	59		 pop	 ecx
  000c3	5f		 pop	 edi
  000c4	5e		 pop	 esi
  000c5	5b		 pop	 ebx
  000c6	83 c4 20	 add	 esp, 32			; 00000020H
  000c9	3b ec		 cmp	 ebp, esp
  000cb	e8 00 00 00 00	 call	 __RTC_CheckEsp
  000d0	8b e5		 mov	 esp, ebp
  000d2	5d		 pop	 ebp
  000d3	c2 08 00	 ret	 8
  000d6	66 90		 npad	 2
$LN13@PMCCS_IS_E:
  000d8	01 00 00 00	 DD	 1
  000dc	00 00 00 00	 DD	 $LN12@PMCCS_IS_E
$LN12@PMCCS_IS_E:
  000e0	e8 ff ff ff	 DD	 -24			; ffffffe8H
  000e4	04 00 00 00	 DD	 4
  000e8	00 00 00 00	 DD	 $LN10@PMCCS_IS_E
$LN10@PMCCS_IS_E:
  000ec	65		 DB	 101			; 00000065H
  000ed	78		 DB	 120			; 00000078H
  000ee	00		 DB	 0
_TEXT	ENDS
text$x	SEGMENT
__ehhandler$_PMCCS_IS_EVEN@8:
  00000	8b 54 24 08	 mov	 edx, DWORD PTR [esp+8]
  00004	8d 42 0c	 lea	 eax, DWORD PTR [edx+12]
  00007	8b 4a dc	 mov	 ecx, DWORD PTR [edx-36]
  0000a	33 c8		 xor	 ecx, eax
  0000c	e8 00 00 00 00	 call	 @__security_check_cookie@4
  00011	b8 00 00 00 00	 mov	 eax, OFFSET __ehfuncinfo$_PMCCS_IS_EVEN@8
  00016	e9 00 00 00 00	 jmp	 ___CxxFrameHandler3
text$x	ENDS
_PMCCS_IS_EVEN@8 ENDP
; Function compile flags: /Odtp /RTCsu
; File z:\sources\lunor\repos\rougemeilland\palmtree.math.core.uint\palmtree.math.core.uint\pmc_interface_csharp.cpp
_TEXT	SEGMENT
_key$ = 8						; size = 4
_value_buffer$ = 12					; size = 4
_value_buffer_size$ = 16				; size = 4
_count$ = 20						; size = 4
_PMCCS_GetConfigurationSettings@16 PROC

; 41   :     {

  00000	55		 push	 ebp
  00001	8b ec		 mov	 ebp, esp
  00003	b9 00 00 00 00	 mov	 ecx, OFFSET __C21BA676_pmc_interface_csharp@cpp
  00008	e8 00 00 00 00	 call	 @__CheckForDebuggerJustMyCode@4

; 42   :         return (PMC_GetConfigurationSettings(key, value_buffer, value_buffer_size, count));

  0000d	8b 45 14	 mov	 eax, DWORD PTR _count$[ebp]
  00010	50		 push	 eax
  00011	8b 4d 10	 mov	 ecx, DWORD PTR _value_buffer_size$[ebp]
  00014	51		 push	 ecx
  00015	8b 55 0c	 mov	 edx, DWORD PTR _value_buffer$[ebp]
  00018	52		 push	 edx
  00019	8b 45 08	 mov	 eax, DWORD PTR _key$[ebp]
  0001c	50		 push	 eax
  0001d	e8 00 00 00 00	 call	 ?PMC_GetConfigurationSettings@Internal@Core@Math@Palmtree@@YGHPB_WPA_WHPAH@Z ; Palmtree::Math::Core::Internal::PMC_GetConfigurationSettings

; 43   :     }

  00022	3b ec		 cmp	 ebp, esp
  00024	e8 00 00 00 00	 call	 __RTC_CheckEsp
  00029	5d		 pop	 ebp
  0002a	c2 10 00	 ret	 16			; 00000010H
_PMCCS_GetConfigurationSettings@16 ENDP
_TEXT	ENDS
; Function compile flags: /Odtp /RTCsu
; File z:\sources\lunor\repos\rougemeilland\palmtree.math.core.uint\palmtree.math.core.uint\pmc_interface_csharp.cpp
_TEXT	SEGMENT
tv67 = -8						; size = 4
_success$ = -4						; size = 4
_conf$ = 8						; size = 4
_PMCCS_UINT_Initialize@4 PROC

; 35   :     {

  00000	55		 push	 ebp
  00001	8b ec		 mov	 ebp, esp
  00003	83 ec 08	 sub	 esp, 8
  00006	c7 45 f8 cc cc
	cc cc		 mov	 DWORD PTR [ebp-8], -858993460 ; ccccccccH
  0000d	c7 45 fc cc cc
	cc cc		 mov	 DWORD PTR [ebp-4], -858993460 ; ccccccccH
  00014	b9 00 00 00 00	 mov	 ecx, OFFSET __C21BA676_pmc_interface_csharp@cpp
  00019	e8 00 00 00 00	 call	 @__CheckForDebuggerJustMyCode@4

; 36   :         _UINT32_T success = PMC_UINT_Initialize(conf) != nullptr ? 1 : 0;

  0001e	8b 45 08	 mov	 eax, DWORD PTR _conf$[ebp]
  00021	50		 push	 eax
  00022	e8 00 00 00 00	 call	 _PMC_UINT_Initialize@4
  00027	85 c0		 test	 eax, eax
  00029	74 09		 je	 SHORT $LN3@PMCCS_UINT
  0002b	c7 45 f8 01 00
	00 00		 mov	 DWORD PTR tv67[ebp], 1
  00032	eb 07		 jmp	 SHORT $LN4@PMCCS_UINT
$LN3@PMCCS_UINT:
  00034	c7 45 f8 00 00
	00 00		 mov	 DWORD PTR tv67[ebp], 0
$LN4@PMCCS_UINT:
  0003b	8b 4d f8	 mov	 ecx, DWORD PTR tv67[ebp]
  0003e	89 4d fc	 mov	 DWORD PTR _success$[ebp], ecx

; 37   :         return (success);

  00041	8b 45 fc	 mov	 eax, DWORD PTR _success$[ebp]

; 38   :     }

  00044	83 c4 08	 add	 esp, 8
  00047	3b ec		 cmp	 ebp, esp
  00049	e8 00 00 00 00	 call	 __RTC_CheckEsp
  0004e	8b e5		 mov	 esp, ebp
  00050	5d		 pop	 ebp
  00051	c2 04 00	 ret	 4
_PMCCS_UINT_Initialize@4 ENDP
_TEXT	ENDS
; Function compile flags: /Odtp /RTCsu
; File z:\sources\lunor\repos\rougemeilland\palmtree.math.core.uint\palmtree.math.core.uint\pmc_exception.h
;	COMDAT ?GetStatusCode@Exception@Internal@Core@Math@Palmtree@@QBEHXZ
_TEXT	SEGMENT
_this$ = -16						; size = 4
__$EHRec$ = -12						; size = 12
?GetStatusCode@Exception@Internal@Core@Math@Palmtree@@QBEHXZ PROC ; Palmtree::Math::Core::Internal::Exception::GetStatusCode, COMDAT
; _this$ = ecx

; 74   :         {

  00000	55		 push	 ebp
  00001	8b ec		 mov	 ebp, esp
  00003	6a ff		 push	 -1
  00005	68 00 00 00 00	 push	 __ehhandler$?GetStatusCode@Exception@Internal@Core@Math@Palmtree@@QBEHXZ
  0000a	64 a1 00 00 00
	00		 mov	 eax, DWORD PTR fs:0
  00010	50		 push	 eax
  00011	51		 push	 ecx
  00012	c7 45 f0 cc cc
	cc cc		 mov	 DWORD PTR [ebp-16], -858993460 ; ccccccccH
  00019	a1 00 00 00 00	 mov	 eax, DWORD PTR ___security_cookie
  0001e	33 c5		 xor	 eax, ebp
  00020	50		 push	 eax
  00021	8d 45 f4	 lea	 eax, DWORD PTR __$EHRec$[ebp]
  00024	64 a3 00 00 00
	00		 mov	 DWORD PTR fs:0, eax
  0002a	89 4d f0	 mov	 DWORD PTR _this$[ebp], ecx
  0002d	b9 00 00 00 00	 mov	 ecx, OFFSET __802FEEC0_pmc_exception@h
  00032	e8 00 00 00 00	 call	 @__CheckForDebuggerJustMyCode@4

; 75   :             return (_code);

  00037	8b 45 f0	 mov	 eax, DWORD PTR _this$[ebp]
  0003a	8b 40 0c	 mov	 eax, DWORD PTR [eax+12]

; 76   :         }

  0003d	8b 4d f4	 mov	 ecx, DWORD PTR __$EHRec$[ebp]
  00040	64 89 0d 00 00
	00 00		 mov	 DWORD PTR fs:0, ecx
  00047	59		 pop	 ecx
  00048	83 c4 10	 add	 esp, 16			; 00000010H
  0004b	3b ec		 cmp	 ebp, esp
  0004d	e8 00 00 00 00	 call	 __RTC_CheckEsp
  00052	8b e5		 mov	 esp, ebp
  00054	5d		 pop	 ebp
  00055	c3		 ret	 0
_TEXT	ENDS
;	COMDAT text$x
text$x	SEGMENT
__ehhandler$?GetStatusCode@Exception@Internal@Core@Math@Palmtree@@QBEHXZ:
  00000	8b 54 24 08	 mov	 edx, DWORD PTR [esp+8]
  00004	8d 42 0c	 lea	 eax, DWORD PTR [edx+12]
  00007	8b 4a f8	 mov	 ecx, DWORD PTR [edx-8]
  0000a	33 c8		 xor	 ecx, eax
  0000c	e8 00 00 00 00	 call	 @__security_check_cookie@4
  00011	b8 00 00 00 00	 mov	 eax, OFFSET __ehfuncinfo$?GetStatusCode@Exception@Internal@Core@Math@Palmtree@@QBEHXZ
  00016	e9 00 00 00 00	 jmp	 ___CxxFrameHandler3
text$x	ENDS
?GetStatusCode@Exception@Internal@Core@Math@Palmtree@@QBEHXZ ENDP ; Palmtree::Math::Core::Internal::Exception::GetStatusCode
END
