; Listing generated by Microsoft (R) Optimizing Compiler Version 19.16.27026.1 

	TITLE	Z:\Sources\Lunor\Repos\rougemeilland\Palmtree.Math.Core.Uint\Palmtree.Math.Core.Uint\pmc_greatestcommondivisor.c
	.686P
	.XMM
	include listing.inc
	.model	flat

INCLUDELIB MSVCRTD
INCLUDELIB OLDNAMES

msvcjmc	SEGMENT
__7B7A869E_ctype@h DB 01H
__457DD326_basetsd@h DB 01H
__4384A2D9_corecrt_memcpy_s@h DB 01H
__4E51A221_corecrt_wstring@h DB 01H
__2140C079_string@h DB 01H
__1887E595_winnt@h DB 01H
__9FC7C64B_processthreadsapi@h DB 01H
__FA470AEC_memoryapi@h DB 01H
__F37DAFF1_winerror@h DB 01H
__7A450CCC_winbase@h DB 01H
__B4B40122_winioctl@h DB 01H
__86261D59_stralign@h DB 01H
__BB6D3116_pmc_uint_internal@h DB 01H
__8CA3E54E_pmc_inline_func@h DB 01H
__E05E7037_autogenerated_inline_func@h DB 01H
__3257AA0B_pmc_greatestcommondivisor@c DB 01H
msvcjmc	ENDS
PUBLIC	_Initialize_GreatestCommonDivisor
PUBLIC	_PMC_GreatestCommonDivisor_I_X@12
PUBLIC	_PMC_GreatestCommonDivisor_L_X@16
PUBLIC	_PMC_GreatestCommonDivisor_X_I@12
PUBLIC	_PMC_GreatestCommonDivisor_X_L@16
PUBLIC	_PMC_GreatestCommonDivisor_X_X@12
PUBLIC	__JustMyCode_Default
EXTRN	_AllocateBlock:PROC
EXTRN	_DeallocateBlock:PROC
EXTRN	_CheckBlockLight:PROC
EXTRN	_AllocateNumber:PROC
EXTRN	_CommitNumber:PROC
EXTRN	_CheckNumber:PROC
EXTRN	_DuplicateNumber:PROC
EXTRN	_From_I_Imp:PROC
EXTRN	_From_L_Imp:PROC
EXTRN	_RightShift_Imp:PROC
EXTRN	_LeftShift_Imp:PROC
EXTRN	_Subtruct_Imp:PROC
EXTRN	_Compare_Imp:PROC
EXTRN	@_RTC_CheckStackVars@8:PROC
EXTRN	@__CheckForDebuggerJustMyCode@4:PROC
EXTRN	__RTC_CheckEsp:PROC
EXTRN	__RTC_InitBase:PROC
EXTRN	__RTC_Shutdown:PROC
EXTRN	__aullshr:PROC
;	COMDAT rtc$TMZ
rtc$TMZ	SEGMENT
__RTC_Shutdown.rtc$TMZ DD FLAT:__RTC_Shutdown
rtc$TMZ	ENDS
;	COMDAT rtc$IMZ
rtc$IMZ	SEGMENT
__RTC_InitBase.rtc$IMZ DD FLAT:__RTC_InitBase
rtc$IMZ	ENDS
; Function compile flags: /Odt
;	COMDAT __JustMyCode_Default
_TEXT	SEGMENT
__JustMyCode_Default PROC				; COMDAT
	push	ebp
	mov	ebp, esp
	pop	ebp
	ret	0
__JustMyCode_Default ENDP
_TEXT	ENDS
; Function compile flags: /Odtp /RTCsu
; File z:\sources\lunor\repos\rougemeilland\palmtree.math.core.uint\palmtree.math.core.uint\pmc_greatestcommondivisor.c
_TEXT	SEGMENT
tv238 = -332						; size = 4
_w_buf_count$1 = -324					; size = 4
_k$2 = -316						; size = 4
_v_tzcnt$3 = -312					; size = 4
_u_tzcnt$4 = -308					; size = 4
_nw_check_code$5 = -300					; size = 4
_work_v_buf$6 = -292					; size = 4
_work_v_buf_words$7 = -284				; size = 4
_work_v_buf_code$8 = -272				; size = 4
_work_u_buf$9 = -264					; size = 4
_work_u_buf_words$10 = -256				; size = 4
_work_u_buf_code$11 = -244				; size = 4
_work_bit_count$12 = -236				; size = 4
_v_bit_count$13 = -232					; size = 4
_u_bit_count$14 = -228					; size = 4
_w_buf_count$15 = -220					; size = 4
_k$16 = -212						; size = 4
_v_tzcnt$17 = -208					; size = 4
_u_tzcnt$18 = -204					; size = 4
_nw_check_code$19 = -196				; size = 4
_work_v_buf$20 = -188					; size = 4
_work_v_buf_words$21 = -180				; size = 4
_work_v_buf_code$22 = -168				; size = 4
_work_u_buf$23 = -160					; size = 4
_work_u_buf_words$24 = -152				; size = 4
_work_u_buf_code$25 = -140				; size = 4
_work_bit_count$26 = -132				; size = 4
_v_bit_count$27 = -128					; size = 4
_w_buf_count$28 = -120					; size = 4
_k$29 = -112						; size = 4
_v_tzcnt$30 = -108					; size = 4
_u_tzcnt$31 = -104					; size = 4
_nw_check_code$32 = -96					; size = 4
_work_v_buf$33 = -88					; size = 4
_work_v_buf_words$34 = -80				; size = 4
_work_v_buf_code$35 = -68				; size = 4
_work_u_buf$36 = -60					; size = 4
_work_u_buf_words$37 = -52				; size = 4
_work_u_buf_code$38 = -40				; size = 4
_work_bit_count$39 = -32				; size = 4
_v_bit_count$40 = -28					; size = 4
_v_lo$41 = -24						; size = 4
_v_hi$42 = -16						; size = 4
_u_bit_count$43 = -8					; size = 4
_result$ = -4						; size = 4
_u$ = 8							; size = 4
_v$ = 12						; size = 8
_w$ = 20						; size = 4
_PMC_GreatestCommonDivisor_X_L_Imp PROC

; 215  : {

	push	ebp
	mov	ebp, esp
	sub	esp, 332				; 0000014cH
	push	edi
	lea	edi, DWORD PTR [ebp-332]
	mov	ecx, 83					; 00000053H
	mov	eax, -858993460				; ccccccccH
	rep stosd
	mov	ecx, OFFSET __3257AA0B_pmc_greatestcommondivisor@c
	call	@__CheckForDebuggerJustMyCode@4

; 216  :     PMC_STATUS_CODE result;
; 217  :     if (u->IS_ZERO)

	mov	eax, DWORD PTR _u$[ebp]
	mov	ecx, DWORD PTR [eax+24]
	shr	ecx, 1
	and	ecx, 1
	je	SHORT $LN2@PMC_Greate

; 218  :     {
; 219  :         // u が 0 である場合
; 220  : 
; 221  :         if (v == 0)

	mov	edx, DWORD PTR _v$[ebp]
	or	edx, DWORD PTR _v$[ebp+4]
	jne	SHORT $LN4@PMC_Greate

; 222  :         {
; 223  :             // v が 0 である場合
; 224  : 
; 225  :             // u と v がともに 0 であり、GCD は一意に存在しないため、エラーを返す。
; 226  :             return (PMC_STATUS_ARGUMENT_ERROR);

	or	eax, -1
	jmp	$LN1@PMC_Greate

; 227  :         }

	jmp	SHORT $LN5@PMC_Greate
$LN4@PMC_Greate:

; 228  :         else
; 229  :         {
; 230  :             // v が 0 ではない場合
; 231  : 
; 232  :             // GCD は v そのものであるため、v を計算結果として返す。
; 233  :             if ((result = From_L_Imp(v, w)) != PMC_STATUS_OK)

	mov	eax, DWORD PTR _w$[ebp]
	push	eax
	mov	ecx, DWORD PTR _v$[ebp+4]
	push	ecx
	mov	edx, DWORD PTR _v$[ebp]
	push	edx
	call	_From_L_Imp
	add	esp, 12					; 0000000cH
	mov	DWORD PTR _result$[ebp], eax
	cmp	DWORD PTR _result$[ebp], 0
	je	SHORT $LN5@PMC_Greate

; 234  :                 return (result);

	mov	eax, DWORD PTR _result$[ebp]
	jmp	$LN1@PMC_Greate
$LN5@PMC_Greate:

; 235  :         }
; 236  :     }

	jmp	$LN3@PMC_Greate
$LN2@PMC_Greate:

; 237  :     else
; 238  :     {
; 239  :         // u が 0 ではない場合
; 240  : 
; 241  :         if (v == 0)

	mov	eax, DWORD PTR _v$[ebp]
	or	eax, DWORD PTR _v$[ebp+4]
	jne	SHORT $LN7@PMC_Greate

; 242  :         {
; 243  :             // v が 0 である場合
; 244  : 
; 245  :             // GCD は u そのものであるため、u を計算結果として返す。
; 246  :             if ((result = DuplicateNumber(u, w)) != PMC_STATUS_OK)

	mov	ecx, DWORD PTR _w$[ebp]
	push	ecx
	mov	edx, DWORD PTR _u$[ebp]
	push	edx
	call	_DuplicateNumber
	add	esp, 8
	mov	DWORD PTR _result$[ebp], eax
	cmp	DWORD PTR _result$[ebp], 0
	je	SHORT $LN9@PMC_Greate

; 247  :                 return (result);

	mov	eax, DWORD PTR _result$[ebp]
	jmp	$LN1@PMC_Greate
$LN9@PMC_Greate:

; 248  :         }

	jmp	$LN3@PMC_Greate
$LN7@PMC_Greate:

; 249  :         else
; 250  :         {
; 251  :             // u と v がともに 0 ではない場合
; 252  : 
; 253  :             // u と v の GCD を計算する
; 254  :             if (__UNIT_TYPE_BIT_COUNT < sizeof(v) * 8)

	mov	eax, 1
	test	eax, eax
	je	$LN10@PMC_Greate

; 255  :             {
; 256  :                 // _UINT64_T が 1 ワードで表現しきれない場合
; 257  : 
; 258  :                 __UNIT_TYPE u_bit_count = u->UNIT_BIT_COUNT;

	mov	ecx, DWORD PTR _u$[ebp]
	mov	edx, DWORD PTR [ecx+12]
	mov	DWORD PTR _u_bit_count$43[ebp], edx

; 259  :                 _UINT32_T v_hi;
; 260  :                 _UINT32_T v_lo = _FROMDWORDTOWORD(v, &v_hi);

	lea	eax, DWORD PTR _v_hi$42[ebp]
	push	eax
	mov	ecx, DWORD PTR _v$[ebp+4]
	push	ecx
	mov	edx, DWORD PTR _v$[ebp]
	push	edx
	call	__FROMDWORDTOWORD
	add	esp, 12					; 0000000cH
	mov	DWORD PTR _v_lo$41[ebp], eax

; 261  :                 if (v_hi == 0)

	cmp	DWORD PTR _v_hi$42[ebp], 0
	jne	$LN12@PMC_Greate

; 262  :                 {
; 263  :                     // v の値が 32bit で表現可能な場合
; 264  :                     __UNIT_TYPE v_bit_count = sizeof(v_lo) * 8 - _LZCNT_ALT_32(v_lo);

	mov	eax, DWORD PTR _v_lo$41[ebp]
	push	eax
	call	__LZCNT_ALT_32
	add	esp, 4
	mov	ecx, 32					; 00000020H
	sub	ecx, eax
	mov	DWORD PTR _v_bit_count$40[ebp], ecx

; 265  :                     __UNIT_TYPE work_bit_count = _MAXIMUM_UNIT(u_bit_count, v_bit_count);

	mov	edx, DWORD PTR _v_bit_count$40[ebp]
	push	edx
	mov	eax, DWORD PTR _u_bit_count$43[ebp]
	push	eax
	call	__MAXIMUM_UNIT
	add	esp, 8
	mov	DWORD PTR _work_bit_count$39[ebp], eax

; 266  : 
; 267  :                     __UNIT_TYPE work_u_buf_code;
; 268  :                     __UNIT_TYPE work_u_buf_words;
; 269  :                     __UNIT_TYPE* work_u_buf = AllocateBlock(work_bit_count, &work_u_buf_words, &work_u_buf_code);

	lea	ecx, DWORD PTR _work_u_buf_code$38[ebp]
	push	ecx
	lea	edx, DWORD PTR _work_u_buf_words$37[ebp]
	push	edx
	mov	eax, DWORD PTR _work_bit_count$39[ebp]
	push	eax
	call	_AllocateBlock
	add	esp, 12					; 0000000cH
	mov	DWORD PTR _work_u_buf$36[ebp], eax

; 270  :                     if (work_u_buf == NULL)

	cmp	DWORD PTR _work_u_buf$36[ebp], 0
	jne	SHORT $LN14@PMC_Greate

; 271  :                         return (PMC_STATUS_NOT_ENOUGH_MEMORY);

	mov	eax, -5					; fffffffbH
	jmp	$LN1@PMC_Greate
$LN14@PMC_Greate:

; 272  : 
; 273  :                     __UNIT_TYPE work_v_buf_code;
; 274  :                     __UNIT_TYPE work_v_buf_words;
; 275  :                     __UNIT_TYPE* work_v_buf = AllocateBlock(work_bit_count, &work_v_buf_words, &work_v_buf_code);

	lea	ecx, DWORD PTR _work_v_buf_code$35[ebp]
	push	ecx
	lea	edx, DWORD PTR _work_v_buf_words$34[ebp]
	push	edx
	mov	eax, DWORD PTR _work_bit_count$39[ebp]
	push	eax
	call	_AllocateBlock
	add	esp, 12					; 0000000cH
	mov	DWORD PTR _work_v_buf$33[ebp], eax

; 276  :                     if (work_v_buf == NULL)

	cmp	DWORD PTR _work_v_buf$33[ebp], 0
	jne	SHORT $LN15@PMC_Greate

; 277  :                     {
; 278  :                         DeallocateBlock(work_u_buf, work_u_buf_words);

	mov	ecx, DWORD PTR _work_u_buf_words$37[ebp]
	push	ecx
	mov	edx, DWORD PTR _work_u_buf$36[ebp]
	push	edx
	call	_DeallocateBlock
	add	esp, 8

; 279  :                         return (PMC_STATUS_NOT_ENOUGH_MEMORY);

	mov	eax, -5					; fffffffbH
	jmp	$LN1@PMC_Greate
$LN15@PMC_Greate:

; 280  :                     }
; 281  : 
; 282  :                     __UNIT_TYPE nw_check_code;
; 283  :                     if ((result = AllocateNumber(w, work_bit_count, &nw_check_code)) != PMC_STATUS_OK)

	lea	eax, DWORD PTR _nw_check_code$32[ebp]
	push	eax
	mov	ecx, DWORD PTR _work_bit_count$39[ebp]
	push	ecx
	mov	edx, DWORD PTR _w$[ebp]
	push	edx
	call	_AllocateNumber
	add	esp, 12					; 0000000cH
	mov	DWORD PTR _result$[ebp], eax
	cmp	DWORD PTR _result$[ebp], 0
	je	SHORT $LN16@PMC_Greate

; 284  :                     {
; 285  :                         DeallocateBlock(work_v_buf, work_v_buf_words);

	mov	eax, DWORD PTR _work_v_buf_words$34[ebp]
	push	eax
	mov	ecx, DWORD PTR _work_v_buf$33[ebp]
	push	ecx
	call	_DeallocateBlock
	add	esp, 8

; 286  :                         DeallocateBlock(work_u_buf, work_u_buf_words);

	mov	edx, DWORD PTR _work_u_buf_words$37[ebp]
	push	edx
	mov	eax, DWORD PTR _work_u_buf$36[ebp]
	push	eax
	call	_DeallocateBlock
	add	esp, 8

; 287  :                         return (result);

	mov	eax, DWORD PTR _result$[ebp]
	jmp	$LN1@PMC_Greate
$LN16@PMC_Greate:

; 288  :                     }
; 289  : 
; 290  :                     __UNIT_TYPE u_tzcnt = u->TRAILING_ZERO_BITS_COUNT;

	mov	ecx, DWORD PTR _u$[ebp]
	mov	edx, DWORD PTR [ecx+20]
	mov	DWORD PTR _u_tzcnt$31[ebp], edx

; 291  :                     __UNIT_TYPE v_tzcnt = _TZCNT_ALT_UNIT(v_lo);

	mov	eax, DWORD PTR _v_lo$41[ebp]
	push	eax
	call	__TZCNT_ALT_UNIT
	add	esp, 4
	mov	DWORD PTR _v_tzcnt$30[ebp], eax

; 292  :                     __UNIT_TYPE k = _MINIMUM_UNIT(u_tzcnt, v_tzcnt);

	mov	ecx, DWORD PTR _v_tzcnt$30[ebp]
	push	ecx
	mov	edx, DWORD PTR _u_tzcnt$31[ebp]
	push	edx
	call	__MINIMUM_UNIT
	add	esp, 8
	mov	DWORD PTR _k$29[ebp], eax

; 293  :                     if (u_tzcnt > 0)

	cmp	DWORD PTR _u_tzcnt$31[ebp], 0
	jbe	SHORT $LN17@PMC_Greate

; 294  :                         RightShift_Imp(u->BLOCK, u->UNIT_WORD_COUNT, u_tzcnt, work_u_buf, FALSE);

	push	0
	mov	eax, DWORD PTR _work_u_buf$36[ebp]
	push	eax
	mov	ecx, DWORD PTR _u_tzcnt$31[ebp]
	push	ecx
	mov	edx, DWORD PTR _u$[ebp]
	mov	eax, DWORD PTR [edx+8]
	push	eax
	mov	ecx, DWORD PTR _u$[ebp]
	mov	edx, DWORD PTR [ecx+32]
	push	edx
	call	_RightShift_Imp
	add	esp, 20					; 00000014H
	jmp	SHORT $LN18@PMC_Greate
$LN17@PMC_Greate:

; 295  :                     else
; 296  :                         _COPY_MEMORY_UNIT(work_u_buf, u->BLOCK, u->UNIT_WORD_COUNT);

	mov	eax, DWORD PTR _u$[ebp]
	mov	ecx, DWORD PTR [eax+8]
	push	ecx
	mov	edx, DWORD PTR _u$[ebp]
	mov	eax, DWORD PTR [edx+32]
	push	eax
	mov	ecx, DWORD PTR _work_u_buf$36[ebp]
	push	ecx
	call	__COPY_MEMORY_UNIT
	add	esp, 12					; 0000000cH
$LN18@PMC_Greate:

; 297  :                     work_v_buf[0] = v_lo >> v_tzcnt;

	mov	edx, DWORD PTR _v_lo$41[ebp]
	mov	ecx, DWORD PTR _v_tzcnt$30[ebp]
	shr	edx, cl
	mov	eax, 4
	imul	ecx, eax, 0
	mov	eax, DWORD PTR _work_v_buf$33[ebp]
	mov	DWORD PTR [eax+ecx], edx

; 298  : 
; 299  :                     __UNIT_TYPE w_buf_count;
; 300  :                     GreatestCommonDivisor_Imp(work_u_buf, work_v_buf, _DIVIDE_CEILING_UNIT(work_bit_count, __UNIT_TYPE_BIT_COUNT), (*w)->BLOCK, &w_buf_count);

	lea	ecx, DWORD PTR _w_buf_count$28[ebp]
	push	ecx
	mov	edx, DWORD PTR _w$[ebp]
	mov	eax, DWORD PTR [edx]
	mov	ecx, DWORD PTR [eax+32]
	push	ecx
	push	32					; 00000020H
	mov	edx, DWORD PTR _work_bit_count$39[ebp]
	push	edx
	call	__DIVIDE_CEILING_UNIT
	add	esp, 8
	push	eax
	mov	eax, DWORD PTR _work_v_buf$33[ebp]
	push	eax
	mov	ecx, DWORD PTR _work_u_buf$36[ebp]
	push	ecx
	call	_GreatestCommonDivisor_Imp
	add	esp, 20					; 00000014H

; 301  :                     if ((result = CheckBlockLight(work_u_buf, work_u_buf_code)) != PMC_STATUS_OK)

	mov	edx, DWORD PTR _work_u_buf_code$38[ebp]
	push	edx
	mov	eax, DWORD PTR _work_u_buf$36[ebp]
	push	eax
	call	_CheckBlockLight
	add	esp, 8
	mov	DWORD PTR _result$[ebp], eax
	cmp	DWORD PTR _result$[ebp], 0
	je	SHORT $LN19@PMC_Greate

; 302  :                         return (result);

	mov	eax, DWORD PTR _result$[ebp]
	jmp	$LN1@PMC_Greate
$LN19@PMC_Greate:

; 303  :                     if ((result = CheckBlockLight(work_v_buf, work_v_buf_code)) != PMC_STATUS_OK)

	mov	ecx, DWORD PTR _work_v_buf_code$35[ebp]
	push	ecx
	mov	edx, DWORD PTR _work_v_buf$33[ebp]
	push	edx
	call	_CheckBlockLight
	add	esp, 8
	mov	DWORD PTR _result$[ebp], eax
	cmp	DWORD PTR _result$[ebp], 0
	je	SHORT $LN20@PMC_Greate

; 304  :                         return (result);

	mov	eax, DWORD PTR _result$[ebp]
	jmp	$LN1@PMC_Greate
$LN20@PMC_Greate:

; 305  :                     if ((result = CheckBlockLight((*w)->BLOCK, nw_check_code)) != PMC_STATUS_OK)

	mov	eax, DWORD PTR _nw_check_code$32[ebp]
	push	eax
	mov	ecx, DWORD PTR _w$[ebp]
	mov	edx, DWORD PTR [ecx]
	mov	eax, DWORD PTR [edx+32]
	push	eax
	call	_CheckBlockLight
	add	esp, 8
	mov	DWORD PTR _result$[ebp], eax
	cmp	DWORD PTR _result$[ebp], 0
	je	SHORT $LN21@PMC_Greate

; 306  :                         return (result);

	mov	eax, DWORD PTR _result$[ebp]
	jmp	$LN1@PMC_Greate
$LN21@PMC_Greate:

; 307  :                     DeallocateBlock(work_v_buf, work_v_buf_words);

	mov	ecx, DWORD PTR _work_v_buf_words$34[ebp]
	push	ecx
	mov	edx, DWORD PTR _work_v_buf$33[ebp]
	push	edx
	call	_DeallocateBlock
	add	esp, 8

; 308  :                     DeallocateBlock(work_u_buf, work_u_buf_words);

	mov	eax, DWORD PTR _work_u_buf_words$37[ebp]
	push	eax
	mov	ecx, DWORD PTR _work_u_buf$36[ebp]
	push	ecx
	call	_DeallocateBlock
	add	esp, 8

; 309  : 
; 310  :                     LeftShift_Imp((*w)->BLOCK, w_buf_count, k, (*w)->BLOCK, TRUE);

	push	1
	mov	edx, DWORD PTR _w$[ebp]
	mov	eax, DWORD PTR [edx]
	mov	ecx, DWORD PTR [eax+32]
	push	ecx
	mov	edx, DWORD PTR _k$29[ebp]
	push	edx
	mov	eax, DWORD PTR _w_buf_count$28[ebp]
	push	eax
	mov	ecx, DWORD PTR _w$[ebp]
	mov	edx, DWORD PTR [ecx]
	mov	eax, DWORD PTR [edx+32]
	push	eax
	call	_LeftShift_Imp
	add	esp, 20					; 00000014H

; 311  :                     if ((result = CheckBlockLight((*w)->BLOCK, nw_check_code)) != PMC_STATUS_OK)

	mov	ecx, DWORD PTR _nw_check_code$32[ebp]
	push	ecx
	mov	edx, DWORD PTR _w$[ebp]
	mov	eax, DWORD PTR [edx]
	mov	ecx, DWORD PTR [eax+32]
	push	ecx
	call	_CheckBlockLight
	add	esp, 8
	mov	DWORD PTR _result$[ebp], eax
	cmp	DWORD PTR _result$[ebp], 0
	je	SHORT $LN22@PMC_Greate

; 312  :                         return (result);

	mov	eax, DWORD PTR _result$[ebp]
	jmp	$LN1@PMC_Greate
$LN22@PMC_Greate:

; 313  :                     CommitNumber(*w);

	mov	edx, DWORD PTR _w$[ebp]
	mov	eax, DWORD PTR [edx]
	push	eax
	call	_CommitNumber
	add	esp, 4

; 314  :                 }

	jmp	$LN13@PMC_Greate
$LN12@PMC_Greate:

; 315  :                 else
; 316  :                 {
; 317  :                     // y の値が 32bit では表現できない場合
; 318  :                     __UNIT_TYPE v_bit_count = sizeof(v) * 8 - _LZCNT_ALT_32(v_hi);

	mov	ecx, DWORD PTR _v_hi$42[ebp]
	push	ecx
	call	__LZCNT_ALT_32
	add	esp, 4
	mov	edx, 64					; 00000040H
	sub	edx, eax
	mov	DWORD PTR _v_bit_count$27[ebp], edx

; 319  :                     __UNIT_TYPE work_bit_count = _MAXIMUM_UNIT(u_bit_count, v_bit_count);

	mov	eax, DWORD PTR _v_bit_count$27[ebp]
	push	eax
	mov	ecx, DWORD PTR _u_bit_count$43[ebp]
	push	ecx
	call	__MAXIMUM_UNIT
	add	esp, 8
	mov	DWORD PTR _work_bit_count$26[ebp], eax

; 320  : 
; 321  :                     __UNIT_TYPE work_u_buf_code;
; 322  :                     __UNIT_TYPE work_u_buf_words;
; 323  :                     __UNIT_TYPE* work_u_buf = AllocateBlock(work_bit_count, &work_u_buf_words, &work_u_buf_code);

	lea	edx, DWORD PTR _work_u_buf_code$25[ebp]
	push	edx
	lea	eax, DWORD PTR _work_u_buf_words$24[ebp]
	push	eax
	mov	ecx, DWORD PTR _work_bit_count$26[ebp]
	push	ecx
	call	_AllocateBlock
	add	esp, 12					; 0000000cH
	mov	DWORD PTR _work_u_buf$23[ebp], eax

; 324  :                     if (work_u_buf == NULL)

	cmp	DWORD PTR _work_u_buf$23[ebp], 0
	jne	SHORT $LN23@PMC_Greate

; 325  :                         return (PMC_STATUS_NOT_ENOUGH_MEMORY);

	mov	eax, -5					; fffffffbH
	jmp	$LN1@PMC_Greate
$LN23@PMC_Greate:

; 326  : 
; 327  :                     __UNIT_TYPE work_v_buf_code;
; 328  :                     __UNIT_TYPE work_v_buf_words;
; 329  :                     __UNIT_TYPE* work_v_buf = AllocateBlock(work_bit_count, &work_v_buf_words, &work_v_buf_code);

	lea	edx, DWORD PTR _work_v_buf_code$22[ebp]
	push	edx
	lea	eax, DWORD PTR _work_v_buf_words$21[ebp]
	push	eax
	mov	ecx, DWORD PTR _work_bit_count$26[ebp]
	push	ecx
	call	_AllocateBlock
	add	esp, 12					; 0000000cH
	mov	DWORD PTR _work_v_buf$20[ebp], eax

; 330  :                     if (work_v_buf == NULL)

	cmp	DWORD PTR _work_v_buf$20[ebp], 0
	jne	SHORT $LN24@PMC_Greate

; 331  :                     {
; 332  :                         DeallocateBlock(work_u_buf, work_u_buf_words);

	mov	edx, DWORD PTR _work_u_buf_words$24[ebp]
	push	edx
	mov	eax, DWORD PTR _work_u_buf$23[ebp]
	push	eax
	call	_DeallocateBlock
	add	esp, 8

; 333  :                         return (PMC_STATUS_NOT_ENOUGH_MEMORY);

	mov	eax, -5					; fffffffbH
	jmp	$LN1@PMC_Greate
$LN24@PMC_Greate:

; 334  :                     }
; 335  : 
; 336  :                     __UNIT_TYPE nw_check_code;
; 337  :                     if ((result = AllocateNumber(w, work_bit_count, &nw_check_code)) != PMC_STATUS_OK)

	lea	ecx, DWORD PTR _nw_check_code$19[ebp]
	push	ecx
	mov	edx, DWORD PTR _work_bit_count$26[ebp]
	push	edx
	mov	eax, DWORD PTR _w$[ebp]
	push	eax
	call	_AllocateNumber
	add	esp, 12					; 0000000cH
	mov	DWORD PTR _result$[ebp], eax
	cmp	DWORD PTR _result$[ebp], 0
	je	SHORT $LN25@PMC_Greate

; 338  :                     {
; 339  :                         DeallocateBlock(work_v_buf, work_v_buf_words);

	mov	ecx, DWORD PTR _work_v_buf_words$21[ebp]
	push	ecx
	mov	edx, DWORD PTR _work_v_buf$20[ebp]
	push	edx
	call	_DeallocateBlock
	add	esp, 8

; 340  :                         DeallocateBlock(work_u_buf, work_u_buf_words);

	mov	eax, DWORD PTR _work_u_buf_words$24[ebp]
	push	eax
	mov	ecx, DWORD PTR _work_u_buf$23[ebp]
	push	ecx
	call	_DeallocateBlock
	add	esp, 8

; 341  :                         return (result);

	mov	eax, DWORD PTR _result$[ebp]
	jmp	$LN1@PMC_Greate
$LN25@PMC_Greate:

; 342  :                     }
; 343  : 
; 344  :                     __UNIT_TYPE u_tzcnt = u->TRAILING_ZERO_BITS_COUNT;

	mov	edx, DWORD PTR _u$[ebp]
	mov	eax, DWORD PTR [edx+20]
	mov	DWORD PTR _u_tzcnt$18[ebp], eax

; 345  :                     __UNIT_TYPE v_tzcnt = v_lo == 0 ? 32 + _TZCNT_ALT_UNIT(v_hi) : _TZCNT_ALT_UNIT(v_lo);

	cmp	DWORD PTR _v_lo$41[ebp], 0
	jne	SHORT $LN43@PMC_Greate
	mov	ecx, DWORD PTR _v_hi$42[ebp]
	push	ecx
	call	__TZCNT_ALT_UNIT
	add	esp, 4
	add	eax, 32					; 00000020H
	mov	DWORD PTR tv238[ebp], eax
	jmp	SHORT $LN44@PMC_Greate
$LN43@PMC_Greate:
	mov	edx, DWORD PTR _v_lo$41[ebp]
	push	edx
	call	__TZCNT_ALT_UNIT
	add	esp, 4
	mov	DWORD PTR tv238[ebp], eax
$LN44@PMC_Greate:
	mov	eax, DWORD PTR tv238[ebp]
	mov	DWORD PTR _v_tzcnt$17[ebp], eax

; 346  :                     __UNIT_TYPE k = _MINIMUM_UNIT(u_tzcnt, v_tzcnt);

	mov	ecx, DWORD PTR _v_tzcnt$17[ebp]
	push	ecx
	mov	edx, DWORD PTR _u_tzcnt$18[ebp]
	push	edx
	call	__MINIMUM_UNIT
	add	esp, 8
	mov	DWORD PTR _k$16[ebp], eax

; 347  :                     if (u_tzcnt > 0)

	cmp	DWORD PTR _u_tzcnt$18[ebp], 0
	jbe	SHORT $LN26@PMC_Greate

; 348  :                         RightShift_Imp(u->BLOCK, u->UNIT_WORD_COUNT, u_tzcnt, work_u_buf, FALSE);

	push	0
	mov	eax, DWORD PTR _work_u_buf$23[ebp]
	push	eax
	mov	ecx, DWORD PTR _u_tzcnt$18[ebp]
	push	ecx
	mov	edx, DWORD PTR _u$[ebp]
	mov	eax, DWORD PTR [edx+8]
	push	eax
	mov	ecx, DWORD PTR _u$[ebp]
	mov	edx, DWORD PTR [ecx+32]
	push	edx
	call	_RightShift_Imp
	add	esp, 20					; 00000014H
	jmp	SHORT $LN27@PMC_Greate
$LN26@PMC_Greate:

; 349  :                     else
; 350  :                         _COPY_MEMORY_UNIT(work_u_buf, u->BLOCK, u->UNIT_WORD_COUNT);

	mov	eax, DWORD PTR _u$[ebp]
	mov	ecx, DWORD PTR [eax+8]
	push	ecx
	mov	edx, DWORD PTR _u$[ebp]
	mov	eax, DWORD PTR [edx+32]
	push	eax
	mov	ecx, DWORD PTR _work_u_buf$23[ebp]
	push	ecx
	call	__COPY_MEMORY_UNIT
	add	esp, 12					; 0000000cH
$LN27@PMC_Greate:

; 351  :                     work_v_buf[0] = v_lo;

	mov	edx, 4
	imul	eax, edx, 0
	mov	ecx, DWORD PTR _work_v_buf$20[ebp]
	mov	edx, DWORD PTR _v_lo$41[ebp]
	mov	DWORD PTR [ecx+eax], edx

; 352  :                     work_v_buf[1] = v_hi;

	mov	eax, 4
	shl	eax, 0
	mov	ecx, DWORD PTR _work_v_buf$20[ebp]
	mov	edx, DWORD PTR _v_hi$42[ebp]
	mov	DWORD PTR [ecx+eax], edx

; 353  :                     if (v_tzcnt > 0)

	cmp	DWORD PTR _v_tzcnt$17[ebp], 0
	jbe	SHORT $LN28@PMC_Greate

; 354  :                         RightShift_Imp(work_v_buf, 2, v_tzcnt, work_v_buf, TRUE);

	push	1
	mov	eax, DWORD PTR _work_v_buf$20[ebp]
	push	eax
	mov	ecx, DWORD PTR _v_tzcnt$17[ebp]
	push	ecx
	push	2
	mov	edx, DWORD PTR _work_v_buf$20[ebp]
	push	edx
	call	_RightShift_Imp
	add	esp, 20					; 00000014H
$LN28@PMC_Greate:

; 355  : 
; 356  :                     __UNIT_TYPE w_buf_count;
; 357  :                     GreatestCommonDivisor_Imp(work_u_buf, work_v_buf, _DIVIDE_CEILING_UNIT(work_bit_count, __UNIT_TYPE_BIT_COUNT), (*w)->BLOCK, &w_buf_count);

	lea	eax, DWORD PTR _w_buf_count$15[ebp]
	push	eax
	mov	ecx, DWORD PTR _w$[ebp]
	mov	edx, DWORD PTR [ecx]
	mov	eax, DWORD PTR [edx+32]
	push	eax
	push	32					; 00000020H
	mov	ecx, DWORD PTR _work_bit_count$26[ebp]
	push	ecx
	call	__DIVIDE_CEILING_UNIT
	add	esp, 8
	push	eax
	mov	edx, DWORD PTR _work_v_buf$20[ebp]
	push	edx
	mov	eax, DWORD PTR _work_u_buf$23[ebp]
	push	eax
	call	_GreatestCommonDivisor_Imp
	add	esp, 20					; 00000014H

; 358  :                     if ((result = CheckBlockLight(work_u_buf, work_u_buf_code)) != PMC_STATUS_OK)

	mov	ecx, DWORD PTR _work_u_buf_code$25[ebp]
	push	ecx
	mov	edx, DWORD PTR _work_u_buf$23[ebp]
	push	edx
	call	_CheckBlockLight
	add	esp, 8
	mov	DWORD PTR _result$[ebp], eax
	cmp	DWORD PTR _result$[ebp], 0
	je	SHORT $LN29@PMC_Greate

; 359  :                         return (result);

	mov	eax, DWORD PTR _result$[ebp]
	jmp	$LN1@PMC_Greate
$LN29@PMC_Greate:

; 360  :                     if ((result = CheckBlockLight(work_v_buf, work_v_buf_code)) != PMC_STATUS_OK)

	mov	eax, DWORD PTR _work_v_buf_code$22[ebp]
	push	eax
	mov	ecx, DWORD PTR _work_v_buf$20[ebp]
	push	ecx
	call	_CheckBlockLight
	add	esp, 8
	mov	DWORD PTR _result$[ebp], eax
	cmp	DWORD PTR _result$[ebp], 0
	je	SHORT $LN30@PMC_Greate

; 361  :                         return (result);

	mov	eax, DWORD PTR _result$[ebp]
	jmp	$LN1@PMC_Greate
$LN30@PMC_Greate:

; 362  :                     if ((result = CheckBlockLight((*w)->BLOCK, nw_check_code)) != PMC_STATUS_OK)

	mov	edx, DWORD PTR _nw_check_code$19[ebp]
	push	edx
	mov	eax, DWORD PTR _w$[ebp]
	mov	ecx, DWORD PTR [eax]
	mov	edx, DWORD PTR [ecx+32]
	push	edx
	call	_CheckBlockLight
	add	esp, 8
	mov	DWORD PTR _result$[ebp], eax
	cmp	DWORD PTR _result$[ebp], 0
	je	SHORT $LN31@PMC_Greate

; 363  :                         return (result);

	mov	eax, DWORD PTR _result$[ebp]
	jmp	$LN1@PMC_Greate
$LN31@PMC_Greate:

; 364  :                     DeallocateBlock(work_v_buf, work_v_buf_words);

	mov	eax, DWORD PTR _work_v_buf_words$21[ebp]
	push	eax
	mov	ecx, DWORD PTR _work_v_buf$20[ebp]
	push	ecx
	call	_DeallocateBlock
	add	esp, 8

; 365  :                     DeallocateBlock(work_u_buf, work_u_buf_words);

	mov	edx, DWORD PTR _work_u_buf_words$24[ebp]
	push	edx
	mov	eax, DWORD PTR _work_u_buf$23[ebp]
	push	eax
	call	_DeallocateBlock
	add	esp, 8

; 366  : 
; 367  :                     LeftShift_Imp((*w)->BLOCK, w_buf_count, k, (*w)->BLOCK, TRUE);

	push	1
	mov	ecx, DWORD PTR _w$[ebp]
	mov	edx, DWORD PTR [ecx]
	mov	eax, DWORD PTR [edx+32]
	push	eax
	mov	ecx, DWORD PTR _k$16[ebp]
	push	ecx
	mov	edx, DWORD PTR _w_buf_count$15[ebp]
	push	edx
	mov	eax, DWORD PTR _w$[ebp]
	mov	ecx, DWORD PTR [eax]
	mov	edx, DWORD PTR [ecx+32]
	push	edx
	call	_LeftShift_Imp
	add	esp, 20					; 00000014H

; 368  :                     if ((result = CheckBlockLight((*w)->BLOCK, nw_check_code)) != PMC_STATUS_OK)

	mov	eax, DWORD PTR _nw_check_code$19[ebp]
	push	eax
	mov	ecx, DWORD PTR _w$[ebp]
	mov	edx, DWORD PTR [ecx]
	mov	eax, DWORD PTR [edx+32]
	push	eax
	call	_CheckBlockLight
	add	esp, 8
	mov	DWORD PTR _result$[ebp], eax
	cmp	DWORD PTR _result$[ebp], 0
	je	SHORT $LN32@PMC_Greate

; 369  :                         return (result);

	mov	eax, DWORD PTR _result$[ebp]
	jmp	$LN1@PMC_Greate
$LN32@PMC_Greate:

; 370  :                     CommitNumber(*w);

	mov	ecx, DWORD PTR _w$[ebp]
	mov	edx, DWORD PTR [ecx]
	push	edx
	call	_CommitNumber
	add	esp, 4
$LN13@PMC_Greate:

; 371  :                 }
; 372  :             }

	jmp	$LN3@PMC_Greate
$LN10@PMC_Greate:

; 373  :             else
; 374  :             {
; 375  :                 // _UINT64_T が 1 ワードで表現できる場合
; 376  : 
; 377  :                 __UNIT_TYPE u_bit_count = u->UNIT_BIT_COUNT;

	mov	eax, DWORD PTR _u$[ebp]
	mov	ecx, DWORD PTR [eax+12]
	mov	DWORD PTR _u_bit_count$14[ebp], ecx

; 378  :                 __UNIT_TYPE v_bit_count = sizeof(v) * 8 - _LZCNT_ALT_UNIT((__UNIT_TYPE)v);

	mov	edx, DWORD PTR _v$[ebp]
	push	edx
	call	__LZCNT_ALT_UNIT
	add	esp, 4
	mov	ecx, 64					; 00000040H
	sub	ecx, eax
	mov	DWORD PTR _v_bit_count$13[ebp], ecx

; 379  :                 __UNIT_TYPE work_bit_count = _MAXIMUM_UNIT(u_bit_count, v_bit_count);

	mov	edx, DWORD PTR _v_bit_count$13[ebp]
	push	edx
	mov	eax, DWORD PTR _u_bit_count$14[ebp]
	push	eax
	call	__MAXIMUM_UNIT
	add	esp, 8
	mov	DWORD PTR _work_bit_count$12[ebp], eax

; 380  : 
; 381  :                 __UNIT_TYPE work_u_buf_code;
; 382  :                 __UNIT_TYPE work_u_buf_words;
; 383  :                 __UNIT_TYPE* work_u_buf = AllocateBlock(work_bit_count, &work_u_buf_words, &work_u_buf_code);

	lea	ecx, DWORD PTR _work_u_buf_code$11[ebp]
	push	ecx
	lea	edx, DWORD PTR _work_u_buf_words$10[ebp]
	push	edx
	mov	eax, DWORD PTR _work_bit_count$12[ebp]
	push	eax
	call	_AllocateBlock
	add	esp, 12					; 0000000cH
	mov	DWORD PTR _work_u_buf$9[ebp], eax

; 384  :                 if (work_u_buf == NULL)

	cmp	DWORD PTR _work_u_buf$9[ebp], 0
	jne	SHORT $LN33@PMC_Greate

; 385  :                     return (PMC_STATUS_NOT_ENOUGH_MEMORY);

	mov	eax, -5					; fffffffbH
	jmp	$LN1@PMC_Greate
$LN33@PMC_Greate:

; 386  : 
; 387  :                 __UNIT_TYPE work_v_buf_code;
; 388  :                 __UNIT_TYPE work_v_buf_words;
; 389  :                 __UNIT_TYPE* work_v_buf = AllocateBlock(work_bit_count, &work_v_buf_words, &work_v_buf_code);

	lea	ecx, DWORD PTR _work_v_buf_code$8[ebp]
	push	ecx
	lea	edx, DWORD PTR _work_v_buf_words$7[ebp]
	push	edx
	mov	eax, DWORD PTR _work_bit_count$12[ebp]
	push	eax
	call	_AllocateBlock
	add	esp, 12					; 0000000cH
	mov	DWORD PTR _work_v_buf$6[ebp], eax

; 390  :                 if (work_v_buf == NULL)

	cmp	DWORD PTR _work_v_buf$6[ebp], 0
	jne	SHORT $LN34@PMC_Greate

; 391  :                 {
; 392  :                     DeallocateBlock(work_u_buf, work_u_buf_words);

	mov	ecx, DWORD PTR _work_u_buf_words$10[ebp]
	push	ecx
	mov	edx, DWORD PTR _work_u_buf$9[ebp]
	push	edx
	call	_DeallocateBlock
	add	esp, 8

; 393  :                     return (PMC_STATUS_NOT_ENOUGH_MEMORY);

	mov	eax, -5					; fffffffbH
	jmp	$LN1@PMC_Greate
$LN34@PMC_Greate:

; 394  :                 }
; 395  : 
; 396  :                 __UNIT_TYPE nw_check_code;
; 397  :                 if ((result = AllocateNumber(w, work_bit_count, &nw_check_code)) != PMC_STATUS_OK)

	lea	eax, DWORD PTR _nw_check_code$5[ebp]
	push	eax
	mov	ecx, DWORD PTR _work_bit_count$12[ebp]
	push	ecx
	mov	edx, DWORD PTR _w$[ebp]
	push	edx
	call	_AllocateNumber
	add	esp, 12					; 0000000cH
	mov	DWORD PTR _result$[ebp], eax
	cmp	DWORD PTR _result$[ebp], 0
	je	SHORT $LN35@PMC_Greate

; 398  :                 {
; 399  :                     DeallocateBlock(work_v_buf, work_v_buf_words);

	mov	eax, DWORD PTR _work_v_buf_words$7[ebp]
	push	eax
	mov	ecx, DWORD PTR _work_v_buf$6[ebp]
	push	ecx
	call	_DeallocateBlock
	add	esp, 8

; 400  :                     DeallocateBlock(work_u_buf, work_u_buf_words);

	mov	edx, DWORD PTR _work_u_buf_words$10[ebp]
	push	edx
	mov	eax, DWORD PTR _work_u_buf$9[ebp]
	push	eax
	call	_DeallocateBlock
	add	esp, 8

; 401  :                     return (result);

	mov	eax, DWORD PTR _result$[ebp]
	jmp	$LN1@PMC_Greate
$LN35@PMC_Greate:

; 402  :                 }
; 403  : 
; 404  :                 __UNIT_TYPE u_tzcnt = u->TRAILING_ZERO_BITS_COUNT;

	mov	ecx, DWORD PTR _u$[ebp]
	mov	edx, DWORD PTR [ecx+20]
	mov	DWORD PTR _u_tzcnt$4[ebp], edx

; 405  :                 __UNIT_TYPE v_tzcnt = _TZCNT_ALT_UNIT((__UNIT_TYPE)v);

	mov	eax, DWORD PTR _v$[ebp]
	push	eax
	call	__TZCNT_ALT_UNIT
	add	esp, 4
	mov	DWORD PTR _v_tzcnt$3[ebp], eax

; 406  :                 __UNIT_TYPE k = _MINIMUM_UNIT(u_tzcnt, v_tzcnt);

	mov	ecx, DWORD PTR _v_tzcnt$3[ebp]
	push	ecx
	mov	edx, DWORD PTR _u_tzcnt$4[ebp]
	push	edx
	call	__MINIMUM_UNIT
	add	esp, 8
	mov	DWORD PTR _k$2[ebp], eax

; 407  :                 if (u_tzcnt > 0)

	cmp	DWORD PTR _u_tzcnt$4[ebp], 0
	jbe	SHORT $LN36@PMC_Greate

; 408  :                     RightShift_Imp(u->BLOCK, u->UNIT_WORD_COUNT, u_tzcnt, work_u_buf, FALSE);

	push	0
	mov	eax, DWORD PTR _work_u_buf$9[ebp]
	push	eax
	mov	ecx, DWORD PTR _u_tzcnt$4[ebp]
	push	ecx
	mov	edx, DWORD PTR _u$[ebp]
	mov	eax, DWORD PTR [edx+8]
	push	eax
	mov	ecx, DWORD PTR _u$[ebp]
	mov	edx, DWORD PTR [ecx+32]
	push	edx
	call	_RightShift_Imp
	add	esp, 20					; 00000014H
	jmp	SHORT $LN37@PMC_Greate
$LN36@PMC_Greate:

; 409  :                 else
; 410  :                     _COPY_MEMORY_UNIT(work_u_buf, u->BLOCK, u->UNIT_WORD_COUNT);

	mov	eax, DWORD PTR _u$[ebp]
	mov	ecx, DWORD PTR [eax+8]
	push	ecx
	mov	edx, DWORD PTR _u$[ebp]
	mov	eax, DWORD PTR [edx+32]
	push	eax
	mov	ecx, DWORD PTR _work_u_buf$9[ebp]
	push	ecx
	call	__COPY_MEMORY_UNIT
	add	esp, 12					; 0000000cH
$LN37@PMC_Greate:

; 411  :                 work_v_buf[0] = (__UNIT_TYPE)(v >> v_tzcnt);

	mov	eax, DWORD PTR _v$[ebp]
	mov	edx, DWORD PTR _v$[ebp+4]
	mov	ecx, DWORD PTR _v_tzcnt$3[ebp]
	call	__aullshr
	mov	edx, 4
	imul	ecx, edx, 0
	mov	edx, DWORD PTR _work_v_buf$6[ebp]
	mov	DWORD PTR [edx+ecx], eax

; 412  : 
; 413  :                 __UNIT_TYPE w_buf_count;
; 414  :                 GreatestCommonDivisor_Imp(work_u_buf, work_v_buf, _DIVIDE_CEILING_UNIT(work_bit_count, __UNIT_TYPE_BIT_COUNT), (*w)->BLOCK, &w_buf_count);

	lea	eax, DWORD PTR _w_buf_count$1[ebp]
	push	eax
	mov	ecx, DWORD PTR _w$[ebp]
	mov	edx, DWORD PTR [ecx]
	mov	eax, DWORD PTR [edx+32]
	push	eax
	push	32					; 00000020H
	mov	ecx, DWORD PTR _work_bit_count$12[ebp]
	push	ecx
	call	__DIVIDE_CEILING_UNIT
	add	esp, 8
	push	eax
	mov	edx, DWORD PTR _work_v_buf$6[ebp]
	push	edx
	mov	eax, DWORD PTR _work_u_buf$9[ebp]
	push	eax
	call	_GreatestCommonDivisor_Imp
	add	esp, 20					; 00000014H

; 415  :                 if ((result = CheckBlockLight(work_u_buf, work_u_buf_code)) != PMC_STATUS_OK)

	mov	ecx, DWORD PTR _work_u_buf_code$11[ebp]
	push	ecx
	mov	edx, DWORD PTR _work_u_buf$9[ebp]
	push	edx
	call	_CheckBlockLight
	add	esp, 8
	mov	DWORD PTR _result$[ebp], eax
	cmp	DWORD PTR _result$[ebp], 0
	je	SHORT $LN38@PMC_Greate

; 416  :                     return (result);

	mov	eax, DWORD PTR _result$[ebp]
	jmp	$LN1@PMC_Greate
$LN38@PMC_Greate:

; 417  :                 if ((result = CheckBlockLight(work_v_buf, work_v_buf_code)) != PMC_STATUS_OK)

	mov	eax, DWORD PTR _work_v_buf_code$8[ebp]
	push	eax
	mov	ecx, DWORD PTR _work_v_buf$6[ebp]
	push	ecx
	call	_CheckBlockLight
	add	esp, 8
	mov	DWORD PTR _result$[ebp], eax
	cmp	DWORD PTR _result$[ebp], 0
	je	SHORT $LN39@PMC_Greate

; 418  :                     return (result);

	mov	eax, DWORD PTR _result$[ebp]
	jmp	$LN1@PMC_Greate
$LN39@PMC_Greate:

; 419  :                 if ((result = CheckBlockLight((*w)->BLOCK, nw_check_code)) != PMC_STATUS_OK)

	mov	edx, DWORD PTR _nw_check_code$5[ebp]
	push	edx
	mov	eax, DWORD PTR _w$[ebp]
	mov	ecx, DWORD PTR [eax]
	mov	edx, DWORD PTR [ecx+32]
	push	edx
	call	_CheckBlockLight
	add	esp, 8
	mov	DWORD PTR _result$[ebp], eax
	cmp	DWORD PTR _result$[ebp], 0
	je	SHORT $LN40@PMC_Greate

; 420  :                     return (result);

	mov	eax, DWORD PTR _result$[ebp]
	jmp	$LN1@PMC_Greate
$LN40@PMC_Greate:

; 421  :                 DeallocateBlock(work_v_buf, work_v_buf_words);

	mov	eax, DWORD PTR _work_v_buf_words$7[ebp]
	push	eax
	mov	ecx, DWORD PTR _work_v_buf$6[ebp]
	push	ecx
	call	_DeallocateBlock
	add	esp, 8

; 422  :                 DeallocateBlock(work_u_buf, work_u_buf_words);

	mov	edx, DWORD PTR _work_u_buf_words$10[ebp]
	push	edx
	mov	eax, DWORD PTR _work_u_buf$9[ebp]
	push	eax
	call	_DeallocateBlock
	add	esp, 8

; 423  : 
; 424  :                 LeftShift_Imp((*w)->BLOCK, w_buf_count, k, (*w)->BLOCK, TRUE);

	push	1
	mov	ecx, DWORD PTR _w$[ebp]
	mov	edx, DWORD PTR [ecx]
	mov	eax, DWORD PTR [edx+32]
	push	eax
	mov	ecx, DWORD PTR _k$2[ebp]
	push	ecx
	mov	edx, DWORD PTR _w_buf_count$1[ebp]
	push	edx
	mov	eax, DWORD PTR _w$[ebp]
	mov	ecx, DWORD PTR [eax]
	mov	edx, DWORD PTR [ecx+32]
	push	edx
	call	_LeftShift_Imp
	add	esp, 20					; 00000014H

; 425  :                 if ((result = CheckBlockLight((*w)->BLOCK, nw_check_code)) != PMC_STATUS_OK)

	mov	eax, DWORD PTR _nw_check_code$5[ebp]
	push	eax
	mov	ecx, DWORD PTR _w$[ebp]
	mov	edx, DWORD PTR [ecx]
	mov	eax, DWORD PTR [edx+32]
	push	eax
	call	_CheckBlockLight
	add	esp, 8
	mov	DWORD PTR _result$[ebp], eax
	cmp	DWORD PTR _result$[ebp], 0
	je	SHORT $LN41@PMC_Greate

; 426  :                     return (result);

	mov	eax, DWORD PTR _result$[ebp]
	jmp	SHORT $LN1@PMC_Greate
$LN41@PMC_Greate:

; 427  :                 CommitNumber(*w);

	mov	ecx, DWORD PTR _w$[ebp]
	mov	edx, DWORD PTR [ecx]
	push	edx
	call	_CommitNumber
	add	esp, 4
$LN3@PMC_Greate:

; 428  :             }
; 429  :         }
; 430  :     }
; 431  :     return (PMC_STATUS_OK);

	xor	eax, eax
$LN1@PMC_Greate:

; 432  : }

	push	edx
	mov	ecx, ebp
	push	eax
	lea	edx, DWORD PTR $LN65@PMC_Greate
	call	@_RTC_CheckStackVars@8
	pop	eax
	pop	edx
	pop	edi
	add	esp, 332				; 0000014cH
	cmp	ebp, esp
	call	__RTC_CheckEsp
	mov	esp, ebp
	pop	ebp
	ret	0
	npad	1
$LN65@PMC_Greate:
	DD	19					; 00000013H
	DD	$LN64@PMC_Greate
$LN64@PMC_Greate:
	DD	-16					; fffffff0H
	DD	4
	DD	$LN45@PMC_Greate
	DD	-40					; ffffffd8H
	DD	4
	DD	$LN46@PMC_Greate
	DD	-52					; ffffffccH
	DD	4
	DD	$LN47@PMC_Greate
	DD	-68					; ffffffbcH
	DD	4
	DD	$LN48@PMC_Greate
	DD	-80					; ffffffb0H
	DD	4
	DD	$LN49@PMC_Greate
	DD	-96					; ffffffa0H
	DD	4
	DD	$LN50@PMC_Greate
	DD	-120					; ffffff88H
	DD	4
	DD	$LN51@PMC_Greate
	DD	-140					; ffffff74H
	DD	4
	DD	$LN52@PMC_Greate
	DD	-152					; ffffff68H
	DD	4
	DD	$LN53@PMC_Greate
	DD	-168					; ffffff58H
	DD	4
	DD	$LN54@PMC_Greate
	DD	-180					; ffffff4cH
	DD	4
	DD	$LN55@PMC_Greate
	DD	-196					; ffffff3cH
	DD	4
	DD	$LN56@PMC_Greate
	DD	-220					; ffffff24H
	DD	4
	DD	$LN57@PMC_Greate
	DD	-244					; ffffff0cH
	DD	4
	DD	$LN58@PMC_Greate
	DD	-256					; ffffff00H
	DD	4
	DD	$LN59@PMC_Greate
	DD	-272					; fffffef0H
	DD	4
	DD	$LN60@PMC_Greate
	DD	-284					; fffffee4H
	DD	4
	DD	$LN61@PMC_Greate
	DD	-300					; fffffed4H
	DD	4
	DD	$LN62@PMC_Greate
	DD	-324					; fffffebcH
	DD	4
	DD	$LN63@PMC_Greate
$LN63@PMC_Greate:
	DB	119					; 00000077H
	DB	95					; 0000005fH
	DB	98					; 00000062H
	DB	117					; 00000075H
	DB	102					; 00000066H
	DB	95					; 0000005fH
	DB	99					; 00000063H
	DB	111					; 0000006fH
	DB	117					; 00000075H
	DB	110					; 0000006eH
	DB	116					; 00000074H
	DB	0
$LN62@PMC_Greate:
	DB	110					; 0000006eH
	DB	119					; 00000077H
	DB	95					; 0000005fH
	DB	99					; 00000063H
	DB	104					; 00000068H
	DB	101					; 00000065H
	DB	99					; 00000063H
	DB	107					; 0000006bH
	DB	95					; 0000005fH
	DB	99					; 00000063H
	DB	111					; 0000006fH
	DB	100					; 00000064H
	DB	101					; 00000065H
	DB	0
$LN61@PMC_Greate:
	DB	119					; 00000077H
	DB	111					; 0000006fH
	DB	114					; 00000072H
	DB	107					; 0000006bH
	DB	95					; 0000005fH
	DB	118					; 00000076H
	DB	95					; 0000005fH
	DB	98					; 00000062H
	DB	117					; 00000075H
	DB	102					; 00000066H
	DB	95					; 0000005fH
	DB	119					; 00000077H
	DB	111					; 0000006fH
	DB	114					; 00000072H
	DB	100					; 00000064H
	DB	115					; 00000073H
	DB	0
$LN60@PMC_Greate:
	DB	119					; 00000077H
	DB	111					; 0000006fH
	DB	114					; 00000072H
	DB	107					; 0000006bH
	DB	95					; 0000005fH
	DB	118					; 00000076H
	DB	95					; 0000005fH
	DB	98					; 00000062H
	DB	117					; 00000075H
	DB	102					; 00000066H
	DB	95					; 0000005fH
	DB	99					; 00000063H
	DB	111					; 0000006fH
	DB	100					; 00000064H
	DB	101					; 00000065H
	DB	0
$LN59@PMC_Greate:
	DB	119					; 00000077H
	DB	111					; 0000006fH
	DB	114					; 00000072H
	DB	107					; 0000006bH
	DB	95					; 0000005fH
	DB	117					; 00000075H
	DB	95					; 0000005fH
	DB	98					; 00000062H
	DB	117					; 00000075H
	DB	102					; 00000066H
	DB	95					; 0000005fH
	DB	119					; 00000077H
	DB	111					; 0000006fH
	DB	114					; 00000072H
	DB	100					; 00000064H
	DB	115					; 00000073H
	DB	0
$LN58@PMC_Greate:
	DB	119					; 00000077H
	DB	111					; 0000006fH
	DB	114					; 00000072H
	DB	107					; 0000006bH
	DB	95					; 0000005fH
	DB	117					; 00000075H
	DB	95					; 0000005fH
	DB	98					; 00000062H
	DB	117					; 00000075H
	DB	102					; 00000066H
	DB	95					; 0000005fH
	DB	99					; 00000063H
	DB	111					; 0000006fH
	DB	100					; 00000064H
	DB	101					; 00000065H
	DB	0
$LN57@PMC_Greate:
	DB	119					; 00000077H
	DB	95					; 0000005fH
	DB	98					; 00000062H
	DB	117					; 00000075H
	DB	102					; 00000066H
	DB	95					; 0000005fH
	DB	99					; 00000063H
	DB	111					; 0000006fH
	DB	117					; 00000075H
	DB	110					; 0000006eH
	DB	116					; 00000074H
	DB	0
$LN56@PMC_Greate:
	DB	110					; 0000006eH
	DB	119					; 00000077H
	DB	95					; 0000005fH
	DB	99					; 00000063H
	DB	104					; 00000068H
	DB	101					; 00000065H
	DB	99					; 00000063H
	DB	107					; 0000006bH
	DB	95					; 0000005fH
	DB	99					; 00000063H
	DB	111					; 0000006fH
	DB	100					; 00000064H
	DB	101					; 00000065H
	DB	0
$LN55@PMC_Greate:
	DB	119					; 00000077H
	DB	111					; 0000006fH
	DB	114					; 00000072H
	DB	107					; 0000006bH
	DB	95					; 0000005fH
	DB	118					; 00000076H
	DB	95					; 0000005fH
	DB	98					; 00000062H
	DB	117					; 00000075H
	DB	102					; 00000066H
	DB	95					; 0000005fH
	DB	119					; 00000077H
	DB	111					; 0000006fH
	DB	114					; 00000072H
	DB	100					; 00000064H
	DB	115					; 00000073H
	DB	0
$LN54@PMC_Greate:
	DB	119					; 00000077H
	DB	111					; 0000006fH
	DB	114					; 00000072H
	DB	107					; 0000006bH
	DB	95					; 0000005fH
	DB	118					; 00000076H
	DB	95					; 0000005fH
	DB	98					; 00000062H
	DB	117					; 00000075H
	DB	102					; 00000066H
	DB	95					; 0000005fH
	DB	99					; 00000063H
	DB	111					; 0000006fH
	DB	100					; 00000064H
	DB	101					; 00000065H
	DB	0
$LN53@PMC_Greate:
	DB	119					; 00000077H
	DB	111					; 0000006fH
	DB	114					; 00000072H
	DB	107					; 0000006bH
	DB	95					; 0000005fH
	DB	117					; 00000075H
	DB	95					; 0000005fH
	DB	98					; 00000062H
	DB	117					; 00000075H
	DB	102					; 00000066H
	DB	95					; 0000005fH
	DB	119					; 00000077H
	DB	111					; 0000006fH
	DB	114					; 00000072H
	DB	100					; 00000064H
	DB	115					; 00000073H
	DB	0
$LN52@PMC_Greate:
	DB	119					; 00000077H
	DB	111					; 0000006fH
	DB	114					; 00000072H
	DB	107					; 0000006bH
	DB	95					; 0000005fH
	DB	117					; 00000075H
	DB	95					; 0000005fH
	DB	98					; 00000062H
	DB	117					; 00000075H
	DB	102					; 00000066H
	DB	95					; 0000005fH
	DB	99					; 00000063H
	DB	111					; 0000006fH
	DB	100					; 00000064H
	DB	101					; 00000065H
	DB	0
$LN51@PMC_Greate:
	DB	119					; 00000077H
	DB	95					; 0000005fH
	DB	98					; 00000062H
	DB	117					; 00000075H
	DB	102					; 00000066H
	DB	95					; 0000005fH
	DB	99					; 00000063H
	DB	111					; 0000006fH
	DB	117					; 00000075H
	DB	110					; 0000006eH
	DB	116					; 00000074H
	DB	0
$LN50@PMC_Greate:
	DB	110					; 0000006eH
	DB	119					; 00000077H
	DB	95					; 0000005fH
	DB	99					; 00000063H
	DB	104					; 00000068H
	DB	101					; 00000065H
	DB	99					; 00000063H
	DB	107					; 0000006bH
	DB	95					; 0000005fH
	DB	99					; 00000063H
	DB	111					; 0000006fH
	DB	100					; 00000064H
	DB	101					; 00000065H
	DB	0
$LN49@PMC_Greate:
	DB	119					; 00000077H
	DB	111					; 0000006fH
	DB	114					; 00000072H
	DB	107					; 0000006bH
	DB	95					; 0000005fH
	DB	118					; 00000076H
	DB	95					; 0000005fH
	DB	98					; 00000062H
	DB	117					; 00000075H
	DB	102					; 00000066H
	DB	95					; 0000005fH
	DB	119					; 00000077H
	DB	111					; 0000006fH
	DB	114					; 00000072H
	DB	100					; 00000064H
	DB	115					; 00000073H
	DB	0
$LN48@PMC_Greate:
	DB	119					; 00000077H
	DB	111					; 0000006fH
	DB	114					; 00000072H
	DB	107					; 0000006bH
	DB	95					; 0000005fH
	DB	118					; 00000076H
	DB	95					; 0000005fH
	DB	98					; 00000062H
	DB	117					; 00000075H
	DB	102					; 00000066H
	DB	95					; 0000005fH
	DB	99					; 00000063H
	DB	111					; 0000006fH
	DB	100					; 00000064H
	DB	101					; 00000065H
	DB	0
$LN47@PMC_Greate:
	DB	119					; 00000077H
	DB	111					; 0000006fH
	DB	114					; 00000072H
	DB	107					; 0000006bH
	DB	95					; 0000005fH
	DB	117					; 00000075H
	DB	95					; 0000005fH
	DB	98					; 00000062H
	DB	117					; 00000075H
	DB	102					; 00000066H
	DB	95					; 0000005fH
	DB	119					; 00000077H
	DB	111					; 0000006fH
	DB	114					; 00000072H
	DB	100					; 00000064H
	DB	115					; 00000073H
	DB	0
$LN46@PMC_Greate:
	DB	119					; 00000077H
	DB	111					; 0000006fH
	DB	114					; 00000072H
	DB	107					; 0000006bH
	DB	95					; 0000005fH
	DB	117					; 00000075H
	DB	95					; 0000005fH
	DB	98					; 00000062H
	DB	117					; 00000075H
	DB	102					; 00000066H
	DB	95					; 0000005fH
	DB	99					; 00000063H
	DB	111					; 0000006fH
	DB	100					; 00000064H
	DB	101					; 00000065H
	DB	0
$LN45@PMC_Greate:
	DB	118					; 00000076H
	DB	95					; 0000005fH
	DB	104					; 00000068H
	DB	105					; 00000069H
	DB	0
_PMC_GreatestCommonDivisor_X_L_Imp ENDP
_TEXT	ENDS
; Function compile flags: /Odtp /RTCsu
; File z:\sources\lunor\repos\rougemeilland\palmtree.math.core.uint\palmtree.math.core.uint\pmc_greatestcommondivisor.c
_TEXT	SEGMENT
_w_buf_count$1 = -104					; size = 4
_k$2 = -96						; size = 4
_v_tzcnt$3 = -92					; size = 4
_u_tzcnt$4 = -88					; size = 4
_nw_check_code$5 = -80					; size = 4
_work_v_buf$6 = -72					; size = 4
_work_v_buf_words$7 = -64				; size = 4
_work_v_buf_code$8 = -52				; size = 4
_work_u_buf$9 = -44					; size = 4
_work_u_buf_words$10 = -36				; size = 4
_work_u_buf_code$11 = -24				; size = 4
_work_bit_count$12 = -16				; size = 4
_v_bit_count$13 = -12					; size = 4
_u_bit_count$14 = -8					; size = 4
_result$ = -4						; size = 4
_u$ = 8							; size = 4
_v$ = 12						; size = 4
_w$ = 16						; size = 4
_PMC_GreatestCommonDivisor_X_I_Imp PROC

; 73   : {

	push	ebp
	mov	ebp, esp
	sub	esp, 108				; 0000006cH
	push	edi
	lea	edi, DWORD PTR [ebp-108]
	mov	ecx, 27					; 0000001bH
	mov	eax, -858993460				; ccccccccH
	rep stosd
	mov	ecx, OFFSET __3257AA0B_pmc_greatestcommondivisor@c
	call	@__CheckForDebuggerJustMyCode@4

; 74   :     PMC_STATUS_CODE result;
; 75   :     if (u->IS_ZERO)

	mov	eax, DWORD PTR _u$[ebp]
	mov	ecx, DWORD PTR [eax+24]
	shr	ecx, 1
	and	ecx, 1
	je	SHORT $LN2@PMC_Greate

; 76   :     {
; 77   :         // u が 0 である場合
; 78   : 
; 79   :         if (v == 0)

	cmp	DWORD PTR _v$[ebp], 0
	jne	SHORT $LN4@PMC_Greate

; 80   :         {
; 81   :             // v が 0 である場合
; 82   : 
; 83   :             // u と v がともに 0 であり、GCD は一意に存在しないため、エラーを返す。
; 84   :             return (PMC_STATUS_ARGUMENT_ERROR);

	or	eax, -1
	jmp	$LN1@PMC_Greate

; 85   :         }

	jmp	SHORT $LN5@PMC_Greate
$LN4@PMC_Greate:

; 86   :         else
; 87   :         {
; 88   :             // v が 0 ではない場合
; 89   : 
; 90   :             // GCD は v そのものであるため、v を計算結果として返す。
; 91   :             if ((result = From_I_Imp(v, w)) != PMC_STATUS_OK)

	mov	edx, DWORD PTR _w$[ebp]
	push	edx
	mov	eax, DWORD PTR _v$[ebp]
	push	eax
	call	_From_I_Imp
	add	esp, 8
	mov	DWORD PTR _result$[ebp], eax
	cmp	DWORD PTR _result$[ebp], 0
	je	SHORT $LN5@PMC_Greate

; 92   :                 return (result);

	mov	eax, DWORD PTR _result$[ebp]
	jmp	$LN1@PMC_Greate
$LN5@PMC_Greate:

; 93   :         }
; 94   :     }

	jmp	$LN3@PMC_Greate
$LN2@PMC_Greate:

; 95   :     else
; 96   :     {
; 97   :         // u が 0 ではない場合
; 98   : 
; 99   :         if (v == 0)

	cmp	DWORD PTR _v$[ebp], 0
	jne	SHORT $LN7@PMC_Greate

; 100  :         {
; 101  :             // v が 0 である場合
; 102  : 
; 103  :             // GCD は u そのものであるため、u を計算結果として返す。
; 104  :             if ((result = DuplicateNumber(u, w)) != PMC_STATUS_OK)

	mov	ecx, DWORD PTR _w$[ebp]
	push	ecx
	mov	edx, DWORD PTR _u$[ebp]
	push	edx
	call	_DuplicateNumber
	add	esp, 8
	mov	DWORD PTR _result$[ebp], eax
	cmp	DWORD PTR _result$[ebp], 0
	je	SHORT $LN9@PMC_Greate

; 105  :                 return (result);

	mov	eax, DWORD PTR _result$[ebp]
	jmp	$LN1@PMC_Greate
$LN9@PMC_Greate:

; 106  :         }

	jmp	$LN3@PMC_Greate
$LN7@PMC_Greate:

; 107  :         else
; 108  :         {
; 109  :             // u と v がともに 0 ではない場合
; 110  : 
; 111  :             // u と v の GCD を計算する
; 112  :             __UNIT_TYPE u_bit_count = u->UNIT_BIT_COUNT;

	mov	eax, DWORD PTR _u$[ebp]
	mov	ecx, DWORD PTR [eax+12]
	mov	DWORD PTR _u_bit_count$14[ebp], ecx

; 113  :             __UNIT_TYPE v_bit_count = sizeof(v) * 8 - _LZCNT_ALT_32(v);

	mov	edx, DWORD PTR _v$[ebp]
	push	edx
	call	__LZCNT_ALT_32
	add	esp, 4
	mov	ecx, 32					; 00000020H
	sub	ecx, eax
	mov	DWORD PTR _v_bit_count$13[ebp], ecx

; 114  :             __UNIT_TYPE work_bit_count = _MAXIMUM_UNIT(u_bit_count, v_bit_count);

	mov	edx, DWORD PTR _v_bit_count$13[ebp]
	push	edx
	mov	eax, DWORD PTR _u_bit_count$14[ebp]
	push	eax
	call	__MAXIMUM_UNIT
	add	esp, 8
	mov	DWORD PTR _work_bit_count$12[ebp], eax

; 115  : 
; 116  :             __UNIT_TYPE work_u_buf_code;
; 117  :             __UNIT_TYPE work_u_buf_words;
; 118  :             __UNIT_TYPE* work_u_buf = AllocateBlock(work_bit_count, &work_u_buf_words, &work_u_buf_code);

	lea	ecx, DWORD PTR _work_u_buf_code$11[ebp]
	push	ecx
	lea	edx, DWORD PTR _work_u_buf_words$10[ebp]
	push	edx
	mov	eax, DWORD PTR _work_bit_count$12[ebp]
	push	eax
	call	_AllocateBlock
	add	esp, 12					; 0000000cH
	mov	DWORD PTR _work_u_buf$9[ebp], eax

; 119  :             if (work_u_buf == NULL)

	cmp	DWORD PTR _work_u_buf$9[ebp], 0
	jne	SHORT $LN10@PMC_Greate

; 120  :                 return (PMC_STATUS_NOT_ENOUGH_MEMORY);

	mov	eax, -5					; fffffffbH
	jmp	$LN1@PMC_Greate
$LN10@PMC_Greate:

; 121  : 
; 122  :             __UNIT_TYPE work_v_buf_code;
; 123  :             __UNIT_TYPE work_v_buf_words;
; 124  :             __UNIT_TYPE* work_v_buf = AllocateBlock(work_bit_count, &work_v_buf_words, &work_v_buf_code);

	lea	ecx, DWORD PTR _work_v_buf_code$8[ebp]
	push	ecx
	lea	edx, DWORD PTR _work_v_buf_words$7[ebp]
	push	edx
	mov	eax, DWORD PTR _work_bit_count$12[ebp]
	push	eax
	call	_AllocateBlock
	add	esp, 12					; 0000000cH
	mov	DWORD PTR _work_v_buf$6[ebp], eax

; 125  :             if (work_v_buf == NULL)

	cmp	DWORD PTR _work_v_buf$6[ebp], 0
	jne	SHORT $LN11@PMC_Greate

; 126  :             {
; 127  :                 DeallocateBlock(work_u_buf, work_u_buf_words);

	mov	ecx, DWORD PTR _work_u_buf_words$10[ebp]
	push	ecx
	mov	edx, DWORD PTR _work_u_buf$9[ebp]
	push	edx
	call	_DeallocateBlock
	add	esp, 8

; 128  :                 return (PMC_STATUS_NOT_ENOUGH_MEMORY);

	mov	eax, -5					; fffffffbH
	jmp	$LN1@PMC_Greate
$LN11@PMC_Greate:

; 129  :             }
; 130  : 
; 131  :             __UNIT_TYPE nw_check_code;
; 132  :             if ((result = AllocateNumber(w, work_bit_count, &nw_check_code)) != PMC_STATUS_OK)

	lea	eax, DWORD PTR _nw_check_code$5[ebp]
	push	eax
	mov	ecx, DWORD PTR _work_bit_count$12[ebp]
	push	ecx
	mov	edx, DWORD PTR _w$[ebp]
	push	edx
	call	_AllocateNumber
	add	esp, 12					; 0000000cH
	mov	DWORD PTR _result$[ebp], eax
	cmp	DWORD PTR _result$[ebp], 0
	je	SHORT $LN12@PMC_Greate

; 133  :             {
; 134  :                 DeallocateBlock(work_v_buf, work_v_buf_words);

	mov	eax, DWORD PTR _work_v_buf_words$7[ebp]
	push	eax
	mov	ecx, DWORD PTR _work_v_buf$6[ebp]
	push	ecx
	call	_DeallocateBlock
	add	esp, 8

; 135  :                 DeallocateBlock(work_u_buf, work_u_buf_words);

	mov	edx, DWORD PTR _work_u_buf_words$10[ebp]
	push	edx
	mov	eax, DWORD PTR _work_u_buf$9[ebp]
	push	eax
	call	_DeallocateBlock
	add	esp, 8

; 136  :                 return (result);

	mov	eax, DWORD PTR _result$[ebp]
	jmp	$LN1@PMC_Greate
$LN12@PMC_Greate:

; 137  :             }
; 138  : 
; 139  :             __UNIT_TYPE u_tzcnt = u->TRAILING_ZERO_BITS_COUNT;

	mov	ecx, DWORD PTR _u$[ebp]
	mov	edx, DWORD PTR [ecx+20]
	mov	DWORD PTR _u_tzcnt$4[ebp], edx

; 140  :             __UNIT_TYPE v_tzcnt = _TZCNT_ALT_UNIT(v);

	mov	eax, DWORD PTR _v$[ebp]
	push	eax
	call	__TZCNT_ALT_UNIT
	add	esp, 4
	mov	DWORD PTR _v_tzcnt$3[ebp], eax

; 141  :             __UNIT_TYPE k = _MINIMUM_UNIT(u_tzcnt, v_tzcnt);

	mov	ecx, DWORD PTR _v_tzcnt$3[ebp]
	push	ecx
	mov	edx, DWORD PTR _u_tzcnt$4[ebp]
	push	edx
	call	__MINIMUM_UNIT
	add	esp, 8
	mov	DWORD PTR _k$2[ebp], eax

; 142  :             if (u_tzcnt > 0)

	cmp	DWORD PTR _u_tzcnt$4[ebp], 0
	jbe	SHORT $LN13@PMC_Greate

; 143  :                 RightShift_Imp(u->BLOCK, u->UNIT_WORD_COUNT, u_tzcnt, work_u_buf, FALSE);

	push	0
	mov	eax, DWORD PTR _work_u_buf$9[ebp]
	push	eax
	mov	ecx, DWORD PTR _u_tzcnt$4[ebp]
	push	ecx
	mov	edx, DWORD PTR _u$[ebp]
	mov	eax, DWORD PTR [edx+8]
	push	eax
	mov	ecx, DWORD PTR _u$[ebp]
	mov	edx, DWORD PTR [ecx+32]
	push	edx
	call	_RightShift_Imp
	add	esp, 20					; 00000014H
	jmp	SHORT $LN14@PMC_Greate
$LN13@PMC_Greate:

; 144  :             else
; 145  :                 _COPY_MEMORY_UNIT(work_u_buf, u->BLOCK, u->UNIT_WORD_COUNT);

	mov	eax, DWORD PTR _u$[ebp]
	mov	ecx, DWORD PTR [eax+8]
	push	ecx
	mov	edx, DWORD PTR _u$[ebp]
	mov	eax, DWORD PTR [edx+32]
	push	eax
	mov	ecx, DWORD PTR _work_u_buf$9[ebp]
	push	ecx
	call	__COPY_MEMORY_UNIT
	add	esp, 12					; 0000000cH
$LN14@PMC_Greate:

; 146  :             work_v_buf[0] = v >> v_tzcnt;

	mov	edx, DWORD PTR _v$[ebp]
	mov	ecx, DWORD PTR _v_tzcnt$3[ebp]
	shr	edx, cl
	mov	eax, 4
	imul	ecx, eax, 0
	mov	eax, DWORD PTR _work_v_buf$6[ebp]
	mov	DWORD PTR [eax+ecx], edx

; 147  : 
; 148  :             __UNIT_TYPE w_buf_count;
; 149  :             GreatestCommonDivisor_Imp(work_u_buf, work_v_buf, _DIVIDE_CEILING_UNIT(work_bit_count, __UNIT_TYPE_BIT_COUNT), (*w)->BLOCK, &w_buf_count);

	lea	ecx, DWORD PTR _w_buf_count$1[ebp]
	push	ecx
	mov	edx, DWORD PTR _w$[ebp]
	mov	eax, DWORD PTR [edx]
	mov	ecx, DWORD PTR [eax+32]
	push	ecx
	push	32					; 00000020H
	mov	edx, DWORD PTR _work_bit_count$12[ebp]
	push	edx
	call	__DIVIDE_CEILING_UNIT
	add	esp, 8
	push	eax
	mov	eax, DWORD PTR _work_v_buf$6[ebp]
	push	eax
	mov	ecx, DWORD PTR _work_u_buf$9[ebp]
	push	ecx
	call	_GreatestCommonDivisor_Imp
	add	esp, 20					; 00000014H

; 150  :             if ((result = CheckBlockLight(work_u_buf, work_u_buf_code)) != PMC_STATUS_OK)

	mov	edx, DWORD PTR _work_u_buf_code$11[ebp]
	push	edx
	mov	eax, DWORD PTR _work_u_buf$9[ebp]
	push	eax
	call	_CheckBlockLight
	add	esp, 8
	mov	DWORD PTR _result$[ebp], eax
	cmp	DWORD PTR _result$[ebp], 0
	je	SHORT $LN15@PMC_Greate

; 151  :                 return (result);

	mov	eax, DWORD PTR _result$[ebp]
	jmp	$LN1@PMC_Greate
$LN15@PMC_Greate:

; 152  :             if ((result = CheckBlockLight(work_v_buf, work_v_buf_code)) != PMC_STATUS_OK)

	mov	ecx, DWORD PTR _work_v_buf_code$8[ebp]
	push	ecx
	mov	edx, DWORD PTR _work_v_buf$6[ebp]
	push	edx
	call	_CheckBlockLight
	add	esp, 8
	mov	DWORD PTR _result$[ebp], eax
	cmp	DWORD PTR _result$[ebp], 0
	je	SHORT $LN16@PMC_Greate

; 153  :                 return (result);

	mov	eax, DWORD PTR _result$[ebp]
	jmp	$LN1@PMC_Greate
$LN16@PMC_Greate:

; 154  :             if ((result = CheckBlockLight((*w)->BLOCK, nw_check_code)) != PMC_STATUS_OK)

	mov	eax, DWORD PTR _nw_check_code$5[ebp]
	push	eax
	mov	ecx, DWORD PTR _w$[ebp]
	mov	edx, DWORD PTR [ecx]
	mov	eax, DWORD PTR [edx+32]
	push	eax
	call	_CheckBlockLight
	add	esp, 8
	mov	DWORD PTR _result$[ebp], eax
	cmp	DWORD PTR _result$[ebp], 0
	je	SHORT $LN17@PMC_Greate

; 155  :                 return (result);

	mov	eax, DWORD PTR _result$[ebp]
	jmp	SHORT $LN1@PMC_Greate
$LN17@PMC_Greate:

; 156  :             DeallocateBlock(work_v_buf, work_v_buf_words);

	mov	ecx, DWORD PTR _work_v_buf_words$7[ebp]
	push	ecx
	mov	edx, DWORD PTR _work_v_buf$6[ebp]
	push	edx
	call	_DeallocateBlock
	add	esp, 8

; 157  :             DeallocateBlock(work_u_buf, work_u_buf_words);

	mov	eax, DWORD PTR _work_u_buf_words$10[ebp]
	push	eax
	mov	ecx, DWORD PTR _work_u_buf$9[ebp]
	push	ecx
	call	_DeallocateBlock
	add	esp, 8

; 158  : 
; 159  :             LeftShift_Imp((*w)->BLOCK, w_buf_count, k, (*w)->BLOCK, TRUE);

	push	1
	mov	edx, DWORD PTR _w$[ebp]
	mov	eax, DWORD PTR [edx]
	mov	ecx, DWORD PTR [eax+32]
	push	ecx
	mov	edx, DWORD PTR _k$2[ebp]
	push	edx
	mov	eax, DWORD PTR _w_buf_count$1[ebp]
	push	eax
	mov	ecx, DWORD PTR _w$[ebp]
	mov	edx, DWORD PTR [ecx]
	mov	eax, DWORD PTR [edx+32]
	push	eax
	call	_LeftShift_Imp
	add	esp, 20					; 00000014H

; 160  :             if ((result = CheckBlockLight((*w)->BLOCK, nw_check_code)) != PMC_STATUS_OK)

	mov	ecx, DWORD PTR _nw_check_code$5[ebp]
	push	ecx
	mov	edx, DWORD PTR _w$[ebp]
	mov	eax, DWORD PTR [edx]
	mov	ecx, DWORD PTR [eax+32]
	push	ecx
	call	_CheckBlockLight
	add	esp, 8
	mov	DWORD PTR _result$[ebp], eax
	cmp	DWORD PTR _result$[ebp], 0
	je	SHORT $LN18@PMC_Greate

; 161  :                 return (result);

	mov	eax, DWORD PTR _result$[ebp]
	jmp	SHORT $LN1@PMC_Greate
$LN18@PMC_Greate:

; 162  :             CommitNumber(*w);

	mov	edx, DWORD PTR _w$[ebp]
	mov	eax, DWORD PTR [edx]
	push	eax
	call	_CommitNumber
	add	esp, 4
$LN3@PMC_Greate:

; 163  :         }
; 164  :     }
; 165  :     return (PMC_STATUS_OK);

	xor	eax, eax
$LN1@PMC_Greate:

; 166  : }

	push	edx
	mov	ecx, ebp
	push	eax
	lea	edx, DWORD PTR $LN27@PMC_Greate
	call	@_RTC_CheckStackVars@8
	pop	eax
	pop	edx
	pop	edi
	add	esp, 108				; 0000006cH
	cmp	ebp, esp
	call	__RTC_CheckEsp
	mov	esp, ebp
	pop	ebp
	ret	0
	npad	1
$LN27@PMC_Greate:
	DD	6
	DD	$LN26@PMC_Greate
$LN26@PMC_Greate:
	DD	-24					; ffffffe8H
	DD	4
	DD	$LN20@PMC_Greate
	DD	-36					; ffffffdcH
	DD	4
	DD	$LN21@PMC_Greate
	DD	-52					; ffffffccH
	DD	4
	DD	$LN22@PMC_Greate
	DD	-64					; ffffffc0H
	DD	4
	DD	$LN23@PMC_Greate
	DD	-80					; ffffffb0H
	DD	4
	DD	$LN24@PMC_Greate
	DD	-104					; ffffff98H
	DD	4
	DD	$LN25@PMC_Greate
$LN25@PMC_Greate:
	DB	119					; 00000077H
	DB	95					; 0000005fH
	DB	98					; 00000062H
	DB	117					; 00000075H
	DB	102					; 00000066H
	DB	95					; 0000005fH
	DB	99					; 00000063H
	DB	111					; 0000006fH
	DB	117					; 00000075H
	DB	110					; 0000006eH
	DB	116					; 00000074H
	DB	0
$LN24@PMC_Greate:
	DB	110					; 0000006eH
	DB	119					; 00000077H
	DB	95					; 0000005fH
	DB	99					; 00000063H
	DB	104					; 00000068H
	DB	101					; 00000065H
	DB	99					; 00000063H
	DB	107					; 0000006bH
	DB	95					; 0000005fH
	DB	99					; 00000063H
	DB	111					; 0000006fH
	DB	100					; 00000064H
	DB	101					; 00000065H
	DB	0
$LN23@PMC_Greate:
	DB	119					; 00000077H
	DB	111					; 0000006fH
	DB	114					; 00000072H
	DB	107					; 0000006bH
	DB	95					; 0000005fH
	DB	118					; 00000076H
	DB	95					; 0000005fH
	DB	98					; 00000062H
	DB	117					; 00000075H
	DB	102					; 00000066H
	DB	95					; 0000005fH
	DB	119					; 00000077H
	DB	111					; 0000006fH
	DB	114					; 00000072H
	DB	100					; 00000064H
	DB	115					; 00000073H
	DB	0
$LN22@PMC_Greate:
	DB	119					; 00000077H
	DB	111					; 0000006fH
	DB	114					; 00000072H
	DB	107					; 0000006bH
	DB	95					; 0000005fH
	DB	118					; 00000076H
	DB	95					; 0000005fH
	DB	98					; 00000062H
	DB	117					; 00000075H
	DB	102					; 00000066H
	DB	95					; 0000005fH
	DB	99					; 00000063H
	DB	111					; 0000006fH
	DB	100					; 00000064H
	DB	101					; 00000065H
	DB	0
$LN21@PMC_Greate:
	DB	119					; 00000077H
	DB	111					; 0000006fH
	DB	114					; 00000072H
	DB	107					; 0000006bH
	DB	95					; 0000005fH
	DB	117					; 00000075H
	DB	95					; 0000005fH
	DB	98					; 00000062H
	DB	117					; 00000075H
	DB	102					; 00000066H
	DB	95					; 0000005fH
	DB	119					; 00000077H
	DB	111					; 0000006fH
	DB	114					; 00000072H
	DB	100					; 00000064H
	DB	115					; 00000073H
	DB	0
$LN20@PMC_Greate:
	DB	119					; 00000077H
	DB	111					; 0000006fH
	DB	114					; 00000072H
	DB	107					; 0000006bH
	DB	95					; 0000005fH
	DB	117					; 00000075H
	DB	95					; 0000005fH
	DB	98					; 00000062H
	DB	117					; 00000075H
	DB	102					; 00000066H
	DB	95					; 0000005fH
	DB	99					; 00000063H
	DB	111					; 0000006fH
	DB	100					; 00000064H
	DB	101					; 00000065H
	DB	0
_PMC_GreatestCommonDivisor_X_I_Imp ENDP
_TEXT	ENDS
; Function compile flags: /Odtp /RTCsu
; File z:\sources\lunor\repos\rougemeilland\palmtree.math.core.uint\palmtree.math.core.uint\pmc_greatestcommondivisor.c
_TEXT	SEGMENT
_tt$1 = -16						; size = 4
_c$2 = -12						; size = 4
_v$ = -8						; size = 4
_u$ = -4						; size = 4
_p1_buf$ = 8						; size = 4
_p2_buf$ = 12						; size = 4
_word_count$ = 16					; size = 4
_w_buf$ = 20						; size = 4
_w_buf_count$ = 24					; size = 4
_GreatestCommonDivisor_Imp PROC

; 32   : {

	push	ebp
	mov	ebp, esp
	sub	esp, 16					; 00000010H
	mov	eax, -858993460				; ccccccccH
	mov	DWORD PTR [ebp-16], eax
	mov	DWORD PTR [ebp-12], eax
	mov	DWORD PTR [ebp-8], eax
	mov	DWORD PTR [ebp-4], eax
	mov	ecx, OFFSET __3257AA0B_pmc_greatestcommondivisor@c
	call	@__CheckForDebuggerJustMyCode@4

; 33   :     __UNIT_TYPE* u = p1_buf;

	mov	eax, DWORD PTR _p1_buf$[ebp]
	mov	DWORD PTR _u$[ebp], eax

; 34   :     __UNIT_TYPE* v = p2_buf;

	mov	ecx, DWORD PTR _p2_buf$[ebp]
	mov	DWORD PTR _v$[ebp], ecx
$LN5@GreatestCo:

; 35   :     for (;;)
; 36   :     {
; 37   :         while (word_count > 0 && u[word_count - 1] == 0 && v[word_count - 1] == 0)

	cmp	DWORD PTR _word_count$[ebp], 0
	jbe	SHORT $LN6@GreatestCo
	mov	edx, DWORD PTR _word_count$[ebp]
	mov	eax, DWORD PTR _u$[ebp]
	cmp	DWORD PTR [eax+edx*4-4], 0
	jne	SHORT $LN6@GreatestCo
	mov	ecx, DWORD PTR _word_count$[ebp]
	mov	edx, DWORD PTR _v$[ebp]
	cmp	DWORD PTR [edx+ecx*4-4], 0
	jne	SHORT $LN6@GreatestCo

; 38   :             --word_count;

	mov	eax, DWORD PTR _word_count$[ebp]
	sub	eax, 1
	mov	DWORD PTR _word_count$[ebp], eax
	jmp	SHORT $LN5@GreatestCo
$LN6@GreatestCo:

; 39   :         if (word_count <= 0)

	cmp	DWORD PTR _word_count$[ebp], 0
	ja	SHORT $LN9@GreatestCo

; 40   :         {
; 41   :             // このルートへの到達はあり得ないはず。
; 42   :             w_buf[0] = 0;

	mov	ecx, 4
	imul	edx, ecx, 0
	mov	eax, DWORD PTR _w_buf$[ebp]
	mov	DWORD PTR [eax+edx], 0

; 43   :             *w_buf_count = 1;

	mov	ecx, DWORD PTR _w_buf_count$[ebp]
	mov	DWORD PTR [ecx], 1
$LN9@GreatestCo:

; 44   :         }
; 45   :         int c = Compare_Imp(u, v, word_count);

	mov	edx, DWORD PTR _word_count$[ebp]
	push	edx
	mov	eax, DWORD PTR _v$[ebp]
	push	eax
	mov	ecx, DWORD PTR _u$[ebp]
	push	ecx
	call	_Compare_Imp
	add	esp, 12					; 0000000cH
	mov	DWORD PTR _c$2[ebp], eax

; 46   :         if (c == 0)

	cmp	DWORD PTR _c$2[ebp], 0
	jne	SHORT $LN10@GreatestCo

; 47   :         {
; 48   :             // u == v の場合
; 49   : 
; 50   :             // GCD を u として復帰
; 51   :             _COPY_MEMORY_UNIT(w_buf, u, word_count);

	mov	edx, DWORD PTR _word_count$[ebp]
	push	edx
	mov	eax, DWORD PTR _u$[ebp]
	push	eax
	mov	ecx, DWORD PTR _w_buf$[ebp]
	push	ecx
	call	__COPY_MEMORY_UNIT
	add	esp, 12					; 0000000cH

; 52   :             *w_buf_count = word_count;

	mov	edx, DWORD PTR _w_buf_count$[ebp]
	mov	eax, DWORD PTR _word_count$[ebp]
	mov	DWORD PTR [edx], eax

; 53   :             return;

	jmp	SHORT $LN1@GreatestCo
$LN10@GreatestCo:

; 54   :         }
; 55   :         if (c < 0)

	cmp	DWORD PTR _c$2[ebp], 0
	jge	SHORT $LN11@GreatestCo

; 56   :         {
; 57   :             __UNIT_TYPE* tt = u;

	mov	ecx, DWORD PTR _u$[ebp]
	mov	DWORD PTR _tt$1[ebp], ecx

; 58   :             u = v;

	mov	edx, DWORD PTR _v$[ebp]
	mov	DWORD PTR _u$[ebp], edx

; 59   :             v = tt;

	mov	eax, DWORD PTR _tt$1[ebp]
	mov	DWORD PTR _v$[ebp], eax
$LN11@GreatestCo:

; 60   :         }
; 61   :         // この時点で u > v かつ u と v はともに奇数である
; 62   : 
; 63   :         Subtruct_Imp(u, word_count, v, word_count, u, word_count);

	mov	ecx, DWORD PTR _word_count$[ebp]
	push	ecx
	mov	edx, DWORD PTR _u$[ebp]
	push	edx
	mov	eax, DWORD PTR _word_count$[ebp]
	push	eax
	mov	ecx, DWORD PTR _v$[ebp]
	push	ecx
	mov	edx, DWORD PTR _word_count$[ebp]
	push	edx
	mov	eax, DWORD PTR _u$[ebp]
	push	eax
	call	_Subtruct_Imp
	add	esp, 24					; 00000018H
$LN7@GreatestCo:

; 64   : 
; 65   :         // この時点で u は偶数
; 66   : 
; 67   :         while ((*u & 1) == 0)

	mov	ecx, DWORD PTR _u$[ebp]
	mov	edx, DWORD PTR [ecx]
	and	edx, 1
	jne	SHORT $LN8@GreatestCo

; 68   :             RightShift_Imp(u, word_count, 1, u, TRUE);

	push	1
	mov	eax, DWORD PTR _u$[ebp]
	push	eax
	push	1
	mov	ecx, DWORD PTR _word_count$[ebp]
	push	ecx
	mov	edx, DWORD PTR _u$[ebp]
	push	edx
	call	_RightShift_Imp
	add	esp, 20					; 00000014H
	jmp	SHORT $LN7@GreatestCo
$LN8@GreatestCo:

; 69   :     }

	jmp	$LN5@GreatestCo
$LN1@GreatestCo:

; 70   : }

	add	esp, 16					; 00000010H
	cmp	ebp, esp
	call	__RTC_CheckEsp
	mov	esp, ebp
	pop	ebp
	ret	0
_GreatestCommonDivisor_Imp ENDP
_TEXT	ENDS
; Function compile flags: /Odtp /RTCsu
; File z:\sources\lunor\repos\rougemeilland\palmtree.math.core.uint\palmtree.math.core.uint\pmc_inline_func.h
_TEXT	SEGMENT
_pos$ = -8						; size = 4
_x$ = 8							; size = 4
__TZCNT_ALT_UNIT PROC

; 702  :     {

	push	ebp
	mov	ebp, esp
	sub	esp, 12					; 0000000cH
	mov	DWORD PTR [ebp-12], -858993460		; ccccccccH
	mov	DWORD PTR [ebp-8], -858993460		; ccccccccH
	mov	DWORD PTR [ebp-4], -858993460		; ccccccccH
	mov	ecx, OFFSET __8CA3E54E_pmc_inline_func@h
	call	@__CheckForDebuggerJustMyCode@4

; 703  :         if (x == 0)

	cmp	DWORD PTR _x$[ebp], 0
	jne	SHORT $LN2@TZCNT_ALT_

; 704  :             return (sizeof(x) * 8);

	mov	eax, 32					; 00000020H
	jmp	SHORT $LN1@TZCNT_ALT_
$LN2@TZCNT_ALT_:

; 705  : #ifdef _M_IX86
; 706  :         _UINT32_T pos;
; 707  : #ifdef _MSC_VER
; 708  :         _BitScanForward(&pos, x);

	bsf	eax, DWORD PTR _x$[ebp]
	mov	DWORD PTR _pos$[ebp], eax

; 709  : #elif defined(__GNUC__)
; 710  :         __asm__("bsfl %1, %0" : "=r"(pos) : "rm"(x));
; 711  : #else
; 712  : #error unknown compiler
; 713  : #endif
; 714  : #elif defined(_M_X64)
; 715  : #ifdef _MSC_VER
; 716  :         _UINT32_T pos;
; 717  :         _BitScanForward64(&pos, x);
; 718  : #elif defined(__GNUC__)
; 719  :         _UINT64_T pos;
; 720  :         __asm__("bsfq %1, %0" : "=r"(pos) : "rm"(x));
; 721  : #else
; 722  : #error unknown compiler
; 723  : #endif
; 724  : #else
; 725  : #error unknown platform
; 726  : #endif
; 727  :         return (pos);

	mov	eax, DWORD PTR _pos$[ebp]
$LN1@TZCNT_ALT_:

; 728  :     }

	push	edx
	mov	ecx, ebp
	push	eax
	lea	edx, DWORD PTR $LN6@TZCNT_ALT_
	call	@_RTC_CheckStackVars@8
	pop	eax
	pop	edx
	add	esp, 12					; 0000000cH
	cmp	ebp, esp
	call	__RTC_CheckEsp
	mov	esp, ebp
	pop	ebp
	ret	0
	npad	1
$LN6@TZCNT_ALT_:
	DD	1
	DD	$LN5@TZCNT_ALT_
$LN5@TZCNT_ALT_:
	DD	-8					; fffffff8H
	DD	4
	DD	$LN4@TZCNT_ALT_
$LN4@TZCNT_ALT_:
	DB	112					; 00000070H
	DB	111					; 0000006fH
	DB	115					; 00000073H
	DB	0
__TZCNT_ALT_UNIT ENDP
_TEXT	ENDS
; Function compile flags: /Odtp /RTCsu
; File z:\sources\lunor\repos\rougemeilland\palmtree.math.core.uint\palmtree.math.core.uint\pmc_inline_func.h
_TEXT	SEGMENT
_pos$ = -8						; size = 4
_x$ = 8							; size = 4
__LZCNT_ALT_UNIT PROC

; 622  :     {

	push	ebp
	mov	ebp, esp
	sub	esp, 12					; 0000000cH
	mov	DWORD PTR [ebp-12], -858993460		; ccccccccH
	mov	DWORD PTR [ebp-8], -858993460		; ccccccccH
	mov	DWORD PTR [ebp-4], -858993460		; ccccccccH
	mov	ecx, OFFSET __8CA3E54E_pmc_inline_func@h
	call	@__CheckForDebuggerJustMyCode@4

; 623  :         if (x == 0)

	cmp	DWORD PTR _x$[ebp], 0
	jne	SHORT $LN2@LZCNT_ALT_

; 624  :             return (sizeof(x) * 8);

	mov	eax, 32					; 00000020H
	jmp	SHORT $LN1@LZCNT_ALT_
$LN2@LZCNT_ALT_:

; 625  : #ifdef _M_IX86
; 626  :         _UINT32_T pos;
; 627  : #ifdef _MSC_VER
; 628  :         _BitScanReverse(&pos, x);

	bsr	eax, DWORD PTR _x$[ebp]
	mov	DWORD PTR _pos$[ebp], eax

; 629  : #elif defined(__GNUC__)
; 630  :         __asm__("bsrl %1, %0" : "=r"(pos) : "rm"(x));
; 631  : #else
; 632  : #error unknown compiler
; 633  : #endif
; 634  : #elif defined(_M_X64)
; 635  : #ifdef _MSC_VER
; 636  :         _UINT32_T pos;
; 637  :         _BitScanReverse64(&pos, x);
; 638  : #elif defined(__GNUC__)
; 639  :         _UINT64_T pos;
; 640  :         __asm__("bsrq %1, %0" : "=r"(pos) : "rm"(x));
; 641  : #else
; 642  : #error unknown compiler
; 643  : #endif
; 644  : #else
; 645  : #error unknown platform
; 646  : #endif
; 647  :         return (sizeof(x) * 8 - 1 - pos);

	mov	eax, 31					; 0000001fH
	sub	eax, DWORD PTR _pos$[ebp]
$LN1@LZCNT_ALT_:

; 648  :     }

	push	edx
	mov	ecx, ebp
	push	eax
	lea	edx, DWORD PTR $LN6@LZCNT_ALT_
	call	@_RTC_CheckStackVars@8
	pop	eax
	pop	edx
	add	esp, 12					; 0000000cH
	cmp	ebp, esp
	call	__RTC_CheckEsp
	mov	esp, ebp
	pop	ebp
	ret	0
$LN6@LZCNT_ALT_:
	DD	1
	DD	$LN5@LZCNT_ALT_
$LN5@LZCNT_ALT_:
	DD	-8					; fffffff8H
	DD	4
	DD	$LN4@LZCNT_ALT_
$LN4@LZCNT_ALT_:
	DB	112					; 00000070H
	DB	111					; 0000006fH
	DB	115					; 00000073H
	DB	0
__LZCNT_ALT_UNIT ENDP
_TEXT	ENDS
; Function compile flags: /Odtp /RTCsu
; File z:\sources\lunor\repos\rougemeilland\palmtree.math.core.uint\palmtree.math.core.uint\pmc_inline_func.h
_TEXT	SEGMENT
_pos$ = -8						; size = 4
_x$ = 8							; size = 4
__LZCNT_ALT_32 PROC

; 589  :     {

	push	ebp
	mov	ebp, esp
	sub	esp, 12					; 0000000cH
	mov	DWORD PTR [ebp-12], -858993460		; ccccccccH
	mov	DWORD PTR [ebp-8], -858993460		; ccccccccH
	mov	DWORD PTR [ebp-4], -858993460		; ccccccccH
	mov	ecx, OFFSET __8CA3E54E_pmc_inline_func@h
	call	@__CheckForDebuggerJustMyCode@4

; 590  :         if (x == 0)

	cmp	DWORD PTR _x$[ebp], 0
	jne	SHORT $LN2@LZCNT_ALT_

; 591  :             return (sizeof(x) * 8);

	mov	eax, 32					; 00000020H
	jmp	SHORT $LN1@LZCNT_ALT_
$LN2@LZCNT_ALT_:

; 592  :         _UINT32_T pos;
; 593  : #ifdef _MSC_VER
; 594  :         _BitScanReverse(&pos, x);

	bsr	eax, DWORD PTR _x$[ebp]
	mov	DWORD PTR _pos$[ebp], eax

; 595  : #elif defined(__GNUC__)
; 596  :         __asm__("bsrl %1, %0" : "=r"(pos) : "rm"(x));
; 597  : #else
; 598  : #error unknown compiler
; 599  : #endif
; 600  :         return (sizeof(x) * 8 - 1 - pos);

	mov	eax, 31					; 0000001fH
	sub	eax, DWORD PTR _pos$[ebp]
$LN1@LZCNT_ALT_:

; 601  :     }

	push	edx
	mov	ecx, ebp
	push	eax
	lea	edx, DWORD PTR $LN6@LZCNT_ALT_
	call	@_RTC_CheckStackVars@8
	pop	eax
	pop	edx
	add	esp, 12					; 0000000cH
	cmp	ebp, esp
	call	__RTC_CheckEsp
	mov	esp, ebp
	pop	ebp
	ret	0
$LN6@LZCNT_ALT_:
	DD	1
	DD	$LN5@LZCNT_ALT_
$LN5@LZCNT_ALT_:
	DD	-8					; fffffff8H
	DD	4
	DD	$LN4@LZCNT_ALT_
$LN4@LZCNT_ALT_:
	DB	112					; 00000070H
	DB	111					; 0000006fH
	DB	115					; 00000073H
	DB	0
__LZCNT_ALT_32 ENDP
_TEXT	ENDS
; Function compile flags: /Odtp /RTCsu
; File z:\sources\lunor\repos\rougemeilland\palmtree.math.core.uint\palmtree.math.core.uint\pmc_inline_func.h
_TEXT	SEGMENT
tv65 = -4						; size = 4
_x$ = 8							; size = 4
_y$ = 12						; size = 4
__MINIMUM_UNIT PROC

; 201  :     {

	push	ebp
	mov	ebp, esp
	push	ecx
	mov	DWORD PTR [ebp-4], -858993460		; ccccccccH
	mov	ecx, OFFSET __8CA3E54E_pmc_inline_func@h
	call	@__CheckForDebuggerJustMyCode@4

; 202  :         return (x <= y ? x : y);

	mov	eax, DWORD PTR _x$[ebp]
	cmp	eax, DWORD PTR _y$[ebp]
	ja	SHORT $LN3@MINIMUM_UN
	mov	ecx, DWORD PTR _x$[ebp]
	mov	DWORD PTR tv65[ebp], ecx
	jmp	SHORT $LN4@MINIMUM_UN
$LN3@MINIMUM_UN:
	mov	edx, DWORD PTR _y$[ebp]
	mov	DWORD PTR tv65[ebp], edx
$LN4@MINIMUM_UN:
	mov	eax, DWORD PTR tv65[ebp]

; 203  :     }

	add	esp, 4
	cmp	ebp, esp
	call	__RTC_CheckEsp
	mov	esp, ebp
	pop	ebp
	ret	0
__MINIMUM_UNIT ENDP
_TEXT	ENDS
; Function compile flags: /Odtp /RTCsu
; File z:\sources\lunor\repos\rougemeilland\palmtree.math.core.uint\palmtree.math.core.uint\pmc_inline_func.h
_TEXT	SEGMENT
tv65 = -4						; size = 4
_x$ = 8							; size = 4
_y$ = 12						; size = 4
__MAXIMUM_UNIT PROC

; 196  :     {

	push	ebp
	mov	ebp, esp
	push	ecx
	mov	DWORD PTR [ebp-4], -858993460		; ccccccccH
	mov	ecx, OFFSET __8CA3E54E_pmc_inline_func@h
	call	@__CheckForDebuggerJustMyCode@4

; 197  :         return (x >= y ? x : y);

	mov	eax, DWORD PTR _x$[ebp]
	cmp	eax, DWORD PTR _y$[ebp]
	jb	SHORT $LN3@MAXIMUM_UN
	mov	ecx, DWORD PTR _x$[ebp]
	mov	DWORD PTR tv65[ebp], ecx
	jmp	SHORT $LN4@MAXIMUM_UN
$LN3@MAXIMUM_UN:
	mov	edx, DWORD PTR _y$[ebp]
	mov	DWORD PTR tv65[ebp], edx
$LN4@MAXIMUM_UN:
	mov	eax, DWORD PTR tv65[ebp]

; 198  :     }

	add	esp, 4
	cmp	ebp, esp
	call	__RTC_CheckEsp
	mov	esp, ebp
	pop	ebp
	ret	0
__MAXIMUM_UNIT ENDP
_TEXT	ENDS
; Function compile flags: /Odtp /RTCsu
; File z:\sources\lunor\repos\rougemeilland\palmtree.math.core.uint\palmtree.math.core.uint\pmc_inline_func.h
_TEXT	SEGMENT
_u$ = 8							; size = 4
_v$ = 12						; size = 4
__DIVIDE_CEILING_UNIT PROC

; 186  :     {

	push	ebp
	mov	ebp, esp
	mov	ecx, OFFSET __8CA3E54E_pmc_inline_func@h
	call	@__CheckForDebuggerJustMyCode@4

; 187  :         return ((u + v - 1) / v);

	mov	eax, DWORD PTR _v$[ebp]
	mov	ecx, DWORD PTR _u$[ebp]
	lea	eax, DWORD PTR [ecx+eax-1]
	xor	edx, edx
	div	DWORD PTR _v$[ebp]

; 188  :     }

	cmp	ebp, esp
	call	__RTC_CheckEsp
	pop	ebp
	ret	0
__DIVIDE_CEILING_UNIT ENDP
_TEXT	ENDS
; Function compile flags: /Odtp /RTCsu
; File z:\sources\lunor\repos\rougemeilland\palmtree.math.core.uint\palmtree.math.core.uint\pmc_inline_func.h
_TEXT	SEGMENT
_value$ = 8						; size = 8
_result_high$ = 16					; size = 4
__FROMDWORDTOWORD PROC

; 175  :     {

	push	ebp
	mov	ebp, esp
	mov	ecx, OFFSET __8CA3E54E_pmc_inline_func@h
	call	@__CheckForDebuggerJustMyCode@4

; 176  :         *result_high = (_UINT32_T)(value >> 32);

	mov	eax, DWORD PTR _value$[ebp]
	mov	edx, DWORD PTR _value$[ebp+4]
	mov	cl, 32					; 00000020H
	call	__aullshr
	mov	ecx, DWORD PTR _result_high$[ebp]
	mov	DWORD PTR [ecx], eax

; 177  :         return ((_UINT32_T)value);

	mov	eax, DWORD PTR _value$[ebp]

; 178  :     }

	cmp	ebp, esp
	call	__RTC_CheckEsp
	pop	ebp
	ret	0
__FROMDWORDTOWORD ENDP
_TEXT	ENDS
; Function compile flags: /Odtp /RTCsu
; File z:\sources\lunor\repos\rougemeilland\palmtree.math.core.uint\palmtree.math.core.uint\pmc_inline_func.h
_TEXT	SEGMENT
_d$ = 8							; size = 4
_s$ = 12						; size = 4
_count$ = 16						; size = 4
__COPY_MEMORY_UNIT PROC

; 59   :     {

	push	ebp
	mov	ebp, esp
	push	esi
	push	edi
	mov	ecx, OFFSET __8CA3E54E_pmc_inline_func@h
	call	@__CheckForDebuggerJustMyCode@4

; 60   : #ifdef _M_IX86
; 61   :         __movsd((unsigned long *)d, (unsigned long *)s, (unsigned long)count);

	mov	edi, DWORD PTR _d$[ebp]
	mov	esi, DWORD PTR _s$[ebp]
	mov	ecx, DWORD PTR _count$[ebp]
	rep movsd

; 62   : #elif defined(_M_X64)
; 63   :         __movsq(d, s, count);
; 64   : #else
; 65   : #error unknown platform
; 66   : #endif
; 67   :     }

	pop	edi
	pop	esi
	cmp	ebp, esp
	call	__RTC_CheckEsp
	pop	ebp
	ret	0
__COPY_MEMORY_UNIT ENDP
_TEXT	ENDS
; Function compile flags: /Odtp /RTCsu
; File z:\sources\lunor\repos\rougemeilland\palmtree.math.core.uint\palmtree.math.core.uint\pmc_greatestcommondivisor.c
_TEXT	SEGMENT
_w_buf_count$1 = -124					; size = 4
_k$2 = -116						; size = 4
_v_tzcnt$3 = -112					; size = 4
_u_tzcnt$4 = -108					; size = 4
_nw_check_code$5 = -100					; size = 4
_work_v_buf$6 = -92					; size = 4
_work_v_buf_words$7 = -84				; size = 4
_work_v_buf_code$8 = -72				; size = 4
_work_u_buf$9 = -64					; size = 4
_work_u_buf_words$10 = -56				; size = 4
_work_u_buf_code$11 = -44				; size = 4
_work_bit_count$12 = -36				; size = 4
_v_bit_count$13 = -32					; size = 4
_u_bit_count$14 = -28					; size = 4
_nw$ = -20						; size = 4
_result$ = -12						; size = 4
_nv$ = -8						; size = 4
_nu$ = -4						; size = 4
_u$ = 8							; size = 4
_v$ = 12						; size = 4
_w$ = 16						; size = 4
_PMC_GreatestCommonDivisor_X_X@12 PROC

; 481  : {

	push	ebp
	mov	ebp, esp
	sub	esp, 128				; 00000080H
	push	edi
	lea	edi, DWORD PTR [ebp-128]
	mov	ecx, 32					; 00000020H
	mov	eax, -858993460				; ccccccccH
	rep stosd
	mov	ecx, OFFSET __3257AA0B_pmc_greatestcommondivisor@c
	call	@__CheckForDebuggerJustMyCode@4

; 482  :     if (u == NULL)

	cmp	DWORD PTR _u$[ebp], 0
	jne	SHORT $LN2@PMC_Greate

; 483  :         return (PMC_STATUS_ARGUMENT_ERROR);

	or	eax, -1
	jmp	$LN1@PMC_Greate
$LN2@PMC_Greate:

; 484  :     if (v == NULL)

	cmp	DWORD PTR _v$[ebp], 0
	jne	SHORT $LN3@PMC_Greate

; 485  :         return (PMC_STATUS_ARGUMENT_ERROR);

	or	eax, -1
	jmp	$LN1@PMC_Greate
$LN3@PMC_Greate:

; 486  :     if (w == NULL)

	cmp	DWORD PTR _w$[ebp], 0
	jne	SHORT $LN4@PMC_Greate

; 487  :         return (PMC_STATUS_ARGUMENT_ERROR);

	or	eax, -1
	jmp	$LN1@PMC_Greate
$LN4@PMC_Greate:

; 488  :     NUMBER_HEADER* nu = (NUMBER_HEADER*)u;

	mov	eax, DWORD PTR _u$[ebp]
	mov	DWORD PTR _nu$[ebp], eax

; 489  :     NUMBER_HEADER* nv = (NUMBER_HEADER*)v;

	mov	ecx, DWORD PTR _v$[ebp]
	mov	DWORD PTR _nv$[ebp], ecx

; 490  :     PMC_STATUS_CODE result;
; 491  :     if ((result = CheckNumber(nu)) != PMC_STATUS_OK)

	mov	edx, DWORD PTR _nu$[ebp]
	push	edx
	call	_CheckNumber
	add	esp, 4
	mov	DWORD PTR _result$[ebp], eax
	cmp	DWORD PTR _result$[ebp], 0
	je	SHORT $LN5@PMC_Greate

; 492  :         return (result);

	mov	eax, DWORD PTR _result$[ebp]
	jmp	$LN1@PMC_Greate
$LN5@PMC_Greate:

; 493  :     if ((result = CheckNumber(nv)) != PMC_STATUS_OK)

	mov	eax, DWORD PTR _nv$[ebp]
	push	eax
	call	_CheckNumber
	add	esp, 4
	mov	DWORD PTR _result$[ebp], eax
	cmp	DWORD PTR _result$[ebp], 0
	je	SHORT $LN6@PMC_Greate

; 494  :         return (result);

	mov	eax, DWORD PTR _result$[ebp]
	jmp	$LN1@PMC_Greate
$LN6@PMC_Greate:

; 495  :     NUMBER_HEADER* nw;
; 496  :     if (nu->IS_ZERO)

	mov	ecx, DWORD PTR _nu$[ebp]
	mov	edx, DWORD PTR [ecx+24]
	shr	edx, 1
	and	edx, 1
	je	SHORT $LN7@PMC_Greate

; 497  :     {
; 498  :         // u が 0 である場合
; 499  : 
; 500  :         if (nv->IS_ZERO)

	mov	eax, DWORD PTR _nv$[ebp]
	mov	ecx, DWORD PTR [eax+24]
	shr	ecx, 1
	and	ecx, 1
	je	SHORT $LN9@PMC_Greate

; 501  :         {
; 502  :             // v が 0 である場合
; 503  : 
; 504  :             // u と v がともに 0 であり、GCD は一意に存在しないため、エラーを返す。
; 505  :             return (PMC_STATUS_ARGUMENT_ERROR);

	or	eax, -1
	jmp	$LN1@PMC_Greate

; 506  :         }

	jmp	SHORT $LN10@PMC_Greate
$LN9@PMC_Greate:

; 507  :         else
; 508  :         {
; 509  :             // v が 0 ではない場合
; 510  : 
; 511  :             // GCD は v そのものであるため、v を計算結果として返す。
; 512  :             if ((result = DuplicateNumber(nv, &nw)) != PMC_STATUS_OK)

	lea	edx, DWORD PTR _nw$[ebp]
	push	edx
	mov	eax, DWORD PTR _nv$[ebp]
	push	eax
	call	_DuplicateNumber
	add	esp, 8
	mov	DWORD PTR _result$[ebp], eax
	cmp	DWORD PTR _result$[ebp], 0
	je	SHORT $LN11@PMC_Greate

; 513  :                 return (result);

	mov	eax, DWORD PTR _result$[ebp]
	jmp	$LN1@PMC_Greate
$LN11@PMC_Greate:

; 514  :             *w = (PMC_HANDLE_UINT)nw;

	mov	ecx, DWORD PTR _w$[ebp]
	mov	edx, DWORD PTR _nw$[ebp]
	mov	DWORD PTR [ecx], edx
$LN10@PMC_Greate:

; 515  :         }
; 516  :     }

	jmp	$LN8@PMC_Greate
$LN7@PMC_Greate:

; 517  :     else
; 518  :     {
; 519  :         // u が 0 ではない場合
; 520  : 
; 521  :         if (nv->IS_ZERO)

	mov	eax, DWORD PTR _nv$[ebp]
	mov	ecx, DWORD PTR [eax+24]
	shr	ecx, 1
	and	ecx, 1
	je	SHORT $LN12@PMC_Greate

; 522  :         {
; 523  :             // v が 0 である場合
; 524  : 
; 525  :             // GCD は u そのものであるため、u を計算結果として返す。
; 526  :             if ((result = DuplicateNumber(nu, &nw)) != PMC_STATUS_OK)

	lea	edx, DWORD PTR _nw$[ebp]
	push	edx
	mov	eax, DWORD PTR _nu$[ebp]
	push	eax
	call	_DuplicateNumber
	add	esp, 8
	mov	DWORD PTR _result$[ebp], eax
	cmp	DWORD PTR _result$[ebp], 0
	je	SHORT $LN14@PMC_Greate

; 527  :                 return (result);

	mov	eax, DWORD PTR _result$[ebp]
	jmp	$LN1@PMC_Greate
$LN14@PMC_Greate:

; 528  :             *w = (PMC_HANDLE_UINT)nw;

	mov	ecx, DWORD PTR _w$[ebp]
	mov	edx, DWORD PTR _nw$[ebp]
	mov	DWORD PTR [ecx], edx

; 529  :         }

	jmp	$LN8@PMC_Greate
$LN12@PMC_Greate:

; 530  :         else
; 531  :         {
; 532  :             // u と v がともに 0 ではない場合
; 533  : 
; 534  :             // u と v の GCD を計算する
; 535  :             __UNIT_TYPE u_bit_count = nu->UNIT_BIT_COUNT;

	mov	eax, DWORD PTR _nu$[ebp]
	mov	ecx, DWORD PTR [eax+12]
	mov	DWORD PTR _u_bit_count$14[ebp], ecx

; 536  :             __UNIT_TYPE v_bit_count = nv->UNIT_BIT_COUNT;

	mov	edx, DWORD PTR _nv$[ebp]
	mov	eax, DWORD PTR [edx+12]
	mov	DWORD PTR _v_bit_count$13[ebp], eax

; 537  :             __UNIT_TYPE work_bit_count = _MAXIMUM_UNIT(u_bit_count, v_bit_count);

	mov	ecx, DWORD PTR _v_bit_count$13[ebp]
	push	ecx
	mov	edx, DWORD PTR _u_bit_count$14[ebp]
	push	edx
	call	__MAXIMUM_UNIT
	add	esp, 8
	mov	DWORD PTR _work_bit_count$12[ebp], eax

; 538  : 
; 539  :             __UNIT_TYPE work_u_buf_code;
; 540  :             __UNIT_TYPE work_u_buf_words;
; 541  :             __UNIT_TYPE* work_u_buf = AllocateBlock(work_bit_count, &work_u_buf_words, &work_u_buf_code);

	lea	eax, DWORD PTR _work_u_buf_code$11[ebp]
	push	eax
	lea	ecx, DWORD PTR _work_u_buf_words$10[ebp]
	push	ecx
	mov	edx, DWORD PTR _work_bit_count$12[ebp]
	push	edx
	call	_AllocateBlock
	add	esp, 12					; 0000000cH
	mov	DWORD PTR _work_u_buf$9[ebp], eax

; 542  :             if (work_u_buf == NULL)

	cmp	DWORD PTR _work_u_buf$9[ebp], 0
	jne	SHORT $LN15@PMC_Greate

; 543  :                 return (PMC_STATUS_NOT_ENOUGH_MEMORY);

	mov	eax, -5					; fffffffbH
	jmp	$LN1@PMC_Greate
$LN15@PMC_Greate:

; 544  : 
; 545  :             __UNIT_TYPE work_v_buf_code;
; 546  :             __UNIT_TYPE work_v_buf_words;
; 547  :             __UNIT_TYPE* work_v_buf = AllocateBlock(work_bit_count, &work_v_buf_words, &work_v_buf_code);

	lea	eax, DWORD PTR _work_v_buf_code$8[ebp]
	push	eax
	lea	ecx, DWORD PTR _work_v_buf_words$7[ebp]
	push	ecx
	mov	edx, DWORD PTR _work_bit_count$12[ebp]
	push	edx
	call	_AllocateBlock
	add	esp, 12					; 0000000cH
	mov	DWORD PTR _work_v_buf$6[ebp], eax

; 548  :             if (work_v_buf == NULL)

	cmp	DWORD PTR _work_v_buf$6[ebp], 0
	jne	SHORT $LN16@PMC_Greate

; 549  :             {
; 550  :                 DeallocateBlock(work_u_buf, work_u_buf_words);

	mov	eax, DWORD PTR _work_u_buf_words$10[ebp]
	push	eax
	mov	ecx, DWORD PTR _work_u_buf$9[ebp]
	push	ecx
	call	_DeallocateBlock
	add	esp, 8

; 551  :                 return (PMC_STATUS_NOT_ENOUGH_MEMORY);

	mov	eax, -5					; fffffffbH
	jmp	$LN1@PMC_Greate
$LN16@PMC_Greate:

; 552  :             }
; 553  : 
; 554  :             __UNIT_TYPE nw_check_code;
; 555  :             if ((result = AllocateNumber(&nw, work_bit_count, &nw_check_code)) != PMC_STATUS_OK)

	lea	edx, DWORD PTR _nw_check_code$5[ebp]
	push	edx
	mov	eax, DWORD PTR _work_bit_count$12[ebp]
	push	eax
	lea	ecx, DWORD PTR _nw$[ebp]
	push	ecx
	call	_AllocateNumber
	add	esp, 12					; 0000000cH
	mov	DWORD PTR _result$[ebp], eax
	cmp	DWORD PTR _result$[ebp], 0
	je	SHORT $LN17@PMC_Greate

; 556  :             {
; 557  :                 DeallocateBlock(work_v_buf, work_v_buf_words);

	mov	edx, DWORD PTR _work_v_buf_words$7[ebp]
	push	edx
	mov	eax, DWORD PTR _work_v_buf$6[ebp]
	push	eax
	call	_DeallocateBlock
	add	esp, 8

; 558  :                 DeallocateBlock(work_u_buf, work_u_buf_words);

	mov	ecx, DWORD PTR _work_u_buf_words$10[ebp]
	push	ecx
	mov	edx, DWORD PTR _work_u_buf$9[ebp]
	push	edx
	call	_DeallocateBlock
	add	esp, 8

; 559  :                 return (result);

	mov	eax, DWORD PTR _result$[ebp]
	jmp	$LN1@PMC_Greate
$LN17@PMC_Greate:

; 560  :             }
; 561  : 
; 562  :             __UNIT_TYPE u_tzcnt = nu->TRAILING_ZERO_BITS_COUNT;

	mov	eax, DWORD PTR _nu$[ebp]
	mov	ecx, DWORD PTR [eax+20]
	mov	DWORD PTR _u_tzcnt$4[ebp], ecx

; 563  :             __UNIT_TYPE v_tzcnt = nv->TRAILING_ZERO_BITS_COUNT;

	mov	edx, DWORD PTR _nv$[ebp]
	mov	eax, DWORD PTR [edx+20]
	mov	DWORD PTR _v_tzcnt$3[ebp], eax

; 564  :             __UNIT_TYPE k = _MINIMUM_UNIT(u_tzcnt, v_tzcnt);

	mov	ecx, DWORD PTR _v_tzcnt$3[ebp]
	push	ecx
	mov	edx, DWORD PTR _u_tzcnt$4[ebp]
	push	edx
	call	__MINIMUM_UNIT
	add	esp, 8
	mov	DWORD PTR _k$2[ebp], eax

; 565  :             if (u_tzcnt > 0)

	cmp	DWORD PTR _u_tzcnt$4[ebp], 0
	jbe	SHORT $LN18@PMC_Greate

; 566  :                 RightShift_Imp(nu->BLOCK, nu->UNIT_WORD_COUNT, u_tzcnt, work_u_buf, FALSE);

	push	0
	mov	eax, DWORD PTR _work_u_buf$9[ebp]
	push	eax
	mov	ecx, DWORD PTR _u_tzcnt$4[ebp]
	push	ecx
	mov	edx, DWORD PTR _nu$[ebp]
	mov	eax, DWORD PTR [edx+8]
	push	eax
	mov	ecx, DWORD PTR _nu$[ebp]
	mov	edx, DWORD PTR [ecx+32]
	push	edx
	call	_RightShift_Imp
	add	esp, 20					; 00000014H
	jmp	SHORT $LN19@PMC_Greate
$LN18@PMC_Greate:

; 567  :             else
; 568  :                 _COPY_MEMORY_UNIT(work_u_buf, nu->BLOCK, nu->UNIT_WORD_COUNT);

	mov	eax, DWORD PTR _nu$[ebp]
	mov	ecx, DWORD PTR [eax+8]
	push	ecx
	mov	edx, DWORD PTR _nu$[ebp]
	mov	eax, DWORD PTR [edx+32]
	push	eax
	mov	ecx, DWORD PTR _work_u_buf$9[ebp]
	push	ecx
	call	__COPY_MEMORY_UNIT
	add	esp, 12					; 0000000cH
$LN19@PMC_Greate:

; 569  :             if (v_tzcnt > 0)

	cmp	DWORD PTR _v_tzcnt$3[ebp], 0
	jbe	SHORT $LN20@PMC_Greate

; 570  :                 RightShift_Imp(nv->BLOCK, nv->UNIT_WORD_COUNT, v_tzcnt, work_v_buf, FALSE);

	push	0
	mov	edx, DWORD PTR _work_v_buf$6[ebp]
	push	edx
	mov	eax, DWORD PTR _v_tzcnt$3[ebp]
	push	eax
	mov	ecx, DWORD PTR _nv$[ebp]
	mov	edx, DWORD PTR [ecx+8]
	push	edx
	mov	eax, DWORD PTR _nv$[ebp]
	mov	ecx, DWORD PTR [eax+32]
	push	ecx
	call	_RightShift_Imp
	add	esp, 20					; 00000014H
	jmp	SHORT $LN21@PMC_Greate
$LN20@PMC_Greate:

; 571  :             else
; 572  :                 _COPY_MEMORY_UNIT(work_v_buf, nv->BLOCK, nv->UNIT_WORD_COUNT);

	mov	edx, DWORD PTR _nv$[ebp]
	mov	eax, DWORD PTR [edx+8]
	push	eax
	mov	ecx, DWORD PTR _nv$[ebp]
	mov	edx, DWORD PTR [ecx+32]
	push	edx
	mov	eax, DWORD PTR _work_v_buf$6[ebp]
	push	eax
	call	__COPY_MEMORY_UNIT
	add	esp, 12					; 0000000cH
$LN21@PMC_Greate:

; 573  : 
; 574  :             __UNIT_TYPE w_buf_count;
; 575  :             GreatestCommonDivisor_Imp(work_u_buf, work_v_buf, _DIVIDE_CEILING_UNIT(work_bit_count, __UNIT_TYPE_BIT_COUNT), nw->BLOCK, &w_buf_count);

	lea	ecx, DWORD PTR _w_buf_count$1[ebp]
	push	ecx
	mov	edx, DWORD PTR _nw$[ebp]
	mov	eax, DWORD PTR [edx+32]
	push	eax
	push	32					; 00000020H
	mov	ecx, DWORD PTR _work_bit_count$12[ebp]
	push	ecx
	call	__DIVIDE_CEILING_UNIT
	add	esp, 8
	push	eax
	mov	edx, DWORD PTR _work_v_buf$6[ebp]
	push	edx
	mov	eax, DWORD PTR _work_u_buf$9[ebp]
	push	eax
	call	_GreatestCommonDivisor_Imp
	add	esp, 20					; 00000014H

; 576  :             if ((result = CheckBlockLight(work_u_buf, work_u_buf_code)) != PMC_STATUS_OK)

	mov	ecx, DWORD PTR _work_u_buf_code$11[ebp]
	push	ecx
	mov	edx, DWORD PTR _work_u_buf$9[ebp]
	push	edx
	call	_CheckBlockLight
	add	esp, 8
	mov	DWORD PTR _result$[ebp], eax
	cmp	DWORD PTR _result$[ebp], 0
	je	SHORT $LN22@PMC_Greate

; 577  :                 return (result);

	mov	eax, DWORD PTR _result$[ebp]
	jmp	$LN1@PMC_Greate
$LN22@PMC_Greate:

; 578  :             if ((result = CheckBlockLight(work_v_buf, work_v_buf_code)) != PMC_STATUS_OK)

	mov	eax, DWORD PTR _work_v_buf_code$8[ebp]
	push	eax
	mov	ecx, DWORD PTR _work_v_buf$6[ebp]
	push	ecx
	call	_CheckBlockLight
	add	esp, 8
	mov	DWORD PTR _result$[ebp], eax
	cmp	DWORD PTR _result$[ebp], 0
	je	SHORT $LN23@PMC_Greate

; 579  :                 return (result);

	mov	eax, DWORD PTR _result$[ebp]
	jmp	$LN1@PMC_Greate
$LN23@PMC_Greate:

; 580  :             if ((result = CheckBlockLight(nw->BLOCK, nw_check_code)) != PMC_STATUS_OK)

	mov	edx, DWORD PTR _nw_check_code$5[ebp]
	push	edx
	mov	eax, DWORD PTR _nw$[ebp]
	mov	ecx, DWORD PTR [eax+32]
	push	ecx
	call	_CheckBlockLight
	add	esp, 8
	mov	DWORD PTR _result$[ebp], eax
	cmp	DWORD PTR _result$[ebp], 0
	je	SHORT $LN24@PMC_Greate

; 581  :                 return (result);

	mov	eax, DWORD PTR _result$[ebp]
	jmp	$LN1@PMC_Greate
$LN24@PMC_Greate:

; 582  :             DeallocateBlock(work_v_buf, work_v_buf_words);

	mov	edx, DWORD PTR _work_v_buf_words$7[ebp]
	push	edx
	mov	eax, DWORD PTR _work_v_buf$6[ebp]
	push	eax
	call	_DeallocateBlock
	add	esp, 8

; 583  :             DeallocateBlock(work_u_buf, work_u_buf_words);

	mov	ecx, DWORD PTR _work_u_buf_words$10[ebp]
	push	ecx
	mov	edx, DWORD PTR _work_u_buf$9[ebp]
	push	edx
	call	_DeallocateBlock
	add	esp, 8

; 584  : 
; 585  :             LeftShift_Imp(nw->BLOCK, w_buf_count, k, nw->BLOCK, TRUE);

	push	1
	mov	eax, DWORD PTR _nw$[ebp]
	mov	ecx, DWORD PTR [eax+32]
	push	ecx
	mov	edx, DWORD PTR _k$2[ebp]
	push	edx
	mov	eax, DWORD PTR _w_buf_count$1[ebp]
	push	eax
	mov	ecx, DWORD PTR _nw$[ebp]
	mov	edx, DWORD PTR [ecx+32]
	push	edx
	call	_LeftShift_Imp
	add	esp, 20					; 00000014H

; 586  :             if ((result = CheckBlockLight(nw->BLOCK, nw_check_code)) != PMC_STATUS_OK)

	mov	eax, DWORD PTR _nw_check_code$5[ebp]
	push	eax
	mov	ecx, DWORD PTR _nw$[ebp]
	mov	edx, DWORD PTR [ecx+32]
	push	edx
	call	_CheckBlockLight
	add	esp, 8
	mov	DWORD PTR _result$[ebp], eax
	cmp	DWORD PTR _result$[ebp], 0
	je	SHORT $LN25@PMC_Greate

; 587  :                 return (result);

	mov	eax, DWORD PTR _result$[ebp]
	jmp	SHORT $LN1@PMC_Greate
$LN25@PMC_Greate:

; 588  :             CommitNumber(nw);

	mov	eax, DWORD PTR _nw$[ebp]
	push	eax
	call	_CommitNumber
	add	esp, 4

; 589  :             *w = (PMC_HANDLE_UINT)nw;

	mov	ecx, DWORD PTR _w$[ebp]
	mov	edx, DWORD PTR _nw$[ebp]
	mov	DWORD PTR [ecx], edx
$LN8@PMC_Greate:

; 590  :         }
; 591  :     }
; 592  : #ifdef _DEBUG
; 593  :     if ((result = CheckNumber((NUMBER_HEADER*)*w)) != PMC_STATUS_OK)

	mov	eax, DWORD PTR _w$[ebp]
	mov	ecx, DWORD PTR [eax]
	push	ecx
	call	_CheckNumber
	add	esp, 4
	mov	DWORD PTR _result$[ebp], eax
	cmp	DWORD PTR _result$[ebp], 0
	je	SHORT $LN26@PMC_Greate

; 594  :         return (result);

	mov	eax, DWORD PTR _result$[ebp]
	jmp	SHORT $LN1@PMC_Greate
$LN26@PMC_Greate:

; 595  : #endif
; 596  :     return (PMC_STATUS_OK);

	xor	eax, eax
$LN1@PMC_Greate:

; 597  : }

	push	edx
	mov	ecx, ebp
	push	eax
	lea	edx, DWORD PTR $LN36@PMC_Greate
	call	@_RTC_CheckStackVars@8
	pop	eax
	pop	edx
	pop	edi
	add	esp, 128				; 00000080H
	cmp	ebp, esp
	call	__RTC_CheckEsp
	mov	esp, ebp
	pop	ebp
	ret	12					; 0000000cH
	npad	3
$LN36@PMC_Greate:
	DD	7
	DD	$LN35@PMC_Greate
$LN35@PMC_Greate:
	DD	-20					; ffffffecH
	DD	4
	DD	$LN28@PMC_Greate
	DD	-44					; ffffffd4H
	DD	4
	DD	$LN29@PMC_Greate
	DD	-56					; ffffffc8H
	DD	4
	DD	$LN30@PMC_Greate
	DD	-72					; ffffffb8H
	DD	4
	DD	$LN31@PMC_Greate
	DD	-84					; ffffffacH
	DD	4
	DD	$LN32@PMC_Greate
	DD	-100					; ffffff9cH
	DD	4
	DD	$LN33@PMC_Greate
	DD	-124					; ffffff84H
	DD	4
	DD	$LN34@PMC_Greate
$LN34@PMC_Greate:
	DB	119					; 00000077H
	DB	95					; 0000005fH
	DB	98					; 00000062H
	DB	117					; 00000075H
	DB	102					; 00000066H
	DB	95					; 0000005fH
	DB	99					; 00000063H
	DB	111					; 0000006fH
	DB	117					; 00000075H
	DB	110					; 0000006eH
	DB	116					; 00000074H
	DB	0
$LN33@PMC_Greate:
	DB	110					; 0000006eH
	DB	119					; 00000077H
	DB	95					; 0000005fH
	DB	99					; 00000063H
	DB	104					; 00000068H
	DB	101					; 00000065H
	DB	99					; 00000063H
	DB	107					; 0000006bH
	DB	95					; 0000005fH
	DB	99					; 00000063H
	DB	111					; 0000006fH
	DB	100					; 00000064H
	DB	101					; 00000065H
	DB	0
$LN32@PMC_Greate:
	DB	119					; 00000077H
	DB	111					; 0000006fH
	DB	114					; 00000072H
	DB	107					; 0000006bH
	DB	95					; 0000005fH
	DB	118					; 00000076H
	DB	95					; 0000005fH
	DB	98					; 00000062H
	DB	117					; 00000075H
	DB	102					; 00000066H
	DB	95					; 0000005fH
	DB	119					; 00000077H
	DB	111					; 0000006fH
	DB	114					; 00000072H
	DB	100					; 00000064H
	DB	115					; 00000073H
	DB	0
$LN31@PMC_Greate:
	DB	119					; 00000077H
	DB	111					; 0000006fH
	DB	114					; 00000072H
	DB	107					; 0000006bH
	DB	95					; 0000005fH
	DB	118					; 00000076H
	DB	95					; 0000005fH
	DB	98					; 00000062H
	DB	117					; 00000075H
	DB	102					; 00000066H
	DB	95					; 0000005fH
	DB	99					; 00000063H
	DB	111					; 0000006fH
	DB	100					; 00000064H
	DB	101					; 00000065H
	DB	0
$LN30@PMC_Greate:
	DB	119					; 00000077H
	DB	111					; 0000006fH
	DB	114					; 00000072H
	DB	107					; 0000006bH
	DB	95					; 0000005fH
	DB	117					; 00000075H
	DB	95					; 0000005fH
	DB	98					; 00000062H
	DB	117					; 00000075H
	DB	102					; 00000066H
	DB	95					; 0000005fH
	DB	119					; 00000077H
	DB	111					; 0000006fH
	DB	114					; 00000072H
	DB	100					; 00000064H
	DB	115					; 00000073H
	DB	0
$LN29@PMC_Greate:
	DB	119					; 00000077H
	DB	111					; 0000006fH
	DB	114					; 00000072H
	DB	107					; 0000006bH
	DB	95					; 0000005fH
	DB	117					; 00000075H
	DB	95					; 0000005fH
	DB	98					; 00000062H
	DB	117					; 00000075H
	DB	102					; 00000066H
	DB	95					; 0000005fH
	DB	99					; 00000063H
	DB	111					; 0000006fH
	DB	100					; 00000064H
	DB	101					; 00000065H
	DB	0
$LN28@PMC_Greate:
	DB	110					; 0000006eH
	DB	119					; 00000077H
	DB	0
_PMC_GreatestCommonDivisor_X_X@12 ENDP
_TEXT	ENDS
; Function compile flags: /Odtp /RTCsu
; File z:\sources\lunor\repos\rougemeilland\palmtree.math.core.uint\palmtree.math.core.uint\pmc_greatestcommondivisor.c
_TEXT	SEGMENT
_result$ = -4						; size = 4
_u$ = 8							; size = 4
_v$ = 12						; size = 8
_w$ = 20						; size = 4
_PMC_GreatestCommonDivisor_X_L@16 PROC

; 458  : {

	push	ebp
	mov	ebp, esp
	push	ecx
	mov	DWORD PTR [ebp-4], -858993460		; ccccccccH
	mov	ecx, OFFSET __3257AA0B_pmc_greatestcommondivisor@c
	call	@__CheckForDebuggerJustMyCode@4

; 459  :     if (__UNIT_TYPE_BIT_COUNT * 2 < sizeof(v) * 8)

	xor	eax, eax
	je	SHORT $LN2@PMC_Greate

; 460  :     {
; 461  :         // _UINT64_T が 2 ワードで表現しきれない処理系には対応しない
; 462  :         return (PMC_STATUS_INTERNAL_ERROR);

	mov	eax, -256				; ffffff00H
	jmp	SHORT $LN1@PMC_Greate
$LN2@PMC_Greate:

; 463  :     }
; 464  :     if (u == NULL)

	cmp	DWORD PTR _u$[ebp], 0
	jne	SHORT $LN3@PMC_Greate

; 465  :         return (PMC_STATUS_ARGUMENT_ERROR);

	or	eax, -1
	jmp	SHORT $LN1@PMC_Greate
$LN3@PMC_Greate:

; 466  :     if (w == NULL)

	cmp	DWORD PTR _w$[ebp], 0
	jne	SHORT $LN4@PMC_Greate

; 467  :         return (PMC_STATUS_ARGUMENT_ERROR);

	or	eax, -1
	jmp	SHORT $LN1@PMC_Greate
$LN4@PMC_Greate:

; 468  :     PMC_STATUS_CODE result;
; 469  :     if ((result = CheckNumber((NUMBER_HEADER*)u)) != PMC_STATUS_OK)

	mov	ecx, DWORD PTR _u$[ebp]
	push	ecx
	call	_CheckNumber
	add	esp, 4
	mov	DWORD PTR _result$[ebp], eax
	cmp	DWORD PTR _result$[ebp], 0
	je	SHORT $LN5@PMC_Greate

; 470  :         return (result);

	mov	eax, DWORD PTR _result$[ebp]
	jmp	SHORT $LN1@PMC_Greate
$LN5@PMC_Greate:

; 471  :     if ((result = PMC_GreatestCommonDivisor_X_L_Imp((NUMBER_HEADER*)u, v, (NUMBER_HEADER**)w)) != PMC_STATUS_OK)

	mov	edx, DWORD PTR _w$[ebp]
	push	edx
	mov	eax, DWORD PTR _v$[ebp+4]
	push	eax
	mov	ecx, DWORD PTR _v$[ebp]
	push	ecx
	mov	edx, DWORD PTR _u$[ebp]
	push	edx
	call	_PMC_GreatestCommonDivisor_X_L_Imp
	add	esp, 16					; 00000010H
	mov	DWORD PTR _result$[ebp], eax
	cmp	DWORD PTR _result$[ebp], 0
	je	SHORT $LN6@PMC_Greate

; 472  :         return (result);

	mov	eax, DWORD PTR _result$[ebp]
	jmp	SHORT $LN1@PMC_Greate
$LN6@PMC_Greate:

; 473  : #ifdef _DEBUG
; 474  :     if ((result = CheckNumber((NUMBER_HEADER*)*w)) != PMC_STATUS_OK)

	mov	eax, DWORD PTR _w$[ebp]
	mov	ecx, DWORD PTR [eax]
	push	ecx
	call	_CheckNumber
	add	esp, 4
	mov	DWORD PTR _result$[ebp], eax
	cmp	DWORD PTR _result$[ebp], 0
	je	SHORT $LN7@PMC_Greate

; 475  :         return (result);

	mov	eax, DWORD PTR _result$[ebp]
	jmp	SHORT $LN1@PMC_Greate
$LN7@PMC_Greate:

; 476  : #endif
; 477  :     return (PMC_STATUS_OK);

	xor	eax, eax
$LN1@PMC_Greate:

; 478  : }

	add	esp, 4
	cmp	ebp, esp
	call	__RTC_CheckEsp
	mov	esp, ebp
	pop	ebp
	ret	16					; 00000010H
_PMC_GreatestCommonDivisor_X_L@16 ENDP
_TEXT	ENDS
; Function compile flags: /Odtp /RTCsu
; File z:\sources\lunor\repos\rougemeilland\palmtree.math.core.uint\palmtree.math.core.uint\pmc_greatestcommondivisor.c
_TEXT	SEGMENT
_result$ = -4						; size = 4
_u$ = 8							; size = 4
_v$ = 12						; size = 4
_w$ = 16						; size = 4
_PMC_GreatestCommonDivisor_X_I@12 PROC

; 192  : {

	push	ebp
	mov	ebp, esp
	push	ecx
	mov	DWORD PTR [ebp-4], -858993460		; ccccccccH
	mov	ecx, OFFSET __3257AA0B_pmc_greatestcommondivisor@c
	call	@__CheckForDebuggerJustMyCode@4

; 193  :     if (__UNIT_TYPE_BIT_COUNT < sizeof(v) * 8)

	xor	eax, eax
	je	SHORT $LN2@PMC_Greate

; 194  :     {
; 195  :         // _UINT32_T が 1 ワードで表現しきれない処理系には対応しない
; 196  :         return (PMC_STATUS_INTERNAL_ERROR);

	mov	eax, -256				; ffffff00H
	jmp	SHORT $LN1@PMC_Greate
$LN2@PMC_Greate:

; 197  :     }
; 198  :     if (u == NULL)

	cmp	DWORD PTR _u$[ebp], 0
	jne	SHORT $LN3@PMC_Greate

; 199  :         return (PMC_STATUS_ARGUMENT_ERROR);

	or	eax, -1
	jmp	SHORT $LN1@PMC_Greate
$LN3@PMC_Greate:

; 200  :     if (w == NULL)

	cmp	DWORD PTR _w$[ebp], 0
	jne	SHORT $LN4@PMC_Greate

; 201  :         return (PMC_STATUS_ARGUMENT_ERROR);

	or	eax, -1
	jmp	SHORT $LN1@PMC_Greate
$LN4@PMC_Greate:

; 202  :     PMC_STATUS_CODE result;
; 203  :     if ((result = CheckNumber((NUMBER_HEADER*)u)) != PMC_STATUS_OK)

	mov	ecx, DWORD PTR _u$[ebp]
	push	ecx
	call	_CheckNumber
	add	esp, 4
	mov	DWORD PTR _result$[ebp], eax
	cmp	DWORD PTR _result$[ebp], 0
	je	SHORT $LN5@PMC_Greate

; 204  :         return (result);

	mov	eax, DWORD PTR _result$[ebp]
	jmp	SHORT $LN1@PMC_Greate
$LN5@PMC_Greate:

; 205  :     if ((result = PMC_GreatestCommonDivisor_X_I_Imp((NUMBER_HEADER*)u, v, (NUMBER_HEADER**)w)) != PMC_STATUS_OK)

	mov	edx, DWORD PTR _w$[ebp]
	push	edx
	mov	eax, DWORD PTR _v$[ebp]
	push	eax
	mov	ecx, DWORD PTR _u$[ebp]
	push	ecx
	call	_PMC_GreatestCommonDivisor_X_I_Imp
	add	esp, 12					; 0000000cH
	mov	DWORD PTR _result$[ebp], eax
	cmp	DWORD PTR _result$[ebp], 0
	je	SHORT $LN6@PMC_Greate

; 206  :         return (result);

	mov	eax, DWORD PTR _result$[ebp]
	jmp	SHORT $LN1@PMC_Greate
$LN6@PMC_Greate:

; 207  : #ifdef _DEBUG
; 208  :     if ((result = CheckNumber((NUMBER_HEADER*)*w)) != PMC_STATUS_OK)

	mov	edx, DWORD PTR _w$[ebp]
	mov	eax, DWORD PTR [edx]
	push	eax
	call	_CheckNumber
	add	esp, 4
	mov	DWORD PTR _result$[ebp], eax
	cmp	DWORD PTR _result$[ebp], 0
	je	SHORT $LN7@PMC_Greate

; 209  :         return (result);

	mov	eax, DWORD PTR _result$[ebp]
	jmp	SHORT $LN1@PMC_Greate
$LN7@PMC_Greate:

; 210  : #endif
; 211  :     return (PMC_STATUS_OK);

	xor	eax, eax
$LN1@PMC_Greate:

; 212  : }

	add	esp, 4
	cmp	ebp, esp
	call	__RTC_CheckEsp
	mov	esp, ebp
	pop	ebp
	ret	12					; 0000000cH
_PMC_GreatestCommonDivisor_X_I@12 ENDP
_TEXT	ENDS
; Function compile flags: /Odtp /RTCsu
; File z:\sources\lunor\repos\rougemeilland\palmtree.math.core.uint\palmtree.math.core.uint\pmc_greatestcommondivisor.c
_TEXT	SEGMENT
_result$ = -4						; size = 4
_u$ = 8							; size = 8
_v$ = 16						; size = 4
_w$ = 20						; size = 4
_PMC_GreatestCommonDivisor_L_X@16 PROC

; 435  : {

	push	ebp
	mov	ebp, esp
	push	ecx
	mov	DWORD PTR [ebp-4], -858993460		; ccccccccH
	mov	ecx, OFFSET __3257AA0B_pmc_greatestcommondivisor@c
	call	@__CheckForDebuggerJustMyCode@4

; 436  :     if (__UNIT_TYPE_BIT_COUNT * 2 < sizeof(u) * 8)

	xor	eax, eax
	je	SHORT $LN2@PMC_Greate

; 437  :     {
; 438  :         // _UINT64_T が 2 ワードで表現しきれない処理系には対応しない
; 439  :         return (PMC_STATUS_INTERNAL_ERROR);

	mov	eax, -256				; ffffff00H
	jmp	SHORT $LN1@PMC_Greate
$LN2@PMC_Greate:

; 440  :     }
; 441  :     if (v == NULL)

	cmp	DWORD PTR _v$[ebp], 0
	jne	SHORT $LN3@PMC_Greate

; 442  :         return (PMC_STATUS_ARGUMENT_ERROR);

	or	eax, -1
	jmp	SHORT $LN1@PMC_Greate
$LN3@PMC_Greate:

; 443  :     if (w == NULL)

	cmp	DWORD PTR _w$[ebp], 0
	jne	SHORT $LN4@PMC_Greate

; 444  :         return (PMC_STATUS_ARGUMENT_ERROR);

	or	eax, -1
	jmp	SHORT $LN1@PMC_Greate
$LN4@PMC_Greate:

; 445  :     PMC_STATUS_CODE result;
; 446  :     if ((result = CheckNumber((NUMBER_HEADER*)v)) != PMC_STATUS_OK)

	mov	ecx, DWORD PTR _v$[ebp]
	push	ecx
	call	_CheckNumber
	add	esp, 4
	mov	DWORD PTR _result$[ebp], eax
	cmp	DWORD PTR _result$[ebp], 0
	je	SHORT $LN5@PMC_Greate

; 447  :         return (result);

	mov	eax, DWORD PTR _result$[ebp]
	jmp	SHORT $LN1@PMC_Greate
$LN5@PMC_Greate:

; 448  :     if ((result = PMC_GreatestCommonDivisor_X_L_Imp((NUMBER_HEADER*)v, u, (NUMBER_HEADER**)w)) != PMC_STATUS_OK)

	mov	edx, DWORD PTR _w$[ebp]
	push	edx
	mov	eax, DWORD PTR _u$[ebp+4]
	push	eax
	mov	ecx, DWORD PTR _u$[ebp]
	push	ecx
	mov	edx, DWORD PTR _v$[ebp]
	push	edx
	call	_PMC_GreatestCommonDivisor_X_L_Imp
	add	esp, 16					; 00000010H
	mov	DWORD PTR _result$[ebp], eax
	cmp	DWORD PTR _result$[ebp], 0
	je	SHORT $LN6@PMC_Greate

; 449  :         return (result);

	mov	eax, DWORD PTR _result$[ebp]
	jmp	SHORT $LN1@PMC_Greate
$LN6@PMC_Greate:

; 450  : #ifdef _DEBUG
; 451  :     if ((result = CheckNumber((NUMBER_HEADER*)*w)) != PMC_STATUS_OK)

	mov	eax, DWORD PTR _w$[ebp]
	mov	ecx, DWORD PTR [eax]
	push	ecx
	call	_CheckNumber
	add	esp, 4
	mov	DWORD PTR _result$[ebp], eax
	cmp	DWORD PTR _result$[ebp], 0
	je	SHORT $LN7@PMC_Greate

; 452  :         return (result);

	mov	eax, DWORD PTR _result$[ebp]
	jmp	SHORT $LN1@PMC_Greate
$LN7@PMC_Greate:

; 453  : #endif
; 454  :     return (PMC_STATUS_OK);

	xor	eax, eax
$LN1@PMC_Greate:

; 455  : }

	add	esp, 4
	cmp	ebp, esp
	call	__RTC_CheckEsp
	mov	esp, ebp
	pop	ebp
	ret	16					; 00000010H
_PMC_GreatestCommonDivisor_L_X@16 ENDP
_TEXT	ENDS
; Function compile flags: /Odtp /RTCsu
; File z:\sources\lunor\repos\rougemeilland\palmtree.math.core.uint\palmtree.math.core.uint\pmc_greatestcommondivisor.c
_TEXT	SEGMENT
_result$ = -4						; size = 4
_u$ = 8							; size = 4
_v$ = 12						; size = 4
_w$ = 16						; size = 4
_PMC_GreatestCommonDivisor_I_X@12 PROC

; 169  : {

	push	ebp
	mov	ebp, esp
	push	ecx
	mov	DWORD PTR [ebp-4], -858993460		; ccccccccH
	mov	ecx, OFFSET __3257AA0B_pmc_greatestcommondivisor@c
	call	@__CheckForDebuggerJustMyCode@4

; 170  :     if (__UNIT_TYPE_BIT_COUNT < sizeof(u) * 8)

	xor	eax, eax
	je	SHORT $LN2@PMC_Greate

; 171  :     {
; 172  :         // _UINT32_T が 1 ワードで表現しきれない処理系には対応しない
; 173  :         return (PMC_STATUS_INTERNAL_ERROR);

	mov	eax, -256				; ffffff00H
	jmp	SHORT $LN1@PMC_Greate
$LN2@PMC_Greate:

; 174  :     }
; 175  :     if (v == NULL)

	cmp	DWORD PTR _v$[ebp], 0
	jne	SHORT $LN3@PMC_Greate

; 176  :         return (PMC_STATUS_ARGUMENT_ERROR);

	or	eax, -1
	jmp	SHORT $LN1@PMC_Greate
$LN3@PMC_Greate:

; 177  :     if (w == NULL)

	cmp	DWORD PTR _w$[ebp], 0
	jne	SHORT $LN4@PMC_Greate

; 178  :         return (PMC_STATUS_ARGUMENT_ERROR);

	or	eax, -1
	jmp	SHORT $LN1@PMC_Greate
$LN4@PMC_Greate:

; 179  :     PMC_STATUS_CODE result;
; 180  :     if ((result = CheckNumber((NUMBER_HEADER*)v)) != PMC_STATUS_OK)

	mov	ecx, DWORD PTR _v$[ebp]
	push	ecx
	call	_CheckNumber
	add	esp, 4
	mov	DWORD PTR _result$[ebp], eax
	cmp	DWORD PTR _result$[ebp], 0
	je	SHORT $LN5@PMC_Greate

; 181  :         return (result);

	mov	eax, DWORD PTR _result$[ebp]
	jmp	SHORT $LN1@PMC_Greate
$LN5@PMC_Greate:

; 182  :     if ((result = PMC_GreatestCommonDivisor_X_I_Imp((NUMBER_HEADER*)v, u, (NUMBER_HEADER**)w)) != PMC_STATUS_OK)

	mov	edx, DWORD PTR _w$[ebp]
	push	edx
	mov	eax, DWORD PTR _u$[ebp]
	push	eax
	mov	ecx, DWORD PTR _v$[ebp]
	push	ecx
	call	_PMC_GreatestCommonDivisor_X_I_Imp
	add	esp, 12					; 0000000cH
	mov	DWORD PTR _result$[ebp], eax
	cmp	DWORD PTR _result$[ebp], 0
	je	SHORT $LN6@PMC_Greate

; 183  :         return (result);

	mov	eax, DWORD PTR _result$[ebp]
	jmp	SHORT $LN1@PMC_Greate
$LN6@PMC_Greate:

; 184  : #ifdef _DEBUG
; 185  :     if ((result = CheckNumber((NUMBER_HEADER*)*w)) != PMC_STATUS_OK)

	mov	edx, DWORD PTR _w$[ebp]
	mov	eax, DWORD PTR [edx]
	push	eax
	call	_CheckNumber
	add	esp, 4
	mov	DWORD PTR _result$[ebp], eax
	cmp	DWORD PTR _result$[ebp], 0
	je	SHORT $LN7@PMC_Greate

; 186  :         return (result);

	mov	eax, DWORD PTR _result$[ebp]
	jmp	SHORT $LN1@PMC_Greate
$LN7@PMC_Greate:

; 187  : #endif
; 188  :     return (PMC_STATUS_OK);

	xor	eax, eax
$LN1@PMC_Greate:

; 189  : }

	add	esp, 4
	cmp	ebp, esp
	call	__RTC_CheckEsp
	mov	esp, ebp
	pop	ebp
	ret	12					; 0000000cH
_PMC_GreatestCommonDivisor_I_X@12 ENDP
_TEXT	ENDS
; Function compile flags: /Odtp /RTCsu
; File z:\sources\lunor\repos\rougemeilland\palmtree.math.core.uint\palmtree.math.core.uint\pmc_greatestcommondivisor.c
_TEXT	SEGMENT
_feature$ = 8						; size = 4
_Initialize_GreatestCommonDivisor PROC

; 600  : {

	push	ebp
	mov	ebp, esp
	mov	ecx, OFFSET __3257AA0B_pmc_greatestcommondivisor@c
	call	@__CheckForDebuggerJustMyCode@4

; 601  :     return (PMC_STATUS_OK);

	xor	eax, eax

; 602  : }

	cmp	ebp, esp
	call	__RTC_CheckEsp
	pop	ebp
	ret	0
_Initialize_GreatestCommonDivisor ENDP
_TEXT	ENDS
END
