; Listing generated by Microsoft (R) Optimizing Compiler Version 19.16.27026.1 

	TITLE	Z:\Sources\Lunor\Repos\rougemeilland\Palmtree.Math.Core.Uint\Palmtree.Math.Core.Uint\pmc_clone.c
	.686P
	.XMM
	include listing.inc
	.model	flat

INCLUDELIB MSVCRTD
INCLUDELIB OLDNAMES

msvcjmc	SEGMENT
__7B7A869E_ctype@h DB 01H
__457DD326_basetsd@h DB 01H
__4384A2D9_corecrt_memcpy_s@h DB 01H
__4E51A221_corecrt_wstring@h DB 01H
__2140C079_string@h DB 01H
__1887E595_winnt@h DB 01H
__9FC7C64B_processthreadsapi@h DB 01H
__FA470AEC_memoryapi@h DB 01H
__F37DAFF1_winerror@h DB 01H
__7A450CCC_winbase@h DB 01H
__B4B40122_winioctl@h DB 01H
__86261D59_stralign@h DB 01H
__BB6D3116_pmc_uint_internal@h DB 01H
__9C731D93_pmc_clone@c DB 01H
msvcjmc	ENDS
PUBLIC	_Initialize_Clone
PUBLIC	_PMC_Clone_X@8
PUBLIC	__JustMyCode_Default
EXTRN	_CheckNumber:PROC
EXTRN	_DuplicateNumber:PROC
EXTRN	@_RTC_CheckStackVars@8:PROC
EXTRN	@__CheckForDebuggerJustMyCode@4:PROC
EXTRN	__RTC_CheckEsp:PROC
EXTRN	__RTC_InitBase:PROC
EXTRN	__RTC_Shutdown:PROC
EXTRN	_number_zero:BYTE
;	COMDAT rtc$TMZ
rtc$TMZ	SEGMENT
__RTC_Shutdown.rtc$TMZ DD FLAT:__RTC_Shutdown
rtc$TMZ	ENDS
;	COMDAT rtc$IMZ
rtc$IMZ	SEGMENT
__RTC_InitBase.rtc$IMZ DD FLAT:__RTC_InitBase
rtc$IMZ	ENDS
; Function compile flags: /Odt
;	COMDAT __JustMyCode_Default
_TEXT	SEGMENT
__JustMyCode_Default PROC				; COMDAT
	push	ebp
	mov	ebp, esp
	pop	ebp
	ret	0
__JustMyCode_Default ENDP
_TEXT	ENDS
; Function compile flags: /Odtp /RTCsu
; File z:\sources\lunor\repos\rougemeilland\palmtree.math.core.uint\palmtree.math.core.uint\pmc_clone.c
_TEXT	SEGMENT
_no$ = -16						; size = 4
_result$ = -8						; size = 4
_nx$ = -4						; size = 4
_x$ = 8							; size = 4
_o$ = 12						; size = 4
_PMC_Clone_X@8 PROC

; 31   : {

	push	ebp
	mov	ebp, esp
	sub	esp, 20					; 00000014H
	mov	eax, -858993460				; ccccccccH
	mov	DWORD PTR [ebp-20], eax
	mov	DWORD PTR [ebp-16], eax
	mov	DWORD PTR [ebp-12], eax
	mov	DWORD PTR [ebp-8], eax
	mov	DWORD PTR [ebp-4], eax
	mov	ecx, OFFSET __9C731D93_pmc_clone@c
	call	@__CheckForDebuggerJustMyCode@4

; 32   :     if (x == NULL)

	cmp	DWORD PTR _x$[ebp], 0
	jne	SHORT $LN2@PMC_Clone_

; 33   :         return (PMC_STATUS_ARGUMENT_ERROR);

	or	eax, -1
	jmp	$LN1@PMC_Clone_
$LN2@PMC_Clone_:

; 34   :     if (o == NULL)

	cmp	DWORD PTR _o$[ebp], 0
	jne	SHORT $LN3@PMC_Clone_

; 35   :         return (PMC_STATUS_ARGUMENT_ERROR);

	or	eax, -1
	jmp	SHORT $LN1@PMC_Clone_
$LN3@PMC_Clone_:

; 36   :     NUMBER_HEADER* nx = (NUMBER_HEADER*)x;

	mov	eax, DWORD PTR _x$[ebp]
	mov	DWORD PTR _nx$[ebp], eax

; 37   :     PMC_STATUS_CODE result;
; 38   :     if ((result = CheckNumber(nx)) != PMC_STATUS_OK)

	mov	ecx, DWORD PTR _nx$[ebp]
	push	ecx
	call	_CheckNumber
	add	esp, 4
	mov	DWORD PTR _result$[ebp], eax
	cmp	DWORD PTR _result$[ebp], 0
	je	SHORT $LN4@PMC_Clone_

; 39   :         return (result);

	mov	eax, DWORD PTR _result$[ebp]
	jmp	SHORT $LN1@PMC_Clone_
$LN4@PMC_Clone_:

; 40   :     NUMBER_HEADER* no;
; 41   :     if (nx->IS_ZERO)

	mov	edx, DWORD PTR _nx$[ebp]
	mov	eax, DWORD PTR [edx+24]
	shr	eax, 1
	and	eax, 1
	je	SHORT $LN5@PMC_Clone_

; 42   :         no = &number_zero;

	mov	DWORD PTR _no$[ebp], OFFSET _number_zero
	jmp	SHORT $LN6@PMC_Clone_
$LN5@PMC_Clone_:

; 43   :     else
; 44   :     {
; 45   :         if ((result = DuplicateNumber(nx, &no)) != PMC_STATUS_OK)

	lea	ecx, DWORD PTR _no$[ebp]
	push	ecx
	mov	edx, DWORD PTR _nx$[ebp]
	push	edx
	call	_DuplicateNumber
	add	esp, 8
	mov	DWORD PTR _result$[ebp], eax
	cmp	DWORD PTR _result$[ebp], 0
	je	SHORT $LN6@PMC_Clone_

; 46   :             return (result);

	mov	eax, DWORD PTR _result$[ebp]
	jmp	SHORT $LN1@PMC_Clone_
$LN6@PMC_Clone_:

; 47   :     }
; 48   :     *o = no;

	mov	eax, DWORD PTR _o$[ebp]
	mov	ecx, DWORD PTR _no$[ebp]
	mov	DWORD PTR [eax], ecx

; 49   : #ifdef _DEBUG
; 50   :     if ((result = CheckNumber(*o)) != PMC_STATUS_OK)

	mov	edx, DWORD PTR _o$[ebp]
	mov	eax, DWORD PTR [edx]
	push	eax
	call	_CheckNumber
	add	esp, 4
	mov	DWORD PTR _result$[ebp], eax
	cmp	DWORD PTR _result$[ebp], 0
	je	SHORT $LN8@PMC_Clone_

; 51   :         return (result);

	mov	eax, DWORD PTR _result$[ebp]
	jmp	SHORT $LN1@PMC_Clone_
$LN8@PMC_Clone_:

; 52   : #endif
; 53   :     return (PMC_STATUS_OK);

	xor	eax, eax
$LN1@PMC_Clone_:

; 54   : }

	push	edx
	mov	ecx, ebp
	push	eax
	lea	edx, DWORD PTR $LN12@PMC_Clone_
	call	@_RTC_CheckStackVars@8
	pop	eax
	pop	edx
	add	esp, 20					; 00000014H
	cmp	ebp, esp
	call	__RTC_CheckEsp
	mov	esp, ebp
	pop	ebp
	ret	8
$LN12@PMC_Clone_:
	DD	1
	DD	$LN11@PMC_Clone_
$LN11@PMC_Clone_:
	DD	-16					; fffffff0H
	DD	4
	DD	$LN10@PMC_Clone_
$LN10@PMC_Clone_:
	DB	110					; 0000006eH
	DB	111					; 0000006fH
	DB	0
_PMC_Clone_X@8 ENDP
_TEXT	ENDS
; Function compile flags: /Odtp /RTCsu
; File z:\sources\lunor\repos\rougemeilland\palmtree.math.core.uint\palmtree.math.core.uint\pmc_clone.c
_TEXT	SEGMENT
_feature$ = 8						; size = 4
_Initialize_Clone PROC

; 57   : {

	push	ebp
	mov	ebp, esp
	mov	ecx, OFFSET __9C731D93_pmc_clone@c
	call	@__CheckForDebuggerJustMyCode@4

; 58   :     return (PMC_STATUS_OK);

	xor	eax, eax

; 59   : }

	cmp	ebp, esp
	call	__RTC_CheckEsp
	pop	ebp
	ret	0
_Initialize_Clone ENDP
_TEXT	ENDS
END
