; Listing generated by Microsoft (R) Optimizing Compiler Version 19.16.27026.1 

	TITLE	Z:\Sources\Lunor\Repos\rougemeilland\Palmtree.Math.Core.Uint\Palmtree.Math.Core.Uint\pmc_add.c
	.686P
	.XMM
	include listing.inc
	.model	flat

INCLUDELIB MSVCRTD
INCLUDELIB OLDNAMES

msvcjmc	SEGMENT
__7B7A869E_ctype@h DB 01H
__457DD326_basetsd@h DB 01H
__4384A2D9_corecrt_memcpy_s@h DB 01H
__4E51A221_corecrt_wstring@h DB 01H
__2140C079_string@h DB 01H
__1887E595_winnt@h DB 01H
__9FC7C64B_processthreadsapi@h DB 01H
__FA470AEC_memoryapi@h DB 01H
__F37DAFF1_winerror@h DB 01H
__7A450CCC_winbase@h DB 01H
__B4B40122_winioctl@h DB 01H
__86261D59_stralign@h DB 01H
__BB6D3116_pmc_uint_internal@h DB 01H
__8CA3E54E_pmc_inline_func@h DB 01H
__E05E7037_autogenerated_inline_func@h DB 01H
__DB5B71FB_pmc_add@c DB 01H
msvcjmc	ENDS
PUBLIC	_Initialize_Add
PUBLIC	_PMC_Add_I_X@12
PUBLIC	_PMC_Add_L_X@16
PUBLIC	_PMC_Add_X_I@12
PUBLIC	_PMC_Add_X_L@16
PUBLIC	_PMC_Add_X_X@12
PUBLIC	__JustMyCode_Default
EXTRN	_CheckBlockLight:PROC
EXTRN	_AllocateNumber:PROC
EXTRN	_DeallocateNumber:PROC
EXTRN	_CommitNumber:PROC
EXTRN	_CheckNumber:PROC
EXTRN	_DuplicateNumber:PROC
EXTRN	_From_I_Imp:PROC
EXTRN	_From_L_Imp:PROC
EXTRN	@_RTC_CheckStackVars@8:PROC
EXTRN	@__CheckForDebuggerJustMyCode@4:PROC
EXTRN	__RTC_CheckEsp:PROC
EXTRN	__RTC_InitBase:PROC
EXTRN	__RTC_Shutdown:PROC
EXTRN	__aullshr:PROC
EXTRN	_number_zero:BYTE
_BSS	SEGMENT
_fp_Add_Imp DD	01H DUP (?)
_BSS	ENDS
;	COMDAT rtc$TMZ
rtc$TMZ	SEGMENT
__RTC_Shutdown.rtc$TMZ DD FLAT:__RTC_Shutdown
rtc$TMZ	ENDS
;	COMDAT rtc$IMZ
rtc$IMZ	SEGMENT
__RTC_InitBase.rtc$IMZ DD FLAT:__RTC_InitBase
rtc$IMZ	ENDS
; Function compile flags: /Odt
;	COMDAT __JustMyCode_Default
_TEXT	SEGMENT
__JustMyCode_Default PROC				; COMDAT
	push	ebp
	mov	ebp, esp
	pop	ebp
	ret	0
__JustMyCode_Default ENDP
_TEXT	ENDS
; Function compile flags: /Odtp /RTCsu
; File z:\sources\lunor\repos\rougemeilland\palmtree.math.core.uint\palmtree.math.core.uint\pmc_add.c
_TEXT	SEGMENT
_w_light_check_code$1 = -84				; size = 4
_w_bit_count$2 = -76					; size = 4
_v_bit_count$3 = -72					; size = 4
_u_bit_count$4 = -68					; size = 4
_w_light_check_code$5 = -60				; size = 4
_w_bit_count$6 = -52					; size = 4
_v_bit_count$7 = -48					; size = 4
_w_light_check_code$8 = -40				; size = 4
_w_bit_count$9 = -32					; size = 4
_v_bit_count$10 = -28					; size = 4
_v_lo$11 = -24						; size = 4
_v_hi$12 = -16						; size = 4
_u_bit_count$13 = -8					; size = 4
_result$ = -4						; size = 4
_u$ = 8							; size = 4
_v$ = 12						; size = 8
_w$ = 20						; size = 4
_PMC_Add_X_L_Imp PROC

; 399  : {

	push	ebp
	mov	ebp, esp
	sub	esp, 88					; 00000058H
	push	edi
	lea	edi, DWORD PTR [ebp-88]
	mov	ecx, 22					; 00000016H
	mov	eax, -858993460				; ccccccccH
	rep stosd
	mov	ecx, OFFSET __DB5B71FB_pmc_add@c
	call	@__CheckForDebuggerJustMyCode@4

; 400  :     PMC_STATUS_CODE result;
; 401  :     if (u->IS_ZERO)

	mov	eax, DWORD PTR _u$[ebp]
	mov	ecx, DWORD PTR [eax+24]
	shr	ecx, 1
	and	ecx, 1
	je	SHORT $LN2@PMC_Add_X_

; 402  :     {
; 403  :         // u が 0 である場合
; 404  : 
; 405  :         if (v == 0)

	mov	edx, DWORD PTR _v$[ebp]
	or	edx, DWORD PTR _v$[ebp+4]
	jne	SHORT $LN4@PMC_Add_X_

; 406  :         {
; 407  :             // v が 0 である場合
; 408  : 
; 409  :             // u と v がともに 0 であるので、加算結果の 0 を呼び出し元に返す。
; 410  :             *w = &number_zero;

	mov	eax, DWORD PTR _w$[ebp]
	mov	DWORD PTR [eax], OFFSET _number_zero

; 411  :         }

	jmp	SHORT $LN5@PMC_Add_X_
$LN4@PMC_Add_X_:

; 412  :         else
; 413  :         {
; 414  :             // v が 0 ではない場合
; 415  : 
; 416  :             // 加算結果となる v の値を持つ NUMBER_HEADER 構造体を獲得し、呼び出し元へ返す。
; 417  :             if ((result = From_L_Imp(v, w)) != PMC_STATUS_OK)

	mov	ecx, DWORD PTR _w$[ebp]
	push	ecx
	mov	edx, DWORD PTR _v$[ebp+4]
	push	edx
	mov	eax, DWORD PTR _v$[ebp]
	push	eax
	call	_From_L_Imp
	add	esp, 12					; 0000000cH
	mov	DWORD PTR _result$[ebp], eax
	cmp	DWORD PTR _result$[ebp], 0
	je	SHORT $LN5@PMC_Add_X_

; 418  :                 return (result);

	mov	eax, DWORD PTR _result$[ebp]
	jmp	$LN1@PMC_Add_X_
$LN5@PMC_Add_X_:

; 419  :         }
; 420  :     }

	jmp	$LN3@PMC_Add_X_
$LN2@PMC_Add_X_:

; 421  :     else
; 422  :     {
; 423  :         // u が 0 ではない場合
; 424  : 
; 425  :         if (v == 0)

	mov	ecx, DWORD PTR _v$[ebp]
	or	ecx, DWORD PTR _v$[ebp+4]
	jne	SHORT $LN7@PMC_Add_X_

; 426  :         {
; 427  :             // v が 0 である場合
; 428  : 
; 429  :             // 加算結果となる u の値を持つ NUMBER_HEADER 構造体を獲得し、呼び出し元へ返す。
; 430  :             if ((result = DuplicateNumber(u, w)) != PMC_STATUS_OK)

	mov	edx, DWORD PTR _w$[ebp]
	push	edx
	mov	eax, DWORD PTR _u$[ebp]
	push	eax
	call	_DuplicateNumber
	add	esp, 8
	mov	DWORD PTR _result$[ebp], eax
	cmp	DWORD PTR _result$[ebp], 0
	je	SHORT $LN9@PMC_Add_X_

; 431  :                 return (result);

	mov	eax, DWORD PTR _result$[ebp]
	jmp	$LN1@PMC_Add_X_
$LN9@PMC_Add_X_:

; 432  :         }

	jmp	$LN3@PMC_Add_X_
$LN7@PMC_Add_X_:

; 433  :         else
; 434  :         {
; 435  :             // u と v がともに 0 ではない場合
; 436  : 
; 437  :             // u と v の和を計算する
; 438  :             if (__UNIT_TYPE_BIT_COUNT < sizeof(v) * 8)

	mov	ecx, 1
	test	ecx, ecx
	je	$LN10@PMC_Add_X_

; 439  :             {
; 440  :                 // _UINT64_T が 1 ワードで表現しきれない場合
; 441  : 
; 442  :                 __UNIT_TYPE u_bit_count = u->UNIT_BIT_COUNT;

	mov	edx, DWORD PTR _u$[ebp]
	mov	eax, DWORD PTR [edx+12]
	mov	DWORD PTR _u_bit_count$13[ebp], eax

; 443  :                 _UINT32_T v_hi;
; 444  :                 _UINT32_T v_lo = _FROMDWORDTOWORD(v, &v_hi);

	lea	ecx, DWORD PTR _v_hi$12[ebp]
	push	ecx
	mov	edx, DWORD PTR _v$[ebp+4]
	push	edx
	mov	eax, DWORD PTR _v$[ebp]
	push	eax
	call	__FROMDWORDTOWORD
	add	esp, 12					; 0000000cH
	mov	DWORD PTR _v_lo$11[ebp], eax

; 445  :                 if (v_hi == 0)

	cmp	DWORD PTR _v_hi$12[ebp], 0
	jne	$LN12@PMC_Add_X_

; 446  :                 {
; 447  :                     // y の値が 32bit で表現可能な場合
; 448  :                     __UNIT_TYPE v_bit_count = sizeof(v_lo) * 8 - _LZCNT_ALT_32(v_lo);

	mov	ecx, DWORD PTR _v_lo$11[ebp]
	push	ecx
	call	__LZCNT_ALT_32
	add	esp, 4
	mov	edx, 32					; 00000020H
	sub	edx, eax
	mov	DWORD PTR _v_bit_count$10[ebp], edx

; 449  :                     __UNIT_TYPE w_bit_count = _MAXIMUM_UNIT(u_bit_count, v_bit_count) + 1;

	mov	eax, DWORD PTR _v_bit_count$10[ebp]
	push	eax
	mov	ecx, DWORD PTR _u_bit_count$13[ebp]
	push	ecx
	call	__MAXIMUM_UNIT
	add	esp, 8
	add	eax, 1
	mov	DWORD PTR _w_bit_count$9[ebp], eax

; 450  :                     __UNIT_TYPE w_light_check_code;
; 451  :                     if ((result = AllocateNumber(w, w_bit_count, &w_light_check_code)) != PMC_STATUS_OK)

	lea	edx, DWORD PTR _w_light_check_code$8[ebp]
	push	edx
	mov	eax, DWORD PTR _w_bit_count$9[ebp]
	push	eax
	mov	ecx, DWORD PTR _w$[ebp]
	push	ecx
	call	_AllocateNumber
	add	esp, 12					; 0000000cH
	mov	DWORD PTR _result$[ebp], eax
	cmp	DWORD PTR _result$[ebp], 0
	je	SHORT $LN14@PMC_Add_X_

; 452  :                         return (result);

	mov	eax, DWORD PTR _result$[ebp]
	jmp	$LN1@PMC_Add_X_
$LN14@PMC_Add_X_:

; 453  :                     if ((result = Add_X_1W(u->BLOCK, u->UNIT_WORD_COUNT, v_lo, (*w)->BLOCK, (*w)->BLOCK_COUNT)) != PMC_STATUS_OK)

	mov	edx, DWORD PTR _w$[ebp]
	mov	eax, DWORD PTR [edx]
	mov	ecx, DWORD PTR [eax+28]
	push	ecx
	mov	edx, DWORD PTR _w$[ebp]
	mov	eax, DWORD PTR [edx]
	mov	ecx, DWORD PTR [eax+32]
	push	ecx
	mov	edx, DWORD PTR _v_lo$11[ebp]
	push	edx
	mov	eax, DWORD PTR _u$[ebp]
	mov	ecx, DWORD PTR [eax+8]
	push	ecx
	mov	edx, DWORD PTR _u$[ebp]
	mov	eax, DWORD PTR [edx+32]
	push	eax
	call	_Add_X_1W
	add	esp, 20					; 00000014H
	mov	DWORD PTR _result$[ebp], eax
	cmp	DWORD PTR _result$[ebp], 0
	je	SHORT $LN15@PMC_Add_X_

; 454  :                     {
; 455  :                         DeallocateNumber(*w);

	mov	ecx, DWORD PTR _w$[ebp]
	mov	edx, DWORD PTR [ecx]
	push	edx
	call	_DeallocateNumber
	add	esp, 4

; 456  :                         return (result);

	mov	eax, DWORD PTR _result$[ebp]
	jmp	$LN1@PMC_Add_X_
$LN15@PMC_Add_X_:

; 457  :                     }
; 458  :                     if ((result = CheckBlockLight((*w)->BLOCK, w_light_check_code)) != PMC_STATUS_OK)

	mov	eax, DWORD PTR _w_light_check_code$8[ebp]
	push	eax
	mov	ecx, DWORD PTR _w$[ebp]
	mov	edx, DWORD PTR [ecx]
	mov	eax, DWORD PTR [edx+32]
	push	eax
	call	_CheckBlockLight
	add	esp, 8
	mov	DWORD PTR _result$[ebp], eax
	cmp	DWORD PTR _result$[ebp], 0
	je	SHORT $LN16@PMC_Add_X_

; 459  :                         return (result);

	mov	eax, DWORD PTR _result$[ebp]
	jmp	$LN1@PMC_Add_X_
$LN16@PMC_Add_X_:

; 460  :                 }

	jmp	$LN13@PMC_Add_X_
$LN12@PMC_Add_X_:

; 461  :                 else
; 462  :                 {
; 463  :                     // y の値が 32bit では表現できない場合
; 464  :                     __UNIT_TYPE v_bit_count = sizeof(v) * 8 - _LZCNT_ALT_32(v_hi);

	mov	ecx, DWORD PTR _v_hi$12[ebp]
	push	ecx
	call	__LZCNT_ALT_32
	add	esp, 4
	mov	edx, 64					; 00000040H
	sub	edx, eax
	mov	DWORD PTR _v_bit_count$7[ebp], edx

; 465  :                     __UNIT_TYPE w_bit_count = _MAXIMUM_UNIT(u_bit_count, v_bit_count) + 1;

	mov	eax, DWORD PTR _v_bit_count$7[ebp]
	push	eax
	mov	ecx, DWORD PTR _u_bit_count$13[ebp]
	push	ecx
	call	__MAXIMUM_UNIT
	add	esp, 8
	add	eax, 1
	mov	DWORD PTR _w_bit_count$6[ebp], eax

; 466  :                     __UNIT_TYPE w_light_check_code;
; 467  :                     if ((result = AllocateNumber(w, w_bit_count, &w_light_check_code)) != PMC_STATUS_OK)

	lea	edx, DWORD PTR _w_light_check_code$5[ebp]
	push	edx
	mov	eax, DWORD PTR _w_bit_count$6[ebp]
	push	eax
	mov	ecx, DWORD PTR _w$[ebp]
	push	ecx
	call	_AllocateNumber
	add	esp, 12					; 0000000cH
	mov	DWORD PTR _result$[ebp], eax
	cmp	DWORD PTR _result$[ebp], 0
	je	SHORT $LN17@PMC_Add_X_

; 468  :                         return (result);

	mov	eax, DWORD PTR _result$[ebp]
	jmp	$LN1@PMC_Add_X_
$LN17@PMC_Add_X_:

; 469  :                     if ((result = Add_X_2W(u->BLOCK, u->UNIT_WORD_COUNT, v_hi, v_lo, (*w)->BLOCK, (*w)->BLOCK_COUNT)) != PMC_STATUS_OK)

	mov	edx, DWORD PTR _w$[ebp]
	mov	eax, DWORD PTR [edx]
	mov	ecx, DWORD PTR [eax+28]
	push	ecx
	mov	edx, DWORD PTR _w$[ebp]
	mov	eax, DWORD PTR [edx]
	mov	ecx, DWORD PTR [eax+32]
	push	ecx
	mov	edx, DWORD PTR _v_lo$11[ebp]
	push	edx
	mov	eax, DWORD PTR _v_hi$12[ebp]
	push	eax
	mov	ecx, DWORD PTR _u$[ebp]
	mov	edx, DWORD PTR [ecx+8]
	push	edx
	mov	eax, DWORD PTR _u$[ebp]
	mov	ecx, DWORD PTR [eax+32]
	push	ecx
	call	_Add_X_2W
	add	esp, 24					; 00000018H
	mov	DWORD PTR _result$[ebp], eax
	cmp	DWORD PTR _result$[ebp], 0
	je	SHORT $LN18@PMC_Add_X_

; 470  :                     {
; 471  :                         DeallocateNumber(*w);

	mov	edx, DWORD PTR _w$[ebp]
	mov	eax, DWORD PTR [edx]
	push	eax
	call	_DeallocateNumber
	add	esp, 4

; 472  :                         return (result);

	mov	eax, DWORD PTR _result$[ebp]
	jmp	$LN1@PMC_Add_X_
$LN18@PMC_Add_X_:

; 473  :                     }
; 474  :                     if ((result = CheckBlockLight((*w)->BLOCK, w_light_check_code)) != PMC_STATUS_OK)

	mov	ecx, DWORD PTR _w_light_check_code$5[ebp]
	push	ecx
	mov	edx, DWORD PTR _w$[ebp]
	mov	eax, DWORD PTR [edx]
	mov	ecx, DWORD PTR [eax+32]
	push	ecx
	call	_CheckBlockLight
	add	esp, 8
	mov	DWORD PTR _result$[ebp], eax
	cmp	DWORD PTR _result$[ebp], 0
	je	SHORT $LN13@PMC_Add_X_

; 475  :                         return (result);

	mov	eax, DWORD PTR _result$[ebp]
	jmp	$LN1@PMC_Add_X_
$LN13@PMC_Add_X_:

; 476  :                 }
; 477  :                 CommitNumber(*w);

	mov	edx, DWORD PTR _w$[ebp]
	mov	eax, DWORD PTR [edx]
	push	eax
	call	_CommitNumber
	add	esp, 4

; 478  :             }

	jmp	$LN3@PMC_Add_X_
$LN10@PMC_Add_X_:

; 479  :             else
; 480  :             {
; 481  :                 // _UINT64_T が 1 ワードで表現できる場合
; 482  : 
; 483  :                 __UNIT_TYPE u_bit_count = u->UNIT_BIT_COUNT;

	mov	ecx, DWORD PTR _u$[ebp]
	mov	edx, DWORD PTR [ecx+12]
	mov	DWORD PTR _u_bit_count$4[ebp], edx

; 484  :                 __UNIT_TYPE v_bit_count = sizeof(v) * 8 - _LZCNT_ALT_UNIT((__UNIT_TYPE)v);

	mov	eax, DWORD PTR _v$[ebp]
	push	eax
	call	__LZCNT_ALT_UNIT
	add	esp, 4
	mov	ecx, 64					; 00000040H
	sub	ecx, eax
	mov	DWORD PTR _v_bit_count$3[ebp], ecx

; 485  :                 __UNIT_TYPE w_bit_count = _MAXIMUM_UNIT(u_bit_count, v_bit_count) + 1;

	mov	edx, DWORD PTR _v_bit_count$3[ebp]
	push	edx
	mov	eax, DWORD PTR _u_bit_count$4[ebp]
	push	eax
	call	__MAXIMUM_UNIT
	add	esp, 8
	add	eax, 1
	mov	DWORD PTR _w_bit_count$2[ebp], eax

; 486  :                 __UNIT_TYPE w_light_check_code;
; 487  :                 if ((result = AllocateNumber(w, w_bit_count, &w_light_check_code)) != PMC_STATUS_OK)

	lea	ecx, DWORD PTR _w_light_check_code$1[ebp]
	push	ecx
	mov	edx, DWORD PTR _w_bit_count$2[ebp]
	push	edx
	mov	eax, DWORD PTR _w$[ebp]
	push	eax
	call	_AllocateNumber
	add	esp, 12					; 0000000cH
	mov	DWORD PTR _result$[ebp], eax
	cmp	DWORD PTR _result$[ebp], 0
	je	SHORT $LN20@PMC_Add_X_

; 488  :                     return (result);

	mov	eax, DWORD PTR _result$[ebp]
	jmp	SHORT $LN1@PMC_Add_X_
$LN20@PMC_Add_X_:

; 489  :                 if ((result = Add_X_1W(u->BLOCK, u->UNIT_WORD_COUNT, (__UNIT_TYPE)v, (*w)->BLOCK, (*w)->BLOCK_COUNT)) != PMC_STATUS_OK)

	mov	ecx, DWORD PTR _w$[ebp]
	mov	edx, DWORD PTR [ecx]
	mov	eax, DWORD PTR [edx+28]
	push	eax
	mov	ecx, DWORD PTR _w$[ebp]
	mov	edx, DWORD PTR [ecx]
	mov	eax, DWORD PTR [edx+32]
	push	eax
	mov	ecx, DWORD PTR _v$[ebp]
	push	ecx
	mov	edx, DWORD PTR _u$[ebp]
	mov	eax, DWORD PTR [edx+8]
	push	eax
	mov	ecx, DWORD PTR _u$[ebp]
	mov	edx, DWORD PTR [ecx+32]
	push	edx
	call	_Add_X_1W
	add	esp, 20					; 00000014H
	mov	DWORD PTR _result$[ebp], eax
	cmp	DWORD PTR _result$[ebp], 0
	je	SHORT $LN21@PMC_Add_X_

; 490  :                 {
; 491  :                     DeallocateNumber(*w);

	mov	eax, DWORD PTR _w$[ebp]
	mov	ecx, DWORD PTR [eax]
	push	ecx
	call	_DeallocateNumber
	add	esp, 4

; 492  :                     return (result);

	mov	eax, DWORD PTR _result$[ebp]
	jmp	SHORT $LN1@PMC_Add_X_
$LN21@PMC_Add_X_:

; 493  :                 }
; 494  :                 if ((result = CheckBlockLight((*w)->BLOCK, w_light_check_code)) != PMC_STATUS_OK)

	mov	edx, DWORD PTR _w_light_check_code$1[ebp]
	push	edx
	mov	eax, DWORD PTR _w$[ebp]
	mov	ecx, DWORD PTR [eax]
	mov	edx, DWORD PTR [ecx+32]
	push	edx
	call	_CheckBlockLight
	add	esp, 8
	mov	DWORD PTR _result$[ebp], eax
	cmp	DWORD PTR _result$[ebp], 0
	je	SHORT $LN22@PMC_Add_X_

; 495  :                     return (result);

	mov	eax, DWORD PTR _result$[ebp]
	jmp	SHORT $LN1@PMC_Add_X_
$LN22@PMC_Add_X_:

; 496  :                 CommitNumber(*w);

	mov	eax, DWORD PTR _w$[ebp]
	mov	ecx, DWORD PTR [eax]
	push	ecx
	call	_CommitNumber
	add	esp, 4
$LN3@PMC_Add_X_:

; 497  :             }
; 498  : 
; 499  :         }
; 500  :     }
; 501  :     return (PMC_STATUS_OK);

	xor	eax, eax
$LN1@PMC_Add_X_:

; 502  : }

	push	edx
	mov	ecx, ebp
	push	eax
	lea	edx, DWORD PTR $LN29@PMC_Add_X_
	call	@_RTC_CheckStackVars@8
	pop	eax
	pop	edx
	pop	edi
	add	esp, 88					; 00000058H
	cmp	ebp, esp
	call	__RTC_CheckEsp
	mov	esp, ebp
	pop	ebp
	ret	0
	npad	3
$LN29@PMC_Add_X_:
	DD	4
	DD	$LN28@PMC_Add_X_
$LN28@PMC_Add_X_:
	DD	-16					; fffffff0H
	DD	4
	DD	$LN24@PMC_Add_X_
	DD	-40					; ffffffd8H
	DD	4
	DD	$LN25@PMC_Add_X_
	DD	-60					; ffffffc4H
	DD	4
	DD	$LN26@PMC_Add_X_
	DD	-84					; ffffffacH
	DD	4
	DD	$LN27@PMC_Add_X_
$LN27@PMC_Add_X_:
	DB	119					; 00000077H
	DB	95					; 0000005fH
	DB	108					; 0000006cH
	DB	105					; 00000069H
	DB	103					; 00000067H
	DB	104					; 00000068H
	DB	116					; 00000074H
	DB	95					; 0000005fH
	DB	99					; 00000063H
	DB	104					; 00000068H
	DB	101					; 00000065H
	DB	99					; 00000063H
	DB	107					; 0000006bH
	DB	95					; 0000005fH
	DB	99					; 00000063H
	DB	111					; 0000006fH
	DB	100					; 00000064H
	DB	101					; 00000065H
	DB	0
$LN26@PMC_Add_X_:
	DB	119					; 00000077H
	DB	95					; 0000005fH
	DB	108					; 0000006cH
	DB	105					; 00000069H
	DB	103					; 00000067H
	DB	104					; 00000068H
	DB	116					; 00000074H
	DB	95					; 0000005fH
	DB	99					; 00000063H
	DB	104					; 00000068H
	DB	101					; 00000065H
	DB	99					; 00000063H
	DB	107					; 0000006bH
	DB	95					; 0000005fH
	DB	99					; 00000063H
	DB	111					; 0000006fH
	DB	100					; 00000064H
	DB	101					; 00000065H
	DB	0
$LN25@PMC_Add_X_:
	DB	119					; 00000077H
	DB	95					; 0000005fH
	DB	108					; 0000006cH
	DB	105					; 00000069H
	DB	103					; 00000067H
	DB	104					; 00000068H
	DB	116					; 00000074H
	DB	95					; 0000005fH
	DB	99					; 00000063H
	DB	104					; 00000068H
	DB	101					; 00000065H
	DB	99					; 00000063H
	DB	107					; 0000006bH
	DB	95					; 0000005fH
	DB	99					; 00000063H
	DB	111					; 0000006fH
	DB	100					; 00000064H
	DB	101					; 00000065H
	DB	0
$LN24@PMC_Add_X_:
	DB	118					; 00000076H
	DB	95					; 0000005fH
	DB	104					; 00000068H
	DB	105					; 00000069H
	DB	0
_PMC_Add_X_L_Imp ENDP
_TEXT	ENDS
; Function compile flags: /Odtp /RTCsu
; File z:\sources\lunor\repos\rougemeilland\palmtree.math.core.uint\palmtree.math.core.uint\pmc_add.c
_TEXT	SEGMENT
_nz_check_code$1 = -24					; size = 4
_z_bit_count$2 = -16					; size = 4
_y_bit_count$3 = -12					; size = 4
_x_bit_count$4 = -8					; size = 4
_result$ = -4						; size = 4
_nu$ = 8						; size = 4
_v$ = 12						; size = 4
_nw$ = 16						; size = 4
_PMC_Add_X_I_Imp PROC

; 294  : {

	push	ebp
	mov	ebp, esp
	sub	esp, 28					; 0000001cH
	mov	eax, -858993460				; ccccccccH
	mov	DWORD PTR [ebp-28], eax
	mov	DWORD PTR [ebp-24], eax
	mov	DWORD PTR [ebp-20], eax
	mov	DWORD PTR [ebp-16], eax
	mov	DWORD PTR [ebp-12], eax
	mov	DWORD PTR [ebp-8], eax
	mov	DWORD PTR [ebp-4], eax
	mov	ecx, OFFSET __DB5B71FB_pmc_add@c
	call	@__CheckForDebuggerJustMyCode@4

; 295  :     PMC_STATUS_CODE result;
; 296  :     if (nu->IS_ZERO)

	mov	eax, DWORD PTR _nu$[ebp]
	mov	ecx, DWORD PTR [eax+24]
	shr	ecx, 1
	and	ecx, 1
	je	SHORT $LN2@PMC_Add_X_

; 297  :     {
; 298  :         // x が 0 である場合
; 299  : 
; 300  :         if (v == 0)

	cmp	DWORD PTR _v$[ebp], 0
	jne	SHORT $LN4@PMC_Add_X_

; 301  :         {
; 302  :             // y が 0 である場合
; 303  : 
; 304  :             // x と y がともに 0 であるので、加算結果の 0 を呼び出し元に返す。
; 305  :             *nw = &number_zero;

	mov	edx, DWORD PTR _nw$[ebp]
	mov	DWORD PTR [edx], OFFSET _number_zero

; 306  :         }

	jmp	SHORT $LN5@PMC_Add_X_
$LN4@PMC_Add_X_:

; 307  :         else
; 308  :         {
; 309  :             // y が 0 ではない場合
; 310  : 
; 311  :             // 加算結果となる y の値を持つ NUMBER_HEADER 構造体を獲得し、呼び出し元へ返す。
; 312  :             if ((result = From_I_Imp(v, nw)) != PMC_STATUS_OK)

	mov	eax, DWORD PTR _nw$[ebp]
	push	eax
	mov	ecx, DWORD PTR _v$[ebp]
	push	ecx
	call	_From_I_Imp
	add	esp, 8
	mov	DWORD PTR _result$[ebp], eax
	cmp	DWORD PTR _result$[ebp], 0
	je	SHORT $LN5@PMC_Add_X_

; 313  :                 return (result);

	mov	eax, DWORD PTR _result$[ebp]
	jmp	$LN1@PMC_Add_X_
$LN5@PMC_Add_X_:

; 314  :         }
; 315  :     }

	jmp	$LN3@PMC_Add_X_
$LN2@PMC_Add_X_:

; 316  :     else
; 317  :     {
; 318  :         // x が 0 ではない場合
; 319  : 
; 320  :         if (v == 0)

	cmp	DWORD PTR _v$[ebp], 0
	jne	SHORT $LN7@PMC_Add_X_

; 321  :         {
; 322  :             // y が 0 である場合
; 323  : 
; 324  :             // 加算結果となる x の値を持つ NUMBER_HEADER 構造体を獲得し、呼び出し元へ返す。
; 325  :             if ((result = DuplicateNumber(nu, nw)) != PMC_STATUS_OK)

	mov	edx, DWORD PTR _nw$[ebp]
	push	edx
	mov	eax, DWORD PTR _nu$[ebp]
	push	eax
	call	_DuplicateNumber
	add	esp, 8
	mov	DWORD PTR _result$[ebp], eax
	cmp	DWORD PTR _result$[ebp], 0
	je	SHORT $LN9@PMC_Add_X_

; 326  :                 return (result);

	mov	eax, DWORD PTR _result$[ebp]
	jmp	$LN1@PMC_Add_X_
$LN9@PMC_Add_X_:

; 327  :         }

	jmp	$LN3@PMC_Add_X_
$LN7@PMC_Add_X_:

; 328  :         else
; 329  :         {
; 330  :             // x と y がともに 0 ではない場合
; 331  : 
; 332  :             // x と y の和を計算する
; 333  :             __UNIT_TYPE x_bit_count = nu->UNIT_BIT_COUNT;

	mov	ecx, DWORD PTR _nu$[ebp]
	mov	edx, DWORD PTR [ecx+12]
	mov	DWORD PTR _x_bit_count$4[ebp], edx

; 334  :             __UNIT_TYPE y_bit_count = sizeof(v) * 8 - _LZCNT_ALT_32(v);

	mov	eax, DWORD PTR _v$[ebp]
	push	eax
	call	__LZCNT_ALT_32
	add	esp, 4
	mov	ecx, 32					; 00000020H
	sub	ecx, eax
	mov	DWORD PTR _y_bit_count$3[ebp], ecx

; 335  :             __UNIT_TYPE z_bit_count = _MAXIMUM_UNIT(x_bit_count, y_bit_count) + 1;

	mov	edx, DWORD PTR _y_bit_count$3[ebp]
	push	edx
	mov	eax, DWORD PTR _x_bit_count$4[ebp]
	push	eax
	call	__MAXIMUM_UNIT
	add	esp, 8
	add	eax, 1
	mov	DWORD PTR _z_bit_count$2[ebp], eax

; 336  :             __UNIT_TYPE nz_check_code;
; 337  :             if ((result = AllocateNumber(nw, z_bit_count, &nz_check_code)) != PMC_STATUS_OK)

	lea	ecx, DWORD PTR _nz_check_code$1[ebp]
	push	ecx
	mov	edx, DWORD PTR _z_bit_count$2[ebp]
	push	edx
	mov	eax, DWORD PTR _nw$[ebp]
	push	eax
	call	_AllocateNumber
	add	esp, 12					; 0000000cH
	mov	DWORD PTR _result$[ebp], eax
	cmp	DWORD PTR _result$[ebp], 0
	je	SHORT $LN10@PMC_Add_X_

; 338  :                 return (result);

	mov	eax, DWORD PTR _result$[ebp]
	jmp	SHORT $LN1@PMC_Add_X_
$LN10@PMC_Add_X_:

; 339  :             if ((result = Add_X_1W(nu->BLOCK, nu->UNIT_WORD_COUNT, v, (*nw)->BLOCK, (*nw)->BLOCK_COUNT)) != PMC_STATUS_OK)

	mov	ecx, DWORD PTR _nw$[ebp]
	mov	edx, DWORD PTR [ecx]
	mov	eax, DWORD PTR [edx+28]
	push	eax
	mov	ecx, DWORD PTR _nw$[ebp]
	mov	edx, DWORD PTR [ecx]
	mov	eax, DWORD PTR [edx+32]
	push	eax
	mov	ecx, DWORD PTR _v$[ebp]
	push	ecx
	mov	edx, DWORD PTR _nu$[ebp]
	mov	eax, DWORD PTR [edx+8]
	push	eax
	mov	ecx, DWORD PTR _nu$[ebp]
	mov	edx, DWORD PTR [ecx+32]
	push	edx
	call	_Add_X_1W
	add	esp, 20					; 00000014H
	mov	DWORD PTR _result$[ebp], eax
	cmp	DWORD PTR _result$[ebp], 0
	je	SHORT $LN11@PMC_Add_X_

; 340  :             {
; 341  :                 DeallocateNumber(*nw);

	mov	eax, DWORD PTR _nw$[ebp]
	mov	ecx, DWORD PTR [eax]
	push	ecx
	call	_DeallocateNumber
	add	esp, 4

; 342  :                 return (result);

	mov	eax, DWORD PTR _result$[ebp]
	jmp	SHORT $LN1@PMC_Add_X_
$LN11@PMC_Add_X_:

; 343  :             }
; 344  :             if ((result = CheckBlockLight((*nw)->BLOCK, nz_check_code)) != PMC_STATUS_OK)

	mov	edx, DWORD PTR _nz_check_code$1[ebp]
	push	edx
	mov	eax, DWORD PTR _nw$[ebp]
	mov	ecx, DWORD PTR [eax]
	mov	edx, DWORD PTR [ecx+32]
	push	edx
	call	_CheckBlockLight
	add	esp, 8
	mov	DWORD PTR _result$[ebp], eax
	cmp	DWORD PTR _result$[ebp], 0
	je	SHORT $LN12@PMC_Add_X_

; 345  :                 return (result);

	mov	eax, DWORD PTR _result$[ebp]
	jmp	SHORT $LN1@PMC_Add_X_
$LN12@PMC_Add_X_:

; 346  :             CommitNumber(*nw);

	mov	eax, DWORD PTR _nw$[ebp]
	mov	ecx, DWORD PTR [eax]
	push	ecx
	call	_CommitNumber
	add	esp, 4
$LN3@PMC_Add_X_:

; 347  :         }
; 348  :     }
; 349  :     return (PMC_STATUS_OK);

	xor	eax, eax
$LN1@PMC_Add_X_:

; 350  : }

	push	edx
	mov	ecx, ebp
	push	eax
	lea	edx, DWORD PTR $LN16@PMC_Add_X_
	call	@_RTC_CheckStackVars@8
	pop	eax
	pop	edx
	add	esp, 28					; 0000001cH
	cmp	ebp, esp
	call	__RTC_CheckEsp
	mov	esp, ebp
	pop	ebp
	ret	0
	npad	1
$LN16@PMC_Add_X_:
	DD	1
	DD	$LN15@PMC_Add_X_
$LN15@PMC_Add_X_:
	DD	-24					; ffffffe8H
	DD	4
	DD	$LN14@PMC_Add_X_
$LN14@PMC_Add_X_:
	DB	110					; 0000006eH
	DB	122					; 0000007aH
	DB	95					; 0000005fH
	DB	99					; 00000063H
	DB	104					; 00000068H
	DB	101					; 00000065H
	DB	99					; 00000063H
	DB	107					; 0000006bH
	DB	95					; 0000005fH
	DB	99					; 00000063H
	DB	111					; 0000006fH
	DB	100					; 00000064H
	DB	101					; 00000065H
	DB	0
_PMC_Add_X_I_Imp ENDP
_TEXT	ENDS
; Function compile flags: /Odtp /RTCsu
; File z:\sources\lunor\repos\rougemeilland\palmtree.math.core.uint\palmtree.math.core.uint\pmc_add.c
_TEXT	SEGMENT
tv158 = -40						; size = 4
tv155 = -36						; size = 4
tv152 = -32						; size = 4
_count$ = -28						; size = 4
_c$ = -21						; size = 1
_wp$ = -20						; size = 4
_vp$ = -16						; size = 4
_up$ = -12						; size = 4
_t_count$1 = -8						; size = 4
_t_buf$2 = -4						; size = 4
_u_buf$ = 8						; size = 4
_u_count$ = 12						; size = 4
_v_buf$ = 16						; size = 4
_v_count$ = 20						; size = 4
_w_buf$ = 24						; size = 4
_w_count$ = 28						; size = 4
_Add_Imp_using_ADCX PROC

; 217  : {

	push	ebp
	mov	ebp, esp
	sub	esp, 40					; 00000028H
	push	edi
	lea	edi, DWORD PTR [ebp-40]
	mov	ecx, 10					; 0000000aH
	mov	eax, -858993460				; ccccccccH
	rep stosd
	mov	ecx, OFFSET __DB5B71FB_pmc_add@c
	call	@__CheckForDebuggerJustMyCode@4

; 218  :     // x のワード長が y のワード長以上であるようにする
; 219  :     if (u_count < v_count)

	mov	eax, DWORD PTR _u_count$[ebp]
	cmp	eax, DWORD PTR _v_count$[ebp]
	jae	SHORT $LN4@Add_Imp_us

; 220  :     {
; 221  :         __UNIT_TYPE* t_buf = u_buf;

	mov	ecx, DWORD PTR _u_buf$[ebp]
	mov	DWORD PTR _t_buf$2[ebp], ecx

; 222  :         u_buf = v_buf;

	mov	edx, DWORD PTR _v_buf$[ebp]
	mov	DWORD PTR _u_buf$[ebp], edx

; 223  :         v_buf = t_buf;

	mov	eax, DWORD PTR _t_buf$2[ebp]
	mov	DWORD PTR _v_buf$[ebp], eax

; 224  :         __UNIT_TYPE t_count = u_count;

	mov	ecx, DWORD PTR _u_count$[ebp]
	mov	DWORD PTR _t_count$1[ebp], ecx

; 225  :         u_count = v_count;

	mov	edx, DWORD PTR _v_count$[ebp]
	mov	DWORD PTR _u_count$[ebp], edx

; 226  :         v_count = t_count;

	mov	eax, DWORD PTR _t_count$1[ebp]
	mov	DWORD PTR _v_count$[ebp], eax
$LN4@Add_Imp_us:

; 227  :     }
; 228  :     __UNIT_TYPE* up = u_buf;

	mov	ecx, DWORD PTR _u_buf$[ebp]
	mov	DWORD PTR _up$[ebp], ecx

; 229  :     __UNIT_TYPE* vp = v_buf;

	mov	edx, DWORD PTR _v_buf$[ebp]
	mov	DWORD PTR _vp$[ebp], edx

; 230  :     __UNIT_TYPE* wp = w_buf;

	mov	eax, DWORD PTR _w_buf$[ebp]
	mov	DWORD PTR _wp$[ebp], eax

; 231  :     char c = 0;

	mov	BYTE PTR _c$[ebp], 0

; 232  : 
; 233  :     // まず 32 ワードずつ加算をする。
; 234  :     __UNIT_TYPE count = v_count >> 5;

	mov	ecx, DWORD PTR _v_count$[ebp]
	shr	ecx, 5
	mov	DWORD PTR _count$[ebp], ecx
$LN2@Add_Imp_us:

; 235  :     while (count != 0)

	cmp	DWORD PTR _count$[ebp], 0
	je	SHORT $LN3@Add_Imp_us

; 236  :     {
; 237  :         c = _ADD_32WORDS_ADCX(c, up, vp, wp);

	mov	edx, DWORD PTR _wp$[ebp]
	push	edx
	mov	eax, DWORD PTR _vp$[ebp]
	push	eax
	mov	ecx, DWORD PTR _up$[ebp]
	push	ecx
	movzx	edx, BYTE PTR _c$[ebp]
	push	edx
	call	__ADD_32WORDS_ADCX
	add	esp, 16					; 00000010H
	mov	BYTE PTR _c$[ebp], al

; 238  :         up += 32;

	mov	eax, DWORD PTR _up$[ebp]
	add	eax, 128				; 00000080H
	mov	DWORD PTR _up$[ebp], eax

; 239  :         vp += 32;

	mov	ecx, DWORD PTR _vp$[ebp]
	add	ecx, 128				; 00000080H
	mov	DWORD PTR _vp$[ebp], ecx

; 240  :         wp += 32;

	mov	edx, DWORD PTR _wp$[ebp]
	add	edx, 128				; 00000080H
	mov	DWORD PTR _wp$[ebp], edx

; 241  :         --count;

	mov	eax, DWORD PTR _count$[ebp]
	sub	eax, 1
	mov	DWORD PTR _count$[ebp], eax

; 242  :     }

	jmp	SHORT $LN2@Add_Imp_us
$LN3@Add_Imp_us:

; 243  :     // この時点で未処理の桁は 32 ワード未満のはず
; 244  : 
; 245  :     // 未処理の桁が 16 ワード以上あるなら 16 ワード加算を行う。
; 246  :     if (v_count & 0x10)

	mov	ecx, DWORD PTR _v_count$[ebp]
	and	ecx, 16					; 00000010H
	je	SHORT $LN5@Add_Imp_us

; 247  :     {
; 248  :         c = _ADD_16WORDS_ADCX(c, up, vp, wp);

	mov	edx, DWORD PTR _wp$[ebp]
	push	edx
	mov	eax, DWORD PTR _vp$[ebp]
	push	eax
	mov	ecx, DWORD PTR _up$[ebp]
	push	ecx
	movzx	edx, BYTE PTR _c$[ebp]
	push	edx
	call	__ADD_16WORDS_ADCX
	add	esp, 16					; 00000010H
	mov	BYTE PTR _c$[ebp], al

; 249  :         up += 16;

	mov	eax, DWORD PTR _up$[ebp]
	add	eax, 64					; 00000040H
	mov	DWORD PTR _up$[ebp], eax

; 250  :         vp += 16;

	mov	ecx, DWORD PTR _vp$[ebp]
	add	ecx, 64					; 00000040H
	mov	DWORD PTR _vp$[ebp], ecx

; 251  :         wp += 16;

	mov	edx, DWORD PTR _wp$[ebp]
	add	edx, 64					; 00000040H
	mov	DWORD PTR _wp$[ebp], edx
$LN5@Add_Imp_us:

; 252  :     }
; 253  :     // この時点で未処理の桁は 16 ワード未満のはず
; 254  : 
; 255  :     // 未処理の桁が 8 ワード以上あるなら 8 ワード加算を行う。
; 256  :     if (v_count & 0x8)

	mov	eax, DWORD PTR _v_count$[ebp]
	and	eax, 8
	je	SHORT $LN6@Add_Imp_us

; 257  :     {
; 258  :         c = _ADD_8WORDS_ADCX(c, up, vp, wp);

	mov	ecx, DWORD PTR _wp$[ebp]
	push	ecx
	mov	edx, DWORD PTR _vp$[ebp]
	push	edx
	mov	eax, DWORD PTR _up$[ebp]
	push	eax
	movzx	ecx, BYTE PTR _c$[ebp]
	push	ecx
	call	__ADD_8WORDS_ADCX
	add	esp, 16					; 00000010H
	mov	BYTE PTR _c$[ebp], al

; 259  :         up += 8;

	mov	edx, DWORD PTR _up$[ebp]
	add	edx, 32					; 00000020H
	mov	DWORD PTR _up$[ebp], edx

; 260  :         vp += 8;

	mov	eax, DWORD PTR _vp$[ebp]
	add	eax, 32					; 00000020H
	mov	DWORD PTR _vp$[ebp], eax

; 261  :         wp += 8;

	mov	ecx, DWORD PTR _wp$[ebp]
	add	ecx, 32					; 00000020H
	mov	DWORD PTR _wp$[ebp], ecx
$LN6@Add_Imp_us:

; 262  :     }
; 263  :     // この時点で未処理の桁は 8 ワード未満のはず
; 264  : 
; 265  :     // 未処理の桁が 4 ワード以上あるなら 4 ワード加算を行う。
; 266  :     if (v_count & 0x4)

	mov	edx, DWORD PTR _v_count$[ebp]
	and	edx, 4
	je	SHORT $LN7@Add_Imp_us

; 267  :     {
; 268  :         c = _ADD_4WORDS_ADCX(c, up, vp, wp);

	mov	eax, DWORD PTR _wp$[ebp]
	push	eax
	mov	ecx, DWORD PTR _vp$[ebp]
	push	ecx
	mov	edx, DWORD PTR _up$[ebp]
	push	edx
	movzx	eax, BYTE PTR _c$[ebp]
	push	eax
	call	__ADD_4WORDS_ADCX
	add	esp, 16					; 00000010H
	mov	BYTE PTR _c$[ebp], al

; 269  :         up += 4;

	mov	ecx, DWORD PTR _up$[ebp]
	add	ecx, 16					; 00000010H
	mov	DWORD PTR _up$[ebp], ecx

; 270  :         vp += 4;

	mov	edx, DWORD PTR _vp$[ebp]
	add	edx, 16					; 00000010H
	mov	DWORD PTR _vp$[ebp], edx

; 271  :         wp += 4;

	mov	eax, DWORD PTR _wp$[ebp]
	add	eax, 16					; 00000010H
	mov	DWORD PTR _wp$[ebp], eax
$LN7@Add_Imp_us:

; 272  :     }
; 273  :     // この時点で未処理の桁は 4 ワード未満のはず
; 274  : 
; 275  :     // 未処理の桁が 2 ワード以上あるなら 2 ワード加算を行う。
; 276  :     if (v_count & 0x2)

	mov	ecx, DWORD PTR _v_count$[ebp]
	and	ecx, 2
	je	SHORT $LN8@Add_Imp_us

; 277  :     {
; 278  :         c = _ADD_2WORDS_ADCX(c, up, vp, wp);

	mov	edx, DWORD PTR _wp$[ebp]
	push	edx
	mov	eax, DWORD PTR _vp$[ebp]
	push	eax
	mov	ecx, DWORD PTR _up$[ebp]
	push	ecx
	movzx	edx, BYTE PTR _c$[ebp]
	push	edx
	call	__ADD_2WORDS_ADCX
	add	esp, 16					; 00000010H
	mov	BYTE PTR _c$[ebp], al

; 279  :         up += 2;

	mov	eax, DWORD PTR _up$[ebp]
	add	eax, 8
	mov	DWORD PTR _up$[ebp], eax

; 280  :         vp += 2;

	mov	ecx, DWORD PTR _vp$[ebp]
	add	ecx, 8
	mov	DWORD PTR _vp$[ebp], ecx

; 281  :         wp += 2;

	mov	edx, DWORD PTR _wp$[ebp]
	add	edx, 8
	mov	DWORD PTR _wp$[ebp], edx
$LN8@Add_Imp_us:

; 282  :     }
; 283  :     // この時点で未処理の桁は 2 ワード未満のはず
; 284  : 
; 285  :     // 未処理の桁が 1 ワード以上あるなら 1 ワード加算を行う。
; 286  :     if (v_count & 0x1)

	mov	eax, DWORD PTR _v_count$[ebp]
	and	eax, 1
	je	SHORT $LN9@Add_Imp_us

; 287  :         c = _ADDX_UNIT(c, *up++, *vp++, wp++);

	mov	ecx, DWORD PTR _wp$[ebp]
	mov	DWORD PTR tv152[ebp], ecx
	mov	edx, DWORD PTR _wp$[ebp]
	add	edx, 4
	mov	DWORD PTR _wp$[ebp], edx
	mov	eax, DWORD PTR _vp$[ebp]
	mov	ecx, DWORD PTR [eax]
	mov	DWORD PTR tv155[ebp], ecx
	mov	edx, DWORD PTR _vp$[ebp]
	add	edx, 4
	mov	DWORD PTR _vp$[ebp], edx
	mov	eax, DWORD PTR _up$[ebp]
	mov	ecx, DWORD PTR [eax]
	mov	DWORD PTR tv158[ebp], ecx
	mov	edx, DWORD PTR _up$[ebp]
	add	edx, 4
	mov	DWORD PTR _up$[ebp], edx
	mov	eax, DWORD PTR tv152[ebp]
	push	eax
	mov	ecx, DWORD PTR tv155[ebp]
	push	ecx
	mov	edx, DWORD PTR tv158[ebp]
	push	edx
	movzx	eax, BYTE PTR _c$[ebp]
	push	eax
	call	__ADDX_UNIT
	add	esp, 16					; 00000010H
	mov	BYTE PTR _c$[ebp], al
$LN9@Add_Imp_us:

; 288  : 
; 289  :     // 残りの桁の繰り上がりを計算し、復帰する。
; 290  :     return (DoCarry(c, up, u_count - v_count, wp, w_count - v_count));

	mov	ecx, DWORD PTR _w_count$[ebp]
	sub	ecx, DWORD PTR _v_count$[ebp]
	push	ecx
	mov	edx, DWORD PTR _wp$[ebp]
	push	edx
	mov	eax, DWORD PTR _u_count$[ebp]
	sub	eax, DWORD PTR _v_count$[ebp]
	push	eax
	mov	ecx, DWORD PTR _up$[ebp]
	push	ecx
	movzx	edx, BYTE PTR _c$[ebp]
	push	edx
	call	_DoCarry
	add	esp, 20					; 00000014H

; 291  : }

	pop	edi
	add	esp, 40					; 00000028H
	cmp	ebp, esp
	call	__RTC_CheckEsp
	mov	esp, ebp
	pop	ebp
	ret	0
_Add_Imp_using_ADCX ENDP
_TEXT	ENDS
; Function compile flags: /Odtp /RTCsu
; File z:\sources\lunor\repos\rougemeilland\palmtree.math.core.uint\palmtree.math.core.uint\pmc_add.c
_TEXT	SEGMENT
tv158 = -40						; size = 4
tv155 = -36						; size = 4
tv152 = -32						; size = 4
_count$ = -28						; size = 4
_c$ = -21						; size = 1
_wp$ = -20						; size = 4
_vp$ = -16						; size = 4
_up$ = -12						; size = 4
_t_count$1 = -8						; size = 4
_t_buf$2 = -4						; size = 4
_u_buf$ = 8						; size = 4
_u_count$ = 12						; size = 4
_v_buf$ = 16						; size = 4
_v_count$ = 20						; size = 4
_w_buf$ = 24						; size = 4
_w_count$ = 28						; size = 4
_Add_Imp_using_ADC PROC

; 140  : {

	push	ebp
	mov	ebp, esp
	sub	esp, 40					; 00000028H
	push	edi
	lea	edi, DWORD PTR [ebp-40]
	mov	ecx, 10					; 0000000aH
	mov	eax, -858993460				; ccccccccH
	rep stosd
	mov	ecx, OFFSET __DB5B71FB_pmc_add@c
	call	@__CheckForDebuggerJustMyCode@4

; 141  :     // x のワード長が y のワード長以上であるようにする
; 142  :     if (u_count < v_count)

	mov	eax, DWORD PTR _u_count$[ebp]
	cmp	eax, DWORD PTR _v_count$[ebp]
	jae	SHORT $LN4@Add_Imp_us

; 143  :     {
; 144  :         __UNIT_TYPE* t_buf = u_buf;

	mov	ecx, DWORD PTR _u_buf$[ebp]
	mov	DWORD PTR _t_buf$2[ebp], ecx

; 145  :         u_buf = v_buf;

	mov	edx, DWORD PTR _v_buf$[ebp]
	mov	DWORD PTR _u_buf$[ebp], edx

; 146  :         v_buf = t_buf;

	mov	eax, DWORD PTR _t_buf$2[ebp]
	mov	DWORD PTR _v_buf$[ebp], eax

; 147  :         __UNIT_TYPE t_count = u_count;

	mov	ecx, DWORD PTR _u_count$[ebp]
	mov	DWORD PTR _t_count$1[ebp], ecx

; 148  :         u_count = v_count;

	mov	edx, DWORD PTR _v_count$[ebp]
	mov	DWORD PTR _u_count$[ebp], edx

; 149  :         v_count = t_count;

	mov	eax, DWORD PTR _t_count$1[ebp]
	mov	DWORD PTR _v_count$[ebp], eax
$LN4@Add_Imp_us:

; 150  :     }
; 151  :     __UNIT_TYPE* up = u_buf;

	mov	ecx, DWORD PTR _u_buf$[ebp]
	mov	DWORD PTR _up$[ebp], ecx

; 152  :     __UNIT_TYPE* vp = v_buf;

	mov	edx, DWORD PTR _v_buf$[ebp]
	mov	DWORD PTR _vp$[ebp], edx

; 153  :     __UNIT_TYPE* wp = w_buf;

	mov	eax, DWORD PTR _w_buf$[ebp]
	mov	DWORD PTR _wp$[ebp], eax

; 154  :     char c = 0;

	mov	BYTE PTR _c$[ebp], 0

; 155  : 
; 156  :     // まず 32 ワードずつ加算をする。
; 157  :     __UNIT_TYPE count = v_count >> 5;

	mov	ecx, DWORD PTR _v_count$[ebp]
	shr	ecx, 5
	mov	DWORD PTR _count$[ebp], ecx
$LN2@Add_Imp_us:

; 158  :     while (count != 0)

	cmp	DWORD PTR _count$[ebp], 0
	je	SHORT $LN3@Add_Imp_us

; 159  :     {
; 160  :         c = _ADD_32WORDS_ADC(c, up, vp, wp);

	mov	edx, DWORD PTR _wp$[ebp]
	push	edx
	mov	eax, DWORD PTR _vp$[ebp]
	push	eax
	mov	ecx, DWORD PTR _up$[ebp]
	push	ecx
	movzx	edx, BYTE PTR _c$[ebp]
	push	edx
	call	__ADD_32WORDS_ADC
	add	esp, 16					; 00000010H
	mov	BYTE PTR _c$[ebp], al

; 161  :         up += 32;

	mov	eax, DWORD PTR _up$[ebp]
	add	eax, 128				; 00000080H
	mov	DWORD PTR _up$[ebp], eax

; 162  :         vp += 32;

	mov	ecx, DWORD PTR _vp$[ebp]
	add	ecx, 128				; 00000080H
	mov	DWORD PTR _vp$[ebp], ecx

; 163  :         wp += 32;

	mov	edx, DWORD PTR _wp$[ebp]
	add	edx, 128				; 00000080H
	mov	DWORD PTR _wp$[ebp], edx

; 164  :         --count;

	mov	eax, DWORD PTR _count$[ebp]
	sub	eax, 1
	mov	DWORD PTR _count$[ebp], eax

; 165  :     }

	jmp	SHORT $LN2@Add_Imp_us
$LN3@Add_Imp_us:

; 166  :     // この時点で未処理の桁は 32 ワード未満のはず
; 167  : 
; 168  :     // 未処理の桁が 16 ワード以上あるなら 16 ワード加算を行う。
; 169  :     if (v_count & 0x10)

	mov	ecx, DWORD PTR _v_count$[ebp]
	and	ecx, 16					; 00000010H
	je	SHORT $LN5@Add_Imp_us

; 170  :     {
; 171  :         c = _ADD_16WORDS_ADC(c, up, vp, wp);

	mov	edx, DWORD PTR _wp$[ebp]
	push	edx
	mov	eax, DWORD PTR _vp$[ebp]
	push	eax
	mov	ecx, DWORD PTR _up$[ebp]
	push	ecx
	movzx	edx, BYTE PTR _c$[ebp]
	push	edx
	call	__ADD_16WORDS_ADC
	add	esp, 16					; 00000010H
	mov	BYTE PTR _c$[ebp], al

; 172  :         up += 16;

	mov	eax, DWORD PTR _up$[ebp]
	add	eax, 64					; 00000040H
	mov	DWORD PTR _up$[ebp], eax

; 173  :         vp += 16;

	mov	ecx, DWORD PTR _vp$[ebp]
	add	ecx, 64					; 00000040H
	mov	DWORD PTR _vp$[ebp], ecx

; 174  :         wp += 16;

	mov	edx, DWORD PTR _wp$[ebp]
	add	edx, 64					; 00000040H
	mov	DWORD PTR _wp$[ebp], edx
$LN5@Add_Imp_us:

; 175  :     }
; 176  :     // この時点で未処理の桁は 16 ワード未満のはず
; 177  : 
; 178  :     // 未処理の桁が 8 ワード以上あるなら 8 ワード加算を行う。
; 179  :     if (v_count & 0x8)

	mov	eax, DWORD PTR _v_count$[ebp]
	and	eax, 8
	je	SHORT $LN6@Add_Imp_us

; 180  :     {
; 181  :         c = _ADD_8WORDS_ADC(c, up, vp, wp);

	mov	ecx, DWORD PTR _wp$[ebp]
	push	ecx
	mov	edx, DWORD PTR _vp$[ebp]
	push	edx
	mov	eax, DWORD PTR _up$[ebp]
	push	eax
	movzx	ecx, BYTE PTR _c$[ebp]
	push	ecx
	call	__ADD_8WORDS_ADC
	add	esp, 16					; 00000010H
	mov	BYTE PTR _c$[ebp], al

; 182  :         up += 8;

	mov	edx, DWORD PTR _up$[ebp]
	add	edx, 32					; 00000020H
	mov	DWORD PTR _up$[ebp], edx

; 183  :         vp += 8;

	mov	eax, DWORD PTR _vp$[ebp]
	add	eax, 32					; 00000020H
	mov	DWORD PTR _vp$[ebp], eax

; 184  :         wp += 8;

	mov	ecx, DWORD PTR _wp$[ebp]
	add	ecx, 32					; 00000020H
	mov	DWORD PTR _wp$[ebp], ecx
$LN6@Add_Imp_us:

; 185  :     }
; 186  :     // この時点で未処理の桁は 8 ワード未満のはず
; 187  : 
; 188  :     // 未処理の桁が 4 ワード以上あるなら 4 ワード加算を行う。
; 189  :     if (v_count & 0x4)

	mov	edx, DWORD PTR _v_count$[ebp]
	and	edx, 4
	je	SHORT $LN7@Add_Imp_us

; 190  :     {
; 191  :         c = _ADD_4WORDS_ADC(c, up, vp, wp);

	mov	eax, DWORD PTR _wp$[ebp]
	push	eax
	mov	ecx, DWORD PTR _vp$[ebp]
	push	ecx
	mov	edx, DWORD PTR _up$[ebp]
	push	edx
	movzx	eax, BYTE PTR _c$[ebp]
	push	eax
	call	__ADD_4WORDS_ADC
	add	esp, 16					; 00000010H
	mov	BYTE PTR _c$[ebp], al

; 192  :         up += 4;

	mov	ecx, DWORD PTR _up$[ebp]
	add	ecx, 16					; 00000010H
	mov	DWORD PTR _up$[ebp], ecx

; 193  :         vp += 4;

	mov	edx, DWORD PTR _vp$[ebp]
	add	edx, 16					; 00000010H
	mov	DWORD PTR _vp$[ebp], edx

; 194  :         wp += 4;

	mov	eax, DWORD PTR _wp$[ebp]
	add	eax, 16					; 00000010H
	mov	DWORD PTR _wp$[ebp], eax
$LN7@Add_Imp_us:

; 195  :     }
; 196  :     // この時点で未処理の桁は 4 ワード未満のはず
; 197  : 
; 198  :     // 未処理の桁が 2 ワード以上あるなら 2 ワード加算を行う。
; 199  :     if (v_count & 0x2)

	mov	ecx, DWORD PTR _v_count$[ebp]
	and	ecx, 2
	je	SHORT $LN8@Add_Imp_us

; 200  :     {
; 201  :         c = _ADD_2WORDS_ADC(c, up, vp, wp);

	mov	edx, DWORD PTR _wp$[ebp]
	push	edx
	mov	eax, DWORD PTR _vp$[ebp]
	push	eax
	mov	ecx, DWORD PTR _up$[ebp]
	push	ecx
	movzx	edx, BYTE PTR _c$[ebp]
	push	edx
	call	__ADD_2WORDS_ADC
	add	esp, 16					; 00000010H
	mov	BYTE PTR _c$[ebp], al

; 202  :         up += 2;

	mov	eax, DWORD PTR _up$[ebp]
	add	eax, 8
	mov	DWORD PTR _up$[ebp], eax

; 203  :         vp += 2;

	mov	ecx, DWORD PTR _vp$[ebp]
	add	ecx, 8
	mov	DWORD PTR _vp$[ebp], ecx

; 204  :         wp += 2;

	mov	edx, DWORD PTR _wp$[ebp]
	add	edx, 8
	mov	DWORD PTR _wp$[ebp], edx
$LN8@Add_Imp_us:

; 205  :     }
; 206  :     // この時点で未処理の桁は 2 ワード未満のはず
; 207  : 
; 208  :     // 未処理の桁が 1 ワード以上あるなら 1 ワード加算を行う。
; 209  :     if (v_count & 0x1)

	mov	eax, DWORD PTR _v_count$[ebp]
	and	eax, 1
	je	SHORT $LN9@Add_Imp_us

; 210  :         c = _ADD_UNIT(c, *up++, *vp++, wp++);

	mov	ecx, DWORD PTR _wp$[ebp]
	mov	DWORD PTR tv152[ebp], ecx
	mov	edx, DWORD PTR _wp$[ebp]
	add	edx, 4
	mov	DWORD PTR _wp$[ebp], edx
	mov	eax, DWORD PTR _vp$[ebp]
	mov	ecx, DWORD PTR [eax]
	mov	DWORD PTR tv155[ebp], ecx
	mov	edx, DWORD PTR _vp$[ebp]
	add	edx, 4
	mov	DWORD PTR _vp$[ebp], edx
	mov	eax, DWORD PTR _up$[ebp]
	mov	ecx, DWORD PTR [eax]
	mov	DWORD PTR tv158[ebp], ecx
	mov	edx, DWORD PTR _up$[ebp]
	add	edx, 4
	mov	DWORD PTR _up$[ebp], edx
	mov	eax, DWORD PTR tv152[ebp]
	push	eax
	mov	ecx, DWORD PTR tv155[ebp]
	push	ecx
	mov	edx, DWORD PTR tv158[ebp]
	push	edx
	movzx	eax, BYTE PTR _c$[ebp]
	push	eax
	call	__ADD_UNIT
	add	esp, 16					; 00000010H
	mov	BYTE PTR _c$[ebp], al
$LN9@Add_Imp_us:

; 211  : 
; 212  :     // 残りの桁の繰り上がりを計算し、復帰する。
; 213  :     return (DoCarry(c, up, u_count - v_count, wp, w_count - v_count));

	mov	ecx, DWORD PTR _w_count$[ebp]
	sub	ecx, DWORD PTR _v_count$[ebp]
	push	ecx
	mov	edx, DWORD PTR _wp$[ebp]
	push	edx
	mov	eax, DWORD PTR _u_count$[ebp]
	sub	eax, DWORD PTR _v_count$[ebp]
	push	eax
	mov	ecx, DWORD PTR _up$[ebp]
	push	ecx
	movzx	edx, BYTE PTR _c$[ebp]
	push	edx
	call	_DoCarry
	add	esp, 20					; 00000014H

; 214  : }

	pop	edi
	add	esp, 40					; 00000028H
	cmp	ebp, esp
	call	__RTC_CheckEsp
	mov	esp, ebp
	pop	ebp
	ret	0
_Add_Imp_using_ADC ENDP
_TEXT	ENDS
; Function compile flags: /Odtp /RTCsu
; File z:\sources\lunor\repos\rougemeilland\palmtree.math.core.uint\palmtree.math.core.uint\pmc_add.c
_TEXT	SEGMENT
tv132 = -28						; size = 4
tv128 = -24						; size = 4
tv91 = -20						; size = 4
tv87 = -16						; size = 4
_c$ = -9						; size = 1
_wp$ = -8						; size = 4
_up$ = -4						; size = 4
_u_buf$ = 8						; size = 4
_u_count$ = 12						; size = 4
_v_hi$ = 16						; size = 4
_v_lo$ = 20						; size = 4
_w_buf$ = 24						; size = 4
_w_count$ = 28						; size = 4
_Add_X_2W PROC

; 99   : {

	push	ebp
	mov	ebp, esp
	sub	esp, 28					; 0000001cH
	mov	eax, -858993460				; ccccccccH
	mov	DWORD PTR [ebp-28], eax
	mov	DWORD PTR [ebp-24], eax
	mov	DWORD PTR [ebp-20], eax
	mov	DWORD PTR [ebp-16], eax
	mov	DWORD PTR [ebp-12], eax
	mov	DWORD PTR [ebp-8], eax
	mov	DWORD PTR [ebp-4], eax
	mov	ecx, OFFSET __DB5B71FB_pmc_add@c
	call	@__CheckForDebuggerJustMyCode@4

; 100  :     __UNIT_TYPE* up = u_buf;

	mov	eax, DWORD PTR _u_buf$[ebp]
	mov	DWORD PTR _up$[ebp], eax

; 101  :     __UNIT_TYPE* wp = w_buf;

	mov	ecx, DWORD PTR _w_buf$[ebp]
	mov	DWORD PTR _wp$[ebp], ecx

; 102  :     char c;
; 103  : 
; 104  :     if (u_count < 2)

	cmp	DWORD PTR _u_count$[ebp], 2
	jae	SHORT $LN2@Add_X_2W

; 105  :     {
; 106  :         // x が 1 ワードしかなかった場合
; 107  : 
; 108  :         // 最下位ワードの加算を行う
; 109  :         c = _ADD_UNIT(0, up[0], v_lo, &wp[0]);

	mov	edx, 4
	imul	eax, edx, 0
	add	eax, DWORD PTR _wp$[ebp]
	push	eax
	mov	ecx, DWORD PTR _v_lo$[ebp]
	push	ecx
	mov	edx, 4
	imul	eax, edx, 0
	mov	ecx, DWORD PTR _up$[ebp]
	mov	edx, DWORD PTR [ecx+eax]
	push	edx
	push	0
	call	__ADD_UNIT
	add	esp, 16					; 00000010H
	mov	BYTE PTR _c$[ebp], al

; 110  : 
; 111  :         // 最下位から 2 番目のワードの加算を行う
; 112  :         c = _ADD_UNIT(c, 0, v_hi, &wp[1]);

	mov	eax, 4
	shl	eax, 0
	add	eax, DWORD PTR _wp$[ebp]
	push	eax
	mov	ecx, DWORD PTR _v_hi$[ebp]
	push	ecx
	push	0
	movzx	edx, BYTE PTR _c$[ebp]
	push	edx
	call	__ADD_UNIT
	add	esp, 16					; 00000010H
	mov	BYTE PTR _c$[ebp], al

; 113  : 
; 114  :         // 桁上りが発生したら 3 番目のワードに 1 を設定する。
; 115  :         if (c)

	movsx	eax, BYTE PTR _c$[ebp]
	test	eax, eax
	je	SHORT $LN4@Add_X_2W

; 116  :             wp[2] = 1;

	mov	ecx, 4
	shl	ecx, 1
	mov	edx, DWORD PTR _wp$[ebp]
	mov	DWORD PTR [edx+ecx], 1
$LN4@Add_X_2W:

; 117  : 
; 118  :         // 正常復帰する。
; 119  :         return (PMC_STATUS_OK);

	xor	eax, eax
	jmp	$LN1@Add_X_2W

; 120  :     }

	jmp	$LN1@Add_X_2W
$LN2@Add_X_2W:

; 121  :     else
; 122  :     {
; 123  :         // x が 2 ワード以上あった場合
; 124  : 
; 125  :         // 最下位のワードの加算をする
; 126  :         c = _ADD_UNIT(0, *up++, v_lo, wp++);

	mov	eax, DWORD PTR _wp$[ebp]
	mov	DWORD PTR tv87[ebp], eax
	mov	ecx, DWORD PTR _wp$[ebp]
	add	ecx, 4
	mov	DWORD PTR _wp$[ebp], ecx
	mov	edx, DWORD PTR _up$[ebp]
	mov	eax, DWORD PTR [edx]
	mov	DWORD PTR tv91[ebp], eax
	mov	ecx, DWORD PTR _up$[ebp]
	add	ecx, 4
	mov	DWORD PTR _up$[ebp], ecx
	mov	edx, DWORD PTR tv87[ebp]
	push	edx
	mov	eax, DWORD PTR _v_lo$[ebp]
	push	eax
	mov	ecx, DWORD PTR tv91[ebp]
	push	ecx
	push	0
	call	__ADD_UNIT
	add	esp, 16					; 00000010H
	mov	BYTE PTR _c$[ebp], al

; 127  : 
; 128  :         // 最下位から 2 番目のワードの加算をする。
; 129  :         c = _ADD_UNIT(c, *up++, v_hi, wp++);

	mov	edx, DWORD PTR _wp$[ebp]
	mov	DWORD PTR tv128[ebp], edx
	mov	eax, DWORD PTR _wp$[ebp]
	add	eax, 4
	mov	DWORD PTR _wp$[ebp], eax
	mov	ecx, DWORD PTR _up$[ebp]
	mov	edx, DWORD PTR [ecx]
	mov	DWORD PTR tv132[ebp], edx
	mov	eax, DWORD PTR _up$[ebp]
	add	eax, 4
	mov	DWORD PTR _up$[ebp], eax
	mov	ecx, DWORD PTR tv128[ebp]
	push	ecx
	mov	edx, DWORD PTR _v_hi$[ebp]
	push	edx
	mov	eax, DWORD PTR tv132[ebp]
	push	eax
	movzx	ecx, BYTE PTR _c$[ebp]
	push	ecx
	call	__ADD_UNIT
	add	esp, 16					; 00000010H
	mov	BYTE PTR _c$[ebp], al

; 130  :         u_count -= 2;

	mov	edx, DWORD PTR _u_count$[ebp]
	sub	edx, 2
	mov	DWORD PTR _u_count$[ebp], edx

; 131  :         w_count -= 2;

	mov	eax, DWORD PTR _w_count$[ebp]
	sub	eax, 2
	mov	DWORD PTR _w_count$[ebp], eax

; 132  : 
; 133  :         // 残りの桁の繰り上がりを計算し、復帰する。
; 134  :         return (DoCarry(c, up, u_count, wp, w_count));

	mov	ecx, DWORD PTR _w_count$[ebp]
	push	ecx
	mov	edx, DWORD PTR _wp$[ebp]
	push	edx
	mov	eax, DWORD PTR _u_count$[ebp]
	push	eax
	mov	ecx, DWORD PTR _up$[ebp]
	push	ecx
	movzx	edx, BYTE PTR _c$[ebp]
	push	edx
	call	_DoCarry
	add	esp, 20					; 00000014H
$LN1@Add_X_2W:

; 135  :     }
; 136  : }

	add	esp, 28					; 0000001cH
	cmp	ebp, esp
	call	__RTC_CheckEsp
	mov	esp, ebp
	pop	ebp
	ret	0
_Add_X_2W ENDP
_TEXT	ENDS
; Function compile flags: /Odtp /RTCsu
; File z:\sources\lunor\repos\rougemeilland\palmtree.math.core.uint\palmtree.math.core.uint\pmc_add.c
_TEXT	SEGMENT
tv70 = -12						; size = 4
tv66 = -8						; size = 4
_c$ = -1						; size = 1
_u_ptr$ = 8						; size = 4
_u_count$ = 12						; size = 4
_v$ = 16						; size = 4
_w_ptr$ = 20						; size = 4
_w_count$ = 24						; size = 4
_Add_X_1W PROC

; 86   : {

	push	ebp
	mov	ebp, esp
	sub	esp, 12					; 0000000cH
	mov	DWORD PTR [ebp-12], -858993460		; ccccccccH
	mov	DWORD PTR [ebp-8], -858993460		; ccccccccH
	mov	DWORD PTR [ebp-4], -858993460		; ccccccccH
	mov	ecx, OFFSET __DB5B71FB_pmc_add@c
	call	@__CheckForDebuggerJustMyCode@4

; 87   :     char c;
; 88   : 
; 89   :     // 最下桁の加算を行う
; 90   :     c = _ADD_UNIT(0, *u_ptr++, v, w_ptr++);

	mov	eax, DWORD PTR _w_ptr$[ebp]
	mov	DWORD PTR tv66[ebp], eax
	mov	ecx, DWORD PTR _w_ptr$[ebp]
	add	ecx, 4
	mov	DWORD PTR _w_ptr$[ebp], ecx
	mov	edx, DWORD PTR _u_ptr$[ebp]
	mov	eax, DWORD PTR [edx]
	mov	DWORD PTR tv70[ebp], eax
	mov	ecx, DWORD PTR _u_ptr$[ebp]
	add	ecx, 4
	mov	DWORD PTR _u_ptr$[ebp], ecx
	mov	edx, DWORD PTR tv66[ebp]
	push	edx
	mov	eax, DWORD PTR _v$[ebp]
	push	eax
	mov	ecx, DWORD PTR tv70[ebp]
	push	ecx
	push	0
	call	__ADD_UNIT
	add	esp, 16					; 00000010H
	mov	BYTE PTR _c$[ebp], al

; 91   :     --u_count;

	mov	edx, DWORD PTR _u_count$[ebp]
	sub	edx, 1
	mov	DWORD PTR _u_count$[ebp], edx

; 92   :     --w_count;

	mov	eax, DWORD PTR _w_count$[ebp]
	sub	eax, 1
	mov	DWORD PTR _w_count$[ebp], eax

; 93   : 
; 94   :     // 残りの桁の繰上りを行い復帰する。
; 95   :     return (DoCarry(c, u_ptr, u_count, w_ptr, w_count));

	mov	ecx, DWORD PTR _w_count$[ebp]
	push	ecx
	mov	edx, DWORD PTR _w_ptr$[ebp]
	push	edx
	mov	eax, DWORD PTR _u_count$[ebp]
	push	eax
	mov	ecx, DWORD PTR _u_ptr$[ebp]
	push	ecx
	movzx	edx, BYTE PTR _c$[ebp]
	push	edx
	call	_DoCarry
	add	esp, 20					; 00000014H

; 96   : }

	add	esp, 12					; 0000000cH
	cmp	ebp, esp
	call	__RTC_CheckEsp
	mov	esp, ebp
	pop	ebp
	ret	0
_Add_X_1W ENDP
_TEXT	ENDS
; Function compile flags: /Odtp /RTCsu
; File z:\sources\lunor\repos\rougemeilland\palmtree.math.core.uint\palmtree.math.core.uint\pmc_add.c
_TEXT	SEGMENT
tv76 = -8						; size = 4
tv72 = -4						; size = 4
_c$ = 8							; size = 1
_u_ptr$ = 12						; size = 4
_u_count$ = 16						; size = 4
_w_ptr$ = 20						; size = 4
_w_count$ = 24						; size = 4
_DoCarry PROC

; 34   : {

	push	ebp
	mov	ebp, esp
	sub	esp, 8
	mov	DWORD PTR [ebp-8], -858993460		; ccccccccH
	mov	DWORD PTR [ebp-4], -858993460		; ccccccccH
	mov	ecx, OFFSET __DB5B71FB_pmc_add@c
	call	@__CheckForDebuggerJustMyCode@4
$LN4@DoCarry:

; 35   :     // 繰り上がりを続く限り行う
; 36   :     for (;;)
; 37   :     {
; 38   :         if (u_count <= 0)

	cmp	DWORD PTR _u_count$[ebp], 0
	ja	SHORT $LN7@DoCarry

; 39   :         {
; 40   :             // u の最上位まで達してしまった場合
; 41   : 
; 42   :             if (c)

	movsx	eax, BYTE PTR _c$[ebp]
	test	eax, eax
	je	SHORT $LN9@DoCarry

; 43   :             {
; 44   :                 // かつそれでも繰り上がりを行う必要がある場合
; 45   :                 if (w_count <= 0)

	cmp	DWORD PTR _w_count$[ebp], 0
	ja	SHORT $LN10@DoCarry

; 46   :                 {
; 47   :                     // しかし w がもう終端に達してしまった場合
; 48   : 
; 49   :                     // w のバッファはこの余裕を見込んでいるのでこのルートには到達しないはず。
; 50   :                     return (PMC_STATUS_INTERNAL_ERROR);

	mov	eax, -256				; ffffff00H
	jmp	$LN1@DoCarry
$LN10@DoCarry:

; 51   :                 }
; 52   :                 *w_ptr = 1;

	mov	ecx, DWORD PTR _w_ptr$[ebp]
	mov	DWORD PTR [ecx], 1
$LN9@DoCarry:

; 53   :             }
; 54   : 
; 55   :             // u の最上位に達してしまった場合はいずれにしろループを中断して正常復帰する。
; 56   : 
; 57   :             return (PMC_STATUS_OK);

	xor	eax, eax
	jmp	$LN1@DoCarry

; 58   :         }

	jmp	$LN8@DoCarry
$LN7@DoCarry:

; 59   :         else if (c)

	movsx	edx, BYTE PTR _c$[ebp]
	test	edx, edx
	je	SHORT $LN5@DoCarry

; 60   :         {
; 61   :             // u の最上位に達しておらず、かつキャリーが立っている場合
; 62   : 
; 63   :             // 繰り上がりを継続する
; 64   :             c = _ADD_UNIT(c, *u_ptr++, 0, w_ptr++);

	mov	eax, DWORD PTR _w_ptr$[ebp]
	mov	DWORD PTR tv72[ebp], eax
	mov	ecx, DWORD PTR _w_ptr$[ebp]
	add	ecx, 4
	mov	DWORD PTR _w_ptr$[ebp], ecx
	mov	edx, DWORD PTR _u_ptr$[ebp]
	mov	eax, DWORD PTR [edx]
	mov	DWORD PTR tv76[ebp], eax
	mov	ecx, DWORD PTR _u_ptr$[ebp]
	add	ecx, 4
	mov	DWORD PTR _u_ptr$[ebp], ecx
	mov	edx, DWORD PTR tv72[ebp]
	push	edx
	push	0
	mov	eax, DWORD PTR tv76[ebp]
	push	eax
	movzx	ecx, BYTE PTR _c$[ebp]
	push	ecx
	call	__ADD_UNIT
	add	esp, 16					; 00000010H
	mov	BYTE PTR _c$[ebp], al

; 65   :             --u_count;

	mov	edx, DWORD PTR _u_count$[ebp]
	sub	edx, 1
	mov	DWORD PTR _u_count$[ebp], edx

; 66   :             --w_count;

	mov	eax, DWORD PTR _w_count$[ebp]
	sub	eax, 1
	mov	DWORD PTR _w_count$[ebp], eax

; 67   :         }

	jmp	SHORT $LN8@DoCarry
$LN5@DoCarry:

; 68   :         else
; 69   :         {
; 70   :             // u の最上位に達しておらず、かつキャリーが立っていない場合
; 71   : 
; 72   :             // 繰り上がりを中断し、u の残りのデータをzにそのまま複写し、正常復帰する。
; 73   :             while (u_count > 0)

	cmp	DWORD PTR _u_count$[ebp], 0
	jbe	SHORT $LN6@DoCarry

; 74   :             {
; 75   :                 *w_ptr++ = *u_ptr++;

	mov	ecx, DWORD PTR _w_ptr$[ebp]
	mov	edx, DWORD PTR _u_ptr$[ebp]
	mov	eax, DWORD PTR [edx]
	mov	DWORD PTR [ecx], eax
	mov	ecx, DWORD PTR _w_ptr$[ebp]
	add	ecx, 4
	mov	DWORD PTR _w_ptr$[ebp], ecx
	mov	edx, DWORD PTR _u_ptr$[ebp]
	add	edx, 4
	mov	DWORD PTR _u_ptr$[ebp], edx

; 76   :                 --u_count;

	mov	eax, DWORD PTR _u_count$[ebp]
	sub	eax, 1
	mov	DWORD PTR _u_count$[ebp], eax

; 77   :                 --w_count;

	mov	ecx, DWORD PTR _w_count$[ebp]
	sub	ecx, 1
	mov	DWORD PTR _w_count$[ebp], ecx

; 78   :             }

	jmp	SHORT $LN5@DoCarry
$LN6@DoCarry:

; 79   :             return (PMC_STATUS_OK);

	xor	eax, eax
	jmp	SHORT $LN1@DoCarry
$LN8@DoCarry:

; 80   :         }
; 81   :     }

	jmp	$LN4@DoCarry
$LN1@DoCarry:

; 82   : }

	add	esp, 8
	cmp	ebp, esp
	call	__RTC_CheckEsp
	mov	esp, ebp
	pop	ebp
	ret	0
_DoCarry ENDP
_TEXT	ENDS
; Function compile flags: /Odtp /RTCsu
; File z:\sources\lunor\repos\rougemeilland\palmtree.math.core.uint\palmtree.math.core.uint\autogenerated_inline_func.h
_TEXT	SEGMENT
_c$ = 8							; size = 1
_xp$ = 12						; size = 4
_yp$ = 16						; size = 4
_zp$ = 20						; size = 4
__ADD_2WORDS_ADCX PROC

; 4371 : {

	push	ebp
	mov	ebp, esp
	mov	ecx, OFFSET __E05E7037_autogenerated_inline_func@h
	call	@__CheckForDebuggerJustMyCode@4

; 4372 : #ifdef _MSC_VER
; 4373 :     c = _ADDX_UNIT(c, xp[0], yp[0], &zp[0]);

	mov	eax, 4
	imul	ecx, eax, 0
	add	ecx, DWORD PTR _zp$[ebp]
	push	ecx
	mov	edx, 4
	imul	eax, edx, 0
	mov	ecx, DWORD PTR _yp$[ebp]
	mov	edx, DWORD PTR [ecx+eax]
	push	edx
	mov	eax, 4
	imul	ecx, eax, 0
	mov	edx, DWORD PTR _xp$[ebp]
	mov	eax, DWORD PTR [edx+ecx]
	push	eax
	movzx	ecx, BYTE PTR _c$[ebp]
	push	ecx
	call	__ADDX_UNIT
	add	esp, 16					; 00000010H
	mov	BYTE PTR _c$[ebp], al

; 4374 :     c = _ADDX_UNIT(c, xp[1], yp[1], &zp[1]);

	mov	edx, 4
	shl	edx, 0
	add	edx, DWORD PTR _zp$[ebp]
	push	edx
	mov	eax, 4
	shl	eax, 0
	mov	ecx, DWORD PTR _yp$[ebp]
	mov	edx, DWORD PTR [ecx+eax]
	push	edx
	mov	eax, 4
	shl	eax, 0
	mov	ecx, DWORD PTR _xp$[ebp]
	mov	edx, DWORD PTR [ecx+eax]
	push	edx
	movzx	eax, BYTE PTR _c$[ebp]
	push	eax
	call	__ADDX_UNIT
	add	esp, 16					; 00000010H
	mov	BYTE PTR _c$[ebp], al

; 4375 : #elif defined(__GNUC__)
; 4376 : #ifdef _M_IX86
; 4377 :     __asm__ volatile (
; 4378 :         "addb\t$-1, %0\n\t"
; 4379 :         "movl\t(%1), %%ecx\n\t"
; 4380 :         "adcxl\t(%2), %%ecx\n\t"
; 4381 :         "movl\t%%ecx, (%3)\n\t"
; 4382 :         "movl\t4(%1), %%ecx\n\t"
; 4383 :         "adcxl\t4(%2), %%ecx\n\t"
; 4384 :         "movl\t%%ecx, 4(%3)\n\t"
; 4385 :         "setc\t%0"
; 4386 :         : "+r"(c), "+r"(xp), "+r"(yp), "+r"(zp)
; 4387 :         :
; 4388 :         : "cc", "memory", "%ecx"
; 4389 : );
; 4390 : #elif defined(_M_IX64)
; 4391 :     __asm__ volatile (
; 4392 :         "addb\t$-1, %0\n\t"
; 4393 :         "movq\t(%1), %%rcx\n\t"
; 4394 :         "adcxq\t(%2), %%rcx\n\t"
; 4395 :         "movq\t%%rcx, (%3)\n\t"
; 4396 :         "movq\t8(%1), %%rcx\n\t"
; 4397 :         "adcxq\t8(%2), %%rcx\n\t"
; 4398 :         "movq\t%%rcx, 8(%3)\n\t"
; 4399 :         "setc\t%0"
; 4400 :         : "+r"(c), "+r"(xp), "+r"(yp), "+r"(zp)
; 4401 :         :
; 4402 :         : "cc", "memory", "%rcx"
; 4403 : );
; 4404 : #else
; 4405 : #error unknown platform
; 4406 : #endif
; 4407 : #else
; 4408 : #error unknown compiler
; 4409 : #endif
; 4410 :     return (c);

	mov	al, BYTE PTR _c$[ebp]

; 4411 : }

	cmp	ebp, esp
	call	__RTC_CheckEsp
	pop	ebp
	ret	0
__ADD_2WORDS_ADCX ENDP
_TEXT	ENDS
; Function compile flags: /Odtp /RTCsu
; File z:\sources\lunor\repos\rougemeilland\palmtree.math.core.uint\palmtree.math.core.uint\autogenerated_inline_func.h
_TEXT	SEGMENT
_c$ = 8							; size = 1
_xp$ = 12						; size = 4
_yp$ = 16						; size = 4
_zp$ = 20						; size = 4
__ADD_2WORDS_ADC PROC

; 4328 : {

	push	ebp
	mov	ebp, esp
	mov	ecx, OFFSET __E05E7037_autogenerated_inline_func@h
	call	@__CheckForDebuggerJustMyCode@4

; 4329 : #ifdef _MSC_VER
; 4330 :     c = _ADD_UNIT(c, xp[0], yp[0], &zp[0]);

	mov	eax, 4
	imul	ecx, eax, 0
	add	ecx, DWORD PTR _zp$[ebp]
	push	ecx
	mov	edx, 4
	imul	eax, edx, 0
	mov	ecx, DWORD PTR _yp$[ebp]
	mov	edx, DWORD PTR [ecx+eax]
	push	edx
	mov	eax, 4
	imul	ecx, eax, 0
	mov	edx, DWORD PTR _xp$[ebp]
	mov	eax, DWORD PTR [edx+ecx]
	push	eax
	movzx	ecx, BYTE PTR _c$[ebp]
	push	ecx
	call	__ADD_UNIT
	add	esp, 16					; 00000010H
	mov	BYTE PTR _c$[ebp], al

; 4331 :     c = _ADD_UNIT(c, xp[1], yp[1], &zp[1]);

	mov	edx, 4
	shl	edx, 0
	add	edx, DWORD PTR _zp$[ebp]
	push	edx
	mov	eax, 4
	shl	eax, 0
	mov	ecx, DWORD PTR _yp$[ebp]
	mov	edx, DWORD PTR [ecx+eax]
	push	edx
	mov	eax, 4
	shl	eax, 0
	mov	ecx, DWORD PTR _xp$[ebp]
	mov	edx, DWORD PTR [ecx+eax]
	push	edx
	movzx	eax, BYTE PTR _c$[ebp]
	push	eax
	call	__ADD_UNIT
	add	esp, 16					; 00000010H
	mov	BYTE PTR _c$[ebp], al

; 4332 : #elif defined(__GNUC__)
; 4333 : #ifdef _M_IX86
; 4334 :     __asm__ volatile (
; 4335 :         "addb\t$-1, %0\n\t"
; 4336 :         "movl\t(%1), %%ecx\n\t"
; 4337 :         "adcl\t(%2), %%ecx\n\t"
; 4338 :         "movl\t%%ecx, (%3)\n\t"
; 4339 :         "movl\t4(%1), %%ecx\n\t"
; 4340 :         "adcl\t4(%2), %%ecx\n\t"
; 4341 :         "movl\t%%ecx, 4(%3)\n\t"
; 4342 :         "setc\t%0"
; 4343 :         : "+r"(c), "+r"(xp), "+r"(yp), "+r"(zp)
; 4344 :         :
; 4345 :         : "cc", "memory", "%ecx"
; 4346 : );
; 4347 : #elif defined(_M_IX64)
; 4348 :     __asm__ volatile (
; 4349 :         "addb\t$-1, %0\n\t"
; 4350 :         "movq\t(%1), %%rcx\n\t"
; 4351 :         "adcq\t(%2), %%rcx\n\t"
; 4352 :         "movq\t%%rcx, (%3)\n\t"
; 4353 :         "movq\t8(%1), %%rcx\n\t"
; 4354 :         "adcq\t8(%2), %%rcx\n\t"
; 4355 :         "movq\t%%rcx, 8(%3)\n\t"
; 4356 :         "setc\t%0"
; 4357 :         : "+r"(c), "+r"(xp), "+r"(yp), "+r"(zp)
; 4358 :         :
; 4359 :         : "cc", "memory", "%rcx"
; 4360 : );
; 4361 : #else
; 4362 : #error unknown platform
; 4363 : #endif
; 4364 : #else
; 4365 : #error unknown compiler
; 4366 : #endif
; 4367 :     return (c);

	mov	al, BYTE PTR _c$[ebp]

; 4368 : }

	cmp	ebp, esp
	call	__RTC_CheckEsp
	pop	ebp
	ret	0
__ADD_2WORDS_ADC ENDP
_TEXT	ENDS
; Function compile flags: /Odtp /RTCsu
; File z:\sources\lunor\repos\rougemeilland\palmtree.math.core.uint\palmtree.math.core.uint\autogenerated_inline_func.h
_TEXT	SEGMENT
_c$ = 8							; size = 1
_xp$ = 12						; size = 4
_yp$ = 16						; size = 4
_zp$ = 20						; size = 4
__ADD_4WORDS_ADCX PROC

; 3929 : {

	push	ebp
	mov	ebp, esp
	mov	ecx, OFFSET __E05E7037_autogenerated_inline_func@h
	call	@__CheckForDebuggerJustMyCode@4

; 3930 : #ifdef _MSC_VER
; 3931 :     c = _ADDX_UNIT(c, xp[0], yp[0], &zp[0]);

	mov	eax, 4
	imul	ecx, eax, 0
	add	ecx, DWORD PTR _zp$[ebp]
	push	ecx
	mov	edx, 4
	imul	eax, edx, 0
	mov	ecx, DWORD PTR _yp$[ebp]
	mov	edx, DWORD PTR [ecx+eax]
	push	edx
	mov	eax, 4
	imul	ecx, eax, 0
	mov	edx, DWORD PTR _xp$[ebp]
	mov	eax, DWORD PTR [edx+ecx]
	push	eax
	movzx	ecx, BYTE PTR _c$[ebp]
	push	ecx
	call	__ADDX_UNIT
	add	esp, 16					; 00000010H
	mov	BYTE PTR _c$[ebp], al

; 3932 :     c = _ADDX_UNIT(c, xp[1], yp[1], &zp[1]);

	mov	edx, 4
	shl	edx, 0
	add	edx, DWORD PTR _zp$[ebp]
	push	edx
	mov	eax, 4
	shl	eax, 0
	mov	ecx, DWORD PTR _yp$[ebp]
	mov	edx, DWORD PTR [ecx+eax]
	push	edx
	mov	eax, 4
	shl	eax, 0
	mov	ecx, DWORD PTR _xp$[ebp]
	mov	edx, DWORD PTR [ecx+eax]
	push	edx
	movzx	eax, BYTE PTR _c$[ebp]
	push	eax
	call	__ADDX_UNIT
	add	esp, 16					; 00000010H
	mov	BYTE PTR _c$[ebp], al

; 3933 :     c = _ADDX_UNIT(c, xp[2], yp[2], &zp[2]);

	mov	ecx, 4
	shl	ecx, 1
	add	ecx, DWORD PTR _zp$[ebp]
	push	ecx
	mov	edx, 4
	shl	edx, 1
	mov	eax, DWORD PTR _yp$[ebp]
	mov	ecx, DWORD PTR [eax+edx]
	push	ecx
	mov	edx, 4
	shl	edx, 1
	mov	eax, DWORD PTR _xp$[ebp]
	mov	ecx, DWORD PTR [eax+edx]
	push	ecx
	movzx	edx, BYTE PTR _c$[ebp]
	push	edx
	call	__ADDX_UNIT
	add	esp, 16					; 00000010H
	mov	BYTE PTR _c$[ebp], al

; 3934 :     c = _ADDX_UNIT(c, xp[3], yp[3], &zp[3]);

	mov	eax, 4
	imul	ecx, eax, 3
	add	ecx, DWORD PTR _zp$[ebp]
	push	ecx
	mov	edx, 4
	imul	eax, edx, 3
	mov	ecx, DWORD PTR _yp$[ebp]
	mov	edx, DWORD PTR [ecx+eax]
	push	edx
	mov	eax, 4
	imul	ecx, eax, 3
	mov	edx, DWORD PTR _xp$[ebp]
	mov	eax, DWORD PTR [edx+ecx]
	push	eax
	movzx	ecx, BYTE PTR _c$[ebp]
	push	ecx
	call	__ADDX_UNIT
	add	esp, 16					; 00000010H
	mov	BYTE PTR _c$[ebp], al

; 3935 : #elif defined(__GNUC__)
; 3936 : #ifdef _M_IX86
; 3937 :     __asm__ volatile (
; 3938 :         "addb\t$-1, %0\n\t"
; 3939 :         "movl\t(%1), %%ecx\n\t"
; 3940 :         "adcxl\t(%2), %%ecx\n\t"
; 3941 :         "movl\t%%ecx, (%3)\n\t"
; 3942 :         "movl\t4(%1), %%ecx\n\t"
; 3943 :         "adcxl\t4(%2), %%ecx\n\t"
; 3944 :         "movl\t%%ecx, 4(%3)\n\t"
; 3945 :         "movl\t8(%1), %%ecx\n\t"
; 3946 :         "adcxl\t8(%2), %%ecx\n\t"
; 3947 :         "movl\t%%ecx, 8(%3)\n\t"
; 3948 :         "movl\t12(%1), %%ecx\n\t"
; 3949 :         "adcxl\t12(%2), %%ecx\n\t"
; 3950 :         "movl\t%%ecx, 12(%3)\n\t"
; 3951 :         "setc\t%0"
; 3952 :         : "+r"(c), "+r"(xp), "+r"(yp), "+r"(zp)
; 3953 :         :
; 3954 :         : "cc", "memory", "%ecx"
; 3955 : );
; 3956 : #elif defined(_M_IX64)
; 3957 :     __asm__ volatile (
; 3958 :         "addb\t$-1, %0\n\t"
; 3959 :         "movq\t(%1), %%rcx\n\t"
; 3960 :         "adcxq\t(%2), %%rcx\n\t"
; 3961 :         "movq\t%%rcx, (%3)\n\t"
; 3962 :         "movq\t8(%1), %%rcx\n\t"
; 3963 :         "adcxq\t8(%2), %%rcx\n\t"
; 3964 :         "movq\t%%rcx, 8(%3)\n\t"
; 3965 :         "movq\t16(%1), %%rcx\n\t"
; 3966 :         "adcxq\t16(%2), %%rcx\n\t"
; 3967 :         "movq\t%%rcx, 16(%3)\n\t"
; 3968 :         "movq\t24(%1), %%rcx\n\t"
; 3969 :         "adcxq\t24(%2), %%rcx\n\t"
; 3970 :         "movq\t%%rcx, 24(%3)\n\t"
; 3971 :         "setc\t%0"
; 3972 :         : "+r"(c), "+r"(xp), "+r"(yp), "+r"(zp)
; 3973 :         :
; 3974 :         : "cc", "memory", "%rcx"
; 3975 : );
; 3976 : #else
; 3977 : #error unknown platform
; 3978 : #endif
; 3979 : #else
; 3980 : #error unknown compiler
; 3981 : #endif
; 3982 :     return (c);

	mov	al, BYTE PTR _c$[ebp]

; 3983 : }

	cmp	ebp, esp
	call	__RTC_CheckEsp
	pop	ebp
	ret	0
__ADD_4WORDS_ADCX ENDP
_TEXT	ENDS
; Function compile flags: /Odtp /RTCsu
; File z:\sources\lunor\repos\rougemeilland\palmtree.math.core.uint\palmtree.math.core.uint\autogenerated_inline_func.h
_TEXT	SEGMENT
_c$ = 8							; size = 1
_xp$ = 12						; size = 4
_yp$ = 16						; size = 4
_zp$ = 20						; size = 4
__ADD_4WORDS_ADC PROC

; 3872 : {

	push	ebp
	mov	ebp, esp
	mov	ecx, OFFSET __E05E7037_autogenerated_inline_func@h
	call	@__CheckForDebuggerJustMyCode@4

; 3873 : #ifdef _MSC_VER
; 3874 :     c = _ADD_UNIT(c, xp[0], yp[0], &zp[0]);

	mov	eax, 4
	imul	ecx, eax, 0
	add	ecx, DWORD PTR _zp$[ebp]
	push	ecx
	mov	edx, 4
	imul	eax, edx, 0
	mov	ecx, DWORD PTR _yp$[ebp]
	mov	edx, DWORD PTR [ecx+eax]
	push	edx
	mov	eax, 4
	imul	ecx, eax, 0
	mov	edx, DWORD PTR _xp$[ebp]
	mov	eax, DWORD PTR [edx+ecx]
	push	eax
	movzx	ecx, BYTE PTR _c$[ebp]
	push	ecx
	call	__ADD_UNIT
	add	esp, 16					; 00000010H
	mov	BYTE PTR _c$[ebp], al

; 3875 :     c = _ADD_UNIT(c, xp[1], yp[1], &zp[1]);

	mov	edx, 4
	shl	edx, 0
	add	edx, DWORD PTR _zp$[ebp]
	push	edx
	mov	eax, 4
	shl	eax, 0
	mov	ecx, DWORD PTR _yp$[ebp]
	mov	edx, DWORD PTR [ecx+eax]
	push	edx
	mov	eax, 4
	shl	eax, 0
	mov	ecx, DWORD PTR _xp$[ebp]
	mov	edx, DWORD PTR [ecx+eax]
	push	edx
	movzx	eax, BYTE PTR _c$[ebp]
	push	eax
	call	__ADD_UNIT
	add	esp, 16					; 00000010H
	mov	BYTE PTR _c$[ebp], al

; 3876 :     c = _ADD_UNIT(c, xp[2], yp[2], &zp[2]);

	mov	ecx, 4
	shl	ecx, 1
	add	ecx, DWORD PTR _zp$[ebp]
	push	ecx
	mov	edx, 4
	shl	edx, 1
	mov	eax, DWORD PTR _yp$[ebp]
	mov	ecx, DWORD PTR [eax+edx]
	push	ecx
	mov	edx, 4
	shl	edx, 1
	mov	eax, DWORD PTR _xp$[ebp]
	mov	ecx, DWORD PTR [eax+edx]
	push	ecx
	movzx	edx, BYTE PTR _c$[ebp]
	push	edx
	call	__ADD_UNIT
	add	esp, 16					; 00000010H
	mov	BYTE PTR _c$[ebp], al

; 3877 :     c = _ADD_UNIT(c, xp[3], yp[3], &zp[3]);

	mov	eax, 4
	imul	ecx, eax, 3
	add	ecx, DWORD PTR _zp$[ebp]
	push	ecx
	mov	edx, 4
	imul	eax, edx, 3
	mov	ecx, DWORD PTR _yp$[ebp]
	mov	edx, DWORD PTR [ecx+eax]
	push	edx
	mov	eax, 4
	imul	ecx, eax, 3
	mov	edx, DWORD PTR _xp$[ebp]
	mov	eax, DWORD PTR [edx+ecx]
	push	eax
	movzx	ecx, BYTE PTR _c$[ebp]
	push	ecx
	call	__ADD_UNIT
	add	esp, 16					; 00000010H
	mov	BYTE PTR _c$[ebp], al

; 3878 : #elif defined(__GNUC__)
; 3879 : #ifdef _M_IX86
; 3880 :     __asm__ volatile (
; 3881 :         "addb\t$-1, %0\n\t"
; 3882 :         "movl\t(%1), %%ecx\n\t"
; 3883 :         "adcl\t(%2), %%ecx\n\t"
; 3884 :         "movl\t%%ecx, (%3)\n\t"
; 3885 :         "movl\t4(%1), %%ecx\n\t"
; 3886 :         "adcl\t4(%2), %%ecx\n\t"
; 3887 :         "movl\t%%ecx, 4(%3)\n\t"
; 3888 :         "movl\t8(%1), %%ecx\n\t"
; 3889 :         "adcl\t8(%2), %%ecx\n\t"
; 3890 :         "movl\t%%ecx, 8(%3)\n\t"
; 3891 :         "movl\t12(%1), %%ecx\n\t"
; 3892 :         "adcl\t12(%2), %%ecx\n\t"
; 3893 :         "movl\t%%ecx, 12(%3)\n\t"
; 3894 :         "setc\t%0"
; 3895 :         : "+r"(c), "+r"(xp), "+r"(yp), "+r"(zp)
; 3896 :         :
; 3897 :         : "cc", "memory", "%ecx"
; 3898 : );
; 3899 : #elif defined(_M_IX64)
; 3900 :     __asm__ volatile (
; 3901 :         "addb\t$-1, %0\n\t"
; 3902 :         "movq\t(%1), %%rcx\n\t"
; 3903 :         "adcq\t(%2), %%rcx\n\t"
; 3904 :         "movq\t%%rcx, (%3)\n\t"
; 3905 :         "movq\t8(%1), %%rcx\n\t"
; 3906 :         "adcq\t8(%2), %%rcx\n\t"
; 3907 :         "movq\t%%rcx, 8(%3)\n\t"
; 3908 :         "movq\t16(%1), %%rcx\n\t"
; 3909 :         "adcq\t16(%2), %%rcx\n\t"
; 3910 :         "movq\t%%rcx, 16(%3)\n\t"
; 3911 :         "movq\t24(%1), %%rcx\n\t"
; 3912 :         "adcq\t24(%2), %%rcx\n\t"
; 3913 :         "movq\t%%rcx, 24(%3)\n\t"
; 3914 :         "setc\t%0"
; 3915 :         : "+r"(c), "+r"(xp), "+r"(yp), "+r"(zp)
; 3916 :         :
; 3917 :         : "cc", "memory", "%rcx"
; 3918 : );
; 3919 : #else
; 3920 : #error unknown platform
; 3921 : #endif
; 3922 : #else
; 3923 : #error unknown compiler
; 3924 : #endif
; 3925 :     return (c);

	mov	al, BYTE PTR _c$[ebp]

; 3926 : }

	cmp	ebp, esp
	call	__RTC_CheckEsp
	pop	ebp
	ret	0
__ADD_4WORDS_ADC ENDP
_TEXT	ENDS
; Function compile flags: /Odtp /RTCsu
; File z:\sources\lunor\repos\rougemeilland\palmtree.math.core.uint\palmtree.math.core.uint\autogenerated_inline_func.h
_TEXT	SEGMENT
_c$ = 8							; size = 1
_xp$ = 12						; size = 4
_yp$ = 16						; size = 4
_zp$ = 20						; size = 4
__ADD_8WORDS_ADCX PROC

; 3277 : {

	push	ebp
	mov	ebp, esp
	mov	ecx, OFFSET __E05E7037_autogenerated_inline_func@h
	call	@__CheckForDebuggerJustMyCode@4

; 3278 : #ifdef _MSC_VER
; 3279 :     c = _ADDX_UNIT(c, xp[0], yp[0], &zp[0]);

	mov	eax, 4
	imul	ecx, eax, 0
	add	ecx, DWORD PTR _zp$[ebp]
	push	ecx
	mov	edx, 4
	imul	eax, edx, 0
	mov	ecx, DWORD PTR _yp$[ebp]
	mov	edx, DWORD PTR [ecx+eax]
	push	edx
	mov	eax, 4
	imul	ecx, eax, 0
	mov	edx, DWORD PTR _xp$[ebp]
	mov	eax, DWORD PTR [edx+ecx]
	push	eax
	movzx	ecx, BYTE PTR _c$[ebp]
	push	ecx
	call	__ADDX_UNIT
	add	esp, 16					; 00000010H
	mov	BYTE PTR _c$[ebp], al

; 3280 :     c = _ADDX_UNIT(c, xp[1], yp[1], &zp[1]);

	mov	edx, 4
	shl	edx, 0
	add	edx, DWORD PTR _zp$[ebp]
	push	edx
	mov	eax, 4
	shl	eax, 0
	mov	ecx, DWORD PTR _yp$[ebp]
	mov	edx, DWORD PTR [ecx+eax]
	push	edx
	mov	eax, 4
	shl	eax, 0
	mov	ecx, DWORD PTR _xp$[ebp]
	mov	edx, DWORD PTR [ecx+eax]
	push	edx
	movzx	eax, BYTE PTR _c$[ebp]
	push	eax
	call	__ADDX_UNIT
	add	esp, 16					; 00000010H
	mov	BYTE PTR _c$[ebp], al

; 3281 :     c = _ADDX_UNIT(c, xp[2], yp[2], &zp[2]);

	mov	ecx, 4
	shl	ecx, 1
	add	ecx, DWORD PTR _zp$[ebp]
	push	ecx
	mov	edx, 4
	shl	edx, 1
	mov	eax, DWORD PTR _yp$[ebp]
	mov	ecx, DWORD PTR [eax+edx]
	push	ecx
	mov	edx, 4
	shl	edx, 1
	mov	eax, DWORD PTR _xp$[ebp]
	mov	ecx, DWORD PTR [eax+edx]
	push	ecx
	movzx	edx, BYTE PTR _c$[ebp]
	push	edx
	call	__ADDX_UNIT
	add	esp, 16					; 00000010H
	mov	BYTE PTR _c$[ebp], al

; 3282 :     c = _ADDX_UNIT(c, xp[3], yp[3], &zp[3]);

	mov	eax, 4
	imul	ecx, eax, 3
	add	ecx, DWORD PTR _zp$[ebp]
	push	ecx
	mov	edx, 4
	imul	eax, edx, 3
	mov	ecx, DWORD PTR _yp$[ebp]
	mov	edx, DWORD PTR [ecx+eax]
	push	edx
	mov	eax, 4
	imul	ecx, eax, 3
	mov	edx, DWORD PTR _xp$[ebp]
	mov	eax, DWORD PTR [edx+ecx]
	push	eax
	movzx	ecx, BYTE PTR _c$[ebp]
	push	ecx
	call	__ADDX_UNIT
	add	esp, 16					; 00000010H
	mov	BYTE PTR _c$[ebp], al

; 3283 :     c = _ADDX_UNIT(c, xp[4], yp[4], &zp[4]);

	mov	edx, 4
	shl	edx, 2
	add	edx, DWORD PTR _zp$[ebp]
	push	edx
	mov	eax, 4
	shl	eax, 2
	mov	ecx, DWORD PTR _yp$[ebp]
	mov	edx, DWORD PTR [ecx+eax]
	push	edx
	mov	eax, 4
	shl	eax, 2
	mov	ecx, DWORD PTR _xp$[ebp]
	mov	edx, DWORD PTR [ecx+eax]
	push	edx
	movzx	eax, BYTE PTR _c$[ebp]
	push	eax
	call	__ADDX_UNIT
	add	esp, 16					; 00000010H
	mov	BYTE PTR _c$[ebp], al

; 3284 :     c = _ADDX_UNIT(c, xp[5], yp[5], &zp[5]);

	mov	ecx, 4
	imul	edx, ecx, 5
	add	edx, DWORD PTR _zp$[ebp]
	push	edx
	mov	eax, 4
	imul	ecx, eax, 5
	mov	edx, DWORD PTR _yp$[ebp]
	mov	eax, DWORD PTR [edx+ecx]
	push	eax
	mov	ecx, 4
	imul	edx, ecx, 5
	mov	eax, DWORD PTR _xp$[ebp]
	mov	ecx, DWORD PTR [eax+edx]
	push	ecx
	movzx	edx, BYTE PTR _c$[ebp]
	push	edx
	call	__ADDX_UNIT
	add	esp, 16					; 00000010H
	mov	BYTE PTR _c$[ebp], al

; 3285 :     c = _ADDX_UNIT(c, xp[6], yp[6], &zp[6]);

	mov	eax, 4
	imul	ecx, eax, 6
	add	ecx, DWORD PTR _zp$[ebp]
	push	ecx
	mov	edx, 4
	imul	eax, edx, 6
	mov	ecx, DWORD PTR _yp$[ebp]
	mov	edx, DWORD PTR [ecx+eax]
	push	edx
	mov	eax, 4
	imul	ecx, eax, 6
	mov	edx, DWORD PTR _xp$[ebp]
	mov	eax, DWORD PTR [edx+ecx]
	push	eax
	movzx	ecx, BYTE PTR _c$[ebp]
	push	ecx
	call	__ADDX_UNIT
	add	esp, 16					; 00000010H
	mov	BYTE PTR _c$[ebp], al

; 3286 :     c = _ADDX_UNIT(c, xp[7], yp[7], &zp[7]);

	mov	edx, 4
	imul	eax, edx, 7
	add	eax, DWORD PTR _zp$[ebp]
	push	eax
	mov	ecx, 4
	imul	edx, ecx, 7
	mov	eax, DWORD PTR _yp$[ebp]
	mov	ecx, DWORD PTR [eax+edx]
	push	ecx
	mov	edx, 4
	imul	eax, edx, 7
	mov	ecx, DWORD PTR _xp$[ebp]
	mov	edx, DWORD PTR [ecx+eax]
	push	edx
	movzx	eax, BYTE PTR _c$[ebp]
	push	eax
	call	__ADDX_UNIT
	add	esp, 16					; 00000010H
	mov	BYTE PTR _c$[ebp], al

; 3287 : #elif defined(__GNUC__)
; 3288 : #ifdef _M_IX86
; 3289 :     __asm__ volatile (
; 3290 :         "addb\t$-1, %0\n\t"
; 3291 :         "movl\t(%1), %%ecx\n\t"
; 3292 :         "adcxl\t(%2), %%ecx\n\t"
; 3293 :         "movl\t%%ecx, (%3)\n\t"
; 3294 :         "movl\t4(%1), %%ecx\n\t"
; 3295 :         "adcxl\t4(%2), %%ecx\n\t"
; 3296 :         "movl\t%%ecx, 4(%3)\n\t"
; 3297 :         "movl\t8(%1), %%ecx\n\t"
; 3298 :         "adcxl\t8(%2), %%ecx\n\t"
; 3299 :         "movl\t%%ecx, 8(%3)\n\t"
; 3300 :         "movl\t12(%1), %%ecx\n\t"
; 3301 :         "adcxl\t12(%2), %%ecx\n\t"
; 3302 :         "movl\t%%ecx, 12(%3)\n\t"
; 3303 :         "movl\t16(%1), %%ecx\n\t"
; 3304 :         "adcxl\t16(%2), %%ecx\n\t"
; 3305 :         "movl\t%%ecx, 16(%3)\n\t"
; 3306 :         "movl\t20(%1), %%ecx\n\t"
; 3307 :         "adcxl\t20(%2), %%ecx\n\t"
; 3308 :         "movl\t%%ecx, 20(%3)\n\t"
; 3309 :         "movl\t24(%1), %%ecx\n\t"
; 3310 :         "adcxl\t24(%2), %%ecx\n\t"
; 3311 :         "movl\t%%ecx, 24(%3)\n\t"
; 3312 :         "movl\t28(%1), %%ecx\n\t"
; 3313 :         "adcxl\t28(%2), %%ecx\n\t"
; 3314 :         "movl\t%%ecx, 28(%3)\n\t"
; 3315 :         "setc\t%0"
; 3316 :         : "+r"(c), "+r"(xp), "+r"(yp), "+r"(zp)
; 3317 :         :
; 3318 :         : "cc", "memory", "%ecx"
; 3319 : );
; 3320 : #elif defined(_M_IX64)
; 3321 :     __asm__ volatile (
; 3322 :         "addb\t$-1, %0\n\t"
; 3323 :         "movq\t(%1), %%rcx\n\t"
; 3324 :         "adcxq\t(%2), %%rcx\n\t"
; 3325 :         "movq\t%%rcx, (%3)\n\t"
; 3326 :         "movq\t8(%1), %%rcx\n\t"
; 3327 :         "adcxq\t8(%2), %%rcx\n\t"
; 3328 :         "movq\t%%rcx, 8(%3)\n\t"
; 3329 :         "movq\t16(%1), %%rcx\n\t"
; 3330 :         "adcxq\t16(%2), %%rcx\n\t"
; 3331 :         "movq\t%%rcx, 16(%3)\n\t"
; 3332 :         "movq\t24(%1), %%rcx\n\t"
; 3333 :         "adcxq\t24(%2), %%rcx\n\t"
; 3334 :         "movq\t%%rcx, 24(%3)\n\t"
; 3335 :         "movq\t32(%1), %%rcx\n\t"
; 3336 :         "adcxq\t32(%2), %%rcx\n\t"
; 3337 :         "movq\t%%rcx, 32(%3)\n\t"
; 3338 :         "movq\t40(%1), %%rcx\n\t"
; 3339 :         "adcxq\t40(%2), %%rcx\n\t"
; 3340 :         "movq\t%%rcx, 40(%3)\n\t"
; 3341 :         "movq\t48(%1), %%rcx\n\t"
; 3342 :         "adcxq\t48(%2), %%rcx\n\t"
; 3343 :         "movq\t%%rcx, 48(%3)\n\t"
; 3344 :         "movq\t56(%1), %%rcx\n\t"
; 3345 :         "adcxq\t56(%2), %%rcx\n\t"
; 3346 :         "movq\t%%rcx, 56(%3)\n\t"
; 3347 :         "setc\t%0"
; 3348 :         : "+r"(c), "+r"(xp), "+r"(yp), "+r"(zp)
; 3349 :         :
; 3350 :         : "cc", "memory", "%rcx"
; 3351 : );
; 3352 : #else
; 3353 : #error unknown platform
; 3354 : #endif
; 3355 : #else
; 3356 : #error unknown compiler
; 3357 : #endif
; 3358 :     return (c);

	mov	al, BYTE PTR _c$[ebp]

; 3359 : }

	cmp	ebp, esp
	call	__RTC_CheckEsp
	pop	ebp
	ret	0
__ADD_8WORDS_ADCX ENDP
_TEXT	ENDS
; Function compile flags: /Odtp /RTCsu
; File z:\sources\lunor\repos\rougemeilland\palmtree.math.core.uint\palmtree.math.core.uint\autogenerated_inline_func.h
_TEXT	SEGMENT
_c$ = 8							; size = 1
_xp$ = 12						; size = 4
_yp$ = 16						; size = 4
_zp$ = 20						; size = 4
__ADD_8WORDS_ADC PROC

; 3192 : {

	push	ebp
	mov	ebp, esp
	mov	ecx, OFFSET __E05E7037_autogenerated_inline_func@h
	call	@__CheckForDebuggerJustMyCode@4

; 3193 : #ifdef _MSC_VER
; 3194 :     c = _ADD_UNIT(c, xp[0], yp[0], &zp[0]);

	mov	eax, 4
	imul	ecx, eax, 0
	add	ecx, DWORD PTR _zp$[ebp]
	push	ecx
	mov	edx, 4
	imul	eax, edx, 0
	mov	ecx, DWORD PTR _yp$[ebp]
	mov	edx, DWORD PTR [ecx+eax]
	push	edx
	mov	eax, 4
	imul	ecx, eax, 0
	mov	edx, DWORD PTR _xp$[ebp]
	mov	eax, DWORD PTR [edx+ecx]
	push	eax
	movzx	ecx, BYTE PTR _c$[ebp]
	push	ecx
	call	__ADD_UNIT
	add	esp, 16					; 00000010H
	mov	BYTE PTR _c$[ebp], al

; 3195 :     c = _ADD_UNIT(c, xp[1], yp[1], &zp[1]);

	mov	edx, 4
	shl	edx, 0
	add	edx, DWORD PTR _zp$[ebp]
	push	edx
	mov	eax, 4
	shl	eax, 0
	mov	ecx, DWORD PTR _yp$[ebp]
	mov	edx, DWORD PTR [ecx+eax]
	push	edx
	mov	eax, 4
	shl	eax, 0
	mov	ecx, DWORD PTR _xp$[ebp]
	mov	edx, DWORD PTR [ecx+eax]
	push	edx
	movzx	eax, BYTE PTR _c$[ebp]
	push	eax
	call	__ADD_UNIT
	add	esp, 16					; 00000010H
	mov	BYTE PTR _c$[ebp], al

; 3196 :     c = _ADD_UNIT(c, xp[2], yp[2], &zp[2]);

	mov	ecx, 4
	shl	ecx, 1
	add	ecx, DWORD PTR _zp$[ebp]
	push	ecx
	mov	edx, 4
	shl	edx, 1
	mov	eax, DWORD PTR _yp$[ebp]
	mov	ecx, DWORD PTR [eax+edx]
	push	ecx
	mov	edx, 4
	shl	edx, 1
	mov	eax, DWORD PTR _xp$[ebp]
	mov	ecx, DWORD PTR [eax+edx]
	push	ecx
	movzx	edx, BYTE PTR _c$[ebp]
	push	edx
	call	__ADD_UNIT
	add	esp, 16					; 00000010H
	mov	BYTE PTR _c$[ebp], al

; 3197 :     c = _ADD_UNIT(c, xp[3], yp[3], &zp[3]);

	mov	eax, 4
	imul	ecx, eax, 3
	add	ecx, DWORD PTR _zp$[ebp]
	push	ecx
	mov	edx, 4
	imul	eax, edx, 3
	mov	ecx, DWORD PTR _yp$[ebp]
	mov	edx, DWORD PTR [ecx+eax]
	push	edx
	mov	eax, 4
	imul	ecx, eax, 3
	mov	edx, DWORD PTR _xp$[ebp]
	mov	eax, DWORD PTR [edx+ecx]
	push	eax
	movzx	ecx, BYTE PTR _c$[ebp]
	push	ecx
	call	__ADD_UNIT
	add	esp, 16					; 00000010H
	mov	BYTE PTR _c$[ebp], al

; 3198 :     c = _ADD_UNIT(c, xp[4], yp[4], &zp[4]);

	mov	edx, 4
	shl	edx, 2
	add	edx, DWORD PTR _zp$[ebp]
	push	edx
	mov	eax, 4
	shl	eax, 2
	mov	ecx, DWORD PTR _yp$[ebp]
	mov	edx, DWORD PTR [ecx+eax]
	push	edx
	mov	eax, 4
	shl	eax, 2
	mov	ecx, DWORD PTR _xp$[ebp]
	mov	edx, DWORD PTR [ecx+eax]
	push	edx
	movzx	eax, BYTE PTR _c$[ebp]
	push	eax
	call	__ADD_UNIT
	add	esp, 16					; 00000010H
	mov	BYTE PTR _c$[ebp], al

; 3199 :     c = _ADD_UNIT(c, xp[5], yp[5], &zp[5]);

	mov	ecx, 4
	imul	edx, ecx, 5
	add	edx, DWORD PTR _zp$[ebp]
	push	edx
	mov	eax, 4
	imul	ecx, eax, 5
	mov	edx, DWORD PTR _yp$[ebp]
	mov	eax, DWORD PTR [edx+ecx]
	push	eax
	mov	ecx, 4
	imul	edx, ecx, 5
	mov	eax, DWORD PTR _xp$[ebp]
	mov	ecx, DWORD PTR [eax+edx]
	push	ecx
	movzx	edx, BYTE PTR _c$[ebp]
	push	edx
	call	__ADD_UNIT
	add	esp, 16					; 00000010H
	mov	BYTE PTR _c$[ebp], al

; 3200 :     c = _ADD_UNIT(c, xp[6], yp[6], &zp[6]);

	mov	eax, 4
	imul	ecx, eax, 6
	add	ecx, DWORD PTR _zp$[ebp]
	push	ecx
	mov	edx, 4
	imul	eax, edx, 6
	mov	ecx, DWORD PTR _yp$[ebp]
	mov	edx, DWORD PTR [ecx+eax]
	push	edx
	mov	eax, 4
	imul	ecx, eax, 6
	mov	edx, DWORD PTR _xp$[ebp]
	mov	eax, DWORD PTR [edx+ecx]
	push	eax
	movzx	ecx, BYTE PTR _c$[ebp]
	push	ecx
	call	__ADD_UNIT
	add	esp, 16					; 00000010H
	mov	BYTE PTR _c$[ebp], al

; 3201 :     c = _ADD_UNIT(c, xp[7], yp[7], &zp[7]);

	mov	edx, 4
	imul	eax, edx, 7
	add	eax, DWORD PTR _zp$[ebp]
	push	eax
	mov	ecx, 4
	imul	edx, ecx, 7
	mov	eax, DWORD PTR _yp$[ebp]
	mov	ecx, DWORD PTR [eax+edx]
	push	ecx
	mov	edx, 4
	imul	eax, edx, 7
	mov	ecx, DWORD PTR _xp$[ebp]
	mov	edx, DWORD PTR [ecx+eax]
	push	edx
	movzx	eax, BYTE PTR _c$[ebp]
	push	eax
	call	__ADD_UNIT
	add	esp, 16					; 00000010H
	mov	BYTE PTR _c$[ebp], al

; 3202 : #elif defined(__GNUC__)
; 3203 : #ifdef _M_IX86
; 3204 :     __asm__ volatile (
; 3205 :         "addb\t$-1, %0\n\t"
; 3206 :         "movl\t(%1), %%ecx\n\t"
; 3207 :         "adcl\t(%2), %%ecx\n\t"
; 3208 :         "movl\t%%ecx, (%3)\n\t"
; 3209 :         "movl\t4(%1), %%ecx\n\t"
; 3210 :         "adcl\t4(%2), %%ecx\n\t"
; 3211 :         "movl\t%%ecx, 4(%3)\n\t"
; 3212 :         "movl\t8(%1), %%ecx\n\t"
; 3213 :         "adcl\t8(%2), %%ecx\n\t"
; 3214 :         "movl\t%%ecx, 8(%3)\n\t"
; 3215 :         "movl\t12(%1), %%ecx\n\t"
; 3216 :         "adcl\t12(%2), %%ecx\n\t"
; 3217 :         "movl\t%%ecx, 12(%3)\n\t"
; 3218 :         "movl\t16(%1), %%ecx\n\t"
; 3219 :         "adcl\t16(%2), %%ecx\n\t"
; 3220 :         "movl\t%%ecx, 16(%3)\n\t"
; 3221 :         "movl\t20(%1), %%ecx\n\t"
; 3222 :         "adcl\t20(%2), %%ecx\n\t"
; 3223 :         "movl\t%%ecx, 20(%3)\n\t"
; 3224 :         "movl\t24(%1), %%ecx\n\t"
; 3225 :         "adcl\t24(%2), %%ecx\n\t"
; 3226 :         "movl\t%%ecx, 24(%3)\n\t"
; 3227 :         "movl\t28(%1), %%ecx\n\t"
; 3228 :         "adcl\t28(%2), %%ecx\n\t"
; 3229 :         "movl\t%%ecx, 28(%3)\n\t"
; 3230 :         "setc\t%0"
; 3231 :         : "+r"(c), "+r"(xp), "+r"(yp), "+r"(zp)
; 3232 :         :
; 3233 :         : "cc", "memory", "%ecx"
; 3234 : );
; 3235 : #elif defined(_M_IX64)
; 3236 :     __asm__ volatile (
; 3237 :         "addb\t$-1, %0\n\t"
; 3238 :         "movq\t(%1), %%rcx\n\t"
; 3239 :         "adcq\t(%2), %%rcx\n\t"
; 3240 :         "movq\t%%rcx, (%3)\n\t"
; 3241 :         "movq\t8(%1), %%rcx\n\t"
; 3242 :         "adcq\t8(%2), %%rcx\n\t"
; 3243 :         "movq\t%%rcx, 8(%3)\n\t"
; 3244 :         "movq\t16(%1), %%rcx\n\t"
; 3245 :         "adcq\t16(%2), %%rcx\n\t"
; 3246 :         "movq\t%%rcx, 16(%3)\n\t"
; 3247 :         "movq\t24(%1), %%rcx\n\t"
; 3248 :         "adcq\t24(%2), %%rcx\n\t"
; 3249 :         "movq\t%%rcx, 24(%3)\n\t"
; 3250 :         "movq\t32(%1), %%rcx\n\t"
; 3251 :         "adcq\t32(%2), %%rcx\n\t"
; 3252 :         "movq\t%%rcx, 32(%3)\n\t"
; 3253 :         "movq\t40(%1), %%rcx\n\t"
; 3254 :         "adcq\t40(%2), %%rcx\n\t"
; 3255 :         "movq\t%%rcx, 40(%3)\n\t"
; 3256 :         "movq\t48(%1), %%rcx\n\t"
; 3257 :         "adcq\t48(%2), %%rcx\n\t"
; 3258 :         "movq\t%%rcx, 48(%3)\n\t"
; 3259 :         "movq\t56(%1), %%rcx\n\t"
; 3260 :         "adcq\t56(%2), %%rcx\n\t"
; 3261 :         "movq\t%%rcx, 56(%3)\n\t"
; 3262 :         "setc\t%0"
; 3263 :         : "+r"(c), "+r"(xp), "+r"(yp), "+r"(zp)
; 3264 :         :
; 3265 :         : "cc", "memory", "%rcx"
; 3266 : );
; 3267 : #else
; 3268 : #error unknown platform
; 3269 : #endif
; 3270 : #else
; 3271 : #error unknown compiler
; 3272 : #endif
; 3273 :     return (c);

	mov	al, BYTE PTR _c$[ebp]

; 3274 : }

	cmp	ebp, esp
	call	__RTC_CheckEsp
	pop	ebp
	ret	0
__ADD_8WORDS_ADC ENDP
_TEXT	ENDS
; Function compile flags: /Odtp /RTCsu
; File z:\sources\lunor\repos\rougemeilland\palmtree.math.core.uint\palmtree.math.core.uint\autogenerated_inline_func.h
_TEXT	SEGMENT
_c$ = 8							; size = 1
_xp$ = 12						; size = 4
_yp$ = 16						; size = 4
_zp$ = 20						; size = 4
__ADD_16WORDS_ADCX PROC

; 2205 : {

	push	ebp
	mov	ebp, esp
	mov	ecx, OFFSET __E05E7037_autogenerated_inline_func@h
	call	@__CheckForDebuggerJustMyCode@4

; 2206 : #ifdef _MSC_VER
; 2207 :     c = _ADDX_UNIT(c, xp[0], yp[0], &zp[0]);

	mov	eax, 4
	imul	ecx, eax, 0
	add	ecx, DWORD PTR _zp$[ebp]
	push	ecx
	mov	edx, 4
	imul	eax, edx, 0
	mov	ecx, DWORD PTR _yp$[ebp]
	mov	edx, DWORD PTR [ecx+eax]
	push	edx
	mov	eax, 4
	imul	ecx, eax, 0
	mov	edx, DWORD PTR _xp$[ebp]
	mov	eax, DWORD PTR [edx+ecx]
	push	eax
	movzx	ecx, BYTE PTR _c$[ebp]
	push	ecx
	call	__ADDX_UNIT
	add	esp, 16					; 00000010H
	mov	BYTE PTR _c$[ebp], al

; 2208 :     c = _ADDX_UNIT(c, xp[1], yp[1], &zp[1]);

	mov	edx, 4
	shl	edx, 0
	add	edx, DWORD PTR _zp$[ebp]
	push	edx
	mov	eax, 4
	shl	eax, 0
	mov	ecx, DWORD PTR _yp$[ebp]
	mov	edx, DWORD PTR [ecx+eax]
	push	edx
	mov	eax, 4
	shl	eax, 0
	mov	ecx, DWORD PTR _xp$[ebp]
	mov	edx, DWORD PTR [ecx+eax]
	push	edx
	movzx	eax, BYTE PTR _c$[ebp]
	push	eax
	call	__ADDX_UNIT
	add	esp, 16					; 00000010H
	mov	BYTE PTR _c$[ebp], al

; 2209 :     c = _ADDX_UNIT(c, xp[2], yp[2], &zp[2]);

	mov	ecx, 4
	shl	ecx, 1
	add	ecx, DWORD PTR _zp$[ebp]
	push	ecx
	mov	edx, 4
	shl	edx, 1
	mov	eax, DWORD PTR _yp$[ebp]
	mov	ecx, DWORD PTR [eax+edx]
	push	ecx
	mov	edx, 4
	shl	edx, 1
	mov	eax, DWORD PTR _xp$[ebp]
	mov	ecx, DWORD PTR [eax+edx]
	push	ecx
	movzx	edx, BYTE PTR _c$[ebp]
	push	edx
	call	__ADDX_UNIT
	add	esp, 16					; 00000010H
	mov	BYTE PTR _c$[ebp], al

; 2210 :     c = _ADDX_UNIT(c, xp[3], yp[3], &zp[3]);

	mov	eax, 4
	imul	ecx, eax, 3
	add	ecx, DWORD PTR _zp$[ebp]
	push	ecx
	mov	edx, 4
	imul	eax, edx, 3
	mov	ecx, DWORD PTR _yp$[ebp]
	mov	edx, DWORD PTR [ecx+eax]
	push	edx
	mov	eax, 4
	imul	ecx, eax, 3
	mov	edx, DWORD PTR _xp$[ebp]
	mov	eax, DWORD PTR [edx+ecx]
	push	eax
	movzx	ecx, BYTE PTR _c$[ebp]
	push	ecx
	call	__ADDX_UNIT
	add	esp, 16					; 00000010H
	mov	BYTE PTR _c$[ebp], al

; 2211 :     c = _ADDX_UNIT(c, xp[4], yp[4], &zp[4]);

	mov	edx, 4
	shl	edx, 2
	add	edx, DWORD PTR _zp$[ebp]
	push	edx
	mov	eax, 4
	shl	eax, 2
	mov	ecx, DWORD PTR _yp$[ebp]
	mov	edx, DWORD PTR [ecx+eax]
	push	edx
	mov	eax, 4
	shl	eax, 2
	mov	ecx, DWORD PTR _xp$[ebp]
	mov	edx, DWORD PTR [ecx+eax]
	push	edx
	movzx	eax, BYTE PTR _c$[ebp]
	push	eax
	call	__ADDX_UNIT
	add	esp, 16					; 00000010H
	mov	BYTE PTR _c$[ebp], al

; 2212 :     c = _ADDX_UNIT(c, xp[5], yp[5], &zp[5]);

	mov	ecx, 4
	imul	edx, ecx, 5
	add	edx, DWORD PTR _zp$[ebp]
	push	edx
	mov	eax, 4
	imul	ecx, eax, 5
	mov	edx, DWORD PTR _yp$[ebp]
	mov	eax, DWORD PTR [edx+ecx]
	push	eax
	mov	ecx, 4
	imul	edx, ecx, 5
	mov	eax, DWORD PTR _xp$[ebp]
	mov	ecx, DWORD PTR [eax+edx]
	push	ecx
	movzx	edx, BYTE PTR _c$[ebp]
	push	edx
	call	__ADDX_UNIT
	add	esp, 16					; 00000010H
	mov	BYTE PTR _c$[ebp], al

; 2213 :     c = _ADDX_UNIT(c, xp[6], yp[6], &zp[6]);

	mov	eax, 4
	imul	ecx, eax, 6
	add	ecx, DWORD PTR _zp$[ebp]
	push	ecx
	mov	edx, 4
	imul	eax, edx, 6
	mov	ecx, DWORD PTR _yp$[ebp]
	mov	edx, DWORD PTR [ecx+eax]
	push	edx
	mov	eax, 4
	imul	ecx, eax, 6
	mov	edx, DWORD PTR _xp$[ebp]
	mov	eax, DWORD PTR [edx+ecx]
	push	eax
	movzx	ecx, BYTE PTR _c$[ebp]
	push	ecx
	call	__ADDX_UNIT
	add	esp, 16					; 00000010H
	mov	BYTE PTR _c$[ebp], al

; 2214 :     c = _ADDX_UNIT(c, xp[7], yp[7], &zp[7]);

	mov	edx, 4
	imul	eax, edx, 7
	add	eax, DWORD PTR _zp$[ebp]
	push	eax
	mov	ecx, 4
	imul	edx, ecx, 7
	mov	eax, DWORD PTR _yp$[ebp]
	mov	ecx, DWORD PTR [eax+edx]
	push	ecx
	mov	edx, 4
	imul	eax, edx, 7
	mov	ecx, DWORD PTR _xp$[ebp]
	mov	edx, DWORD PTR [ecx+eax]
	push	edx
	movzx	eax, BYTE PTR _c$[ebp]
	push	eax
	call	__ADDX_UNIT
	add	esp, 16					; 00000010H
	mov	BYTE PTR _c$[ebp], al

; 2215 :     c = _ADDX_UNIT(c, xp[8], yp[8], &zp[8]);

	mov	ecx, 4
	shl	ecx, 3
	add	ecx, DWORD PTR _zp$[ebp]
	push	ecx
	mov	edx, 4
	shl	edx, 3
	mov	eax, DWORD PTR _yp$[ebp]
	mov	ecx, DWORD PTR [eax+edx]
	push	ecx
	mov	edx, 4
	shl	edx, 3
	mov	eax, DWORD PTR _xp$[ebp]
	mov	ecx, DWORD PTR [eax+edx]
	push	ecx
	movzx	edx, BYTE PTR _c$[ebp]
	push	edx
	call	__ADDX_UNIT
	add	esp, 16					; 00000010H
	mov	BYTE PTR _c$[ebp], al

; 2216 :     c = _ADDX_UNIT(c, xp[9], yp[9], &zp[9]);

	mov	eax, 4
	imul	ecx, eax, 9
	add	ecx, DWORD PTR _zp$[ebp]
	push	ecx
	mov	edx, 4
	imul	eax, edx, 9
	mov	ecx, DWORD PTR _yp$[ebp]
	mov	edx, DWORD PTR [ecx+eax]
	push	edx
	mov	eax, 4
	imul	ecx, eax, 9
	mov	edx, DWORD PTR _xp$[ebp]
	mov	eax, DWORD PTR [edx+ecx]
	push	eax
	movzx	ecx, BYTE PTR _c$[ebp]
	push	ecx
	call	__ADDX_UNIT
	add	esp, 16					; 00000010H
	mov	BYTE PTR _c$[ebp], al

; 2217 :     c = _ADDX_UNIT(c, xp[10], yp[10], &zp[10]);

	mov	edx, 4
	imul	eax, edx, 10
	add	eax, DWORD PTR _zp$[ebp]
	push	eax
	mov	ecx, 4
	imul	edx, ecx, 10
	mov	eax, DWORD PTR _yp$[ebp]
	mov	ecx, DWORD PTR [eax+edx]
	push	ecx
	mov	edx, 4
	imul	eax, edx, 10
	mov	ecx, DWORD PTR _xp$[ebp]
	mov	edx, DWORD PTR [ecx+eax]
	push	edx
	movzx	eax, BYTE PTR _c$[ebp]
	push	eax
	call	__ADDX_UNIT
	add	esp, 16					; 00000010H
	mov	BYTE PTR _c$[ebp], al

; 2218 :     c = _ADDX_UNIT(c, xp[11], yp[11], &zp[11]);

	mov	ecx, 4
	imul	edx, ecx, 11
	add	edx, DWORD PTR _zp$[ebp]
	push	edx
	mov	eax, 4
	imul	ecx, eax, 11
	mov	edx, DWORD PTR _yp$[ebp]
	mov	eax, DWORD PTR [edx+ecx]
	push	eax
	mov	ecx, 4
	imul	edx, ecx, 11
	mov	eax, DWORD PTR _xp$[ebp]
	mov	ecx, DWORD PTR [eax+edx]
	push	ecx
	movzx	edx, BYTE PTR _c$[ebp]
	push	edx
	call	__ADDX_UNIT
	add	esp, 16					; 00000010H
	mov	BYTE PTR _c$[ebp], al

; 2219 :     c = _ADDX_UNIT(c, xp[12], yp[12], &zp[12]);

	mov	eax, 4
	imul	ecx, eax, 12
	add	ecx, DWORD PTR _zp$[ebp]
	push	ecx
	mov	edx, 4
	imul	eax, edx, 12
	mov	ecx, DWORD PTR _yp$[ebp]
	mov	edx, DWORD PTR [ecx+eax]
	push	edx
	mov	eax, 4
	imul	ecx, eax, 12
	mov	edx, DWORD PTR _xp$[ebp]
	mov	eax, DWORD PTR [edx+ecx]
	push	eax
	movzx	ecx, BYTE PTR _c$[ebp]
	push	ecx
	call	__ADDX_UNIT
	add	esp, 16					; 00000010H
	mov	BYTE PTR _c$[ebp], al

; 2220 :     c = _ADDX_UNIT(c, xp[13], yp[13], &zp[13]);

	mov	edx, 4
	imul	eax, edx, 13
	add	eax, DWORD PTR _zp$[ebp]
	push	eax
	mov	ecx, 4
	imul	edx, ecx, 13
	mov	eax, DWORD PTR _yp$[ebp]
	mov	ecx, DWORD PTR [eax+edx]
	push	ecx
	mov	edx, 4
	imul	eax, edx, 13
	mov	ecx, DWORD PTR _xp$[ebp]
	mov	edx, DWORD PTR [ecx+eax]
	push	edx
	movzx	eax, BYTE PTR _c$[ebp]
	push	eax
	call	__ADDX_UNIT
	add	esp, 16					; 00000010H
	mov	BYTE PTR _c$[ebp], al

; 2221 :     c = _ADDX_UNIT(c, xp[14], yp[14], &zp[14]);

	mov	ecx, 4
	imul	edx, ecx, 14
	add	edx, DWORD PTR _zp$[ebp]
	push	edx
	mov	eax, 4
	imul	ecx, eax, 14
	mov	edx, DWORD PTR _yp$[ebp]
	mov	eax, DWORD PTR [edx+ecx]
	push	eax
	mov	ecx, 4
	imul	edx, ecx, 14
	mov	eax, DWORD PTR _xp$[ebp]
	mov	ecx, DWORD PTR [eax+edx]
	push	ecx
	movzx	edx, BYTE PTR _c$[ebp]
	push	edx
	call	__ADDX_UNIT
	add	esp, 16					; 00000010H
	mov	BYTE PTR _c$[ebp], al

; 2222 :     c = _ADDX_UNIT(c, xp[15], yp[15], &zp[15]);

	mov	eax, 4
	imul	ecx, eax, 15
	add	ecx, DWORD PTR _zp$[ebp]
	push	ecx
	mov	edx, 4
	imul	eax, edx, 15
	mov	ecx, DWORD PTR _yp$[ebp]
	mov	edx, DWORD PTR [ecx+eax]
	push	edx
	mov	eax, 4
	imul	ecx, eax, 15
	mov	edx, DWORD PTR _xp$[ebp]
	mov	eax, DWORD PTR [edx+ecx]
	push	eax
	movzx	ecx, BYTE PTR _c$[ebp]
	push	ecx
	call	__ADDX_UNIT
	add	esp, 16					; 00000010H
	mov	BYTE PTR _c$[ebp], al

; 2223 : #elif defined(__GNUC__)
; 2224 : #ifdef _M_IX86
; 2225 :     __asm__ volatile (
; 2226 :         "addb\t$-1, %0\n\t"
; 2227 :         "movl\t(%1), %%ecx\n\t"
; 2228 :         "adcxl\t(%2), %%ecx\n\t"
; 2229 :         "movl\t%%ecx, (%3)\n\t"
; 2230 :         "movl\t4(%1), %%ecx\n\t"
; 2231 :         "adcxl\t4(%2), %%ecx\n\t"
; 2232 :         "movl\t%%ecx, 4(%3)\n\t"
; 2233 :         "movl\t8(%1), %%ecx\n\t"
; 2234 :         "adcxl\t8(%2), %%ecx\n\t"
; 2235 :         "movl\t%%ecx, 8(%3)\n\t"
; 2236 :         "movl\t12(%1), %%ecx\n\t"
; 2237 :         "adcxl\t12(%2), %%ecx\n\t"
; 2238 :         "movl\t%%ecx, 12(%3)\n\t"
; 2239 :         "movl\t16(%1), %%ecx\n\t"
; 2240 :         "adcxl\t16(%2), %%ecx\n\t"
; 2241 :         "movl\t%%ecx, 16(%3)\n\t"
; 2242 :         "movl\t20(%1), %%ecx\n\t"
; 2243 :         "adcxl\t20(%2), %%ecx\n\t"
; 2244 :         "movl\t%%ecx, 20(%3)\n\t"
; 2245 :         "movl\t24(%1), %%ecx\n\t"
; 2246 :         "adcxl\t24(%2), %%ecx\n\t"
; 2247 :         "movl\t%%ecx, 24(%3)\n\t"
; 2248 :         "movl\t28(%1), %%ecx\n\t"
; 2249 :         "adcxl\t28(%2), %%ecx\n\t"
; 2250 :         "movl\t%%ecx, 28(%3)\n\t"
; 2251 :         "movl\t32(%1), %%ecx\n\t"
; 2252 :         "adcxl\t32(%2), %%ecx\n\t"
; 2253 :         "movl\t%%ecx, 32(%3)\n\t"
; 2254 :         "movl\t36(%1), %%ecx\n\t"
; 2255 :         "adcxl\t36(%2), %%ecx\n\t"
; 2256 :         "movl\t%%ecx, 36(%3)\n\t"
; 2257 :         "movl\t40(%1), %%ecx\n\t"
; 2258 :         "adcxl\t40(%2), %%ecx\n\t"
; 2259 :         "movl\t%%ecx, 40(%3)\n\t"
; 2260 :         "movl\t44(%1), %%ecx\n\t"
; 2261 :         "adcxl\t44(%2), %%ecx\n\t"
; 2262 :         "movl\t%%ecx, 44(%3)\n\t"
; 2263 :         "movl\t48(%1), %%ecx\n\t"
; 2264 :         "adcxl\t48(%2), %%ecx\n\t"
; 2265 :         "movl\t%%ecx, 48(%3)\n\t"
; 2266 :         "movl\t52(%1), %%ecx\n\t"
; 2267 :         "adcxl\t52(%2), %%ecx\n\t"
; 2268 :         "movl\t%%ecx, 52(%3)\n\t"
; 2269 :         "movl\t56(%1), %%ecx\n\t"
; 2270 :         "adcxl\t56(%2), %%ecx\n\t"
; 2271 :         "movl\t%%ecx, 56(%3)\n\t"
; 2272 :         "movl\t60(%1), %%ecx\n\t"
; 2273 :         "adcxl\t60(%2), %%ecx\n\t"
; 2274 :         "movl\t%%ecx, 60(%3)\n\t"
; 2275 :         "setc\t%0"
; 2276 :         : "+r"(c), "+r"(xp), "+r"(yp), "+r"(zp)
; 2277 :         :
; 2278 :         : "cc", "memory", "%ecx"
; 2279 : );
; 2280 : #elif defined(_M_IX64)
; 2281 :     __asm__ volatile (
; 2282 :         "addb\t$-1, %0\n\t"
; 2283 :         "movq\t(%1), %%rcx\n\t"
; 2284 :         "adcxq\t(%2), %%rcx\n\t"
; 2285 :         "movq\t%%rcx, (%3)\n\t"
; 2286 :         "movq\t8(%1), %%rcx\n\t"
; 2287 :         "adcxq\t8(%2), %%rcx\n\t"
; 2288 :         "movq\t%%rcx, 8(%3)\n\t"
; 2289 :         "movq\t16(%1), %%rcx\n\t"
; 2290 :         "adcxq\t16(%2), %%rcx\n\t"
; 2291 :         "movq\t%%rcx, 16(%3)\n\t"
; 2292 :         "movq\t24(%1), %%rcx\n\t"
; 2293 :         "adcxq\t24(%2), %%rcx\n\t"
; 2294 :         "movq\t%%rcx, 24(%3)\n\t"
; 2295 :         "movq\t32(%1), %%rcx\n\t"
; 2296 :         "adcxq\t32(%2), %%rcx\n\t"
; 2297 :         "movq\t%%rcx, 32(%3)\n\t"
; 2298 :         "movq\t40(%1), %%rcx\n\t"
; 2299 :         "adcxq\t40(%2), %%rcx\n\t"
; 2300 :         "movq\t%%rcx, 40(%3)\n\t"
; 2301 :         "movq\t48(%1), %%rcx\n\t"
; 2302 :         "adcxq\t48(%2), %%rcx\n\t"
; 2303 :         "movq\t%%rcx, 48(%3)\n\t"
; 2304 :         "movq\t56(%1), %%rcx\n\t"
; 2305 :         "adcxq\t56(%2), %%rcx\n\t"
; 2306 :         "movq\t%%rcx, 56(%3)\n\t"
; 2307 :         "movq\t64(%1), %%rcx\n\t"
; 2308 :         "adcxq\t64(%2), %%rcx\n\t"
; 2309 :         "movq\t%%rcx, 64(%3)\n\t"
; 2310 :         "movq\t72(%1), %%rcx\n\t"
; 2311 :         "adcxq\t72(%2), %%rcx\n\t"
; 2312 :         "movq\t%%rcx, 72(%3)\n\t"
; 2313 :         "movq\t80(%1), %%rcx\n\t"
; 2314 :         "adcxq\t80(%2), %%rcx\n\t"
; 2315 :         "movq\t%%rcx, 80(%3)\n\t"
; 2316 :         "movq\t88(%1), %%rcx\n\t"
; 2317 :         "adcxq\t88(%2), %%rcx\n\t"
; 2318 :         "movq\t%%rcx, 88(%3)\n\t"
; 2319 :         "movq\t96(%1), %%rcx\n\t"
; 2320 :         "adcxq\t96(%2), %%rcx\n\t"
; 2321 :         "movq\t%%rcx, 96(%3)\n\t"
; 2322 :         "movq\t104(%1), %%rcx\n\t"
; 2323 :         "adcxq\t104(%2), %%rcx\n\t"
; 2324 :         "movq\t%%rcx, 104(%3)\n\t"
; 2325 :         "movq\t112(%1), %%rcx\n\t"
; 2326 :         "adcxq\t112(%2), %%rcx\n\t"
; 2327 :         "movq\t%%rcx, 112(%3)\n\t"
; 2328 :         "movq\t120(%1), %%rcx\n\t"
; 2329 :         "adcxq\t120(%2), %%rcx\n\t"
; 2330 :         "movq\t%%rcx, 120(%3)\n\t"
; 2331 :         "setc\t%0"
; 2332 :         : "+r"(c), "+r"(xp), "+r"(yp), "+r"(zp)
; 2333 :         :
; 2334 :         : "cc", "memory", "%rcx"
; 2335 : );
; 2336 : #else
; 2337 : #error unknown platform
; 2338 : #endif
; 2339 : #else
; 2340 : #error unknown compiler
; 2341 : #endif
; 2342 :     return (c);

	mov	al, BYTE PTR _c$[ebp]

; 2343 : }

	cmp	ebp, esp
	call	__RTC_CheckEsp
	pop	ebp
	ret	0
__ADD_16WORDS_ADCX ENDP
_TEXT	ENDS
; Function compile flags: /Odtp /RTCsu
; File z:\sources\lunor\repos\rougemeilland\palmtree.math.core.uint\palmtree.math.core.uint\autogenerated_inline_func.h
_TEXT	SEGMENT
_c$ = 8							; size = 1
_xp$ = 12						; size = 4
_yp$ = 16						; size = 4
_zp$ = 20						; size = 4
__ADD_16WORDS_ADC PROC

; 2064 : {

	push	ebp
	mov	ebp, esp
	mov	ecx, OFFSET __E05E7037_autogenerated_inline_func@h
	call	@__CheckForDebuggerJustMyCode@4

; 2065 : #ifdef _MSC_VER
; 2066 :     c = _ADD_UNIT(c, xp[0], yp[0], &zp[0]);

	mov	eax, 4
	imul	ecx, eax, 0
	add	ecx, DWORD PTR _zp$[ebp]
	push	ecx
	mov	edx, 4
	imul	eax, edx, 0
	mov	ecx, DWORD PTR _yp$[ebp]
	mov	edx, DWORD PTR [ecx+eax]
	push	edx
	mov	eax, 4
	imul	ecx, eax, 0
	mov	edx, DWORD PTR _xp$[ebp]
	mov	eax, DWORD PTR [edx+ecx]
	push	eax
	movzx	ecx, BYTE PTR _c$[ebp]
	push	ecx
	call	__ADD_UNIT
	add	esp, 16					; 00000010H
	mov	BYTE PTR _c$[ebp], al

; 2067 :     c = _ADD_UNIT(c, xp[1], yp[1], &zp[1]);

	mov	edx, 4
	shl	edx, 0
	add	edx, DWORD PTR _zp$[ebp]
	push	edx
	mov	eax, 4
	shl	eax, 0
	mov	ecx, DWORD PTR _yp$[ebp]
	mov	edx, DWORD PTR [ecx+eax]
	push	edx
	mov	eax, 4
	shl	eax, 0
	mov	ecx, DWORD PTR _xp$[ebp]
	mov	edx, DWORD PTR [ecx+eax]
	push	edx
	movzx	eax, BYTE PTR _c$[ebp]
	push	eax
	call	__ADD_UNIT
	add	esp, 16					; 00000010H
	mov	BYTE PTR _c$[ebp], al

; 2068 :     c = _ADD_UNIT(c, xp[2], yp[2], &zp[2]);

	mov	ecx, 4
	shl	ecx, 1
	add	ecx, DWORD PTR _zp$[ebp]
	push	ecx
	mov	edx, 4
	shl	edx, 1
	mov	eax, DWORD PTR _yp$[ebp]
	mov	ecx, DWORD PTR [eax+edx]
	push	ecx
	mov	edx, 4
	shl	edx, 1
	mov	eax, DWORD PTR _xp$[ebp]
	mov	ecx, DWORD PTR [eax+edx]
	push	ecx
	movzx	edx, BYTE PTR _c$[ebp]
	push	edx
	call	__ADD_UNIT
	add	esp, 16					; 00000010H
	mov	BYTE PTR _c$[ebp], al

; 2069 :     c = _ADD_UNIT(c, xp[3], yp[3], &zp[3]);

	mov	eax, 4
	imul	ecx, eax, 3
	add	ecx, DWORD PTR _zp$[ebp]
	push	ecx
	mov	edx, 4
	imul	eax, edx, 3
	mov	ecx, DWORD PTR _yp$[ebp]
	mov	edx, DWORD PTR [ecx+eax]
	push	edx
	mov	eax, 4
	imul	ecx, eax, 3
	mov	edx, DWORD PTR _xp$[ebp]
	mov	eax, DWORD PTR [edx+ecx]
	push	eax
	movzx	ecx, BYTE PTR _c$[ebp]
	push	ecx
	call	__ADD_UNIT
	add	esp, 16					; 00000010H
	mov	BYTE PTR _c$[ebp], al

; 2070 :     c = _ADD_UNIT(c, xp[4], yp[4], &zp[4]);

	mov	edx, 4
	shl	edx, 2
	add	edx, DWORD PTR _zp$[ebp]
	push	edx
	mov	eax, 4
	shl	eax, 2
	mov	ecx, DWORD PTR _yp$[ebp]
	mov	edx, DWORD PTR [ecx+eax]
	push	edx
	mov	eax, 4
	shl	eax, 2
	mov	ecx, DWORD PTR _xp$[ebp]
	mov	edx, DWORD PTR [ecx+eax]
	push	edx
	movzx	eax, BYTE PTR _c$[ebp]
	push	eax
	call	__ADD_UNIT
	add	esp, 16					; 00000010H
	mov	BYTE PTR _c$[ebp], al

; 2071 :     c = _ADD_UNIT(c, xp[5], yp[5], &zp[5]);

	mov	ecx, 4
	imul	edx, ecx, 5
	add	edx, DWORD PTR _zp$[ebp]
	push	edx
	mov	eax, 4
	imul	ecx, eax, 5
	mov	edx, DWORD PTR _yp$[ebp]
	mov	eax, DWORD PTR [edx+ecx]
	push	eax
	mov	ecx, 4
	imul	edx, ecx, 5
	mov	eax, DWORD PTR _xp$[ebp]
	mov	ecx, DWORD PTR [eax+edx]
	push	ecx
	movzx	edx, BYTE PTR _c$[ebp]
	push	edx
	call	__ADD_UNIT
	add	esp, 16					; 00000010H
	mov	BYTE PTR _c$[ebp], al

; 2072 :     c = _ADD_UNIT(c, xp[6], yp[6], &zp[6]);

	mov	eax, 4
	imul	ecx, eax, 6
	add	ecx, DWORD PTR _zp$[ebp]
	push	ecx
	mov	edx, 4
	imul	eax, edx, 6
	mov	ecx, DWORD PTR _yp$[ebp]
	mov	edx, DWORD PTR [ecx+eax]
	push	edx
	mov	eax, 4
	imul	ecx, eax, 6
	mov	edx, DWORD PTR _xp$[ebp]
	mov	eax, DWORD PTR [edx+ecx]
	push	eax
	movzx	ecx, BYTE PTR _c$[ebp]
	push	ecx
	call	__ADD_UNIT
	add	esp, 16					; 00000010H
	mov	BYTE PTR _c$[ebp], al

; 2073 :     c = _ADD_UNIT(c, xp[7], yp[7], &zp[7]);

	mov	edx, 4
	imul	eax, edx, 7
	add	eax, DWORD PTR _zp$[ebp]
	push	eax
	mov	ecx, 4
	imul	edx, ecx, 7
	mov	eax, DWORD PTR _yp$[ebp]
	mov	ecx, DWORD PTR [eax+edx]
	push	ecx
	mov	edx, 4
	imul	eax, edx, 7
	mov	ecx, DWORD PTR _xp$[ebp]
	mov	edx, DWORD PTR [ecx+eax]
	push	edx
	movzx	eax, BYTE PTR _c$[ebp]
	push	eax
	call	__ADD_UNIT
	add	esp, 16					; 00000010H
	mov	BYTE PTR _c$[ebp], al

; 2074 :     c = _ADD_UNIT(c, xp[8], yp[8], &zp[8]);

	mov	ecx, 4
	shl	ecx, 3
	add	ecx, DWORD PTR _zp$[ebp]
	push	ecx
	mov	edx, 4
	shl	edx, 3
	mov	eax, DWORD PTR _yp$[ebp]
	mov	ecx, DWORD PTR [eax+edx]
	push	ecx
	mov	edx, 4
	shl	edx, 3
	mov	eax, DWORD PTR _xp$[ebp]
	mov	ecx, DWORD PTR [eax+edx]
	push	ecx
	movzx	edx, BYTE PTR _c$[ebp]
	push	edx
	call	__ADD_UNIT
	add	esp, 16					; 00000010H
	mov	BYTE PTR _c$[ebp], al

; 2075 :     c = _ADD_UNIT(c, xp[9], yp[9], &zp[9]);

	mov	eax, 4
	imul	ecx, eax, 9
	add	ecx, DWORD PTR _zp$[ebp]
	push	ecx
	mov	edx, 4
	imul	eax, edx, 9
	mov	ecx, DWORD PTR _yp$[ebp]
	mov	edx, DWORD PTR [ecx+eax]
	push	edx
	mov	eax, 4
	imul	ecx, eax, 9
	mov	edx, DWORD PTR _xp$[ebp]
	mov	eax, DWORD PTR [edx+ecx]
	push	eax
	movzx	ecx, BYTE PTR _c$[ebp]
	push	ecx
	call	__ADD_UNIT
	add	esp, 16					; 00000010H
	mov	BYTE PTR _c$[ebp], al

; 2076 :     c = _ADD_UNIT(c, xp[10], yp[10], &zp[10]);

	mov	edx, 4
	imul	eax, edx, 10
	add	eax, DWORD PTR _zp$[ebp]
	push	eax
	mov	ecx, 4
	imul	edx, ecx, 10
	mov	eax, DWORD PTR _yp$[ebp]
	mov	ecx, DWORD PTR [eax+edx]
	push	ecx
	mov	edx, 4
	imul	eax, edx, 10
	mov	ecx, DWORD PTR _xp$[ebp]
	mov	edx, DWORD PTR [ecx+eax]
	push	edx
	movzx	eax, BYTE PTR _c$[ebp]
	push	eax
	call	__ADD_UNIT
	add	esp, 16					; 00000010H
	mov	BYTE PTR _c$[ebp], al

; 2077 :     c = _ADD_UNIT(c, xp[11], yp[11], &zp[11]);

	mov	ecx, 4
	imul	edx, ecx, 11
	add	edx, DWORD PTR _zp$[ebp]
	push	edx
	mov	eax, 4
	imul	ecx, eax, 11
	mov	edx, DWORD PTR _yp$[ebp]
	mov	eax, DWORD PTR [edx+ecx]
	push	eax
	mov	ecx, 4
	imul	edx, ecx, 11
	mov	eax, DWORD PTR _xp$[ebp]
	mov	ecx, DWORD PTR [eax+edx]
	push	ecx
	movzx	edx, BYTE PTR _c$[ebp]
	push	edx
	call	__ADD_UNIT
	add	esp, 16					; 00000010H
	mov	BYTE PTR _c$[ebp], al

; 2078 :     c = _ADD_UNIT(c, xp[12], yp[12], &zp[12]);

	mov	eax, 4
	imul	ecx, eax, 12
	add	ecx, DWORD PTR _zp$[ebp]
	push	ecx
	mov	edx, 4
	imul	eax, edx, 12
	mov	ecx, DWORD PTR _yp$[ebp]
	mov	edx, DWORD PTR [ecx+eax]
	push	edx
	mov	eax, 4
	imul	ecx, eax, 12
	mov	edx, DWORD PTR _xp$[ebp]
	mov	eax, DWORD PTR [edx+ecx]
	push	eax
	movzx	ecx, BYTE PTR _c$[ebp]
	push	ecx
	call	__ADD_UNIT
	add	esp, 16					; 00000010H
	mov	BYTE PTR _c$[ebp], al

; 2079 :     c = _ADD_UNIT(c, xp[13], yp[13], &zp[13]);

	mov	edx, 4
	imul	eax, edx, 13
	add	eax, DWORD PTR _zp$[ebp]
	push	eax
	mov	ecx, 4
	imul	edx, ecx, 13
	mov	eax, DWORD PTR _yp$[ebp]
	mov	ecx, DWORD PTR [eax+edx]
	push	ecx
	mov	edx, 4
	imul	eax, edx, 13
	mov	ecx, DWORD PTR _xp$[ebp]
	mov	edx, DWORD PTR [ecx+eax]
	push	edx
	movzx	eax, BYTE PTR _c$[ebp]
	push	eax
	call	__ADD_UNIT
	add	esp, 16					; 00000010H
	mov	BYTE PTR _c$[ebp], al

; 2080 :     c = _ADD_UNIT(c, xp[14], yp[14], &zp[14]);

	mov	ecx, 4
	imul	edx, ecx, 14
	add	edx, DWORD PTR _zp$[ebp]
	push	edx
	mov	eax, 4
	imul	ecx, eax, 14
	mov	edx, DWORD PTR _yp$[ebp]
	mov	eax, DWORD PTR [edx+ecx]
	push	eax
	mov	ecx, 4
	imul	edx, ecx, 14
	mov	eax, DWORD PTR _xp$[ebp]
	mov	ecx, DWORD PTR [eax+edx]
	push	ecx
	movzx	edx, BYTE PTR _c$[ebp]
	push	edx
	call	__ADD_UNIT
	add	esp, 16					; 00000010H
	mov	BYTE PTR _c$[ebp], al

; 2081 :     c = _ADD_UNIT(c, xp[15], yp[15], &zp[15]);

	mov	eax, 4
	imul	ecx, eax, 15
	add	ecx, DWORD PTR _zp$[ebp]
	push	ecx
	mov	edx, 4
	imul	eax, edx, 15
	mov	ecx, DWORD PTR _yp$[ebp]
	mov	edx, DWORD PTR [ecx+eax]
	push	edx
	mov	eax, 4
	imul	ecx, eax, 15
	mov	edx, DWORD PTR _xp$[ebp]
	mov	eax, DWORD PTR [edx+ecx]
	push	eax
	movzx	ecx, BYTE PTR _c$[ebp]
	push	ecx
	call	__ADD_UNIT
	add	esp, 16					; 00000010H
	mov	BYTE PTR _c$[ebp], al

; 2082 : #elif defined(__GNUC__)
; 2083 : #ifdef _M_IX86
; 2084 :     __asm__ volatile (
; 2085 :         "addb\t$-1, %0\n\t"
; 2086 :         "movl\t(%1), %%ecx\n\t"
; 2087 :         "adcl\t(%2), %%ecx\n\t"
; 2088 :         "movl\t%%ecx, (%3)\n\t"
; 2089 :         "movl\t4(%1), %%ecx\n\t"
; 2090 :         "adcl\t4(%2), %%ecx\n\t"
; 2091 :         "movl\t%%ecx, 4(%3)\n\t"
; 2092 :         "movl\t8(%1), %%ecx\n\t"
; 2093 :         "adcl\t8(%2), %%ecx\n\t"
; 2094 :         "movl\t%%ecx, 8(%3)\n\t"
; 2095 :         "movl\t12(%1), %%ecx\n\t"
; 2096 :         "adcl\t12(%2), %%ecx\n\t"
; 2097 :         "movl\t%%ecx, 12(%3)\n\t"
; 2098 :         "movl\t16(%1), %%ecx\n\t"
; 2099 :         "adcl\t16(%2), %%ecx\n\t"
; 2100 :         "movl\t%%ecx, 16(%3)\n\t"
; 2101 :         "movl\t20(%1), %%ecx\n\t"
; 2102 :         "adcl\t20(%2), %%ecx\n\t"
; 2103 :         "movl\t%%ecx, 20(%3)\n\t"
; 2104 :         "movl\t24(%1), %%ecx\n\t"
; 2105 :         "adcl\t24(%2), %%ecx\n\t"
; 2106 :         "movl\t%%ecx, 24(%3)\n\t"
; 2107 :         "movl\t28(%1), %%ecx\n\t"
; 2108 :         "adcl\t28(%2), %%ecx\n\t"
; 2109 :         "movl\t%%ecx, 28(%3)\n\t"
; 2110 :         "movl\t32(%1), %%ecx\n\t"
; 2111 :         "adcl\t32(%2), %%ecx\n\t"
; 2112 :         "movl\t%%ecx, 32(%3)\n\t"
; 2113 :         "movl\t36(%1), %%ecx\n\t"
; 2114 :         "adcl\t36(%2), %%ecx\n\t"
; 2115 :         "movl\t%%ecx, 36(%3)\n\t"
; 2116 :         "movl\t40(%1), %%ecx\n\t"
; 2117 :         "adcl\t40(%2), %%ecx\n\t"
; 2118 :         "movl\t%%ecx, 40(%3)\n\t"
; 2119 :         "movl\t44(%1), %%ecx\n\t"
; 2120 :         "adcl\t44(%2), %%ecx\n\t"
; 2121 :         "movl\t%%ecx, 44(%3)\n\t"
; 2122 :         "movl\t48(%1), %%ecx\n\t"
; 2123 :         "adcl\t48(%2), %%ecx\n\t"
; 2124 :         "movl\t%%ecx, 48(%3)\n\t"
; 2125 :         "movl\t52(%1), %%ecx\n\t"
; 2126 :         "adcl\t52(%2), %%ecx\n\t"
; 2127 :         "movl\t%%ecx, 52(%3)\n\t"
; 2128 :         "movl\t56(%1), %%ecx\n\t"
; 2129 :         "adcl\t56(%2), %%ecx\n\t"
; 2130 :         "movl\t%%ecx, 56(%3)\n\t"
; 2131 :         "movl\t60(%1), %%ecx\n\t"
; 2132 :         "adcl\t60(%2), %%ecx\n\t"
; 2133 :         "movl\t%%ecx, 60(%3)\n\t"
; 2134 :         "setc\t%0"
; 2135 :         : "+r"(c), "+r"(xp), "+r"(yp), "+r"(zp)
; 2136 :         :
; 2137 :         : "cc", "memory", "%ecx"
; 2138 : );
; 2139 : #elif defined(_M_IX64)
; 2140 :     __asm__ volatile (
; 2141 :         "addb\t$-1, %0\n\t"
; 2142 :         "movq\t(%1), %%rcx\n\t"
; 2143 :         "adcq\t(%2), %%rcx\n\t"
; 2144 :         "movq\t%%rcx, (%3)\n\t"
; 2145 :         "movq\t8(%1), %%rcx\n\t"
; 2146 :         "adcq\t8(%2), %%rcx\n\t"
; 2147 :         "movq\t%%rcx, 8(%3)\n\t"
; 2148 :         "movq\t16(%1), %%rcx\n\t"
; 2149 :         "adcq\t16(%2), %%rcx\n\t"
; 2150 :         "movq\t%%rcx, 16(%3)\n\t"
; 2151 :         "movq\t24(%1), %%rcx\n\t"
; 2152 :         "adcq\t24(%2), %%rcx\n\t"
; 2153 :         "movq\t%%rcx, 24(%3)\n\t"
; 2154 :         "movq\t32(%1), %%rcx\n\t"
; 2155 :         "adcq\t32(%2), %%rcx\n\t"
; 2156 :         "movq\t%%rcx, 32(%3)\n\t"
; 2157 :         "movq\t40(%1), %%rcx\n\t"
; 2158 :         "adcq\t40(%2), %%rcx\n\t"
; 2159 :         "movq\t%%rcx, 40(%3)\n\t"
; 2160 :         "movq\t48(%1), %%rcx\n\t"
; 2161 :         "adcq\t48(%2), %%rcx\n\t"
; 2162 :         "movq\t%%rcx, 48(%3)\n\t"
; 2163 :         "movq\t56(%1), %%rcx\n\t"
; 2164 :         "adcq\t56(%2), %%rcx\n\t"
; 2165 :         "movq\t%%rcx, 56(%3)\n\t"
; 2166 :         "movq\t64(%1), %%rcx\n\t"
; 2167 :         "adcq\t64(%2), %%rcx\n\t"
; 2168 :         "movq\t%%rcx, 64(%3)\n\t"
; 2169 :         "movq\t72(%1), %%rcx\n\t"
; 2170 :         "adcq\t72(%2), %%rcx\n\t"
; 2171 :         "movq\t%%rcx, 72(%3)\n\t"
; 2172 :         "movq\t80(%1), %%rcx\n\t"
; 2173 :         "adcq\t80(%2), %%rcx\n\t"
; 2174 :         "movq\t%%rcx, 80(%3)\n\t"
; 2175 :         "movq\t88(%1), %%rcx\n\t"
; 2176 :         "adcq\t88(%2), %%rcx\n\t"
; 2177 :         "movq\t%%rcx, 88(%3)\n\t"
; 2178 :         "movq\t96(%1), %%rcx\n\t"
; 2179 :         "adcq\t96(%2), %%rcx\n\t"
; 2180 :         "movq\t%%rcx, 96(%3)\n\t"
; 2181 :         "movq\t104(%1), %%rcx\n\t"
; 2182 :         "adcq\t104(%2), %%rcx\n\t"
; 2183 :         "movq\t%%rcx, 104(%3)\n\t"
; 2184 :         "movq\t112(%1), %%rcx\n\t"
; 2185 :         "adcq\t112(%2), %%rcx\n\t"
; 2186 :         "movq\t%%rcx, 112(%3)\n\t"
; 2187 :         "movq\t120(%1), %%rcx\n\t"
; 2188 :         "adcq\t120(%2), %%rcx\n\t"
; 2189 :         "movq\t%%rcx, 120(%3)\n\t"
; 2190 :         "setc\t%0"
; 2191 :         : "+r"(c), "+r"(xp), "+r"(yp), "+r"(zp)
; 2192 :         :
; 2193 :         : "cc", "memory", "%rcx"
; 2194 : );
; 2195 : #else
; 2196 : #error unknown platform
; 2197 : #endif
; 2198 : #else
; 2199 : #error unknown compiler
; 2200 : #endif
; 2201 :     return (c);

	mov	al, BYTE PTR _c$[ebp]

; 2202 : }

	cmp	ebp, esp
	call	__RTC_CheckEsp
	pop	ebp
	ret	0
__ADD_16WORDS_ADC ENDP
_TEXT	ENDS
; Function compile flags: /Odtp /RTCsu
; File z:\sources\lunor\repos\rougemeilland\palmtree.math.core.uint\palmtree.math.core.uint\autogenerated_inline_func.h
_TEXT	SEGMENT
_c$ = 8							; size = 1
_xp$ = 12						; size = 4
_yp$ = 16						; size = 4
_zp$ = 20						; size = 4
__ADD_32WORDS_ADCX PROC

; 293  : {

	push	ebp
	mov	ebp, esp
	mov	ecx, OFFSET __E05E7037_autogenerated_inline_func@h
	call	@__CheckForDebuggerJustMyCode@4

; 294  : #ifdef _MSC_VER
; 295  :     c = _ADDX_UNIT(c, xp[0], yp[0], &zp[0]);

	mov	eax, 4
	imul	ecx, eax, 0
	add	ecx, DWORD PTR _zp$[ebp]
	push	ecx
	mov	edx, 4
	imul	eax, edx, 0
	mov	ecx, DWORD PTR _yp$[ebp]
	mov	edx, DWORD PTR [ecx+eax]
	push	edx
	mov	eax, 4
	imul	ecx, eax, 0
	mov	edx, DWORD PTR _xp$[ebp]
	mov	eax, DWORD PTR [edx+ecx]
	push	eax
	movzx	ecx, BYTE PTR _c$[ebp]
	push	ecx
	call	__ADDX_UNIT
	add	esp, 16					; 00000010H
	mov	BYTE PTR _c$[ebp], al

; 296  :     c = _ADDX_UNIT(c, xp[1], yp[1], &zp[1]);

	mov	edx, 4
	shl	edx, 0
	add	edx, DWORD PTR _zp$[ebp]
	push	edx
	mov	eax, 4
	shl	eax, 0
	mov	ecx, DWORD PTR _yp$[ebp]
	mov	edx, DWORD PTR [ecx+eax]
	push	edx
	mov	eax, 4
	shl	eax, 0
	mov	ecx, DWORD PTR _xp$[ebp]
	mov	edx, DWORD PTR [ecx+eax]
	push	edx
	movzx	eax, BYTE PTR _c$[ebp]
	push	eax
	call	__ADDX_UNIT
	add	esp, 16					; 00000010H
	mov	BYTE PTR _c$[ebp], al

; 297  :     c = _ADDX_UNIT(c, xp[2], yp[2], &zp[2]);

	mov	ecx, 4
	shl	ecx, 1
	add	ecx, DWORD PTR _zp$[ebp]
	push	ecx
	mov	edx, 4
	shl	edx, 1
	mov	eax, DWORD PTR _yp$[ebp]
	mov	ecx, DWORD PTR [eax+edx]
	push	ecx
	mov	edx, 4
	shl	edx, 1
	mov	eax, DWORD PTR _xp$[ebp]
	mov	ecx, DWORD PTR [eax+edx]
	push	ecx
	movzx	edx, BYTE PTR _c$[ebp]
	push	edx
	call	__ADDX_UNIT
	add	esp, 16					; 00000010H
	mov	BYTE PTR _c$[ebp], al

; 298  :     c = _ADDX_UNIT(c, xp[3], yp[3], &zp[3]);

	mov	eax, 4
	imul	ecx, eax, 3
	add	ecx, DWORD PTR _zp$[ebp]
	push	ecx
	mov	edx, 4
	imul	eax, edx, 3
	mov	ecx, DWORD PTR _yp$[ebp]
	mov	edx, DWORD PTR [ecx+eax]
	push	edx
	mov	eax, 4
	imul	ecx, eax, 3
	mov	edx, DWORD PTR _xp$[ebp]
	mov	eax, DWORD PTR [edx+ecx]
	push	eax
	movzx	ecx, BYTE PTR _c$[ebp]
	push	ecx
	call	__ADDX_UNIT
	add	esp, 16					; 00000010H
	mov	BYTE PTR _c$[ebp], al

; 299  :     c = _ADDX_UNIT(c, xp[4], yp[4], &zp[4]);

	mov	edx, 4
	shl	edx, 2
	add	edx, DWORD PTR _zp$[ebp]
	push	edx
	mov	eax, 4
	shl	eax, 2
	mov	ecx, DWORD PTR _yp$[ebp]
	mov	edx, DWORD PTR [ecx+eax]
	push	edx
	mov	eax, 4
	shl	eax, 2
	mov	ecx, DWORD PTR _xp$[ebp]
	mov	edx, DWORD PTR [ecx+eax]
	push	edx
	movzx	eax, BYTE PTR _c$[ebp]
	push	eax
	call	__ADDX_UNIT
	add	esp, 16					; 00000010H
	mov	BYTE PTR _c$[ebp], al

; 300  :     c = _ADDX_UNIT(c, xp[5], yp[5], &zp[5]);

	mov	ecx, 4
	imul	edx, ecx, 5
	add	edx, DWORD PTR _zp$[ebp]
	push	edx
	mov	eax, 4
	imul	ecx, eax, 5
	mov	edx, DWORD PTR _yp$[ebp]
	mov	eax, DWORD PTR [edx+ecx]
	push	eax
	mov	ecx, 4
	imul	edx, ecx, 5
	mov	eax, DWORD PTR _xp$[ebp]
	mov	ecx, DWORD PTR [eax+edx]
	push	ecx
	movzx	edx, BYTE PTR _c$[ebp]
	push	edx
	call	__ADDX_UNIT
	add	esp, 16					; 00000010H
	mov	BYTE PTR _c$[ebp], al

; 301  :     c = _ADDX_UNIT(c, xp[6], yp[6], &zp[6]);

	mov	eax, 4
	imul	ecx, eax, 6
	add	ecx, DWORD PTR _zp$[ebp]
	push	ecx
	mov	edx, 4
	imul	eax, edx, 6
	mov	ecx, DWORD PTR _yp$[ebp]
	mov	edx, DWORD PTR [ecx+eax]
	push	edx
	mov	eax, 4
	imul	ecx, eax, 6
	mov	edx, DWORD PTR _xp$[ebp]
	mov	eax, DWORD PTR [edx+ecx]
	push	eax
	movzx	ecx, BYTE PTR _c$[ebp]
	push	ecx
	call	__ADDX_UNIT
	add	esp, 16					; 00000010H
	mov	BYTE PTR _c$[ebp], al

; 302  :     c = _ADDX_UNIT(c, xp[7], yp[7], &zp[7]);

	mov	edx, 4
	imul	eax, edx, 7
	add	eax, DWORD PTR _zp$[ebp]
	push	eax
	mov	ecx, 4
	imul	edx, ecx, 7
	mov	eax, DWORD PTR _yp$[ebp]
	mov	ecx, DWORD PTR [eax+edx]
	push	ecx
	mov	edx, 4
	imul	eax, edx, 7
	mov	ecx, DWORD PTR _xp$[ebp]
	mov	edx, DWORD PTR [ecx+eax]
	push	edx
	movzx	eax, BYTE PTR _c$[ebp]
	push	eax
	call	__ADDX_UNIT
	add	esp, 16					; 00000010H
	mov	BYTE PTR _c$[ebp], al

; 303  :     c = _ADDX_UNIT(c, xp[8], yp[8], &zp[8]);

	mov	ecx, 4
	shl	ecx, 3
	add	ecx, DWORD PTR _zp$[ebp]
	push	ecx
	mov	edx, 4
	shl	edx, 3
	mov	eax, DWORD PTR _yp$[ebp]
	mov	ecx, DWORD PTR [eax+edx]
	push	ecx
	mov	edx, 4
	shl	edx, 3
	mov	eax, DWORD PTR _xp$[ebp]
	mov	ecx, DWORD PTR [eax+edx]
	push	ecx
	movzx	edx, BYTE PTR _c$[ebp]
	push	edx
	call	__ADDX_UNIT
	add	esp, 16					; 00000010H
	mov	BYTE PTR _c$[ebp], al

; 304  :     c = _ADDX_UNIT(c, xp[9], yp[9], &zp[9]);

	mov	eax, 4
	imul	ecx, eax, 9
	add	ecx, DWORD PTR _zp$[ebp]
	push	ecx
	mov	edx, 4
	imul	eax, edx, 9
	mov	ecx, DWORD PTR _yp$[ebp]
	mov	edx, DWORD PTR [ecx+eax]
	push	edx
	mov	eax, 4
	imul	ecx, eax, 9
	mov	edx, DWORD PTR _xp$[ebp]
	mov	eax, DWORD PTR [edx+ecx]
	push	eax
	movzx	ecx, BYTE PTR _c$[ebp]
	push	ecx
	call	__ADDX_UNIT
	add	esp, 16					; 00000010H
	mov	BYTE PTR _c$[ebp], al

; 305  :     c = _ADDX_UNIT(c, xp[10], yp[10], &zp[10]);

	mov	edx, 4
	imul	eax, edx, 10
	add	eax, DWORD PTR _zp$[ebp]
	push	eax
	mov	ecx, 4
	imul	edx, ecx, 10
	mov	eax, DWORD PTR _yp$[ebp]
	mov	ecx, DWORD PTR [eax+edx]
	push	ecx
	mov	edx, 4
	imul	eax, edx, 10
	mov	ecx, DWORD PTR _xp$[ebp]
	mov	edx, DWORD PTR [ecx+eax]
	push	edx
	movzx	eax, BYTE PTR _c$[ebp]
	push	eax
	call	__ADDX_UNIT
	add	esp, 16					; 00000010H
	mov	BYTE PTR _c$[ebp], al

; 306  :     c = _ADDX_UNIT(c, xp[11], yp[11], &zp[11]);

	mov	ecx, 4
	imul	edx, ecx, 11
	add	edx, DWORD PTR _zp$[ebp]
	push	edx
	mov	eax, 4
	imul	ecx, eax, 11
	mov	edx, DWORD PTR _yp$[ebp]
	mov	eax, DWORD PTR [edx+ecx]
	push	eax
	mov	ecx, 4
	imul	edx, ecx, 11
	mov	eax, DWORD PTR _xp$[ebp]
	mov	ecx, DWORD PTR [eax+edx]
	push	ecx
	movzx	edx, BYTE PTR _c$[ebp]
	push	edx
	call	__ADDX_UNIT
	add	esp, 16					; 00000010H
	mov	BYTE PTR _c$[ebp], al

; 307  :     c = _ADDX_UNIT(c, xp[12], yp[12], &zp[12]);

	mov	eax, 4
	imul	ecx, eax, 12
	add	ecx, DWORD PTR _zp$[ebp]
	push	ecx
	mov	edx, 4
	imul	eax, edx, 12
	mov	ecx, DWORD PTR _yp$[ebp]
	mov	edx, DWORD PTR [ecx+eax]
	push	edx
	mov	eax, 4
	imul	ecx, eax, 12
	mov	edx, DWORD PTR _xp$[ebp]
	mov	eax, DWORD PTR [edx+ecx]
	push	eax
	movzx	ecx, BYTE PTR _c$[ebp]
	push	ecx
	call	__ADDX_UNIT
	add	esp, 16					; 00000010H
	mov	BYTE PTR _c$[ebp], al

; 308  :     c = _ADDX_UNIT(c, xp[13], yp[13], &zp[13]);

	mov	edx, 4
	imul	eax, edx, 13
	add	eax, DWORD PTR _zp$[ebp]
	push	eax
	mov	ecx, 4
	imul	edx, ecx, 13
	mov	eax, DWORD PTR _yp$[ebp]
	mov	ecx, DWORD PTR [eax+edx]
	push	ecx
	mov	edx, 4
	imul	eax, edx, 13
	mov	ecx, DWORD PTR _xp$[ebp]
	mov	edx, DWORD PTR [ecx+eax]
	push	edx
	movzx	eax, BYTE PTR _c$[ebp]
	push	eax
	call	__ADDX_UNIT
	add	esp, 16					; 00000010H
	mov	BYTE PTR _c$[ebp], al

; 309  :     c = _ADDX_UNIT(c, xp[14], yp[14], &zp[14]);

	mov	ecx, 4
	imul	edx, ecx, 14
	add	edx, DWORD PTR _zp$[ebp]
	push	edx
	mov	eax, 4
	imul	ecx, eax, 14
	mov	edx, DWORD PTR _yp$[ebp]
	mov	eax, DWORD PTR [edx+ecx]
	push	eax
	mov	ecx, 4
	imul	edx, ecx, 14
	mov	eax, DWORD PTR _xp$[ebp]
	mov	ecx, DWORD PTR [eax+edx]
	push	ecx
	movzx	edx, BYTE PTR _c$[ebp]
	push	edx
	call	__ADDX_UNIT
	add	esp, 16					; 00000010H
	mov	BYTE PTR _c$[ebp], al

; 310  :     c = _ADDX_UNIT(c, xp[15], yp[15], &zp[15]);

	mov	eax, 4
	imul	ecx, eax, 15
	add	ecx, DWORD PTR _zp$[ebp]
	push	ecx
	mov	edx, 4
	imul	eax, edx, 15
	mov	ecx, DWORD PTR _yp$[ebp]
	mov	edx, DWORD PTR [ecx+eax]
	push	edx
	mov	eax, 4
	imul	ecx, eax, 15
	mov	edx, DWORD PTR _xp$[ebp]
	mov	eax, DWORD PTR [edx+ecx]
	push	eax
	movzx	ecx, BYTE PTR _c$[ebp]
	push	ecx
	call	__ADDX_UNIT
	add	esp, 16					; 00000010H
	mov	BYTE PTR _c$[ebp], al

; 311  :     c = _ADDX_UNIT(c, xp[16], yp[16], &zp[16]);

	mov	edx, 4
	shl	edx, 4
	add	edx, DWORD PTR _zp$[ebp]
	push	edx
	mov	eax, 4
	shl	eax, 4
	mov	ecx, DWORD PTR _yp$[ebp]
	mov	edx, DWORD PTR [ecx+eax]
	push	edx
	mov	eax, 4
	shl	eax, 4
	mov	ecx, DWORD PTR _xp$[ebp]
	mov	edx, DWORD PTR [ecx+eax]
	push	edx
	movzx	eax, BYTE PTR _c$[ebp]
	push	eax
	call	__ADDX_UNIT
	add	esp, 16					; 00000010H
	mov	BYTE PTR _c$[ebp], al

; 312  :     c = _ADDX_UNIT(c, xp[17], yp[17], &zp[17]);

	mov	ecx, 4
	imul	edx, ecx, 17
	add	edx, DWORD PTR _zp$[ebp]
	push	edx
	mov	eax, 4
	imul	ecx, eax, 17
	mov	edx, DWORD PTR _yp$[ebp]
	mov	eax, DWORD PTR [edx+ecx]
	push	eax
	mov	ecx, 4
	imul	edx, ecx, 17
	mov	eax, DWORD PTR _xp$[ebp]
	mov	ecx, DWORD PTR [eax+edx]
	push	ecx
	movzx	edx, BYTE PTR _c$[ebp]
	push	edx
	call	__ADDX_UNIT
	add	esp, 16					; 00000010H
	mov	BYTE PTR _c$[ebp], al

; 313  :     c = _ADDX_UNIT(c, xp[18], yp[18], &zp[18]);

	mov	eax, 4
	imul	ecx, eax, 18
	add	ecx, DWORD PTR _zp$[ebp]
	push	ecx
	mov	edx, 4
	imul	eax, edx, 18
	mov	ecx, DWORD PTR _yp$[ebp]
	mov	edx, DWORD PTR [ecx+eax]
	push	edx
	mov	eax, 4
	imul	ecx, eax, 18
	mov	edx, DWORD PTR _xp$[ebp]
	mov	eax, DWORD PTR [edx+ecx]
	push	eax
	movzx	ecx, BYTE PTR _c$[ebp]
	push	ecx
	call	__ADDX_UNIT
	add	esp, 16					; 00000010H
	mov	BYTE PTR _c$[ebp], al

; 314  :     c = _ADDX_UNIT(c, xp[19], yp[19], &zp[19]);

	mov	edx, 4
	imul	eax, edx, 19
	add	eax, DWORD PTR _zp$[ebp]
	push	eax
	mov	ecx, 4
	imul	edx, ecx, 19
	mov	eax, DWORD PTR _yp$[ebp]
	mov	ecx, DWORD PTR [eax+edx]
	push	ecx
	mov	edx, 4
	imul	eax, edx, 19
	mov	ecx, DWORD PTR _xp$[ebp]
	mov	edx, DWORD PTR [ecx+eax]
	push	edx
	movzx	eax, BYTE PTR _c$[ebp]
	push	eax
	call	__ADDX_UNIT
	add	esp, 16					; 00000010H
	mov	BYTE PTR _c$[ebp], al

; 315  :     c = _ADDX_UNIT(c, xp[20], yp[20], &zp[20]);

	mov	ecx, 4
	imul	edx, ecx, 20
	add	edx, DWORD PTR _zp$[ebp]
	push	edx
	mov	eax, 4
	imul	ecx, eax, 20
	mov	edx, DWORD PTR _yp$[ebp]
	mov	eax, DWORD PTR [edx+ecx]
	push	eax
	mov	ecx, 4
	imul	edx, ecx, 20
	mov	eax, DWORD PTR _xp$[ebp]
	mov	ecx, DWORD PTR [eax+edx]
	push	ecx
	movzx	edx, BYTE PTR _c$[ebp]
	push	edx
	call	__ADDX_UNIT
	add	esp, 16					; 00000010H
	mov	BYTE PTR _c$[ebp], al

; 316  :     c = _ADDX_UNIT(c, xp[21], yp[21], &zp[21]);

	mov	eax, 4
	imul	ecx, eax, 21
	add	ecx, DWORD PTR _zp$[ebp]
	push	ecx
	mov	edx, 4
	imul	eax, edx, 21
	mov	ecx, DWORD PTR _yp$[ebp]
	mov	edx, DWORD PTR [ecx+eax]
	push	edx
	mov	eax, 4
	imul	ecx, eax, 21
	mov	edx, DWORD PTR _xp$[ebp]
	mov	eax, DWORD PTR [edx+ecx]
	push	eax
	movzx	ecx, BYTE PTR _c$[ebp]
	push	ecx
	call	__ADDX_UNIT
	add	esp, 16					; 00000010H
	mov	BYTE PTR _c$[ebp], al

; 317  :     c = _ADDX_UNIT(c, xp[22], yp[22], &zp[22]);

	mov	edx, 4
	imul	eax, edx, 22
	add	eax, DWORD PTR _zp$[ebp]
	push	eax
	mov	ecx, 4
	imul	edx, ecx, 22
	mov	eax, DWORD PTR _yp$[ebp]
	mov	ecx, DWORD PTR [eax+edx]
	push	ecx
	mov	edx, 4
	imul	eax, edx, 22
	mov	ecx, DWORD PTR _xp$[ebp]
	mov	edx, DWORD PTR [ecx+eax]
	push	edx
	movzx	eax, BYTE PTR _c$[ebp]
	push	eax
	call	__ADDX_UNIT
	add	esp, 16					; 00000010H
	mov	BYTE PTR _c$[ebp], al

; 318  :     c = _ADDX_UNIT(c, xp[23], yp[23], &zp[23]);

	mov	ecx, 4
	imul	edx, ecx, 23
	add	edx, DWORD PTR _zp$[ebp]
	push	edx
	mov	eax, 4
	imul	ecx, eax, 23
	mov	edx, DWORD PTR _yp$[ebp]
	mov	eax, DWORD PTR [edx+ecx]
	push	eax
	mov	ecx, 4
	imul	edx, ecx, 23
	mov	eax, DWORD PTR _xp$[ebp]
	mov	ecx, DWORD PTR [eax+edx]
	push	ecx
	movzx	edx, BYTE PTR _c$[ebp]
	push	edx
	call	__ADDX_UNIT
	add	esp, 16					; 00000010H
	mov	BYTE PTR _c$[ebp], al

; 319  :     c = _ADDX_UNIT(c, xp[24], yp[24], &zp[24]);

	mov	eax, 4
	imul	ecx, eax, 24
	add	ecx, DWORD PTR _zp$[ebp]
	push	ecx
	mov	edx, 4
	imul	eax, edx, 24
	mov	ecx, DWORD PTR _yp$[ebp]
	mov	edx, DWORD PTR [ecx+eax]
	push	edx
	mov	eax, 4
	imul	ecx, eax, 24
	mov	edx, DWORD PTR _xp$[ebp]
	mov	eax, DWORD PTR [edx+ecx]
	push	eax
	movzx	ecx, BYTE PTR _c$[ebp]
	push	ecx
	call	__ADDX_UNIT
	add	esp, 16					; 00000010H
	mov	BYTE PTR _c$[ebp], al

; 320  :     c = _ADDX_UNIT(c, xp[25], yp[25], &zp[25]);

	mov	edx, 4
	imul	eax, edx, 25
	add	eax, DWORD PTR _zp$[ebp]
	push	eax
	mov	ecx, 4
	imul	edx, ecx, 25
	mov	eax, DWORD PTR _yp$[ebp]
	mov	ecx, DWORD PTR [eax+edx]
	push	ecx
	mov	edx, 4
	imul	eax, edx, 25
	mov	ecx, DWORD PTR _xp$[ebp]
	mov	edx, DWORD PTR [ecx+eax]
	push	edx
	movzx	eax, BYTE PTR _c$[ebp]
	push	eax
	call	__ADDX_UNIT
	add	esp, 16					; 00000010H
	mov	BYTE PTR _c$[ebp], al

; 321  :     c = _ADDX_UNIT(c, xp[26], yp[26], &zp[26]);

	mov	ecx, 4
	imul	edx, ecx, 26
	add	edx, DWORD PTR _zp$[ebp]
	push	edx
	mov	eax, 4
	imul	ecx, eax, 26
	mov	edx, DWORD PTR _yp$[ebp]
	mov	eax, DWORD PTR [edx+ecx]
	push	eax
	mov	ecx, 4
	imul	edx, ecx, 26
	mov	eax, DWORD PTR _xp$[ebp]
	mov	ecx, DWORD PTR [eax+edx]
	push	ecx
	movzx	edx, BYTE PTR _c$[ebp]
	push	edx
	call	__ADDX_UNIT
	add	esp, 16					; 00000010H
	mov	BYTE PTR _c$[ebp], al

; 322  :     c = _ADDX_UNIT(c, xp[27], yp[27], &zp[27]);

	mov	eax, 4
	imul	ecx, eax, 27
	add	ecx, DWORD PTR _zp$[ebp]
	push	ecx
	mov	edx, 4
	imul	eax, edx, 27
	mov	ecx, DWORD PTR _yp$[ebp]
	mov	edx, DWORD PTR [ecx+eax]
	push	edx
	mov	eax, 4
	imul	ecx, eax, 27
	mov	edx, DWORD PTR _xp$[ebp]
	mov	eax, DWORD PTR [edx+ecx]
	push	eax
	movzx	ecx, BYTE PTR _c$[ebp]
	push	ecx
	call	__ADDX_UNIT
	add	esp, 16					; 00000010H
	mov	BYTE PTR _c$[ebp], al

; 323  :     c = _ADDX_UNIT(c, xp[28], yp[28], &zp[28]);

	mov	edx, 4
	imul	eax, edx, 28
	add	eax, DWORD PTR _zp$[ebp]
	push	eax
	mov	ecx, 4
	imul	edx, ecx, 28
	mov	eax, DWORD PTR _yp$[ebp]
	mov	ecx, DWORD PTR [eax+edx]
	push	ecx
	mov	edx, 4
	imul	eax, edx, 28
	mov	ecx, DWORD PTR _xp$[ebp]
	mov	edx, DWORD PTR [ecx+eax]
	push	edx
	movzx	eax, BYTE PTR _c$[ebp]
	push	eax
	call	__ADDX_UNIT
	add	esp, 16					; 00000010H
	mov	BYTE PTR _c$[ebp], al

; 324  :     c = _ADDX_UNIT(c, xp[29], yp[29], &zp[29]);

	mov	ecx, 4
	imul	edx, ecx, 29
	add	edx, DWORD PTR _zp$[ebp]
	push	edx
	mov	eax, 4
	imul	ecx, eax, 29
	mov	edx, DWORD PTR _yp$[ebp]
	mov	eax, DWORD PTR [edx+ecx]
	push	eax
	mov	ecx, 4
	imul	edx, ecx, 29
	mov	eax, DWORD PTR _xp$[ebp]
	mov	ecx, DWORD PTR [eax+edx]
	push	ecx
	movzx	edx, BYTE PTR _c$[ebp]
	push	edx
	call	__ADDX_UNIT
	add	esp, 16					; 00000010H
	mov	BYTE PTR _c$[ebp], al

; 325  :     c = _ADDX_UNIT(c, xp[30], yp[30], &zp[30]);

	mov	eax, 4
	imul	ecx, eax, 30
	add	ecx, DWORD PTR _zp$[ebp]
	push	ecx
	mov	edx, 4
	imul	eax, edx, 30
	mov	ecx, DWORD PTR _yp$[ebp]
	mov	edx, DWORD PTR [ecx+eax]
	push	edx
	mov	eax, 4
	imul	ecx, eax, 30
	mov	edx, DWORD PTR _xp$[ebp]
	mov	eax, DWORD PTR [edx+ecx]
	push	eax
	movzx	ecx, BYTE PTR _c$[ebp]
	push	ecx
	call	__ADDX_UNIT
	add	esp, 16					; 00000010H
	mov	BYTE PTR _c$[ebp], al

; 326  :     c = _ADDX_UNIT(c, xp[31], yp[31], &zp[31]);

	mov	edx, 4
	imul	eax, edx, 31
	add	eax, DWORD PTR _zp$[ebp]
	push	eax
	mov	ecx, 4
	imul	edx, ecx, 31
	mov	eax, DWORD PTR _yp$[ebp]
	mov	ecx, DWORD PTR [eax+edx]
	push	ecx
	mov	edx, 4
	imul	eax, edx, 31
	mov	ecx, DWORD PTR _xp$[ebp]
	mov	edx, DWORD PTR [ecx+eax]
	push	edx
	movzx	eax, BYTE PTR _c$[ebp]
	push	eax
	call	__ADDX_UNIT
	add	esp, 16					; 00000010H
	mov	BYTE PTR _c$[ebp], al

; 327  : #elif defined(__GNUC__)
; 328  : #ifdef _M_IX86
; 329  :     __asm__ volatile (
; 330  :         "addb\t$-1, %0\n\t"
; 331  :         "movl\t(%1), %%ecx\n\t"
; 332  :         "adcxl\t(%2), %%ecx\n\t"
; 333  :         "movl\t%%ecx, (%3)\n\t"
; 334  :         "movl\t4(%1), %%ecx\n\t"
; 335  :         "adcxl\t4(%2), %%ecx\n\t"
; 336  :         "movl\t%%ecx, 4(%3)\n\t"
; 337  :         "movl\t8(%1), %%ecx\n\t"
; 338  :         "adcxl\t8(%2), %%ecx\n\t"
; 339  :         "movl\t%%ecx, 8(%3)\n\t"
; 340  :         "movl\t12(%1), %%ecx\n\t"
; 341  :         "adcxl\t12(%2), %%ecx\n\t"
; 342  :         "movl\t%%ecx, 12(%3)\n\t"
; 343  :         "movl\t16(%1), %%ecx\n\t"
; 344  :         "adcxl\t16(%2), %%ecx\n\t"
; 345  :         "movl\t%%ecx, 16(%3)\n\t"
; 346  :         "movl\t20(%1), %%ecx\n\t"
; 347  :         "adcxl\t20(%2), %%ecx\n\t"
; 348  :         "movl\t%%ecx, 20(%3)\n\t"
; 349  :         "movl\t24(%1), %%ecx\n\t"
; 350  :         "adcxl\t24(%2), %%ecx\n\t"
; 351  :         "movl\t%%ecx, 24(%3)\n\t"
; 352  :         "movl\t28(%1), %%ecx\n\t"
; 353  :         "adcxl\t28(%2), %%ecx\n\t"
; 354  :         "movl\t%%ecx, 28(%3)\n\t"
; 355  :         "movl\t32(%1), %%ecx\n\t"
; 356  :         "adcxl\t32(%2), %%ecx\n\t"
; 357  :         "movl\t%%ecx, 32(%3)\n\t"
; 358  :         "movl\t36(%1), %%ecx\n\t"
; 359  :         "adcxl\t36(%2), %%ecx\n\t"
; 360  :         "movl\t%%ecx, 36(%3)\n\t"
; 361  :         "movl\t40(%1), %%ecx\n\t"
; 362  :         "adcxl\t40(%2), %%ecx\n\t"
; 363  :         "movl\t%%ecx, 40(%3)\n\t"
; 364  :         "movl\t44(%1), %%ecx\n\t"
; 365  :         "adcxl\t44(%2), %%ecx\n\t"
; 366  :         "movl\t%%ecx, 44(%3)\n\t"
; 367  :         "movl\t48(%1), %%ecx\n\t"
; 368  :         "adcxl\t48(%2), %%ecx\n\t"
; 369  :         "movl\t%%ecx, 48(%3)\n\t"
; 370  :         "movl\t52(%1), %%ecx\n\t"
; 371  :         "adcxl\t52(%2), %%ecx\n\t"
; 372  :         "movl\t%%ecx, 52(%3)\n\t"
; 373  :         "movl\t56(%1), %%ecx\n\t"
; 374  :         "adcxl\t56(%2), %%ecx\n\t"
; 375  :         "movl\t%%ecx, 56(%3)\n\t"
; 376  :         "movl\t60(%1), %%ecx\n\t"
; 377  :         "adcxl\t60(%2), %%ecx\n\t"
; 378  :         "movl\t%%ecx, 60(%3)\n\t"
; 379  :         "movl\t64(%1), %%ecx\n\t"
; 380  :         "adcxl\t64(%2), %%ecx\n\t"
; 381  :         "movl\t%%ecx, 64(%3)\n\t"
; 382  :         "movl\t68(%1), %%ecx\n\t"
; 383  :         "adcxl\t68(%2), %%ecx\n\t"
; 384  :         "movl\t%%ecx, 68(%3)\n\t"
; 385  :         "movl\t72(%1), %%ecx\n\t"
; 386  :         "adcxl\t72(%2), %%ecx\n\t"
; 387  :         "movl\t%%ecx, 72(%3)\n\t"
; 388  :         "movl\t76(%1), %%ecx\n\t"
; 389  :         "adcxl\t76(%2), %%ecx\n\t"
; 390  :         "movl\t%%ecx, 76(%3)\n\t"
; 391  :         "movl\t80(%1), %%ecx\n\t"
; 392  :         "adcxl\t80(%2), %%ecx\n\t"
; 393  :         "movl\t%%ecx, 80(%3)\n\t"
; 394  :         "movl\t84(%1), %%ecx\n\t"
; 395  :         "adcxl\t84(%2), %%ecx\n\t"
; 396  :         "movl\t%%ecx, 84(%3)\n\t"
; 397  :         "movl\t88(%1), %%ecx\n\t"
; 398  :         "adcxl\t88(%2), %%ecx\n\t"
; 399  :         "movl\t%%ecx, 88(%3)\n\t"
; 400  :         "movl\t92(%1), %%ecx\n\t"
; 401  :         "adcxl\t92(%2), %%ecx\n\t"
; 402  :         "movl\t%%ecx, 92(%3)\n\t"
; 403  :         "movl\t96(%1), %%ecx\n\t"
; 404  :         "adcxl\t96(%2), %%ecx\n\t"
; 405  :         "movl\t%%ecx, 96(%3)\n\t"
; 406  :         "movl\t100(%1), %%ecx\n\t"
; 407  :         "adcxl\t100(%2), %%ecx\n\t"
; 408  :         "movl\t%%ecx, 100(%3)\n\t"
; 409  :         "movl\t104(%1), %%ecx\n\t"
; 410  :         "adcxl\t104(%2), %%ecx\n\t"
; 411  :         "movl\t%%ecx, 104(%3)\n\t"
; 412  :         "movl\t108(%1), %%ecx\n\t"
; 413  :         "adcxl\t108(%2), %%ecx\n\t"
; 414  :         "movl\t%%ecx, 108(%3)\n\t"
; 415  :         "movl\t112(%1), %%ecx\n\t"
; 416  :         "adcxl\t112(%2), %%ecx\n\t"
; 417  :         "movl\t%%ecx, 112(%3)\n\t"
; 418  :         "movl\t116(%1), %%ecx\n\t"
; 419  :         "adcxl\t116(%2), %%ecx\n\t"
; 420  :         "movl\t%%ecx, 116(%3)\n\t"
; 421  :         "movl\t120(%1), %%ecx\n\t"
; 422  :         "adcxl\t120(%2), %%ecx\n\t"
; 423  :         "movl\t%%ecx, 120(%3)\n\t"
; 424  :         "movl\t124(%1), %%ecx\n\t"
; 425  :         "adcxl\t124(%2), %%ecx\n\t"
; 426  :         "movl\t%%ecx, 124(%3)\n\t"
; 427  :         "setc\t%0"
; 428  :         : "+r"(c), "+r"(xp), "+r"(yp), "+r"(zp)
; 429  :         :
; 430  :         : "cc", "memory", "%ecx"
; 431  : );
; 432  : #elif defined(_M_IX64)
; 433  :     __asm__ volatile (
; 434  :         "addb\t$-1, %0\n\t"
; 435  :         "movq\t(%1), %%rcx\n\t"
; 436  :         "adcxq\t(%2), %%rcx\n\t"
; 437  :         "movq\t%%rcx, (%3)\n\t"
; 438  :         "movq\t8(%1), %%rcx\n\t"
; 439  :         "adcxq\t8(%2), %%rcx\n\t"
; 440  :         "movq\t%%rcx, 8(%3)\n\t"
; 441  :         "movq\t16(%1), %%rcx\n\t"
; 442  :         "adcxq\t16(%2), %%rcx\n\t"
; 443  :         "movq\t%%rcx, 16(%3)\n\t"
; 444  :         "movq\t24(%1), %%rcx\n\t"
; 445  :         "adcxq\t24(%2), %%rcx\n\t"
; 446  :         "movq\t%%rcx, 24(%3)\n\t"
; 447  :         "movq\t32(%1), %%rcx\n\t"
; 448  :         "adcxq\t32(%2), %%rcx\n\t"
; 449  :         "movq\t%%rcx, 32(%3)\n\t"
; 450  :         "movq\t40(%1), %%rcx\n\t"
; 451  :         "adcxq\t40(%2), %%rcx\n\t"
; 452  :         "movq\t%%rcx, 40(%3)\n\t"
; 453  :         "movq\t48(%1), %%rcx\n\t"
; 454  :         "adcxq\t48(%2), %%rcx\n\t"
; 455  :         "movq\t%%rcx, 48(%3)\n\t"
; 456  :         "movq\t56(%1), %%rcx\n\t"
; 457  :         "adcxq\t56(%2), %%rcx\n\t"
; 458  :         "movq\t%%rcx, 56(%3)\n\t"
; 459  :         "movq\t64(%1), %%rcx\n\t"
; 460  :         "adcxq\t64(%2), %%rcx\n\t"
; 461  :         "movq\t%%rcx, 64(%3)\n\t"
; 462  :         "movq\t72(%1), %%rcx\n\t"
; 463  :         "adcxq\t72(%2), %%rcx\n\t"
; 464  :         "movq\t%%rcx, 72(%3)\n\t"
; 465  :         "movq\t80(%1), %%rcx\n\t"
; 466  :         "adcxq\t80(%2), %%rcx\n\t"
; 467  :         "movq\t%%rcx, 80(%3)\n\t"
; 468  :         "movq\t88(%1), %%rcx\n\t"
; 469  :         "adcxq\t88(%2), %%rcx\n\t"
; 470  :         "movq\t%%rcx, 88(%3)\n\t"
; 471  :         "movq\t96(%1), %%rcx\n\t"
; 472  :         "adcxq\t96(%2), %%rcx\n\t"
; 473  :         "movq\t%%rcx, 96(%3)\n\t"
; 474  :         "movq\t104(%1), %%rcx\n\t"
; 475  :         "adcxq\t104(%2), %%rcx\n\t"
; 476  :         "movq\t%%rcx, 104(%3)\n\t"
; 477  :         "movq\t112(%1), %%rcx\n\t"
; 478  :         "adcxq\t112(%2), %%rcx\n\t"
; 479  :         "movq\t%%rcx, 112(%3)\n\t"
; 480  :         "movq\t120(%1), %%rcx\n\t"
; 481  :         "adcxq\t120(%2), %%rcx\n\t"
; 482  :         "movq\t%%rcx, 120(%3)\n\t"
; 483  :         "movq\t128(%1), %%rcx\n\t"
; 484  :         "adcxq\t128(%2), %%rcx\n\t"
; 485  :         "movq\t%%rcx, 128(%3)\n\t"
; 486  :         "movq\t136(%1), %%rcx\n\t"
; 487  :         "adcxq\t136(%2), %%rcx\n\t"
; 488  :         "movq\t%%rcx, 136(%3)\n\t"
; 489  :         "movq\t144(%1), %%rcx\n\t"
; 490  :         "adcxq\t144(%2), %%rcx\n\t"
; 491  :         "movq\t%%rcx, 144(%3)\n\t"
; 492  :         "movq\t152(%1), %%rcx\n\t"
; 493  :         "adcxq\t152(%2), %%rcx\n\t"
; 494  :         "movq\t%%rcx, 152(%3)\n\t"
; 495  :         "movq\t160(%1), %%rcx\n\t"
; 496  :         "adcxq\t160(%2), %%rcx\n\t"
; 497  :         "movq\t%%rcx, 160(%3)\n\t"
; 498  :         "movq\t168(%1), %%rcx\n\t"
; 499  :         "adcxq\t168(%2), %%rcx\n\t"
; 500  :         "movq\t%%rcx, 168(%3)\n\t"
; 501  :         "movq\t176(%1), %%rcx\n\t"
; 502  :         "adcxq\t176(%2), %%rcx\n\t"
; 503  :         "movq\t%%rcx, 176(%3)\n\t"
; 504  :         "movq\t184(%1), %%rcx\n\t"
; 505  :         "adcxq\t184(%2), %%rcx\n\t"
; 506  :         "movq\t%%rcx, 184(%3)\n\t"
; 507  :         "movq\t192(%1), %%rcx\n\t"
; 508  :         "adcxq\t192(%2), %%rcx\n\t"
; 509  :         "movq\t%%rcx, 192(%3)\n\t"
; 510  :         "movq\t200(%1), %%rcx\n\t"
; 511  :         "adcxq\t200(%2), %%rcx\n\t"
; 512  :         "movq\t%%rcx, 200(%3)\n\t"
; 513  :         "movq\t208(%1), %%rcx\n\t"
; 514  :         "adcxq\t208(%2), %%rcx\n\t"
; 515  :         "movq\t%%rcx, 208(%3)\n\t"
; 516  :         "movq\t216(%1), %%rcx\n\t"
; 517  :         "adcxq\t216(%2), %%rcx\n\t"
; 518  :         "movq\t%%rcx, 216(%3)\n\t"
; 519  :         "movq\t224(%1), %%rcx\n\t"
; 520  :         "adcxq\t224(%2), %%rcx\n\t"
; 521  :         "movq\t%%rcx, 224(%3)\n\t"
; 522  :         "movq\t232(%1), %%rcx\n\t"
; 523  :         "adcxq\t232(%2), %%rcx\n\t"
; 524  :         "movq\t%%rcx, 232(%3)\n\t"
; 525  :         "movq\t240(%1), %%rcx\n\t"
; 526  :         "adcxq\t240(%2), %%rcx\n\t"
; 527  :         "movq\t%%rcx, 240(%3)\n\t"
; 528  :         "movq\t248(%1), %%rcx\n\t"
; 529  :         "adcxq\t248(%2), %%rcx\n\t"
; 530  :         "movq\t%%rcx, 248(%3)\n\t"
; 531  :         "setc\t%0"
; 532  :         : "+r"(c), "+r"(xp), "+r"(yp), "+r"(zp)
; 533  :         :
; 534  :         : "cc", "memory", "%rcx"
; 535  : );
; 536  : #else
; 537  : #error unknown platform
; 538  : #endif
; 539  : #else
; 540  : #error unknown compiler
; 541  : #endif
; 542  :     return (c);

	mov	al, BYTE PTR _c$[ebp]

; 543  : }

	cmp	ebp, esp
	call	__RTC_CheckEsp
	pop	ebp
	ret	0
__ADD_32WORDS_ADCX ENDP
_TEXT	ENDS
; Function compile flags: /Odtp /RTCsu
; File z:\sources\lunor\repos\rougemeilland\palmtree.math.core.uint\palmtree.math.core.uint\autogenerated_inline_func.h
_TEXT	SEGMENT
_c$ = 8							; size = 1
_xp$ = 12						; size = 4
_yp$ = 16						; size = 4
_zp$ = 20						; size = 4
__ADD_32WORDS_ADC PROC

; 40   : {

	push	ebp
	mov	ebp, esp
	mov	ecx, OFFSET __E05E7037_autogenerated_inline_func@h
	call	@__CheckForDebuggerJustMyCode@4

; 41   : #ifdef _MSC_VER
; 42   :     c = _ADD_UNIT(c, xp[0], yp[0], &zp[0]);

	mov	eax, 4
	imul	ecx, eax, 0
	add	ecx, DWORD PTR _zp$[ebp]
	push	ecx
	mov	edx, 4
	imul	eax, edx, 0
	mov	ecx, DWORD PTR _yp$[ebp]
	mov	edx, DWORD PTR [ecx+eax]
	push	edx
	mov	eax, 4
	imul	ecx, eax, 0
	mov	edx, DWORD PTR _xp$[ebp]
	mov	eax, DWORD PTR [edx+ecx]
	push	eax
	movzx	ecx, BYTE PTR _c$[ebp]
	push	ecx
	call	__ADD_UNIT
	add	esp, 16					; 00000010H
	mov	BYTE PTR _c$[ebp], al

; 43   :     c = _ADD_UNIT(c, xp[1], yp[1], &zp[1]);

	mov	edx, 4
	shl	edx, 0
	add	edx, DWORD PTR _zp$[ebp]
	push	edx
	mov	eax, 4
	shl	eax, 0
	mov	ecx, DWORD PTR _yp$[ebp]
	mov	edx, DWORD PTR [ecx+eax]
	push	edx
	mov	eax, 4
	shl	eax, 0
	mov	ecx, DWORD PTR _xp$[ebp]
	mov	edx, DWORD PTR [ecx+eax]
	push	edx
	movzx	eax, BYTE PTR _c$[ebp]
	push	eax
	call	__ADD_UNIT
	add	esp, 16					; 00000010H
	mov	BYTE PTR _c$[ebp], al

; 44   :     c = _ADD_UNIT(c, xp[2], yp[2], &zp[2]);

	mov	ecx, 4
	shl	ecx, 1
	add	ecx, DWORD PTR _zp$[ebp]
	push	ecx
	mov	edx, 4
	shl	edx, 1
	mov	eax, DWORD PTR _yp$[ebp]
	mov	ecx, DWORD PTR [eax+edx]
	push	ecx
	mov	edx, 4
	shl	edx, 1
	mov	eax, DWORD PTR _xp$[ebp]
	mov	ecx, DWORD PTR [eax+edx]
	push	ecx
	movzx	edx, BYTE PTR _c$[ebp]
	push	edx
	call	__ADD_UNIT
	add	esp, 16					; 00000010H
	mov	BYTE PTR _c$[ebp], al

; 45   :     c = _ADD_UNIT(c, xp[3], yp[3], &zp[3]);

	mov	eax, 4
	imul	ecx, eax, 3
	add	ecx, DWORD PTR _zp$[ebp]
	push	ecx
	mov	edx, 4
	imul	eax, edx, 3
	mov	ecx, DWORD PTR _yp$[ebp]
	mov	edx, DWORD PTR [ecx+eax]
	push	edx
	mov	eax, 4
	imul	ecx, eax, 3
	mov	edx, DWORD PTR _xp$[ebp]
	mov	eax, DWORD PTR [edx+ecx]
	push	eax
	movzx	ecx, BYTE PTR _c$[ebp]
	push	ecx
	call	__ADD_UNIT
	add	esp, 16					; 00000010H
	mov	BYTE PTR _c$[ebp], al

; 46   :     c = _ADD_UNIT(c, xp[4], yp[4], &zp[4]);

	mov	edx, 4
	shl	edx, 2
	add	edx, DWORD PTR _zp$[ebp]
	push	edx
	mov	eax, 4
	shl	eax, 2
	mov	ecx, DWORD PTR _yp$[ebp]
	mov	edx, DWORD PTR [ecx+eax]
	push	edx
	mov	eax, 4
	shl	eax, 2
	mov	ecx, DWORD PTR _xp$[ebp]
	mov	edx, DWORD PTR [ecx+eax]
	push	edx
	movzx	eax, BYTE PTR _c$[ebp]
	push	eax
	call	__ADD_UNIT
	add	esp, 16					; 00000010H
	mov	BYTE PTR _c$[ebp], al

; 47   :     c = _ADD_UNIT(c, xp[5], yp[5], &zp[5]);

	mov	ecx, 4
	imul	edx, ecx, 5
	add	edx, DWORD PTR _zp$[ebp]
	push	edx
	mov	eax, 4
	imul	ecx, eax, 5
	mov	edx, DWORD PTR _yp$[ebp]
	mov	eax, DWORD PTR [edx+ecx]
	push	eax
	mov	ecx, 4
	imul	edx, ecx, 5
	mov	eax, DWORD PTR _xp$[ebp]
	mov	ecx, DWORD PTR [eax+edx]
	push	ecx
	movzx	edx, BYTE PTR _c$[ebp]
	push	edx
	call	__ADD_UNIT
	add	esp, 16					; 00000010H
	mov	BYTE PTR _c$[ebp], al

; 48   :     c = _ADD_UNIT(c, xp[6], yp[6], &zp[6]);

	mov	eax, 4
	imul	ecx, eax, 6
	add	ecx, DWORD PTR _zp$[ebp]
	push	ecx
	mov	edx, 4
	imul	eax, edx, 6
	mov	ecx, DWORD PTR _yp$[ebp]
	mov	edx, DWORD PTR [ecx+eax]
	push	edx
	mov	eax, 4
	imul	ecx, eax, 6
	mov	edx, DWORD PTR _xp$[ebp]
	mov	eax, DWORD PTR [edx+ecx]
	push	eax
	movzx	ecx, BYTE PTR _c$[ebp]
	push	ecx
	call	__ADD_UNIT
	add	esp, 16					; 00000010H
	mov	BYTE PTR _c$[ebp], al

; 49   :     c = _ADD_UNIT(c, xp[7], yp[7], &zp[7]);

	mov	edx, 4
	imul	eax, edx, 7
	add	eax, DWORD PTR _zp$[ebp]
	push	eax
	mov	ecx, 4
	imul	edx, ecx, 7
	mov	eax, DWORD PTR _yp$[ebp]
	mov	ecx, DWORD PTR [eax+edx]
	push	ecx
	mov	edx, 4
	imul	eax, edx, 7
	mov	ecx, DWORD PTR _xp$[ebp]
	mov	edx, DWORD PTR [ecx+eax]
	push	edx
	movzx	eax, BYTE PTR _c$[ebp]
	push	eax
	call	__ADD_UNIT
	add	esp, 16					; 00000010H
	mov	BYTE PTR _c$[ebp], al

; 50   :     c = _ADD_UNIT(c, xp[8], yp[8], &zp[8]);

	mov	ecx, 4
	shl	ecx, 3
	add	ecx, DWORD PTR _zp$[ebp]
	push	ecx
	mov	edx, 4
	shl	edx, 3
	mov	eax, DWORD PTR _yp$[ebp]
	mov	ecx, DWORD PTR [eax+edx]
	push	ecx
	mov	edx, 4
	shl	edx, 3
	mov	eax, DWORD PTR _xp$[ebp]
	mov	ecx, DWORD PTR [eax+edx]
	push	ecx
	movzx	edx, BYTE PTR _c$[ebp]
	push	edx
	call	__ADD_UNIT
	add	esp, 16					; 00000010H
	mov	BYTE PTR _c$[ebp], al

; 51   :     c = _ADD_UNIT(c, xp[9], yp[9], &zp[9]);

	mov	eax, 4
	imul	ecx, eax, 9
	add	ecx, DWORD PTR _zp$[ebp]
	push	ecx
	mov	edx, 4
	imul	eax, edx, 9
	mov	ecx, DWORD PTR _yp$[ebp]
	mov	edx, DWORD PTR [ecx+eax]
	push	edx
	mov	eax, 4
	imul	ecx, eax, 9
	mov	edx, DWORD PTR _xp$[ebp]
	mov	eax, DWORD PTR [edx+ecx]
	push	eax
	movzx	ecx, BYTE PTR _c$[ebp]
	push	ecx
	call	__ADD_UNIT
	add	esp, 16					; 00000010H
	mov	BYTE PTR _c$[ebp], al

; 52   :     c = _ADD_UNIT(c, xp[10], yp[10], &zp[10]);

	mov	edx, 4
	imul	eax, edx, 10
	add	eax, DWORD PTR _zp$[ebp]
	push	eax
	mov	ecx, 4
	imul	edx, ecx, 10
	mov	eax, DWORD PTR _yp$[ebp]
	mov	ecx, DWORD PTR [eax+edx]
	push	ecx
	mov	edx, 4
	imul	eax, edx, 10
	mov	ecx, DWORD PTR _xp$[ebp]
	mov	edx, DWORD PTR [ecx+eax]
	push	edx
	movzx	eax, BYTE PTR _c$[ebp]
	push	eax
	call	__ADD_UNIT
	add	esp, 16					; 00000010H
	mov	BYTE PTR _c$[ebp], al

; 53   :     c = _ADD_UNIT(c, xp[11], yp[11], &zp[11]);

	mov	ecx, 4
	imul	edx, ecx, 11
	add	edx, DWORD PTR _zp$[ebp]
	push	edx
	mov	eax, 4
	imul	ecx, eax, 11
	mov	edx, DWORD PTR _yp$[ebp]
	mov	eax, DWORD PTR [edx+ecx]
	push	eax
	mov	ecx, 4
	imul	edx, ecx, 11
	mov	eax, DWORD PTR _xp$[ebp]
	mov	ecx, DWORD PTR [eax+edx]
	push	ecx
	movzx	edx, BYTE PTR _c$[ebp]
	push	edx
	call	__ADD_UNIT
	add	esp, 16					; 00000010H
	mov	BYTE PTR _c$[ebp], al

; 54   :     c = _ADD_UNIT(c, xp[12], yp[12], &zp[12]);

	mov	eax, 4
	imul	ecx, eax, 12
	add	ecx, DWORD PTR _zp$[ebp]
	push	ecx
	mov	edx, 4
	imul	eax, edx, 12
	mov	ecx, DWORD PTR _yp$[ebp]
	mov	edx, DWORD PTR [ecx+eax]
	push	edx
	mov	eax, 4
	imul	ecx, eax, 12
	mov	edx, DWORD PTR _xp$[ebp]
	mov	eax, DWORD PTR [edx+ecx]
	push	eax
	movzx	ecx, BYTE PTR _c$[ebp]
	push	ecx
	call	__ADD_UNIT
	add	esp, 16					; 00000010H
	mov	BYTE PTR _c$[ebp], al

; 55   :     c = _ADD_UNIT(c, xp[13], yp[13], &zp[13]);

	mov	edx, 4
	imul	eax, edx, 13
	add	eax, DWORD PTR _zp$[ebp]
	push	eax
	mov	ecx, 4
	imul	edx, ecx, 13
	mov	eax, DWORD PTR _yp$[ebp]
	mov	ecx, DWORD PTR [eax+edx]
	push	ecx
	mov	edx, 4
	imul	eax, edx, 13
	mov	ecx, DWORD PTR _xp$[ebp]
	mov	edx, DWORD PTR [ecx+eax]
	push	edx
	movzx	eax, BYTE PTR _c$[ebp]
	push	eax
	call	__ADD_UNIT
	add	esp, 16					; 00000010H
	mov	BYTE PTR _c$[ebp], al

; 56   :     c = _ADD_UNIT(c, xp[14], yp[14], &zp[14]);

	mov	ecx, 4
	imul	edx, ecx, 14
	add	edx, DWORD PTR _zp$[ebp]
	push	edx
	mov	eax, 4
	imul	ecx, eax, 14
	mov	edx, DWORD PTR _yp$[ebp]
	mov	eax, DWORD PTR [edx+ecx]
	push	eax
	mov	ecx, 4
	imul	edx, ecx, 14
	mov	eax, DWORD PTR _xp$[ebp]
	mov	ecx, DWORD PTR [eax+edx]
	push	ecx
	movzx	edx, BYTE PTR _c$[ebp]
	push	edx
	call	__ADD_UNIT
	add	esp, 16					; 00000010H
	mov	BYTE PTR _c$[ebp], al

; 57   :     c = _ADD_UNIT(c, xp[15], yp[15], &zp[15]);

	mov	eax, 4
	imul	ecx, eax, 15
	add	ecx, DWORD PTR _zp$[ebp]
	push	ecx
	mov	edx, 4
	imul	eax, edx, 15
	mov	ecx, DWORD PTR _yp$[ebp]
	mov	edx, DWORD PTR [ecx+eax]
	push	edx
	mov	eax, 4
	imul	ecx, eax, 15
	mov	edx, DWORD PTR _xp$[ebp]
	mov	eax, DWORD PTR [edx+ecx]
	push	eax
	movzx	ecx, BYTE PTR _c$[ebp]
	push	ecx
	call	__ADD_UNIT
	add	esp, 16					; 00000010H
	mov	BYTE PTR _c$[ebp], al

; 58   :     c = _ADD_UNIT(c, xp[16], yp[16], &zp[16]);

	mov	edx, 4
	shl	edx, 4
	add	edx, DWORD PTR _zp$[ebp]
	push	edx
	mov	eax, 4
	shl	eax, 4
	mov	ecx, DWORD PTR _yp$[ebp]
	mov	edx, DWORD PTR [ecx+eax]
	push	edx
	mov	eax, 4
	shl	eax, 4
	mov	ecx, DWORD PTR _xp$[ebp]
	mov	edx, DWORD PTR [ecx+eax]
	push	edx
	movzx	eax, BYTE PTR _c$[ebp]
	push	eax
	call	__ADD_UNIT
	add	esp, 16					; 00000010H
	mov	BYTE PTR _c$[ebp], al

; 59   :     c = _ADD_UNIT(c, xp[17], yp[17], &zp[17]);

	mov	ecx, 4
	imul	edx, ecx, 17
	add	edx, DWORD PTR _zp$[ebp]
	push	edx
	mov	eax, 4
	imul	ecx, eax, 17
	mov	edx, DWORD PTR _yp$[ebp]
	mov	eax, DWORD PTR [edx+ecx]
	push	eax
	mov	ecx, 4
	imul	edx, ecx, 17
	mov	eax, DWORD PTR _xp$[ebp]
	mov	ecx, DWORD PTR [eax+edx]
	push	ecx
	movzx	edx, BYTE PTR _c$[ebp]
	push	edx
	call	__ADD_UNIT
	add	esp, 16					; 00000010H
	mov	BYTE PTR _c$[ebp], al

; 60   :     c = _ADD_UNIT(c, xp[18], yp[18], &zp[18]);

	mov	eax, 4
	imul	ecx, eax, 18
	add	ecx, DWORD PTR _zp$[ebp]
	push	ecx
	mov	edx, 4
	imul	eax, edx, 18
	mov	ecx, DWORD PTR _yp$[ebp]
	mov	edx, DWORD PTR [ecx+eax]
	push	edx
	mov	eax, 4
	imul	ecx, eax, 18
	mov	edx, DWORD PTR _xp$[ebp]
	mov	eax, DWORD PTR [edx+ecx]
	push	eax
	movzx	ecx, BYTE PTR _c$[ebp]
	push	ecx
	call	__ADD_UNIT
	add	esp, 16					; 00000010H
	mov	BYTE PTR _c$[ebp], al

; 61   :     c = _ADD_UNIT(c, xp[19], yp[19], &zp[19]);

	mov	edx, 4
	imul	eax, edx, 19
	add	eax, DWORD PTR _zp$[ebp]
	push	eax
	mov	ecx, 4
	imul	edx, ecx, 19
	mov	eax, DWORD PTR _yp$[ebp]
	mov	ecx, DWORD PTR [eax+edx]
	push	ecx
	mov	edx, 4
	imul	eax, edx, 19
	mov	ecx, DWORD PTR _xp$[ebp]
	mov	edx, DWORD PTR [ecx+eax]
	push	edx
	movzx	eax, BYTE PTR _c$[ebp]
	push	eax
	call	__ADD_UNIT
	add	esp, 16					; 00000010H
	mov	BYTE PTR _c$[ebp], al

; 62   :     c = _ADD_UNIT(c, xp[20], yp[20], &zp[20]);

	mov	ecx, 4
	imul	edx, ecx, 20
	add	edx, DWORD PTR _zp$[ebp]
	push	edx
	mov	eax, 4
	imul	ecx, eax, 20
	mov	edx, DWORD PTR _yp$[ebp]
	mov	eax, DWORD PTR [edx+ecx]
	push	eax
	mov	ecx, 4
	imul	edx, ecx, 20
	mov	eax, DWORD PTR _xp$[ebp]
	mov	ecx, DWORD PTR [eax+edx]
	push	ecx
	movzx	edx, BYTE PTR _c$[ebp]
	push	edx
	call	__ADD_UNIT
	add	esp, 16					; 00000010H
	mov	BYTE PTR _c$[ebp], al

; 63   :     c = _ADD_UNIT(c, xp[21], yp[21], &zp[21]);

	mov	eax, 4
	imul	ecx, eax, 21
	add	ecx, DWORD PTR _zp$[ebp]
	push	ecx
	mov	edx, 4
	imul	eax, edx, 21
	mov	ecx, DWORD PTR _yp$[ebp]
	mov	edx, DWORD PTR [ecx+eax]
	push	edx
	mov	eax, 4
	imul	ecx, eax, 21
	mov	edx, DWORD PTR _xp$[ebp]
	mov	eax, DWORD PTR [edx+ecx]
	push	eax
	movzx	ecx, BYTE PTR _c$[ebp]
	push	ecx
	call	__ADD_UNIT
	add	esp, 16					; 00000010H
	mov	BYTE PTR _c$[ebp], al

; 64   :     c = _ADD_UNIT(c, xp[22], yp[22], &zp[22]);

	mov	edx, 4
	imul	eax, edx, 22
	add	eax, DWORD PTR _zp$[ebp]
	push	eax
	mov	ecx, 4
	imul	edx, ecx, 22
	mov	eax, DWORD PTR _yp$[ebp]
	mov	ecx, DWORD PTR [eax+edx]
	push	ecx
	mov	edx, 4
	imul	eax, edx, 22
	mov	ecx, DWORD PTR _xp$[ebp]
	mov	edx, DWORD PTR [ecx+eax]
	push	edx
	movzx	eax, BYTE PTR _c$[ebp]
	push	eax
	call	__ADD_UNIT
	add	esp, 16					; 00000010H
	mov	BYTE PTR _c$[ebp], al

; 65   :     c = _ADD_UNIT(c, xp[23], yp[23], &zp[23]);

	mov	ecx, 4
	imul	edx, ecx, 23
	add	edx, DWORD PTR _zp$[ebp]
	push	edx
	mov	eax, 4
	imul	ecx, eax, 23
	mov	edx, DWORD PTR _yp$[ebp]
	mov	eax, DWORD PTR [edx+ecx]
	push	eax
	mov	ecx, 4
	imul	edx, ecx, 23
	mov	eax, DWORD PTR _xp$[ebp]
	mov	ecx, DWORD PTR [eax+edx]
	push	ecx
	movzx	edx, BYTE PTR _c$[ebp]
	push	edx
	call	__ADD_UNIT
	add	esp, 16					; 00000010H
	mov	BYTE PTR _c$[ebp], al

; 66   :     c = _ADD_UNIT(c, xp[24], yp[24], &zp[24]);

	mov	eax, 4
	imul	ecx, eax, 24
	add	ecx, DWORD PTR _zp$[ebp]
	push	ecx
	mov	edx, 4
	imul	eax, edx, 24
	mov	ecx, DWORD PTR _yp$[ebp]
	mov	edx, DWORD PTR [ecx+eax]
	push	edx
	mov	eax, 4
	imul	ecx, eax, 24
	mov	edx, DWORD PTR _xp$[ebp]
	mov	eax, DWORD PTR [edx+ecx]
	push	eax
	movzx	ecx, BYTE PTR _c$[ebp]
	push	ecx
	call	__ADD_UNIT
	add	esp, 16					; 00000010H
	mov	BYTE PTR _c$[ebp], al

; 67   :     c = _ADD_UNIT(c, xp[25], yp[25], &zp[25]);

	mov	edx, 4
	imul	eax, edx, 25
	add	eax, DWORD PTR _zp$[ebp]
	push	eax
	mov	ecx, 4
	imul	edx, ecx, 25
	mov	eax, DWORD PTR _yp$[ebp]
	mov	ecx, DWORD PTR [eax+edx]
	push	ecx
	mov	edx, 4
	imul	eax, edx, 25
	mov	ecx, DWORD PTR _xp$[ebp]
	mov	edx, DWORD PTR [ecx+eax]
	push	edx
	movzx	eax, BYTE PTR _c$[ebp]
	push	eax
	call	__ADD_UNIT
	add	esp, 16					; 00000010H
	mov	BYTE PTR _c$[ebp], al

; 68   :     c = _ADD_UNIT(c, xp[26], yp[26], &zp[26]);

	mov	ecx, 4
	imul	edx, ecx, 26
	add	edx, DWORD PTR _zp$[ebp]
	push	edx
	mov	eax, 4
	imul	ecx, eax, 26
	mov	edx, DWORD PTR _yp$[ebp]
	mov	eax, DWORD PTR [edx+ecx]
	push	eax
	mov	ecx, 4
	imul	edx, ecx, 26
	mov	eax, DWORD PTR _xp$[ebp]
	mov	ecx, DWORD PTR [eax+edx]
	push	ecx
	movzx	edx, BYTE PTR _c$[ebp]
	push	edx
	call	__ADD_UNIT
	add	esp, 16					; 00000010H
	mov	BYTE PTR _c$[ebp], al

; 69   :     c = _ADD_UNIT(c, xp[27], yp[27], &zp[27]);

	mov	eax, 4
	imul	ecx, eax, 27
	add	ecx, DWORD PTR _zp$[ebp]
	push	ecx
	mov	edx, 4
	imul	eax, edx, 27
	mov	ecx, DWORD PTR _yp$[ebp]
	mov	edx, DWORD PTR [ecx+eax]
	push	edx
	mov	eax, 4
	imul	ecx, eax, 27
	mov	edx, DWORD PTR _xp$[ebp]
	mov	eax, DWORD PTR [edx+ecx]
	push	eax
	movzx	ecx, BYTE PTR _c$[ebp]
	push	ecx
	call	__ADD_UNIT
	add	esp, 16					; 00000010H
	mov	BYTE PTR _c$[ebp], al

; 70   :     c = _ADD_UNIT(c, xp[28], yp[28], &zp[28]);

	mov	edx, 4
	imul	eax, edx, 28
	add	eax, DWORD PTR _zp$[ebp]
	push	eax
	mov	ecx, 4
	imul	edx, ecx, 28
	mov	eax, DWORD PTR _yp$[ebp]
	mov	ecx, DWORD PTR [eax+edx]
	push	ecx
	mov	edx, 4
	imul	eax, edx, 28
	mov	ecx, DWORD PTR _xp$[ebp]
	mov	edx, DWORD PTR [ecx+eax]
	push	edx
	movzx	eax, BYTE PTR _c$[ebp]
	push	eax
	call	__ADD_UNIT
	add	esp, 16					; 00000010H
	mov	BYTE PTR _c$[ebp], al

; 71   :     c = _ADD_UNIT(c, xp[29], yp[29], &zp[29]);

	mov	ecx, 4
	imul	edx, ecx, 29
	add	edx, DWORD PTR _zp$[ebp]
	push	edx
	mov	eax, 4
	imul	ecx, eax, 29
	mov	edx, DWORD PTR _yp$[ebp]
	mov	eax, DWORD PTR [edx+ecx]
	push	eax
	mov	ecx, 4
	imul	edx, ecx, 29
	mov	eax, DWORD PTR _xp$[ebp]
	mov	ecx, DWORD PTR [eax+edx]
	push	ecx
	movzx	edx, BYTE PTR _c$[ebp]
	push	edx
	call	__ADD_UNIT
	add	esp, 16					; 00000010H
	mov	BYTE PTR _c$[ebp], al

; 72   :     c = _ADD_UNIT(c, xp[30], yp[30], &zp[30]);

	mov	eax, 4
	imul	ecx, eax, 30
	add	ecx, DWORD PTR _zp$[ebp]
	push	ecx
	mov	edx, 4
	imul	eax, edx, 30
	mov	ecx, DWORD PTR _yp$[ebp]
	mov	edx, DWORD PTR [ecx+eax]
	push	edx
	mov	eax, 4
	imul	ecx, eax, 30
	mov	edx, DWORD PTR _xp$[ebp]
	mov	eax, DWORD PTR [edx+ecx]
	push	eax
	movzx	ecx, BYTE PTR _c$[ebp]
	push	ecx
	call	__ADD_UNIT
	add	esp, 16					; 00000010H
	mov	BYTE PTR _c$[ebp], al

; 73   :     c = _ADD_UNIT(c, xp[31], yp[31], &zp[31]);

	mov	edx, 4
	imul	eax, edx, 31
	add	eax, DWORD PTR _zp$[ebp]
	push	eax
	mov	ecx, 4
	imul	edx, ecx, 31
	mov	eax, DWORD PTR _yp$[ebp]
	mov	ecx, DWORD PTR [eax+edx]
	push	ecx
	mov	edx, 4
	imul	eax, edx, 31
	mov	ecx, DWORD PTR _xp$[ebp]
	mov	edx, DWORD PTR [ecx+eax]
	push	edx
	movzx	eax, BYTE PTR _c$[ebp]
	push	eax
	call	__ADD_UNIT
	add	esp, 16					; 00000010H
	mov	BYTE PTR _c$[ebp], al

; 74   : #elif defined(__GNUC__)
; 75   : #ifdef _M_IX86
; 76   :     __asm__ volatile (
; 77   :         "addb\t$-1, %0\n\t"
; 78   :         "movl\t(%1), %%ecx\n\t"
; 79   :         "adcl\t(%2), %%ecx\n\t"
; 80   :         "movl\t%%ecx, (%3)\n\t"
; 81   :         "movl\t4(%1), %%ecx\n\t"
; 82   :         "adcl\t4(%2), %%ecx\n\t"
; 83   :         "movl\t%%ecx, 4(%3)\n\t"
; 84   :         "movl\t8(%1), %%ecx\n\t"
; 85   :         "adcl\t8(%2), %%ecx\n\t"
; 86   :         "movl\t%%ecx, 8(%3)\n\t"
; 87   :         "movl\t12(%1), %%ecx\n\t"
; 88   :         "adcl\t12(%2), %%ecx\n\t"
; 89   :         "movl\t%%ecx, 12(%3)\n\t"
; 90   :         "movl\t16(%1), %%ecx\n\t"
; 91   :         "adcl\t16(%2), %%ecx\n\t"
; 92   :         "movl\t%%ecx, 16(%3)\n\t"
; 93   :         "movl\t20(%1), %%ecx\n\t"
; 94   :         "adcl\t20(%2), %%ecx\n\t"
; 95   :         "movl\t%%ecx, 20(%3)\n\t"
; 96   :         "movl\t24(%1), %%ecx\n\t"
; 97   :         "adcl\t24(%2), %%ecx\n\t"
; 98   :         "movl\t%%ecx, 24(%3)\n\t"
; 99   :         "movl\t28(%1), %%ecx\n\t"
; 100  :         "adcl\t28(%2), %%ecx\n\t"
; 101  :         "movl\t%%ecx, 28(%3)\n\t"
; 102  :         "movl\t32(%1), %%ecx\n\t"
; 103  :         "adcl\t32(%2), %%ecx\n\t"
; 104  :         "movl\t%%ecx, 32(%3)\n\t"
; 105  :         "movl\t36(%1), %%ecx\n\t"
; 106  :         "adcl\t36(%2), %%ecx\n\t"
; 107  :         "movl\t%%ecx, 36(%3)\n\t"
; 108  :         "movl\t40(%1), %%ecx\n\t"
; 109  :         "adcl\t40(%2), %%ecx\n\t"
; 110  :         "movl\t%%ecx, 40(%3)\n\t"
; 111  :         "movl\t44(%1), %%ecx\n\t"
; 112  :         "adcl\t44(%2), %%ecx\n\t"
; 113  :         "movl\t%%ecx, 44(%3)\n\t"
; 114  :         "movl\t48(%1), %%ecx\n\t"
; 115  :         "adcl\t48(%2), %%ecx\n\t"
; 116  :         "movl\t%%ecx, 48(%3)\n\t"
; 117  :         "movl\t52(%1), %%ecx\n\t"
; 118  :         "adcl\t52(%2), %%ecx\n\t"
; 119  :         "movl\t%%ecx, 52(%3)\n\t"
; 120  :         "movl\t56(%1), %%ecx\n\t"
; 121  :         "adcl\t56(%2), %%ecx\n\t"
; 122  :         "movl\t%%ecx, 56(%3)\n\t"
; 123  :         "movl\t60(%1), %%ecx\n\t"
; 124  :         "adcl\t60(%2), %%ecx\n\t"
; 125  :         "movl\t%%ecx, 60(%3)\n\t"
; 126  :         "movl\t64(%1), %%ecx\n\t"
; 127  :         "adcl\t64(%2), %%ecx\n\t"
; 128  :         "movl\t%%ecx, 64(%3)\n\t"
; 129  :         "movl\t68(%1), %%ecx\n\t"
; 130  :         "adcl\t68(%2), %%ecx\n\t"
; 131  :         "movl\t%%ecx, 68(%3)\n\t"
; 132  :         "movl\t72(%1), %%ecx\n\t"
; 133  :         "adcl\t72(%2), %%ecx\n\t"
; 134  :         "movl\t%%ecx, 72(%3)\n\t"
; 135  :         "movl\t76(%1), %%ecx\n\t"
; 136  :         "adcl\t76(%2), %%ecx\n\t"
; 137  :         "movl\t%%ecx, 76(%3)\n\t"
; 138  :         "movl\t80(%1), %%ecx\n\t"
; 139  :         "adcl\t80(%2), %%ecx\n\t"
; 140  :         "movl\t%%ecx, 80(%3)\n\t"
; 141  :         "movl\t84(%1), %%ecx\n\t"
; 142  :         "adcl\t84(%2), %%ecx\n\t"
; 143  :         "movl\t%%ecx, 84(%3)\n\t"
; 144  :         "movl\t88(%1), %%ecx\n\t"
; 145  :         "adcl\t88(%2), %%ecx\n\t"
; 146  :         "movl\t%%ecx, 88(%3)\n\t"
; 147  :         "movl\t92(%1), %%ecx\n\t"
; 148  :         "adcl\t92(%2), %%ecx\n\t"
; 149  :         "movl\t%%ecx, 92(%3)\n\t"
; 150  :         "movl\t96(%1), %%ecx\n\t"
; 151  :         "adcl\t96(%2), %%ecx\n\t"
; 152  :         "movl\t%%ecx, 96(%3)\n\t"
; 153  :         "movl\t100(%1), %%ecx\n\t"
; 154  :         "adcl\t100(%2), %%ecx\n\t"
; 155  :         "movl\t%%ecx, 100(%3)\n\t"
; 156  :         "movl\t104(%1), %%ecx\n\t"
; 157  :         "adcl\t104(%2), %%ecx\n\t"
; 158  :         "movl\t%%ecx, 104(%3)\n\t"
; 159  :         "movl\t108(%1), %%ecx\n\t"
; 160  :         "adcl\t108(%2), %%ecx\n\t"
; 161  :         "movl\t%%ecx, 108(%3)\n\t"
; 162  :         "movl\t112(%1), %%ecx\n\t"
; 163  :         "adcl\t112(%2), %%ecx\n\t"
; 164  :         "movl\t%%ecx, 112(%3)\n\t"
; 165  :         "movl\t116(%1), %%ecx\n\t"
; 166  :         "adcl\t116(%2), %%ecx\n\t"
; 167  :         "movl\t%%ecx, 116(%3)\n\t"
; 168  :         "movl\t120(%1), %%ecx\n\t"
; 169  :         "adcl\t120(%2), %%ecx\n\t"
; 170  :         "movl\t%%ecx, 120(%3)\n\t"
; 171  :         "movl\t124(%1), %%ecx\n\t"
; 172  :         "adcl\t124(%2), %%ecx\n\t"
; 173  :         "movl\t%%ecx, 124(%3)\n\t"
; 174  :         "setc\t%0"
; 175  :         : "+r"(c), "+r"(xp), "+r"(yp), "+r"(zp)
; 176  :         :
; 177  :         : "cc", "memory", "%ecx"
; 178  : );
; 179  : #elif defined(_M_IX64)
; 180  :     __asm__ volatile (
; 181  :         "addb\t$-1, %0\n\t"
; 182  :         "movq\t(%1), %%rcx\n\t"
; 183  :         "adcq\t(%2), %%rcx\n\t"
; 184  :         "movq\t%%rcx, (%3)\n\t"
; 185  :         "movq\t8(%1), %%rcx\n\t"
; 186  :         "adcq\t8(%2), %%rcx\n\t"
; 187  :         "movq\t%%rcx, 8(%3)\n\t"
; 188  :         "movq\t16(%1), %%rcx\n\t"
; 189  :         "adcq\t16(%2), %%rcx\n\t"
; 190  :         "movq\t%%rcx, 16(%3)\n\t"
; 191  :         "movq\t24(%1), %%rcx\n\t"
; 192  :         "adcq\t24(%2), %%rcx\n\t"
; 193  :         "movq\t%%rcx, 24(%3)\n\t"
; 194  :         "movq\t32(%1), %%rcx\n\t"
; 195  :         "adcq\t32(%2), %%rcx\n\t"
; 196  :         "movq\t%%rcx, 32(%3)\n\t"
; 197  :         "movq\t40(%1), %%rcx\n\t"
; 198  :         "adcq\t40(%2), %%rcx\n\t"
; 199  :         "movq\t%%rcx, 40(%3)\n\t"
; 200  :         "movq\t48(%1), %%rcx\n\t"
; 201  :         "adcq\t48(%2), %%rcx\n\t"
; 202  :         "movq\t%%rcx, 48(%3)\n\t"
; 203  :         "movq\t56(%1), %%rcx\n\t"
; 204  :         "adcq\t56(%2), %%rcx\n\t"
; 205  :         "movq\t%%rcx, 56(%3)\n\t"
; 206  :         "movq\t64(%1), %%rcx\n\t"
; 207  :         "adcq\t64(%2), %%rcx\n\t"
; 208  :         "movq\t%%rcx, 64(%3)\n\t"
; 209  :         "movq\t72(%1), %%rcx\n\t"
; 210  :         "adcq\t72(%2), %%rcx\n\t"
; 211  :         "movq\t%%rcx, 72(%3)\n\t"
; 212  :         "movq\t80(%1), %%rcx\n\t"
; 213  :         "adcq\t80(%2), %%rcx\n\t"
; 214  :         "movq\t%%rcx, 80(%3)\n\t"
; 215  :         "movq\t88(%1), %%rcx\n\t"
; 216  :         "adcq\t88(%2), %%rcx\n\t"
; 217  :         "movq\t%%rcx, 88(%3)\n\t"
; 218  :         "movq\t96(%1), %%rcx\n\t"
; 219  :         "adcq\t96(%2), %%rcx\n\t"
; 220  :         "movq\t%%rcx, 96(%3)\n\t"
; 221  :         "movq\t104(%1), %%rcx\n\t"
; 222  :         "adcq\t104(%2), %%rcx\n\t"
; 223  :         "movq\t%%rcx, 104(%3)\n\t"
; 224  :         "movq\t112(%1), %%rcx\n\t"
; 225  :         "adcq\t112(%2), %%rcx\n\t"
; 226  :         "movq\t%%rcx, 112(%3)\n\t"
; 227  :         "movq\t120(%1), %%rcx\n\t"
; 228  :         "adcq\t120(%2), %%rcx\n\t"
; 229  :         "movq\t%%rcx, 120(%3)\n\t"
; 230  :         "movq\t128(%1), %%rcx\n\t"
; 231  :         "adcq\t128(%2), %%rcx\n\t"
; 232  :         "movq\t%%rcx, 128(%3)\n\t"
; 233  :         "movq\t136(%1), %%rcx\n\t"
; 234  :         "adcq\t136(%2), %%rcx\n\t"
; 235  :         "movq\t%%rcx, 136(%3)\n\t"
; 236  :         "movq\t144(%1), %%rcx\n\t"
; 237  :         "adcq\t144(%2), %%rcx\n\t"
; 238  :         "movq\t%%rcx, 144(%3)\n\t"
; 239  :         "movq\t152(%1), %%rcx\n\t"
; 240  :         "adcq\t152(%2), %%rcx\n\t"
; 241  :         "movq\t%%rcx, 152(%3)\n\t"
; 242  :         "movq\t160(%1), %%rcx\n\t"
; 243  :         "adcq\t160(%2), %%rcx\n\t"
; 244  :         "movq\t%%rcx, 160(%3)\n\t"
; 245  :         "movq\t168(%1), %%rcx\n\t"
; 246  :         "adcq\t168(%2), %%rcx\n\t"
; 247  :         "movq\t%%rcx, 168(%3)\n\t"
; 248  :         "movq\t176(%1), %%rcx\n\t"
; 249  :         "adcq\t176(%2), %%rcx\n\t"
; 250  :         "movq\t%%rcx, 176(%3)\n\t"
; 251  :         "movq\t184(%1), %%rcx\n\t"
; 252  :         "adcq\t184(%2), %%rcx\n\t"
; 253  :         "movq\t%%rcx, 184(%3)\n\t"
; 254  :         "movq\t192(%1), %%rcx\n\t"
; 255  :         "adcq\t192(%2), %%rcx\n\t"
; 256  :         "movq\t%%rcx, 192(%3)\n\t"
; 257  :         "movq\t200(%1), %%rcx\n\t"
; 258  :         "adcq\t200(%2), %%rcx\n\t"
; 259  :         "movq\t%%rcx, 200(%3)\n\t"
; 260  :         "movq\t208(%1), %%rcx\n\t"
; 261  :         "adcq\t208(%2), %%rcx\n\t"
; 262  :         "movq\t%%rcx, 208(%3)\n\t"
; 263  :         "movq\t216(%1), %%rcx\n\t"
; 264  :         "adcq\t216(%2), %%rcx\n\t"
; 265  :         "movq\t%%rcx, 216(%3)\n\t"
; 266  :         "movq\t224(%1), %%rcx\n\t"
; 267  :         "adcq\t224(%2), %%rcx\n\t"
; 268  :         "movq\t%%rcx, 224(%3)\n\t"
; 269  :         "movq\t232(%1), %%rcx\n\t"
; 270  :         "adcq\t232(%2), %%rcx\n\t"
; 271  :         "movq\t%%rcx, 232(%3)\n\t"
; 272  :         "movq\t240(%1), %%rcx\n\t"
; 273  :         "adcq\t240(%2), %%rcx\n\t"
; 274  :         "movq\t%%rcx, 240(%3)\n\t"
; 275  :         "movq\t248(%1), %%rcx\n\t"
; 276  :         "adcq\t248(%2), %%rcx\n\t"
; 277  :         "movq\t%%rcx, 248(%3)\n\t"
; 278  :         "setc\t%0"
; 279  :         : "+r"(c), "+r"(xp), "+r"(yp), "+r"(zp)
; 280  :         :
; 281  :         : "cc", "memory", "%rcx"
; 282  : );
; 283  : #else
; 284  : #error unknown platform
; 285  : #endif
; 286  : #else
; 287  : #error unknown compiler
; 288  : #endif
; 289  :     return (c);

	mov	al, BYTE PTR _c$[ebp]

; 290  : }

	cmp	ebp, esp
	call	__RTC_CheckEsp
	pop	ebp
	ret	0
__ADD_32WORDS_ADC ENDP
_TEXT	ENDS
; Function compile flags: /Odtp /RTCsu
; File z:\sources\lunor\repos\rougemeilland\palmtree.math.core.uint\palmtree.math.core.uint\pmc_inline_func.h
_TEXT	SEGMENT
_pos$ = -8						; size = 4
_x$ = 8							; size = 4
__LZCNT_ALT_UNIT PROC

; 622  :     {

	push	ebp
	mov	ebp, esp
	sub	esp, 12					; 0000000cH
	mov	DWORD PTR [ebp-12], -858993460		; ccccccccH
	mov	DWORD PTR [ebp-8], -858993460		; ccccccccH
	mov	DWORD PTR [ebp-4], -858993460		; ccccccccH
	mov	ecx, OFFSET __8CA3E54E_pmc_inline_func@h
	call	@__CheckForDebuggerJustMyCode@4

; 623  :         if (x == 0)

	cmp	DWORD PTR _x$[ebp], 0
	jne	SHORT $LN2@LZCNT_ALT_

; 624  :             return (sizeof(x) * 8);

	mov	eax, 32					; 00000020H
	jmp	SHORT $LN1@LZCNT_ALT_
$LN2@LZCNT_ALT_:

; 625  : #ifdef _M_IX86
; 626  :         _UINT32_T pos;
; 627  : #ifdef _MSC_VER
; 628  :         _BitScanReverse(&pos, x);

	bsr	eax, DWORD PTR _x$[ebp]
	mov	DWORD PTR _pos$[ebp], eax

; 629  : #elif defined(__GNUC__)
; 630  :         __asm__("bsrl %1, %0" : "=r"(pos) : "rm"(x));
; 631  : #else
; 632  : #error unknown compiler
; 633  : #endif
; 634  : #elif defined(_M_X64)
; 635  : #ifdef _MSC_VER
; 636  :         _UINT32_T pos;
; 637  :         _BitScanReverse64(&pos, x);
; 638  : #elif defined(__GNUC__)
; 639  :         _UINT64_T pos;
; 640  :         __asm__("bsrq %1, %0" : "=r"(pos) : "rm"(x));
; 641  : #else
; 642  : #error unknown compiler
; 643  : #endif
; 644  : #else
; 645  : #error unknown platform
; 646  : #endif
; 647  :         return (sizeof(x) * 8 - 1 - pos);

	mov	eax, 31					; 0000001fH
	sub	eax, DWORD PTR _pos$[ebp]
$LN1@LZCNT_ALT_:

; 648  :     }

	push	edx
	mov	ecx, ebp
	push	eax
	lea	edx, DWORD PTR $LN6@LZCNT_ALT_
	call	@_RTC_CheckStackVars@8
	pop	eax
	pop	edx
	add	esp, 12					; 0000000cH
	cmp	ebp, esp
	call	__RTC_CheckEsp
	mov	esp, ebp
	pop	ebp
	ret	0
$LN6@LZCNT_ALT_:
	DD	1
	DD	$LN5@LZCNT_ALT_
$LN5@LZCNT_ALT_:
	DD	-8					; fffffff8H
	DD	4
	DD	$LN4@LZCNT_ALT_
$LN4@LZCNT_ALT_:
	DB	112					; 00000070H
	DB	111					; 0000006fH
	DB	115					; 00000073H
	DB	0
__LZCNT_ALT_UNIT ENDP
_TEXT	ENDS
; Function compile flags: /Odtp /RTCsu
; File z:\sources\lunor\repos\rougemeilland\palmtree.math.core.uint\palmtree.math.core.uint\pmc_inline_func.h
_TEXT	SEGMENT
_pos$ = -8						; size = 4
_x$ = 8							; size = 4
__LZCNT_ALT_32 PROC

; 589  :     {

	push	ebp
	mov	ebp, esp
	sub	esp, 12					; 0000000cH
	mov	DWORD PTR [ebp-12], -858993460		; ccccccccH
	mov	DWORD PTR [ebp-8], -858993460		; ccccccccH
	mov	DWORD PTR [ebp-4], -858993460		; ccccccccH
	mov	ecx, OFFSET __8CA3E54E_pmc_inline_func@h
	call	@__CheckForDebuggerJustMyCode@4

; 590  :         if (x == 0)

	cmp	DWORD PTR _x$[ebp], 0
	jne	SHORT $LN2@LZCNT_ALT_

; 591  :             return (sizeof(x) * 8);

	mov	eax, 32					; 00000020H
	jmp	SHORT $LN1@LZCNT_ALT_
$LN2@LZCNT_ALT_:

; 592  :         _UINT32_T pos;
; 593  : #ifdef _MSC_VER
; 594  :         _BitScanReverse(&pos, x);

	bsr	eax, DWORD PTR _x$[ebp]
	mov	DWORD PTR _pos$[ebp], eax

; 595  : #elif defined(__GNUC__)
; 596  :         __asm__("bsrl %1, %0" : "=r"(pos) : "rm"(x));
; 597  : #else
; 598  : #error unknown compiler
; 599  : #endif
; 600  :         return (sizeof(x) * 8 - 1 - pos);

	mov	eax, 31					; 0000001fH
	sub	eax, DWORD PTR _pos$[ebp]
$LN1@LZCNT_ALT_:

; 601  :     }

	push	edx
	mov	ecx, ebp
	push	eax
	lea	edx, DWORD PTR $LN6@LZCNT_ALT_
	call	@_RTC_CheckStackVars@8
	pop	eax
	pop	edx
	add	esp, 12					; 0000000cH
	cmp	ebp, esp
	call	__RTC_CheckEsp
	mov	esp, ebp
	pop	ebp
	ret	0
$LN6@LZCNT_ALT_:
	DD	1
	DD	$LN5@LZCNT_ALT_
$LN5@LZCNT_ALT_:
	DD	-8					; fffffff8H
	DD	4
	DD	$LN4@LZCNT_ALT_
$LN4@LZCNT_ALT_:
	DB	112					; 00000070H
	DB	111					; 0000006fH
	DB	115					; 00000073H
	DB	0
__LZCNT_ALT_32 ENDP
_TEXT	ENDS
; Function compile flags: /Odtp /RTCsu
; File z:\sources\lunor\repos\rougemeilland\palmtree.math.core.uint\palmtree.math.core.uint\pmc_inline_func.h
_TEXT	SEGMENT
_carry$ = 8						; size = 1
_u$ = 12						; size = 4
_v$ = 16						; size = 4
_w$ = 20						; size = 4
__ADDX_UNIT PROC

; 234  :     {

	push	ebp
	mov	ebp, esp
	push	ebx
	mov	ecx, OFFSET __8CA3E54E_pmc_inline_func@h
	call	@__CheckForDebuggerJustMyCode@4

; 235  : #ifdef _M_IX86
; 236  :         return (_addcarryx_u32(carry, u, v, w));

	mov	eax, DWORD PTR _w$[ebp]
	mov	ecx, DWORD PTR _v$[ebp]
	mov	edx, DWORD PTR _u$[ebp]
	mov	bl, BYTE PTR _carry$[ebp]
	add	bl, 255					; 000000ffH
	adcx	edx, ecx
	setb	cl
	mov	DWORD PTR [eax], edx
	mov	al, cl

; 237  : #elif defined(_M_X64)
; 238  :         return (_addcarryx_u64(carry, u, v, w));
; 239  : #else
; 240  : #error unknown platform
; 241  : #endif
; 242  :     }

	pop	ebx
	cmp	ebp, esp
	call	__RTC_CheckEsp
	pop	ebp
	ret	0
__ADDX_UNIT ENDP
_TEXT	ENDS
; Function compile flags: /Odtp /RTCsu
; File z:\sources\lunor\repos\rougemeilland\palmtree.math.core.uint\palmtree.math.core.uint\pmc_inline_func.h
_TEXT	SEGMENT
_carry$ = 8						; size = 1
_u$ = 12						; size = 4
_v$ = 16						; size = 4
_w$ = 20						; size = 4
__ADD_UNIT PROC

; 206  :     {

	push	ebp
	mov	ebp, esp
	push	ebx
	mov	ecx, OFFSET __8CA3E54E_pmc_inline_func@h
	call	@__CheckForDebuggerJustMyCode@4

; 207  : #ifdef _M_IX86
; 208  :         return (_addcarry_u32(carry, u, v, w));

	mov	eax, DWORD PTR _w$[ebp]
	mov	ecx, DWORD PTR _v$[ebp]
	mov	edx, DWORD PTR _u$[ebp]
	mov	bl, BYTE PTR _carry$[ebp]
	add	bl, 255					; 000000ffH
	adc	edx, ecx
	setb	cl
	mov	DWORD PTR [eax], edx
	mov	al, cl

; 209  : #elif defined(_M_X64)
; 210  :         return (_addcarry_u64(carry, u, v, w));
; 211  : #else
; 212  : #error unknown platform
; 213  : #endif
; 214  :     }

	pop	ebx
	cmp	ebp, esp
	call	__RTC_CheckEsp
	pop	ebp
	ret	0
__ADD_UNIT ENDP
_TEXT	ENDS
; Function compile flags: /Odtp /RTCsu
; File z:\sources\lunor\repos\rougemeilland\palmtree.math.core.uint\palmtree.math.core.uint\pmc_inline_func.h
_TEXT	SEGMENT
tv65 = -4						; size = 4
_x$ = 8							; size = 4
_y$ = 12						; size = 4
__MAXIMUM_UNIT PROC

; 196  :     {

	push	ebp
	mov	ebp, esp
	push	ecx
	mov	DWORD PTR [ebp-4], -858993460		; ccccccccH
	mov	ecx, OFFSET __8CA3E54E_pmc_inline_func@h
	call	@__CheckForDebuggerJustMyCode@4

; 197  :         return (x >= y ? x : y);

	mov	eax, DWORD PTR _x$[ebp]
	cmp	eax, DWORD PTR _y$[ebp]
	jb	SHORT $LN3@MAXIMUM_UN
	mov	ecx, DWORD PTR _x$[ebp]
	mov	DWORD PTR tv65[ebp], ecx
	jmp	SHORT $LN4@MAXIMUM_UN
$LN3@MAXIMUM_UN:
	mov	edx, DWORD PTR _y$[ebp]
	mov	DWORD PTR tv65[ebp], edx
$LN4@MAXIMUM_UN:
	mov	eax, DWORD PTR tv65[ebp]

; 198  :     }

	add	esp, 4
	cmp	ebp, esp
	call	__RTC_CheckEsp
	mov	esp, ebp
	pop	ebp
	ret	0
__MAXIMUM_UNIT ENDP
_TEXT	ENDS
; Function compile flags: /Odtp /RTCsu
; File z:\sources\lunor\repos\rougemeilland\palmtree.math.core.uint\palmtree.math.core.uint\pmc_inline_func.h
_TEXT	SEGMENT
_value$ = 8						; size = 8
_result_high$ = 16					; size = 4
__FROMDWORDTOWORD PROC

; 175  :     {

	push	ebp
	mov	ebp, esp
	mov	ecx, OFFSET __8CA3E54E_pmc_inline_func@h
	call	@__CheckForDebuggerJustMyCode@4

; 176  :         *result_high = (_UINT32_T)(value >> 32);

	mov	eax, DWORD PTR _value$[ebp]
	mov	edx, DWORD PTR _value$[ebp+4]
	mov	cl, 32					; 00000020H
	call	__aullshr
	mov	ecx, DWORD PTR _result_high$[ebp]
	mov	DWORD PTR [ecx], eax

; 177  :         return ((_UINT32_T)value);

	mov	eax, DWORD PTR _value$[ebp]

; 178  :     }

	cmp	ebp, esp
	call	__RTC_CheckEsp
	pop	ebp
	ret	0
__FROMDWORDTOWORD ENDP
_TEXT	ENDS
; Function compile flags: /Odtp /RTCsu
; File z:\sources\lunor\repos\rougemeilland\palmtree.math.core.uint\palmtree.math.core.uint\pmc_add.c
_TEXT	SEGMENT
_w_light_check_code$1 = -44				; size = 4
_w_bit_count$2 = -36					; size = 4
_v_bit_count$3 = -32					; size = 4
_u_bit_count$4 = -28					; size = 4
_nw$ = -20						; size = 4
_result$ = -12						; size = 4
_nv$ = -8						; size = 4
_nu$ = -4						; size = 4
_u$ = 8							; size = 4
_v$ = 12						; size = 4
_w$ = 16						; size = 4
_PMC_Add_X_X@12 PROC

; 551  : {

	push	ebp
	mov	ebp, esp
	sub	esp, 48					; 00000030H
	push	esi
	push	edi
	lea	edi, DWORD PTR [ebp-48]
	mov	ecx, 12					; 0000000cH
	mov	eax, -858993460				; ccccccccH
	rep stosd
	mov	ecx, OFFSET __DB5B71FB_pmc_add@c
	call	@__CheckForDebuggerJustMyCode@4

; 552  :     if (u == NULL)

	cmp	DWORD PTR _u$[ebp], 0
	jne	SHORT $LN2@PMC_Add_X_

; 553  :         return (PMC_STATUS_ARGUMENT_ERROR);

	or	eax, -1
	jmp	$LN1@PMC_Add_X_
$LN2@PMC_Add_X_:

; 554  :     if (v == NULL)

	cmp	DWORD PTR _v$[ebp], 0
	jne	SHORT $LN3@PMC_Add_X_

; 555  :         return (PMC_STATUS_ARGUMENT_ERROR);

	or	eax, -1
	jmp	$LN1@PMC_Add_X_
$LN3@PMC_Add_X_:

; 556  :     if (w == NULL)

	cmp	DWORD PTR _w$[ebp], 0
	jne	SHORT $LN4@PMC_Add_X_

; 557  :         return (PMC_STATUS_ARGUMENT_ERROR);

	or	eax, -1
	jmp	$LN1@PMC_Add_X_
$LN4@PMC_Add_X_:

; 558  :     NUMBER_HEADER* nu = (NUMBER_HEADER*)u;

	mov	eax, DWORD PTR _u$[ebp]
	mov	DWORD PTR _nu$[ebp], eax

; 559  :     NUMBER_HEADER* nv = (NUMBER_HEADER*)v;

	mov	ecx, DWORD PTR _v$[ebp]
	mov	DWORD PTR _nv$[ebp], ecx

; 560  :     PMC_STATUS_CODE result;
; 561  :     if ((result = CheckNumber(nu)) != PMC_STATUS_OK)

	mov	edx, DWORD PTR _nu$[ebp]
	push	edx
	call	_CheckNumber
	add	esp, 4
	mov	DWORD PTR _result$[ebp], eax
	cmp	DWORD PTR _result$[ebp], 0
	je	SHORT $LN5@PMC_Add_X_

; 562  :         return (result);

	mov	eax, DWORD PTR _result$[ebp]
	jmp	$LN1@PMC_Add_X_
$LN5@PMC_Add_X_:

; 563  :     if ((result = CheckNumber(nv)) != PMC_STATUS_OK)

	mov	eax, DWORD PTR _nv$[ebp]
	push	eax
	call	_CheckNumber
	add	esp, 4
	mov	DWORD PTR _result$[ebp], eax
	cmp	DWORD PTR _result$[ebp], 0
	je	SHORT $LN6@PMC_Add_X_

; 564  :         return (result);

	mov	eax, DWORD PTR _result$[ebp]
	jmp	$LN1@PMC_Add_X_
$LN6@PMC_Add_X_:

; 565  :     NUMBER_HEADER* nw;
; 566  :     if (nu->IS_ZERO)

	mov	ecx, DWORD PTR _nu$[ebp]
	mov	edx, DWORD PTR [ecx+24]
	shr	edx, 1
	and	edx, 1
	je	SHORT $LN7@PMC_Add_X_

; 567  :     {
; 568  :         if (nv->IS_ZERO)

	mov	eax, DWORD PTR _nv$[ebp]
	mov	ecx, DWORD PTR [eax+24]
	shr	ecx, 1
	and	ecx, 1
	je	SHORT $LN9@PMC_Add_X_

; 569  :             nw = &number_zero;

	mov	DWORD PTR _nw$[ebp], OFFSET _number_zero
	jmp	SHORT $LN10@PMC_Add_X_
$LN9@PMC_Add_X_:

; 570  :         else
; 571  :         {
; 572  :             if ((result = DuplicateNumber(nv, &nw)) != PMC_STATUS_OK)

	lea	edx, DWORD PTR _nw$[ebp]
	push	edx
	mov	eax, DWORD PTR _nv$[ebp]
	push	eax
	call	_DuplicateNumber
	add	esp, 8
	mov	DWORD PTR _result$[ebp], eax
	cmp	DWORD PTR _result$[ebp], 0
	je	SHORT $LN10@PMC_Add_X_

; 573  :                 return (result);

	mov	eax, DWORD PTR _result$[ebp]
	jmp	$LN1@PMC_Add_X_
$LN10@PMC_Add_X_:

; 574  :         }
; 575  :     }

	jmp	$LN8@PMC_Add_X_
$LN7@PMC_Add_X_:

; 576  :     else
; 577  :     {
; 578  :         if (nv->IS_ZERO)

	mov	ecx, DWORD PTR _nv$[ebp]
	mov	edx, DWORD PTR [ecx+24]
	shr	edx, 1
	and	edx, 1
	je	SHORT $LN12@PMC_Add_X_

; 579  :         {
; 580  :             if ((result = DuplicateNumber(nu, &nw)) != PMC_STATUS_OK)

	lea	eax, DWORD PTR _nw$[ebp]
	push	eax
	mov	ecx, DWORD PTR _nu$[ebp]
	push	ecx
	call	_DuplicateNumber
	add	esp, 8
	mov	DWORD PTR _result$[ebp], eax
	cmp	DWORD PTR _result$[ebp], 0
	je	SHORT $LN14@PMC_Add_X_

; 581  :                 return (result);

	mov	eax, DWORD PTR _result$[ebp]
	jmp	$LN1@PMC_Add_X_
$LN14@PMC_Add_X_:

; 582  :         }

	jmp	$LN8@PMC_Add_X_
$LN12@PMC_Add_X_:

; 583  :         else
; 584  :         {
; 585  :             __UNIT_TYPE u_bit_count = nu->UNIT_BIT_COUNT;

	mov	edx, DWORD PTR _nu$[ebp]
	mov	eax, DWORD PTR [edx+12]
	mov	DWORD PTR _u_bit_count$4[ebp], eax

; 586  :             __UNIT_TYPE v_bit_count = nv->UNIT_BIT_COUNT;

	mov	ecx, DWORD PTR _nv$[ebp]
	mov	edx, DWORD PTR [ecx+12]
	mov	DWORD PTR _v_bit_count$3[ebp], edx

; 587  :             __UNIT_TYPE w_bit_count = _MAXIMUM_UNIT(u_bit_count, v_bit_count) + 1;

	mov	eax, DWORD PTR _v_bit_count$3[ebp]
	push	eax
	mov	ecx, DWORD PTR _u_bit_count$4[ebp]
	push	ecx
	call	__MAXIMUM_UNIT
	add	esp, 8
	add	eax, 1
	mov	DWORD PTR _w_bit_count$2[ebp], eax

; 588  :             __UNIT_TYPE w_light_check_code;
; 589  :             if ((result = AllocateNumber(&nw, w_bit_count, &w_light_check_code)) != PMC_STATUS_OK)

	lea	edx, DWORD PTR _w_light_check_code$1[ebp]
	push	edx
	mov	eax, DWORD PTR _w_bit_count$2[ebp]
	push	eax
	lea	ecx, DWORD PTR _nw$[ebp]
	push	ecx
	call	_AllocateNumber
	add	esp, 12					; 0000000cH
	mov	DWORD PTR _result$[ebp], eax
	cmp	DWORD PTR _result$[ebp], 0
	je	SHORT $LN15@PMC_Add_X_

; 590  :                 return (result);

	mov	eax, DWORD PTR _result$[ebp]
	jmp	$LN1@PMC_Add_X_
$LN15@PMC_Add_X_:

; 591  :             if ((result = (*fp_Add_Imp)(nu->BLOCK, nu->UNIT_WORD_COUNT, nv->BLOCK, nv->UNIT_WORD_COUNT, nw->BLOCK, nw->BLOCK_COUNT)) != PMC_STATUS_OK)

	mov	esi, esp
	mov	edx, DWORD PTR _nw$[ebp]
	mov	eax, DWORD PTR [edx+28]
	push	eax
	mov	ecx, DWORD PTR _nw$[ebp]
	mov	edx, DWORD PTR [ecx+32]
	push	edx
	mov	eax, DWORD PTR _nv$[ebp]
	mov	ecx, DWORD PTR [eax+8]
	push	ecx
	mov	edx, DWORD PTR _nv$[ebp]
	mov	eax, DWORD PTR [edx+32]
	push	eax
	mov	ecx, DWORD PTR _nu$[ebp]
	mov	edx, DWORD PTR [ecx+8]
	push	edx
	mov	eax, DWORD PTR _nu$[ebp]
	mov	ecx, DWORD PTR [eax+32]
	push	ecx
	call	DWORD PTR _fp_Add_Imp
	add	esp, 24					; 00000018H
	cmp	esi, esp
	call	__RTC_CheckEsp
	mov	DWORD PTR _result$[ebp], eax
	cmp	DWORD PTR _result$[ebp], 0
	je	SHORT $LN16@PMC_Add_X_

; 592  :             {
; 593  :                 DeallocateNumber(nw);

	mov	edx, DWORD PTR _nw$[ebp]
	push	edx
	call	_DeallocateNumber
	add	esp, 4

; 594  :                 return (result);

	mov	eax, DWORD PTR _result$[ebp]
	jmp	SHORT $LN1@PMC_Add_X_
$LN16@PMC_Add_X_:

; 595  :             }
; 596  :             if ((result = CheckBlockLight(nw->BLOCK, w_light_check_code)) != PMC_STATUS_OK)

	mov	eax, DWORD PTR _w_light_check_code$1[ebp]
	push	eax
	mov	ecx, DWORD PTR _nw$[ebp]
	mov	edx, DWORD PTR [ecx+32]
	push	edx
	call	_CheckBlockLight
	add	esp, 8
	mov	DWORD PTR _result$[ebp], eax
	cmp	DWORD PTR _result$[ebp], 0
	je	SHORT $LN17@PMC_Add_X_

; 597  :                 return (result);

	mov	eax, DWORD PTR _result$[ebp]
	jmp	SHORT $LN1@PMC_Add_X_
$LN17@PMC_Add_X_:

; 598  :             CommitNumber(nw);

	mov	eax, DWORD PTR _nw$[ebp]
	push	eax
	call	_CommitNumber
	add	esp, 4
$LN8@PMC_Add_X_:

; 599  :         }
; 600  :     }
; 601  :     *w = (PMC_HANDLE_UINT)nw;

	mov	ecx, DWORD PTR _w$[ebp]
	mov	edx, DWORD PTR _nw$[ebp]
	mov	DWORD PTR [ecx], edx

; 602  : #ifdef _DEBUG
; 603  :     if ((result = CheckNumber((NUMBER_HEADER*)*w)) != PMC_STATUS_OK)

	mov	eax, DWORD PTR _w$[ebp]
	mov	ecx, DWORD PTR [eax]
	push	ecx
	call	_CheckNumber
	add	esp, 4
	mov	DWORD PTR _result$[ebp], eax
	cmp	DWORD PTR _result$[ebp], 0
	je	SHORT $LN18@PMC_Add_X_

; 604  :         return (result);

	mov	eax, DWORD PTR _result$[ebp]
	jmp	SHORT $LN1@PMC_Add_X_
$LN18@PMC_Add_X_:

; 605  : #endif
; 606  :     return (PMC_STATUS_OK);

	xor	eax, eax
$LN1@PMC_Add_X_:

; 607  : }

	push	edx
	mov	ecx, ebp
	push	eax
	lea	edx, DWORD PTR $LN23@PMC_Add_X_
	call	@_RTC_CheckStackVars@8
	pop	eax
	pop	edx
	pop	edi
	pop	esi
	add	esp, 48					; 00000030H
	cmp	ebp, esp
	call	__RTC_CheckEsp
	mov	esp, ebp
	pop	ebp
	ret	12					; 0000000cH
	npad	2
$LN23@PMC_Add_X_:
	DD	2
	DD	$LN22@PMC_Add_X_
$LN22@PMC_Add_X_:
	DD	-20					; ffffffecH
	DD	4
	DD	$LN20@PMC_Add_X_
	DD	-44					; ffffffd4H
	DD	4
	DD	$LN21@PMC_Add_X_
$LN21@PMC_Add_X_:
	DB	119					; 00000077H
	DB	95					; 0000005fH
	DB	108					; 0000006cH
	DB	105					; 00000069H
	DB	103					; 00000067H
	DB	104					; 00000068H
	DB	116					; 00000074H
	DB	95					; 0000005fH
	DB	99					; 00000063H
	DB	104					; 00000068H
	DB	101					; 00000065H
	DB	99					; 00000063H
	DB	107					; 0000006bH
	DB	95					; 0000005fH
	DB	99					; 00000063H
	DB	111					; 0000006fH
	DB	100					; 00000064H
	DB	101					; 00000065H
	DB	0
$LN20@PMC_Add_X_:
	DB	110					; 0000006eH
	DB	119					; 00000077H
	DB	0
_PMC_Add_X_X@12 ENDP
_TEXT	ENDS
; Function compile flags: /Odtp /RTCsu
; File z:\sources\lunor\repos\rougemeilland\palmtree.math.core.uint\palmtree.math.core.uint\pmc_add.c
_TEXT	SEGMENT
_result$ = -4						; size = 4
_u$ = 8							; size = 4
_v$ = 12						; size = 8
_w$ = 20						; size = 4
_PMC_Add_X_L@16 PROC

; 528  : {

	push	ebp
	mov	ebp, esp
	push	ecx
	mov	DWORD PTR [ebp-4], -858993460		; ccccccccH
	mov	ecx, OFFSET __DB5B71FB_pmc_add@c
	call	@__CheckForDebuggerJustMyCode@4

; 529  :     if (__UNIT_TYPE_BIT_COUNT * 2 < sizeof(v) * 8)

	xor	eax, eax
	je	SHORT $LN2@PMC_Add_X_

; 530  :     {
; 531  :         // _UINT64_T が 2 ワードで表現しきれない処理系には対応しない
; 532  :         return (PMC_STATUS_INTERNAL_ERROR);

	mov	eax, -256				; ffffff00H
	jmp	SHORT $LN1@PMC_Add_X_
$LN2@PMC_Add_X_:

; 533  :     }
; 534  :     if (u == NULL)

	cmp	DWORD PTR _u$[ebp], 0
	jne	SHORT $LN3@PMC_Add_X_

; 535  :         return (PMC_STATUS_ARGUMENT_ERROR);

	or	eax, -1
	jmp	SHORT $LN1@PMC_Add_X_
$LN3@PMC_Add_X_:

; 536  :     if (w == NULL)

	cmp	DWORD PTR _w$[ebp], 0
	jne	SHORT $LN4@PMC_Add_X_

; 537  :         return (PMC_STATUS_ARGUMENT_ERROR);

	or	eax, -1
	jmp	SHORT $LN1@PMC_Add_X_
$LN4@PMC_Add_X_:

; 538  :     PMC_STATUS_CODE result;
; 539  :     if ((result = CheckNumber((NUMBER_HEADER*)u)) != PMC_STATUS_OK)

	mov	ecx, DWORD PTR _u$[ebp]
	push	ecx
	call	_CheckNumber
	add	esp, 4
	mov	DWORD PTR _result$[ebp], eax
	cmp	DWORD PTR _result$[ebp], 0
	je	SHORT $LN5@PMC_Add_X_

; 540  :         return (result);

	mov	eax, DWORD PTR _result$[ebp]
	jmp	SHORT $LN1@PMC_Add_X_
$LN5@PMC_Add_X_:

; 541  :     if ((result = PMC_Add_X_L_Imp((NUMBER_HEADER*)u, v, (NUMBER_HEADER**)w)) != PMC_STATUS_OK)

	mov	edx, DWORD PTR _w$[ebp]
	push	edx
	mov	eax, DWORD PTR _v$[ebp+4]
	push	eax
	mov	ecx, DWORD PTR _v$[ebp]
	push	ecx
	mov	edx, DWORD PTR _u$[ebp]
	push	edx
	call	_PMC_Add_X_L_Imp
	add	esp, 16					; 00000010H
	mov	DWORD PTR _result$[ebp], eax
	cmp	DWORD PTR _result$[ebp], 0
	je	SHORT $LN6@PMC_Add_X_

; 542  :         return (result);

	mov	eax, DWORD PTR _result$[ebp]
	jmp	SHORT $LN1@PMC_Add_X_
$LN6@PMC_Add_X_:

; 543  : #ifdef _DEBUG
; 544  :     if ((result = CheckNumber((NUMBER_HEADER*)*w)) != PMC_STATUS_OK)

	mov	eax, DWORD PTR _w$[ebp]
	mov	ecx, DWORD PTR [eax]
	push	ecx
	call	_CheckNumber
	add	esp, 4
	mov	DWORD PTR _result$[ebp], eax
	cmp	DWORD PTR _result$[ebp], 0
	je	SHORT $LN7@PMC_Add_X_

; 545  :         return (result);

	mov	eax, DWORD PTR _result$[ebp]
	jmp	SHORT $LN1@PMC_Add_X_
$LN7@PMC_Add_X_:

; 546  : #endif
; 547  :     return (PMC_STATUS_OK);

	xor	eax, eax
$LN1@PMC_Add_X_:

; 548  : }

	add	esp, 4
	cmp	ebp, esp
	call	__RTC_CheckEsp
	mov	esp, ebp
	pop	ebp
	ret	16					; 00000010H
_PMC_Add_X_L@16 ENDP
_TEXT	ENDS
; Function compile flags: /Odtp /RTCsu
; File z:\sources\lunor\repos\rougemeilland\palmtree.math.core.uint\palmtree.math.core.uint\pmc_add.c
_TEXT	SEGMENT
_result$ = -4						; size = 4
_u$ = 8							; size = 4
_v$ = 12						; size = 4
_w$ = 16						; size = 4
_PMC_Add_X_I@12 PROC

; 376  : {

	push	ebp
	mov	ebp, esp
	push	ecx
	mov	DWORD PTR [ebp-4], -858993460		; ccccccccH
	mov	ecx, OFFSET __DB5B71FB_pmc_add@c
	call	@__CheckForDebuggerJustMyCode@4

; 377  :     if (__UNIT_TYPE_BIT_COUNT < sizeof(v) * 8)

	xor	eax, eax
	je	SHORT $LN2@PMC_Add_X_

; 378  :     {
; 379  :         // _UINT32_T が 1 ワードで表現しきれない処理系には対応しない
; 380  :         return (PMC_STATUS_INTERNAL_ERROR);

	mov	eax, -256				; ffffff00H
	jmp	SHORT $LN1@PMC_Add_X_
$LN2@PMC_Add_X_:

; 381  :     }
; 382  :     if (u == NULL)

	cmp	DWORD PTR _u$[ebp], 0
	jne	SHORT $LN3@PMC_Add_X_

; 383  :         return (PMC_STATUS_ARGUMENT_ERROR);

	or	eax, -1
	jmp	SHORT $LN1@PMC_Add_X_
$LN3@PMC_Add_X_:

; 384  :     if (w == NULL)

	cmp	DWORD PTR _w$[ebp], 0
	jne	SHORT $LN4@PMC_Add_X_

; 385  :         return (PMC_STATUS_ARGUMENT_ERROR);

	or	eax, -1
	jmp	SHORT $LN1@PMC_Add_X_
$LN4@PMC_Add_X_:

; 386  :     PMC_STATUS_CODE result;
; 387  :     if ((result = CheckNumber((NUMBER_HEADER*)u)) != PMC_STATUS_OK)

	mov	ecx, DWORD PTR _u$[ebp]
	push	ecx
	call	_CheckNumber
	add	esp, 4
	mov	DWORD PTR _result$[ebp], eax
	cmp	DWORD PTR _result$[ebp], 0
	je	SHORT $LN5@PMC_Add_X_

; 388  :         return (result);

	mov	eax, DWORD PTR _result$[ebp]
	jmp	SHORT $LN1@PMC_Add_X_
$LN5@PMC_Add_X_:

; 389  :     if ((result = PMC_Add_X_I_Imp((NUMBER_HEADER*)u, v, (NUMBER_HEADER**)w)) != PMC_STATUS_OK)

	mov	edx, DWORD PTR _w$[ebp]
	push	edx
	mov	eax, DWORD PTR _v$[ebp]
	push	eax
	mov	ecx, DWORD PTR _u$[ebp]
	push	ecx
	call	_PMC_Add_X_I_Imp
	add	esp, 12					; 0000000cH
	mov	DWORD PTR _result$[ebp], eax
	cmp	DWORD PTR _result$[ebp], 0
	je	SHORT $LN6@PMC_Add_X_

; 390  :         return (result);

	mov	eax, DWORD PTR _result$[ebp]
	jmp	SHORT $LN1@PMC_Add_X_
$LN6@PMC_Add_X_:

; 391  : #ifdef _DEBUG
; 392  :     if ((result = CheckNumber((NUMBER_HEADER*)*w)) != PMC_STATUS_OK)

	mov	edx, DWORD PTR _w$[ebp]
	mov	eax, DWORD PTR [edx]
	push	eax
	call	_CheckNumber
	add	esp, 4
	mov	DWORD PTR _result$[ebp], eax
	cmp	DWORD PTR _result$[ebp], 0
	je	SHORT $LN7@PMC_Add_X_

; 393  :         return (result);

	mov	eax, DWORD PTR _result$[ebp]
	jmp	SHORT $LN1@PMC_Add_X_
$LN7@PMC_Add_X_:

; 394  : #endif
; 395  :     return (PMC_STATUS_OK);

	xor	eax, eax
$LN1@PMC_Add_X_:

; 396  : }

	add	esp, 4
	cmp	ebp, esp
	call	__RTC_CheckEsp
	mov	esp, ebp
	pop	ebp
	ret	12					; 0000000cH
_PMC_Add_X_I@12 ENDP
_TEXT	ENDS
; Function compile flags: /Odtp /RTCsu
; File z:\sources\lunor\repos\rougemeilland\palmtree.math.core.uint\palmtree.math.core.uint\pmc_add.c
_TEXT	SEGMENT
_result$ = -4						; size = 4
_u$ = 8							; size = 8
_v$ = 16						; size = 4
_w$ = 20						; size = 4
_PMC_Add_L_X@16 PROC

; 505  : {

	push	ebp
	mov	ebp, esp
	push	ecx
	mov	DWORD PTR [ebp-4], -858993460		; ccccccccH
	mov	ecx, OFFSET __DB5B71FB_pmc_add@c
	call	@__CheckForDebuggerJustMyCode@4

; 506  :     if (__UNIT_TYPE_BIT_COUNT * 2 < sizeof(u) * 8)

	xor	eax, eax
	je	SHORT $LN2@PMC_Add_L_

; 507  :     {
; 508  :         // _UINT64_T が 2 ワードで表現しきれない処理系には対応しない
; 509  :         return (PMC_STATUS_INTERNAL_ERROR);

	mov	eax, -256				; ffffff00H
	jmp	SHORT $LN1@PMC_Add_L_
$LN2@PMC_Add_L_:

; 510  :     }
; 511  :     if (v == NULL)

	cmp	DWORD PTR _v$[ebp], 0
	jne	SHORT $LN3@PMC_Add_L_

; 512  :         return (PMC_STATUS_ARGUMENT_ERROR);

	or	eax, -1
	jmp	SHORT $LN1@PMC_Add_L_
$LN3@PMC_Add_L_:

; 513  :     if (w == NULL)

	cmp	DWORD PTR _w$[ebp], 0
	jne	SHORT $LN4@PMC_Add_L_

; 514  :         return (PMC_STATUS_ARGUMENT_ERROR);

	or	eax, -1
	jmp	SHORT $LN1@PMC_Add_L_
$LN4@PMC_Add_L_:

; 515  :     PMC_STATUS_CODE result;
; 516  :     if ((result = CheckNumber((NUMBER_HEADER*)v)) != PMC_STATUS_OK)

	mov	ecx, DWORD PTR _v$[ebp]
	push	ecx
	call	_CheckNumber
	add	esp, 4
	mov	DWORD PTR _result$[ebp], eax
	cmp	DWORD PTR _result$[ebp], 0
	je	SHORT $LN5@PMC_Add_L_

; 517  :         return (result);

	mov	eax, DWORD PTR _result$[ebp]
	jmp	SHORT $LN1@PMC_Add_L_
$LN5@PMC_Add_L_:

; 518  :     if ((result = PMC_Add_X_L_Imp((NUMBER_HEADER*)v, u, (NUMBER_HEADER**)w)) != PMC_STATUS_OK)

	mov	edx, DWORD PTR _w$[ebp]
	push	edx
	mov	eax, DWORD PTR _u$[ebp+4]
	push	eax
	mov	ecx, DWORD PTR _u$[ebp]
	push	ecx
	mov	edx, DWORD PTR _v$[ebp]
	push	edx
	call	_PMC_Add_X_L_Imp
	add	esp, 16					; 00000010H
	mov	DWORD PTR _result$[ebp], eax
	cmp	DWORD PTR _result$[ebp], 0
	je	SHORT $LN6@PMC_Add_L_

; 519  :         return (result);

	mov	eax, DWORD PTR _result$[ebp]
	jmp	SHORT $LN1@PMC_Add_L_
$LN6@PMC_Add_L_:

; 520  : #ifdef _DEBUG
; 521  :     if ((result = CheckNumber((NUMBER_HEADER*)*w)) != PMC_STATUS_OK)

	mov	eax, DWORD PTR _w$[ebp]
	mov	ecx, DWORD PTR [eax]
	push	ecx
	call	_CheckNumber
	add	esp, 4
	mov	DWORD PTR _result$[ebp], eax
	cmp	DWORD PTR _result$[ebp], 0
	je	SHORT $LN7@PMC_Add_L_

; 522  :         return (result);

	mov	eax, DWORD PTR _result$[ebp]
	jmp	SHORT $LN1@PMC_Add_L_
$LN7@PMC_Add_L_:

; 523  : #endif
; 524  :     return (PMC_STATUS_OK);

	xor	eax, eax
$LN1@PMC_Add_L_:

; 525  : }

	add	esp, 4
	cmp	ebp, esp
	call	__RTC_CheckEsp
	mov	esp, ebp
	pop	ebp
	ret	16					; 00000010H
_PMC_Add_L_X@16 ENDP
_TEXT	ENDS
; Function compile flags: /Odtp /RTCsu
; File z:\sources\lunor\repos\rougemeilland\palmtree.math.core.uint\palmtree.math.core.uint\pmc_add.c
_TEXT	SEGMENT
_result$ = -4						; size = 4
_u$ = 8							; size = 4
_v$ = 12						; size = 4
_w$ = 16						; size = 4
_PMC_Add_I_X@12 PROC

; 353  : {

	push	ebp
	mov	ebp, esp
	push	ecx
	mov	DWORD PTR [ebp-4], -858993460		; ccccccccH
	mov	ecx, OFFSET __DB5B71FB_pmc_add@c
	call	@__CheckForDebuggerJustMyCode@4

; 354  :     if (__UNIT_TYPE_BIT_COUNT < sizeof(u) * 8)

	xor	eax, eax
	je	SHORT $LN2@PMC_Add_I_

; 355  :     {
; 356  :         // _UINT32_T が 1 ワードで表現しきれない処理系には対応しない
; 357  :         return (PMC_STATUS_INTERNAL_ERROR);

	mov	eax, -256				; ffffff00H
	jmp	SHORT $LN1@PMC_Add_I_
$LN2@PMC_Add_I_:

; 358  :     }
; 359  :     if (v == NULL)

	cmp	DWORD PTR _v$[ebp], 0
	jne	SHORT $LN3@PMC_Add_I_

; 360  :         return (PMC_STATUS_ARGUMENT_ERROR);

	or	eax, -1
	jmp	SHORT $LN1@PMC_Add_I_
$LN3@PMC_Add_I_:

; 361  :     if (w == NULL)

	cmp	DWORD PTR _w$[ebp], 0
	jne	SHORT $LN4@PMC_Add_I_

; 362  :         return (PMC_STATUS_ARGUMENT_ERROR);

	or	eax, -1
	jmp	SHORT $LN1@PMC_Add_I_
$LN4@PMC_Add_I_:

; 363  :     PMC_STATUS_CODE result;
; 364  :     if ((result = CheckNumber((NUMBER_HEADER*)v)) != PMC_STATUS_OK)

	mov	ecx, DWORD PTR _v$[ebp]
	push	ecx
	call	_CheckNumber
	add	esp, 4
	mov	DWORD PTR _result$[ebp], eax
	cmp	DWORD PTR _result$[ebp], 0
	je	SHORT $LN5@PMC_Add_I_

; 365  :         return (result);

	mov	eax, DWORD PTR _result$[ebp]
	jmp	SHORT $LN1@PMC_Add_I_
$LN5@PMC_Add_I_:

; 366  :     if ((result = PMC_Add_X_I_Imp((NUMBER_HEADER*)v, u, (NUMBER_HEADER**)w)) != PMC_STATUS_OK)

	mov	edx, DWORD PTR _w$[ebp]
	push	edx
	mov	eax, DWORD PTR _u$[ebp]
	push	eax
	mov	ecx, DWORD PTR _v$[ebp]
	push	ecx
	call	_PMC_Add_X_I_Imp
	add	esp, 12					; 0000000cH
	mov	DWORD PTR _result$[ebp], eax
	cmp	DWORD PTR _result$[ebp], 0
	je	SHORT $LN6@PMC_Add_I_

; 367  :         return (result);

	mov	eax, DWORD PTR _result$[ebp]
	jmp	SHORT $LN1@PMC_Add_I_
$LN6@PMC_Add_I_:

; 368  : #ifdef _DEBUG
; 369  :     if ((result = CheckNumber((NUMBER_HEADER*)*w)) != PMC_STATUS_OK)

	mov	edx, DWORD PTR _w$[ebp]
	mov	eax, DWORD PTR [edx]
	push	eax
	call	_CheckNumber
	add	esp, 4
	mov	DWORD PTR _result$[ebp], eax
	cmp	DWORD PTR _result$[ebp], 0
	je	SHORT $LN7@PMC_Add_I_

; 370  :         return (result);

	mov	eax, DWORD PTR _result$[ebp]
	jmp	SHORT $LN1@PMC_Add_I_
$LN7@PMC_Add_I_:

; 371  : #endif
; 372  :     return (PMC_STATUS_OK);

	xor	eax, eax
$LN1@PMC_Add_I_:

; 373  : }

	add	esp, 4
	cmp	ebp, esp
	call	__RTC_CheckEsp
	mov	esp, ebp
	pop	ebp
	ret	12					; 0000000cH
_PMC_Add_I_X@12 ENDP
_TEXT	ENDS
; Function compile flags: /Odtp /RTCsu
; File z:\sources\lunor\repos\rougemeilland\palmtree.math.core.uint\palmtree.math.core.uint\pmc_add.c
_TEXT	SEGMENT
tv68 = -4						; size = 4
_feature$ = 8						; size = 4
_Initialize_Add PROC

; 610  : {

	push	ebp
	mov	ebp, esp
	push	ecx
	mov	DWORD PTR [ebp-4], -858993460		; ccccccccH
	mov	ecx, OFFSET __DB5B71FB_pmc_add@c
	call	@__CheckForDebuggerJustMyCode@4

; 611  :     fp_Add_Imp = feature->PROCESSOR_FEATURE_ADX ? Add_Imp_using_ADCX : Add_Imp_using_ADC;

	mov	eax, DWORD PTR _feature$[ebp]
	mov	ecx, DWORD PTR [eax]
	shr	ecx, 1
	and	ecx, 1
	je	SHORT $LN3@Initialize
	mov	DWORD PTR tv68[ebp], OFFSET _Add_Imp_using_ADCX
	jmp	SHORT $LN4@Initialize
$LN3@Initialize:
	mov	DWORD PTR tv68[ebp], OFFSET _Add_Imp_using_ADC
$LN4@Initialize:
	mov	edx, DWORD PTR tv68[ebp]
	mov	DWORD PTR _fp_Add_Imp, edx

; 612  :     return (PMC_STATUS_OK);

	xor	eax, eax

; 613  : }

	add	esp, 4
	cmp	ebp, esp
	call	__RTC_CheckEsp
	mov	esp, ebp
	pop	ebp
	ret	0
_Initialize_Add ENDP
_TEXT	ENDS
END
