; Listing generated by Microsoft (R) Optimizing Compiler Version 19.16.27027.1 

	TITLE	Z:\Sources\Lunor\Repos\rougemeilland\Palmtree.Math.Core.Uint\Palmtree.Math.Core.Uint\pmc_interface_csharp.cpp
	.686P
	.XMM
	include listing.inc
	.model	flat

INCLUDELIB MSVCRTD
INCLUDELIB OLDNAMES

msvcjmc	SEGMENT
__4384A2D9_corecrt_memcpy_s@h DB 01H
__2CC6E67D_corecrt_stdio_config@h DB 01H
__41381B41_corecrt_wconio@h DB 01H
__F0CC4AC4_corecrt_wio@h DB 01H
__05476D76_corecrt_wstdio@h DB 01H
__4E51A221_corecrt_wstring@h DB 01H
__C0802A2B_corecrt_wtime@h DB 01H
__A40A425D_stat@h DB 01H
__5A74375D_wchar@h DB 01H
__6BC0FD35_vcruntime_new@h DB 01H
__77F53984_cstddef DB 01H
__A73354DD_stdlib@h DB 01H
__188180DA_corecrt_math@h DB 01H
__D23EE329_cstdlib DB 01H
__5ECFF36E_type_traits DB 01H
__331E732B_malloc@h DB 01H
__9BB4E194_vcruntime_exception@h DB 01H
__7949CB39_exception DB 01H
__802FEEC0_pmc_exception@h DB 01H
__7B7A869E_ctype@h DB 01H
__457DD326_basetsd@h DB 01H
__2088847F_corecrt_memory@h DB 01H
__2140C079_string@h DB 01H
__E9FFF232_guiddef@h DB 01H
__1887E595_winnt@h DB 01H
__9FC7C64B_processthreadsapi@h DB 01H
__FA470AEC_memoryapi@h DB 01H
__F37DAFF1_winerror@h DB 01H
__7A450CCC_winbase@h DB 01H
__12AD47BB_winuser@h DB 01H
__B4B40122_winioctl@h DB 01H
__25F3FB34_propidl@h DB 01H
__A40E48B8_oleauto@h DB 01H
__86261D59_stralign@h DB 01H
__BB6D3116_pmc_uint_internal@h DB 01H
__C21BA676_pmc_interface_csharp@cpp DB 01H
msvcjmc	ENDS
PUBLIC	?GetStatusCode@Exception@Internal@Core@Math@Palmtree@@QBEHXZ ; Palmtree::Math::Core::Internal::Exception::GetStatusCode
PUBLIC	_PMCCS_UINT_Initialize@4
PUBLIC	_PMCCS_GetConfigurationSettings@16
PUBLIC	_PMCCS_IS_EVEN@8
PUBLIC	_PMCCS_IS_ONE@8
PUBLIC	_PMCCS_IS_POWER_OF_TWO@8
PUBLIC	_PMCCS_IS_ZERO@8
PUBLIC	_PMCCS_GET_HASH_CODE@8
PUBLIC	_PMCCS_GetStatisticsInfo@4
PUBLIC	_PMCCS_From_I@8
PUBLIC	_PMCCS_From_L@12
PUBLIC	_PMCCS_Dispose@4
PUBLIC	_PMCCS_GetConstantValue_I@8
PUBLIC	_PMCCS_FromByteArray@12
PUBLIC	_PMCCS_ToByteArray@16
PUBLIC	_PMCCS_Clone_X@8
PUBLIC	_PMCCS_GetAllocatedMemorySize@4
PUBLIC	_PMCCS_To_X_I@8
PUBLIC	_PMCCS_To_X_L@8
PUBLIC	_PMCCS_ToString@24
PUBLIC	_PMCCS_Parse@16
PUBLIC	_PMCCS_TryParse@20
PUBLIC	_PMCCS_Add_I_X@12
PUBLIC	_PMCCS_Add_L_X@16
PUBLIC	_PMCCS_Add_X_I@12
PUBLIC	_PMCCS_Add_X_L@16
PUBLIC	_PMCCS_Add_X_X@12
PUBLIC	_PMCCS_Subtruct_I_X@12
PUBLIC	_PMCCS_Subtruct_L_X@16
PUBLIC	_PMCCS_Subtruct_X_I@12
PUBLIC	_PMCCS_Subtruct_X_L@16
PUBLIC	_PMCCS_Subtruct_X_X@12
PUBLIC	_PMCCS_Multiply_I_X@12
PUBLIC	_PMCCS_Multiply_L_X@16
PUBLIC	_PMCCS_Multiply_X_I@12
PUBLIC	_PMCCS_Multiply_X_L@16
PUBLIC	_PMCCS_Multiply_X_X@12
PUBLIC	_PMCCS_DivRem_I_X@16
PUBLIC	_PMCCS_DivRem_L_X@20
PUBLIC	_PMCCS_DivRem_X_I@16
PUBLIC	_PMCCS_DivRem_X_L@20
PUBLIC	_PMCCS_DivRem_X_X@16
PUBLIC	_PMCCS_Remainder_I_X@12
PUBLIC	_PMCCS_Remainder_L_X@16
PUBLIC	_PMCCS_Remainder_X_I@12
PUBLIC	_PMCCS_Remainder_X_L@16
PUBLIC	_PMCCS_Remainder_X_X@12
PUBLIC	_PMCCS_RightShift_X_I@12
PUBLIC	_PMCCS_LeftShift_X_I@12
PUBLIC	_PMCCS_BitwiseAnd_I_X@12
PUBLIC	_PMCCS_BitwiseAnd_L_X@16
PUBLIC	_PMCCS_BitwiseAnd_X_I@12
PUBLIC	_PMCCS_BitwiseAnd_X_L@16
PUBLIC	_PMCCS_BitwiseAnd_X_X@12
PUBLIC	_PMCCS_BitwiseOr_I_X@12
PUBLIC	_PMCCS_BitwiseOr_L_X@16
PUBLIC	_PMCCS_BitwiseOr_X_I@12
PUBLIC	_PMCCS_BitwiseOr_X_L@16
PUBLIC	_PMCCS_BitwiseOr_X_X@12
PUBLIC	_PMCCS_ExclusiveOr_I_X@12
PUBLIC	_PMCCS_ExclusiveOr_L_X@16
PUBLIC	_PMCCS_ExclusiveOr_X_I@12
PUBLIC	_PMCCS_ExclusiveOr_X_L@16
PUBLIC	_PMCCS_ExclusiveOr_X_X@12
PUBLIC	_PMCCS_Compare_I_X@12
PUBLIC	_PMCCS_Compare_L_X@16
PUBLIC	_PMCCS_Compare_X_I@12
PUBLIC	_PMCCS_Compare_X_L@16
PUBLIC	_PMCCS_Compare_X_X@12
PUBLIC	_PMCCS_Equals_I_X@12
PUBLIC	_PMCCS_Equals_L_X@16
PUBLIC	_PMCCS_Equals_X_I@12
PUBLIC	_PMCCS_Equals_X_L@16
PUBLIC	_PMCCS_Equals_X_X@12
PUBLIC	_PMCCS_GreatestCommonDivisor_I_X@12
PUBLIC	_PMCCS_GreatestCommonDivisor_L_X@16
PUBLIC	_PMCCS_GreatestCommonDivisor_X_I@12
PUBLIC	_PMCCS_GreatestCommonDivisor_X_L@16
PUBLIC	_PMCCS_GreatestCommonDivisor_X_X@12
PUBLIC	_PMCCS_Pow_X_I@12
PUBLIC	_PMCCS_Pow_X_L@16
PUBLIC	_PMCCS_ModPow_X_X_X@16
PUBLIC	_PMCCS_TimesOfExponentOf10@12
PUBLIC	_PMCCS_Floor_Log10@8
PUBLIC	__JustMyCode_Default
PUBLIC	??_R0?AVException@Internal@Core@Math@Palmtree@@@8 ; Palmtree::Math::Core::Internal::Exception `RTTI Type Descriptor'
EXTRN	_PMC_UINT_Initialize@4:PROC
EXTRN	?PMC_GetConfigurationSettings@Internal@Core@Math@Palmtree@@YGHPB_WPA_WHPAH@Z:PROC ; Palmtree::Math::Core::Internal::PMC_GetConfigurationSettings
EXTRN	?PMC_GetStatisticsInfo@Internal@Core@Math@Palmtree@@YGXPAU__tag_PMC_STATISTICS_INFO@1234@@Z:PROC ; Palmtree::Math::Core::Internal::PMC_GetStatisticsInfo
EXTRN	?PMC_From_I@Internal@Core@Math@Palmtree@@YGPAU__tag_PMC_HANDLE_UINT@1234@I@Z:PROC ; Palmtree::Math::Core::Internal::PMC_From_I
EXTRN	?PMC_From_L@Internal@Core@Math@Palmtree@@YGPAU__tag_PMC_HANDLE_UINT@1234@_K@Z:PROC ; Palmtree::Math::Core::Internal::PMC_From_L
EXTRN	?PMC_Dispose@Internal@Core@Math@Palmtree@@YGXPAU__tag_PMC_HANDLE_UINT@1234@@Z:PROC ; Palmtree::Math::Core::Internal::PMC_Dispose
EXTRN	?PMC_GetConstantValue_I@Internal@Core@Math@Palmtree@@YGPAU__tag_PMC_HANDLE_UINT@1234@H@Z:PROC ; Palmtree::Math::Core::Internal::PMC_GetConstantValue_I
EXTRN	?PMC_FromByteArray@Internal@Core@Math@Palmtree@@YGPAU__tag_PMC_HANDLE_UINT@1234@PBEI@Z:PROC ; Palmtree::Math::Core::Internal::PMC_FromByteArray
EXTRN	?PMC_ToByteArray@Internal@Core@Math@Palmtree@@YGIPAU__tag_PMC_HANDLE_UINT@1234@PAEI@Z:PROC ; Palmtree::Math::Core::Internal::PMC_ToByteArray
EXTRN	?PMC_Clone_X@Internal@Core@Math@Palmtree@@YGPAU__tag_PMC_HANDLE_UINT@1234@PAU51234@@Z:PROC ; Palmtree::Math::Core::Internal::PMC_Clone_X
EXTRN	?PMC_GetAllocatedMemorySize@Internal@Core@Math@Palmtree@@YG_KXZ:PROC ; Palmtree::Math::Core::Internal::PMC_GetAllocatedMemorySize
EXTRN	?PMC_To_X_I@Internal@Core@Math@Palmtree@@YGIPAU__tag_PMC_HANDLE_UINT@1234@@Z:PROC ; Palmtree::Math::Core::Internal::PMC_To_X_I
EXTRN	?PMC_To_X_L@Internal@Core@Math@Palmtree@@YG_KPAU__tag_PMC_HANDLE_UINT@1234@@Z:PROC ; Palmtree::Math::Core::Internal::PMC_To_X_L
EXTRN	?PMC_ToString@Internal@Core@Math@Palmtree@@YGIPAU__tag_PMC_HANDLE_UINT@1234@PB_WPBU__tag_PMC_NUMBER_FORMAT_INFO@1234@PA_WI@Z:PROC ; Palmtree::Math::Core::Internal::PMC_ToString
EXTRN	?PMC_TryParse@Internal@Core@Math@Palmtree@@YGHPB_WHPBU__tag_PMC_NUMBER_FORMAT_INFO@1234@PAPAU__tag_PMC_HANDLE_UINT@1234@PAI@Z:PROC ; Palmtree::Math::Core::Internal::PMC_TryParse
EXTRN	?PMC_Add_I_X@Internal@Core@Math@Palmtree@@YGPAU__tag_PMC_HANDLE_UINT@1234@IPAU51234@@Z:PROC ; Palmtree::Math::Core::Internal::PMC_Add_I_X
EXTRN	?PMC_Add_L_X@Internal@Core@Math@Palmtree@@YGPAU__tag_PMC_HANDLE_UINT@1234@_KPAU51234@@Z:PROC ; Palmtree::Math::Core::Internal::PMC_Add_L_X
EXTRN	?PMC_Add_X_I@Internal@Core@Math@Palmtree@@YGPAU__tag_PMC_HANDLE_UINT@1234@PAU51234@I@Z:PROC ; Palmtree::Math::Core::Internal::PMC_Add_X_I
EXTRN	?PMC_Add_X_L@Internal@Core@Math@Palmtree@@YGPAU__tag_PMC_HANDLE_UINT@1234@PAU51234@_K@Z:PROC ; Palmtree::Math::Core::Internal::PMC_Add_X_L
EXTRN	?PMC_Add_X_X@Internal@Core@Math@Palmtree@@YGPAU__tag_PMC_HANDLE_UINT@1234@PAU51234@0@Z:PROC ; Palmtree::Math::Core::Internal::PMC_Add_X_X
EXTRN	?PMC_Subtruct_I_X@Internal@Core@Math@Palmtree@@YGIIPAU__tag_PMC_HANDLE_UINT@1234@@Z:PROC ; Palmtree::Math::Core::Internal::PMC_Subtruct_I_X
EXTRN	?PMC_Subtruct_L_X@Internal@Core@Math@Palmtree@@YG_K_KPAU__tag_PMC_HANDLE_UINT@1234@@Z:PROC ; Palmtree::Math::Core::Internal::PMC_Subtruct_L_X
EXTRN	?PMC_Subtruct_X_I@Internal@Core@Math@Palmtree@@YGPAU__tag_PMC_HANDLE_UINT@1234@PAU51234@I@Z:PROC ; Palmtree::Math::Core::Internal::PMC_Subtruct_X_I
EXTRN	?PMC_Subtruct_X_L@Internal@Core@Math@Palmtree@@YGPAU__tag_PMC_HANDLE_UINT@1234@PAU51234@_K@Z:PROC ; Palmtree::Math::Core::Internal::PMC_Subtruct_X_L
EXTRN	?PMC_Subtruct_X_X@Internal@Core@Math@Palmtree@@YGPAU__tag_PMC_HANDLE_UINT@1234@PAU51234@0@Z:PROC ; Palmtree::Math::Core::Internal::PMC_Subtruct_X_X
EXTRN	?PMC_Multiply_I_X@Internal@Core@Math@Palmtree@@YGPAU__tag_PMC_HANDLE_UINT@1234@IPAU51234@@Z:PROC ; Palmtree::Math::Core::Internal::PMC_Multiply_I_X
EXTRN	?PMC_Multiply_L_X@Internal@Core@Math@Palmtree@@YGPAU__tag_PMC_HANDLE_UINT@1234@_KPAU51234@@Z:PROC ; Palmtree::Math::Core::Internal::PMC_Multiply_L_X
EXTRN	?PMC_Multiply_X_I@Internal@Core@Math@Palmtree@@YGPAU__tag_PMC_HANDLE_UINT@1234@PAU51234@I@Z:PROC ; Palmtree::Math::Core::Internal::PMC_Multiply_X_I
EXTRN	?PMC_Multiply_X_L@Internal@Core@Math@Palmtree@@YGPAU__tag_PMC_HANDLE_UINT@1234@PAU51234@_K@Z:PROC ; Palmtree::Math::Core::Internal::PMC_Multiply_X_L
EXTRN	?PMC_Multiply_X_X@Internal@Core@Math@Palmtree@@YGPAU__tag_PMC_HANDLE_UINT@1234@PAU51234@0@Z:PROC ; Palmtree::Math::Core::Internal::PMC_Multiply_X_X
EXTRN	?PMC_DivRem_I_X@Internal@Core@Math@Palmtree@@YGIIPAU__tag_PMC_HANDLE_UINT@1234@PAI@Z:PROC ; Palmtree::Math::Core::Internal::PMC_DivRem_I_X
EXTRN	?PMC_DivRem_L_X@Internal@Core@Math@Palmtree@@YG_K_KPAU__tag_PMC_HANDLE_UINT@1234@PA_K@Z:PROC ; Palmtree::Math::Core::Internal::PMC_DivRem_L_X
EXTRN	?PMC_DivRem_X_I@Internal@Core@Math@Palmtree@@YGIPAU__tag_PMC_HANDLE_UINT@1234@IPAPAU51234@@Z:PROC ; Palmtree::Math::Core::Internal::PMC_DivRem_X_I
EXTRN	?PMC_DivRem_X_L@Internal@Core@Math@Palmtree@@YG_KPAU__tag_PMC_HANDLE_UINT@1234@_KPAPAU51234@@Z:PROC ; Palmtree::Math::Core::Internal::PMC_DivRem_X_L
EXTRN	?PMC_DivRem_X_X@Internal@Core@Math@Palmtree@@YGPAU__tag_PMC_HANDLE_UINT@1234@PAU51234@0PAPAU51234@@Z:PROC ; Palmtree::Math::Core::Internal::PMC_DivRem_X_X
EXTRN	?PMC_RightShift_X_I@Internal@Core@Math@Palmtree@@YGPAU__tag_PMC_HANDLE_UINT@1234@PAU51234@H@Z:PROC ; Palmtree::Math::Core::Internal::PMC_RightShift_X_I
EXTRN	?PMC_LeftShift_X_I@Internal@Core@Math@Palmtree@@YGPAU__tag_PMC_HANDLE_UINT@1234@PAU51234@H@Z:PROC ; Palmtree::Math::Core::Internal::PMC_LeftShift_X_I
EXTRN	?PMC_BitwiseAnd_I_X@Internal@Core@Math@Palmtree@@YGIIPAU__tag_PMC_HANDLE_UINT@1234@@Z:PROC ; Palmtree::Math::Core::Internal::PMC_BitwiseAnd_I_X
EXTRN	?PMC_BitwiseAnd_L_X@Internal@Core@Math@Palmtree@@YG_K_KPAU__tag_PMC_HANDLE_UINT@1234@@Z:PROC ; Palmtree::Math::Core::Internal::PMC_BitwiseAnd_L_X
EXTRN	?PMC_BitwiseAnd_X_I@Internal@Core@Math@Palmtree@@YGIPAU__tag_PMC_HANDLE_UINT@1234@I@Z:PROC ; Palmtree::Math::Core::Internal::PMC_BitwiseAnd_X_I
EXTRN	?PMC_BitwiseAnd_X_L@Internal@Core@Math@Palmtree@@YG_KPAU__tag_PMC_HANDLE_UINT@1234@_K@Z:PROC ; Palmtree::Math::Core::Internal::PMC_BitwiseAnd_X_L
EXTRN	?PMC_BitwiseAnd_X_X@Internal@Core@Math@Palmtree@@YGPAU__tag_PMC_HANDLE_UINT@1234@PAU51234@0@Z:PROC ; Palmtree::Math::Core::Internal::PMC_BitwiseAnd_X_X
EXTRN	?PMC_BitwiseOr_I_X@Internal@Core@Math@Palmtree@@YGPAU__tag_PMC_HANDLE_UINT@1234@IPAU51234@@Z:PROC ; Palmtree::Math::Core::Internal::PMC_BitwiseOr_I_X
EXTRN	?PMC_BitwiseOr_L_X@Internal@Core@Math@Palmtree@@YGPAU__tag_PMC_HANDLE_UINT@1234@_KPAU51234@@Z:PROC ; Palmtree::Math::Core::Internal::PMC_BitwiseOr_L_X
EXTRN	?PMC_BitwiseOr_X_I@Internal@Core@Math@Palmtree@@YGPAU__tag_PMC_HANDLE_UINT@1234@PAU51234@I@Z:PROC ; Palmtree::Math::Core::Internal::PMC_BitwiseOr_X_I
EXTRN	?PMC_BitwiseOr_X_L@Internal@Core@Math@Palmtree@@YGPAU__tag_PMC_HANDLE_UINT@1234@PAU51234@_K@Z:PROC ; Palmtree::Math::Core::Internal::PMC_BitwiseOr_X_L
EXTRN	?PMC_BitwiseOr_X_X@Internal@Core@Math@Palmtree@@YGPAU__tag_PMC_HANDLE_UINT@1234@PAU51234@0@Z:PROC ; Palmtree::Math::Core::Internal::PMC_BitwiseOr_X_X
EXTRN	?PMC_ExclusiveOr_I_X@Internal@Core@Math@Palmtree@@YGPAU__tag_PMC_HANDLE_UINT@1234@IPAU51234@@Z:PROC ; Palmtree::Math::Core::Internal::PMC_ExclusiveOr_I_X
EXTRN	?PMC_ExclusiveOr_L_X@Internal@Core@Math@Palmtree@@YGPAU__tag_PMC_HANDLE_UINT@1234@_KPAU51234@@Z:PROC ; Palmtree::Math::Core::Internal::PMC_ExclusiveOr_L_X
EXTRN	?PMC_ExclusiveOr_X_I@Internal@Core@Math@Palmtree@@YGPAU__tag_PMC_HANDLE_UINT@1234@PAU51234@I@Z:PROC ; Palmtree::Math::Core::Internal::PMC_ExclusiveOr_X_I
EXTRN	?PMC_ExclusiveOr_X_L@Internal@Core@Math@Palmtree@@YGPAU__tag_PMC_HANDLE_UINT@1234@PAU51234@_K@Z:PROC ; Palmtree::Math::Core::Internal::PMC_ExclusiveOr_X_L
EXTRN	?PMC_ExclusiveOr_X_X@Internal@Core@Math@Palmtree@@YGPAU__tag_PMC_HANDLE_UINT@1234@PAU51234@0@Z:PROC ; Palmtree::Math::Core::Internal::PMC_ExclusiveOr_X_X
EXTRN	?PMC_Compare_I_X@Internal@Core@Math@Palmtree@@YGHIPAU__tag_PMC_HANDLE_UINT@1234@@Z:PROC ; Palmtree::Math::Core::Internal::PMC_Compare_I_X
EXTRN	?PMC_Compare_L_X@Internal@Core@Math@Palmtree@@YGH_KPAU__tag_PMC_HANDLE_UINT@1234@@Z:PROC ; Palmtree::Math::Core::Internal::PMC_Compare_L_X
EXTRN	?PMC_Compare_X_I@Internal@Core@Math@Palmtree@@YGHPAU__tag_PMC_HANDLE_UINT@1234@I@Z:PROC ; Palmtree::Math::Core::Internal::PMC_Compare_X_I
EXTRN	?PMC_Compare_X_L@Internal@Core@Math@Palmtree@@YGHPAU__tag_PMC_HANDLE_UINT@1234@_K@Z:PROC ; Palmtree::Math::Core::Internal::PMC_Compare_X_L
EXTRN	?PMC_Compare_X_X@Internal@Core@Math@Palmtree@@YGHPAU__tag_PMC_HANDLE_UINT@1234@0@Z:PROC ; Palmtree::Math::Core::Internal::PMC_Compare_X_X
EXTRN	?PMC_Equals_I_X@Internal@Core@Math@Palmtree@@YGIIPAU__tag_PMC_HANDLE_UINT@1234@@Z:PROC ; Palmtree::Math::Core::Internal::PMC_Equals_I_X
EXTRN	?PMC_Equals_L_X@Internal@Core@Math@Palmtree@@YGI_KPAU__tag_PMC_HANDLE_UINT@1234@@Z:PROC ; Palmtree::Math::Core::Internal::PMC_Equals_L_X
EXTRN	?PMC_Equals_X_I@Internal@Core@Math@Palmtree@@YGIPAU__tag_PMC_HANDLE_UINT@1234@I@Z:PROC ; Palmtree::Math::Core::Internal::PMC_Equals_X_I
EXTRN	?PMC_Equals_X_L@Internal@Core@Math@Palmtree@@YGIPAU__tag_PMC_HANDLE_UINT@1234@_K@Z:PROC ; Palmtree::Math::Core::Internal::PMC_Equals_X_L
EXTRN	?PMC_Equals_X_X@Internal@Core@Math@Palmtree@@YGIPAU__tag_PMC_HANDLE_UINT@1234@0@Z:PROC ; Palmtree::Math::Core::Internal::PMC_Equals_X_X
EXTRN	?PMC_GreatestCommonDivisor_I_X@Internal@Core@Math@Palmtree@@YGPAU__tag_PMC_HANDLE_UINT@1234@IPAU51234@@Z:PROC ; Palmtree::Math::Core::Internal::PMC_GreatestCommonDivisor_I_X
EXTRN	?PMC_GreatestCommonDivisor_L_X@Internal@Core@Math@Palmtree@@YGPAU__tag_PMC_HANDLE_UINT@1234@_KPAU51234@@Z:PROC ; Palmtree::Math::Core::Internal::PMC_GreatestCommonDivisor_L_X
EXTRN	?PMC_GreatestCommonDivisor_X_I@Internal@Core@Math@Palmtree@@YGPAU__tag_PMC_HANDLE_UINT@1234@PAU51234@I@Z:PROC ; Palmtree::Math::Core::Internal::PMC_GreatestCommonDivisor_X_I
EXTRN	?PMC_GreatestCommonDivisor_X_L@Internal@Core@Math@Palmtree@@YGPAU__tag_PMC_HANDLE_UINT@1234@PAU51234@_K@Z:PROC ; Palmtree::Math::Core::Internal::PMC_GreatestCommonDivisor_X_L
EXTRN	?PMC_GreatestCommonDivisor_X_X@Internal@Core@Math@Palmtree@@YGPAU__tag_PMC_HANDLE_UINT@1234@PAU51234@0@Z:PROC ; Palmtree::Math::Core::Internal::PMC_GreatestCommonDivisor_X_X
EXTRN	?PMC_Pow_X_I@Internal@Core@Math@Palmtree@@YGPAU__tag_PMC_HANDLE_UINT@1234@PAU51234@I@Z:PROC ; Palmtree::Math::Core::Internal::PMC_Pow_X_I
EXTRN	?PMC_Pow_X_L@Internal@Core@Math@Palmtree@@YGPAU__tag_PMC_HANDLE_UINT@1234@PAU51234@_K@Z:PROC ; Palmtree::Math::Core::Internal::PMC_Pow_X_L
EXTRN	?PMC_ModPow_X_X_X@Internal@Core@Math@Palmtree@@YGPAU__tag_PMC_HANDLE_UINT@1234@PAU51234@00@Z:PROC ; Palmtree::Math::Core::Internal::PMC_ModPow_X_X_X
EXTRN	?PMC_TimesOfExponentOf10@Internal@Core@Math@Palmtree@@YGPAU__tag_PMC_HANDLE_UINT@1234@II@Z:PROC ; Palmtree::Math::Core::Internal::PMC_TimesOfExponentOf10
EXTRN	?PMC_Floor_Log10@Internal@Core@Math@Palmtree@@YGIPAU__tag_PMC_HANDLE_UINT@1234@@Z:PROC ; Palmtree::Math::Core::Internal::PMC_Floor_Log10
EXTRN	@_RTC_CheckStackVars@8:PROC
EXTRN	@__CheckForDebuggerJustMyCode@4:PROC
EXTRN	@__security_check_cookie@4:PROC
EXTRN	__RTC_CheckEsp:PROC
EXTRN	__RTC_InitBase:PROC
EXTRN	__RTC_Shutdown:PROC
EXTRN	___CxxFrameHandler3:PROC
EXTRN	??_7type_info@@6B@:QWORD			; type_info::`vftable'
EXTRN	___security_cookie:DWORD
;	COMDAT rtc$TMZ
rtc$TMZ	SEGMENT
__RTC_Shutdown.rtc$TMZ DD FLAT:__RTC_Shutdown
rtc$TMZ	ENDS
;	COMDAT rtc$IMZ
rtc$IMZ	SEGMENT
__RTC_InitBase.rtc$IMZ DD FLAT:__RTC_InitBase
rtc$IMZ	ENDS
;	COMDAT ??_R0?AVException@Internal@Core@Math@Palmtree@@@8
data$r	SEGMENT
??_R0?AVException@Internal@Core@Math@Palmtree@@@8 DD FLAT:??_7type_info@@6B@ ; Palmtree::Math::Core::Internal::Exception `RTTI Type Descriptor'
	DD	00H
	DB	'.?AVException@Internal@Core@Math@Palmtree@@', 00H
data$r	ENDS
xdata$x	SEGMENT
__catchsym$_PMCCS_Floor_Log10@8$2 DD 09H
	DD	FLAT:??_R0?AVException@Internal@Core@Math@Palmtree@@@8
	DD	0ffffffe8H
	DD	FLAT:__catch$_PMCCS_Floor_Log10@8$0
__unwindtable$_PMCCS_Floor_Log10@8 DD 0ffffffffH
	DD	00H
	DD	0ffffffffH
	DD	00H
__catchsym$_PMCCS_TimesOfExponentOf10@12$2 DD 09H
	DD	FLAT:??_R0?AVException@Internal@Core@Math@Palmtree@@@8
	DD	0ffffffe8H
	DD	FLAT:__catch$_PMCCS_TimesOfExponentOf10@12$0
__unwindtable$_PMCCS_TimesOfExponentOf10@12 DD 0ffffffffH
	DD	00H
	DD	0ffffffffH
	DD	00H
__catchsym$_PMCCS_ModPow_X_X_X@16$2 DD 09H
	DD	FLAT:??_R0?AVException@Internal@Core@Math@Palmtree@@@8
	DD	0ffffffe8H
	DD	FLAT:__catch$_PMCCS_ModPow_X_X_X@16$0
__unwindtable$_PMCCS_ModPow_X_X_X@16 DD 0ffffffffH
	DD	00H
	DD	0ffffffffH
	DD	00H
__catchsym$_PMCCS_Pow_X_L@16$2 DD 09H
	DD	FLAT:??_R0?AVException@Internal@Core@Math@Palmtree@@@8
	DD	0ffffffe8H
	DD	FLAT:__catch$_PMCCS_Pow_X_L@16$0
__unwindtable$_PMCCS_Pow_X_L@16 DD 0ffffffffH
	DD	00H
	DD	0ffffffffH
	DD	00H
__catchsym$_PMCCS_Pow_X_I@12$2 DD 09H
	DD	FLAT:??_R0?AVException@Internal@Core@Math@Palmtree@@@8
	DD	0ffffffe8H
	DD	FLAT:__catch$_PMCCS_Pow_X_I@12$0
__unwindtable$_PMCCS_Pow_X_I@12 DD 0ffffffffH
	DD	00H
	DD	0ffffffffH
	DD	00H
__catchsym$_PMCCS_GreatestCommonDivisor_X_X@12$2 DD 09H
	DD	FLAT:??_R0?AVException@Internal@Core@Math@Palmtree@@@8
	DD	0ffffffe8H
	DD	FLAT:__catch$_PMCCS_GreatestCommonDivisor_X_X@12$0
__unwindtable$_PMCCS_GreatestCommonDivisor_X_X@12 DD 0ffffffffH
	DD	00H
	DD	0ffffffffH
	DD	00H
__catchsym$_PMCCS_GreatestCommonDivisor_X_L@16$2 DD 09H
	DD	FLAT:??_R0?AVException@Internal@Core@Math@Palmtree@@@8
	DD	0ffffffe8H
	DD	FLAT:__catch$_PMCCS_GreatestCommonDivisor_X_L@16$0
__unwindtable$_PMCCS_GreatestCommonDivisor_X_L@16 DD 0ffffffffH
	DD	00H
	DD	0ffffffffH
	DD	00H
__catchsym$_PMCCS_GreatestCommonDivisor_X_I@12$2 DD 09H
	DD	FLAT:??_R0?AVException@Internal@Core@Math@Palmtree@@@8
	DD	0ffffffe8H
	DD	FLAT:__catch$_PMCCS_GreatestCommonDivisor_X_I@12$0
__unwindtable$_PMCCS_GreatestCommonDivisor_X_I@12 DD 0ffffffffH
	DD	00H
	DD	0ffffffffH
	DD	00H
__catchsym$_PMCCS_GreatestCommonDivisor_L_X@16$2 DD 09H
	DD	FLAT:??_R0?AVException@Internal@Core@Math@Palmtree@@@8
	DD	0ffffffe8H
	DD	FLAT:__catch$_PMCCS_GreatestCommonDivisor_L_X@16$0
__unwindtable$_PMCCS_GreatestCommonDivisor_L_X@16 DD 0ffffffffH
	DD	00H
	DD	0ffffffffH
	DD	00H
__catchsym$_PMCCS_GreatestCommonDivisor_I_X@12$2 DD 09H
	DD	FLAT:??_R0?AVException@Internal@Core@Math@Palmtree@@@8
	DD	0ffffffe8H
	DD	FLAT:__catch$_PMCCS_GreatestCommonDivisor_I_X@12$0
__unwindtable$_PMCCS_GreatestCommonDivisor_I_X@12 DD 0ffffffffH
	DD	00H
	DD	0ffffffffH
	DD	00H
__catchsym$_PMCCS_Equals_X_X@12$2 DD 09H
	DD	FLAT:??_R0?AVException@Internal@Core@Math@Palmtree@@@8
	DD	0ffffffe8H
	DD	FLAT:__catch$_PMCCS_Equals_X_X@12$0
__unwindtable$_PMCCS_Equals_X_X@12 DD 0ffffffffH
	DD	00H
	DD	0ffffffffH
	DD	00H
__catchsym$_PMCCS_Equals_X_L@16$2 DD 09H
	DD	FLAT:??_R0?AVException@Internal@Core@Math@Palmtree@@@8
	DD	0ffffffe8H
	DD	FLAT:__catch$_PMCCS_Equals_X_L@16$0
__unwindtable$_PMCCS_Equals_X_L@16 DD 0ffffffffH
	DD	00H
	DD	0ffffffffH
	DD	00H
__catchsym$_PMCCS_Equals_X_I@12$2 DD 09H
	DD	FLAT:??_R0?AVException@Internal@Core@Math@Palmtree@@@8
	DD	0ffffffe8H
	DD	FLAT:__catch$_PMCCS_Equals_X_I@12$0
__unwindtable$_PMCCS_Equals_X_I@12 DD 0ffffffffH
	DD	00H
	DD	0ffffffffH
	DD	00H
__catchsym$_PMCCS_Equals_L_X@16$2 DD 09H
	DD	FLAT:??_R0?AVException@Internal@Core@Math@Palmtree@@@8
	DD	0ffffffe8H
	DD	FLAT:__catch$_PMCCS_Equals_L_X@16$0
__unwindtable$_PMCCS_Equals_L_X@16 DD 0ffffffffH
	DD	00H
	DD	0ffffffffH
	DD	00H
__catchsym$_PMCCS_Equals_I_X@12$2 DD 09H
	DD	FLAT:??_R0?AVException@Internal@Core@Math@Palmtree@@@8
	DD	0ffffffe8H
	DD	FLAT:__catch$_PMCCS_Equals_I_X@12$0
__unwindtable$_PMCCS_Equals_I_X@12 DD 0ffffffffH
	DD	00H
	DD	0ffffffffH
	DD	00H
__catchsym$_PMCCS_Compare_X_X@12$2 DD 09H
	DD	FLAT:??_R0?AVException@Internal@Core@Math@Palmtree@@@8
	DD	0ffffffe8H
	DD	FLAT:__catch$_PMCCS_Compare_X_X@12$0
__unwindtable$_PMCCS_Compare_X_X@12 DD 0ffffffffH
	DD	00H
	DD	0ffffffffH
	DD	00H
__catchsym$_PMCCS_Compare_X_L@16$2 DD 09H
	DD	FLAT:??_R0?AVException@Internal@Core@Math@Palmtree@@@8
	DD	0ffffffe8H
	DD	FLAT:__catch$_PMCCS_Compare_X_L@16$0
__unwindtable$_PMCCS_Compare_X_L@16 DD 0ffffffffH
	DD	00H
	DD	0ffffffffH
	DD	00H
__catchsym$_PMCCS_Compare_X_I@12$2 DD 09H
	DD	FLAT:??_R0?AVException@Internal@Core@Math@Palmtree@@@8
	DD	0ffffffe8H
	DD	FLAT:__catch$_PMCCS_Compare_X_I@12$0
__unwindtable$_PMCCS_Compare_X_I@12 DD 0ffffffffH
	DD	00H
	DD	0ffffffffH
	DD	00H
__catchsym$_PMCCS_Compare_L_X@16$2 DD 09H
	DD	FLAT:??_R0?AVException@Internal@Core@Math@Palmtree@@@8
	DD	0ffffffe8H
	DD	FLAT:__catch$_PMCCS_Compare_L_X@16$0
__unwindtable$_PMCCS_Compare_L_X@16 DD 0ffffffffH
	DD	00H
	DD	0ffffffffH
	DD	00H
__catchsym$_PMCCS_Compare_I_X@12$2 DD 09H
	DD	FLAT:??_R0?AVException@Internal@Core@Math@Palmtree@@@8
	DD	0ffffffe8H
	DD	FLAT:__catch$_PMCCS_Compare_I_X@12$0
__unwindtable$_PMCCS_Compare_I_X@12 DD 0ffffffffH
	DD	00H
	DD	0ffffffffH
	DD	00H
__catchsym$_PMCCS_ExclusiveOr_X_X@12$2 DD 09H
	DD	FLAT:??_R0?AVException@Internal@Core@Math@Palmtree@@@8
	DD	0ffffffe8H
	DD	FLAT:__catch$_PMCCS_ExclusiveOr_X_X@12$0
__unwindtable$_PMCCS_ExclusiveOr_X_X@12 DD 0ffffffffH
	DD	00H
	DD	0ffffffffH
	DD	00H
__catchsym$_PMCCS_ExclusiveOr_X_L@16$2 DD 09H
	DD	FLAT:??_R0?AVException@Internal@Core@Math@Palmtree@@@8
	DD	0ffffffe8H
	DD	FLAT:__catch$_PMCCS_ExclusiveOr_X_L@16$0
__unwindtable$_PMCCS_ExclusiveOr_X_L@16 DD 0ffffffffH
	DD	00H
	DD	0ffffffffH
	DD	00H
__catchsym$_PMCCS_ExclusiveOr_X_I@12$2 DD 09H
	DD	FLAT:??_R0?AVException@Internal@Core@Math@Palmtree@@@8
	DD	0ffffffe8H
	DD	FLAT:__catch$_PMCCS_ExclusiveOr_X_I@12$0
__unwindtable$_PMCCS_ExclusiveOr_X_I@12 DD 0ffffffffH
	DD	00H
	DD	0ffffffffH
	DD	00H
__catchsym$_PMCCS_ExclusiveOr_L_X@16$2 DD 09H
	DD	FLAT:??_R0?AVException@Internal@Core@Math@Palmtree@@@8
	DD	0ffffffe8H
	DD	FLAT:__catch$_PMCCS_ExclusiveOr_L_X@16$0
__unwindtable$_PMCCS_ExclusiveOr_L_X@16 DD 0ffffffffH
	DD	00H
	DD	0ffffffffH
	DD	00H
__catchsym$_PMCCS_ExclusiveOr_I_X@12$2 DD 09H
	DD	FLAT:??_R0?AVException@Internal@Core@Math@Palmtree@@@8
	DD	0ffffffe8H
	DD	FLAT:__catch$_PMCCS_ExclusiveOr_I_X@12$0
__unwindtable$_PMCCS_ExclusiveOr_I_X@12 DD 0ffffffffH
	DD	00H
	DD	0ffffffffH
	DD	00H
__catchsym$_PMCCS_BitwiseOr_X_X@12$2 DD 09H
	DD	FLAT:??_R0?AVException@Internal@Core@Math@Palmtree@@@8
	DD	0ffffffe8H
	DD	FLAT:__catch$_PMCCS_BitwiseOr_X_X@12$0
__unwindtable$_PMCCS_BitwiseOr_X_X@12 DD 0ffffffffH
	DD	00H
	DD	0ffffffffH
	DD	00H
__catchsym$_PMCCS_BitwiseOr_X_L@16$2 DD 09H
	DD	FLAT:??_R0?AVException@Internal@Core@Math@Palmtree@@@8
	DD	0ffffffe8H
	DD	FLAT:__catch$_PMCCS_BitwiseOr_X_L@16$0
__unwindtable$_PMCCS_BitwiseOr_X_L@16 DD 0ffffffffH
	DD	00H
	DD	0ffffffffH
	DD	00H
__catchsym$_PMCCS_BitwiseOr_X_I@12$2 DD 09H
	DD	FLAT:??_R0?AVException@Internal@Core@Math@Palmtree@@@8
	DD	0ffffffe8H
	DD	FLAT:__catch$_PMCCS_BitwiseOr_X_I@12$0
__unwindtable$_PMCCS_BitwiseOr_X_I@12 DD 0ffffffffH
	DD	00H
	DD	0ffffffffH
	DD	00H
__catchsym$_PMCCS_BitwiseOr_L_X@16$2 DD 09H
	DD	FLAT:??_R0?AVException@Internal@Core@Math@Palmtree@@@8
	DD	0ffffffe8H
	DD	FLAT:__catch$_PMCCS_BitwiseOr_L_X@16$0
__unwindtable$_PMCCS_BitwiseOr_L_X@16 DD 0ffffffffH
	DD	00H
	DD	0ffffffffH
	DD	00H
__catchsym$_PMCCS_BitwiseOr_I_X@12$2 DD 09H
	DD	FLAT:??_R0?AVException@Internal@Core@Math@Palmtree@@@8
	DD	0ffffffe8H
	DD	FLAT:__catch$_PMCCS_BitwiseOr_I_X@12$0
__unwindtable$_PMCCS_BitwiseOr_I_X@12 DD 0ffffffffH
	DD	00H
	DD	0ffffffffH
	DD	00H
__catchsym$_PMCCS_BitwiseAnd_X_X@12$2 DD 09H
	DD	FLAT:??_R0?AVException@Internal@Core@Math@Palmtree@@@8
	DD	0ffffffe8H
	DD	FLAT:__catch$_PMCCS_BitwiseAnd_X_X@12$0
__unwindtable$_PMCCS_BitwiseAnd_X_X@12 DD 0ffffffffH
	DD	00H
	DD	0ffffffffH
	DD	00H
__catchsym$_PMCCS_BitwiseAnd_X_L@16$2 DD 09H
	DD	FLAT:??_R0?AVException@Internal@Core@Math@Palmtree@@@8
	DD	0ffffffe8H
	DD	FLAT:__catch$_PMCCS_BitwiseAnd_X_L@16$0
__unwindtable$_PMCCS_BitwiseAnd_X_L@16 DD 0ffffffffH
	DD	00H
	DD	0ffffffffH
	DD	00H
__catchsym$_PMCCS_BitwiseAnd_X_I@12$2 DD 09H
	DD	FLAT:??_R0?AVException@Internal@Core@Math@Palmtree@@@8
	DD	0ffffffe8H
	DD	FLAT:__catch$_PMCCS_BitwiseAnd_X_I@12$0
__unwindtable$_PMCCS_BitwiseAnd_X_I@12 DD 0ffffffffH
	DD	00H
	DD	0ffffffffH
	DD	00H
__catchsym$_PMCCS_BitwiseAnd_L_X@16$2 DD 09H
	DD	FLAT:??_R0?AVException@Internal@Core@Math@Palmtree@@@8
	DD	0ffffffe8H
	DD	FLAT:__catch$_PMCCS_BitwiseAnd_L_X@16$0
__unwindtable$_PMCCS_BitwiseAnd_L_X@16 DD 0ffffffffH
	DD	00H
	DD	0ffffffffH
	DD	00H
__catchsym$_PMCCS_BitwiseAnd_I_X@12$2 DD 09H
	DD	FLAT:??_R0?AVException@Internal@Core@Math@Palmtree@@@8
	DD	0ffffffe8H
	DD	FLAT:__catch$_PMCCS_BitwiseAnd_I_X@12$0
__unwindtable$_PMCCS_BitwiseAnd_I_X@12 DD 0ffffffffH
	DD	00H
	DD	0ffffffffH
	DD	00H
__catchsym$_PMCCS_LeftShift_X_I@12$2 DD 09H
	DD	FLAT:??_R0?AVException@Internal@Core@Math@Palmtree@@@8
	DD	0ffffffe8H
	DD	FLAT:__catch$_PMCCS_LeftShift_X_I@12$0
__unwindtable$_PMCCS_LeftShift_X_I@12 DD 0ffffffffH
	DD	00H
	DD	0ffffffffH
	DD	00H
__catchsym$_PMCCS_RightShift_X_I@12$2 DD 09H
	DD	FLAT:??_R0?AVException@Internal@Core@Math@Palmtree@@@8
	DD	0ffffffe8H
	DD	FLAT:__catch$_PMCCS_RightShift_X_I@12$0
__unwindtable$_PMCCS_RightShift_X_I@12 DD 0ffffffffH
	DD	00H
	DD	0ffffffffH
	DD	00H
__catchsym$_PMCCS_Remainder_X_X@12$2 DD 09H
	DD	FLAT:??_R0?AVException@Internal@Core@Math@Palmtree@@@8
	DD	0ffffffe8H
	DD	FLAT:__catch$_PMCCS_Remainder_X_X@12$0
__unwindtable$_PMCCS_Remainder_X_X@12 DD 0ffffffffH
	DD	00H
	DD	0ffffffffH
	DD	00H
__catchsym$_PMCCS_Remainder_X_L@16$2 DD 09H
	DD	FLAT:??_R0?AVException@Internal@Core@Math@Palmtree@@@8
	DD	0ffffffe8H
	DD	FLAT:__catch$_PMCCS_Remainder_X_L@16$0
__unwindtable$_PMCCS_Remainder_X_L@16 DD 0ffffffffH
	DD	00H
	DD	0ffffffffH
	DD	00H
__catchsym$_PMCCS_Remainder_X_I@12$2 DD 09H
	DD	FLAT:??_R0?AVException@Internal@Core@Math@Palmtree@@@8
	DD	0ffffffe8H
	DD	FLAT:__catch$_PMCCS_Remainder_X_I@12$0
__unwindtable$_PMCCS_Remainder_X_I@12 DD 0ffffffffH
	DD	00H
	DD	0ffffffffH
	DD	00H
__catchsym$_PMCCS_Remainder_L_X@16$2 DD 09H
	DD	FLAT:??_R0?AVException@Internal@Core@Math@Palmtree@@@8
	DD	0ffffffe8H
	DD	FLAT:__catch$_PMCCS_Remainder_L_X@16$0
__unwindtable$_PMCCS_Remainder_L_X@16 DD 0ffffffffH
	DD	00H
	DD	0ffffffffH
	DD	00H
__catchsym$_PMCCS_Remainder_I_X@12$2 DD 09H
	DD	FLAT:??_R0?AVException@Internal@Core@Math@Palmtree@@@8
	DD	0ffffffe8H
	DD	FLAT:__catch$_PMCCS_Remainder_I_X@12$0
__unwindtable$_PMCCS_Remainder_I_X@12 DD 0ffffffffH
	DD	00H
	DD	0ffffffffH
	DD	00H
__catchsym$_PMCCS_DivRem_X_X@16$2 DD 09H
	DD	FLAT:??_R0?AVException@Internal@Core@Math@Palmtree@@@8
	DD	0ffffffe8H
	DD	FLAT:__catch$_PMCCS_DivRem_X_X@16$0
__unwindtable$_PMCCS_DivRem_X_X@16 DD 0ffffffffH
	DD	00H
	DD	0ffffffffH
	DD	00H
__catchsym$_PMCCS_DivRem_X_L@20$2 DD 09H
	DD	FLAT:??_R0?AVException@Internal@Core@Math@Palmtree@@@8
	DD	0ffffffe8H
	DD	FLAT:__catch$_PMCCS_DivRem_X_L@20$0
__unwindtable$_PMCCS_DivRem_X_L@20 DD 0ffffffffH
	DD	00H
	DD	0ffffffffH
	DD	00H
__catchsym$_PMCCS_DivRem_X_I@16$2 DD 09H
	DD	FLAT:??_R0?AVException@Internal@Core@Math@Palmtree@@@8
	DD	0ffffffe8H
	DD	FLAT:__catch$_PMCCS_DivRem_X_I@16$0
__unwindtable$_PMCCS_DivRem_X_I@16 DD 0ffffffffH
	DD	00H
	DD	0ffffffffH
	DD	00H
__catchsym$_PMCCS_DivRem_L_X@20$2 DD 09H
	DD	FLAT:??_R0?AVException@Internal@Core@Math@Palmtree@@@8
	DD	0ffffffe8H
	DD	FLAT:__catch$_PMCCS_DivRem_L_X@20$0
__unwindtable$_PMCCS_DivRem_L_X@20 DD 0ffffffffH
	DD	00H
	DD	0ffffffffH
	DD	00H
__catchsym$_PMCCS_DivRem_I_X@16$2 DD 09H
	DD	FLAT:??_R0?AVException@Internal@Core@Math@Palmtree@@@8
	DD	0ffffffe8H
	DD	FLAT:__catch$_PMCCS_DivRem_I_X@16$0
__unwindtable$_PMCCS_DivRem_I_X@16 DD 0ffffffffH
	DD	00H
	DD	0ffffffffH
	DD	00H
__catchsym$_PMCCS_Multiply_X_X@12$2 DD 09H
	DD	FLAT:??_R0?AVException@Internal@Core@Math@Palmtree@@@8
	DD	0ffffffe8H
	DD	FLAT:__catch$_PMCCS_Multiply_X_X@12$0
__unwindtable$_PMCCS_Multiply_X_X@12 DD 0ffffffffH
	DD	00H
	DD	0ffffffffH
	DD	00H
__catchsym$_PMCCS_Multiply_X_L@16$2 DD 09H
	DD	FLAT:??_R0?AVException@Internal@Core@Math@Palmtree@@@8
	DD	0ffffffe8H
	DD	FLAT:__catch$_PMCCS_Multiply_X_L@16$0
__unwindtable$_PMCCS_Multiply_X_L@16 DD 0ffffffffH
	DD	00H
	DD	0ffffffffH
	DD	00H
__catchsym$_PMCCS_Multiply_X_I@12$2 DD 09H
	DD	FLAT:??_R0?AVException@Internal@Core@Math@Palmtree@@@8
	DD	0ffffffe8H
	DD	FLAT:__catch$_PMCCS_Multiply_X_I@12$0
__unwindtable$_PMCCS_Multiply_X_I@12 DD 0ffffffffH
	DD	00H
	DD	0ffffffffH
	DD	00H
__catchsym$_PMCCS_Multiply_L_X@16$2 DD 09H
	DD	FLAT:??_R0?AVException@Internal@Core@Math@Palmtree@@@8
	DD	0ffffffe8H
	DD	FLAT:__catch$_PMCCS_Multiply_L_X@16$0
__unwindtable$_PMCCS_Multiply_L_X@16 DD 0ffffffffH
	DD	00H
	DD	0ffffffffH
	DD	00H
__catchsym$_PMCCS_Multiply_I_X@12$2 DD 09H
	DD	FLAT:??_R0?AVException@Internal@Core@Math@Palmtree@@@8
	DD	0ffffffe8H
	DD	FLAT:__catch$_PMCCS_Multiply_I_X@12$0
__unwindtable$_PMCCS_Multiply_I_X@12 DD 0ffffffffH
	DD	00H
	DD	0ffffffffH
	DD	00H
__catchsym$_PMCCS_Subtruct_X_X@12$2 DD 09H
	DD	FLAT:??_R0?AVException@Internal@Core@Math@Palmtree@@@8
	DD	0ffffffe8H
	DD	FLAT:__catch$_PMCCS_Subtruct_X_X@12$0
__unwindtable$_PMCCS_Subtruct_X_X@12 DD 0ffffffffH
	DD	00H
	DD	0ffffffffH
	DD	00H
__catchsym$_PMCCS_Subtruct_X_L@16$2 DD 09H
	DD	FLAT:??_R0?AVException@Internal@Core@Math@Palmtree@@@8
	DD	0ffffffe8H
	DD	FLAT:__catch$_PMCCS_Subtruct_X_L@16$0
__unwindtable$_PMCCS_Subtruct_X_L@16 DD 0ffffffffH
	DD	00H
	DD	0ffffffffH
	DD	00H
__catchsym$_PMCCS_Subtruct_X_I@12$2 DD 09H
	DD	FLAT:??_R0?AVException@Internal@Core@Math@Palmtree@@@8
	DD	0ffffffe8H
	DD	FLAT:__catch$_PMCCS_Subtruct_X_I@12$0
__unwindtable$_PMCCS_Subtruct_X_I@12 DD 0ffffffffH
	DD	00H
	DD	0ffffffffH
	DD	00H
__catchsym$_PMCCS_Subtruct_L_X@16$2 DD 09H
	DD	FLAT:??_R0?AVException@Internal@Core@Math@Palmtree@@@8
	DD	0ffffffe8H
	DD	FLAT:__catch$_PMCCS_Subtruct_L_X@16$0
__unwindtable$_PMCCS_Subtruct_L_X@16 DD 0ffffffffH
	DD	00H
	DD	0ffffffffH
	DD	00H
__catchsym$_PMCCS_Subtruct_I_X@12$2 DD 09H
	DD	FLAT:??_R0?AVException@Internal@Core@Math@Palmtree@@@8
	DD	0ffffffe8H
	DD	FLAT:__catch$_PMCCS_Subtruct_I_X@12$0
__unwindtable$_PMCCS_Subtruct_I_X@12 DD 0ffffffffH
	DD	00H
	DD	0ffffffffH
	DD	00H
__catchsym$_PMCCS_Add_X_X@12$2 DD 09H
	DD	FLAT:??_R0?AVException@Internal@Core@Math@Palmtree@@@8
	DD	0ffffffe8H
	DD	FLAT:__catch$_PMCCS_Add_X_X@12$0
__unwindtable$_PMCCS_Add_X_X@12 DD 0ffffffffH
	DD	00H
	DD	0ffffffffH
	DD	00H
__catchsym$_PMCCS_Add_X_L@16$2 DD 09H
	DD	FLAT:??_R0?AVException@Internal@Core@Math@Palmtree@@@8
	DD	0ffffffe8H
	DD	FLAT:__catch$_PMCCS_Add_X_L@16$0
__unwindtable$_PMCCS_Add_X_L@16 DD 0ffffffffH
	DD	00H
	DD	0ffffffffH
	DD	00H
__catchsym$_PMCCS_Add_X_I@12$2 DD 09H
	DD	FLAT:??_R0?AVException@Internal@Core@Math@Palmtree@@@8
	DD	0ffffffe8H
	DD	FLAT:__catch$_PMCCS_Add_X_I@12$0
__unwindtable$_PMCCS_Add_X_I@12 DD 0ffffffffH
	DD	00H
	DD	0ffffffffH
	DD	00H
__catchsym$_PMCCS_Add_L_X@16$2 DD 09H
	DD	FLAT:??_R0?AVException@Internal@Core@Math@Palmtree@@@8
	DD	0ffffffe8H
	DD	FLAT:__catch$_PMCCS_Add_L_X@16$0
__unwindtable$_PMCCS_Add_L_X@16 DD 0ffffffffH
	DD	00H
	DD	0ffffffffH
	DD	00H
__catchsym$_PMCCS_Add_I_X@12$2 DD 09H
	DD	FLAT:??_R0?AVException@Internal@Core@Math@Palmtree@@@8
	DD	0ffffffe8H
	DD	FLAT:__catch$_PMCCS_Add_I_X@12$0
__unwindtable$_PMCCS_Add_I_X@12 DD 0ffffffffH
	DD	00H
	DD	0ffffffffH
	DD	00H
__catchsym$_PMCCS_TryParse@20$2 DD 09H
	DD	FLAT:??_R0?AVException@Internal@Core@Math@Palmtree@@@8
	DD	0ffffffe0H
	DD	FLAT:__catch$_PMCCS_TryParse@20$0
__unwindtable$_PMCCS_TryParse@20 DD 0ffffffffH
	DD	00H
	DD	0ffffffffH
	DD	00H
__catchsym$_PMCCS_Parse@16$2 DD 09H
	DD	FLAT:??_R0?AVException@Internal@Core@Math@Palmtree@@@8
	DD	0ffffffd4H
	DD	FLAT:__catch$_PMCCS_Parse@16$0
__unwindtable$_PMCCS_Parse@16 DD 0ffffffffH
	DD	00H
	DD	0ffffffffH
	DD	00H
__catchsym$_PMCCS_ToString@24$2 DD 09H
	DD	FLAT:??_R0?AVException@Internal@Core@Math@Palmtree@@@8
	DD	0ffffffe4H
	DD	FLAT:__catch$_PMCCS_ToString@24$0
__unwindtable$_PMCCS_ToString@24 DD 0ffffffffH
	DD	00H
	DD	0ffffffffH
	DD	00H
__catchsym$_PMCCS_To_X_L@8$2 DD 09H
	DD	FLAT:??_R0?AVException@Internal@Core@Math@Palmtree@@@8
	DD	0ffffffe8H
	DD	FLAT:__catch$_PMCCS_To_X_L@8$0
__unwindtable$_PMCCS_To_X_L@8 DD 0ffffffffH
	DD	00H
	DD	0ffffffffH
	DD	00H
__catchsym$_PMCCS_To_X_I@8$2 DD 09H
	DD	FLAT:??_R0?AVException@Internal@Core@Math@Palmtree@@@8
	DD	0ffffffe8H
	DD	FLAT:__catch$_PMCCS_To_X_I@8$0
__unwindtable$_PMCCS_To_X_I@8 DD 0ffffffffH
	DD	00H
	DD	0ffffffffH
	DD	00H
__catchsym$_PMCCS_GetAllocatedMemorySize@4$2 DD 09H
	DD	FLAT:??_R0?AVException@Internal@Core@Math@Palmtree@@@8
	DD	0ffffffe8H
	DD	FLAT:__catch$_PMCCS_GetAllocatedMemorySize@4$0
__unwindtable$_PMCCS_GetAllocatedMemorySize@4 DD 0ffffffffH
	DD	00H
	DD	0ffffffffH
	DD	00H
__catchsym$_PMCCS_Clone_X@8$2 DD 09H
	DD	FLAT:??_R0?AVException@Internal@Core@Math@Palmtree@@@8
	DD	0ffffffe8H
	DD	FLAT:__catch$_PMCCS_Clone_X@8$0
__unwindtable$_PMCCS_Clone_X@8 DD 0ffffffffH
	DD	00H
	DD	0ffffffffH
	DD	00H
__catchsym$_PMCCS_ToByteArray@16$2 DD 09H
	DD	FLAT:??_R0?AVException@Internal@Core@Math@Palmtree@@@8
	DD	0ffffffe4H
	DD	FLAT:__catch$_PMCCS_ToByteArray@16$0
__unwindtable$_PMCCS_ToByteArray@16 DD 0ffffffffH
	DD	00H
	DD	0ffffffffH
	DD	00H
__catchsym$_PMCCS_FromByteArray@12$2 DD 09H
	DD	FLAT:??_R0?AVException@Internal@Core@Math@Palmtree@@@8
	DD	0ffffffe8H
	DD	FLAT:__catch$_PMCCS_FromByteArray@12$0
__unwindtable$_PMCCS_FromByteArray@12 DD 0ffffffffH
	DD	00H
	DD	0ffffffffH
	DD	00H
__catchsym$_PMCCS_GetConstantValue_I@8$2 DD 09H
	DD	FLAT:??_R0?AVException@Internal@Core@Math@Palmtree@@@8
	DD	0ffffffe8H
	DD	FLAT:__catch$_PMCCS_GetConstantValue_I@8$0
__unwindtable$_PMCCS_GetConstantValue_I@8 DD 0ffffffffH
	DD	00H
	DD	0ffffffffH
	DD	00H
__catchsym$_PMCCS_Dispose@4$2 DD 09H
	DD	FLAT:??_R0?AVException@Internal@Core@Math@Palmtree@@@8
	DD	0ffffffe8H
	DD	FLAT:__catch$_PMCCS_Dispose@4$0
__unwindtable$_PMCCS_Dispose@4 DD 0ffffffffH
	DD	00H
	DD	0ffffffffH
	DD	00H
__catchsym$_PMCCS_From_L@12$2 DD 09H
	DD	FLAT:??_R0?AVException@Internal@Core@Math@Palmtree@@@8
	DD	0ffffffe8H
	DD	FLAT:__catch$_PMCCS_From_L@12$0
__unwindtable$_PMCCS_From_L@12 DD 0ffffffffH
	DD	00H
	DD	0ffffffffH
	DD	00H
__catchsym$_PMCCS_From_I@8$2 DD 09H
	DD	FLAT:??_R0?AVException@Internal@Core@Math@Palmtree@@@8
	DD	0ffffffe8H
	DD	FLAT:__catch$_PMCCS_From_I@8$0
__unwindtable$_PMCCS_From_I@8 DD 0ffffffffH
	DD	00H
	DD	0ffffffffH
	DD	00H
__catchsym$_PMCCS_GET_HASH_CODE@8$2 DD 09H
	DD	FLAT:??_R0?AVException@Internal@Core@Math@Palmtree@@@8
	DD	0ffffffe8H
	DD	FLAT:__catch$_PMCCS_GET_HASH_CODE@8$0
__unwindtable$_PMCCS_GET_HASH_CODE@8 DD 0ffffffffH
	DD	00H
	DD	0ffffffffH
	DD	00H
__catchsym$_PMCCS_IS_ZERO@8$2 DD 09H
	DD	FLAT:??_R0?AVException@Internal@Core@Math@Palmtree@@@8
	DD	0ffffffe8H
	DD	FLAT:__catch$_PMCCS_IS_ZERO@8$0
__unwindtable$_PMCCS_IS_ZERO@8 DD 0ffffffffH
	DD	00H
	DD	0ffffffffH
	DD	00H
__catchsym$_PMCCS_IS_POWER_OF_TWO@8$2 DD 09H
	DD	FLAT:??_R0?AVException@Internal@Core@Math@Palmtree@@@8
	DD	0ffffffe8H
	DD	FLAT:__catch$_PMCCS_IS_POWER_OF_TWO@8$0
__unwindtable$_PMCCS_IS_POWER_OF_TWO@8 DD 0ffffffffH
	DD	00H
	DD	0ffffffffH
	DD	00H
__catchsym$_PMCCS_IS_ONE@8$2 DD 09H
	DD	FLAT:??_R0?AVException@Internal@Core@Math@Palmtree@@@8
	DD	0ffffffe8H
	DD	FLAT:__catch$_PMCCS_IS_ONE@8$0
__unwindtable$_PMCCS_IS_ONE@8 DD 0ffffffffH
	DD	00H
	DD	0ffffffffH
	DD	00H
__catchsym$_PMCCS_IS_EVEN@8$2 DD 09H
	DD	FLAT:??_R0?AVException@Internal@Core@Math@Palmtree@@@8
	DD	0ffffffe8H
	DD	FLAT:__catch$_PMCCS_IS_EVEN@8$0
__unwindtable$_PMCCS_IS_EVEN@8 DD 0ffffffffH
	DD	00H
	DD	0ffffffffH
	DD	00H
__tryblocktable$_PMCCS_Floor_Log10@8 DD 00H
	DD	00H
	DD	01H
	DD	01H
	DD	FLAT:__catchsym$_PMCCS_Floor_Log10@8$2
__tryblocktable$_PMCCS_TimesOfExponentOf10@12 DD 00H
	DD	00H
	DD	01H
	DD	01H
	DD	FLAT:__catchsym$_PMCCS_TimesOfExponentOf10@12$2
__tryblocktable$_PMCCS_ModPow_X_X_X@16 DD 00H
	DD	00H
	DD	01H
	DD	01H
	DD	FLAT:__catchsym$_PMCCS_ModPow_X_X_X@16$2
__tryblocktable$_PMCCS_Pow_X_L@16 DD 00H
	DD	00H
	DD	01H
	DD	01H
	DD	FLAT:__catchsym$_PMCCS_Pow_X_L@16$2
__tryblocktable$_PMCCS_Pow_X_I@12 DD 00H
	DD	00H
	DD	01H
	DD	01H
	DD	FLAT:__catchsym$_PMCCS_Pow_X_I@12$2
__tryblocktable$_PMCCS_GreatestCommonDivisor_X_X@12 DD 00H
	DD	00H
	DD	01H
	DD	01H
	DD	FLAT:__catchsym$_PMCCS_GreatestCommonDivisor_X_X@12$2
__tryblocktable$_PMCCS_GreatestCommonDivisor_X_L@16 DD 00H
	DD	00H
	DD	01H
	DD	01H
	DD	FLAT:__catchsym$_PMCCS_GreatestCommonDivisor_X_L@16$2
__tryblocktable$_PMCCS_GreatestCommonDivisor_X_I@12 DD 00H
	DD	00H
	DD	01H
	DD	01H
	DD	FLAT:__catchsym$_PMCCS_GreatestCommonDivisor_X_I@12$2
__tryblocktable$_PMCCS_GreatestCommonDivisor_L_X@16 DD 00H
	DD	00H
	DD	01H
	DD	01H
	DD	FLAT:__catchsym$_PMCCS_GreatestCommonDivisor_L_X@16$2
__tryblocktable$_PMCCS_GreatestCommonDivisor_I_X@12 DD 00H
	DD	00H
	DD	01H
	DD	01H
	DD	FLAT:__catchsym$_PMCCS_GreatestCommonDivisor_I_X@12$2
__tryblocktable$_PMCCS_Equals_X_X@12 DD 00H
	DD	00H
	DD	01H
	DD	01H
	DD	FLAT:__catchsym$_PMCCS_Equals_X_X@12$2
__tryblocktable$_PMCCS_Equals_X_L@16 DD 00H
	DD	00H
	DD	01H
	DD	01H
	DD	FLAT:__catchsym$_PMCCS_Equals_X_L@16$2
__tryblocktable$_PMCCS_Equals_X_I@12 DD 00H
	DD	00H
	DD	01H
	DD	01H
	DD	FLAT:__catchsym$_PMCCS_Equals_X_I@12$2
__tryblocktable$_PMCCS_Equals_L_X@16 DD 00H
	DD	00H
	DD	01H
	DD	01H
	DD	FLAT:__catchsym$_PMCCS_Equals_L_X@16$2
__tryblocktable$_PMCCS_Equals_I_X@12 DD 00H
	DD	00H
	DD	01H
	DD	01H
	DD	FLAT:__catchsym$_PMCCS_Equals_I_X@12$2
__tryblocktable$_PMCCS_Compare_X_X@12 DD 00H
	DD	00H
	DD	01H
	DD	01H
	DD	FLAT:__catchsym$_PMCCS_Compare_X_X@12$2
__tryblocktable$_PMCCS_Compare_X_L@16 DD 00H
	DD	00H
	DD	01H
	DD	01H
	DD	FLAT:__catchsym$_PMCCS_Compare_X_L@16$2
__tryblocktable$_PMCCS_Compare_X_I@12 DD 00H
	DD	00H
	DD	01H
	DD	01H
	DD	FLAT:__catchsym$_PMCCS_Compare_X_I@12$2
__tryblocktable$_PMCCS_Compare_L_X@16 DD 00H
	DD	00H
	DD	01H
	DD	01H
	DD	FLAT:__catchsym$_PMCCS_Compare_L_X@16$2
__tryblocktable$_PMCCS_Compare_I_X@12 DD 00H
	DD	00H
	DD	01H
	DD	01H
	DD	FLAT:__catchsym$_PMCCS_Compare_I_X@12$2
__tryblocktable$_PMCCS_ExclusiveOr_X_X@12 DD 00H
	DD	00H
	DD	01H
	DD	01H
	DD	FLAT:__catchsym$_PMCCS_ExclusiveOr_X_X@12$2
__tryblocktable$_PMCCS_ExclusiveOr_X_L@16 DD 00H
	DD	00H
	DD	01H
	DD	01H
	DD	FLAT:__catchsym$_PMCCS_ExclusiveOr_X_L@16$2
__tryblocktable$_PMCCS_ExclusiveOr_X_I@12 DD 00H
	DD	00H
	DD	01H
	DD	01H
	DD	FLAT:__catchsym$_PMCCS_ExclusiveOr_X_I@12$2
__tryblocktable$_PMCCS_ExclusiveOr_L_X@16 DD 00H
	DD	00H
	DD	01H
	DD	01H
	DD	FLAT:__catchsym$_PMCCS_ExclusiveOr_L_X@16$2
__tryblocktable$_PMCCS_ExclusiveOr_I_X@12 DD 00H
	DD	00H
	DD	01H
	DD	01H
	DD	FLAT:__catchsym$_PMCCS_ExclusiveOr_I_X@12$2
__tryblocktable$_PMCCS_BitwiseOr_X_X@12 DD 00H
	DD	00H
	DD	01H
	DD	01H
	DD	FLAT:__catchsym$_PMCCS_BitwiseOr_X_X@12$2
__tryblocktable$_PMCCS_BitwiseOr_X_L@16 DD 00H
	DD	00H
	DD	01H
	DD	01H
	DD	FLAT:__catchsym$_PMCCS_BitwiseOr_X_L@16$2
__tryblocktable$_PMCCS_BitwiseOr_X_I@12 DD 00H
	DD	00H
	DD	01H
	DD	01H
	DD	FLAT:__catchsym$_PMCCS_BitwiseOr_X_I@12$2
__tryblocktable$_PMCCS_BitwiseOr_L_X@16 DD 00H
	DD	00H
	DD	01H
	DD	01H
	DD	FLAT:__catchsym$_PMCCS_BitwiseOr_L_X@16$2
__tryblocktable$_PMCCS_BitwiseOr_I_X@12 DD 00H
	DD	00H
	DD	01H
	DD	01H
	DD	FLAT:__catchsym$_PMCCS_BitwiseOr_I_X@12$2
__tryblocktable$_PMCCS_BitwiseAnd_X_X@12 DD 00H
	DD	00H
	DD	01H
	DD	01H
	DD	FLAT:__catchsym$_PMCCS_BitwiseAnd_X_X@12$2
__tryblocktable$_PMCCS_BitwiseAnd_X_L@16 DD 00H
	DD	00H
	DD	01H
	DD	01H
	DD	FLAT:__catchsym$_PMCCS_BitwiseAnd_X_L@16$2
__tryblocktable$_PMCCS_BitwiseAnd_X_I@12 DD 00H
	DD	00H
	DD	01H
	DD	01H
	DD	FLAT:__catchsym$_PMCCS_BitwiseAnd_X_I@12$2
__tryblocktable$_PMCCS_BitwiseAnd_L_X@16 DD 00H
	DD	00H
	DD	01H
	DD	01H
	DD	FLAT:__catchsym$_PMCCS_BitwiseAnd_L_X@16$2
__tryblocktable$_PMCCS_BitwiseAnd_I_X@12 DD 00H
	DD	00H
	DD	01H
	DD	01H
	DD	FLAT:__catchsym$_PMCCS_BitwiseAnd_I_X@12$2
__tryblocktable$_PMCCS_LeftShift_X_I@12 DD 00H
	DD	00H
	DD	01H
	DD	01H
	DD	FLAT:__catchsym$_PMCCS_LeftShift_X_I@12$2
__tryblocktable$_PMCCS_RightShift_X_I@12 DD 00H
	DD	00H
	DD	01H
	DD	01H
	DD	FLAT:__catchsym$_PMCCS_RightShift_X_I@12$2
__tryblocktable$_PMCCS_Remainder_X_X@12 DD 00H
	DD	00H
	DD	01H
	DD	01H
	DD	FLAT:__catchsym$_PMCCS_Remainder_X_X@12$2
__tryblocktable$_PMCCS_Remainder_X_L@16 DD 00H
	DD	00H
	DD	01H
	DD	01H
	DD	FLAT:__catchsym$_PMCCS_Remainder_X_L@16$2
__tryblocktable$_PMCCS_Remainder_X_I@12 DD 00H
	DD	00H
	DD	01H
	DD	01H
	DD	FLAT:__catchsym$_PMCCS_Remainder_X_I@12$2
__tryblocktable$_PMCCS_Remainder_L_X@16 DD 00H
	DD	00H
	DD	01H
	DD	01H
	DD	FLAT:__catchsym$_PMCCS_Remainder_L_X@16$2
__tryblocktable$_PMCCS_Remainder_I_X@12 DD 00H
	DD	00H
	DD	01H
	DD	01H
	DD	FLAT:__catchsym$_PMCCS_Remainder_I_X@12$2
__tryblocktable$_PMCCS_DivRem_X_X@16 DD 00H
	DD	00H
	DD	01H
	DD	01H
	DD	FLAT:__catchsym$_PMCCS_DivRem_X_X@16$2
__tryblocktable$_PMCCS_DivRem_X_L@20 DD 00H
	DD	00H
	DD	01H
	DD	01H
	DD	FLAT:__catchsym$_PMCCS_DivRem_X_L@20$2
__tryblocktable$_PMCCS_DivRem_X_I@16 DD 00H
	DD	00H
	DD	01H
	DD	01H
	DD	FLAT:__catchsym$_PMCCS_DivRem_X_I@16$2
__tryblocktable$_PMCCS_DivRem_L_X@20 DD 00H
	DD	00H
	DD	01H
	DD	01H
	DD	FLAT:__catchsym$_PMCCS_DivRem_L_X@20$2
__tryblocktable$_PMCCS_DivRem_I_X@16 DD 00H
	DD	00H
	DD	01H
	DD	01H
	DD	FLAT:__catchsym$_PMCCS_DivRem_I_X@16$2
__tryblocktable$_PMCCS_Multiply_X_X@12 DD 00H
	DD	00H
	DD	01H
	DD	01H
	DD	FLAT:__catchsym$_PMCCS_Multiply_X_X@12$2
__tryblocktable$_PMCCS_Multiply_X_L@16 DD 00H
	DD	00H
	DD	01H
	DD	01H
	DD	FLAT:__catchsym$_PMCCS_Multiply_X_L@16$2
__tryblocktable$_PMCCS_Multiply_X_I@12 DD 00H
	DD	00H
	DD	01H
	DD	01H
	DD	FLAT:__catchsym$_PMCCS_Multiply_X_I@12$2
__tryblocktable$_PMCCS_Multiply_L_X@16 DD 00H
	DD	00H
	DD	01H
	DD	01H
	DD	FLAT:__catchsym$_PMCCS_Multiply_L_X@16$2
__tryblocktable$_PMCCS_Multiply_I_X@12 DD 00H
	DD	00H
	DD	01H
	DD	01H
	DD	FLAT:__catchsym$_PMCCS_Multiply_I_X@12$2
__tryblocktable$_PMCCS_Subtruct_X_X@12 DD 00H
	DD	00H
	DD	01H
	DD	01H
	DD	FLAT:__catchsym$_PMCCS_Subtruct_X_X@12$2
__tryblocktable$_PMCCS_Subtruct_X_L@16 DD 00H
	DD	00H
	DD	01H
	DD	01H
	DD	FLAT:__catchsym$_PMCCS_Subtruct_X_L@16$2
__tryblocktable$_PMCCS_Subtruct_X_I@12 DD 00H
	DD	00H
	DD	01H
	DD	01H
	DD	FLAT:__catchsym$_PMCCS_Subtruct_X_I@12$2
__tryblocktable$_PMCCS_Subtruct_L_X@16 DD 00H
	DD	00H
	DD	01H
	DD	01H
	DD	FLAT:__catchsym$_PMCCS_Subtruct_L_X@16$2
__tryblocktable$_PMCCS_Subtruct_I_X@12 DD 00H
	DD	00H
	DD	01H
	DD	01H
	DD	FLAT:__catchsym$_PMCCS_Subtruct_I_X@12$2
__tryblocktable$_PMCCS_Add_X_X@12 DD 00H
	DD	00H
	DD	01H
	DD	01H
	DD	FLAT:__catchsym$_PMCCS_Add_X_X@12$2
__tryblocktable$_PMCCS_Add_X_L@16 DD 00H
	DD	00H
	DD	01H
	DD	01H
	DD	FLAT:__catchsym$_PMCCS_Add_X_L@16$2
__tryblocktable$_PMCCS_Add_X_I@12 DD 00H
	DD	00H
	DD	01H
	DD	01H
	DD	FLAT:__catchsym$_PMCCS_Add_X_I@12$2
__tryblocktable$_PMCCS_Add_L_X@16 DD 00H
	DD	00H
	DD	01H
	DD	01H
	DD	FLAT:__catchsym$_PMCCS_Add_L_X@16$2
__tryblocktable$_PMCCS_Add_I_X@12 DD 00H
	DD	00H
	DD	01H
	DD	01H
	DD	FLAT:__catchsym$_PMCCS_Add_I_X@12$2
__tryblocktable$_PMCCS_TryParse@20 DD 00H
	DD	00H
	DD	01H
	DD	01H
	DD	FLAT:__catchsym$_PMCCS_TryParse@20$2
__tryblocktable$_PMCCS_Parse@16 DD 00H
	DD	00H
	DD	01H
	DD	01H
	DD	FLAT:__catchsym$_PMCCS_Parse@16$2
__tryblocktable$_PMCCS_ToString@24 DD 00H
	DD	00H
	DD	01H
	DD	01H
	DD	FLAT:__catchsym$_PMCCS_ToString@24$2
__tryblocktable$_PMCCS_To_X_L@8 DD 00H
	DD	00H
	DD	01H
	DD	01H
	DD	FLAT:__catchsym$_PMCCS_To_X_L@8$2
__tryblocktable$_PMCCS_To_X_I@8 DD 00H
	DD	00H
	DD	01H
	DD	01H
	DD	FLAT:__catchsym$_PMCCS_To_X_I@8$2
__tryblocktable$_PMCCS_GetAllocatedMemorySize@4 DD 00H
	DD	00H
	DD	01H
	DD	01H
	DD	FLAT:__catchsym$_PMCCS_GetAllocatedMemorySize@4$2
__tryblocktable$_PMCCS_Clone_X@8 DD 00H
	DD	00H
	DD	01H
	DD	01H
	DD	FLAT:__catchsym$_PMCCS_Clone_X@8$2
__tryblocktable$_PMCCS_ToByteArray@16 DD 00H
	DD	00H
	DD	01H
	DD	01H
	DD	FLAT:__catchsym$_PMCCS_ToByteArray@16$2
__tryblocktable$_PMCCS_FromByteArray@12 DD 00H
	DD	00H
	DD	01H
	DD	01H
	DD	FLAT:__catchsym$_PMCCS_FromByteArray@12$2
__tryblocktable$_PMCCS_GetConstantValue_I@8 DD 00H
	DD	00H
	DD	01H
	DD	01H
	DD	FLAT:__catchsym$_PMCCS_GetConstantValue_I@8$2
__tryblocktable$_PMCCS_Dispose@4 DD 00H
	DD	00H
	DD	01H
	DD	01H
	DD	FLAT:__catchsym$_PMCCS_Dispose@4$2
__tryblocktable$_PMCCS_From_L@12 DD 00H
	DD	00H
	DD	01H
	DD	01H
	DD	FLAT:__catchsym$_PMCCS_From_L@12$2
__tryblocktable$_PMCCS_From_I@8 DD 00H
	DD	00H
	DD	01H
	DD	01H
	DD	FLAT:__catchsym$_PMCCS_From_I@8$2
__tryblocktable$_PMCCS_GET_HASH_CODE@8 DD 00H
	DD	00H
	DD	01H
	DD	01H
	DD	FLAT:__catchsym$_PMCCS_GET_HASH_CODE@8$2
__tryblocktable$_PMCCS_IS_ZERO@8 DD 00H
	DD	00H
	DD	01H
	DD	01H
	DD	FLAT:__catchsym$_PMCCS_IS_ZERO@8$2
__tryblocktable$_PMCCS_IS_POWER_OF_TWO@8 DD 00H
	DD	00H
	DD	01H
	DD	01H
	DD	FLAT:__catchsym$_PMCCS_IS_POWER_OF_TWO@8$2
__tryblocktable$_PMCCS_IS_ONE@8 DD 00H
	DD	00H
	DD	01H
	DD	01H
	DD	FLAT:__catchsym$_PMCCS_IS_ONE@8$2
__tryblocktable$_PMCCS_IS_EVEN@8 DD 00H
	DD	00H
	DD	01H
	DD	01H
	DD	FLAT:__catchsym$_PMCCS_IS_EVEN@8$2
__ehfuncinfo$_PMCCS_Floor_Log10@8 DD 019930522H
	DD	02H
	DD	FLAT:__unwindtable$_PMCCS_Floor_Log10@8
	DD	01H
	DD	FLAT:__tryblocktable$_PMCCS_Floor_Log10@8
	DD	2 DUP(00H)
	DD	00H
	DD	00H
__ehfuncinfo$_PMCCS_TimesOfExponentOf10@12 DD 019930522H
	DD	02H
	DD	FLAT:__unwindtable$_PMCCS_TimesOfExponentOf10@12
	DD	01H
	DD	FLAT:__tryblocktable$_PMCCS_TimesOfExponentOf10@12
	DD	2 DUP(00H)
	DD	00H
	DD	00H
__ehfuncinfo$_PMCCS_ModPow_X_X_X@16 DD 019930522H
	DD	02H
	DD	FLAT:__unwindtable$_PMCCS_ModPow_X_X_X@16
	DD	01H
	DD	FLAT:__tryblocktable$_PMCCS_ModPow_X_X_X@16
	DD	2 DUP(00H)
	DD	00H
	DD	00H
__ehfuncinfo$_PMCCS_Pow_X_L@16 DD 019930522H
	DD	02H
	DD	FLAT:__unwindtable$_PMCCS_Pow_X_L@16
	DD	01H
	DD	FLAT:__tryblocktable$_PMCCS_Pow_X_L@16
	DD	2 DUP(00H)
	DD	00H
	DD	00H
__ehfuncinfo$_PMCCS_Pow_X_I@12 DD 019930522H
	DD	02H
	DD	FLAT:__unwindtable$_PMCCS_Pow_X_I@12
	DD	01H
	DD	FLAT:__tryblocktable$_PMCCS_Pow_X_I@12
	DD	2 DUP(00H)
	DD	00H
	DD	00H
__ehfuncinfo$_PMCCS_GreatestCommonDivisor_X_X@12 DD 019930522H
	DD	02H
	DD	FLAT:__unwindtable$_PMCCS_GreatestCommonDivisor_X_X@12
	DD	01H
	DD	FLAT:__tryblocktable$_PMCCS_GreatestCommonDivisor_X_X@12
	DD	2 DUP(00H)
	DD	00H
	DD	00H
__ehfuncinfo$_PMCCS_GreatestCommonDivisor_X_L@16 DD 019930522H
	DD	02H
	DD	FLAT:__unwindtable$_PMCCS_GreatestCommonDivisor_X_L@16
	DD	01H
	DD	FLAT:__tryblocktable$_PMCCS_GreatestCommonDivisor_X_L@16
	DD	2 DUP(00H)
	DD	00H
	DD	00H
__ehfuncinfo$_PMCCS_GreatestCommonDivisor_X_I@12 DD 019930522H
	DD	02H
	DD	FLAT:__unwindtable$_PMCCS_GreatestCommonDivisor_X_I@12
	DD	01H
	DD	FLAT:__tryblocktable$_PMCCS_GreatestCommonDivisor_X_I@12
	DD	2 DUP(00H)
	DD	00H
	DD	00H
__ehfuncinfo$_PMCCS_GreatestCommonDivisor_L_X@16 DD 019930522H
	DD	02H
	DD	FLAT:__unwindtable$_PMCCS_GreatestCommonDivisor_L_X@16
	DD	01H
	DD	FLAT:__tryblocktable$_PMCCS_GreatestCommonDivisor_L_X@16
	DD	2 DUP(00H)
	DD	00H
	DD	00H
__ehfuncinfo$_PMCCS_GreatestCommonDivisor_I_X@12 DD 019930522H
	DD	02H
	DD	FLAT:__unwindtable$_PMCCS_GreatestCommonDivisor_I_X@12
	DD	01H
	DD	FLAT:__tryblocktable$_PMCCS_GreatestCommonDivisor_I_X@12
	DD	2 DUP(00H)
	DD	00H
	DD	00H
__ehfuncinfo$_PMCCS_Equals_X_X@12 DD 019930522H
	DD	02H
	DD	FLAT:__unwindtable$_PMCCS_Equals_X_X@12
	DD	01H
	DD	FLAT:__tryblocktable$_PMCCS_Equals_X_X@12
	DD	2 DUP(00H)
	DD	00H
	DD	00H
__ehfuncinfo$_PMCCS_Equals_X_L@16 DD 019930522H
	DD	02H
	DD	FLAT:__unwindtable$_PMCCS_Equals_X_L@16
	DD	01H
	DD	FLAT:__tryblocktable$_PMCCS_Equals_X_L@16
	DD	2 DUP(00H)
	DD	00H
	DD	00H
__ehfuncinfo$_PMCCS_Equals_X_I@12 DD 019930522H
	DD	02H
	DD	FLAT:__unwindtable$_PMCCS_Equals_X_I@12
	DD	01H
	DD	FLAT:__tryblocktable$_PMCCS_Equals_X_I@12
	DD	2 DUP(00H)
	DD	00H
	DD	00H
__ehfuncinfo$_PMCCS_Equals_L_X@16 DD 019930522H
	DD	02H
	DD	FLAT:__unwindtable$_PMCCS_Equals_L_X@16
	DD	01H
	DD	FLAT:__tryblocktable$_PMCCS_Equals_L_X@16
	DD	2 DUP(00H)
	DD	00H
	DD	00H
__ehfuncinfo$_PMCCS_Equals_I_X@12 DD 019930522H
	DD	02H
	DD	FLAT:__unwindtable$_PMCCS_Equals_I_X@12
	DD	01H
	DD	FLAT:__tryblocktable$_PMCCS_Equals_I_X@12
	DD	2 DUP(00H)
	DD	00H
	DD	00H
__ehfuncinfo$_PMCCS_Compare_X_X@12 DD 019930522H
	DD	02H
	DD	FLAT:__unwindtable$_PMCCS_Compare_X_X@12
	DD	01H
	DD	FLAT:__tryblocktable$_PMCCS_Compare_X_X@12
	DD	2 DUP(00H)
	DD	00H
	DD	00H
__ehfuncinfo$_PMCCS_Compare_X_L@16 DD 019930522H
	DD	02H
	DD	FLAT:__unwindtable$_PMCCS_Compare_X_L@16
	DD	01H
	DD	FLAT:__tryblocktable$_PMCCS_Compare_X_L@16
	DD	2 DUP(00H)
	DD	00H
	DD	00H
__ehfuncinfo$_PMCCS_Compare_X_I@12 DD 019930522H
	DD	02H
	DD	FLAT:__unwindtable$_PMCCS_Compare_X_I@12
	DD	01H
	DD	FLAT:__tryblocktable$_PMCCS_Compare_X_I@12
	DD	2 DUP(00H)
	DD	00H
	DD	00H
__ehfuncinfo$_PMCCS_Compare_L_X@16 DD 019930522H
	DD	02H
	DD	FLAT:__unwindtable$_PMCCS_Compare_L_X@16
	DD	01H
	DD	FLAT:__tryblocktable$_PMCCS_Compare_L_X@16
	DD	2 DUP(00H)
	DD	00H
	DD	00H
__ehfuncinfo$_PMCCS_Compare_I_X@12 DD 019930522H
	DD	02H
	DD	FLAT:__unwindtable$_PMCCS_Compare_I_X@12
	DD	01H
	DD	FLAT:__tryblocktable$_PMCCS_Compare_I_X@12
	DD	2 DUP(00H)
	DD	00H
	DD	00H
__ehfuncinfo$_PMCCS_ExclusiveOr_X_X@12 DD 019930522H
	DD	02H
	DD	FLAT:__unwindtable$_PMCCS_ExclusiveOr_X_X@12
	DD	01H
	DD	FLAT:__tryblocktable$_PMCCS_ExclusiveOr_X_X@12
	DD	2 DUP(00H)
	DD	00H
	DD	00H
__ehfuncinfo$_PMCCS_ExclusiveOr_X_L@16 DD 019930522H
	DD	02H
	DD	FLAT:__unwindtable$_PMCCS_ExclusiveOr_X_L@16
	DD	01H
	DD	FLAT:__tryblocktable$_PMCCS_ExclusiveOr_X_L@16
	DD	2 DUP(00H)
	DD	00H
	DD	00H
__ehfuncinfo$_PMCCS_ExclusiveOr_X_I@12 DD 019930522H
	DD	02H
	DD	FLAT:__unwindtable$_PMCCS_ExclusiveOr_X_I@12
	DD	01H
	DD	FLAT:__tryblocktable$_PMCCS_ExclusiveOr_X_I@12
	DD	2 DUP(00H)
	DD	00H
	DD	00H
__ehfuncinfo$_PMCCS_ExclusiveOr_L_X@16 DD 019930522H
	DD	02H
	DD	FLAT:__unwindtable$_PMCCS_ExclusiveOr_L_X@16
	DD	01H
	DD	FLAT:__tryblocktable$_PMCCS_ExclusiveOr_L_X@16
	DD	2 DUP(00H)
	DD	00H
	DD	00H
__ehfuncinfo$_PMCCS_ExclusiveOr_I_X@12 DD 019930522H
	DD	02H
	DD	FLAT:__unwindtable$_PMCCS_ExclusiveOr_I_X@12
	DD	01H
	DD	FLAT:__tryblocktable$_PMCCS_ExclusiveOr_I_X@12
	DD	2 DUP(00H)
	DD	00H
	DD	00H
__ehfuncinfo$_PMCCS_BitwiseOr_X_X@12 DD 019930522H
	DD	02H
	DD	FLAT:__unwindtable$_PMCCS_BitwiseOr_X_X@12
	DD	01H
	DD	FLAT:__tryblocktable$_PMCCS_BitwiseOr_X_X@12
	DD	2 DUP(00H)
	DD	00H
	DD	00H
__ehfuncinfo$_PMCCS_BitwiseOr_X_L@16 DD 019930522H
	DD	02H
	DD	FLAT:__unwindtable$_PMCCS_BitwiseOr_X_L@16
	DD	01H
	DD	FLAT:__tryblocktable$_PMCCS_BitwiseOr_X_L@16
	DD	2 DUP(00H)
	DD	00H
	DD	00H
__ehfuncinfo$_PMCCS_BitwiseOr_X_I@12 DD 019930522H
	DD	02H
	DD	FLAT:__unwindtable$_PMCCS_BitwiseOr_X_I@12
	DD	01H
	DD	FLAT:__tryblocktable$_PMCCS_BitwiseOr_X_I@12
	DD	2 DUP(00H)
	DD	00H
	DD	00H
__ehfuncinfo$_PMCCS_BitwiseOr_L_X@16 DD 019930522H
	DD	02H
	DD	FLAT:__unwindtable$_PMCCS_BitwiseOr_L_X@16
	DD	01H
	DD	FLAT:__tryblocktable$_PMCCS_BitwiseOr_L_X@16
	DD	2 DUP(00H)
	DD	00H
	DD	00H
__ehfuncinfo$_PMCCS_BitwiseOr_I_X@12 DD 019930522H
	DD	02H
	DD	FLAT:__unwindtable$_PMCCS_BitwiseOr_I_X@12
	DD	01H
	DD	FLAT:__tryblocktable$_PMCCS_BitwiseOr_I_X@12
	DD	2 DUP(00H)
	DD	00H
	DD	00H
__ehfuncinfo$_PMCCS_BitwiseAnd_X_X@12 DD 019930522H
	DD	02H
	DD	FLAT:__unwindtable$_PMCCS_BitwiseAnd_X_X@12
	DD	01H
	DD	FLAT:__tryblocktable$_PMCCS_BitwiseAnd_X_X@12
	DD	2 DUP(00H)
	DD	00H
	DD	00H
__ehfuncinfo$_PMCCS_BitwiseAnd_X_L@16 DD 019930522H
	DD	02H
	DD	FLAT:__unwindtable$_PMCCS_BitwiseAnd_X_L@16
	DD	01H
	DD	FLAT:__tryblocktable$_PMCCS_BitwiseAnd_X_L@16
	DD	2 DUP(00H)
	DD	00H
	DD	00H
__ehfuncinfo$_PMCCS_BitwiseAnd_X_I@12 DD 019930522H
	DD	02H
	DD	FLAT:__unwindtable$_PMCCS_BitwiseAnd_X_I@12
	DD	01H
	DD	FLAT:__tryblocktable$_PMCCS_BitwiseAnd_X_I@12
	DD	2 DUP(00H)
	DD	00H
	DD	00H
__ehfuncinfo$_PMCCS_BitwiseAnd_L_X@16 DD 019930522H
	DD	02H
	DD	FLAT:__unwindtable$_PMCCS_BitwiseAnd_L_X@16
	DD	01H
	DD	FLAT:__tryblocktable$_PMCCS_BitwiseAnd_L_X@16
	DD	2 DUP(00H)
	DD	00H
	DD	00H
__ehfuncinfo$_PMCCS_BitwiseAnd_I_X@12 DD 019930522H
	DD	02H
	DD	FLAT:__unwindtable$_PMCCS_BitwiseAnd_I_X@12
	DD	01H
	DD	FLAT:__tryblocktable$_PMCCS_BitwiseAnd_I_X@12
	DD	2 DUP(00H)
	DD	00H
	DD	00H
__ehfuncinfo$_PMCCS_LeftShift_X_I@12 DD 019930522H
	DD	02H
	DD	FLAT:__unwindtable$_PMCCS_LeftShift_X_I@12
	DD	01H
	DD	FLAT:__tryblocktable$_PMCCS_LeftShift_X_I@12
	DD	2 DUP(00H)
	DD	00H
	DD	00H
__ehfuncinfo$_PMCCS_RightShift_X_I@12 DD 019930522H
	DD	02H
	DD	FLAT:__unwindtable$_PMCCS_RightShift_X_I@12
	DD	01H
	DD	FLAT:__tryblocktable$_PMCCS_RightShift_X_I@12
	DD	2 DUP(00H)
	DD	00H
	DD	00H
__ehfuncinfo$_PMCCS_Remainder_X_X@12 DD 019930522H
	DD	02H
	DD	FLAT:__unwindtable$_PMCCS_Remainder_X_X@12
	DD	01H
	DD	FLAT:__tryblocktable$_PMCCS_Remainder_X_X@12
	DD	2 DUP(00H)
	DD	00H
	DD	00H
__ehfuncinfo$_PMCCS_Remainder_X_L@16 DD 019930522H
	DD	02H
	DD	FLAT:__unwindtable$_PMCCS_Remainder_X_L@16
	DD	01H
	DD	FLAT:__tryblocktable$_PMCCS_Remainder_X_L@16
	DD	2 DUP(00H)
	DD	00H
	DD	00H
__ehfuncinfo$_PMCCS_Remainder_X_I@12 DD 019930522H
	DD	02H
	DD	FLAT:__unwindtable$_PMCCS_Remainder_X_I@12
	DD	01H
	DD	FLAT:__tryblocktable$_PMCCS_Remainder_X_I@12
	DD	2 DUP(00H)
	DD	00H
	DD	00H
__ehfuncinfo$_PMCCS_Remainder_L_X@16 DD 019930522H
	DD	02H
	DD	FLAT:__unwindtable$_PMCCS_Remainder_L_X@16
	DD	01H
	DD	FLAT:__tryblocktable$_PMCCS_Remainder_L_X@16
	DD	2 DUP(00H)
	DD	00H
	DD	00H
__ehfuncinfo$_PMCCS_Remainder_I_X@12 DD 019930522H
	DD	02H
	DD	FLAT:__unwindtable$_PMCCS_Remainder_I_X@12
	DD	01H
	DD	FLAT:__tryblocktable$_PMCCS_Remainder_I_X@12
	DD	2 DUP(00H)
	DD	00H
	DD	00H
__ehfuncinfo$_PMCCS_DivRem_X_X@16 DD 019930522H
	DD	02H
	DD	FLAT:__unwindtable$_PMCCS_DivRem_X_X@16
	DD	01H
	DD	FLAT:__tryblocktable$_PMCCS_DivRem_X_X@16
	DD	2 DUP(00H)
	DD	00H
	DD	00H
__ehfuncinfo$_PMCCS_DivRem_X_L@20 DD 019930522H
	DD	02H
	DD	FLAT:__unwindtable$_PMCCS_DivRem_X_L@20
	DD	01H
	DD	FLAT:__tryblocktable$_PMCCS_DivRem_X_L@20
	DD	2 DUP(00H)
	DD	00H
	DD	00H
__ehfuncinfo$_PMCCS_DivRem_X_I@16 DD 019930522H
	DD	02H
	DD	FLAT:__unwindtable$_PMCCS_DivRem_X_I@16
	DD	01H
	DD	FLAT:__tryblocktable$_PMCCS_DivRem_X_I@16
	DD	2 DUP(00H)
	DD	00H
	DD	00H
__ehfuncinfo$_PMCCS_DivRem_L_X@20 DD 019930522H
	DD	02H
	DD	FLAT:__unwindtable$_PMCCS_DivRem_L_X@20
	DD	01H
	DD	FLAT:__tryblocktable$_PMCCS_DivRem_L_X@20
	DD	2 DUP(00H)
	DD	00H
	DD	00H
__ehfuncinfo$_PMCCS_DivRem_I_X@16 DD 019930522H
	DD	02H
	DD	FLAT:__unwindtable$_PMCCS_DivRem_I_X@16
	DD	01H
	DD	FLAT:__tryblocktable$_PMCCS_DivRem_I_X@16
	DD	2 DUP(00H)
	DD	00H
	DD	00H
__ehfuncinfo$_PMCCS_Multiply_X_X@12 DD 019930522H
	DD	02H
	DD	FLAT:__unwindtable$_PMCCS_Multiply_X_X@12
	DD	01H
	DD	FLAT:__tryblocktable$_PMCCS_Multiply_X_X@12
	DD	2 DUP(00H)
	DD	00H
	DD	00H
__ehfuncinfo$_PMCCS_Multiply_X_L@16 DD 019930522H
	DD	02H
	DD	FLAT:__unwindtable$_PMCCS_Multiply_X_L@16
	DD	01H
	DD	FLAT:__tryblocktable$_PMCCS_Multiply_X_L@16
	DD	2 DUP(00H)
	DD	00H
	DD	00H
__ehfuncinfo$_PMCCS_Multiply_X_I@12 DD 019930522H
	DD	02H
	DD	FLAT:__unwindtable$_PMCCS_Multiply_X_I@12
	DD	01H
	DD	FLAT:__tryblocktable$_PMCCS_Multiply_X_I@12
	DD	2 DUP(00H)
	DD	00H
	DD	00H
__ehfuncinfo$_PMCCS_Multiply_L_X@16 DD 019930522H
	DD	02H
	DD	FLAT:__unwindtable$_PMCCS_Multiply_L_X@16
	DD	01H
	DD	FLAT:__tryblocktable$_PMCCS_Multiply_L_X@16
	DD	2 DUP(00H)
	DD	00H
	DD	00H
__ehfuncinfo$_PMCCS_Multiply_I_X@12 DD 019930522H
	DD	02H
	DD	FLAT:__unwindtable$_PMCCS_Multiply_I_X@12
	DD	01H
	DD	FLAT:__tryblocktable$_PMCCS_Multiply_I_X@12
	DD	2 DUP(00H)
	DD	00H
	DD	00H
__ehfuncinfo$_PMCCS_Subtruct_X_X@12 DD 019930522H
	DD	02H
	DD	FLAT:__unwindtable$_PMCCS_Subtruct_X_X@12
	DD	01H
	DD	FLAT:__tryblocktable$_PMCCS_Subtruct_X_X@12
	DD	2 DUP(00H)
	DD	00H
	DD	00H
__ehfuncinfo$_PMCCS_Subtruct_X_L@16 DD 019930522H
	DD	02H
	DD	FLAT:__unwindtable$_PMCCS_Subtruct_X_L@16
	DD	01H
	DD	FLAT:__tryblocktable$_PMCCS_Subtruct_X_L@16
	DD	2 DUP(00H)
	DD	00H
	DD	00H
__ehfuncinfo$_PMCCS_Subtruct_X_I@12 DD 019930522H
	DD	02H
	DD	FLAT:__unwindtable$_PMCCS_Subtruct_X_I@12
	DD	01H
	DD	FLAT:__tryblocktable$_PMCCS_Subtruct_X_I@12
	DD	2 DUP(00H)
	DD	00H
	DD	00H
__ehfuncinfo$_PMCCS_Subtruct_L_X@16 DD 019930522H
	DD	02H
	DD	FLAT:__unwindtable$_PMCCS_Subtruct_L_X@16
	DD	01H
	DD	FLAT:__tryblocktable$_PMCCS_Subtruct_L_X@16
	DD	2 DUP(00H)
	DD	00H
	DD	00H
__ehfuncinfo$_PMCCS_Subtruct_I_X@12 DD 019930522H
	DD	02H
	DD	FLAT:__unwindtable$_PMCCS_Subtruct_I_X@12
	DD	01H
	DD	FLAT:__tryblocktable$_PMCCS_Subtruct_I_X@12
	DD	2 DUP(00H)
	DD	00H
	DD	00H
__ehfuncinfo$_PMCCS_Add_X_X@12 DD 019930522H
	DD	02H
	DD	FLAT:__unwindtable$_PMCCS_Add_X_X@12
	DD	01H
	DD	FLAT:__tryblocktable$_PMCCS_Add_X_X@12
	DD	2 DUP(00H)
	DD	00H
	DD	00H
__ehfuncinfo$_PMCCS_Add_X_L@16 DD 019930522H
	DD	02H
	DD	FLAT:__unwindtable$_PMCCS_Add_X_L@16
	DD	01H
	DD	FLAT:__tryblocktable$_PMCCS_Add_X_L@16
	DD	2 DUP(00H)
	DD	00H
	DD	00H
__ehfuncinfo$_PMCCS_Add_X_I@12 DD 019930522H
	DD	02H
	DD	FLAT:__unwindtable$_PMCCS_Add_X_I@12
	DD	01H
	DD	FLAT:__tryblocktable$_PMCCS_Add_X_I@12
	DD	2 DUP(00H)
	DD	00H
	DD	00H
__ehfuncinfo$_PMCCS_Add_L_X@16 DD 019930522H
	DD	02H
	DD	FLAT:__unwindtable$_PMCCS_Add_L_X@16
	DD	01H
	DD	FLAT:__tryblocktable$_PMCCS_Add_L_X@16
	DD	2 DUP(00H)
	DD	00H
	DD	00H
__ehfuncinfo$_PMCCS_Add_I_X@12 DD 019930522H
	DD	02H
	DD	FLAT:__unwindtable$_PMCCS_Add_I_X@12
	DD	01H
	DD	FLAT:__tryblocktable$_PMCCS_Add_I_X@12
	DD	2 DUP(00H)
	DD	00H
	DD	00H
__ehfuncinfo$_PMCCS_TryParse@20 DD 019930522H
	DD	02H
	DD	FLAT:__unwindtable$_PMCCS_TryParse@20
	DD	01H
	DD	FLAT:__tryblocktable$_PMCCS_TryParse@20
	DD	2 DUP(00H)
	DD	00H
	DD	00H
__ehfuncinfo$_PMCCS_Parse@16 DD 019930522H
	DD	02H
	DD	FLAT:__unwindtable$_PMCCS_Parse@16
	DD	01H
	DD	FLAT:__tryblocktable$_PMCCS_Parse@16
	DD	2 DUP(00H)
	DD	00H
	DD	00H
__ehfuncinfo$_PMCCS_ToString@24 DD 019930522H
	DD	02H
	DD	FLAT:__unwindtable$_PMCCS_ToString@24
	DD	01H
	DD	FLAT:__tryblocktable$_PMCCS_ToString@24
	DD	2 DUP(00H)
	DD	00H
	DD	00H
__ehfuncinfo$_PMCCS_To_X_L@8 DD 019930522H
	DD	02H
	DD	FLAT:__unwindtable$_PMCCS_To_X_L@8
	DD	01H
	DD	FLAT:__tryblocktable$_PMCCS_To_X_L@8
	DD	2 DUP(00H)
	DD	00H
	DD	00H
__ehfuncinfo$_PMCCS_To_X_I@8 DD 019930522H
	DD	02H
	DD	FLAT:__unwindtable$_PMCCS_To_X_I@8
	DD	01H
	DD	FLAT:__tryblocktable$_PMCCS_To_X_I@8
	DD	2 DUP(00H)
	DD	00H
	DD	00H
__ehfuncinfo$_PMCCS_GetAllocatedMemorySize@4 DD 019930522H
	DD	02H
	DD	FLAT:__unwindtable$_PMCCS_GetAllocatedMemorySize@4
	DD	01H
	DD	FLAT:__tryblocktable$_PMCCS_GetAllocatedMemorySize@4
	DD	2 DUP(00H)
	DD	00H
	DD	00H
__ehfuncinfo$_PMCCS_Clone_X@8 DD 019930522H
	DD	02H
	DD	FLAT:__unwindtable$_PMCCS_Clone_X@8
	DD	01H
	DD	FLAT:__tryblocktable$_PMCCS_Clone_X@8
	DD	2 DUP(00H)
	DD	00H
	DD	00H
__ehfuncinfo$_PMCCS_ToByteArray@16 DD 019930522H
	DD	02H
	DD	FLAT:__unwindtable$_PMCCS_ToByteArray@16
	DD	01H
	DD	FLAT:__tryblocktable$_PMCCS_ToByteArray@16
	DD	2 DUP(00H)
	DD	00H
	DD	00H
__ehfuncinfo$_PMCCS_FromByteArray@12 DD 019930522H
	DD	02H
	DD	FLAT:__unwindtable$_PMCCS_FromByteArray@12
	DD	01H
	DD	FLAT:__tryblocktable$_PMCCS_FromByteArray@12
	DD	2 DUP(00H)
	DD	00H
	DD	00H
__ehfuncinfo$_PMCCS_GetConstantValue_I@8 DD 019930522H
	DD	02H
	DD	FLAT:__unwindtable$_PMCCS_GetConstantValue_I@8
	DD	01H
	DD	FLAT:__tryblocktable$_PMCCS_GetConstantValue_I@8
	DD	2 DUP(00H)
	DD	00H
	DD	00H
__ehfuncinfo$_PMCCS_Dispose@4 DD 019930522H
	DD	02H
	DD	FLAT:__unwindtable$_PMCCS_Dispose@4
	DD	01H
	DD	FLAT:__tryblocktable$_PMCCS_Dispose@4
	DD	2 DUP(00H)
	DD	00H
	DD	00H
__ehfuncinfo$_PMCCS_From_L@12 DD 019930522H
	DD	02H
	DD	FLAT:__unwindtable$_PMCCS_From_L@12
	DD	01H
	DD	FLAT:__tryblocktable$_PMCCS_From_L@12
	DD	2 DUP(00H)
	DD	00H
	DD	00H
__ehfuncinfo$_PMCCS_From_I@8 DD 019930522H
	DD	02H
	DD	FLAT:__unwindtable$_PMCCS_From_I@8
	DD	01H
	DD	FLAT:__tryblocktable$_PMCCS_From_I@8
	DD	2 DUP(00H)
	DD	00H
	DD	00H
__ehfuncinfo$_PMCCS_GET_HASH_CODE@8 DD 019930522H
	DD	02H
	DD	FLAT:__unwindtable$_PMCCS_GET_HASH_CODE@8
	DD	01H
	DD	FLAT:__tryblocktable$_PMCCS_GET_HASH_CODE@8
	DD	2 DUP(00H)
	DD	00H
	DD	00H
__ehfuncinfo$_PMCCS_IS_ZERO@8 DD 019930522H
	DD	02H
	DD	FLAT:__unwindtable$_PMCCS_IS_ZERO@8
	DD	01H
	DD	FLAT:__tryblocktable$_PMCCS_IS_ZERO@8
	DD	2 DUP(00H)
	DD	00H
	DD	00H
__ehfuncinfo$_PMCCS_IS_POWER_OF_TWO@8 DD 019930522H
	DD	02H
	DD	FLAT:__unwindtable$_PMCCS_IS_POWER_OF_TWO@8
	DD	01H
	DD	FLAT:__tryblocktable$_PMCCS_IS_POWER_OF_TWO@8
	DD	2 DUP(00H)
	DD	00H
	DD	00H
__ehfuncinfo$_PMCCS_IS_ONE@8 DD 019930522H
	DD	02H
	DD	FLAT:__unwindtable$_PMCCS_IS_ONE@8
	DD	01H
	DD	FLAT:__tryblocktable$_PMCCS_IS_ONE@8
	DD	2 DUP(00H)
	DD	00H
	DD	00H
__ehfuncinfo$_PMCCS_IS_EVEN@8 DD 019930522H
	DD	02H
	DD	FLAT:__unwindtable$_PMCCS_IS_EVEN@8
	DD	01H
	DD	FLAT:__tryblocktable$_PMCCS_IS_EVEN@8
	DD	2 DUP(00H)
	DD	00H
	DD	00H
xdata$x	ENDS
;	COMDAT xdata$x
xdata$x	SEGMENT
__ehfuncinfo$?GetStatusCode@Exception@Internal@Core@Math@Palmtree@@QBEHXZ DD 019930522H
	DD	00H
	DD	00H
	DD	2 DUP(00H)
	DD	2 DUP(00H)
	DD	00H
	DD	04H
xdata$x	ENDS
; Function compile flags: /Odt
;	COMDAT __JustMyCode_Default
_TEXT	SEGMENT
__JustMyCode_Default PROC				; COMDAT
  00000	55		 push	 ebp
  00001	8b ec		 mov	 ebp, esp
  00003	5d		 pop	 ebp
  00004	c3		 ret	 0
__JustMyCode_Default ENDP
_TEXT	ENDS
; Function compile flags: /Odtp /RTCsu
; File z:\sources\lunor\repos\rougemeilland\palmtree.math.core.uint\palmtree.math.core.uint\pmc_interface_csharp.cpp
_TEXT	SEGMENT
$T2 = -32						; size = 4
_ex$3 = -24						; size = 4
__$EHRec$ = -16						; size = 16
_v$ = 8							; size = 4
_r$ = 12						; size = 4
_PMCCS_Floor_Log10@8 PROC

; 1286 :     {

  00000	55		 push	 ebp
  00001	8b ec		 mov	 ebp, esp
  00003	6a ff		 push	 -1
  00005	68 00 00 00 00	 push	 __ehhandler$_PMCCS_Floor_Log10@8
  0000a	64 a1 00 00 00
	00		 mov	 eax, DWORD PTR fs:0
  00010	50		 push	 eax
  00011	51		 push	 ecx
  00012	83 ec 10	 sub	 esp, 16			; 00000010H
  00015	53		 push	 ebx
  00016	56		 push	 esi
  00017	57		 push	 edi
  00018	b8 cc cc cc cc	 mov	 eax, -858993460		; ccccccccH
  0001d	89 45 e0	 mov	 DWORD PTR [ebp-32], eax
  00020	89 45 e4	 mov	 DWORD PTR [ebp-28], eax
  00023	89 45 e8	 mov	 DWORD PTR [ebp-24], eax
  00026	89 45 ec	 mov	 DWORD PTR [ebp-20], eax
  00029	a1 00 00 00 00	 mov	 eax, DWORD PTR ___security_cookie
  0002e	33 c5		 xor	 eax, ebp
  00030	50		 push	 eax
  00031	8d 45 f4	 lea	 eax, DWORD PTR __$EHRec$[ebp+4]
  00034	64 a3 00 00 00
	00		 mov	 DWORD PTR fs:0, eax
  0003a	89 65 f0	 mov	 DWORD PTR __$EHRec$[ebp], esp
  0003d	b9 00 00 00 00	 mov	 ecx, OFFSET __C21BA676_pmc_interface_csharp@cpp
  00042	e8 00 00 00 00	 call	 @__CheckForDebuggerJustMyCode@4

; 1287 :         if (r == nullptr)

  00047	83 7d 0c 00	 cmp	 DWORD PTR _r$[ebp], 0
  0004b	75 07		 jne	 SHORT $LN2@PMCCS_Floo

; 1288 :             return (PMC_STATUS_ARGUMENT_NULL_ERROR);

  0004d	b8 fe ff ff ff	 mov	 eax, -2			; fffffffeH
  00052	eb 43		 jmp	 SHORT $LN1@PMCCS_Floo
$LN2@PMCCS_Floo:

; 1289 :         try

  00054	c7 45 fc 00 00
	00 00		 mov	 DWORD PTR __$EHRec$[ebp+12], 0

; 1290 :         {
; 1291 :             *r = PMC_Floor_Log10(v);

  0005b	8b 45 08	 mov	 eax, DWORD PTR _v$[ebp]
  0005e	50		 push	 eax
  0005f	e8 00 00 00 00	 call	 ?PMC_Floor_Log10@Internal@Core@Math@Palmtree@@YGIPAU__tag_PMC_HANDLE_UINT@1234@@Z ; Palmtree::Math::Core::Internal::PMC_Floor_Log10
  00064	8b 4d 0c	 mov	 ecx, DWORD PTR _r$[ebp]
  00067	89 01		 mov	 DWORD PTR [ecx], eax

; 1292 :             return (PMC_STATUS_OK);

  00069	33 c0		 xor	 eax, eax
  0006b	eb 2a		 jmp	 SHORT $LN1@PMCCS_Floo
__catch$_PMCCS_Floor_Log10@8$0:

; 1293 :         }
; 1294 :         catch (const Palmtree::Math::Core::Internal::Exception& ex)
; 1295 :         {
; 1296 :             return (ex.GetStatusCode());

  0006d	8b 4d e8	 mov	 ecx, DWORD PTR _ex$3[ebp]
  00070	e8 00 00 00 00	 call	 ?GetStatusCode@Exception@Internal@Core@Math@Palmtree@@QBEHXZ ; Palmtree::Math::Core::Internal::Exception::GetStatusCode
  00075	89 45 e0	 mov	 DWORD PTR $T2[ebp], eax
  00078	b8 00 00 00 00	 mov	 eax, $LN8@PMCCS_Floo
  0007d	c3		 ret	 0

; 1297 :         }

  0007e	b8 00 00 00 00	 mov	 eax, __tryend$_PMCCS_Floor_Log10@8$1
  00083	c3		 ret	 0
__tryend$_PMCCS_Floor_Log10@8$1:
  00084	c7 45 fc ff ff
	ff ff		 mov	 DWORD PTR __$EHRec$[ebp+12], -1
  0008b	eb 0a		 jmp	 SHORT $LN1@PMCCS_Floo
$LN8@PMCCS_Floo:
  0008d	c7 45 fc ff ff
	ff ff		 mov	 DWORD PTR __$EHRec$[ebp+12], -1

; 1293 :         }
; 1294 :         catch (const Palmtree::Math::Core::Internal::Exception& ex)
; 1295 :         {
; 1296 :             return (ex.GetStatusCode());

  00094	8b 45 e0	 mov	 eax, DWORD PTR $T2[ebp]
$LN1@PMCCS_Floo:

; 1298 :     }

  00097	52		 push	 edx
  00098	8b cd		 mov	 ecx, ebp
  0009a	50		 push	 eax
  0009b	8d 15 00 00 00
	00		 lea	 edx, DWORD PTR $LN12@PMCCS_Floo
  000a1	e8 00 00 00 00	 call	 @_RTC_CheckStackVars@8
  000a6	58		 pop	 eax
  000a7	5a		 pop	 edx
  000a8	8b 4d f4	 mov	 ecx, DWORD PTR __$EHRec$[ebp+4]
  000ab	64 89 0d 00 00
	00 00		 mov	 DWORD PTR fs:0, ecx
  000b2	59		 pop	 ecx
  000b3	5f		 pop	 edi
  000b4	5e		 pop	 esi
  000b5	5b		 pop	 ebx
  000b6	83 c4 20	 add	 esp, 32			; 00000020H
  000b9	3b ec		 cmp	 ebp, esp
  000bb	e8 00 00 00 00	 call	 __RTC_CheckEsp
  000c0	8b e5		 mov	 esp, ebp
  000c2	5d		 pop	 ebp
  000c3	c2 08 00	 ret	 8
  000c6	66 90		 npad	 2
$LN12@PMCCS_Floo:
  000c8	01 00 00 00	 DD	 1
  000cc	00 00 00 00	 DD	 $LN11@PMCCS_Floo
$LN11@PMCCS_Floo:
  000d0	e8 ff ff ff	 DD	 -24			; ffffffe8H
  000d4	04 00 00 00	 DD	 4
  000d8	00 00 00 00	 DD	 $LN9@PMCCS_Floo
$LN9@PMCCS_Floo:
  000dc	65		 DB	 101			; 00000065H
  000dd	78		 DB	 120			; 00000078H
  000de	00		 DB	 0
_TEXT	ENDS
text$x	SEGMENT
__ehhandler$_PMCCS_Floor_Log10@8:
  00000	8b 54 24 08	 mov	 edx, DWORD PTR [esp+8]
  00004	8d 42 0c	 lea	 eax, DWORD PTR [edx+12]
  00007	8b 4a dc	 mov	 ecx, DWORD PTR [edx-36]
  0000a	33 c8		 xor	 ecx, eax
  0000c	e8 00 00 00 00	 call	 @__security_check_cookie@4
  00011	b8 00 00 00 00	 mov	 eax, OFFSET __ehfuncinfo$_PMCCS_Floor_Log10@8
  00016	e9 00 00 00 00	 jmp	 ___CxxFrameHandler3
text$x	ENDS
_PMCCS_Floor_Log10@8 ENDP
; Function compile flags: /Odtp /RTCsu
; File z:\sources\lunor\repos\rougemeilland\palmtree.math.core.uint\palmtree.math.core.uint\pmc_interface_csharp.cpp
_TEXT	SEGMENT
$T2 = -32						; size = 4
_ex$3 = -24						; size = 4
__$EHRec$ = -16						; size = 16
_v$ = 8							; size = 4
_e$ = 12						; size = 4
_r$ = 16						; size = 4
_PMCCS_TimesOfExponentOf10@12 PROC

; 1271 :     {

  00000	55		 push	 ebp
  00001	8b ec		 mov	 ebp, esp
  00003	6a ff		 push	 -1
  00005	68 00 00 00 00	 push	 __ehhandler$_PMCCS_TimesOfExponentOf10@12
  0000a	64 a1 00 00 00
	00		 mov	 eax, DWORD PTR fs:0
  00010	50		 push	 eax
  00011	51		 push	 ecx
  00012	83 ec 10	 sub	 esp, 16			; 00000010H
  00015	53		 push	 ebx
  00016	56		 push	 esi
  00017	57		 push	 edi
  00018	b8 cc cc cc cc	 mov	 eax, -858993460		; ccccccccH
  0001d	89 45 e0	 mov	 DWORD PTR [ebp-32], eax
  00020	89 45 e4	 mov	 DWORD PTR [ebp-28], eax
  00023	89 45 e8	 mov	 DWORD PTR [ebp-24], eax
  00026	89 45 ec	 mov	 DWORD PTR [ebp-20], eax
  00029	a1 00 00 00 00	 mov	 eax, DWORD PTR ___security_cookie
  0002e	33 c5		 xor	 eax, ebp
  00030	50		 push	 eax
  00031	8d 45 f4	 lea	 eax, DWORD PTR __$EHRec$[ebp+4]
  00034	64 a3 00 00 00
	00		 mov	 DWORD PTR fs:0, eax
  0003a	89 65 f0	 mov	 DWORD PTR __$EHRec$[ebp], esp
  0003d	b9 00 00 00 00	 mov	 ecx, OFFSET __C21BA676_pmc_interface_csharp@cpp
  00042	e8 00 00 00 00	 call	 @__CheckForDebuggerJustMyCode@4

; 1272 :         if (r == nullptr)

  00047	83 7d 10 00	 cmp	 DWORD PTR _r$[ebp], 0
  0004b	75 07		 jne	 SHORT $LN2@PMCCS_Time

; 1273 :             return (PMC_STATUS_ARGUMENT_NULL_ERROR);

  0004d	b8 fe ff ff ff	 mov	 eax, -2			; fffffffeH
  00052	eb 47		 jmp	 SHORT $LN1@PMCCS_Time
$LN2@PMCCS_Time:

; 1274 :         try

  00054	c7 45 fc 00 00
	00 00		 mov	 DWORD PTR __$EHRec$[ebp+12], 0

; 1275 :         {
; 1276 :             *r = PMC_TimesOfExponentOf10(v, e);

  0005b	8b 45 0c	 mov	 eax, DWORD PTR _e$[ebp]
  0005e	50		 push	 eax
  0005f	8b 4d 08	 mov	 ecx, DWORD PTR _v$[ebp]
  00062	51		 push	 ecx
  00063	e8 00 00 00 00	 call	 ?PMC_TimesOfExponentOf10@Internal@Core@Math@Palmtree@@YGPAU__tag_PMC_HANDLE_UINT@1234@II@Z ; Palmtree::Math::Core::Internal::PMC_TimesOfExponentOf10
  00068	8b 55 10	 mov	 edx, DWORD PTR _r$[ebp]
  0006b	89 02		 mov	 DWORD PTR [edx], eax

; 1277 :             return (PMC_STATUS_OK);

  0006d	33 c0		 xor	 eax, eax
  0006f	eb 2a		 jmp	 SHORT $LN1@PMCCS_Time
__catch$_PMCCS_TimesOfExponentOf10@12$0:

; 1278 :         }
; 1279 :         catch (const Palmtree::Math::Core::Internal::Exception& ex)
; 1280 :         {
; 1281 :             return (ex.GetStatusCode());

  00071	8b 4d e8	 mov	 ecx, DWORD PTR _ex$3[ebp]
  00074	e8 00 00 00 00	 call	 ?GetStatusCode@Exception@Internal@Core@Math@Palmtree@@QBEHXZ ; Palmtree::Math::Core::Internal::Exception::GetStatusCode
  00079	89 45 e0	 mov	 DWORD PTR $T2[ebp], eax
  0007c	b8 00 00 00 00	 mov	 eax, $LN8@PMCCS_Time
  00081	c3		 ret	 0

; 1282 :         }

  00082	b8 00 00 00 00	 mov	 eax, __tryend$_PMCCS_TimesOfExponentOf10@12$1
  00087	c3		 ret	 0
__tryend$_PMCCS_TimesOfExponentOf10@12$1:
  00088	c7 45 fc ff ff
	ff ff		 mov	 DWORD PTR __$EHRec$[ebp+12], -1
  0008f	eb 0a		 jmp	 SHORT $LN1@PMCCS_Time
$LN8@PMCCS_Time:
  00091	c7 45 fc ff ff
	ff ff		 mov	 DWORD PTR __$EHRec$[ebp+12], -1

; 1278 :         }
; 1279 :         catch (const Palmtree::Math::Core::Internal::Exception& ex)
; 1280 :         {
; 1281 :             return (ex.GetStatusCode());

  00098	8b 45 e0	 mov	 eax, DWORD PTR $T2[ebp]
$LN1@PMCCS_Time:

; 1283 :     }

  0009b	52		 push	 edx
  0009c	8b cd		 mov	 ecx, ebp
  0009e	50		 push	 eax
  0009f	8d 15 00 00 00
	00		 lea	 edx, DWORD PTR $LN12@PMCCS_Time
  000a5	e8 00 00 00 00	 call	 @_RTC_CheckStackVars@8
  000aa	58		 pop	 eax
  000ab	5a		 pop	 edx
  000ac	8b 4d f4	 mov	 ecx, DWORD PTR __$EHRec$[ebp+4]
  000af	64 89 0d 00 00
	00 00		 mov	 DWORD PTR fs:0, ecx
  000b6	59		 pop	 ecx
  000b7	5f		 pop	 edi
  000b8	5e		 pop	 esi
  000b9	5b		 pop	 ebx
  000ba	83 c4 20	 add	 esp, 32			; 00000020H
  000bd	3b ec		 cmp	 ebp, esp
  000bf	e8 00 00 00 00	 call	 __RTC_CheckEsp
  000c4	8b e5		 mov	 esp, ebp
  000c6	5d		 pop	 ebp
  000c7	c2 0c 00	 ret	 12			; 0000000cH
  000ca	66 90		 npad	 2
$LN12@PMCCS_Time:
  000cc	01 00 00 00	 DD	 1
  000d0	00 00 00 00	 DD	 $LN11@PMCCS_Time
$LN11@PMCCS_Time:
  000d4	e8 ff ff ff	 DD	 -24			; ffffffe8H
  000d8	04 00 00 00	 DD	 4
  000dc	00 00 00 00	 DD	 $LN9@PMCCS_Time
$LN9@PMCCS_Time:
  000e0	65		 DB	 101			; 00000065H
  000e1	78		 DB	 120			; 00000078H
  000e2	00		 DB	 0
_TEXT	ENDS
text$x	SEGMENT
__ehhandler$_PMCCS_TimesOfExponentOf10@12:
  00000	8b 54 24 08	 mov	 edx, DWORD PTR [esp+8]
  00004	8d 42 0c	 lea	 eax, DWORD PTR [edx+12]
  00007	8b 4a dc	 mov	 ecx, DWORD PTR [edx-36]
  0000a	33 c8		 xor	 ecx, eax
  0000c	e8 00 00 00 00	 call	 @__security_check_cookie@4
  00011	b8 00 00 00 00	 mov	 eax, OFFSET __ehfuncinfo$_PMCCS_TimesOfExponentOf10@12
  00016	e9 00 00 00 00	 jmp	 ___CxxFrameHandler3
text$x	ENDS
_PMCCS_TimesOfExponentOf10@12 ENDP
; Function compile flags: /Odtp /RTCsu
; File z:\sources\lunor\repos\rougemeilland\palmtree.math.core.uint\palmtree.math.core.uint\pmc_interface_csharp.cpp
_TEXT	SEGMENT
$T2 = -32						; size = 4
_ex$3 = -24						; size = 4
__$EHRec$ = -16						; size = 16
_v$ = 8							; size = 4
_e$ = 12						; size = 4
_m$ = 16						; size = 4
_r$ = 20						; size = 4
_PMCCS_ModPow_X_X_X@16 PROC

; 1256 :     {

  00000	55		 push	 ebp
  00001	8b ec		 mov	 ebp, esp
  00003	6a ff		 push	 -1
  00005	68 00 00 00 00	 push	 __ehhandler$_PMCCS_ModPow_X_X_X@16
  0000a	64 a1 00 00 00
	00		 mov	 eax, DWORD PTR fs:0
  00010	50		 push	 eax
  00011	51		 push	 ecx
  00012	83 ec 10	 sub	 esp, 16			; 00000010H
  00015	53		 push	 ebx
  00016	56		 push	 esi
  00017	57		 push	 edi
  00018	b8 cc cc cc cc	 mov	 eax, -858993460		; ccccccccH
  0001d	89 45 e0	 mov	 DWORD PTR [ebp-32], eax
  00020	89 45 e4	 mov	 DWORD PTR [ebp-28], eax
  00023	89 45 e8	 mov	 DWORD PTR [ebp-24], eax
  00026	89 45 ec	 mov	 DWORD PTR [ebp-20], eax
  00029	a1 00 00 00 00	 mov	 eax, DWORD PTR ___security_cookie
  0002e	33 c5		 xor	 eax, ebp
  00030	50		 push	 eax
  00031	8d 45 f4	 lea	 eax, DWORD PTR __$EHRec$[ebp+4]
  00034	64 a3 00 00 00
	00		 mov	 DWORD PTR fs:0, eax
  0003a	89 65 f0	 mov	 DWORD PTR __$EHRec$[ebp], esp
  0003d	b9 00 00 00 00	 mov	 ecx, OFFSET __C21BA676_pmc_interface_csharp@cpp
  00042	e8 00 00 00 00	 call	 @__CheckForDebuggerJustMyCode@4

; 1257 :         if (r == nullptr)

  00047	83 7d 14 00	 cmp	 DWORD PTR _r$[ebp], 0
  0004b	75 07		 jne	 SHORT $LN2@PMCCS_ModP

; 1258 :             return (PMC_STATUS_ARGUMENT_NULL_ERROR);

  0004d	b8 fe ff ff ff	 mov	 eax, -2			; fffffffeH
  00052	eb 4b		 jmp	 SHORT $LN1@PMCCS_ModP
$LN2@PMCCS_ModP:

; 1259 :         try

  00054	c7 45 fc 00 00
	00 00		 mov	 DWORD PTR __$EHRec$[ebp+12], 0

; 1260 :         {
; 1261 :             *r = PMC_ModPow_X_X_X(v, e, m);

  0005b	8b 45 10	 mov	 eax, DWORD PTR _m$[ebp]
  0005e	50		 push	 eax
  0005f	8b 4d 0c	 mov	 ecx, DWORD PTR _e$[ebp]
  00062	51		 push	 ecx
  00063	8b 55 08	 mov	 edx, DWORD PTR _v$[ebp]
  00066	52		 push	 edx
  00067	e8 00 00 00 00	 call	 ?PMC_ModPow_X_X_X@Internal@Core@Math@Palmtree@@YGPAU__tag_PMC_HANDLE_UINT@1234@PAU51234@00@Z ; Palmtree::Math::Core::Internal::PMC_ModPow_X_X_X
  0006c	8b 4d 14	 mov	 ecx, DWORD PTR _r$[ebp]
  0006f	89 01		 mov	 DWORD PTR [ecx], eax

; 1262 :             return (PMC_STATUS_OK);

  00071	33 c0		 xor	 eax, eax
  00073	eb 2a		 jmp	 SHORT $LN1@PMCCS_ModP
__catch$_PMCCS_ModPow_X_X_X@16$0:

; 1263 :         }
; 1264 :         catch (const Palmtree::Math::Core::Internal::Exception& ex)
; 1265 :         {
; 1266 :             return (ex.GetStatusCode());

  00075	8b 4d e8	 mov	 ecx, DWORD PTR _ex$3[ebp]
  00078	e8 00 00 00 00	 call	 ?GetStatusCode@Exception@Internal@Core@Math@Palmtree@@QBEHXZ ; Palmtree::Math::Core::Internal::Exception::GetStatusCode
  0007d	89 45 e0	 mov	 DWORD PTR $T2[ebp], eax
  00080	b8 00 00 00 00	 mov	 eax, $LN8@PMCCS_ModP
  00085	c3		 ret	 0

; 1267 :         }

  00086	b8 00 00 00 00	 mov	 eax, __tryend$_PMCCS_ModPow_X_X_X@16$1
  0008b	c3		 ret	 0
__tryend$_PMCCS_ModPow_X_X_X@16$1:
  0008c	c7 45 fc ff ff
	ff ff		 mov	 DWORD PTR __$EHRec$[ebp+12], -1
  00093	eb 0a		 jmp	 SHORT $LN1@PMCCS_ModP
$LN8@PMCCS_ModP:
  00095	c7 45 fc ff ff
	ff ff		 mov	 DWORD PTR __$EHRec$[ebp+12], -1

; 1263 :         }
; 1264 :         catch (const Palmtree::Math::Core::Internal::Exception& ex)
; 1265 :         {
; 1266 :             return (ex.GetStatusCode());

  0009c	8b 45 e0	 mov	 eax, DWORD PTR $T2[ebp]
$LN1@PMCCS_ModP:

; 1268 :     }

  0009f	52		 push	 edx
  000a0	8b cd		 mov	 ecx, ebp
  000a2	50		 push	 eax
  000a3	8d 15 00 00 00
	00		 lea	 edx, DWORD PTR $LN12@PMCCS_ModP
  000a9	e8 00 00 00 00	 call	 @_RTC_CheckStackVars@8
  000ae	58		 pop	 eax
  000af	5a		 pop	 edx
  000b0	8b 4d f4	 mov	 ecx, DWORD PTR __$EHRec$[ebp+4]
  000b3	64 89 0d 00 00
	00 00		 mov	 DWORD PTR fs:0, ecx
  000ba	59		 pop	 ecx
  000bb	5f		 pop	 edi
  000bc	5e		 pop	 esi
  000bd	5b		 pop	 ebx
  000be	83 c4 20	 add	 esp, 32			; 00000020H
  000c1	3b ec		 cmp	 ebp, esp
  000c3	e8 00 00 00 00	 call	 __RTC_CheckEsp
  000c8	8b e5		 mov	 esp, ebp
  000ca	5d		 pop	 ebp
  000cb	c2 10 00	 ret	 16			; 00000010H
  000ce	66 90		 npad	 2
$LN12@PMCCS_ModP:
  000d0	01 00 00 00	 DD	 1
  000d4	00 00 00 00	 DD	 $LN11@PMCCS_ModP
$LN11@PMCCS_ModP:
  000d8	e8 ff ff ff	 DD	 -24			; ffffffe8H
  000dc	04 00 00 00	 DD	 4
  000e0	00 00 00 00	 DD	 $LN9@PMCCS_ModP
$LN9@PMCCS_ModP:
  000e4	65		 DB	 101			; 00000065H
  000e5	78		 DB	 120			; 00000078H
  000e6	00		 DB	 0
_TEXT	ENDS
text$x	SEGMENT
__ehhandler$_PMCCS_ModPow_X_X_X@16:
  00000	8b 54 24 08	 mov	 edx, DWORD PTR [esp+8]
  00004	8d 42 0c	 lea	 eax, DWORD PTR [edx+12]
  00007	8b 4a dc	 mov	 ecx, DWORD PTR [edx-36]
  0000a	33 c8		 xor	 ecx, eax
  0000c	e8 00 00 00 00	 call	 @__security_check_cookie@4
  00011	b8 00 00 00 00	 mov	 eax, OFFSET __ehfuncinfo$_PMCCS_ModPow_X_X_X@16
  00016	e9 00 00 00 00	 jmp	 ___CxxFrameHandler3
text$x	ENDS
_PMCCS_ModPow_X_X_X@16 ENDP
; Function compile flags: /Odtp /RTCsu
; File z:\sources\lunor\repos\rougemeilland\palmtree.math.core.uint\palmtree.math.core.uint\pmc_interface_csharp.cpp
_TEXT	SEGMENT
$T2 = -32						; size = 4
_ex$3 = -24						; size = 4
__$EHRec$ = -16						; size = 16
_x$ = 8							; size = 4
_n$ = 12						; size = 8
_v$ = 20						; size = 4
_PMCCS_Pow_X_L@16 PROC

; 1241 :     {

  00000	55		 push	 ebp
  00001	8b ec		 mov	 ebp, esp
  00003	6a ff		 push	 -1
  00005	68 00 00 00 00	 push	 __ehhandler$_PMCCS_Pow_X_L@16
  0000a	64 a1 00 00 00
	00		 mov	 eax, DWORD PTR fs:0
  00010	50		 push	 eax
  00011	51		 push	 ecx
  00012	83 ec 10	 sub	 esp, 16			; 00000010H
  00015	53		 push	 ebx
  00016	56		 push	 esi
  00017	57		 push	 edi
  00018	b8 cc cc cc cc	 mov	 eax, -858993460		; ccccccccH
  0001d	89 45 e0	 mov	 DWORD PTR [ebp-32], eax
  00020	89 45 e4	 mov	 DWORD PTR [ebp-28], eax
  00023	89 45 e8	 mov	 DWORD PTR [ebp-24], eax
  00026	89 45 ec	 mov	 DWORD PTR [ebp-20], eax
  00029	a1 00 00 00 00	 mov	 eax, DWORD PTR ___security_cookie
  0002e	33 c5		 xor	 eax, ebp
  00030	50		 push	 eax
  00031	8d 45 f4	 lea	 eax, DWORD PTR __$EHRec$[ebp+4]
  00034	64 a3 00 00 00
	00		 mov	 DWORD PTR fs:0, eax
  0003a	89 65 f0	 mov	 DWORD PTR __$EHRec$[ebp], esp
  0003d	b9 00 00 00 00	 mov	 ecx, OFFSET __C21BA676_pmc_interface_csharp@cpp
  00042	e8 00 00 00 00	 call	 @__CheckForDebuggerJustMyCode@4

; 1242 :         if (v == nullptr)

  00047	83 7d 14 00	 cmp	 DWORD PTR _v$[ebp], 0
  0004b	75 07		 jne	 SHORT $LN2@PMCCS_Pow_

; 1243 :             return (PMC_STATUS_ARGUMENT_NULL_ERROR);

  0004d	b8 fe ff ff ff	 mov	 eax, -2			; fffffffeH
  00052	eb 4b		 jmp	 SHORT $LN1@PMCCS_Pow_
$LN2@PMCCS_Pow_:

; 1244 :         try

  00054	c7 45 fc 00 00
	00 00		 mov	 DWORD PTR __$EHRec$[ebp+12], 0

; 1245 :         {
; 1246 :             *v = PMC_Pow_X_L(x, n);

  0005b	8b 45 10	 mov	 eax, DWORD PTR _n$[ebp+4]
  0005e	50		 push	 eax
  0005f	8b 4d 0c	 mov	 ecx, DWORD PTR _n$[ebp]
  00062	51		 push	 ecx
  00063	8b 55 08	 mov	 edx, DWORD PTR _x$[ebp]
  00066	52		 push	 edx
  00067	e8 00 00 00 00	 call	 ?PMC_Pow_X_L@Internal@Core@Math@Palmtree@@YGPAU__tag_PMC_HANDLE_UINT@1234@PAU51234@_K@Z ; Palmtree::Math::Core::Internal::PMC_Pow_X_L
  0006c	8b 4d 14	 mov	 ecx, DWORD PTR _v$[ebp]
  0006f	89 01		 mov	 DWORD PTR [ecx], eax

; 1247 :             return (PMC_STATUS_OK);

  00071	33 c0		 xor	 eax, eax
  00073	eb 2a		 jmp	 SHORT $LN1@PMCCS_Pow_
__catch$_PMCCS_Pow_X_L@16$0:

; 1248 :         }
; 1249 :         catch (const Palmtree::Math::Core::Internal::Exception& ex)
; 1250 :         {
; 1251 :             return (ex.GetStatusCode());

  00075	8b 4d e8	 mov	 ecx, DWORD PTR _ex$3[ebp]
  00078	e8 00 00 00 00	 call	 ?GetStatusCode@Exception@Internal@Core@Math@Palmtree@@QBEHXZ ; Palmtree::Math::Core::Internal::Exception::GetStatusCode
  0007d	89 45 e0	 mov	 DWORD PTR $T2[ebp], eax
  00080	b8 00 00 00 00	 mov	 eax, $LN8@PMCCS_Pow_
  00085	c3		 ret	 0

; 1252 :         }

  00086	b8 00 00 00 00	 mov	 eax, __tryend$_PMCCS_Pow_X_L@16$1
  0008b	c3		 ret	 0
__tryend$_PMCCS_Pow_X_L@16$1:
  0008c	c7 45 fc ff ff
	ff ff		 mov	 DWORD PTR __$EHRec$[ebp+12], -1
  00093	eb 0a		 jmp	 SHORT $LN1@PMCCS_Pow_
$LN8@PMCCS_Pow_:
  00095	c7 45 fc ff ff
	ff ff		 mov	 DWORD PTR __$EHRec$[ebp+12], -1

; 1248 :         }
; 1249 :         catch (const Palmtree::Math::Core::Internal::Exception& ex)
; 1250 :         {
; 1251 :             return (ex.GetStatusCode());

  0009c	8b 45 e0	 mov	 eax, DWORD PTR $T2[ebp]
$LN1@PMCCS_Pow_:

; 1253 :     }

  0009f	52		 push	 edx
  000a0	8b cd		 mov	 ecx, ebp
  000a2	50		 push	 eax
  000a3	8d 15 00 00 00
	00		 lea	 edx, DWORD PTR $LN12@PMCCS_Pow_
  000a9	e8 00 00 00 00	 call	 @_RTC_CheckStackVars@8
  000ae	58		 pop	 eax
  000af	5a		 pop	 edx
  000b0	8b 4d f4	 mov	 ecx, DWORD PTR __$EHRec$[ebp+4]
  000b3	64 89 0d 00 00
	00 00		 mov	 DWORD PTR fs:0, ecx
  000ba	59		 pop	 ecx
  000bb	5f		 pop	 edi
  000bc	5e		 pop	 esi
  000bd	5b		 pop	 ebx
  000be	83 c4 20	 add	 esp, 32			; 00000020H
  000c1	3b ec		 cmp	 ebp, esp
  000c3	e8 00 00 00 00	 call	 __RTC_CheckEsp
  000c8	8b e5		 mov	 esp, ebp
  000ca	5d		 pop	 ebp
  000cb	c2 10 00	 ret	 16			; 00000010H
  000ce	66 90		 npad	 2
$LN12@PMCCS_Pow_:
  000d0	01 00 00 00	 DD	 1
  000d4	00 00 00 00	 DD	 $LN11@PMCCS_Pow_
$LN11@PMCCS_Pow_:
  000d8	e8 ff ff ff	 DD	 -24			; ffffffe8H
  000dc	04 00 00 00	 DD	 4
  000e0	00 00 00 00	 DD	 $LN9@PMCCS_Pow_
$LN9@PMCCS_Pow_:
  000e4	65		 DB	 101			; 00000065H
  000e5	78		 DB	 120			; 00000078H
  000e6	00		 DB	 0
_TEXT	ENDS
text$x	SEGMENT
__ehhandler$_PMCCS_Pow_X_L@16:
  00000	8b 54 24 08	 mov	 edx, DWORD PTR [esp+8]
  00004	8d 42 0c	 lea	 eax, DWORD PTR [edx+12]
  00007	8b 4a dc	 mov	 ecx, DWORD PTR [edx-36]
  0000a	33 c8		 xor	 ecx, eax
  0000c	e8 00 00 00 00	 call	 @__security_check_cookie@4
  00011	b8 00 00 00 00	 mov	 eax, OFFSET __ehfuncinfo$_PMCCS_Pow_X_L@16
  00016	e9 00 00 00 00	 jmp	 ___CxxFrameHandler3
text$x	ENDS
_PMCCS_Pow_X_L@16 ENDP
; Function compile flags: /Odtp /RTCsu
; File z:\sources\lunor\repos\rougemeilland\palmtree.math.core.uint\palmtree.math.core.uint\pmc_interface_csharp.cpp
_TEXT	SEGMENT
$T2 = -32						; size = 4
_ex$3 = -24						; size = 4
__$EHRec$ = -16						; size = 16
_x$ = 8							; size = 4
_n$ = 12						; size = 4
_v$ = 16						; size = 4
_PMCCS_Pow_X_I@12 PROC

; 1226 :     {

  00000	55		 push	 ebp
  00001	8b ec		 mov	 ebp, esp
  00003	6a ff		 push	 -1
  00005	68 00 00 00 00	 push	 __ehhandler$_PMCCS_Pow_X_I@12
  0000a	64 a1 00 00 00
	00		 mov	 eax, DWORD PTR fs:0
  00010	50		 push	 eax
  00011	51		 push	 ecx
  00012	83 ec 10	 sub	 esp, 16			; 00000010H
  00015	53		 push	 ebx
  00016	56		 push	 esi
  00017	57		 push	 edi
  00018	b8 cc cc cc cc	 mov	 eax, -858993460		; ccccccccH
  0001d	89 45 e0	 mov	 DWORD PTR [ebp-32], eax
  00020	89 45 e4	 mov	 DWORD PTR [ebp-28], eax
  00023	89 45 e8	 mov	 DWORD PTR [ebp-24], eax
  00026	89 45 ec	 mov	 DWORD PTR [ebp-20], eax
  00029	a1 00 00 00 00	 mov	 eax, DWORD PTR ___security_cookie
  0002e	33 c5		 xor	 eax, ebp
  00030	50		 push	 eax
  00031	8d 45 f4	 lea	 eax, DWORD PTR __$EHRec$[ebp+4]
  00034	64 a3 00 00 00
	00		 mov	 DWORD PTR fs:0, eax
  0003a	89 65 f0	 mov	 DWORD PTR __$EHRec$[ebp], esp
  0003d	b9 00 00 00 00	 mov	 ecx, OFFSET __C21BA676_pmc_interface_csharp@cpp
  00042	e8 00 00 00 00	 call	 @__CheckForDebuggerJustMyCode@4

; 1227 :         if (v == nullptr)

  00047	83 7d 10 00	 cmp	 DWORD PTR _v$[ebp], 0
  0004b	75 07		 jne	 SHORT $LN2@PMCCS_Pow_

; 1228 :             return (PMC_STATUS_ARGUMENT_NULL_ERROR);

  0004d	b8 fe ff ff ff	 mov	 eax, -2			; fffffffeH
  00052	eb 47		 jmp	 SHORT $LN1@PMCCS_Pow_
$LN2@PMCCS_Pow_:

; 1229 :         try

  00054	c7 45 fc 00 00
	00 00		 mov	 DWORD PTR __$EHRec$[ebp+12], 0

; 1230 :         {
; 1231 :             *v = PMC_Pow_X_I(x, n);

  0005b	8b 45 0c	 mov	 eax, DWORD PTR _n$[ebp]
  0005e	50		 push	 eax
  0005f	8b 4d 08	 mov	 ecx, DWORD PTR _x$[ebp]
  00062	51		 push	 ecx
  00063	e8 00 00 00 00	 call	 ?PMC_Pow_X_I@Internal@Core@Math@Palmtree@@YGPAU__tag_PMC_HANDLE_UINT@1234@PAU51234@I@Z ; Palmtree::Math::Core::Internal::PMC_Pow_X_I
  00068	8b 55 10	 mov	 edx, DWORD PTR _v$[ebp]
  0006b	89 02		 mov	 DWORD PTR [edx], eax

; 1232 :             return (PMC_STATUS_OK);

  0006d	33 c0		 xor	 eax, eax
  0006f	eb 2a		 jmp	 SHORT $LN1@PMCCS_Pow_
__catch$_PMCCS_Pow_X_I@12$0:

; 1233 :         }
; 1234 :         catch (const Palmtree::Math::Core::Internal::Exception& ex)
; 1235 :         {
; 1236 :             return (ex.GetStatusCode());

  00071	8b 4d e8	 mov	 ecx, DWORD PTR _ex$3[ebp]
  00074	e8 00 00 00 00	 call	 ?GetStatusCode@Exception@Internal@Core@Math@Palmtree@@QBEHXZ ; Palmtree::Math::Core::Internal::Exception::GetStatusCode
  00079	89 45 e0	 mov	 DWORD PTR $T2[ebp], eax
  0007c	b8 00 00 00 00	 mov	 eax, $LN8@PMCCS_Pow_
  00081	c3		 ret	 0

; 1237 :         }

  00082	b8 00 00 00 00	 mov	 eax, __tryend$_PMCCS_Pow_X_I@12$1
  00087	c3		 ret	 0
__tryend$_PMCCS_Pow_X_I@12$1:
  00088	c7 45 fc ff ff
	ff ff		 mov	 DWORD PTR __$EHRec$[ebp+12], -1
  0008f	eb 0a		 jmp	 SHORT $LN1@PMCCS_Pow_
$LN8@PMCCS_Pow_:
  00091	c7 45 fc ff ff
	ff ff		 mov	 DWORD PTR __$EHRec$[ebp+12], -1

; 1233 :         }
; 1234 :         catch (const Palmtree::Math::Core::Internal::Exception& ex)
; 1235 :         {
; 1236 :             return (ex.GetStatusCode());

  00098	8b 45 e0	 mov	 eax, DWORD PTR $T2[ebp]
$LN1@PMCCS_Pow_:

; 1238 :     }

  0009b	52		 push	 edx
  0009c	8b cd		 mov	 ecx, ebp
  0009e	50		 push	 eax
  0009f	8d 15 00 00 00
	00		 lea	 edx, DWORD PTR $LN12@PMCCS_Pow_
  000a5	e8 00 00 00 00	 call	 @_RTC_CheckStackVars@8
  000aa	58		 pop	 eax
  000ab	5a		 pop	 edx
  000ac	8b 4d f4	 mov	 ecx, DWORD PTR __$EHRec$[ebp+4]
  000af	64 89 0d 00 00
	00 00		 mov	 DWORD PTR fs:0, ecx
  000b6	59		 pop	 ecx
  000b7	5f		 pop	 edi
  000b8	5e		 pop	 esi
  000b9	5b		 pop	 ebx
  000ba	83 c4 20	 add	 esp, 32			; 00000020H
  000bd	3b ec		 cmp	 ebp, esp
  000bf	e8 00 00 00 00	 call	 __RTC_CheckEsp
  000c4	8b e5		 mov	 esp, ebp
  000c6	5d		 pop	 ebp
  000c7	c2 0c 00	 ret	 12			; 0000000cH
  000ca	66 90		 npad	 2
$LN12@PMCCS_Pow_:
  000cc	01 00 00 00	 DD	 1
  000d0	00 00 00 00	 DD	 $LN11@PMCCS_Pow_
$LN11@PMCCS_Pow_:
  000d4	e8 ff ff ff	 DD	 -24			; ffffffe8H
  000d8	04 00 00 00	 DD	 4
  000dc	00 00 00 00	 DD	 $LN9@PMCCS_Pow_
$LN9@PMCCS_Pow_:
  000e0	65		 DB	 101			; 00000065H
  000e1	78		 DB	 120			; 00000078H
  000e2	00		 DB	 0
_TEXT	ENDS
text$x	SEGMENT
__ehhandler$_PMCCS_Pow_X_I@12:
  00000	8b 54 24 08	 mov	 edx, DWORD PTR [esp+8]
  00004	8d 42 0c	 lea	 eax, DWORD PTR [edx+12]
  00007	8b 4a dc	 mov	 ecx, DWORD PTR [edx-36]
  0000a	33 c8		 xor	 ecx, eax
  0000c	e8 00 00 00 00	 call	 @__security_check_cookie@4
  00011	b8 00 00 00 00	 mov	 eax, OFFSET __ehfuncinfo$_PMCCS_Pow_X_I@12
  00016	e9 00 00 00 00	 jmp	 ___CxxFrameHandler3
text$x	ENDS
_PMCCS_Pow_X_I@12 ENDP
; Function compile flags: /Odtp /RTCsu
; File z:\sources\lunor\repos\rougemeilland\palmtree.math.core.uint\palmtree.math.core.uint\pmc_interface_csharp.cpp
_TEXT	SEGMENT
$T2 = -32						; size = 4
_ex$3 = -24						; size = 4
__$EHRec$ = -16						; size = 16
_u$ = 8							; size = 4
_v$ = 12						; size = 4
_w$ = 16						; size = 4
_PMCCS_GreatestCommonDivisor_X_X@12 PROC

; 1211 :     {

  00000	55		 push	 ebp
  00001	8b ec		 mov	 ebp, esp
  00003	6a ff		 push	 -1
  00005	68 00 00 00 00	 push	 __ehhandler$_PMCCS_GreatestCommonDivisor_X_X@12
  0000a	64 a1 00 00 00
	00		 mov	 eax, DWORD PTR fs:0
  00010	50		 push	 eax
  00011	51		 push	 ecx
  00012	83 ec 10	 sub	 esp, 16			; 00000010H
  00015	53		 push	 ebx
  00016	56		 push	 esi
  00017	57		 push	 edi
  00018	b8 cc cc cc cc	 mov	 eax, -858993460		; ccccccccH
  0001d	89 45 e0	 mov	 DWORD PTR [ebp-32], eax
  00020	89 45 e4	 mov	 DWORD PTR [ebp-28], eax
  00023	89 45 e8	 mov	 DWORD PTR [ebp-24], eax
  00026	89 45 ec	 mov	 DWORD PTR [ebp-20], eax
  00029	a1 00 00 00 00	 mov	 eax, DWORD PTR ___security_cookie
  0002e	33 c5		 xor	 eax, ebp
  00030	50		 push	 eax
  00031	8d 45 f4	 lea	 eax, DWORD PTR __$EHRec$[ebp+4]
  00034	64 a3 00 00 00
	00		 mov	 DWORD PTR fs:0, eax
  0003a	89 65 f0	 mov	 DWORD PTR __$EHRec$[ebp], esp
  0003d	b9 00 00 00 00	 mov	 ecx, OFFSET __C21BA676_pmc_interface_csharp@cpp
  00042	e8 00 00 00 00	 call	 @__CheckForDebuggerJustMyCode@4

; 1212 :         if (w == nullptr)

  00047	83 7d 10 00	 cmp	 DWORD PTR _w$[ebp], 0
  0004b	75 07		 jne	 SHORT $LN2@PMCCS_Grea

; 1213 :             return (PMC_STATUS_ARGUMENT_NULL_ERROR);

  0004d	b8 fe ff ff ff	 mov	 eax, -2			; fffffffeH
  00052	eb 47		 jmp	 SHORT $LN1@PMCCS_Grea
$LN2@PMCCS_Grea:

; 1214 :         try

  00054	c7 45 fc 00 00
	00 00		 mov	 DWORD PTR __$EHRec$[ebp+12], 0

; 1215 :         {
; 1216 :             *w = PMC_GreatestCommonDivisor_X_X(u, v);

  0005b	8b 45 0c	 mov	 eax, DWORD PTR _v$[ebp]
  0005e	50		 push	 eax
  0005f	8b 4d 08	 mov	 ecx, DWORD PTR _u$[ebp]
  00062	51		 push	 ecx
  00063	e8 00 00 00 00	 call	 ?PMC_GreatestCommonDivisor_X_X@Internal@Core@Math@Palmtree@@YGPAU__tag_PMC_HANDLE_UINT@1234@PAU51234@0@Z ; Palmtree::Math::Core::Internal::PMC_GreatestCommonDivisor_X_X
  00068	8b 55 10	 mov	 edx, DWORD PTR _w$[ebp]
  0006b	89 02		 mov	 DWORD PTR [edx], eax

; 1217 :             return (PMC_STATUS_OK);

  0006d	33 c0		 xor	 eax, eax
  0006f	eb 2a		 jmp	 SHORT $LN1@PMCCS_Grea
__catch$_PMCCS_GreatestCommonDivisor_X_X@12$0:

; 1218 :         }
; 1219 :         catch (const Palmtree::Math::Core::Internal::Exception& ex)
; 1220 :         {
; 1221 :             return (ex.GetStatusCode());

  00071	8b 4d e8	 mov	 ecx, DWORD PTR _ex$3[ebp]
  00074	e8 00 00 00 00	 call	 ?GetStatusCode@Exception@Internal@Core@Math@Palmtree@@QBEHXZ ; Palmtree::Math::Core::Internal::Exception::GetStatusCode
  00079	89 45 e0	 mov	 DWORD PTR $T2[ebp], eax
  0007c	b8 00 00 00 00	 mov	 eax, $LN8@PMCCS_Grea
  00081	c3		 ret	 0

; 1222 :         }

  00082	b8 00 00 00 00	 mov	 eax, __tryend$_PMCCS_GreatestCommonDivisor_X_X@12$1
  00087	c3		 ret	 0
__tryend$_PMCCS_GreatestCommonDivisor_X_X@12$1:
  00088	c7 45 fc ff ff
	ff ff		 mov	 DWORD PTR __$EHRec$[ebp+12], -1
  0008f	eb 0a		 jmp	 SHORT $LN1@PMCCS_Grea
$LN8@PMCCS_Grea:
  00091	c7 45 fc ff ff
	ff ff		 mov	 DWORD PTR __$EHRec$[ebp+12], -1

; 1218 :         }
; 1219 :         catch (const Palmtree::Math::Core::Internal::Exception& ex)
; 1220 :         {
; 1221 :             return (ex.GetStatusCode());

  00098	8b 45 e0	 mov	 eax, DWORD PTR $T2[ebp]
$LN1@PMCCS_Grea:

; 1223 :     }

  0009b	52		 push	 edx
  0009c	8b cd		 mov	 ecx, ebp
  0009e	50		 push	 eax
  0009f	8d 15 00 00 00
	00		 lea	 edx, DWORD PTR $LN12@PMCCS_Grea
  000a5	e8 00 00 00 00	 call	 @_RTC_CheckStackVars@8
  000aa	58		 pop	 eax
  000ab	5a		 pop	 edx
  000ac	8b 4d f4	 mov	 ecx, DWORD PTR __$EHRec$[ebp+4]
  000af	64 89 0d 00 00
	00 00		 mov	 DWORD PTR fs:0, ecx
  000b6	59		 pop	 ecx
  000b7	5f		 pop	 edi
  000b8	5e		 pop	 esi
  000b9	5b		 pop	 ebx
  000ba	83 c4 20	 add	 esp, 32			; 00000020H
  000bd	3b ec		 cmp	 ebp, esp
  000bf	e8 00 00 00 00	 call	 __RTC_CheckEsp
  000c4	8b e5		 mov	 esp, ebp
  000c6	5d		 pop	 ebp
  000c7	c2 0c 00	 ret	 12			; 0000000cH
  000ca	66 90		 npad	 2
$LN12@PMCCS_Grea:
  000cc	01 00 00 00	 DD	 1
  000d0	00 00 00 00	 DD	 $LN11@PMCCS_Grea
$LN11@PMCCS_Grea:
  000d4	e8 ff ff ff	 DD	 -24			; ffffffe8H
  000d8	04 00 00 00	 DD	 4
  000dc	00 00 00 00	 DD	 $LN9@PMCCS_Grea
$LN9@PMCCS_Grea:
  000e0	65		 DB	 101			; 00000065H
  000e1	78		 DB	 120			; 00000078H
  000e2	00		 DB	 0
_TEXT	ENDS
text$x	SEGMENT
__ehhandler$_PMCCS_GreatestCommonDivisor_X_X@12:
  00000	8b 54 24 08	 mov	 edx, DWORD PTR [esp+8]
  00004	8d 42 0c	 lea	 eax, DWORD PTR [edx+12]
  00007	8b 4a dc	 mov	 ecx, DWORD PTR [edx-36]
  0000a	33 c8		 xor	 ecx, eax
  0000c	e8 00 00 00 00	 call	 @__security_check_cookie@4
  00011	b8 00 00 00 00	 mov	 eax, OFFSET __ehfuncinfo$_PMCCS_GreatestCommonDivisor_X_X@12
  00016	e9 00 00 00 00	 jmp	 ___CxxFrameHandler3
text$x	ENDS
_PMCCS_GreatestCommonDivisor_X_X@12 ENDP
; Function compile flags: /Odtp /RTCsu
; File z:\sources\lunor\repos\rougemeilland\palmtree.math.core.uint\palmtree.math.core.uint\pmc_interface_csharp.cpp
_TEXT	SEGMENT
$T2 = -32						; size = 4
_ex$3 = -24						; size = 4
__$EHRec$ = -16						; size = 16
_u$ = 8							; size = 4
_v$ = 12						; size = 8
_w$ = 20						; size = 4
_PMCCS_GreatestCommonDivisor_X_L@16 PROC

; 1196 :     {

  00000	55		 push	 ebp
  00001	8b ec		 mov	 ebp, esp
  00003	6a ff		 push	 -1
  00005	68 00 00 00 00	 push	 __ehhandler$_PMCCS_GreatestCommonDivisor_X_L@16
  0000a	64 a1 00 00 00
	00		 mov	 eax, DWORD PTR fs:0
  00010	50		 push	 eax
  00011	51		 push	 ecx
  00012	83 ec 10	 sub	 esp, 16			; 00000010H
  00015	53		 push	 ebx
  00016	56		 push	 esi
  00017	57		 push	 edi
  00018	b8 cc cc cc cc	 mov	 eax, -858993460		; ccccccccH
  0001d	89 45 e0	 mov	 DWORD PTR [ebp-32], eax
  00020	89 45 e4	 mov	 DWORD PTR [ebp-28], eax
  00023	89 45 e8	 mov	 DWORD PTR [ebp-24], eax
  00026	89 45 ec	 mov	 DWORD PTR [ebp-20], eax
  00029	a1 00 00 00 00	 mov	 eax, DWORD PTR ___security_cookie
  0002e	33 c5		 xor	 eax, ebp
  00030	50		 push	 eax
  00031	8d 45 f4	 lea	 eax, DWORD PTR __$EHRec$[ebp+4]
  00034	64 a3 00 00 00
	00		 mov	 DWORD PTR fs:0, eax
  0003a	89 65 f0	 mov	 DWORD PTR __$EHRec$[ebp], esp
  0003d	b9 00 00 00 00	 mov	 ecx, OFFSET __C21BA676_pmc_interface_csharp@cpp
  00042	e8 00 00 00 00	 call	 @__CheckForDebuggerJustMyCode@4

; 1197 :         if (w == nullptr)

  00047	83 7d 14 00	 cmp	 DWORD PTR _w$[ebp], 0
  0004b	75 07		 jne	 SHORT $LN2@PMCCS_Grea

; 1198 :             return (PMC_STATUS_ARGUMENT_NULL_ERROR);

  0004d	b8 fe ff ff ff	 mov	 eax, -2			; fffffffeH
  00052	eb 4b		 jmp	 SHORT $LN1@PMCCS_Grea
$LN2@PMCCS_Grea:

; 1199 :         try

  00054	c7 45 fc 00 00
	00 00		 mov	 DWORD PTR __$EHRec$[ebp+12], 0

; 1200 :         {
; 1201 :             *w = PMC_GreatestCommonDivisor_X_L(u, v);

  0005b	8b 45 10	 mov	 eax, DWORD PTR _v$[ebp+4]
  0005e	50		 push	 eax
  0005f	8b 4d 0c	 mov	 ecx, DWORD PTR _v$[ebp]
  00062	51		 push	 ecx
  00063	8b 55 08	 mov	 edx, DWORD PTR _u$[ebp]
  00066	52		 push	 edx
  00067	e8 00 00 00 00	 call	 ?PMC_GreatestCommonDivisor_X_L@Internal@Core@Math@Palmtree@@YGPAU__tag_PMC_HANDLE_UINT@1234@PAU51234@_K@Z ; Palmtree::Math::Core::Internal::PMC_GreatestCommonDivisor_X_L
  0006c	8b 4d 14	 mov	 ecx, DWORD PTR _w$[ebp]
  0006f	89 01		 mov	 DWORD PTR [ecx], eax

; 1202 :             return (PMC_STATUS_OK);

  00071	33 c0		 xor	 eax, eax
  00073	eb 2a		 jmp	 SHORT $LN1@PMCCS_Grea
__catch$_PMCCS_GreatestCommonDivisor_X_L@16$0:

; 1203 :         }
; 1204 :         catch (const Palmtree::Math::Core::Internal::Exception& ex)
; 1205 :         {
; 1206 :             return (ex.GetStatusCode());

  00075	8b 4d e8	 mov	 ecx, DWORD PTR _ex$3[ebp]
  00078	e8 00 00 00 00	 call	 ?GetStatusCode@Exception@Internal@Core@Math@Palmtree@@QBEHXZ ; Palmtree::Math::Core::Internal::Exception::GetStatusCode
  0007d	89 45 e0	 mov	 DWORD PTR $T2[ebp], eax
  00080	b8 00 00 00 00	 mov	 eax, $LN8@PMCCS_Grea
  00085	c3		 ret	 0

; 1207 :         }

  00086	b8 00 00 00 00	 mov	 eax, __tryend$_PMCCS_GreatestCommonDivisor_X_L@16$1
  0008b	c3		 ret	 0
__tryend$_PMCCS_GreatestCommonDivisor_X_L@16$1:
  0008c	c7 45 fc ff ff
	ff ff		 mov	 DWORD PTR __$EHRec$[ebp+12], -1
  00093	eb 0a		 jmp	 SHORT $LN1@PMCCS_Grea
$LN8@PMCCS_Grea:
  00095	c7 45 fc ff ff
	ff ff		 mov	 DWORD PTR __$EHRec$[ebp+12], -1

; 1203 :         }
; 1204 :         catch (const Palmtree::Math::Core::Internal::Exception& ex)
; 1205 :         {
; 1206 :             return (ex.GetStatusCode());

  0009c	8b 45 e0	 mov	 eax, DWORD PTR $T2[ebp]
$LN1@PMCCS_Grea:

; 1208 :     }

  0009f	52		 push	 edx
  000a0	8b cd		 mov	 ecx, ebp
  000a2	50		 push	 eax
  000a3	8d 15 00 00 00
	00		 lea	 edx, DWORD PTR $LN12@PMCCS_Grea
  000a9	e8 00 00 00 00	 call	 @_RTC_CheckStackVars@8
  000ae	58		 pop	 eax
  000af	5a		 pop	 edx
  000b0	8b 4d f4	 mov	 ecx, DWORD PTR __$EHRec$[ebp+4]
  000b3	64 89 0d 00 00
	00 00		 mov	 DWORD PTR fs:0, ecx
  000ba	59		 pop	 ecx
  000bb	5f		 pop	 edi
  000bc	5e		 pop	 esi
  000bd	5b		 pop	 ebx
  000be	83 c4 20	 add	 esp, 32			; 00000020H
  000c1	3b ec		 cmp	 ebp, esp
  000c3	e8 00 00 00 00	 call	 __RTC_CheckEsp
  000c8	8b e5		 mov	 esp, ebp
  000ca	5d		 pop	 ebp
  000cb	c2 10 00	 ret	 16			; 00000010H
  000ce	66 90		 npad	 2
$LN12@PMCCS_Grea:
  000d0	01 00 00 00	 DD	 1
  000d4	00 00 00 00	 DD	 $LN11@PMCCS_Grea
$LN11@PMCCS_Grea:
  000d8	e8 ff ff ff	 DD	 -24			; ffffffe8H
  000dc	04 00 00 00	 DD	 4
  000e0	00 00 00 00	 DD	 $LN9@PMCCS_Grea
$LN9@PMCCS_Grea:
  000e4	65		 DB	 101			; 00000065H
  000e5	78		 DB	 120			; 00000078H
  000e6	00		 DB	 0
_TEXT	ENDS
text$x	SEGMENT
__ehhandler$_PMCCS_GreatestCommonDivisor_X_L@16:
  00000	8b 54 24 08	 mov	 edx, DWORD PTR [esp+8]
  00004	8d 42 0c	 lea	 eax, DWORD PTR [edx+12]
  00007	8b 4a dc	 mov	 ecx, DWORD PTR [edx-36]
  0000a	33 c8		 xor	 ecx, eax
  0000c	e8 00 00 00 00	 call	 @__security_check_cookie@4
  00011	b8 00 00 00 00	 mov	 eax, OFFSET __ehfuncinfo$_PMCCS_GreatestCommonDivisor_X_L@16
  00016	e9 00 00 00 00	 jmp	 ___CxxFrameHandler3
text$x	ENDS
_PMCCS_GreatestCommonDivisor_X_L@16 ENDP
; Function compile flags: /Odtp /RTCsu
; File z:\sources\lunor\repos\rougemeilland\palmtree.math.core.uint\palmtree.math.core.uint\pmc_interface_csharp.cpp
_TEXT	SEGMENT
$T2 = -32						; size = 4
_ex$3 = -24						; size = 4
__$EHRec$ = -16						; size = 16
_u$ = 8							; size = 4
_v$ = 12						; size = 4
_w$ = 16						; size = 4
_PMCCS_GreatestCommonDivisor_X_I@12 PROC

; 1181 :     {

  00000	55		 push	 ebp
  00001	8b ec		 mov	 ebp, esp
  00003	6a ff		 push	 -1
  00005	68 00 00 00 00	 push	 __ehhandler$_PMCCS_GreatestCommonDivisor_X_I@12
  0000a	64 a1 00 00 00
	00		 mov	 eax, DWORD PTR fs:0
  00010	50		 push	 eax
  00011	51		 push	 ecx
  00012	83 ec 10	 sub	 esp, 16			; 00000010H
  00015	53		 push	 ebx
  00016	56		 push	 esi
  00017	57		 push	 edi
  00018	b8 cc cc cc cc	 mov	 eax, -858993460		; ccccccccH
  0001d	89 45 e0	 mov	 DWORD PTR [ebp-32], eax
  00020	89 45 e4	 mov	 DWORD PTR [ebp-28], eax
  00023	89 45 e8	 mov	 DWORD PTR [ebp-24], eax
  00026	89 45 ec	 mov	 DWORD PTR [ebp-20], eax
  00029	a1 00 00 00 00	 mov	 eax, DWORD PTR ___security_cookie
  0002e	33 c5		 xor	 eax, ebp
  00030	50		 push	 eax
  00031	8d 45 f4	 lea	 eax, DWORD PTR __$EHRec$[ebp+4]
  00034	64 a3 00 00 00
	00		 mov	 DWORD PTR fs:0, eax
  0003a	89 65 f0	 mov	 DWORD PTR __$EHRec$[ebp], esp
  0003d	b9 00 00 00 00	 mov	 ecx, OFFSET __C21BA676_pmc_interface_csharp@cpp
  00042	e8 00 00 00 00	 call	 @__CheckForDebuggerJustMyCode@4

; 1182 :         if (w == nullptr)

  00047	83 7d 10 00	 cmp	 DWORD PTR _w$[ebp], 0
  0004b	75 07		 jne	 SHORT $LN2@PMCCS_Grea

; 1183 :             return (PMC_STATUS_ARGUMENT_NULL_ERROR);

  0004d	b8 fe ff ff ff	 mov	 eax, -2			; fffffffeH
  00052	eb 47		 jmp	 SHORT $LN1@PMCCS_Grea
$LN2@PMCCS_Grea:

; 1184 :         try

  00054	c7 45 fc 00 00
	00 00		 mov	 DWORD PTR __$EHRec$[ebp+12], 0

; 1185 :         {
; 1186 :             *w = PMC_GreatestCommonDivisor_X_I(u, v);

  0005b	8b 45 0c	 mov	 eax, DWORD PTR _v$[ebp]
  0005e	50		 push	 eax
  0005f	8b 4d 08	 mov	 ecx, DWORD PTR _u$[ebp]
  00062	51		 push	 ecx
  00063	e8 00 00 00 00	 call	 ?PMC_GreatestCommonDivisor_X_I@Internal@Core@Math@Palmtree@@YGPAU__tag_PMC_HANDLE_UINT@1234@PAU51234@I@Z ; Palmtree::Math::Core::Internal::PMC_GreatestCommonDivisor_X_I
  00068	8b 55 10	 mov	 edx, DWORD PTR _w$[ebp]
  0006b	89 02		 mov	 DWORD PTR [edx], eax

; 1187 :             return (PMC_STATUS_OK);

  0006d	33 c0		 xor	 eax, eax
  0006f	eb 2a		 jmp	 SHORT $LN1@PMCCS_Grea
__catch$_PMCCS_GreatestCommonDivisor_X_I@12$0:

; 1188 :         }
; 1189 :         catch (const Palmtree::Math::Core::Internal::Exception& ex)
; 1190 :         {
; 1191 :             return (ex.GetStatusCode());

  00071	8b 4d e8	 mov	 ecx, DWORD PTR _ex$3[ebp]
  00074	e8 00 00 00 00	 call	 ?GetStatusCode@Exception@Internal@Core@Math@Palmtree@@QBEHXZ ; Palmtree::Math::Core::Internal::Exception::GetStatusCode
  00079	89 45 e0	 mov	 DWORD PTR $T2[ebp], eax
  0007c	b8 00 00 00 00	 mov	 eax, $LN8@PMCCS_Grea
  00081	c3		 ret	 0

; 1192 :         }

  00082	b8 00 00 00 00	 mov	 eax, __tryend$_PMCCS_GreatestCommonDivisor_X_I@12$1
  00087	c3		 ret	 0
__tryend$_PMCCS_GreatestCommonDivisor_X_I@12$1:
  00088	c7 45 fc ff ff
	ff ff		 mov	 DWORD PTR __$EHRec$[ebp+12], -1
  0008f	eb 0a		 jmp	 SHORT $LN1@PMCCS_Grea
$LN8@PMCCS_Grea:
  00091	c7 45 fc ff ff
	ff ff		 mov	 DWORD PTR __$EHRec$[ebp+12], -1

; 1188 :         }
; 1189 :         catch (const Palmtree::Math::Core::Internal::Exception& ex)
; 1190 :         {
; 1191 :             return (ex.GetStatusCode());

  00098	8b 45 e0	 mov	 eax, DWORD PTR $T2[ebp]
$LN1@PMCCS_Grea:

; 1193 :     }

  0009b	52		 push	 edx
  0009c	8b cd		 mov	 ecx, ebp
  0009e	50		 push	 eax
  0009f	8d 15 00 00 00
	00		 lea	 edx, DWORD PTR $LN12@PMCCS_Grea
  000a5	e8 00 00 00 00	 call	 @_RTC_CheckStackVars@8
  000aa	58		 pop	 eax
  000ab	5a		 pop	 edx
  000ac	8b 4d f4	 mov	 ecx, DWORD PTR __$EHRec$[ebp+4]
  000af	64 89 0d 00 00
	00 00		 mov	 DWORD PTR fs:0, ecx
  000b6	59		 pop	 ecx
  000b7	5f		 pop	 edi
  000b8	5e		 pop	 esi
  000b9	5b		 pop	 ebx
  000ba	83 c4 20	 add	 esp, 32			; 00000020H
  000bd	3b ec		 cmp	 ebp, esp
  000bf	e8 00 00 00 00	 call	 __RTC_CheckEsp
  000c4	8b e5		 mov	 esp, ebp
  000c6	5d		 pop	 ebp
  000c7	c2 0c 00	 ret	 12			; 0000000cH
  000ca	66 90		 npad	 2
$LN12@PMCCS_Grea:
  000cc	01 00 00 00	 DD	 1
  000d0	00 00 00 00	 DD	 $LN11@PMCCS_Grea
$LN11@PMCCS_Grea:
  000d4	e8 ff ff ff	 DD	 -24			; ffffffe8H
  000d8	04 00 00 00	 DD	 4
  000dc	00 00 00 00	 DD	 $LN9@PMCCS_Grea
$LN9@PMCCS_Grea:
  000e0	65		 DB	 101			; 00000065H
  000e1	78		 DB	 120			; 00000078H
  000e2	00		 DB	 0
_TEXT	ENDS
text$x	SEGMENT
__ehhandler$_PMCCS_GreatestCommonDivisor_X_I@12:
  00000	8b 54 24 08	 mov	 edx, DWORD PTR [esp+8]
  00004	8d 42 0c	 lea	 eax, DWORD PTR [edx+12]
  00007	8b 4a dc	 mov	 ecx, DWORD PTR [edx-36]
  0000a	33 c8		 xor	 ecx, eax
  0000c	e8 00 00 00 00	 call	 @__security_check_cookie@4
  00011	b8 00 00 00 00	 mov	 eax, OFFSET __ehfuncinfo$_PMCCS_GreatestCommonDivisor_X_I@12
  00016	e9 00 00 00 00	 jmp	 ___CxxFrameHandler3
text$x	ENDS
_PMCCS_GreatestCommonDivisor_X_I@12 ENDP
; Function compile flags: /Odtp /RTCsu
; File z:\sources\lunor\repos\rougemeilland\palmtree.math.core.uint\palmtree.math.core.uint\pmc_interface_csharp.cpp
_TEXT	SEGMENT
$T2 = -32						; size = 4
_ex$3 = -24						; size = 4
__$EHRec$ = -16						; size = 16
_u$ = 8							; size = 8
_v$ = 16						; size = 4
_w$ = 20						; size = 4
_PMCCS_GreatestCommonDivisor_L_X@16 PROC

; 1166 :     {

  00000	55		 push	 ebp
  00001	8b ec		 mov	 ebp, esp
  00003	6a ff		 push	 -1
  00005	68 00 00 00 00	 push	 __ehhandler$_PMCCS_GreatestCommonDivisor_L_X@16
  0000a	64 a1 00 00 00
	00		 mov	 eax, DWORD PTR fs:0
  00010	50		 push	 eax
  00011	51		 push	 ecx
  00012	83 ec 10	 sub	 esp, 16			; 00000010H
  00015	53		 push	 ebx
  00016	56		 push	 esi
  00017	57		 push	 edi
  00018	b8 cc cc cc cc	 mov	 eax, -858993460		; ccccccccH
  0001d	89 45 e0	 mov	 DWORD PTR [ebp-32], eax
  00020	89 45 e4	 mov	 DWORD PTR [ebp-28], eax
  00023	89 45 e8	 mov	 DWORD PTR [ebp-24], eax
  00026	89 45 ec	 mov	 DWORD PTR [ebp-20], eax
  00029	a1 00 00 00 00	 mov	 eax, DWORD PTR ___security_cookie
  0002e	33 c5		 xor	 eax, ebp
  00030	50		 push	 eax
  00031	8d 45 f4	 lea	 eax, DWORD PTR __$EHRec$[ebp+4]
  00034	64 a3 00 00 00
	00		 mov	 DWORD PTR fs:0, eax
  0003a	89 65 f0	 mov	 DWORD PTR __$EHRec$[ebp], esp
  0003d	b9 00 00 00 00	 mov	 ecx, OFFSET __C21BA676_pmc_interface_csharp@cpp
  00042	e8 00 00 00 00	 call	 @__CheckForDebuggerJustMyCode@4

; 1167 :         if (w == nullptr)

  00047	83 7d 14 00	 cmp	 DWORD PTR _w$[ebp], 0
  0004b	75 07		 jne	 SHORT $LN2@PMCCS_Grea

; 1168 :             return (PMC_STATUS_ARGUMENT_NULL_ERROR);

  0004d	b8 fe ff ff ff	 mov	 eax, -2			; fffffffeH
  00052	eb 4b		 jmp	 SHORT $LN1@PMCCS_Grea
$LN2@PMCCS_Grea:

; 1169 :         try

  00054	c7 45 fc 00 00
	00 00		 mov	 DWORD PTR __$EHRec$[ebp+12], 0

; 1170 :         {
; 1171 :             *w = PMC_GreatestCommonDivisor_L_X(u, v);

  0005b	8b 45 10	 mov	 eax, DWORD PTR _v$[ebp]
  0005e	50		 push	 eax
  0005f	8b 4d 0c	 mov	 ecx, DWORD PTR _u$[ebp+4]
  00062	51		 push	 ecx
  00063	8b 55 08	 mov	 edx, DWORD PTR _u$[ebp]
  00066	52		 push	 edx
  00067	e8 00 00 00 00	 call	 ?PMC_GreatestCommonDivisor_L_X@Internal@Core@Math@Palmtree@@YGPAU__tag_PMC_HANDLE_UINT@1234@_KPAU51234@@Z ; Palmtree::Math::Core::Internal::PMC_GreatestCommonDivisor_L_X
  0006c	8b 4d 14	 mov	 ecx, DWORD PTR _w$[ebp]
  0006f	89 01		 mov	 DWORD PTR [ecx], eax

; 1172 :             return (PMC_STATUS_OK);

  00071	33 c0		 xor	 eax, eax
  00073	eb 2a		 jmp	 SHORT $LN1@PMCCS_Grea
__catch$_PMCCS_GreatestCommonDivisor_L_X@16$0:

; 1173 :         }
; 1174 :         catch (const Palmtree::Math::Core::Internal::Exception& ex)
; 1175 :         {
; 1176 :             return (ex.GetStatusCode());

  00075	8b 4d e8	 mov	 ecx, DWORD PTR _ex$3[ebp]
  00078	e8 00 00 00 00	 call	 ?GetStatusCode@Exception@Internal@Core@Math@Palmtree@@QBEHXZ ; Palmtree::Math::Core::Internal::Exception::GetStatusCode
  0007d	89 45 e0	 mov	 DWORD PTR $T2[ebp], eax
  00080	b8 00 00 00 00	 mov	 eax, $LN8@PMCCS_Grea
  00085	c3		 ret	 0

; 1177 :         }

  00086	b8 00 00 00 00	 mov	 eax, __tryend$_PMCCS_GreatestCommonDivisor_L_X@16$1
  0008b	c3		 ret	 0
__tryend$_PMCCS_GreatestCommonDivisor_L_X@16$1:
  0008c	c7 45 fc ff ff
	ff ff		 mov	 DWORD PTR __$EHRec$[ebp+12], -1
  00093	eb 0a		 jmp	 SHORT $LN1@PMCCS_Grea
$LN8@PMCCS_Grea:
  00095	c7 45 fc ff ff
	ff ff		 mov	 DWORD PTR __$EHRec$[ebp+12], -1

; 1173 :         }
; 1174 :         catch (const Palmtree::Math::Core::Internal::Exception& ex)
; 1175 :         {
; 1176 :             return (ex.GetStatusCode());

  0009c	8b 45 e0	 mov	 eax, DWORD PTR $T2[ebp]
$LN1@PMCCS_Grea:

; 1178 :     }

  0009f	52		 push	 edx
  000a0	8b cd		 mov	 ecx, ebp
  000a2	50		 push	 eax
  000a3	8d 15 00 00 00
	00		 lea	 edx, DWORD PTR $LN12@PMCCS_Grea
  000a9	e8 00 00 00 00	 call	 @_RTC_CheckStackVars@8
  000ae	58		 pop	 eax
  000af	5a		 pop	 edx
  000b0	8b 4d f4	 mov	 ecx, DWORD PTR __$EHRec$[ebp+4]
  000b3	64 89 0d 00 00
	00 00		 mov	 DWORD PTR fs:0, ecx
  000ba	59		 pop	 ecx
  000bb	5f		 pop	 edi
  000bc	5e		 pop	 esi
  000bd	5b		 pop	 ebx
  000be	83 c4 20	 add	 esp, 32			; 00000020H
  000c1	3b ec		 cmp	 ebp, esp
  000c3	e8 00 00 00 00	 call	 __RTC_CheckEsp
  000c8	8b e5		 mov	 esp, ebp
  000ca	5d		 pop	 ebp
  000cb	c2 10 00	 ret	 16			; 00000010H
  000ce	66 90		 npad	 2
$LN12@PMCCS_Grea:
  000d0	01 00 00 00	 DD	 1
  000d4	00 00 00 00	 DD	 $LN11@PMCCS_Grea
$LN11@PMCCS_Grea:
  000d8	e8 ff ff ff	 DD	 -24			; ffffffe8H
  000dc	04 00 00 00	 DD	 4
  000e0	00 00 00 00	 DD	 $LN9@PMCCS_Grea
$LN9@PMCCS_Grea:
  000e4	65		 DB	 101			; 00000065H
  000e5	78		 DB	 120			; 00000078H
  000e6	00		 DB	 0
_TEXT	ENDS
text$x	SEGMENT
__ehhandler$_PMCCS_GreatestCommonDivisor_L_X@16:
  00000	8b 54 24 08	 mov	 edx, DWORD PTR [esp+8]
  00004	8d 42 0c	 lea	 eax, DWORD PTR [edx+12]
  00007	8b 4a dc	 mov	 ecx, DWORD PTR [edx-36]
  0000a	33 c8		 xor	 ecx, eax
  0000c	e8 00 00 00 00	 call	 @__security_check_cookie@4
  00011	b8 00 00 00 00	 mov	 eax, OFFSET __ehfuncinfo$_PMCCS_GreatestCommonDivisor_L_X@16
  00016	e9 00 00 00 00	 jmp	 ___CxxFrameHandler3
text$x	ENDS
_PMCCS_GreatestCommonDivisor_L_X@16 ENDP
; Function compile flags: /Odtp /RTCsu
; File z:\sources\lunor\repos\rougemeilland\palmtree.math.core.uint\palmtree.math.core.uint\pmc_interface_csharp.cpp
_TEXT	SEGMENT
$T2 = -32						; size = 4
_ex$3 = -24						; size = 4
__$EHRec$ = -16						; size = 16
_u$ = 8							; size = 4
_v$ = 12						; size = 4
_w$ = 16						; size = 4
_PMCCS_GreatestCommonDivisor_I_X@12 PROC

; 1151 :     {

  00000	55		 push	 ebp
  00001	8b ec		 mov	 ebp, esp
  00003	6a ff		 push	 -1
  00005	68 00 00 00 00	 push	 __ehhandler$_PMCCS_GreatestCommonDivisor_I_X@12
  0000a	64 a1 00 00 00
	00		 mov	 eax, DWORD PTR fs:0
  00010	50		 push	 eax
  00011	51		 push	 ecx
  00012	83 ec 10	 sub	 esp, 16			; 00000010H
  00015	53		 push	 ebx
  00016	56		 push	 esi
  00017	57		 push	 edi
  00018	b8 cc cc cc cc	 mov	 eax, -858993460		; ccccccccH
  0001d	89 45 e0	 mov	 DWORD PTR [ebp-32], eax
  00020	89 45 e4	 mov	 DWORD PTR [ebp-28], eax
  00023	89 45 e8	 mov	 DWORD PTR [ebp-24], eax
  00026	89 45 ec	 mov	 DWORD PTR [ebp-20], eax
  00029	a1 00 00 00 00	 mov	 eax, DWORD PTR ___security_cookie
  0002e	33 c5		 xor	 eax, ebp
  00030	50		 push	 eax
  00031	8d 45 f4	 lea	 eax, DWORD PTR __$EHRec$[ebp+4]
  00034	64 a3 00 00 00
	00		 mov	 DWORD PTR fs:0, eax
  0003a	89 65 f0	 mov	 DWORD PTR __$EHRec$[ebp], esp
  0003d	b9 00 00 00 00	 mov	 ecx, OFFSET __C21BA676_pmc_interface_csharp@cpp
  00042	e8 00 00 00 00	 call	 @__CheckForDebuggerJustMyCode@4

; 1152 :         if (w == nullptr)

  00047	83 7d 10 00	 cmp	 DWORD PTR _w$[ebp], 0
  0004b	75 07		 jne	 SHORT $LN2@PMCCS_Grea

; 1153 :             return (PMC_STATUS_ARGUMENT_NULL_ERROR);

  0004d	b8 fe ff ff ff	 mov	 eax, -2			; fffffffeH
  00052	eb 47		 jmp	 SHORT $LN1@PMCCS_Grea
$LN2@PMCCS_Grea:

; 1154 :         try

  00054	c7 45 fc 00 00
	00 00		 mov	 DWORD PTR __$EHRec$[ebp+12], 0

; 1155 :         {
; 1156 :             *w = PMC_GreatestCommonDivisor_I_X(u, v);

  0005b	8b 45 0c	 mov	 eax, DWORD PTR _v$[ebp]
  0005e	50		 push	 eax
  0005f	8b 4d 08	 mov	 ecx, DWORD PTR _u$[ebp]
  00062	51		 push	 ecx
  00063	e8 00 00 00 00	 call	 ?PMC_GreatestCommonDivisor_I_X@Internal@Core@Math@Palmtree@@YGPAU__tag_PMC_HANDLE_UINT@1234@IPAU51234@@Z ; Palmtree::Math::Core::Internal::PMC_GreatestCommonDivisor_I_X
  00068	8b 55 10	 mov	 edx, DWORD PTR _w$[ebp]
  0006b	89 02		 mov	 DWORD PTR [edx], eax

; 1157 :             return (PMC_STATUS_OK);

  0006d	33 c0		 xor	 eax, eax
  0006f	eb 2a		 jmp	 SHORT $LN1@PMCCS_Grea
__catch$_PMCCS_GreatestCommonDivisor_I_X@12$0:

; 1158 :         }
; 1159 :         catch (const Palmtree::Math::Core::Internal::Exception& ex)
; 1160 :         {
; 1161 :             return (ex.GetStatusCode());

  00071	8b 4d e8	 mov	 ecx, DWORD PTR _ex$3[ebp]
  00074	e8 00 00 00 00	 call	 ?GetStatusCode@Exception@Internal@Core@Math@Palmtree@@QBEHXZ ; Palmtree::Math::Core::Internal::Exception::GetStatusCode
  00079	89 45 e0	 mov	 DWORD PTR $T2[ebp], eax
  0007c	b8 00 00 00 00	 mov	 eax, $LN8@PMCCS_Grea
  00081	c3		 ret	 0

; 1162 :         }

  00082	b8 00 00 00 00	 mov	 eax, __tryend$_PMCCS_GreatestCommonDivisor_I_X@12$1
  00087	c3		 ret	 0
__tryend$_PMCCS_GreatestCommonDivisor_I_X@12$1:
  00088	c7 45 fc ff ff
	ff ff		 mov	 DWORD PTR __$EHRec$[ebp+12], -1
  0008f	eb 0a		 jmp	 SHORT $LN1@PMCCS_Grea
$LN8@PMCCS_Grea:
  00091	c7 45 fc ff ff
	ff ff		 mov	 DWORD PTR __$EHRec$[ebp+12], -1

; 1158 :         }
; 1159 :         catch (const Palmtree::Math::Core::Internal::Exception& ex)
; 1160 :         {
; 1161 :             return (ex.GetStatusCode());

  00098	8b 45 e0	 mov	 eax, DWORD PTR $T2[ebp]
$LN1@PMCCS_Grea:

; 1163 :     }

  0009b	52		 push	 edx
  0009c	8b cd		 mov	 ecx, ebp
  0009e	50		 push	 eax
  0009f	8d 15 00 00 00
	00		 lea	 edx, DWORD PTR $LN12@PMCCS_Grea
  000a5	e8 00 00 00 00	 call	 @_RTC_CheckStackVars@8
  000aa	58		 pop	 eax
  000ab	5a		 pop	 edx
  000ac	8b 4d f4	 mov	 ecx, DWORD PTR __$EHRec$[ebp+4]
  000af	64 89 0d 00 00
	00 00		 mov	 DWORD PTR fs:0, ecx
  000b6	59		 pop	 ecx
  000b7	5f		 pop	 edi
  000b8	5e		 pop	 esi
  000b9	5b		 pop	 ebx
  000ba	83 c4 20	 add	 esp, 32			; 00000020H
  000bd	3b ec		 cmp	 ebp, esp
  000bf	e8 00 00 00 00	 call	 __RTC_CheckEsp
  000c4	8b e5		 mov	 esp, ebp
  000c6	5d		 pop	 ebp
  000c7	c2 0c 00	 ret	 12			; 0000000cH
  000ca	66 90		 npad	 2
$LN12@PMCCS_Grea:
  000cc	01 00 00 00	 DD	 1
  000d0	00 00 00 00	 DD	 $LN11@PMCCS_Grea
$LN11@PMCCS_Grea:
  000d4	e8 ff ff ff	 DD	 -24			; ffffffe8H
  000d8	04 00 00 00	 DD	 4
  000dc	00 00 00 00	 DD	 $LN9@PMCCS_Grea
$LN9@PMCCS_Grea:
  000e0	65		 DB	 101			; 00000065H
  000e1	78		 DB	 120			; 00000078H
  000e2	00		 DB	 0
_TEXT	ENDS
text$x	SEGMENT
__ehhandler$_PMCCS_GreatestCommonDivisor_I_X@12:
  00000	8b 54 24 08	 mov	 edx, DWORD PTR [esp+8]
  00004	8d 42 0c	 lea	 eax, DWORD PTR [edx+12]
  00007	8b 4a dc	 mov	 ecx, DWORD PTR [edx-36]
  0000a	33 c8		 xor	 ecx, eax
  0000c	e8 00 00 00 00	 call	 @__security_check_cookie@4
  00011	b8 00 00 00 00	 mov	 eax, OFFSET __ehfuncinfo$_PMCCS_GreatestCommonDivisor_I_X@12
  00016	e9 00 00 00 00	 jmp	 ___CxxFrameHandler3
text$x	ENDS
_PMCCS_GreatestCommonDivisor_I_X@12 ENDP
; Function compile flags: /Odtp /RTCsu
; File z:\sources\lunor\repos\rougemeilland\palmtree.math.core.uint\palmtree.math.core.uint\pmc_interface_csharp.cpp
_TEXT	SEGMENT
$T2 = -32						; size = 4
_ex$3 = -24						; size = 4
__$EHRec$ = -16						; size = 16
_u$ = 8							; size = 4
_v$ = 12						; size = 4
_w$ = 16						; size = 4
_PMCCS_Equals_X_X@12 PROC

; 1136 :     {

  00000	55		 push	 ebp
  00001	8b ec		 mov	 ebp, esp
  00003	6a ff		 push	 -1
  00005	68 00 00 00 00	 push	 __ehhandler$_PMCCS_Equals_X_X@12
  0000a	64 a1 00 00 00
	00		 mov	 eax, DWORD PTR fs:0
  00010	50		 push	 eax
  00011	51		 push	 ecx
  00012	83 ec 10	 sub	 esp, 16			; 00000010H
  00015	53		 push	 ebx
  00016	56		 push	 esi
  00017	57		 push	 edi
  00018	b8 cc cc cc cc	 mov	 eax, -858993460		; ccccccccH
  0001d	89 45 e0	 mov	 DWORD PTR [ebp-32], eax
  00020	89 45 e4	 mov	 DWORD PTR [ebp-28], eax
  00023	89 45 e8	 mov	 DWORD PTR [ebp-24], eax
  00026	89 45 ec	 mov	 DWORD PTR [ebp-20], eax
  00029	a1 00 00 00 00	 mov	 eax, DWORD PTR ___security_cookie
  0002e	33 c5		 xor	 eax, ebp
  00030	50		 push	 eax
  00031	8d 45 f4	 lea	 eax, DWORD PTR __$EHRec$[ebp+4]
  00034	64 a3 00 00 00
	00		 mov	 DWORD PTR fs:0, eax
  0003a	89 65 f0	 mov	 DWORD PTR __$EHRec$[ebp], esp
  0003d	b9 00 00 00 00	 mov	 ecx, OFFSET __C21BA676_pmc_interface_csharp@cpp
  00042	e8 00 00 00 00	 call	 @__CheckForDebuggerJustMyCode@4

; 1137 :         if (w == nullptr)

  00047	83 7d 10 00	 cmp	 DWORD PTR _w$[ebp], 0
  0004b	75 07		 jne	 SHORT $LN2@PMCCS_Equa

; 1138 :             return (PMC_STATUS_ARGUMENT_NULL_ERROR);

  0004d	b8 fe ff ff ff	 mov	 eax, -2			; fffffffeH
  00052	eb 47		 jmp	 SHORT $LN1@PMCCS_Equa
$LN2@PMCCS_Equa:

; 1139 :         try

  00054	c7 45 fc 00 00
	00 00		 mov	 DWORD PTR __$EHRec$[ebp+12], 0

; 1140 :         {
; 1141 :             *w = PMC_Equals_X_X(u, v);

  0005b	8b 45 0c	 mov	 eax, DWORD PTR _v$[ebp]
  0005e	50		 push	 eax
  0005f	8b 4d 08	 mov	 ecx, DWORD PTR _u$[ebp]
  00062	51		 push	 ecx
  00063	e8 00 00 00 00	 call	 ?PMC_Equals_X_X@Internal@Core@Math@Palmtree@@YGIPAU__tag_PMC_HANDLE_UINT@1234@0@Z ; Palmtree::Math::Core::Internal::PMC_Equals_X_X
  00068	8b 55 10	 mov	 edx, DWORD PTR _w$[ebp]
  0006b	89 02		 mov	 DWORD PTR [edx], eax

; 1142 :             return (PMC_STATUS_OK);

  0006d	33 c0		 xor	 eax, eax
  0006f	eb 2a		 jmp	 SHORT $LN1@PMCCS_Equa
__catch$_PMCCS_Equals_X_X@12$0:

; 1143 :         }
; 1144 :         catch (const Palmtree::Math::Core::Internal::Exception& ex)
; 1145 :         {
; 1146 :             return (ex.GetStatusCode());

  00071	8b 4d e8	 mov	 ecx, DWORD PTR _ex$3[ebp]
  00074	e8 00 00 00 00	 call	 ?GetStatusCode@Exception@Internal@Core@Math@Palmtree@@QBEHXZ ; Palmtree::Math::Core::Internal::Exception::GetStatusCode
  00079	89 45 e0	 mov	 DWORD PTR $T2[ebp], eax
  0007c	b8 00 00 00 00	 mov	 eax, $LN8@PMCCS_Equa
  00081	c3		 ret	 0

; 1147 :         }

  00082	b8 00 00 00 00	 mov	 eax, __tryend$_PMCCS_Equals_X_X@12$1
  00087	c3		 ret	 0
__tryend$_PMCCS_Equals_X_X@12$1:
  00088	c7 45 fc ff ff
	ff ff		 mov	 DWORD PTR __$EHRec$[ebp+12], -1
  0008f	eb 0a		 jmp	 SHORT $LN1@PMCCS_Equa
$LN8@PMCCS_Equa:
  00091	c7 45 fc ff ff
	ff ff		 mov	 DWORD PTR __$EHRec$[ebp+12], -1

; 1143 :         }
; 1144 :         catch (const Palmtree::Math::Core::Internal::Exception& ex)
; 1145 :         {
; 1146 :             return (ex.GetStatusCode());

  00098	8b 45 e0	 mov	 eax, DWORD PTR $T2[ebp]
$LN1@PMCCS_Equa:

; 1148 :     }

  0009b	52		 push	 edx
  0009c	8b cd		 mov	 ecx, ebp
  0009e	50		 push	 eax
  0009f	8d 15 00 00 00
	00		 lea	 edx, DWORD PTR $LN12@PMCCS_Equa
  000a5	e8 00 00 00 00	 call	 @_RTC_CheckStackVars@8
  000aa	58		 pop	 eax
  000ab	5a		 pop	 edx
  000ac	8b 4d f4	 mov	 ecx, DWORD PTR __$EHRec$[ebp+4]
  000af	64 89 0d 00 00
	00 00		 mov	 DWORD PTR fs:0, ecx
  000b6	59		 pop	 ecx
  000b7	5f		 pop	 edi
  000b8	5e		 pop	 esi
  000b9	5b		 pop	 ebx
  000ba	83 c4 20	 add	 esp, 32			; 00000020H
  000bd	3b ec		 cmp	 ebp, esp
  000bf	e8 00 00 00 00	 call	 __RTC_CheckEsp
  000c4	8b e5		 mov	 esp, ebp
  000c6	5d		 pop	 ebp
  000c7	c2 0c 00	 ret	 12			; 0000000cH
  000ca	66 90		 npad	 2
$LN12@PMCCS_Equa:
  000cc	01 00 00 00	 DD	 1
  000d0	00 00 00 00	 DD	 $LN11@PMCCS_Equa
$LN11@PMCCS_Equa:
  000d4	e8 ff ff ff	 DD	 -24			; ffffffe8H
  000d8	04 00 00 00	 DD	 4
  000dc	00 00 00 00	 DD	 $LN9@PMCCS_Equa
$LN9@PMCCS_Equa:
  000e0	65		 DB	 101			; 00000065H
  000e1	78		 DB	 120			; 00000078H
  000e2	00		 DB	 0
_TEXT	ENDS
text$x	SEGMENT
__ehhandler$_PMCCS_Equals_X_X@12:
  00000	8b 54 24 08	 mov	 edx, DWORD PTR [esp+8]
  00004	8d 42 0c	 lea	 eax, DWORD PTR [edx+12]
  00007	8b 4a dc	 mov	 ecx, DWORD PTR [edx-36]
  0000a	33 c8		 xor	 ecx, eax
  0000c	e8 00 00 00 00	 call	 @__security_check_cookie@4
  00011	b8 00 00 00 00	 mov	 eax, OFFSET __ehfuncinfo$_PMCCS_Equals_X_X@12
  00016	e9 00 00 00 00	 jmp	 ___CxxFrameHandler3
text$x	ENDS
_PMCCS_Equals_X_X@12 ENDP
; Function compile flags: /Odtp /RTCsu
; File z:\sources\lunor\repos\rougemeilland\palmtree.math.core.uint\palmtree.math.core.uint\pmc_interface_csharp.cpp
_TEXT	SEGMENT
$T2 = -32						; size = 4
_ex$3 = -24						; size = 4
__$EHRec$ = -16						; size = 16
_u$ = 8							; size = 4
_v$ = 12						; size = 8
_w$ = 20						; size = 4
_PMCCS_Equals_X_L@16 PROC

; 1121 :     {

  00000	55		 push	 ebp
  00001	8b ec		 mov	 ebp, esp
  00003	6a ff		 push	 -1
  00005	68 00 00 00 00	 push	 __ehhandler$_PMCCS_Equals_X_L@16
  0000a	64 a1 00 00 00
	00		 mov	 eax, DWORD PTR fs:0
  00010	50		 push	 eax
  00011	51		 push	 ecx
  00012	83 ec 10	 sub	 esp, 16			; 00000010H
  00015	53		 push	 ebx
  00016	56		 push	 esi
  00017	57		 push	 edi
  00018	b8 cc cc cc cc	 mov	 eax, -858993460		; ccccccccH
  0001d	89 45 e0	 mov	 DWORD PTR [ebp-32], eax
  00020	89 45 e4	 mov	 DWORD PTR [ebp-28], eax
  00023	89 45 e8	 mov	 DWORD PTR [ebp-24], eax
  00026	89 45 ec	 mov	 DWORD PTR [ebp-20], eax
  00029	a1 00 00 00 00	 mov	 eax, DWORD PTR ___security_cookie
  0002e	33 c5		 xor	 eax, ebp
  00030	50		 push	 eax
  00031	8d 45 f4	 lea	 eax, DWORD PTR __$EHRec$[ebp+4]
  00034	64 a3 00 00 00
	00		 mov	 DWORD PTR fs:0, eax
  0003a	89 65 f0	 mov	 DWORD PTR __$EHRec$[ebp], esp
  0003d	b9 00 00 00 00	 mov	 ecx, OFFSET __C21BA676_pmc_interface_csharp@cpp
  00042	e8 00 00 00 00	 call	 @__CheckForDebuggerJustMyCode@4

; 1122 :         if (w == nullptr)

  00047	83 7d 14 00	 cmp	 DWORD PTR _w$[ebp], 0
  0004b	75 07		 jne	 SHORT $LN2@PMCCS_Equa

; 1123 :             return (PMC_STATUS_ARGUMENT_NULL_ERROR);

  0004d	b8 fe ff ff ff	 mov	 eax, -2			; fffffffeH
  00052	eb 4b		 jmp	 SHORT $LN1@PMCCS_Equa
$LN2@PMCCS_Equa:

; 1124 :         try

  00054	c7 45 fc 00 00
	00 00		 mov	 DWORD PTR __$EHRec$[ebp+12], 0

; 1125 :         {
; 1126 :             *w = PMC_Equals_X_L(u, v);

  0005b	8b 45 10	 mov	 eax, DWORD PTR _v$[ebp+4]
  0005e	50		 push	 eax
  0005f	8b 4d 0c	 mov	 ecx, DWORD PTR _v$[ebp]
  00062	51		 push	 ecx
  00063	8b 55 08	 mov	 edx, DWORD PTR _u$[ebp]
  00066	52		 push	 edx
  00067	e8 00 00 00 00	 call	 ?PMC_Equals_X_L@Internal@Core@Math@Palmtree@@YGIPAU__tag_PMC_HANDLE_UINT@1234@_K@Z ; Palmtree::Math::Core::Internal::PMC_Equals_X_L
  0006c	8b 4d 14	 mov	 ecx, DWORD PTR _w$[ebp]
  0006f	89 01		 mov	 DWORD PTR [ecx], eax

; 1127 :             return (PMC_STATUS_OK);

  00071	33 c0		 xor	 eax, eax
  00073	eb 2a		 jmp	 SHORT $LN1@PMCCS_Equa
__catch$_PMCCS_Equals_X_L@16$0:

; 1128 :         }
; 1129 :         catch (const Palmtree::Math::Core::Internal::Exception& ex)
; 1130 :         {
; 1131 :             return (ex.GetStatusCode());

  00075	8b 4d e8	 mov	 ecx, DWORD PTR _ex$3[ebp]
  00078	e8 00 00 00 00	 call	 ?GetStatusCode@Exception@Internal@Core@Math@Palmtree@@QBEHXZ ; Palmtree::Math::Core::Internal::Exception::GetStatusCode
  0007d	89 45 e0	 mov	 DWORD PTR $T2[ebp], eax
  00080	b8 00 00 00 00	 mov	 eax, $LN8@PMCCS_Equa
  00085	c3		 ret	 0

; 1132 :         }

  00086	b8 00 00 00 00	 mov	 eax, __tryend$_PMCCS_Equals_X_L@16$1
  0008b	c3		 ret	 0
__tryend$_PMCCS_Equals_X_L@16$1:
  0008c	c7 45 fc ff ff
	ff ff		 mov	 DWORD PTR __$EHRec$[ebp+12], -1
  00093	eb 0a		 jmp	 SHORT $LN1@PMCCS_Equa
$LN8@PMCCS_Equa:
  00095	c7 45 fc ff ff
	ff ff		 mov	 DWORD PTR __$EHRec$[ebp+12], -1

; 1128 :         }
; 1129 :         catch (const Palmtree::Math::Core::Internal::Exception& ex)
; 1130 :         {
; 1131 :             return (ex.GetStatusCode());

  0009c	8b 45 e0	 mov	 eax, DWORD PTR $T2[ebp]
$LN1@PMCCS_Equa:

; 1133 :     }

  0009f	52		 push	 edx
  000a0	8b cd		 mov	 ecx, ebp
  000a2	50		 push	 eax
  000a3	8d 15 00 00 00
	00		 lea	 edx, DWORD PTR $LN12@PMCCS_Equa
  000a9	e8 00 00 00 00	 call	 @_RTC_CheckStackVars@8
  000ae	58		 pop	 eax
  000af	5a		 pop	 edx
  000b0	8b 4d f4	 mov	 ecx, DWORD PTR __$EHRec$[ebp+4]
  000b3	64 89 0d 00 00
	00 00		 mov	 DWORD PTR fs:0, ecx
  000ba	59		 pop	 ecx
  000bb	5f		 pop	 edi
  000bc	5e		 pop	 esi
  000bd	5b		 pop	 ebx
  000be	83 c4 20	 add	 esp, 32			; 00000020H
  000c1	3b ec		 cmp	 ebp, esp
  000c3	e8 00 00 00 00	 call	 __RTC_CheckEsp
  000c8	8b e5		 mov	 esp, ebp
  000ca	5d		 pop	 ebp
  000cb	c2 10 00	 ret	 16			; 00000010H
  000ce	66 90		 npad	 2
$LN12@PMCCS_Equa:
  000d0	01 00 00 00	 DD	 1
  000d4	00 00 00 00	 DD	 $LN11@PMCCS_Equa
$LN11@PMCCS_Equa:
  000d8	e8 ff ff ff	 DD	 -24			; ffffffe8H
  000dc	04 00 00 00	 DD	 4
  000e0	00 00 00 00	 DD	 $LN9@PMCCS_Equa
$LN9@PMCCS_Equa:
  000e4	65		 DB	 101			; 00000065H
  000e5	78		 DB	 120			; 00000078H
  000e6	00		 DB	 0
_TEXT	ENDS
text$x	SEGMENT
__ehhandler$_PMCCS_Equals_X_L@16:
  00000	8b 54 24 08	 mov	 edx, DWORD PTR [esp+8]
  00004	8d 42 0c	 lea	 eax, DWORD PTR [edx+12]
  00007	8b 4a dc	 mov	 ecx, DWORD PTR [edx-36]
  0000a	33 c8		 xor	 ecx, eax
  0000c	e8 00 00 00 00	 call	 @__security_check_cookie@4
  00011	b8 00 00 00 00	 mov	 eax, OFFSET __ehfuncinfo$_PMCCS_Equals_X_L@16
  00016	e9 00 00 00 00	 jmp	 ___CxxFrameHandler3
text$x	ENDS
_PMCCS_Equals_X_L@16 ENDP
; Function compile flags: /Odtp /RTCsu
; File z:\sources\lunor\repos\rougemeilland\palmtree.math.core.uint\palmtree.math.core.uint\pmc_interface_csharp.cpp
_TEXT	SEGMENT
$T2 = -32						; size = 4
_ex$3 = -24						; size = 4
__$EHRec$ = -16						; size = 16
_u$ = 8							; size = 4
_v$ = 12						; size = 4
_w$ = 16						; size = 4
_PMCCS_Equals_X_I@12 PROC

; 1106 :     {

  00000	55		 push	 ebp
  00001	8b ec		 mov	 ebp, esp
  00003	6a ff		 push	 -1
  00005	68 00 00 00 00	 push	 __ehhandler$_PMCCS_Equals_X_I@12
  0000a	64 a1 00 00 00
	00		 mov	 eax, DWORD PTR fs:0
  00010	50		 push	 eax
  00011	51		 push	 ecx
  00012	83 ec 10	 sub	 esp, 16			; 00000010H
  00015	53		 push	 ebx
  00016	56		 push	 esi
  00017	57		 push	 edi
  00018	b8 cc cc cc cc	 mov	 eax, -858993460		; ccccccccH
  0001d	89 45 e0	 mov	 DWORD PTR [ebp-32], eax
  00020	89 45 e4	 mov	 DWORD PTR [ebp-28], eax
  00023	89 45 e8	 mov	 DWORD PTR [ebp-24], eax
  00026	89 45 ec	 mov	 DWORD PTR [ebp-20], eax
  00029	a1 00 00 00 00	 mov	 eax, DWORD PTR ___security_cookie
  0002e	33 c5		 xor	 eax, ebp
  00030	50		 push	 eax
  00031	8d 45 f4	 lea	 eax, DWORD PTR __$EHRec$[ebp+4]
  00034	64 a3 00 00 00
	00		 mov	 DWORD PTR fs:0, eax
  0003a	89 65 f0	 mov	 DWORD PTR __$EHRec$[ebp], esp
  0003d	b9 00 00 00 00	 mov	 ecx, OFFSET __C21BA676_pmc_interface_csharp@cpp
  00042	e8 00 00 00 00	 call	 @__CheckForDebuggerJustMyCode@4

; 1107 :         if (w == nullptr)

  00047	83 7d 10 00	 cmp	 DWORD PTR _w$[ebp], 0
  0004b	75 07		 jne	 SHORT $LN2@PMCCS_Equa

; 1108 :             return (PMC_STATUS_ARGUMENT_NULL_ERROR);

  0004d	b8 fe ff ff ff	 mov	 eax, -2			; fffffffeH
  00052	eb 47		 jmp	 SHORT $LN1@PMCCS_Equa
$LN2@PMCCS_Equa:

; 1109 :         try

  00054	c7 45 fc 00 00
	00 00		 mov	 DWORD PTR __$EHRec$[ebp+12], 0

; 1110 :         {
; 1111 :             *w = PMC_Equals_X_I(u, v);

  0005b	8b 45 0c	 mov	 eax, DWORD PTR _v$[ebp]
  0005e	50		 push	 eax
  0005f	8b 4d 08	 mov	 ecx, DWORD PTR _u$[ebp]
  00062	51		 push	 ecx
  00063	e8 00 00 00 00	 call	 ?PMC_Equals_X_I@Internal@Core@Math@Palmtree@@YGIPAU__tag_PMC_HANDLE_UINT@1234@I@Z ; Palmtree::Math::Core::Internal::PMC_Equals_X_I
  00068	8b 55 10	 mov	 edx, DWORD PTR _w$[ebp]
  0006b	89 02		 mov	 DWORD PTR [edx], eax

; 1112 :             return (PMC_STATUS_OK);

  0006d	33 c0		 xor	 eax, eax
  0006f	eb 2a		 jmp	 SHORT $LN1@PMCCS_Equa
__catch$_PMCCS_Equals_X_I@12$0:

; 1113 :         }
; 1114 :         catch (const Palmtree::Math::Core::Internal::Exception& ex)
; 1115 :         {
; 1116 :             return (ex.GetStatusCode());

  00071	8b 4d e8	 mov	 ecx, DWORD PTR _ex$3[ebp]
  00074	e8 00 00 00 00	 call	 ?GetStatusCode@Exception@Internal@Core@Math@Palmtree@@QBEHXZ ; Palmtree::Math::Core::Internal::Exception::GetStatusCode
  00079	89 45 e0	 mov	 DWORD PTR $T2[ebp], eax
  0007c	b8 00 00 00 00	 mov	 eax, $LN8@PMCCS_Equa
  00081	c3		 ret	 0

; 1117 :         }

  00082	b8 00 00 00 00	 mov	 eax, __tryend$_PMCCS_Equals_X_I@12$1
  00087	c3		 ret	 0
__tryend$_PMCCS_Equals_X_I@12$1:
  00088	c7 45 fc ff ff
	ff ff		 mov	 DWORD PTR __$EHRec$[ebp+12], -1
  0008f	eb 0a		 jmp	 SHORT $LN1@PMCCS_Equa
$LN8@PMCCS_Equa:
  00091	c7 45 fc ff ff
	ff ff		 mov	 DWORD PTR __$EHRec$[ebp+12], -1

; 1113 :         }
; 1114 :         catch (const Palmtree::Math::Core::Internal::Exception& ex)
; 1115 :         {
; 1116 :             return (ex.GetStatusCode());

  00098	8b 45 e0	 mov	 eax, DWORD PTR $T2[ebp]
$LN1@PMCCS_Equa:

; 1118 :     }

  0009b	52		 push	 edx
  0009c	8b cd		 mov	 ecx, ebp
  0009e	50		 push	 eax
  0009f	8d 15 00 00 00
	00		 lea	 edx, DWORD PTR $LN12@PMCCS_Equa
  000a5	e8 00 00 00 00	 call	 @_RTC_CheckStackVars@8
  000aa	58		 pop	 eax
  000ab	5a		 pop	 edx
  000ac	8b 4d f4	 mov	 ecx, DWORD PTR __$EHRec$[ebp+4]
  000af	64 89 0d 00 00
	00 00		 mov	 DWORD PTR fs:0, ecx
  000b6	59		 pop	 ecx
  000b7	5f		 pop	 edi
  000b8	5e		 pop	 esi
  000b9	5b		 pop	 ebx
  000ba	83 c4 20	 add	 esp, 32			; 00000020H
  000bd	3b ec		 cmp	 ebp, esp
  000bf	e8 00 00 00 00	 call	 __RTC_CheckEsp
  000c4	8b e5		 mov	 esp, ebp
  000c6	5d		 pop	 ebp
  000c7	c2 0c 00	 ret	 12			; 0000000cH
  000ca	66 90		 npad	 2
$LN12@PMCCS_Equa:
  000cc	01 00 00 00	 DD	 1
  000d0	00 00 00 00	 DD	 $LN11@PMCCS_Equa
$LN11@PMCCS_Equa:
  000d4	e8 ff ff ff	 DD	 -24			; ffffffe8H
  000d8	04 00 00 00	 DD	 4
  000dc	00 00 00 00	 DD	 $LN9@PMCCS_Equa
$LN9@PMCCS_Equa:
  000e0	65		 DB	 101			; 00000065H
  000e1	78		 DB	 120			; 00000078H
  000e2	00		 DB	 0
_TEXT	ENDS
text$x	SEGMENT
__ehhandler$_PMCCS_Equals_X_I@12:
  00000	8b 54 24 08	 mov	 edx, DWORD PTR [esp+8]
  00004	8d 42 0c	 lea	 eax, DWORD PTR [edx+12]
  00007	8b 4a dc	 mov	 ecx, DWORD PTR [edx-36]
  0000a	33 c8		 xor	 ecx, eax
  0000c	e8 00 00 00 00	 call	 @__security_check_cookie@4
  00011	b8 00 00 00 00	 mov	 eax, OFFSET __ehfuncinfo$_PMCCS_Equals_X_I@12
  00016	e9 00 00 00 00	 jmp	 ___CxxFrameHandler3
text$x	ENDS
_PMCCS_Equals_X_I@12 ENDP
; Function compile flags: /Odtp /RTCsu
; File z:\sources\lunor\repos\rougemeilland\palmtree.math.core.uint\palmtree.math.core.uint\pmc_interface_csharp.cpp
_TEXT	SEGMENT
$T2 = -32						; size = 4
_ex$3 = -24						; size = 4
__$EHRec$ = -16						; size = 16
_u$ = 8							; size = 8
_v$ = 16						; size = 4
_w$ = 20						; size = 4
_PMCCS_Equals_L_X@16 PROC

; 1091 :     {

  00000	55		 push	 ebp
  00001	8b ec		 mov	 ebp, esp
  00003	6a ff		 push	 -1
  00005	68 00 00 00 00	 push	 __ehhandler$_PMCCS_Equals_L_X@16
  0000a	64 a1 00 00 00
	00		 mov	 eax, DWORD PTR fs:0
  00010	50		 push	 eax
  00011	51		 push	 ecx
  00012	83 ec 10	 sub	 esp, 16			; 00000010H
  00015	53		 push	 ebx
  00016	56		 push	 esi
  00017	57		 push	 edi
  00018	b8 cc cc cc cc	 mov	 eax, -858993460		; ccccccccH
  0001d	89 45 e0	 mov	 DWORD PTR [ebp-32], eax
  00020	89 45 e4	 mov	 DWORD PTR [ebp-28], eax
  00023	89 45 e8	 mov	 DWORD PTR [ebp-24], eax
  00026	89 45 ec	 mov	 DWORD PTR [ebp-20], eax
  00029	a1 00 00 00 00	 mov	 eax, DWORD PTR ___security_cookie
  0002e	33 c5		 xor	 eax, ebp
  00030	50		 push	 eax
  00031	8d 45 f4	 lea	 eax, DWORD PTR __$EHRec$[ebp+4]
  00034	64 a3 00 00 00
	00		 mov	 DWORD PTR fs:0, eax
  0003a	89 65 f0	 mov	 DWORD PTR __$EHRec$[ebp], esp
  0003d	b9 00 00 00 00	 mov	 ecx, OFFSET __C21BA676_pmc_interface_csharp@cpp
  00042	e8 00 00 00 00	 call	 @__CheckForDebuggerJustMyCode@4

; 1092 :         if (w == nullptr)

  00047	83 7d 14 00	 cmp	 DWORD PTR _w$[ebp], 0
  0004b	75 07		 jne	 SHORT $LN2@PMCCS_Equa

; 1093 :             return (PMC_STATUS_ARGUMENT_NULL_ERROR);

  0004d	b8 fe ff ff ff	 mov	 eax, -2			; fffffffeH
  00052	eb 4b		 jmp	 SHORT $LN1@PMCCS_Equa
$LN2@PMCCS_Equa:

; 1094 :         try

  00054	c7 45 fc 00 00
	00 00		 mov	 DWORD PTR __$EHRec$[ebp+12], 0

; 1095 :         {
; 1096 :             *w = PMC_Equals_L_X(u, v);

  0005b	8b 45 10	 mov	 eax, DWORD PTR _v$[ebp]
  0005e	50		 push	 eax
  0005f	8b 4d 0c	 mov	 ecx, DWORD PTR _u$[ebp+4]
  00062	51		 push	 ecx
  00063	8b 55 08	 mov	 edx, DWORD PTR _u$[ebp]
  00066	52		 push	 edx
  00067	e8 00 00 00 00	 call	 ?PMC_Equals_L_X@Internal@Core@Math@Palmtree@@YGI_KPAU__tag_PMC_HANDLE_UINT@1234@@Z ; Palmtree::Math::Core::Internal::PMC_Equals_L_X
  0006c	8b 4d 14	 mov	 ecx, DWORD PTR _w$[ebp]
  0006f	89 01		 mov	 DWORD PTR [ecx], eax

; 1097 :             return (PMC_STATUS_OK);

  00071	33 c0		 xor	 eax, eax
  00073	eb 2a		 jmp	 SHORT $LN1@PMCCS_Equa
__catch$_PMCCS_Equals_L_X@16$0:

; 1098 :         }
; 1099 :         catch (const Palmtree::Math::Core::Internal::Exception& ex)
; 1100 :         {
; 1101 :             return (ex.GetStatusCode());

  00075	8b 4d e8	 mov	 ecx, DWORD PTR _ex$3[ebp]
  00078	e8 00 00 00 00	 call	 ?GetStatusCode@Exception@Internal@Core@Math@Palmtree@@QBEHXZ ; Palmtree::Math::Core::Internal::Exception::GetStatusCode
  0007d	89 45 e0	 mov	 DWORD PTR $T2[ebp], eax
  00080	b8 00 00 00 00	 mov	 eax, $LN8@PMCCS_Equa
  00085	c3		 ret	 0

; 1102 :         }

  00086	b8 00 00 00 00	 mov	 eax, __tryend$_PMCCS_Equals_L_X@16$1
  0008b	c3		 ret	 0
__tryend$_PMCCS_Equals_L_X@16$1:
  0008c	c7 45 fc ff ff
	ff ff		 mov	 DWORD PTR __$EHRec$[ebp+12], -1
  00093	eb 0a		 jmp	 SHORT $LN1@PMCCS_Equa
$LN8@PMCCS_Equa:
  00095	c7 45 fc ff ff
	ff ff		 mov	 DWORD PTR __$EHRec$[ebp+12], -1

; 1098 :         }
; 1099 :         catch (const Palmtree::Math::Core::Internal::Exception& ex)
; 1100 :         {
; 1101 :             return (ex.GetStatusCode());

  0009c	8b 45 e0	 mov	 eax, DWORD PTR $T2[ebp]
$LN1@PMCCS_Equa:

; 1103 :     }

  0009f	52		 push	 edx
  000a0	8b cd		 mov	 ecx, ebp
  000a2	50		 push	 eax
  000a3	8d 15 00 00 00
	00		 lea	 edx, DWORD PTR $LN12@PMCCS_Equa
  000a9	e8 00 00 00 00	 call	 @_RTC_CheckStackVars@8
  000ae	58		 pop	 eax
  000af	5a		 pop	 edx
  000b0	8b 4d f4	 mov	 ecx, DWORD PTR __$EHRec$[ebp+4]
  000b3	64 89 0d 00 00
	00 00		 mov	 DWORD PTR fs:0, ecx
  000ba	59		 pop	 ecx
  000bb	5f		 pop	 edi
  000bc	5e		 pop	 esi
  000bd	5b		 pop	 ebx
  000be	83 c4 20	 add	 esp, 32			; 00000020H
  000c1	3b ec		 cmp	 ebp, esp
  000c3	e8 00 00 00 00	 call	 __RTC_CheckEsp
  000c8	8b e5		 mov	 esp, ebp
  000ca	5d		 pop	 ebp
  000cb	c2 10 00	 ret	 16			; 00000010H
  000ce	66 90		 npad	 2
$LN12@PMCCS_Equa:
  000d0	01 00 00 00	 DD	 1
  000d4	00 00 00 00	 DD	 $LN11@PMCCS_Equa
$LN11@PMCCS_Equa:
  000d8	e8 ff ff ff	 DD	 -24			; ffffffe8H
  000dc	04 00 00 00	 DD	 4
  000e0	00 00 00 00	 DD	 $LN9@PMCCS_Equa
$LN9@PMCCS_Equa:
  000e4	65		 DB	 101			; 00000065H
  000e5	78		 DB	 120			; 00000078H
  000e6	00		 DB	 0
_TEXT	ENDS
text$x	SEGMENT
__ehhandler$_PMCCS_Equals_L_X@16:
  00000	8b 54 24 08	 mov	 edx, DWORD PTR [esp+8]
  00004	8d 42 0c	 lea	 eax, DWORD PTR [edx+12]
  00007	8b 4a dc	 mov	 ecx, DWORD PTR [edx-36]
  0000a	33 c8		 xor	 ecx, eax
  0000c	e8 00 00 00 00	 call	 @__security_check_cookie@4
  00011	b8 00 00 00 00	 mov	 eax, OFFSET __ehfuncinfo$_PMCCS_Equals_L_X@16
  00016	e9 00 00 00 00	 jmp	 ___CxxFrameHandler3
text$x	ENDS
_PMCCS_Equals_L_X@16 ENDP
; Function compile flags: /Odtp /RTCsu
; File z:\sources\lunor\repos\rougemeilland\palmtree.math.core.uint\palmtree.math.core.uint\pmc_interface_csharp.cpp
_TEXT	SEGMENT
$T2 = -32						; size = 4
_ex$3 = -24						; size = 4
__$EHRec$ = -16						; size = 16
_u$ = 8							; size = 4
_v$ = 12						; size = 4
_w$ = 16						; size = 4
_PMCCS_Equals_I_X@12 PROC

; 1076 :     {

  00000	55		 push	 ebp
  00001	8b ec		 mov	 ebp, esp
  00003	6a ff		 push	 -1
  00005	68 00 00 00 00	 push	 __ehhandler$_PMCCS_Equals_I_X@12
  0000a	64 a1 00 00 00
	00		 mov	 eax, DWORD PTR fs:0
  00010	50		 push	 eax
  00011	51		 push	 ecx
  00012	83 ec 10	 sub	 esp, 16			; 00000010H
  00015	53		 push	 ebx
  00016	56		 push	 esi
  00017	57		 push	 edi
  00018	b8 cc cc cc cc	 mov	 eax, -858993460		; ccccccccH
  0001d	89 45 e0	 mov	 DWORD PTR [ebp-32], eax
  00020	89 45 e4	 mov	 DWORD PTR [ebp-28], eax
  00023	89 45 e8	 mov	 DWORD PTR [ebp-24], eax
  00026	89 45 ec	 mov	 DWORD PTR [ebp-20], eax
  00029	a1 00 00 00 00	 mov	 eax, DWORD PTR ___security_cookie
  0002e	33 c5		 xor	 eax, ebp
  00030	50		 push	 eax
  00031	8d 45 f4	 lea	 eax, DWORD PTR __$EHRec$[ebp+4]
  00034	64 a3 00 00 00
	00		 mov	 DWORD PTR fs:0, eax
  0003a	89 65 f0	 mov	 DWORD PTR __$EHRec$[ebp], esp
  0003d	b9 00 00 00 00	 mov	 ecx, OFFSET __C21BA676_pmc_interface_csharp@cpp
  00042	e8 00 00 00 00	 call	 @__CheckForDebuggerJustMyCode@4

; 1077 :         if (w == nullptr)

  00047	83 7d 10 00	 cmp	 DWORD PTR _w$[ebp], 0
  0004b	75 07		 jne	 SHORT $LN2@PMCCS_Equa

; 1078 :             return (PMC_STATUS_ARGUMENT_NULL_ERROR);

  0004d	b8 fe ff ff ff	 mov	 eax, -2			; fffffffeH
  00052	eb 47		 jmp	 SHORT $LN1@PMCCS_Equa
$LN2@PMCCS_Equa:

; 1079 :         try

  00054	c7 45 fc 00 00
	00 00		 mov	 DWORD PTR __$EHRec$[ebp+12], 0

; 1080 :         {
; 1081 :             *w = PMC_Equals_I_X(u, v);

  0005b	8b 45 0c	 mov	 eax, DWORD PTR _v$[ebp]
  0005e	50		 push	 eax
  0005f	8b 4d 08	 mov	 ecx, DWORD PTR _u$[ebp]
  00062	51		 push	 ecx
  00063	e8 00 00 00 00	 call	 ?PMC_Equals_I_X@Internal@Core@Math@Palmtree@@YGIIPAU__tag_PMC_HANDLE_UINT@1234@@Z ; Palmtree::Math::Core::Internal::PMC_Equals_I_X
  00068	8b 55 10	 mov	 edx, DWORD PTR _w$[ebp]
  0006b	89 02		 mov	 DWORD PTR [edx], eax

; 1082 :             return (PMC_STATUS_OK);

  0006d	33 c0		 xor	 eax, eax
  0006f	eb 2a		 jmp	 SHORT $LN1@PMCCS_Equa
__catch$_PMCCS_Equals_I_X@12$0:

; 1083 :         }
; 1084 :         catch (const Palmtree::Math::Core::Internal::Exception& ex)
; 1085 :         {
; 1086 :             return (ex.GetStatusCode());

  00071	8b 4d e8	 mov	 ecx, DWORD PTR _ex$3[ebp]
  00074	e8 00 00 00 00	 call	 ?GetStatusCode@Exception@Internal@Core@Math@Palmtree@@QBEHXZ ; Palmtree::Math::Core::Internal::Exception::GetStatusCode
  00079	89 45 e0	 mov	 DWORD PTR $T2[ebp], eax
  0007c	b8 00 00 00 00	 mov	 eax, $LN8@PMCCS_Equa
  00081	c3		 ret	 0

; 1087 :         }

  00082	b8 00 00 00 00	 mov	 eax, __tryend$_PMCCS_Equals_I_X@12$1
  00087	c3		 ret	 0
__tryend$_PMCCS_Equals_I_X@12$1:
  00088	c7 45 fc ff ff
	ff ff		 mov	 DWORD PTR __$EHRec$[ebp+12], -1
  0008f	eb 0a		 jmp	 SHORT $LN1@PMCCS_Equa
$LN8@PMCCS_Equa:
  00091	c7 45 fc ff ff
	ff ff		 mov	 DWORD PTR __$EHRec$[ebp+12], -1

; 1083 :         }
; 1084 :         catch (const Palmtree::Math::Core::Internal::Exception& ex)
; 1085 :         {
; 1086 :             return (ex.GetStatusCode());

  00098	8b 45 e0	 mov	 eax, DWORD PTR $T2[ebp]
$LN1@PMCCS_Equa:

; 1088 :     }

  0009b	52		 push	 edx
  0009c	8b cd		 mov	 ecx, ebp
  0009e	50		 push	 eax
  0009f	8d 15 00 00 00
	00		 lea	 edx, DWORD PTR $LN12@PMCCS_Equa
  000a5	e8 00 00 00 00	 call	 @_RTC_CheckStackVars@8
  000aa	58		 pop	 eax
  000ab	5a		 pop	 edx
  000ac	8b 4d f4	 mov	 ecx, DWORD PTR __$EHRec$[ebp+4]
  000af	64 89 0d 00 00
	00 00		 mov	 DWORD PTR fs:0, ecx
  000b6	59		 pop	 ecx
  000b7	5f		 pop	 edi
  000b8	5e		 pop	 esi
  000b9	5b		 pop	 ebx
  000ba	83 c4 20	 add	 esp, 32			; 00000020H
  000bd	3b ec		 cmp	 ebp, esp
  000bf	e8 00 00 00 00	 call	 __RTC_CheckEsp
  000c4	8b e5		 mov	 esp, ebp
  000c6	5d		 pop	 ebp
  000c7	c2 0c 00	 ret	 12			; 0000000cH
  000ca	66 90		 npad	 2
$LN12@PMCCS_Equa:
  000cc	01 00 00 00	 DD	 1
  000d0	00 00 00 00	 DD	 $LN11@PMCCS_Equa
$LN11@PMCCS_Equa:
  000d4	e8 ff ff ff	 DD	 -24			; ffffffe8H
  000d8	04 00 00 00	 DD	 4
  000dc	00 00 00 00	 DD	 $LN9@PMCCS_Equa
$LN9@PMCCS_Equa:
  000e0	65		 DB	 101			; 00000065H
  000e1	78		 DB	 120			; 00000078H
  000e2	00		 DB	 0
_TEXT	ENDS
text$x	SEGMENT
__ehhandler$_PMCCS_Equals_I_X@12:
  00000	8b 54 24 08	 mov	 edx, DWORD PTR [esp+8]
  00004	8d 42 0c	 lea	 eax, DWORD PTR [edx+12]
  00007	8b 4a dc	 mov	 ecx, DWORD PTR [edx-36]
  0000a	33 c8		 xor	 ecx, eax
  0000c	e8 00 00 00 00	 call	 @__security_check_cookie@4
  00011	b8 00 00 00 00	 mov	 eax, OFFSET __ehfuncinfo$_PMCCS_Equals_I_X@12
  00016	e9 00 00 00 00	 jmp	 ___CxxFrameHandler3
text$x	ENDS
_PMCCS_Equals_I_X@12 ENDP
; Function compile flags: /Odtp /RTCsu
; File z:\sources\lunor\repos\rougemeilland\palmtree.math.core.uint\palmtree.math.core.uint\pmc_interface_csharp.cpp
_TEXT	SEGMENT
$T2 = -32						; size = 4
_ex$3 = -24						; size = 4
__$EHRec$ = -16						; size = 16
_u$ = 8							; size = 4
_v$ = 12						; size = 4
_w$ = 16						; size = 4
_PMCCS_Compare_X_X@12 PROC

; 1061 :     {

  00000	55		 push	 ebp
  00001	8b ec		 mov	 ebp, esp
  00003	6a ff		 push	 -1
  00005	68 00 00 00 00	 push	 __ehhandler$_PMCCS_Compare_X_X@12
  0000a	64 a1 00 00 00
	00		 mov	 eax, DWORD PTR fs:0
  00010	50		 push	 eax
  00011	51		 push	 ecx
  00012	83 ec 10	 sub	 esp, 16			; 00000010H
  00015	53		 push	 ebx
  00016	56		 push	 esi
  00017	57		 push	 edi
  00018	b8 cc cc cc cc	 mov	 eax, -858993460		; ccccccccH
  0001d	89 45 e0	 mov	 DWORD PTR [ebp-32], eax
  00020	89 45 e4	 mov	 DWORD PTR [ebp-28], eax
  00023	89 45 e8	 mov	 DWORD PTR [ebp-24], eax
  00026	89 45 ec	 mov	 DWORD PTR [ebp-20], eax
  00029	a1 00 00 00 00	 mov	 eax, DWORD PTR ___security_cookie
  0002e	33 c5		 xor	 eax, ebp
  00030	50		 push	 eax
  00031	8d 45 f4	 lea	 eax, DWORD PTR __$EHRec$[ebp+4]
  00034	64 a3 00 00 00
	00		 mov	 DWORD PTR fs:0, eax
  0003a	89 65 f0	 mov	 DWORD PTR __$EHRec$[ebp], esp
  0003d	b9 00 00 00 00	 mov	 ecx, OFFSET __C21BA676_pmc_interface_csharp@cpp
  00042	e8 00 00 00 00	 call	 @__CheckForDebuggerJustMyCode@4

; 1062 :         if (w == nullptr)

  00047	83 7d 10 00	 cmp	 DWORD PTR _w$[ebp], 0
  0004b	75 07		 jne	 SHORT $LN2@PMCCS_Comp

; 1063 :             return (PMC_STATUS_ARGUMENT_NULL_ERROR);

  0004d	b8 fe ff ff ff	 mov	 eax, -2			; fffffffeH
  00052	eb 47		 jmp	 SHORT $LN1@PMCCS_Comp
$LN2@PMCCS_Comp:

; 1064 :         try

  00054	c7 45 fc 00 00
	00 00		 mov	 DWORD PTR __$EHRec$[ebp+12], 0

; 1065 :         {
; 1066 :             *w = PMC_Compare_X_X(u, v);

  0005b	8b 45 0c	 mov	 eax, DWORD PTR _v$[ebp]
  0005e	50		 push	 eax
  0005f	8b 4d 08	 mov	 ecx, DWORD PTR _u$[ebp]
  00062	51		 push	 ecx
  00063	e8 00 00 00 00	 call	 ?PMC_Compare_X_X@Internal@Core@Math@Palmtree@@YGHPAU__tag_PMC_HANDLE_UINT@1234@0@Z ; Palmtree::Math::Core::Internal::PMC_Compare_X_X
  00068	8b 55 10	 mov	 edx, DWORD PTR _w$[ebp]
  0006b	89 02		 mov	 DWORD PTR [edx], eax

; 1067 :             return (PMC_STATUS_OK);

  0006d	33 c0		 xor	 eax, eax
  0006f	eb 2a		 jmp	 SHORT $LN1@PMCCS_Comp
__catch$_PMCCS_Compare_X_X@12$0:

; 1068 :         }
; 1069 :         catch (const Palmtree::Math::Core::Internal::Exception& ex)
; 1070 :         {
; 1071 :             return (ex.GetStatusCode());

  00071	8b 4d e8	 mov	 ecx, DWORD PTR _ex$3[ebp]
  00074	e8 00 00 00 00	 call	 ?GetStatusCode@Exception@Internal@Core@Math@Palmtree@@QBEHXZ ; Palmtree::Math::Core::Internal::Exception::GetStatusCode
  00079	89 45 e0	 mov	 DWORD PTR $T2[ebp], eax
  0007c	b8 00 00 00 00	 mov	 eax, $LN8@PMCCS_Comp
  00081	c3		 ret	 0

; 1072 :         }

  00082	b8 00 00 00 00	 mov	 eax, __tryend$_PMCCS_Compare_X_X@12$1
  00087	c3		 ret	 0
__tryend$_PMCCS_Compare_X_X@12$1:
  00088	c7 45 fc ff ff
	ff ff		 mov	 DWORD PTR __$EHRec$[ebp+12], -1
  0008f	eb 0a		 jmp	 SHORT $LN1@PMCCS_Comp
$LN8@PMCCS_Comp:
  00091	c7 45 fc ff ff
	ff ff		 mov	 DWORD PTR __$EHRec$[ebp+12], -1

; 1068 :         }
; 1069 :         catch (const Palmtree::Math::Core::Internal::Exception& ex)
; 1070 :         {
; 1071 :             return (ex.GetStatusCode());

  00098	8b 45 e0	 mov	 eax, DWORD PTR $T2[ebp]
$LN1@PMCCS_Comp:

; 1073 :     }

  0009b	52		 push	 edx
  0009c	8b cd		 mov	 ecx, ebp
  0009e	50		 push	 eax
  0009f	8d 15 00 00 00
	00		 lea	 edx, DWORD PTR $LN12@PMCCS_Comp
  000a5	e8 00 00 00 00	 call	 @_RTC_CheckStackVars@8
  000aa	58		 pop	 eax
  000ab	5a		 pop	 edx
  000ac	8b 4d f4	 mov	 ecx, DWORD PTR __$EHRec$[ebp+4]
  000af	64 89 0d 00 00
	00 00		 mov	 DWORD PTR fs:0, ecx
  000b6	59		 pop	 ecx
  000b7	5f		 pop	 edi
  000b8	5e		 pop	 esi
  000b9	5b		 pop	 ebx
  000ba	83 c4 20	 add	 esp, 32			; 00000020H
  000bd	3b ec		 cmp	 ebp, esp
  000bf	e8 00 00 00 00	 call	 __RTC_CheckEsp
  000c4	8b e5		 mov	 esp, ebp
  000c6	5d		 pop	 ebp
  000c7	c2 0c 00	 ret	 12			; 0000000cH
  000ca	66 90		 npad	 2
$LN12@PMCCS_Comp:
  000cc	01 00 00 00	 DD	 1
  000d0	00 00 00 00	 DD	 $LN11@PMCCS_Comp
$LN11@PMCCS_Comp:
  000d4	e8 ff ff ff	 DD	 -24			; ffffffe8H
  000d8	04 00 00 00	 DD	 4
  000dc	00 00 00 00	 DD	 $LN9@PMCCS_Comp
$LN9@PMCCS_Comp:
  000e0	65		 DB	 101			; 00000065H
  000e1	78		 DB	 120			; 00000078H
  000e2	00		 DB	 0
_TEXT	ENDS
text$x	SEGMENT
__ehhandler$_PMCCS_Compare_X_X@12:
  00000	8b 54 24 08	 mov	 edx, DWORD PTR [esp+8]
  00004	8d 42 0c	 lea	 eax, DWORD PTR [edx+12]
  00007	8b 4a dc	 mov	 ecx, DWORD PTR [edx-36]
  0000a	33 c8		 xor	 ecx, eax
  0000c	e8 00 00 00 00	 call	 @__security_check_cookie@4
  00011	b8 00 00 00 00	 mov	 eax, OFFSET __ehfuncinfo$_PMCCS_Compare_X_X@12
  00016	e9 00 00 00 00	 jmp	 ___CxxFrameHandler3
text$x	ENDS
_PMCCS_Compare_X_X@12 ENDP
; Function compile flags: /Odtp /RTCsu
; File z:\sources\lunor\repos\rougemeilland\palmtree.math.core.uint\palmtree.math.core.uint\pmc_interface_csharp.cpp
_TEXT	SEGMENT
$T2 = -32						; size = 4
_ex$3 = -24						; size = 4
__$EHRec$ = -16						; size = 16
_u$ = 8							; size = 4
_v$ = 12						; size = 8
_w$ = 20						; size = 4
_PMCCS_Compare_X_L@16 PROC

; 1046 :     {

  00000	55		 push	 ebp
  00001	8b ec		 mov	 ebp, esp
  00003	6a ff		 push	 -1
  00005	68 00 00 00 00	 push	 __ehhandler$_PMCCS_Compare_X_L@16
  0000a	64 a1 00 00 00
	00		 mov	 eax, DWORD PTR fs:0
  00010	50		 push	 eax
  00011	51		 push	 ecx
  00012	83 ec 10	 sub	 esp, 16			; 00000010H
  00015	53		 push	 ebx
  00016	56		 push	 esi
  00017	57		 push	 edi
  00018	b8 cc cc cc cc	 mov	 eax, -858993460		; ccccccccH
  0001d	89 45 e0	 mov	 DWORD PTR [ebp-32], eax
  00020	89 45 e4	 mov	 DWORD PTR [ebp-28], eax
  00023	89 45 e8	 mov	 DWORD PTR [ebp-24], eax
  00026	89 45 ec	 mov	 DWORD PTR [ebp-20], eax
  00029	a1 00 00 00 00	 mov	 eax, DWORD PTR ___security_cookie
  0002e	33 c5		 xor	 eax, ebp
  00030	50		 push	 eax
  00031	8d 45 f4	 lea	 eax, DWORD PTR __$EHRec$[ebp+4]
  00034	64 a3 00 00 00
	00		 mov	 DWORD PTR fs:0, eax
  0003a	89 65 f0	 mov	 DWORD PTR __$EHRec$[ebp], esp
  0003d	b9 00 00 00 00	 mov	 ecx, OFFSET __C21BA676_pmc_interface_csharp@cpp
  00042	e8 00 00 00 00	 call	 @__CheckForDebuggerJustMyCode@4

; 1047 :         if (w == nullptr)

  00047	83 7d 14 00	 cmp	 DWORD PTR _w$[ebp], 0
  0004b	75 07		 jne	 SHORT $LN2@PMCCS_Comp

; 1048 :             return (PMC_STATUS_ARGUMENT_NULL_ERROR);

  0004d	b8 fe ff ff ff	 mov	 eax, -2			; fffffffeH
  00052	eb 4b		 jmp	 SHORT $LN1@PMCCS_Comp
$LN2@PMCCS_Comp:

; 1049 :         try

  00054	c7 45 fc 00 00
	00 00		 mov	 DWORD PTR __$EHRec$[ebp+12], 0

; 1050 :         {
; 1051 :             *w = PMC_Compare_X_L(u, v);

  0005b	8b 45 10	 mov	 eax, DWORD PTR _v$[ebp+4]
  0005e	50		 push	 eax
  0005f	8b 4d 0c	 mov	 ecx, DWORD PTR _v$[ebp]
  00062	51		 push	 ecx
  00063	8b 55 08	 mov	 edx, DWORD PTR _u$[ebp]
  00066	52		 push	 edx
  00067	e8 00 00 00 00	 call	 ?PMC_Compare_X_L@Internal@Core@Math@Palmtree@@YGHPAU__tag_PMC_HANDLE_UINT@1234@_K@Z ; Palmtree::Math::Core::Internal::PMC_Compare_X_L
  0006c	8b 4d 14	 mov	 ecx, DWORD PTR _w$[ebp]
  0006f	89 01		 mov	 DWORD PTR [ecx], eax

; 1052 :             return (PMC_STATUS_OK);

  00071	33 c0		 xor	 eax, eax
  00073	eb 2a		 jmp	 SHORT $LN1@PMCCS_Comp
__catch$_PMCCS_Compare_X_L@16$0:

; 1053 :         }
; 1054 :         catch (const Palmtree::Math::Core::Internal::Exception& ex)
; 1055 :         {
; 1056 :             return (ex.GetStatusCode());

  00075	8b 4d e8	 mov	 ecx, DWORD PTR _ex$3[ebp]
  00078	e8 00 00 00 00	 call	 ?GetStatusCode@Exception@Internal@Core@Math@Palmtree@@QBEHXZ ; Palmtree::Math::Core::Internal::Exception::GetStatusCode
  0007d	89 45 e0	 mov	 DWORD PTR $T2[ebp], eax
  00080	b8 00 00 00 00	 mov	 eax, $LN8@PMCCS_Comp
  00085	c3		 ret	 0

; 1057 :         }

  00086	b8 00 00 00 00	 mov	 eax, __tryend$_PMCCS_Compare_X_L@16$1
  0008b	c3		 ret	 0
__tryend$_PMCCS_Compare_X_L@16$1:
  0008c	c7 45 fc ff ff
	ff ff		 mov	 DWORD PTR __$EHRec$[ebp+12], -1
  00093	eb 0a		 jmp	 SHORT $LN1@PMCCS_Comp
$LN8@PMCCS_Comp:
  00095	c7 45 fc ff ff
	ff ff		 mov	 DWORD PTR __$EHRec$[ebp+12], -1

; 1053 :         }
; 1054 :         catch (const Palmtree::Math::Core::Internal::Exception& ex)
; 1055 :         {
; 1056 :             return (ex.GetStatusCode());

  0009c	8b 45 e0	 mov	 eax, DWORD PTR $T2[ebp]
$LN1@PMCCS_Comp:

; 1058 :     }

  0009f	52		 push	 edx
  000a0	8b cd		 mov	 ecx, ebp
  000a2	50		 push	 eax
  000a3	8d 15 00 00 00
	00		 lea	 edx, DWORD PTR $LN12@PMCCS_Comp
  000a9	e8 00 00 00 00	 call	 @_RTC_CheckStackVars@8
  000ae	58		 pop	 eax
  000af	5a		 pop	 edx
  000b0	8b 4d f4	 mov	 ecx, DWORD PTR __$EHRec$[ebp+4]
  000b3	64 89 0d 00 00
	00 00		 mov	 DWORD PTR fs:0, ecx
  000ba	59		 pop	 ecx
  000bb	5f		 pop	 edi
  000bc	5e		 pop	 esi
  000bd	5b		 pop	 ebx
  000be	83 c4 20	 add	 esp, 32			; 00000020H
  000c1	3b ec		 cmp	 ebp, esp
  000c3	e8 00 00 00 00	 call	 __RTC_CheckEsp
  000c8	8b e5		 mov	 esp, ebp
  000ca	5d		 pop	 ebp
  000cb	c2 10 00	 ret	 16			; 00000010H
  000ce	66 90		 npad	 2
$LN12@PMCCS_Comp:
  000d0	01 00 00 00	 DD	 1
  000d4	00 00 00 00	 DD	 $LN11@PMCCS_Comp
$LN11@PMCCS_Comp:
  000d8	e8 ff ff ff	 DD	 -24			; ffffffe8H
  000dc	04 00 00 00	 DD	 4
  000e0	00 00 00 00	 DD	 $LN9@PMCCS_Comp
$LN9@PMCCS_Comp:
  000e4	65		 DB	 101			; 00000065H
  000e5	78		 DB	 120			; 00000078H
  000e6	00		 DB	 0
_TEXT	ENDS
text$x	SEGMENT
__ehhandler$_PMCCS_Compare_X_L@16:
  00000	8b 54 24 08	 mov	 edx, DWORD PTR [esp+8]
  00004	8d 42 0c	 lea	 eax, DWORD PTR [edx+12]
  00007	8b 4a dc	 mov	 ecx, DWORD PTR [edx-36]
  0000a	33 c8		 xor	 ecx, eax
  0000c	e8 00 00 00 00	 call	 @__security_check_cookie@4
  00011	b8 00 00 00 00	 mov	 eax, OFFSET __ehfuncinfo$_PMCCS_Compare_X_L@16
  00016	e9 00 00 00 00	 jmp	 ___CxxFrameHandler3
text$x	ENDS
_PMCCS_Compare_X_L@16 ENDP
; Function compile flags: /Odtp /RTCsu
; File z:\sources\lunor\repos\rougemeilland\palmtree.math.core.uint\palmtree.math.core.uint\pmc_interface_csharp.cpp
_TEXT	SEGMENT
$T2 = -32						; size = 4
_ex$3 = -24						; size = 4
__$EHRec$ = -16						; size = 16
_u$ = 8							; size = 4
_v$ = 12						; size = 4
_w$ = 16						; size = 4
_PMCCS_Compare_X_I@12 PROC

; 1031 :     {

  00000	55		 push	 ebp
  00001	8b ec		 mov	 ebp, esp
  00003	6a ff		 push	 -1
  00005	68 00 00 00 00	 push	 __ehhandler$_PMCCS_Compare_X_I@12
  0000a	64 a1 00 00 00
	00		 mov	 eax, DWORD PTR fs:0
  00010	50		 push	 eax
  00011	51		 push	 ecx
  00012	83 ec 10	 sub	 esp, 16			; 00000010H
  00015	53		 push	 ebx
  00016	56		 push	 esi
  00017	57		 push	 edi
  00018	b8 cc cc cc cc	 mov	 eax, -858993460		; ccccccccH
  0001d	89 45 e0	 mov	 DWORD PTR [ebp-32], eax
  00020	89 45 e4	 mov	 DWORD PTR [ebp-28], eax
  00023	89 45 e8	 mov	 DWORD PTR [ebp-24], eax
  00026	89 45 ec	 mov	 DWORD PTR [ebp-20], eax
  00029	a1 00 00 00 00	 mov	 eax, DWORD PTR ___security_cookie
  0002e	33 c5		 xor	 eax, ebp
  00030	50		 push	 eax
  00031	8d 45 f4	 lea	 eax, DWORD PTR __$EHRec$[ebp+4]
  00034	64 a3 00 00 00
	00		 mov	 DWORD PTR fs:0, eax
  0003a	89 65 f0	 mov	 DWORD PTR __$EHRec$[ebp], esp
  0003d	b9 00 00 00 00	 mov	 ecx, OFFSET __C21BA676_pmc_interface_csharp@cpp
  00042	e8 00 00 00 00	 call	 @__CheckForDebuggerJustMyCode@4

; 1032 :         if (w == nullptr)

  00047	83 7d 10 00	 cmp	 DWORD PTR _w$[ebp], 0
  0004b	75 07		 jne	 SHORT $LN2@PMCCS_Comp

; 1033 :             return (PMC_STATUS_ARGUMENT_NULL_ERROR);

  0004d	b8 fe ff ff ff	 mov	 eax, -2			; fffffffeH
  00052	eb 47		 jmp	 SHORT $LN1@PMCCS_Comp
$LN2@PMCCS_Comp:

; 1034 :         try

  00054	c7 45 fc 00 00
	00 00		 mov	 DWORD PTR __$EHRec$[ebp+12], 0

; 1035 :         {
; 1036 :             *w = PMC_Compare_X_I(u, v);

  0005b	8b 45 0c	 mov	 eax, DWORD PTR _v$[ebp]
  0005e	50		 push	 eax
  0005f	8b 4d 08	 mov	 ecx, DWORD PTR _u$[ebp]
  00062	51		 push	 ecx
  00063	e8 00 00 00 00	 call	 ?PMC_Compare_X_I@Internal@Core@Math@Palmtree@@YGHPAU__tag_PMC_HANDLE_UINT@1234@I@Z ; Palmtree::Math::Core::Internal::PMC_Compare_X_I
  00068	8b 55 10	 mov	 edx, DWORD PTR _w$[ebp]
  0006b	89 02		 mov	 DWORD PTR [edx], eax

; 1037 :             return (PMC_STATUS_OK);

  0006d	33 c0		 xor	 eax, eax
  0006f	eb 2a		 jmp	 SHORT $LN1@PMCCS_Comp
__catch$_PMCCS_Compare_X_I@12$0:

; 1038 :         }
; 1039 :         catch (const Palmtree::Math::Core::Internal::Exception& ex)
; 1040 :         {
; 1041 :             return (ex.GetStatusCode());

  00071	8b 4d e8	 mov	 ecx, DWORD PTR _ex$3[ebp]
  00074	e8 00 00 00 00	 call	 ?GetStatusCode@Exception@Internal@Core@Math@Palmtree@@QBEHXZ ; Palmtree::Math::Core::Internal::Exception::GetStatusCode
  00079	89 45 e0	 mov	 DWORD PTR $T2[ebp], eax
  0007c	b8 00 00 00 00	 mov	 eax, $LN8@PMCCS_Comp
  00081	c3		 ret	 0

; 1042 :         }

  00082	b8 00 00 00 00	 mov	 eax, __tryend$_PMCCS_Compare_X_I@12$1
  00087	c3		 ret	 0
__tryend$_PMCCS_Compare_X_I@12$1:
  00088	c7 45 fc ff ff
	ff ff		 mov	 DWORD PTR __$EHRec$[ebp+12], -1
  0008f	eb 0a		 jmp	 SHORT $LN1@PMCCS_Comp
$LN8@PMCCS_Comp:
  00091	c7 45 fc ff ff
	ff ff		 mov	 DWORD PTR __$EHRec$[ebp+12], -1

; 1038 :         }
; 1039 :         catch (const Palmtree::Math::Core::Internal::Exception& ex)
; 1040 :         {
; 1041 :             return (ex.GetStatusCode());

  00098	8b 45 e0	 mov	 eax, DWORD PTR $T2[ebp]
$LN1@PMCCS_Comp:

; 1043 :     }

  0009b	52		 push	 edx
  0009c	8b cd		 mov	 ecx, ebp
  0009e	50		 push	 eax
  0009f	8d 15 00 00 00
	00		 lea	 edx, DWORD PTR $LN12@PMCCS_Comp
  000a5	e8 00 00 00 00	 call	 @_RTC_CheckStackVars@8
  000aa	58		 pop	 eax
  000ab	5a		 pop	 edx
  000ac	8b 4d f4	 mov	 ecx, DWORD PTR __$EHRec$[ebp+4]
  000af	64 89 0d 00 00
	00 00		 mov	 DWORD PTR fs:0, ecx
  000b6	59		 pop	 ecx
  000b7	5f		 pop	 edi
  000b8	5e		 pop	 esi
  000b9	5b		 pop	 ebx
  000ba	83 c4 20	 add	 esp, 32			; 00000020H
  000bd	3b ec		 cmp	 ebp, esp
  000bf	e8 00 00 00 00	 call	 __RTC_CheckEsp
  000c4	8b e5		 mov	 esp, ebp
  000c6	5d		 pop	 ebp
  000c7	c2 0c 00	 ret	 12			; 0000000cH
  000ca	66 90		 npad	 2
$LN12@PMCCS_Comp:
  000cc	01 00 00 00	 DD	 1
  000d0	00 00 00 00	 DD	 $LN11@PMCCS_Comp
$LN11@PMCCS_Comp:
  000d4	e8 ff ff ff	 DD	 -24			; ffffffe8H
  000d8	04 00 00 00	 DD	 4
  000dc	00 00 00 00	 DD	 $LN9@PMCCS_Comp
$LN9@PMCCS_Comp:
  000e0	65		 DB	 101			; 00000065H
  000e1	78		 DB	 120			; 00000078H
  000e2	00		 DB	 0
_TEXT	ENDS
text$x	SEGMENT
__ehhandler$_PMCCS_Compare_X_I@12:
  00000	8b 54 24 08	 mov	 edx, DWORD PTR [esp+8]
  00004	8d 42 0c	 lea	 eax, DWORD PTR [edx+12]
  00007	8b 4a dc	 mov	 ecx, DWORD PTR [edx-36]
  0000a	33 c8		 xor	 ecx, eax
  0000c	e8 00 00 00 00	 call	 @__security_check_cookie@4
  00011	b8 00 00 00 00	 mov	 eax, OFFSET __ehfuncinfo$_PMCCS_Compare_X_I@12
  00016	e9 00 00 00 00	 jmp	 ___CxxFrameHandler3
text$x	ENDS
_PMCCS_Compare_X_I@12 ENDP
; Function compile flags: /Odtp /RTCsu
; File z:\sources\lunor\repos\rougemeilland\palmtree.math.core.uint\palmtree.math.core.uint\pmc_interface_csharp.cpp
_TEXT	SEGMENT
$T2 = -32						; size = 4
_ex$3 = -24						; size = 4
__$EHRec$ = -16						; size = 16
_u$ = 8							; size = 8
_v$ = 16						; size = 4
_w$ = 20						; size = 4
_PMCCS_Compare_L_X@16 PROC

; 1016 :     {

  00000	55		 push	 ebp
  00001	8b ec		 mov	 ebp, esp
  00003	6a ff		 push	 -1
  00005	68 00 00 00 00	 push	 __ehhandler$_PMCCS_Compare_L_X@16
  0000a	64 a1 00 00 00
	00		 mov	 eax, DWORD PTR fs:0
  00010	50		 push	 eax
  00011	51		 push	 ecx
  00012	83 ec 10	 sub	 esp, 16			; 00000010H
  00015	53		 push	 ebx
  00016	56		 push	 esi
  00017	57		 push	 edi
  00018	b8 cc cc cc cc	 mov	 eax, -858993460		; ccccccccH
  0001d	89 45 e0	 mov	 DWORD PTR [ebp-32], eax
  00020	89 45 e4	 mov	 DWORD PTR [ebp-28], eax
  00023	89 45 e8	 mov	 DWORD PTR [ebp-24], eax
  00026	89 45 ec	 mov	 DWORD PTR [ebp-20], eax
  00029	a1 00 00 00 00	 mov	 eax, DWORD PTR ___security_cookie
  0002e	33 c5		 xor	 eax, ebp
  00030	50		 push	 eax
  00031	8d 45 f4	 lea	 eax, DWORD PTR __$EHRec$[ebp+4]
  00034	64 a3 00 00 00
	00		 mov	 DWORD PTR fs:0, eax
  0003a	89 65 f0	 mov	 DWORD PTR __$EHRec$[ebp], esp
  0003d	b9 00 00 00 00	 mov	 ecx, OFFSET __C21BA676_pmc_interface_csharp@cpp
  00042	e8 00 00 00 00	 call	 @__CheckForDebuggerJustMyCode@4

; 1017 :         if (w == nullptr)

  00047	83 7d 14 00	 cmp	 DWORD PTR _w$[ebp], 0
  0004b	75 07		 jne	 SHORT $LN2@PMCCS_Comp

; 1018 :             return (PMC_STATUS_ARGUMENT_NULL_ERROR);

  0004d	b8 fe ff ff ff	 mov	 eax, -2			; fffffffeH
  00052	eb 4b		 jmp	 SHORT $LN1@PMCCS_Comp
$LN2@PMCCS_Comp:

; 1019 :         try

  00054	c7 45 fc 00 00
	00 00		 mov	 DWORD PTR __$EHRec$[ebp+12], 0

; 1020 :         {
; 1021 :             *w = PMC_Compare_L_X(u, v);

  0005b	8b 45 10	 mov	 eax, DWORD PTR _v$[ebp]
  0005e	50		 push	 eax
  0005f	8b 4d 0c	 mov	 ecx, DWORD PTR _u$[ebp+4]
  00062	51		 push	 ecx
  00063	8b 55 08	 mov	 edx, DWORD PTR _u$[ebp]
  00066	52		 push	 edx
  00067	e8 00 00 00 00	 call	 ?PMC_Compare_L_X@Internal@Core@Math@Palmtree@@YGH_KPAU__tag_PMC_HANDLE_UINT@1234@@Z ; Palmtree::Math::Core::Internal::PMC_Compare_L_X
  0006c	8b 4d 14	 mov	 ecx, DWORD PTR _w$[ebp]
  0006f	89 01		 mov	 DWORD PTR [ecx], eax

; 1022 :             return (PMC_STATUS_OK);

  00071	33 c0		 xor	 eax, eax
  00073	eb 2a		 jmp	 SHORT $LN1@PMCCS_Comp
__catch$_PMCCS_Compare_L_X@16$0:

; 1023 :         }
; 1024 :         catch (const Palmtree::Math::Core::Internal::Exception& ex)
; 1025 :         {
; 1026 :             return (ex.GetStatusCode());

  00075	8b 4d e8	 mov	 ecx, DWORD PTR _ex$3[ebp]
  00078	e8 00 00 00 00	 call	 ?GetStatusCode@Exception@Internal@Core@Math@Palmtree@@QBEHXZ ; Palmtree::Math::Core::Internal::Exception::GetStatusCode
  0007d	89 45 e0	 mov	 DWORD PTR $T2[ebp], eax
  00080	b8 00 00 00 00	 mov	 eax, $LN8@PMCCS_Comp
  00085	c3		 ret	 0

; 1027 :         }

  00086	b8 00 00 00 00	 mov	 eax, __tryend$_PMCCS_Compare_L_X@16$1
  0008b	c3		 ret	 0
__tryend$_PMCCS_Compare_L_X@16$1:
  0008c	c7 45 fc ff ff
	ff ff		 mov	 DWORD PTR __$EHRec$[ebp+12], -1
  00093	eb 0a		 jmp	 SHORT $LN1@PMCCS_Comp
$LN8@PMCCS_Comp:
  00095	c7 45 fc ff ff
	ff ff		 mov	 DWORD PTR __$EHRec$[ebp+12], -1

; 1023 :         }
; 1024 :         catch (const Palmtree::Math::Core::Internal::Exception& ex)
; 1025 :         {
; 1026 :             return (ex.GetStatusCode());

  0009c	8b 45 e0	 mov	 eax, DWORD PTR $T2[ebp]
$LN1@PMCCS_Comp:

; 1028 :     }

  0009f	52		 push	 edx
  000a0	8b cd		 mov	 ecx, ebp
  000a2	50		 push	 eax
  000a3	8d 15 00 00 00
	00		 lea	 edx, DWORD PTR $LN12@PMCCS_Comp
  000a9	e8 00 00 00 00	 call	 @_RTC_CheckStackVars@8
  000ae	58		 pop	 eax
  000af	5a		 pop	 edx
  000b0	8b 4d f4	 mov	 ecx, DWORD PTR __$EHRec$[ebp+4]
  000b3	64 89 0d 00 00
	00 00		 mov	 DWORD PTR fs:0, ecx
  000ba	59		 pop	 ecx
  000bb	5f		 pop	 edi
  000bc	5e		 pop	 esi
  000bd	5b		 pop	 ebx
  000be	83 c4 20	 add	 esp, 32			; 00000020H
  000c1	3b ec		 cmp	 ebp, esp
  000c3	e8 00 00 00 00	 call	 __RTC_CheckEsp
  000c8	8b e5		 mov	 esp, ebp
  000ca	5d		 pop	 ebp
  000cb	c2 10 00	 ret	 16			; 00000010H
  000ce	66 90		 npad	 2
$LN12@PMCCS_Comp:
  000d0	01 00 00 00	 DD	 1
  000d4	00 00 00 00	 DD	 $LN11@PMCCS_Comp
$LN11@PMCCS_Comp:
  000d8	e8 ff ff ff	 DD	 -24			; ffffffe8H
  000dc	04 00 00 00	 DD	 4
  000e0	00 00 00 00	 DD	 $LN9@PMCCS_Comp
$LN9@PMCCS_Comp:
  000e4	65		 DB	 101			; 00000065H
  000e5	78		 DB	 120			; 00000078H
  000e6	00		 DB	 0
_TEXT	ENDS
text$x	SEGMENT
__ehhandler$_PMCCS_Compare_L_X@16:
  00000	8b 54 24 08	 mov	 edx, DWORD PTR [esp+8]
  00004	8d 42 0c	 lea	 eax, DWORD PTR [edx+12]
  00007	8b 4a dc	 mov	 ecx, DWORD PTR [edx-36]
  0000a	33 c8		 xor	 ecx, eax
  0000c	e8 00 00 00 00	 call	 @__security_check_cookie@4
  00011	b8 00 00 00 00	 mov	 eax, OFFSET __ehfuncinfo$_PMCCS_Compare_L_X@16
  00016	e9 00 00 00 00	 jmp	 ___CxxFrameHandler3
text$x	ENDS
_PMCCS_Compare_L_X@16 ENDP
; Function compile flags: /Odtp /RTCsu
; File z:\sources\lunor\repos\rougemeilland\palmtree.math.core.uint\palmtree.math.core.uint\pmc_interface_csharp.cpp
_TEXT	SEGMENT
$T2 = -32						; size = 4
_ex$3 = -24						; size = 4
__$EHRec$ = -16						; size = 16
_u$ = 8							; size = 4
_v$ = 12						; size = 4
_w$ = 16						; size = 4
_PMCCS_Compare_I_X@12 PROC

; 1001 :     {

  00000	55		 push	 ebp
  00001	8b ec		 mov	 ebp, esp
  00003	6a ff		 push	 -1
  00005	68 00 00 00 00	 push	 __ehhandler$_PMCCS_Compare_I_X@12
  0000a	64 a1 00 00 00
	00		 mov	 eax, DWORD PTR fs:0
  00010	50		 push	 eax
  00011	51		 push	 ecx
  00012	83 ec 10	 sub	 esp, 16			; 00000010H
  00015	53		 push	 ebx
  00016	56		 push	 esi
  00017	57		 push	 edi
  00018	b8 cc cc cc cc	 mov	 eax, -858993460		; ccccccccH
  0001d	89 45 e0	 mov	 DWORD PTR [ebp-32], eax
  00020	89 45 e4	 mov	 DWORD PTR [ebp-28], eax
  00023	89 45 e8	 mov	 DWORD PTR [ebp-24], eax
  00026	89 45 ec	 mov	 DWORD PTR [ebp-20], eax
  00029	a1 00 00 00 00	 mov	 eax, DWORD PTR ___security_cookie
  0002e	33 c5		 xor	 eax, ebp
  00030	50		 push	 eax
  00031	8d 45 f4	 lea	 eax, DWORD PTR __$EHRec$[ebp+4]
  00034	64 a3 00 00 00
	00		 mov	 DWORD PTR fs:0, eax
  0003a	89 65 f0	 mov	 DWORD PTR __$EHRec$[ebp], esp
  0003d	b9 00 00 00 00	 mov	 ecx, OFFSET __C21BA676_pmc_interface_csharp@cpp
  00042	e8 00 00 00 00	 call	 @__CheckForDebuggerJustMyCode@4

; 1002 :         if (w == nullptr)

  00047	83 7d 10 00	 cmp	 DWORD PTR _w$[ebp], 0
  0004b	75 07		 jne	 SHORT $LN2@PMCCS_Comp

; 1003 :             return (PMC_STATUS_ARGUMENT_NULL_ERROR);

  0004d	b8 fe ff ff ff	 mov	 eax, -2			; fffffffeH
  00052	eb 47		 jmp	 SHORT $LN1@PMCCS_Comp
$LN2@PMCCS_Comp:

; 1004 :         try

  00054	c7 45 fc 00 00
	00 00		 mov	 DWORD PTR __$EHRec$[ebp+12], 0

; 1005 :         {
; 1006 :             *w = PMC_Compare_I_X(u, v);

  0005b	8b 45 0c	 mov	 eax, DWORD PTR _v$[ebp]
  0005e	50		 push	 eax
  0005f	8b 4d 08	 mov	 ecx, DWORD PTR _u$[ebp]
  00062	51		 push	 ecx
  00063	e8 00 00 00 00	 call	 ?PMC_Compare_I_X@Internal@Core@Math@Palmtree@@YGHIPAU__tag_PMC_HANDLE_UINT@1234@@Z ; Palmtree::Math::Core::Internal::PMC_Compare_I_X
  00068	8b 55 10	 mov	 edx, DWORD PTR _w$[ebp]
  0006b	89 02		 mov	 DWORD PTR [edx], eax

; 1007 :             return (PMC_STATUS_OK);

  0006d	33 c0		 xor	 eax, eax
  0006f	eb 2a		 jmp	 SHORT $LN1@PMCCS_Comp
__catch$_PMCCS_Compare_I_X@12$0:

; 1008 :         }
; 1009 :         catch (const Palmtree::Math::Core::Internal::Exception& ex)
; 1010 :         {
; 1011 :             return (ex.GetStatusCode());

  00071	8b 4d e8	 mov	 ecx, DWORD PTR _ex$3[ebp]
  00074	e8 00 00 00 00	 call	 ?GetStatusCode@Exception@Internal@Core@Math@Palmtree@@QBEHXZ ; Palmtree::Math::Core::Internal::Exception::GetStatusCode
  00079	89 45 e0	 mov	 DWORD PTR $T2[ebp], eax
  0007c	b8 00 00 00 00	 mov	 eax, $LN8@PMCCS_Comp
  00081	c3		 ret	 0

; 1012 :         }

  00082	b8 00 00 00 00	 mov	 eax, __tryend$_PMCCS_Compare_I_X@12$1
  00087	c3		 ret	 0
__tryend$_PMCCS_Compare_I_X@12$1:
  00088	c7 45 fc ff ff
	ff ff		 mov	 DWORD PTR __$EHRec$[ebp+12], -1
  0008f	eb 0a		 jmp	 SHORT $LN1@PMCCS_Comp
$LN8@PMCCS_Comp:
  00091	c7 45 fc ff ff
	ff ff		 mov	 DWORD PTR __$EHRec$[ebp+12], -1

; 1008 :         }
; 1009 :         catch (const Palmtree::Math::Core::Internal::Exception& ex)
; 1010 :         {
; 1011 :             return (ex.GetStatusCode());

  00098	8b 45 e0	 mov	 eax, DWORD PTR $T2[ebp]
$LN1@PMCCS_Comp:

; 1013 :     }

  0009b	52		 push	 edx
  0009c	8b cd		 mov	 ecx, ebp
  0009e	50		 push	 eax
  0009f	8d 15 00 00 00
	00		 lea	 edx, DWORD PTR $LN12@PMCCS_Comp
  000a5	e8 00 00 00 00	 call	 @_RTC_CheckStackVars@8
  000aa	58		 pop	 eax
  000ab	5a		 pop	 edx
  000ac	8b 4d f4	 mov	 ecx, DWORD PTR __$EHRec$[ebp+4]
  000af	64 89 0d 00 00
	00 00		 mov	 DWORD PTR fs:0, ecx
  000b6	59		 pop	 ecx
  000b7	5f		 pop	 edi
  000b8	5e		 pop	 esi
  000b9	5b		 pop	 ebx
  000ba	83 c4 20	 add	 esp, 32			; 00000020H
  000bd	3b ec		 cmp	 ebp, esp
  000bf	e8 00 00 00 00	 call	 __RTC_CheckEsp
  000c4	8b e5		 mov	 esp, ebp
  000c6	5d		 pop	 ebp
  000c7	c2 0c 00	 ret	 12			; 0000000cH
  000ca	66 90		 npad	 2
$LN12@PMCCS_Comp:
  000cc	01 00 00 00	 DD	 1
  000d0	00 00 00 00	 DD	 $LN11@PMCCS_Comp
$LN11@PMCCS_Comp:
  000d4	e8 ff ff ff	 DD	 -24			; ffffffe8H
  000d8	04 00 00 00	 DD	 4
  000dc	00 00 00 00	 DD	 $LN9@PMCCS_Comp
$LN9@PMCCS_Comp:
  000e0	65		 DB	 101			; 00000065H
  000e1	78		 DB	 120			; 00000078H
  000e2	00		 DB	 0
_TEXT	ENDS
text$x	SEGMENT
__ehhandler$_PMCCS_Compare_I_X@12:
  00000	8b 54 24 08	 mov	 edx, DWORD PTR [esp+8]
  00004	8d 42 0c	 lea	 eax, DWORD PTR [edx+12]
  00007	8b 4a dc	 mov	 ecx, DWORD PTR [edx-36]
  0000a	33 c8		 xor	 ecx, eax
  0000c	e8 00 00 00 00	 call	 @__security_check_cookie@4
  00011	b8 00 00 00 00	 mov	 eax, OFFSET __ehfuncinfo$_PMCCS_Compare_I_X@12
  00016	e9 00 00 00 00	 jmp	 ___CxxFrameHandler3
text$x	ENDS
_PMCCS_Compare_I_X@12 ENDP
; Function compile flags: /Odtp /RTCsu
; File z:\sources\lunor\repos\rougemeilland\palmtree.math.core.uint\palmtree.math.core.uint\pmc_interface_csharp.cpp
_TEXT	SEGMENT
$T2 = -32						; size = 4
_ex$3 = -24						; size = 4
__$EHRec$ = -16						; size = 16
_u$ = 8							; size = 4
_v$ = 12						; size = 4
_w$ = 16						; size = 4
_PMCCS_ExclusiveOr_X_X@12 PROC

; 986  :     {

  00000	55		 push	 ebp
  00001	8b ec		 mov	 ebp, esp
  00003	6a ff		 push	 -1
  00005	68 00 00 00 00	 push	 __ehhandler$_PMCCS_ExclusiveOr_X_X@12
  0000a	64 a1 00 00 00
	00		 mov	 eax, DWORD PTR fs:0
  00010	50		 push	 eax
  00011	51		 push	 ecx
  00012	83 ec 10	 sub	 esp, 16			; 00000010H
  00015	53		 push	 ebx
  00016	56		 push	 esi
  00017	57		 push	 edi
  00018	b8 cc cc cc cc	 mov	 eax, -858993460		; ccccccccH
  0001d	89 45 e0	 mov	 DWORD PTR [ebp-32], eax
  00020	89 45 e4	 mov	 DWORD PTR [ebp-28], eax
  00023	89 45 e8	 mov	 DWORD PTR [ebp-24], eax
  00026	89 45 ec	 mov	 DWORD PTR [ebp-20], eax
  00029	a1 00 00 00 00	 mov	 eax, DWORD PTR ___security_cookie
  0002e	33 c5		 xor	 eax, ebp
  00030	50		 push	 eax
  00031	8d 45 f4	 lea	 eax, DWORD PTR __$EHRec$[ebp+4]
  00034	64 a3 00 00 00
	00		 mov	 DWORD PTR fs:0, eax
  0003a	89 65 f0	 mov	 DWORD PTR __$EHRec$[ebp], esp
  0003d	b9 00 00 00 00	 mov	 ecx, OFFSET __C21BA676_pmc_interface_csharp@cpp
  00042	e8 00 00 00 00	 call	 @__CheckForDebuggerJustMyCode@4

; 987  :         if (w == nullptr)

  00047	83 7d 10 00	 cmp	 DWORD PTR _w$[ebp], 0
  0004b	75 07		 jne	 SHORT $LN2@PMCCS_Excl

; 988  :             return (PMC_STATUS_ARGUMENT_NULL_ERROR);

  0004d	b8 fe ff ff ff	 mov	 eax, -2			; fffffffeH
  00052	eb 47		 jmp	 SHORT $LN1@PMCCS_Excl
$LN2@PMCCS_Excl:

; 989  :         try

  00054	c7 45 fc 00 00
	00 00		 mov	 DWORD PTR __$EHRec$[ebp+12], 0

; 990  :         {
; 991  :             *w = PMC_ExclusiveOr_X_X(u, v);

  0005b	8b 45 0c	 mov	 eax, DWORD PTR _v$[ebp]
  0005e	50		 push	 eax
  0005f	8b 4d 08	 mov	 ecx, DWORD PTR _u$[ebp]
  00062	51		 push	 ecx
  00063	e8 00 00 00 00	 call	 ?PMC_ExclusiveOr_X_X@Internal@Core@Math@Palmtree@@YGPAU__tag_PMC_HANDLE_UINT@1234@PAU51234@0@Z ; Palmtree::Math::Core::Internal::PMC_ExclusiveOr_X_X
  00068	8b 55 10	 mov	 edx, DWORD PTR _w$[ebp]
  0006b	89 02		 mov	 DWORD PTR [edx], eax

; 992  :             return (PMC_STATUS_OK);

  0006d	33 c0		 xor	 eax, eax
  0006f	eb 2a		 jmp	 SHORT $LN1@PMCCS_Excl
__catch$_PMCCS_ExclusiveOr_X_X@12$0:

; 993  :         }
; 994  :         catch (const Palmtree::Math::Core::Internal::Exception& ex)
; 995  :         {
; 996  :             return (ex.GetStatusCode());

  00071	8b 4d e8	 mov	 ecx, DWORD PTR _ex$3[ebp]
  00074	e8 00 00 00 00	 call	 ?GetStatusCode@Exception@Internal@Core@Math@Palmtree@@QBEHXZ ; Palmtree::Math::Core::Internal::Exception::GetStatusCode
  00079	89 45 e0	 mov	 DWORD PTR $T2[ebp], eax
  0007c	b8 00 00 00 00	 mov	 eax, $LN8@PMCCS_Excl
  00081	c3		 ret	 0

; 997  :         }

  00082	b8 00 00 00 00	 mov	 eax, __tryend$_PMCCS_ExclusiveOr_X_X@12$1
  00087	c3		 ret	 0
__tryend$_PMCCS_ExclusiveOr_X_X@12$1:
  00088	c7 45 fc ff ff
	ff ff		 mov	 DWORD PTR __$EHRec$[ebp+12], -1
  0008f	eb 0a		 jmp	 SHORT $LN1@PMCCS_Excl
$LN8@PMCCS_Excl:
  00091	c7 45 fc ff ff
	ff ff		 mov	 DWORD PTR __$EHRec$[ebp+12], -1

; 993  :         }
; 994  :         catch (const Palmtree::Math::Core::Internal::Exception& ex)
; 995  :         {
; 996  :             return (ex.GetStatusCode());

  00098	8b 45 e0	 mov	 eax, DWORD PTR $T2[ebp]
$LN1@PMCCS_Excl:

; 998  :     }

  0009b	52		 push	 edx
  0009c	8b cd		 mov	 ecx, ebp
  0009e	50		 push	 eax
  0009f	8d 15 00 00 00
	00		 lea	 edx, DWORD PTR $LN12@PMCCS_Excl
  000a5	e8 00 00 00 00	 call	 @_RTC_CheckStackVars@8
  000aa	58		 pop	 eax
  000ab	5a		 pop	 edx
  000ac	8b 4d f4	 mov	 ecx, DWORD PTR __$EHRec$[ebp+4]
  000af	64 89 0d 00 00
	00 00		 mov	 DWORD PTR fs:0, ecx
  000b6	59		 pop	 ecx
  000b7	5f		 pop	 edi
  000b8	5e		 pop	 esi
  000b9	5b		 pop	 ebx
  000ba	83 c4 20	 add	 esp, 32			; 00000020H
  000bd	3b ec		 cmp	 ebp, esp
  000bf	e8 00 00 00 00	 call	 __RTC_CheckEsp
  000c4	8b e5		 mov	 esp, ebp
  000c6	5d		 pop	 ebp
  000c7	c2 0c 00	 ret	 12			; 0000000cH
  000ca	66 90		 npad	 2
$LN12@PMCCS_Excl:
  000cc	01 00 00 00	 DD	 1
  000d0	00 00 00 00	 DD	 $LN11@PMCCS_Excl
$LN11@PMCCS_Excl:
  000d4	e8 ff ff ff	 DD	 -24			; ffffffe8H
  000d8	04 00 00 00	 DD	 4
  000dc	00 00 00 00	 DD	 $LN9@PMCCS_Excl
$LN9@PMCCS_Excl:
  000e0	65		 DB	 101			; 00000065H
  000e1	78		 DB	 120			; 00000078H
  000e2	00		 DB	 0
_TEXT	ENDS
text$x	SEGMENT
__ehhandler$_PMCCS_ExclusiveOr_X_X@12:
  00000	8b 54 24 08	 mov	 edx, DWORD PTR [esp+8]
  00004	8d 42 0c	 lea	 eax, DWORD PTR [edx+12]
  00007	8b 4a dc	 mov	 ecx, DWORD PTR [edx-36]
  0000a	33 c8		 xor	 ecx, eax
  0000c	e8 00 00 00 00	 call	 @__security_check_cookie@4
  00011	b8 00 00 00 00	 mov	 eax, OFFSET __ehfuncinfo$_PMCCS_ExclusiveOr_X_X@12
  00016	e9 00 00 00 00	 jmp	 ___CxxFrameHandler3
text$x	ENDS
_PMCCS_ExclusiveOr_X_X@12 ENDP
; Function compile flags: /Odtp /RTCsu
; File z:\sources\lunor\repos\rougemeilland\palmtree.math.core.uint\palmtree.math.core.uint\pmc_interface_csharp.cpp
_TEXT	SEGMENT
$T2 = -32						; size = 4
_ex$3 = -24						; size = 4
__$EHRec$ = -16						; size = 16
_u$ = 8							; size = 4
_v$ = 12						; size = 8
_w$ = 20						; size = 4
_PMCCS_ExclusiveOr_X_L@16 PROC

; 971  :     {

  00000	55		 push	 ebp
  00001	8b ec		 mov	 ebp, esp
  00003	6a ff		 push	 -1
  00005	68 00 00 00 00	 push	 __ehhandler$_PMCCS_ExclusiveOr_X_L@16
  0000a	64 a1 00 00 00
	00		 mov	 eax, DWORD PTR fs:0
  00010	50		 push	 eax
  00011	51		 push	 ecx
  00012	83 ec 10	 sub	 esp, 16			; 00000010H
  00015	53		 push	 ebx
  00016	56		 push	 esi
  00017	57		 push	 edi
  00018	b8 cc cc cc cc	 mov	 eax, -858993460		; ccccccccH
  0001d	89 45 e0	 mov	 DWORD PTR [ebp-32], eax
  00020	89 45 e4	 mov	 DWORD PTR [ebp-28], eax
  00023	89 45 e8	 mov	 DWORD PTR [ebp-24], eax
  00026	89 45 ec	 mov	 DWORD PTR [ebp-20], eax
  00029	a1 00 00 00 00	 mov	 eax, DWORD PTR ___security_cookie
  0002e	33 c5		 xor	 eax, ebp
  00030	50		 push	 eax
  00031	8d 45 f4	 lea	 eax, DWORD PTR __$EHRec$[ebp+4]
  00034	64 a3 00 00 00
	00		 mov	 DWORD PTR fs:0, eax
  0003a	89 65 f0	 mov	 DWORD PTR __$EHRec$[ebp], esp
  0003d	b9 00 00 00 00	 mov	 ecx, OFFSET __C21BA676_pmc_interface_csharp@cpp
  00042	e8 00 00 00 00	 call	 @__CheckForDebuggerJustMyCode@4

; 972  :         if (w == nullptr)

  00047	83 7d 14 00	 cmp	 DWORD PTR _w$[ebp], 0
  0004b	75 07		 jne	 SHORT $LN2@PMCCS_Excl

; 973  :             return (PMC_STATUS_ARGUMENT_NULL_ERROR);

  0004d	b8 fe ff ff ff	 mov	 eax, -2			; fffffffeH
  00052	eb 4b		 jmp	 SHORT $LN1@PMCCS_Excl
$LN2@PMCCS_Excl:

; 974  :         try

  00054	c7 45 fc 00 00
	00 00		 mov	 DWORD PTR __$EHRec$[ebp+12], 0

; 975  :         {
; 976  :             *w = PMC_ExclusiveOr_X_L(u, v);

  0005b	8b 45 10	 mov	 eax, DWORD PTR _v$[ebp+4]
  0005e	50		 push	 eax
  0005f	8b 4d 0c	 mov	 ecx, DWORD PTR _v$[ebp]
  00062	51		 push	 ecx
  00063	8b 55 08	 mov	 edx, DWORD PTR _u$[ebp]
  00066	52		 push	 edx
  00067	e8 00 00 00 00	 call	 ?PMC_ExclusiveOr_X_L@Internal@Core@Math@Palmtree@@YGPAU__tag_PMC_HANDLE_UINT@1234@PAU51234@_K@Z ; Palmtree::Math::Core::Internal::PMC_ExclusiveOr_X_L
  0006c	8b 4d 14	 mov	 ecx, DWORD PTR _w$[ebp]
  0006f	89 01		 mov	 DWORD PTR [ecx], eax

; 977  :             return (PMC_STATUS_OK);

  00071	33 c0		 xor	 eax, eax
  00073	eb 2a		 jmp	 SHORT $LN1@PMCCS_Excl
__catch$_PMCCS_ExclusiveOr_X_L@16$0:

; 978  :         }
; 979  :         catch (const Palmtree::Math::Core::Internal::Exception& ex)
; 980  :         {
; 981  :             return (ex.GetStatusCode());

  00075	8b 4d e8	 mov	 ecx, DWORD PTR _ex$3[ebp]
  00078	e8 00 00 00 00	 call	 ?GetStatusCode@Exception@Internal@Core@Math@Palmtree@@QBEHXZ ; Palmtree::Math::Core::Internal::Exception::GetStatusCode
  0007d	89 45 e0	 mov	 DWORD PTR $T2[ebp], eax
  00080	b8 00 00 00 00	 mov	 eax, $LN8@PMCCS_Excl
  00085	c3		 ret	 0

; 982  :         }

  00086	b8 00 00 00 00	 mov	 eax, __tryend$_PMCCS_ExclusiveOr_X_L@16$1
  0008b	c3		 ret	 0
__tryend$_PMCCS_ExclusiveOr_X_L@16$1:
  0008c	c7 45 fc ff ff
	ff ff		 mov	 DWORD PTR __$EHRec$[ebp+12], -1
  00093	eb 0a		 jmp	 SHORT $LN1@PMCCS_Excl
$LN8@PMCCS_Excl:
  00095	c7 45 fc ff ff
	ff ff		 mov	 DWORD PTR __$EHRec$[ebp+12], -1

; 978  :         }
; 979  :         catch (const Palmtree::Math::Core::Internal::Exception& ex)
; 980  :         {
; 981  :             return (ex.GetStatusCode());

  0009c	8b 45 e0	 mov	 eax, DWORD PTR $T2[ebp]
$LN1@PMCCS_Excl:

; 983  :     }

  0009f	52		 push	 edx
  000a0	8b cd		 mov	 ecx, ebp
  000a2	50		 push	 eax
  000a3	8d 15 00 00 00
	00		 lea	 edx, DWORD PTR $LN12@PMCCS_Excl
  000a9	e8 00 00 00 00	 call	 @_RTC_CheckStackVars@8
  000ae	58		 pop	 eax
  000af	5a		 pop	 edx
  000b0	8b 4d f4	 mov	 ecx, DWORD PTR __$EHRec$[ebp+4]
  000b3	64 89 0d 00 00
	00 00		 mov	 DWORD PTR fs:0, ecx
  000ba	59		 pop	 ecx
  000bb	5f		 pop	 edi
  000bc	5e		 pop	 esi
  000bd	5b		 pop	 ebx
  000be	83 c4 20	 add	 esp, 32			; 00000020H
  000c1	3b ec		 cmp	 ebp, esp
  000c3	e8 00 00 00 00	 call	 __RTC_CheckEsp
  000c8	8b e5		 mov	 esp, ebp
  000ca	5d		 pop	 ebp
  000cb	c2 10 00	 ret	 16			; 00000010H
  000ce	66 90		 npad	 2
$LN12@PMCCS_Excl:
  000d0	01 00 00 00	 DD	 1
  000d4	00 00 00 00	 DD	 $LN11@PMCCS_Excl
$LN11@PMCCS_Excl:
  000d8	e8 ff ff ff	 DD	 -24			; ffffffe8H
  000dc	04 00 00 00	 DD	 4
  000e0	00 00 00 00	 DD	 $LN9@PMCCS_Excl
$LN9@PMCCS_Excl:
  000e4	65		 DB	 101			; 00000065H
  000e5	78		 DB	 120			; 00000078H
  000e6	00		 DB	 0
_TEXT	ENDS
text$x	SEGMENT
__ehhandler$_PMCCS_ExclusiveOr_X_L@16:
  00000	8b 54 24 08	 mov	 edx, DWORD PTR [esp+8]
  00004	8d 42 0c	 lea	 eax, DWORD PTR [edx+12]
  00007	8b 4a dc	 mov	 ecx, DWORD PTR [edx-36]
  0000a	33 c8		 xor	 ecx, eax
  0000c	e8 00 00 00 00	 call	 @__security_check_cookie@4
  00011	b8 00 00 00 00	 mov	 eax, OFFSET __ehfuncinfo$_PMCCS_ExclusiveOr_X_L@16
  00016	e9 00 00 00 00	 jmp	 ___CxxFrameHandler3
text$x	ENDS
_PMCCS_ExclusiveOr_X_L@16 ENDP
; Function compile flags: /Odtp /RTCsu
; File z:\sources\lunor\repos\rougemeilland\palmtree.math.core.uint\palmtree.math.core.uint\pmc_interface_csharp.cpp
_TEXT	SEGMENT
$T2 = -32						; size = 4
_ex$3 = -24						; size = 4
__$EHRec$ = -16						; size = 16
_u$ = 8							; size = 4
_v$ = 12						; size = 4
_w$ = 16						; size = 4
_PMCCS_ExclusiveOr_X_I@12 PROC

; 956  :     {

  00000	55		 push	 ebp
  00001	8b ec		 mov	 ebp, esp
  00003	6a ff		 push	 -1
  00005	68 00 00 00 00	 push	 __ehhandler$_PMCCS_ExclusiveOr_X_I@12
  0000a	64 a1 00 00 00
	00		 mov	 eax, DWORD PTR fs:0
  00010	50		 push	 eax
  00011	51		 push	 ecx
  00012	83 ec 10	 sub	 esp, 16			; 00000010H
  00015	53		 push	 ebx
  00016	56		 push	 esi
  00017	57		 push	 edi
  00018	b8 cc cc cc cc	 mov	 eax, -858993460		; ccccccccH
  0001d	89 45 e0	 mov	 DWORD PTR [ebp-32], eax
  00020	89 45 e4	 mov	 DWORD PTR [ebp-28], eax
  00023	89 45 e8	 mov	 DWORD PTR [ebp-24], eax
  00026	89 45 ec	 mov	 DWORD PTR [ebp-20], eax
  00029	a1 00 00 00 00	 mov	 eax, DWORD PTR ___security_cookie
  0002e	33 c5		 xor	 eax, ebp
  00030	50		 push	 eax
  00031	8d 45 f4	 lea	 eax, DWORD PTR __$EHRec$[ebp+4]
  00034	64 a3 00 00 00
	00		 mov	 DWORD PTR fs:0, eax
  0003a	89 65 f0	 mov	 DWORD PTR __$EHRec$[ebp], esp
  0003d	b9 00 00 00 00	 mov	 ecx, OFFSET __C21BA676_pmc_interface_csharp@cpp
  00042	e8 00 00 00 00	 call	 @__CheckForDebuggerJustMyCode@4

; 957  :         if (w == nullptr)

  00047	83 7d 10 00	 cmp	 DWORD PTR _w$[ebp], 0
  0004b	75 07		 jne	 SHORT $LN2@PMCCS_Excl

; 958  :             return (PMC_STATUS_ARGUMENT_NULL_ERROR);

  0004d	b8 fe ff ff ff	 mov	 eax, -2			; fffffffeH
  00052	eb 47		 jmp	 SHORT $LN1@PMCCS_Excl
$LN2@PMCCS_Excl:

; 959  :         try

  00054	c7 45 fc 00 00
	00 00		 mov	 DWORD PTR __$EHRec$[ebp+12], 0

; 960  :         {
; 961  :             *w = PMC_ExclusiveOr_X_I(u, v);

  0005b	8b 45 0c	 mov	 eax, DWORD PTR _v$[ebp]
  0005e	50		 push	 eax
  0005f	8b 4d 08	 mov	 ecx, DWORD PTR _u$[ebp]
  00062	51		 push	 ecx
  00063	e8 00 00 00 00	 call	 ?PMC_ExclusiveOr_X_I@Internal@Core@Math@Palmtree@@YGPAU__tag_PMC_HANDLE_UINT@1234@PAU51234@I@Z ; Palmtree::Math::Core::Internal::PMC_ExclusiveOr_X_I
  00068	8b 55 10	 mov	 edx, DWORD PTR _w$[ebp]
  0006b	89 02		 mov	 DWORD PTR [edx], eax

; 962  :             return (PMC_STATUS_OK);

  0006d	33 c0		 xor	 eax, eax
  0006f	eb 2a		 jmp	 SHORT $LN1@PMCCS_Excl
__catch$_PMCCS_ExclusiveOr_X_I@12$0:

; 963  :         }
; 964  :         catch (const Palmtree::Math::Core::Internal::Exception& ex)
; 965  :         {
; 966  :             return (ex.GetStatusCode());

  00071	8b 4d e8	 mov	 ecx, DWORD PTR _ex$3[ebp]
  00074	e8 00 00 00 00	 call	 ?GetStatusCode@Exception@Internal@Core@Math@Palmtree@@QBEHXZ ; Palmtree::Math::Core::Internal::Exception::GetStatusCode
  00079	89 45 e0	 mov	 DWORD PTR $T2[ebp], eax
  0007c	b8 00 00 00 00	 mov	 eax, $LN8@PMCCS_Excl
  00081	c3		 ret	 0

; 967  :         }

  00082	b8 00 00 00 00	 mov	 eax, __tryend$_PMCCS_ExclusiveOr_X_I@12$1
  00087	c3		 ret	 0
__tryend$_PMCCS_ExclusiveOr_X_I@12$1:
  00088	c7 45 fc ff ff
	ff ff		 mov	 DWORD PTR __$EHRec$[ebp+12], -1
  0008f	eb 0a		 jmp	 SHORT $LN1@PMCCS_Excl
$LN8@PMCCS_Excl:
  00091	c7 45 fc ff ff
	ff ff		 mov	 DWORD PTR __$EHRec$[ebp+12], -1

; 963  :         }
; 964  :         catch (const Palmtree::Math::Core::Internal::Exception& ex)
; 965  :         {
; 966  :             return (ex.GetStatusCode());

  00098	8b 45 e0	 mov	 eax, DWORD PTR $T2[ebp]
$LN1@PMCCS_Excl:

; 968  :     }

  0009b	52		 push	 edx
  0009c	8b cd		 mov	 ecx, ebp
  0009e	50		 push	 eax
  0009f	8d 15 00 00 00
	00		 lea	 edx, DWORD PTR $LN12@PMCCS_Excl
  000a5	e8 00 00 00 00	 call	 @_RTC_CheckStackVars@8
  000aa	58		 pop	 eax
  000ab	5a		 pop	 edx
  000ac	8b 4d f4	 mov	 ecx, DWORD PTR __$EHRec$[ebp+4]
  000af	64 89 0d 00 00
	00 00		 mov	 DWORD PTR fs:0, ecx
  000b6	59		 pop	 ecx
  000b7	5f		 pop	 edi
  000b8	5e		 pop	 esi
  000b9	5b		 pop	 ebx
  000ba	83 c4 20	 add	 esp, 32			; 00000020H
  000bd	3b ec		 cmp	 ebp, esp
  000bf	e8 00 00 00 00	 call	 __RTC_CheckEsp
  000c4	8b e5		 mov	 esp, ebp
  000c6	5d		 pop	 ebp
  000c7	c2 0c 00	 ret	 12			; 0000000cH
  000ca	66 90		 npad	 2
$LN12@PMCCS_Excl:
  000cc	01 00 00 00	 DD	 1
  000d0	00 00 00 00	 DD	 $LN11@PMCCS_Excl
$LN11@PMCCS_Excl:
  000d4	e8 ff ff ff	 DD	 -24			; ffffffe8H
  000d8	04 00 00 00	 DD	 4
  000dc	00 00 00 00	 DD	 $LN9@PMCCS_Excl
$LN9@PMCCS_Excl:
  000e0	65		 DB	 101			; 00000065H
  000e1	78		 DB	 120			; 00000078H
  000e2	00		 DB	 0
_TEXT	ENDS
text$x	SEGMENT
__ehhandler$_PMCCS_ExclusiveOr_X_I@12:
  00000	8b 54 24 08	 mov	 edx, DWORD PTR [esp+8]
  00004	8d 42 0c	 lea	 eax, DWORD PTR [edx+12]
  00007	8b 4a dc	 mov	 ecx, DWORD PTR [edx-36]
  0000a	33 c8		 xor	 ecx, eax
  0000c	e8 00 00 00 00	 call	 @__security_check_cookie@4
  00011	b8 00 00 00 00	 mov	 eax, OFFSET __ehfuncinfo$_PMCCS_ExclusiveOr_X_I@12
  00016	e9 00 00 00 00	 jmp	 ___CxxFrameHandler3
text$x	ENDS
_PMCCS_ExclusiveOr_X_I@12 ENDP
; Function compile flags: /Odtp /RTCsu
; File z:\sources\lunor\repos\rougemeilland\palmtree.math.core.uint\palmtree.math.core.uint\pmc_interface_csharp.cpp
_TEXT	SEGMENT
$T2 = -32						; size = 4
_ex$3 = -24						; size = 4
__$EHRec$ = -16						; size = 16
_u$ = 8							; size = 8
_v$ = 16						; size = 4
_w$ = 20						; size = 4
_PMCCS_ExclusiveOr_L_X@16 PROC

; 941  :     {

  00000	55		 push	 ebp
  00001	8b ec		 mov	 ebp, esp
  00003	6a ff		 push	 -1
  00005	68 00 00 00 00	 push	 __ehhandler$_PMCCS_ExclusiveOr_L_X@16
  0000a	64 a1 00 00 00
	00		 mov	 eax, DWORD PTR fs:0
  00010	50		 push	 eax
  00011	51		 push	 ecx
  00012	83 ec 10	 sub	 esp, 16			; 00000010H
  00015	53		 push	 ebx
  00016	56		 push	 esi
  00017	57		 push	 edi
  00018	b8 cc cc cc cc	 mov	 eax, -858993460		; ccccccccH
  0001d	89 45 e0	 mov	 DWORD PTR [ebp-32], eax
  00020	89 45 e4	 mov	 DWORD PTR [ebp-28], eax
  00023	89 45 e8	 mov	 DWORD PTR [ebp-24], eax
  00026	89 45 ec	 mov	 DWORD PTR [ebp-20], eax
  00029	a1 00 00 00 00	 mov	 eax, DWORD PTR ___security_cookie
  0002e	33 c5		 xor	 eax, ebp
  00030	50		 push	 eax
  00031	8d 45 f4	 lea	 eax, DWORD PTR __$EHRec$[ebp+4]
  00034	64 a3 00 00 00
	00		 mov	 DWORD PTR fs:0, eax
  0003a	89 65 f0	 mov	 DWORD PTR __$EHRec$[ebp], esp
  0003d	b9 00 00 00 00	 mov	 ecx, OFFSET __C21BA676_pmc_interface_csharp@cpp
  00042	e8 00 00 00 00	 call	 @__CheckForDebuggerJustMyCode@4

; 942  :         if (w == nullptr)

  00047	83 7d 14 00	 cmp	 DWORD PTR _w$[ebp], 0
  0004b	75 07		 jne	 SHORT $LN2@PMCCS_Excl

; 943  :             return (PMC_STATUS_ARGUMENT_NULL_ERROR);

  0004d	b8 fe ff ff ff	 mov	 eax, -2			; fffffffeH
  00052	eb 4b		 jmp	 SHORT $LN1@PMCCS_Excl
$LN2@PMCCS_Excl:

; 944  :         try

  00054	c7 45 fc 00 00
	00 00		 mov	 DWORD PTR __$EHRec$[ebp+12], 0

; 945  :         {
; 946  :             *w = PMC_ExclusiveOr_L_X(u, v);

  0005b	8b 45 10	 mov	 eax, DWORD PTR _v$[ebp]
  0005e	50		 push	 eax
  0005f	8b 4d 0c	 mov	 ecx, DWORD PTR _u$[ebp+4]
  00062	51		 push	 ecx
  00063	8b 55 08	 mov	 edx, DWORD PTR _u$[ebp]
  00066	52		 push	 edx
  00067	e8 00 00 00 00	 call	 ?PMC_ExclusiveOr_L_X@Internal@Core@Math@Palmtree@@YGPAU__tag_PMC_HANDLE_UINT@1234@_KPAU51234@@Z ; Palmtree::Math::Core::Internal::PMC_ExclusiveOr_L_X
  0006c	8b 4d 14	 mov	 ecx, DWORD PTR _w$[ebp]
  0006f	89 01		 mov	 DWORD PTR [ecx], eax

; 947  :             return (PMC_STATUS_OK);

  00071	33 c0		 xor	 eax, eax
  00073	eb 2a		 jmp	 SHORT $LN1@PMCCS_Excl
__catch$_PMCCS_ExclusiveOr_L_X@16$0:

; 948  :         }
; 949  :         catch (const Palmtree::Math::Core::Internal::Exception& ex)
; 950  :         {
; 951  :             return (ex.GetStatusCode());

  00075	8b 4d e8	 mov	 ecx, DWORD PTR _ex$3[ebp]
  00078	e8 00 00 00 00	 call	 ?GetStatusCode@Exception@Internal@Core@Math@Palmtree@@QBEHXZ ; Palmtree::Math::Core::Internal::Exception::GetStatusCode
  0007d	89 45 e0	 mov	 DWORD PTR $T2[ebp], eax
  00080	b8 00 00 00 00	 mov	 eax, $LN8@PMCCS_Excl
  00085	c3		 ret	 0

; 952  :         }

  00086	b8 00 00 00 00	 mov	 eax, __tryend$_PMCCS_ExclusiveOr_L_X@16$1
  0008b	c3		 ret	 0
__tryend$_PMCCS_ExclusiveOr_L_X@16$1:
  0008c	c7 45 fc ff ff
	ff ff		 mov	 DWORD PTR __$EHRec$[ebp+12], -1
  00093	eb 0a		 jmp	 SHORT $LN1@PMCCS_Excl
$LN8@PMCCS_Excl:
  00095	c7 45 fc ff ff
	ff ff		 mov	 DWORD PTR __$EHRec$[ebp+12], -1

; 948  :         }
; 949  :         catch (const Palmtree::Math::Core::Internal::Exception& ex)
; 950  :         {
; 951  :             return (ex.GetStatusCode());

  0009c	8b 45 e0	 mov	 eax, DWORD PTR $T2[ebp]
$LN1@PMCCS_Excl:

; 953  :     }

  0009f	52		 push	 edx
  000a0	8b cd		 mov	 ecx, ebp
  000a2	50		 push	 eax
  000a3	8d 15 00 00 00
	00		 lea	 edx, DWORD PTR $LN12@PMCCS_Excl
  000a9	e8 00 00 00 00	 call	 @_RTC_CheckStackVars@8
  000ae	58		 pop	 eax
  000af	5a		 pop	 edx
  000b0	8b 4d f4	 mov	 ecx, DWORD PTR __$EHRec$[ebp+4]
  000b3	64 89 0d 00 00
	00 00		 mov	 DWORD PTR fs:0, ecx
  000ba	59		 pop	 ecx
  000bb	5f		 pop	 edi
  000bc	5e		 pop	 esi
  000bd	5b		 pop	 ebx
  000be	83 c4 20	 add	 esp, 32			; 00000020H
  000c1	3b ec		 cmp	 ebp, esp
  000c3	e8 00 00 00 00	 call	 __RTC_CheckEsp
  000c8	8b e5		 mov	 esp, ebp
  000ca	5d		 pop	 ebp
  000cb	c2 10 00	 ret	 16			; 00000010H
  000ce	66 90		 npad	 2
$LN12@PMCCS_Excl:
  000d0	01 00 00 00	 DD	 1
  000d4	00 00 00 00	 DD	 $LN11@PMCCS_Excl
$LN11@PMCCS_Excl:
  000d8	e8 ff ff ff	 DD	 -24			; ffffffe8H
  000dc	04 00 00 00	 DD	 4
  000e0	00 00 00 00	 DD	 $LN9@PMCCS_Excl
$LN9@PMCCS_Excl:
  000e4	65		 DB	 101			; 00000065H
  000e5	78		 DB	 120			; 00000078H
  000e6	00		 DB	 0
_TEXT	ENDS
text$x	SEGMENT
__ehhandler$_PMCCS_ExclusiveOr_L_X@16:
  00000	8b 54 24 08	 mov	 edx, DWORD PTR [esp+8]
  00004	8d 42 0c	 lea	 eax, DWORD PTR [edx+12]
  00007	8b 4a dc	 mov	 ecx, DWORD PTR [edx-36]
  0000a	33 c8		 xor	 ecx, eax
  0000c	e8 00 00 00 00	 call	 @__security_check_cookie@4
  00011	b8 00 00 00 00	 mov	 eax, OFFSET __ehfuncinfo$_PMCCS_ExclusiveOr_L_X@16
  00016	e9 00 00 00 00	 jmp	 ___CxxFrameHandler3
text$x	ENDS
_PMCCS_ExclusiveOr_L_X@16 ENDP
; Function compile flags: /Odtp /RTCsu
; File z:\sources\lunor\repos\rougemeilland\palmtree.math.core.uint\palmtree.math.core.uint\pmc_interface_csharp.cpp
_TEXT	SEGMENT
$T2 = -32						; size = 4
_ex$3 = -24						; size = 4
__$EHRec$ = -16						; size = 16
_u$ = 8							; size = 4
_v$ = 12						; size = 4
_w$ = 16						; size = 4
_PMCCS_ExclusiveOr_I_X@12 PROC

; 926  :     {

  00000	55		 push	 ebp
  00001	8b ec		 mov	 ebp, esp
  00003	6a ff		 push	 -1
  00005	68 00 00 00 00	 push	 __ehhandler$_PMCCS_ExclusiveOr_I_X@12
  0000a	64 a1 00 00 00
	00		 mov	 eax, DWORD PTR fs:0
  00010	50		 push	 eax
  00011	51		 push	 ecx
  00012	83 ec 10	 sub	 esp, 16			; 00000010H
  00015	53		 push	 ebx
  00016	56		 push	 esi
  00017	57		 push	 edi
  00018	b8 cc cc cc cc	 mov	 eax, -858993460		; ccccccccH
  0001d	89 45 e0	 mov	 DWORD PTR [ebp-32], eax
  00020	89 45 e4	 mov	 DWORD PTR [ebp-28], eax
  00023	89 45 e8	 mov	 DWORD PTR [ebp-24], eax
  00026	89 45 ec	 mov	 DWORD PTR [ebp-20], eax
  00029	a1 00 00 00 00	 mov	 eax, DWORD PTR ___security_cookie
  0002e	33 c5		 xor	 eax, ebp
  00030	50		 push	 eax
  00031	8d 45 f4	 lea	 eax, DWORD PTR __$EHRec$[ebp+4]
  00034	64 a3 00 00 00
	00		 mov	 DWORD PTR fs:0, eax
  0003a	89 65 f0	 mov	 DWORD PTR __$EHRec$[ebp], esp
  0003d	b9 00 00 00 00	 mov	 ecx, OFFSET __C21BA676_pmc_interface_csharp@cpp
  00042	e8 00 00 00 00	 call	 @__CheckForDebuggerJustMyCode@4

; 927  :         if (w == nullptr)

  00047	83 7d 10 00	 cmp	 DWORD PTR _w$[ebp], 0
  0004b	75 07		 jne	 SHORT $LN2@PMCCS_Excl

; 928  :             return (PMC_STATUS_ARGUMENT_NULL_ERROR);

  0004d	b8 fe ff ff ff	 mov	 eax, -2			; fffffffeH
  00052	eb 47		 jmp	 SHORT $LN1@PMCCS_Excl
$LN2@PMCCS_Excl:

; 929  :         try

  00054	c7 45 fc 00 00
	00 00		 mov	 DWORD PTR __$EHRec$[ebp+12], 0

; 930  :         {
; 931  :             *w = PMC_ExclusiveOr_I_X(u, v);

  0005b	8b 45 0c	 mov	 eax, DWORD PTR _v$[ebp]
  0005e	50		 push	 eax
  0005f	8b 4d 08	 mov	 ecx, DWORD PTR _u$[ebp]
  00062	51		 push	 ecx
  00063	e8 00 00 00 00	 call	 ?PMC_ExclusiveOr_I_X@Internal@Core@Math@Palmtree@@YGPAU__tag_PMC_HANDLE_UINT@1234@IPAU51234@@Z ; Palmtree::Math::Core::Internal::PMC_ExclusiveOr_I_X
  00068	8b 55 10	 mov	 edx, DWORD PTR _w$[ebp]
  0006b	89 02		 mov	 DWORD PTR [edx], eax

; 932  :             return (PMC_STATUS_OK);

  0006d	33 c0		 xor	 eax, eax
  0006f	eb 2a		 jmp	 SHORT $LN1@PMCCS_Excl
__catch$_PMCCS_ExclusiveOr_I_X@12$0:

; 933  :         }
; 934  :         catch (const Palmtree::Math::Core::Internal::Exception& ex)
; 935  :         {
; 936  :             return (ex.GetStatusCode());

  00071	8b 4d e8	 mov	 ecx, DWORD PTR _ex$3[ebp]
  00074	e8 00 00 00 00	 call	 ?GetStatusCode@Exception@Internal@Core@Math@Palmtree@@QBEHXZ ; Palmtree::Math::Core::Internal::Exception::GetStatusCode
  00079	89 45 e0	 mov	 DWORD PTR $T2[ebp], eax
  0007c	b8 00 00 00 00	 mov	 eax, $LN8@PMCCS_Excl
  00081	c3		 ret	 0

; 937  :         }

  00082	b8 00 00 00 00	 mov	 eax, __tryend$_PMCCS_ExclusiveOr_I_X@12$1
  00087	c3		 ret	 0
__tryend$_PMCCS_ExclusiveOr_I_X@12$1:
  00088	c7 45 fc ff ff
	ff ff		 mov	 DWORD PTR __$EHRec$[ebp+12], -1
  0008f	eb 0a		 jmp	 SHORT $LN1@PMCCS_Excl
$LN8@PMCCS_Excl:
  00091	c7 45 fc ff ff
	ff ff		 mov	 DWORD PTR __$EHRec$[ebp+12], -1

; 933  :         }
; 934  :         catch (const Palmtree::Math::Core::Internal::Exception& ex)
; 935  :         {
; 936  :             return (ex.GetStatusCode());

  00098	8b 45 e0	 mov	 eax, DWORD PTR $T2[ebp]
$LN1@PMCCS_Excl:

; 938  :     }

  0009b	52		 push	 edx
  0009c	8b cd		 mov	 ecx, ebp
  0009e	50		 push	 eax
  0009f	8d 15 00 00 00
	00		 lea	 edx, DWORD PTR $LN12@PMCCS_Excl
  000a5	e8 00 00 00 00	 call	 @_RTC_CheckStackVars@8
  000aa	58		 pop	 eax
  000ab	5a		 pop	 edx
  000ac	8b 4d f4	 mov	 ecx, DWORD PTR __$EHRec$[ebp+4]
  000af	64 89 0d 00 00
	00 00		 mov	 DWORD PTR fs:0, ecx
  000b6	59		 pop	 ecx
  000b7	5f		 pop	 edi
  000b8	5e		 pop	 esi
  000b9	5b		 pop	 ebx
  000ba	83 c4 20	 add	 esp, 32			; 00000020H
  000bd	3b ec		 cmp	 ebp, esp
  000bf	e8 00 00 00 00	 call	 __RTC_CheckEsp
  000c4	8b e5		 mov	 esp, ebp
  000c6	5d		 pop	 ebp
  000c7	c2 0c 00	 ret	 12			; 0000000cH
  000ca	66 90		 npad	 2
$LN12@PMCCS_Excl:
  000cc	01 00 00 00	 DD	 1
  000d0	00 00 00 00	 DD	 $LN11@PMCCS_Excl
$LN11@PMCCS_Excl:
  000d4	e8 ff ff ff	 DD	 -24			; ffffffe8H
  000d8	04 00 00 00	 DD	 4
  000dc	00 00 00 00	 DD	 $LN9@PMCCS_Excl
$LN9@PMCCS_Excl:
  000e0	65		 DB	 101			; 00000065H
  000e1	78		 DB	 120			; 00000078H
  000e2	00		 DB	 0
_TEXT	ENDS
text$x	SEGMENT
__ehhandler$_PMCCS_ExclusiveOr_I_X@12:
  00000	8b 54 24 08	 mov	 edx, DWORD PTR [esp+8]
  00004	8d 42 0c	 lea	 eax, DWORD PTR [edx+12]
  00007	8b 4a dc	 mov	 ecx, DWORD PTR [edx-36]
  0000a	33 c8		 xor	 ecx, eax
  0000c	e8 00 00 00 00	 call	 @__security_check_cookie@4
  00011	b8 00 00 00 00	 mov	 eax, OFFSET __ehfuncinfo$_PMCCS_ExclusiveOr_I_X@12
  00016	e9 00 00 00 00	 jmp	 ___CxxFrameHandler3
text$x	ENDS
_PMCCS_ExclusiveOr_I_X@12 ENDP
; Function compile flags: /Odtp /RTCsu
; File z:\sources\lunor\repos\rougemeilland\palmtree.math.core.uint\palmtree.math.core.uint\pmc_interface_csharp.cpp
_TEXT	SEGMENT
$T2 = -32						; size = 4
_ex$3 = -24						; size = 4
__$EHRec$ = -16						; size = 16
_u$ = 8							; size = 4
_v$ = 12						; size = 4
_w$ = 16						; size = 4
_PMCCS_BitwiseOr_X_X@12 PROC

; 911  :     {

  00000	55		 push	 ebp
  00001	8b ec		 mov	 ebp, esp
  00003	6a ff		 push	 -1
  00005	68 00 00 00 00	 push	 __ehhandler$_PMCCS_BitwiseOr_X_X@12
  0000a	64 a1 00 00 00
	00		 mov	 eax, DWORD PTR fs:0
  00010	50		 push	 eax
  00011	51		 push	 ecx
  00012	83 ec 10	 sub	 esp, 16			; 00000010H
  00015	53		 push	 ebx
  00016	56		 push	 esi
  00017	57		 push	 edi
  00018	b8 cc cc cc cc	 mov	 eax, -858993460		; ccccccccH
  0001d	89 45 e0	 mov	 DWORD PTR [ebp-32], eax
  00020	89 45 e4	 mov	 DWORD PTR [ebp-28], eax
  00023	89 45 e8	 mov	 DWORD PTR [ebp-24], eax
  00026	89 45 ec	 mov	 DWORD PTR [ebp-20], eax
  00029	a1 00 00 00 00	 mov	 eax, DWORD PTR ___security_cookie
  0002e	33 c5		 xor	 eax, ebp
  00030	50		 push	 eax
  00031	8d 45 f4	 lea	 eax, DWORD PTR __$EHRec$[ebp+4]
  00034	64 a3 00 00 00
	00		 mov	 DWORD PTR fs:0, eax
  0003a	89 65 f0	 mov	 DWORD PTR __$EHRec$[ebp], esp
  0003d	b9 00 00 00 00	 mov	 ecx, OFFSET __C21BA676_pmc_interface_csharp@cpp
  00042	e8 00 00 00 00	 call	 @__CheckForDebuggerJustMyCode@4

; 912  :         if (w == nullptr)

  00047	83 7d 10 00	 cmp	 DWORD PTR _w$[ebp], 0
  0004b	75 07		 jne	 SHORT $LN2@PMCCS_Bitw

; 913  :             return (PMC_STATUS_ARGUMENT_NULL_ERROR);

  0004d	b8 fe ff ff ff	 mov	 eax, -2			; fffffffeH
  00052	eb 47		 jmp	 SHORT $LN1@PMCCS_Bitw
$LN2@PMCCS_Bitw:

; 914  :         try

  00054	c7 45 fc 00 00
	00 00		 mov	 DWORD PTR __$EHRec$[ebp+12], 0

; 915  :         {
; 916  :             *w = PMC_BitwiseOr_X_X(u, v);

  0005b	8b 45 0c	 mov	 eax, DWORD PTR _v$[ebp]
  0005e	50		 push	 eax
  0005f	8b 4d 08	 mov	 ecx, DWORD PTR _u$[ebp]
  00062	51		 push	 ecx
  00063	e8 00 00 00 00	 call	 ?PMC_BitwiseOr_X_X@Internal@Core@Math@Palmtree@@YGPAU__tag_PMC_HANDLE_UINT@1234@PAU51234@0@Z ; Palmtree::Math::Core::Internal::PMC_BitwiseOr_X_X
  00068	8b 55 10	 mov	 edx, DWORD PTR _w$[ebp]
  0006b	89 02		 mov	 DWORD PTR [edx], eax

; 917  :             return (PMC_STATUS_OK);

  0006d	33 c0		 xor	 eax, eax
  0006f	eb 2a		 jmp	 SHORT $LN1@PMCCS_Bitw
__catch$_PMCCS_BitwiseOr_X_X@12$0:

; 918  :         }
; 919  :         catch (const Palmtree::Math::Core::Internal::Exception& ex)
; 920  :         {
; 921  :             return (ex.GetStatusCode());

  00071	8b 4d e8	 mov	 ecx, DWORD PTR _ex$3[ebp]
  00074	e8 00 00 00 00	 call	 ?GetStatusCode@Exception@Internal@Core@Math@Palmtree@@QBEHXZ ; Palmtree::Math::Core::Internal::Exception::GetStatusCode
  00079	89 45 e0	 mov	 DWORD PTR $T2[ebp], eax
  0007c	b8 00 00 00 00	 mov	 eax, $LN8@PMCCS_Bitw
  00081	c3		 ret	 0

; 922  :         }

  00082	b8 00 00 00 00	 mov	 eax, __tryend$_PMCCS_BitwiseOr_X_X@12$1
  00087	c3		 ret	 0
__tryend$_PMCCS_BitwiseOr_X_X@12$1:
  00088	c7 45 fc ff ff
	ff ff		 mov	 DWORD PTR __$EHRec$[ebp+12], -1
  0008f	eb 0a		 jmp	 SHORT $LN1@PMCCS_Bitw
$LN8@PMCCS_Bitw:
  00091	c7 45 fc ff ff
	ff ff		 mov	 DWORD PTR __$EHRec$[ebp+12], -1

; 918  :         }
; 919  :         catch (const Palmtree::Math::Core::Internal::Exception& ex)
; 920  :         {
; 921  :             return (ex.GetStatusCode());

  00098	8b 45 e0	 mov	 eax, DWORD PTR $T2[ebp]
$LN1@PMCCS_Bitw:

; 923  :     }

  0009b	52		 push	 edx
  0009c	8b cd		 mov	 ecx, ebp
  0009e	50		 push	 eax
  0009f	8d 15 00 00 00
	00		 lea	 edx, DWORD PTR $LN12@PMCCS_Bitw
  000a5	e8 00 00 00 00	 call	 @_RTC_CheckStackVars@8
  000aa	58		 pop	 eax
  000ab	5a		 pop	 edx
  000ac	8b 4d f4	 mov	 ecx, DWORD PTR __$EHRec$[ebp+4]
  000af	64 89 0d 00 00
	00 00		 mov	 DWORD PTR fs:0, ecx
  000b6	59		 pop	 ecx
  000b7	5f		 pop	 edi
  000b8	5e		 pop	 esi
  000b9	5b		 pop	 ebx
  000ba	83 c4 20	 add	 esp, 32			; 00000020H
  000bd	3b ec		 cmp	 ebp, esp
  000bf	e8 00 00 00 00	 call	 __RTC_CheckEsp
  000c4	8b e5		 mov	 esp, ebp
  000c6	5d		 pop	 ebp
  000c7	c2 0c 00	 ret	 12			; 0000000cH
  000ca	66 90		 npad	 2
$LN12@PMCCS_Bitw:
  000cc	01 00 00 00	 DD	 1
  000d0	00 00 00 00	 DD	 $LN11@PMCCS_Bitw
$LN11@PMCCS_Bitw:
  000d4	e8 ff ff ff	 DD	 -24			; ffffffe8H
  000d8	04 00 00 00	 DD	 4
  000dc	00 00 00 00	 DD	 $LN9@PMCCS_Bitw
$LN9@PMCCS_Bitw:
  000e0	65		 DB	 101			; 00000065H
  000e1	78		 DB	 120			; 00000078H
  000e2	00		 DB	 0
_TEXT	ENDS
text$x	SEGMENT
__ehhandler$_PMCCS_BitwiseOr_X_X@12:
  00000	8b 54 24 08	 mov	 edx, DWORD PTR [esp+8]
  00004	8d 42 0c	 lea	 eax, DWORD PTR [edx+12]
  00007	8b 4a dc	 mov	 ecx, DWORD PTR [edx-36]
  0000a	33 c8		 xor	 ecx, eax
  0000c	e8 00 00 00 00	 call	 @__security_check_cookie@4
  00011	b8 00 00 00 00	 mov	 eax, OFFSET __ehfuncinfo$_PMCCS_BitwiseOr_X_X@12
  00016	e9 00 00 00 00	 jmp	 ___CxxFrameHandler3
text$x	ENDS
_PMCCS_BitwiseOr_X_X@12 ENDP
; Function compile flags: /Odtp /RTCsu
; File z:\sources\lunor\repos\rougemeilland\palmtree.math.core.uint\palmtree.math.core.uint\pmc_interface_csharp.cpp
_TEXT	SEGMENT
$T2 = -32						; size = 4
_ex$3 = -24						; size = 4
__$EHRec$ = -16						; size = 16
_u$ = 8							; size = 4
_v$ = 12						; size = 8
_w$ = 20						; size = 4
_PMCCS_BitwiseOr_X_L@16 PROC

; 896  :     {

  00000	55		 push	 ebp
  00001	8b ec		 mov	 ebp, esp
  00003	6a ff		 push	 -1
  00005	68 00 00 00 00	 push	 __ehhandler$_PMCCS_BitwiseOr_X_L@16
  0000a	64 a1 00 00 00
	00		 mov	 eax, DWORD PTR fs:0
  00010	50		 push	 eax
  00011	51		 push	 ecx
  00012	83 ec 10	 sub	 esp, 16			; 00000010H
  00015	53		 push	 ebx
  00016	56		 push	 esi
  00017	57		 push	 edi
  00018	b8 cc cc cc cc	 mov	 eax, -858993460		; ccccccccH
  0001d	89 45 e0	 mov	 DWORD PTR [ebp-32], eax
  00020	89 45 e4	 mov	 DWORD PTR [ebp-28], eax
  00023	89 45 e8	 mov	 DWORD PTR [ebp-24], eax
  00026	89 45 ec	 mov	 DWORD PTR [ebp-20], eax
  00029	a1 00 00 00 00	 mov	 eax, DWORD PTR ___security_cookie
  0002e	33 c5		 xor	 eax, ebp
  00030	50		 push	 eax
  00031	8d 45 f4	 lea	 eax, DWORD PTR __$EHRec$[ebp+4]
  00034	64 a3 00 00 00
	00		 mov	 DWORD PTR fs:0, eax
  0003a	89 65 f0	 mov	 DWORD PTR __$EHRec$[ebp], esp
  0003d	b9 00 00 00 00	 mov	 ecx, OFFSET __C21BA676_pmc_interface_csharp@cpp
  00042	e8 00 00 00 00	 call	 @__CheckForDebuggerJustMyCode@4

; 897  :         if (w == nullptr)

  00047	83 7d 14 00	 cmp	 DWORD PTR _w$[ebp], 0
  0004b	75 07		 jne	 SHORT $LN2@PMCCS_Bitw

; 898  :             return (PMC_STATUS_ARGUMENT_NULL_ERROR);

  0004d	b8 fe ff ff ff	 mov	 eax, -2			; fffffffeH
  00052	eb 4b		 jmp	 SHORT $LN1@PMCCS_Bitw
$LN2@PMCCS_Bitw:

; 899  :         try

  00054	c7 45 fc 00 00
	00 00		 mov	 DWORD PTR __$EHRec$[ebp+12], 0

; 900  :         {
; 901  :             *w = PMC_BitwiseOr_X_L(u, v);

  0005b	8b 45 10	 mov	 eax, DWORD PTR _v$[ebp+4]
  0005e	50		 push	 eax
  0005f	8b 4d 0c	 mov	 ecx, DWORD PTR _v$[ebp]
  00062	51		 push	 ecx
  00063	8b 55 08	 mov	 edx, DWORD PTR _u$[ebp]
  00066	52		 push	 edx
  00067	e8 00 00 00 00	 call	 ?PMC_BitwiseOr_X_L@Internal@Core@Math@Palmtree@@YGPAU__tag_PMC_HANDLE_UINT@1234@PAU51234@_K@Z ; Palmtree::Math::Core::Internal::PMC_BitwiseOr_X_L
  0006c	8b 4d 14	 mov	 ecx, DWORD PTR _w$[ebp]
  0006f	89 01		 mov	 DWORD PTR [ecx], eax

; 902  :             return (PMC_STATUS_OK);

  00071	33 c0		 xor	 eax, eax
  00073	eb 2a		 jmp	 SHORT $LN1@PMCCS_Bitw
__catch$_PMCCS_BitwiseOr_X_L@16$0:

; 903  :         }
; 904  :         catch (const Palmtree::Math::Core::Internal::Exception& ex)
; 905  :         {
; 906  :             return (ex.GetStatusCode());

  00075	8b 4d e8	 mov	 ecx, DWORD PTR _ex$3[ebp]
  00078	e8 00 00 00 00	 call	 ?GetStatusCode@Exception@Internal@Core@Math@Palmtree@@QBEHXZ ; Palmtree::Math::Core::Internal::Exception::GetStatusCode
  0007d	89 45 e0	 mov	 DWORD PTR $T2[ebp], eax
  00080	b8 00 00 00 00	 mov	 eax, $LN8@PMCCS_Bitw
  00085	c3		 ret	 0

; 907  :         }

  00086	b8 00 00 00 00	 mov	 eax, __tryend$_PMCCS_BitwiseOr_X_L@16$1
  0008b	c3		 ret	 0
__tryend$_PMCCS_BitwiseOr_X_L@16$1:
  0008c	c7 45 fc ff ff
	ff ff		 mov	 DWORD PTR __$EHRec$[ebp+12], -1
  00093	eb 0a		 jmp	 SHORT $LN1@PMCCS_Bitw
$LN8@PMCCS_Bitw:
  00095	c7 45 fc ff ff
	ff ff		 mov	 DWORD PTR __$EHRec$[ebp+12], -1

; 903  :         }
; 904  :         catch (const Palmtree::Math::Core::Internal::Exception& ex)
; 905  :         {
; 906  :             return (ex.GetStatusCode());

  0009c	8b 45 e0	 mov	 eax, DWORD PTR $T2[ebp]
$LN1@PMCCS_Bitw:

; 908  :     }

  0009f	52		 push	 edx
  000a0	8b cd		 mov	 ecx, ebp
  000a2	50		 push	 eax
  000a3	8d 15 00 00 00
	00		 lea	 edx, DWORD PTR $LN12@PMCCS_Bitw
  000a9	e8 00 00 00 00	 call	 @_RTC_CheckStackVars@8
  000ae	58		 pop	 eax
  000af	5a		 pop	 edx
  000b0	8b 4d f4	 mov	 ecx, DWORD PTR __$EHRec$[ebp+4]
  000b3	64 89 0d 00 00
	00 00		 mov	 DWORD PTR fs:0, ecx
  000ba	59		 pop	 ecx
  000bb	5f		 pop	 edi
  000bc	5e		 pop	 esi
  000bd	5b		 pop	 ebx
  000be	83 c4 20	 add	 esp, 32			; 00000020H
  000c1	3b ec		 cmp	 ebp, esp
  000c3	e8 00 00 00 00	 call	 __RTC_CheckEsp
  000c8	8b e5		 mov	 esp, ebp
  000ca	5d		 pop	 ebp
  000cb	c2 10 00	 ret	 16			; 00000010H
  000ce	66 90		 npad	 2
$LN12@PMCCS_Bitw:
  000d0	01 00 00 00	 DD	 1
  000d4	00 00 00 00	 DD	 $LN11@PMCCS_Bitw
$LN11@PMCCS_Bitw:
  000d8	e8 ff ff ff	 DD	 -24			; ffffffe8H
  000dc	04 00 00 00	 DD	 4
  000e0	00 00 00 00	 DD	 $LN9@PMCCS_Bitw
$LN9@PMCCS_Bitw:
  000e4	65		 DB	 101			; 00000065H
  000e5	78		 DB	 120			; 00000078H
  000e6	00		 DB	 0
_TEXT	ENDS
text$x	SEGMENT
__ehhandler$_PMCCS_BitwiseOr_X_L@16:
  00000	8b 54 24 08	 mov	 edx, DWORD PTR [esp+8]
  00004	8d 42 0c	 lea	 eax, DWORD PTR [edx+12]
  00007	8b 4a dc	 mov	 ecx, DWORD PTR [edx-36]
  0000a	33 c8		 xor	 ecx, eax
  0000c	e8 00 00 00 00	 call	 @__security_check_cookie@4
  00011	b8 00 00 00 00	 mov	 eax, OFFSET __ehfuncinfo$_PMCCS_BitwiseOr_X_L@16
  00016	e9 00 00 00 00	 jmp	 ___CxxFrameHandler3
text$x	ENDS
_PMCCS_BitwiseOr_X_L@16 ENDP
; Function compile flags: /Odtp /RTCsu
; File z:\sources\lunor\repos\rougemeilland\palmtree.math.core.uint\palmtree.math.core.uint\pmc_interface_csharp.cpp
_TEXT	SEGMENT
$T2 = -32						; size = 4
_ex$3 = -24						; size = 4
__$EHRec$ = -16						; size = 16
_u$ = 8							; size = 4
_v$ = 12						; size = 4
_w$ = 16						; size = 4
_PMCCS_BitwiseOr_X_I@12 PROC

; 881  :     {

  00000	55		 push	 ebp
  00001	8b ec		 mov	 ebp, esp
  00003	6a ff		 push	 -1
  00005	68 00 00 00 00	 push	 __ehhandler$_PMCCS_BitwiseOr_X_I@12
  0000a	64 a1 00 00 00
	00		 mov	 eax, DWORD PTR fs:0
  00010	50		 push	 eax
  00011	51		 push	 ecx
  00012	83 ec 10	 sub	 esp, 16			; 00000010H
  00015	53		 push	 ebx
  00016	56		 push	 esi
  00017	57		 push	 edi
  00018	b8 cc cc cc cc	 mov	 eax, -858993460		; ccccccccH
  0001d	89 45 e0	 mov	 DWORD PTR [ebp-32], eax
  00020	89 45 e4	 mov	 DWORD PTR [ebp-28], eax
  00023	89 45 e8	 mov	 DWORD PTR [ebp-24], eax
  00026	89 45 ec	 mov	 DWORD PTR [ebp-20], eax
  00029	a1 00 00 00 00	 mov	 eax, DWORD PTR ___security_cookie
  0002e	33 c5		 xor	 eax, ebp
  00030	50		 push	 eax
  00031	8d 45 f4	 lea	 eax, DWORD PTR __$EHRec$[ebp+4]
  00034	64 a3 00 00 00
	00		 mov	 DWORD PTR fs:0, eax
  0003a	89 65 f0	 mov	 DWORD PTR __$EHRec$[ebp], esp
  0003d	b9 00 00 00 00	 mov	 ecx, OFFSET __C21BA676_pmc_interface_csharp@cpp
  00042	e8 00 00 00 00	 call	 @__CheckForDebuggerJustMyCode@4

; 882  :         if (w == nullptr)

  00047	83 7d 10 00	 cmp	 DWORD PTR _w$[ebp], 0
  0004b	75 07		 jne	 SHORT $LN2@PMCCS_Bitw

; 883  :             return (PMC_STATUS_ARGUMENT_NULL_ERROR);

  0004d	b8 fe ff ff ff	 mov	 eax, -2			; fffffffeH
  00052	eb 47		 jmp	 SHORT $LN1@PMCCS_Bitw
$LN2@PMCCS_Bitw:

; 884  :         try

  00054	c7 45 fc 00 00
	00 00		 mov	 DWORD PTR __$EHRec$[ebp+12], 0

; 885  :         {
; 886  :             *w = PMC_BitwiseOr_X_I(u, v);

  0005b	8b 45 0c	 mov	 eax, DWORD PTR _v$[ebp]
  0005e	50		 push	 eax
  0005f	8b 4d 08	 mov	 ecx, DWORD PTR _u$[ebp]
  00062	51		 push	 ecx
  00063	e8 00 00 00 00	 call	 ?PMC_BitwiseOr_X_I@Internal@Core@Math@Palmtree@@YGPAU__tag_PMC_HANDLE_UINT@1234@PAU51234@I@Z ; Palmtree::Math::Core::Internal::PMC_BitwiseOr_X_I
  00068	8b 55 10	 mov	 edx, DWORD PTR _w$[ebp]
  0006b	89 02		 mov	 DWORD PTR [edx], eax

; 887  :             return (PMC_STATUS_OK);

  0006d	33 c0		 xor	 eax, eax
  0006f	eb 2a		 jmp	 SHORT $LN1@PMCCS_Bitw
__catch$_PMCCS_BitwiseOr_X_I@12$0:

; 888  :         }
; 889  :         catch (const Palmtree::Math::Core::Internal::Exception& ex)
; 890  :         {
; 891  :             return (ex.GetStatusCode());

  00071	8b 4d e8	 mov	 ecx, DWORD PTR _ex$3[ebp]
  00074	e8 00 00 00 00	 call	 ?GetStatusCode@Exception@Internal@Core@Math@Palmtree@@QBEHXZ ; Palmtree::Math::Core::Internal::Exception::GetStatusCode
  00079	89 45 e0	 mov	 DWORD PTR $T2[ebp], eax
  0007c	b8 00 00 00 00	 mov	 eax, $LN8@PMCCS_Bitw
  00081	c3		 ret	 0

; 892  :         }

  00082	b8 00 00 00 00	 mov	 eax, __tryend$_PMCCS_BitwiseOr_X_I@12$1
  00087	c3		 ret	 0
__tryend$_PMCCS_BitwiseOr_X_I@12$1:
  00088	c7 45 fc ff ff
	ff ff		 mov	 DWORD PTR __$EHRec$[ebp+12], -1
  0008f	eb 0a		 jmp	 SHORT $LN1@PMCCS_Bitw
$LN8@PMCCS_Bitw:
  00091	c7 45 fc ff ff
	ff ff		 mov	 DWORD PTR __$EHRec$[ebp+12], -1

; 888  :         }
; 889  :         catch (const Palmtree::Math::Core::Internal::Exception& ex)
; 890  :         {
; 891  :             return (ex.GetStatusCode());

  00098	8b 45 e0	 mov	 eax, DWORD PTR $T2[ebp]
$LN1@PMCCS_Bitw:

; 893  :     }

  0009b	52		 push	 edx
  0009c	8b cd		 mov	 ecx, ebp
  0009e	50		 push	 eax
  0009f	8d 15 00 00 00
	00		 lea	 edx, DWORD PTR $LN12@PMCCS_Bitw
  000a5	e8 00 00 00 00	 call	 @_RTC_CheckStackVars@8
  000aa	58		 pop	 eax
  000ab	5a		 pop	 edx
  000ac	8b 4d f4	 mov	 ecx, DWORD PTR __$EHRec$[ebp+4]
  000af	64 89 0d 00 00
	00 00		 mov	 DWORD PTR fs:0, ecx
  000b6	59		 pop	 ecx
  000b7	5f		 pop	 edi
  000b8	5e		 pop	 esi
  000b9	5b		 pop	 ebx
  000ba	83 c4 20	 add	 esp, 32			; 00000020H
  000bd	3b ec		 cmp	 ebp, esp
  000bf	e8 00 00 00 00	 call	 __RTC_CheckEsp
  000c4	8b e5		 mov	 esp, ebp
  000c6	5d		 pop	 ebp
  000c7	c2 0c 00	 ret	 12			; 0000000cH
  000ca	66 90		 npad	 2
$LN12@PMCCS_Bitw:
  000cc	01 00 00 00	 DD	 1
  000d0	00 00 00 00	 DD	 $LN11@PMCCS_Bitw
$LN11@PMCCS_Bitw:
  000d4	e8 ff ff ff	 DD	 -24			; ffffffe8H
  000d8	04 00 00 00	 DD	 4
  000dc	00 00 00 00	 DD	 $LN9@PMCCS_Bitw
$LN9@PMCCS_Bitw:
  000e0	65		 DB	 101			; 00000065H
  000e1	78		 DB	 120			; 00000078H
  000e2	00		 DB	 0
_TEXT	ENDS
text$x	SEGMENT
__ehhandler$_PMCCS_BitwiseOr_X_I@12:
  00000	8b 54 24 08	 mov	 edx, DWORD PTR [esp+8]
  00004	8d 42 0c	 lea	 eax, DWORD PTR [edx+12]
  00007	8b 4a dc	 mov	 ecx, DWORD PTR [edx-36]
  0000a	33 c8		 xor	 ecx, eax
  0000c	e8 00 00 00 00	 call	 @__security_check_cookie@4
  00011	b8 00 00 00 00	 mov	 eax, OFFSET __ehfuncinfo$_PMCCS_BitwiseOr_X_I@12
  00016	e9 00 00 00 00	 jmp	 ___CxxFrameHandler3
text$x	ENDS
_PMCCS_BitwiseOr_X_I@12 ENDP
; Function compile flags: /Odtp /RTCsu
; File z:\sources\lunor\repos\rougemeilland\palmtree.math.core.uint\palmtree.math.core.uint\pmc_interface_csharp.cpp
_TEXT	SEGMENT
$T2 = -32						; size = 4
_ex$3 = -24						; size = 4
__$EHRec$ = -16						; size = 16
_u$ = 8							; size = 8
_v$ = 16						; size = 4
_w$ = 20						; size = 4
_PMCCS_BitwiseOr_L_X@16 PROC

; 866  :     {

  00000	55		 push	 ebp
  00001	8b ec		 mov	 ebp, esp
  00003	6a ff		 push	 -1
  00005	68 00 00 00 00	 push	 __ehhandler$_PMCCS_BitwiseOr_L_X@16
  0000a	64 a1 00 00 00
	00		 mov	 eax, DWORD PTR fs:0
  00010	50		 push	 eax
  00011	51		 push	 ecx
  00012	83 ec 10	 sub	 esp, 16			; 00000010H
  00015	53		 push	 ebx
  00016	56		 push	 esi
  00017	57		 push	 edi
  00018	b8 cc cc cc cc	 mov	 eax, -858993460		; ccccccccH
  0001d	89 45 e0	 mov	 DWORD PTR [ebp-32], eax
  00020	89 45 e4	 mov	 DWORD PTR [ebp-28], eax
  00023	89 45 e8	 mov	 DWORD PTR [ebp-24], eax
  00026	89 45 ec	 mov	 DWORD PTR [ebp-20], eax
  00029	a1 00 00 00 00	 mov	 eax, DWORD PTR ___security_cookie
  0002e	33 c5		 xor	 eax, ebp
  00030	50		 push	 eax
  00031	8d 45 f4	 lea	 eax, DWORD PTR __$EHRec$[ebp+4]
  00034	64 a3 00 00 00
	00		 mov	 DWORD PTR fs:0, eax
  0003a	89 65 f0	 mov	 DWORD PTR __$EHRec$[ebp], esp
  0003d	b9 00 00 00 00	 mov	 ecx, OFFSET __C21BA676_pmc_interface_csharp@cpp
  00042	e8 00 00 00 00	 call	 @__CheckForDebuggerJustMyCode@4

; 867  :         if (w == nullptr)

  00047	83 7d 14 00	 cmp	 DWORD PTR _w$[ebp], 0
  0004b	75 07		 jne	 SHORT $LN2@PMCCS_Bitw

; 868  :             return (PMC_STATUS_ARGUMENT_NULL_ERROR);

  0004d	b8 fe ff ff ff	 mov	 eax, -2			; fffffffeH
  00052	eb 4b		 jmp	 SHORT $LN1@PMCCS_Bitw
$LN2@PMCCS_Bitw:

; 869  :         try

  00054	c7 45 fc 00 00
	00 00		 mov	 DWORD PTR __$EHRec$[ebp+12], 0

; 870  :         {
; 871  :             *w = PMC_BitwiseOr_L_X(u, v);

  0005b	8b 45 10	 mov	 eax, DWORD PTR _v$[ebp]
  0005e	50		 push	 eax
  0005f	8b 4d 0c	 mov	 ecx, DWORD PTR _u$[ebp+4]
  00062	51		 push	 ecx
  00063	8b 55 08	 mov	 edx, DWORD PTR _u$[ebp]
  00066	52		 push	 edx
  00067	e8 00 00 00 00	 call	 ?PMC_BitwiseOr_L_X@Internal@Core@Math@Palmtree@@YGPAU__tag_PMC_HANDLE_UINT@1234@_KPAU51234@@Z ; Palmtree::Math::Core::Internal::PMC_BitwiseOr_L_X
  0006c	8b 4d 14	 mov	 ecx, DWORD PTR _w$[ebp]
  0006f	89 01		 mov	 DWORD PTR [ecx], eax

; 872  :             return (PMC_STATUS_OK);

  00071	33 c0		 xor	 eax, eax
  00073	eb 2a		 jmp	 SHORT $LN1@PMCCS_Bitw
__catch$_PMCCS_BitwiseOr_L_X@16$0:

; 873  :         }
; 874  :         catch (const Palmtree::Math::Core::Internal::Exception& ex)
; 875  :         {
; 876  :             return (ex.GetStatusCode());

  00075	8b 4d e8	 mov	 ecx, DWORD PTR _ex$3[ebp]
  00078	e8 00 00 00 00	 call	 ?GetStatusCode@Exception@Internal@Core@Math@Palmtree@@QBEHXZ ; Palmtree::Math::Core::Internal::Exception::GetStatusCode
  0007d	89 45 e0	 mov	 DWORD PTR $T2[ebp], eax
  00080	b8 00 00 00 00	 mov	 eax, $LN8@PMCCS_Bitw
  00085	c3		 ret	 0

; 877  :         }

  00086	b8 00 00 00 00	 mov	 eax, __tryend$_PMCCS_BitwiseOr_L_X@16$1
  0008b	c3		 ret	 0
__tryend$_PMCCS_BitwiseOr_L_X@16$1:
  0008c	c7 45 fc ff ff
	ff ff		 mov	 DWORD PTR __$EHRec$[ebp+12], -1
  00093	eb 0a		 jmp	 SHORT $LN1@PMCCS_Bitw
$LN8@PMCCS_Bitw:
  00095	c7 45 fc ff ff
	ff ff		 mov	 DWORD PTR __$EHRec$[ebp+12], -1

; 873  :         }
; 874  :         catch (const Palmtree::Math::Core::Internal::Exception& ex)
; 875  :         {
; 876  :             return (ex.GetStatusCode());

  0009c	8b 45 e0	 mov	 eax, DWORD PTR $T2[ebp]
$LN1@PMCCS_Bitw:

; 878  :     }

  0009f	52		 push	 edx
  000a0	8b cd		 mov	 ecx, ebp
  000a2	50		 push	 eax
  000a3	8d 15 00 00 00
	00		 lea	 edx, DWORD PTR $LN12@PMCCS_Bitw
  000a9	e8 00 00 00 00	 call	 @_RTC_CheckStackVars@8
  000ae	58		 pop	 eax
  000af	5a		 pop	 edx
  000b0	8b 4d f4	 mov	 ecx, DWORD PTR __$EHRec$[ebp+4]
  000b3	64 89 0d 00 00
	00 00		 mov	 DWORD PTR fs:0, ecx
  000ba	59		 pop	 ecx
  000bb	5f		 pop	 edi
  000bc	5e		 pop	 esi
  000bd	5b		 pop	 ebx
  000be	83 c4 20	 add	 esp, 32			; 00000020H
  000c1	3b ec		 cmp	 ebp, esp
  000c3	e8 00 00 00 00	 call	 __RTC_CheckEsp
  000c8	8b e5		 mov	 esp, ebp
  000ca	5d		 pop	 ebp
  000cb	c2 10 00	 ret	 16			; 00000010H
  000ce	66 90		 npad	 2
$LN12@PMCCS_Bitw:
  000d0	01 00 00 00	 DD	 1
  000d4	00 00 00 00	 DD	 $LN11@PMCCS_Bitw
$LN11@PMCCS_Bitw:
  000d8	e8 ff ff ff	 DD	 -24			; ffffffe8H
  000dc	04 00 00 00	 DD	 4
  000e0	00 00 00 00	 DD	 $LN9@PMCCS_Bitw
$LN9@PMCCS_Bitw:
  000e4	65		 DB	 101			; 00000065H
  000e5	78		 DB	 120			; 00000078H
  000e6	00		 DB	 0
_TEXT	ENDS
text$x	SEGMENT
__ehhandler$_PMCCS_BitwiseOr_L_X@16:
  00000	8b 54 24 08	 mov	 edx, DWORD PTR [esp+8]
  00004	8d 42 0c	 lea	 eax, DWORD PTR [edx+12]
  00007	8b 4a dc	 mov	 ecx, DWORD PTR [edx-36]
  0000a	33 c8		 xor	 ecx, eax
  0000c	e8 00 00 00 00	 call	 @__security_check_cookie@4
  00011	b8 00 00 00 00	 mov	 eax, OFFSET __ehfuncinfo$_PMCCS_BitwiseOr_L_X@16
  00016	e9 00 00 00 00	 jmp	 ___CxxFrameHandler3
text$x	ENDS
_PMCCS_BitwiseOr_L_X@16 ENDP
; Function compile flags: /Odtp /RTCsu
; File z:\sources\lunor\repos\rougemeilland\palmtree.math.core.uint\palmtree.math.core.uint\pmc_interface_csharp.cpp
_TEXT	SEGMENT
$T2 = -32						; size = 4
_ex$3 = -24						; size = 4
__$EHRec$ = -16						; size = 16
_u$ = 8							; size = 4
_v$ = 12						; size = 4
_w$ = 16						; size = 4
_PMCCS_BitwiseOr_I_X@12 PROC

; 851  :     {

  00000	55		 push	 ebp
  00001	8b ec		 mov	 ebp, esp
  00003	6a ff		 push	 -1
  00005	68 00 00 00 00	 push	 __ehhandler$_PMCCS_BitwiseOr_I_X@12
  0000a	64 a1 00 00 00
	00		 mov	 eax, DWORD PTR fs:0
  00010	50		 push	 eax
  00011	51		 push	 ecx
  00012	83 ec 10	 sub	 esp, 16			; 00000010H
  00015	53		 push	 ebx
  00016	56		 push	 esi
  00017	57		 push	 edi
  00018	b8 cc cc cc cc	 mov	 eax, -858993460		; ccccccccH
  0001d	89 45 e0	 mov	 DWORD PTR [ebp-32], eax
  00020	89 45 e4	 mov	 DWORD PTR [ebp-28], eax
  00023	89 45 e8	 mov	 DWORD PTR [ebp-24], eax
  00026	89 45 ec	 mov	 DWORD PTR [ebp-20], eax
  00029	a1 00 00 00 00	 mov	 eax, DWORD PTR ___security_cookie
  0002e	33 c5		 xor	 eax, ebp
  00030	50		 push	 eax
  00031	8d 45 f4	 lea	 eax, DWORD PTR __$EHRec$[ebp+4]
  00034	64 a3 00 00 00
	00		 mov	 DWORD PTR fs:0, eax
  0003a	89 65 f0	 mov	 DWORD PTR __$EHRec$[ebp], esp
  0003d	b9 00 00 00 00	 mov	 ecx, OFFSET __C21BA676_pmc_interface_csharp@cpp
  00042	e8 00 00 00 00	 call	 @__CheckForDebuggerJustMyCode@4

; 852  :         if (w == nullptr)

  00047	83 7d 10 00	 cmp	 DWORD PTR _w$[ebp], 0
  0004b	75 07		 jne	 SHORT $LN2@PMCCS_Bitw

; 853  :             return (PMC_STATUS_ARGUMENT_NULL_ERROR);

  0004d	b8 fe ff ff ff	 mov	 eax, -2			; fffffffeH
  00052	eb 47		 jmp	 SHORT $LN1@PMCCS_Bitw
$LN2@PMCCS_Bitw:

; 854  :         try

  00054	c7 45 fc 00 00
	00 00		 mov	 DWORD PTR __$EHRec$[ebp+12], 0

; 855  :         {
; 856  :             *w = PMC_BitwiseOr_I_X(u, v);

  0005b	8b 45 0c	 mov	 eax, DWORD PTR _v$[ebp]
  0005e	50		 push	 eax
  0005f	8b 4d 08	 mov	 ecx, DWORD PTR _u$[ebp]
  00062	51		 push	 ecx
  00063	e8 00 00 00 00	 call	 ?PMC_BitwiseOr_I_X@Internal@Core@Math@Palmtree@@YGPAU__tag_PMC_HANDLE_UINT@1234@IPAU51234@@Z ; Palmtree::Math::Core::Internal::PMC_BitwiseOr_I_X
  00068	8b 55 10	 mov	 edx, DWORD PTR _w$[ebp]
  0006b	89 02		 mov	 DWORD PTR [edx], eax

; 857  :             return (PMC_STATUS_OK);

  0006d	33 c0		 xor	 eax, eax
  0006f	eb 2a		 jmp	 SHORT $LN1@PMCCS_Bitw
__catch$_PMCCS_BitwiseOr_I_X@12$0:

; 858  :         }
; 859  :         catch (const Palmtree::Math::Core::Internal::Exception& ex)
; 860  :         {
; 861  :             return (ex.GetStatusCode());

  00071	8b 4d e8	 mov	 ecx, DWORD PTR _ex$3[ebp]
  00074	e8 00 00 00 00	 call	 ?GetStatusCode@Exception@Internal@Core@Math@Palmtree@@QBEHXZ ; Palmtree::Math::Core::Internal::Exception::GetStatusCode
  00079	89 45 e0	 mov	 DWORD PTR $T2[ebp], eax
  0007c	b8 00 00 00 00	 mov	 eax, $LN8@PMCCS_Bitw
  00081	c3		 ret	 0

; 862  :         }

  00082	b8 00 00 00 00	 mov	 eax, __tryend$_PMCCS_BitwiseOr_I_X@12$1
  00087	c3		 ret	 0
__tryend$_PMCCS_BitwiseOr_I_X@12$1:
  00088	c7 45 fc ff ff
	ff ff		 mov	 DWORD PTR __$EHRec$[ebp+12], -1
  0008f	eb 0a		 jmp	 SHORT $LN1@PMCCS_Bitw
$LN8@PMCCS_Bitw:
  00091	c7 45 fc ff ff
	ff ff		 mov	 DWORD PTR __$EHRec$[ebp+12], -1

; 858  :         }
; 859  :         catch (const Palmtree::Math::Core::Internal::Exception& ex)
; 860  :         {
; 861  :             return (ex.GetStatusCode());

  00098	8b 45 e0	 mov	 eax, DWORD PTR $T2[ebp]
$LN1@PMCCS_Bitw:

; 863  :     }

  0009b	52		 push	 edx
  0009c	8b cd		 mov	 ecx, ebp
  0009e	50		 push	 eax
  0009f	8d 15 00 00 00
	00		 lea	 edx, DWORD PTR $LN12@PMCCS_Bitw
  000a5	e8 00 00 00 00	 call	 @_RTC_CheckStackVars@8
  000aa	58		 pop	 eax
  000ab	5a		 pop	 edx
  000ac	8b 4d f4	 mov	 ecx, DWORD PTR __$EHRec$[ebp+4]
  000af	64 89 0d 00 00
	00 00		 mov	 DWORD PTR fs:0, ecx
  000b6	59		 pop	 ecx
  000b7	5f		 pop	 edi
  000b8	5e		 pop	 esi
  000b9	5b		 pop	 ebx
  000ba	83 c4 20	 add	 esp, 32			; 00000020H
  000bd	3b ec		 cmp	 ebp, esp
  000bf	e8 00 00 00 00	 call	 __RTC_CheckEsp
  000c4	8b e5		 mov	 esp, ebp
  000c6	5d		 pop	 ebp
  000c7	c2 0c 00	 ret	 12			; 0000000cH
  000ca	66 90		 npad	 2
$LN12@PMCCS_Bitw:
  000cc	01 00 00 00	 DD	 1
  000d0	00 00 00 00	 DD	 $LN11@PMCCS_Bitw
$LN11@PMCCS_Bitw:
  000d4	e8 ff ff ff	 DD	 -24			; ffffffe8H
  000d8	04 00 00 00	 DD	 4
  000dc	00 00 00 00	 DD	 $LN9@PMCCS_Bitw
$LN9@PMCCS_Bitw:
  000e0	65		 DB	 101			; 00000065H
  000e1	78		 DB	 120			; 00000078H
  000e2	00		 DB	 0
_TEXT	ENDS
text$x	SEGMENT
__ehhandler$_PMCCS_BitwiseOr_I_X@12:
  00000	8b 54 24 08	 mov	 edx, DWORD PTR [esp+8]
  00004	8d 42 0c	 lea	 eax, DWORD PTR [edx+12]
  00007	8b 4a dc	 mov	 ecx, DWORD PTR [edx-36]
  0000a	33 c8		 xor	 ecx, eax
  0000c	e8 00 00 00 00	 call	 @__security_check_cookie@4
  00011	b8 00 00 00 00	 mov	 eax, OFFSET __ehfuncinfo$_PMCCS_BitwiseOr_I_X@12
  00016	e9 00 00 00 00	 jmp	 ___CxxFrameHandler3
text$x	ENDS
_PMCCS_BitwiseOr_I_X@12 ENDP
; Function compile flags: /Odtp /RTCsu
; File z:\sources\lunor\repos\rougemeilland\palmtree.math.core.uint\palmtree.math.core.uint\pmc_interface_csharp.cpp
_TEXT	SEGMENT
$T2 = -32						; size = 4
_ex$3 = -24						; size = 4
__$EHRec$ = -16						; size = 16
_u$ = 8							; size = 4
_v$ = 12						; size = 4
_w$ = 16						; size = 4
_PMCCS_BitwiseAnd_X_X@12 PROC

; 836  :     {

  00000	55		 push	 ebp
  00001	8b ec		 mov	 ebp, esp
  00003	6a ff		 push	 -1
  00005	68 00 00 00 00	 push	 __ehhandler$_PMCCS_BitwiseAnd_X_X@12
  0000a	64 a1 00 00 00
	00		 mov	 eax, DWORD PTR fs:0
  00010	50		 push	 eax
  00011	51		 push	 ecx
  00012	83 ec 10	 sub	 esp, 16			; 00000010H
  00015	53		 push	 ebx
  00016	56		 push	 esi
  00017	57		 push	 edi
  00018	b8 cc cc cc cc	 mov	 eax, -858993460		; ccccccccH
  0001d	89 45 e0	 mov	 DWORD PTR [ebp-32], eax
  00020	89 45 e4	 mov	 DWORD PTR [ebp-28], eax
  00023	89 45 e8	 mov	 DWORD PTR [ebp-24], eax
  00026	89 45 ec	 mov	 DWORD PTR [ebp-20], eax
  00029	a1 00 00 00 00	 mov	 eax, DWORD PTR ___security_cookie
  0002e	33 c5		 xor	 eax, ebp
  00030	50		 push	 eax
  00031	8d 45 f4	 lea	 eax, DWORD PTR __$EHRec$[ebp+4]
  00034	64 a3 00 00 00
	00		 mov	 DWORD PTR fs:0, eax
  0003a	89 65 f0	 mov	 DWORD PTR __$EHRec$[ebp], esp
  0003d	b9 00 00 00 00	 mov	 ecx, OFFSET __C21BA676_pmc_interface_csharp@cpp
  00042	e8 00 00 00 00	 call	 @__CheckForDebuggerJustMyCode@4

; 837  :         if (w == nullptr)

  00047	83 7d 10 00	 cmp	 DWORD PTR _w$[ebp], 0
  0004b	75 07		 jne	 SHORT $LN2@PMCCS_Bitw

; 838  :             return (PMC_STATUS_ARGUMENT_NULL_ERROR);

  0004d	b8 fe ff ff ff	 mov	 eax, -2			; fffffffeH
  00052	eb 47		 jmp	 SHORT $LN1@PMCCS_Bitw
$LN2@PMCCS_Bitw:

; 839  :         try

  00054	c7 45 fc 00 00
	00 00		 mov	 DWORD PTR __$EHRec$[ebp+12], 0

; 840  :         {
; 841  :             *w = PMC_BitwiseAnd_X_X(u, v);

  0005b	8b 45 0c	 mov	 eax, DWORD PTR _v$[ebp]
  0005e	50		 push	 eax
  0005f	8b 4d 08	 mov	 ecx, DWORD PTR _u$[ebp]
  00062	51		 push	 ecx
  00063	e8 00 00 00 00	 call	 ?PMC_BitwiseAnd_X_X@Internal@Core@Math@Palmtree@@YGPAU__tag_PMC_HANDLE_UINT@1234@PAU51234@0@Z ; Palmtree::Math::Core::Internal::PMC_BitwiseAnd_X_X
  00068	8b 55 10	 mov	 edx, DWORD PTR _w$[ebp]
  0006b	89 02		 mov	 DWORD PTR [edx], eax

; 842  :             return (PMC_STATUS_OK);

  0006d	33 c0		 xor	 eax, eax
  0006f	eb 2a		 jmp	 SHORT $LN1@PMCCS_Bitw
__catch$_PMCCS_BitwiseAnd_X_X@12$0:

; 843  :         }
; 844  :         catch (const Palmtree::Math::Core::Internal::Exception& ex)
; 845  :         {
; 846  :             return (ex.GetStatusCode());

  00071	8b 4d e8	 mov	 ecx, DWORD PTR _ex$3[ebp]
  00074	e8 00 00 00 00	 call	 ?GetStatusCode@Exception@Internal@Core@Math@Palmtree@@QBEHXZ ; Palmtree::Math::Core::Internal::Exception::GetStatusCode
  00079	89 45 e0	 mov	 DWORD PTR $T2[ebp], eax
  0007c	b8 00 00 00 00	 mov	 eax, $LN8@PMCCS_Bitw
  00081	c3		 ret	 0

; 847  :         }

  00082	b8 00 00 00 00	 mov	 eax, __tryend$_PMCCS_BitwiseAnd_X_X@12$1
  00087	c3		 ret	 0
__tryend$_PMCCS_BitwiseAnd_X_X@12$1:
  00088	c7 45 fc ff ff
	ff ff		 mov	 DWORD PTR __$EHRec$[ebp+12], -1
  0008f	eb 0a		 jmp	 SHORT $LN1@PMCCS_Bitw
$LN8@PMCCS_Bitw:
  00091	c7 45 fc ff ff
	ff ff		 mov	 DWORD PTR __$EHRec$[ebp+12], -1

; 843  :         }
; 844  :         catch (const Palmtree::Math::Core::Internal::Exception& ex)
; 845  :         {
; 846  :             return (ex.GetStatusCode());

  00098	8b 45 e0	 mov	 eax, DWORD PTR $T2[ebp]
$LN1@PMCCS_Bitw:

; 848  :     }

  0009b	52		 push	 edx
  0009c	8b cd		 mov	 ecx, ebp
  0009e	50		 push	 eax
  0009f	8d 15 00 00 00
	00		 lea	 edx, DWORD PTR $LN12@PMCCS_Bitw
  000a5	e8 00 00 00 00	 call	 @_RTC_CheckStackVars@8
  000aa	58		 pop	 eax
  000ab	5a		 pop	 edx
  000ac	8b 4d f4	 mov	 ecx, DWORD PTR __$EHRec$[ebp+4]
  000af	64 89 0d 00 00
	00 00		 mov	 DWORD PTR fs:0, ecx
  000b6	59		 pop	 ecx
  000b7	5f		 pop	 edi
  000b8	5e		 pop	 esi
  000b9	5b		 pop	 ebx
  000ba	83 c4 20	 add	 esp, 32			; 00000020H
  000bd	3b ec		 cmp	 ebp, esp
  000bf	e8 00 00 00 00	 call	 __RTC_CheckEsp
  000c4	8b e5		 mov	 esp, ebp
  000c6	5d		 pop	 ebp
  000c7	c2 0c 00	 ret	 12			; 0000000cH
  000ca	66 90		 npad	 2
$LN12@PMCCS_Bitw:
  000cc	01 00 00 00	 DD	 1
  000d0	00 00 00 00	 DD	 $LN11@PMCCS_Bitw
$LN11@PMCCS_Bitw:
  000d4	e8 ff ff ff	 DD	 -24			; ffffffe8H
  000d8	04 00 00 00	 DD	 4
  000dc	00 00 00 00	 DD	 $LN9@PMCCS_Bitw
$LN9@PMCCS_Bitw:
  000e0	65		 DB	 101			; 00000065H
  000e1	78		 DB	 120			; 00000078H
  000e2	00		 DB	 0
_TEXT	ENDS
text$x	SEGMENT
__ehhandler$_PMCCS_BitwiseAnd_X_X@12:
  00000	8b 54 24 08	 mov	 edx, DWORD PTR [esp+8]
  00004	8d 42 0c	 lea	 eax, DWORD PTR [edx+12]
  00007	8b 4a dc	 mov	 ecx, DWORD PTR [edx-36]
  0000a	33 c8		 xor	 ecx, eax
  0000c	e8 00 00 00 00	 call	 @__security_check_cookie@4
  00011	b8 00 00 00 00	 mov	 eax, OFFSET __ehfuncinfo$_PMCCS_BitwiseAnd_X_X@12
  00016	e9 00 00 00 00	 jmp	 ___CxxFrameHandler3
text$x	ENDS
_PMCCS_BitwiseAnd_X_X@12 ENDP
; Function compile flags: /Odtp /RTCsu
; File z:\sources\lunor\repos\rougemeilland\palmtree.math.core.uint\palmtree.math.core.uint\pmc_interface_csharp.cpp
_TEXT	SEGMENT
$T2 = -32						; size = 4
_ex$3 = -24						; size = 4
__$EHRec$ = -16						; size = 16
_u$ = 8							; size = 4
_v$ = 12						; size = 8
_w$ = 20						; size = 4
_PMCCS_BitwiseAnd_X_L@16 PROC

; 821  :     {

  00000	55		 push	 ebp
  00001	8b ec		 mov	 ebp, esp
  00003	6a ff		 push	 -1
  00005	68 00 00 00 00	 push	 __ehhandler$_PMCCS_BitwiseAnd_X_L@16
  0000a	64 a1 00 00 00
	00		 mov	 eax, DWORD PTR fs:0
  00010	50		 push	 eax
  00011	51		 push	 ecx
  00012	83 ec 10	 sub	 esp, 16			; 00000010H
  00015	53		 push	 ebx
  00016	56		 push	 esi
  00017	57		 push	 edi
  00018	b8 cc cc cc cc	 mov	 eax, -858993460		; ccccccccH
  0001d	89 45 e0	 mov	 DWORD PTR [ebp-32], eax
  00020	89 45 e4	 mov	 DWORD PTR [ebp-28], eax
  00023	89 45 e8	 mov	 DWORD PTR [ebp-24], eax
  00026	89 45 ec	 mov	 DWORD PTR [ebp-20], eax
  00029	a1 00 00 00 00	 mov	 eax, DWORD PTR ___security_cookie
  0002e	33 c5		 xor	 eax, ebp
  00030	50		 push	 eax
  00031	8d 45 f4	 lea	 eax, DWORD PTR __$EHRec$[ebp+4]
  00034	64 a3 00 00 00
	00		 mov	 DWORD PTR fs:0, eax
  0003a	89 65 f0	 mov	 DWORD PTR __$EHRec$[ebp], esp
  0003d	b9 00 00 00 00	 mov	 ecx, OFFSET __C21BA676_pmc_interface_csharp@cpp
  00042	e8 00 00 00 00	 call	 @__CheckForDebuggerJustMyCode@4

; 822  :         if (w == nullptr)

  00047	83 7d 14 00	 cmp	 DWORD PTR _w$[ebp], 0
  0004b	75 07		 jne	 SHORT $LN2@PMCCS_Bitw

; 823  :             return (PMC_STATUS_ARGUMENT_NULL_ERROR);

  0004d	b8 fe ff ff ff	 mov	 eax, -2			; fffffffeH
  00052	eb 4e		 jmp	 SHORT $LN1@PMCCS_Bitw
$LN2@PMCCS_Bitw:

; 824  :         try

  00054	c7 45 fc 00 00
	00 00		 mov	 DWORD PTR __$EHRec$[ebp+12], 0

; 825  :         {
; 826  :             *w = PMC_BitwiseAnd_X_L(u, v);

  0005b	8b 45 10	 mov	 eax, DWORD PTR _v$[ebp+4]
  0005e	50		 push	 eax
  0005f	8b 4d 0c	 mov	 ecx, DWORD PTR _v$[ebp]
  00062	51		 push	 ecx
  00063	8b 55 08	 mov	 edx, DWORD PTR _u$[ebp]
  00066	52		 push	 edx
  00067	e8 00 00 00 00	 call	 ?PMC_BitwiseAnd_X_L@Internal@Core@Math@Palmtree@@YG_KPAU__tag_PMC_HANDLE_UINT@1234@_K@Z ; Palmtree::Math::Core::Internal::PMC_BitwiseAnd_X_L
  0006c	8b 4d 14	 mov	 ecx, DWORD PTR _w$[ebp]
  0006f	89 01		 mov	 DWORD PTR [ecx], eax
  00071	89 51 04	 mov	 DWORD PTR [ecx+4], edx

; 827  :             return (PMC_STATUS_OK);

  00074	33 c0		 xor	 eax, eax
  00076	eb 2a		 jmp	 SHORT $LN1@PMCCS_Bitw
__catch$_PMCCS_BitwiseAnd_X_L@16$0:

; 828  :         }
; 829  :         catch (const Palmtree::Math::Core::Internal::Exception& ex)
; 830  :         {
; 831  :             return (ex.GetStatusCode());

  00078	8b 4d e8	 mov	 ecx, DWORD PTR _ex$3[ebp]
  0007b	e8 00 00 00 00	 call	 ?GetStatusCode@Exception@Internal@Core@Math@Palmtree@@QBEHXZ ; Palmtree::Math::Core::Internal::Exception::GetStatusCode
  00080	89 45 e0	 mov	 DWORD PTR $T2[ebp], eax
  00083	b8 00 00 00 00	 mov	 eax, $LN8@PMCCS_Bitw
  00088	c3		 ret	 0

; 832  :         }

  00089	b8 00 00 00 00	 mov	 eax, __tryend$_PMCCS_BitwiseAnd_X_L@16$1
  0008e	c3		 ret	 0
__tryend$_PMCCS_BitwiseAnd_X_L@16$1:
  0008f	c7 45 fc ff ff
	ff ff		 mov	 DWORD PTR __$EHRec$[ebp+12], -1
  00096	eb 0a		 jmp	 SHORT $LN1@PMCCS_Bitw
$LN8@PMCCS_Bitw:
  00098	c7 45 fc ff ff
	ff ff		 mov	 DWORD PTR __$EHRec$[ebp+12], -1

; 828  :         }
; 829  :         catch (const Palmtree::Math::Core::Internal::Exception& ex)
; 830  :         {
; 831  :             return (ex.GetStatusCode());

  0009f	8b 45 e0	 mov	 eax, DWORD PTR $T2[ebp]
$LN1@PMCCS_Bitw:

; 833  :     }

  000a2	52		 push	 edx
  000a3	8b cd		 mov	 ecx, ebp
  000a5	50		 push	 eax
  000a6	8d 15 00 00 00
	00		 lea	 edx, DWORD PTR $LN12@PMCCS_Bitw
  000ac	e8 00 00 00 00	 call	 @_RTC_CheckStackVars@8
  000b1	58		 pop	 eax
  000b2	5a		 pop	 edx
  000b3	8b 4d f4	 mov	 ecx, DWORD PTR __$EHRec$[ebp+4]
  000b6	64 89 0d 00 00
	00 00		 mov	 DWORD PTR fs:0, ecx
  000bd	59		 pop	 ecx
  000be	5f		 pop	 edi
  000bf	5e		 pop	 esi
  000c0	5b		 pop	 ebx
  000c1	83 c4 20	 add	 esp, 32			; 00000020H
  000c4	3b ec		 cmp	 ebp, esp
  000c6	e8 00 00 00 00	 call	 __RTC_CheckEsp
  000cb	8b e5		 mov	 esp, ebp
  000cd	5d		 pop	 ebp
  000ce	c2 10 00	 ret	 16			; 00000010H
  000d1	0f 1f 00	 npad	 3
$LN12@PMCCS_Bitw:
  000d4	01 00 00 00	 DD	 1
  000d8	00 00 00 00	 DD	 $LN11@PMCCS_Bitw
$LN11@PMCCS_Bitw:
  000dc	e8 ff ff ff	 DD	 -24			; ffffffe8H
  000e0	04 00 00 00	 DD	 4
  000e4	00 00 00 00	 DD	 $LN9@PMCCS_Bitw
$LN9@PMCCS_Bitw:
  000e8	65		 DB	 101			; 00000065H
  000e9	78		 DB	 120			; 00000078H
  000ea	00		 DB	 0
_TEXT	ENDS
text$x	SEGMENT
__ehhandler$_PMCCS_BitwiseAnd_X_L@16:
  00000	8b 54 24 08	 mov	 edx, DWORD PTR [esp+8]
  00004	8d 42 0c	 lea	 eax, DWORD PTR [edx+12]
  00007	8b 4a dc	 mov	 ecx, DWORD PTR [edx-36]
  0000a	33 c8		 xor	 ecx, eax
  0000c	e8 00 00 00 00	 call	 @__security_check_cookie@4
  00011	b8 00 00 00 00	 mov	 eax, OFFSET __ehfuncinfo$_PMCCS_BitwiseAnd_X_L@16
  00016	e9 00 00 00 00	 jmp	 ___CxxFrameHandler3
text$x	ENDS
_PMCCS_BitwiseAnd_X_L@16 ENDP
; Function compile flags: /Odtp /RTCsu
; File z:\sources\lunor\repos\rougemeilland\palmtree.math.core.uint\palmtree.math.core.uint\pmc_interface_csharp.cpp
_TEXT	SEGMENT
$T2 = -32						; size = 4
_ex$3 = -24						; size = 4
__$EHRec$ = -16						; size = 16
_u$ = 8							; size = 4
_v$ = 12						; size = 4
_w$ = 16						; size = 4
_PMCCS_BitwiseAnd_X_I@12 PROC

; 806  :     {

  00000	55		 push	 ebp
  00001	8b ec		 mov	 ebp, esp
  00003	6a ff		 push	 -1
  00005	68 00 00 00 00	 push	 __ehhandler$_PMCCS_BitwiseAnd_X_I@12
  0000a	64 a1 00 00 00
	00		 mov	 eax, DWORD PTR fs:0
  00010	50		 push	 eax
  00011	51		 push	 ecx
  00012	83 ec 10	 sub	 esp, 16			; 00000010H
  00015	53		 push	 ebx
  00016	56		 push	 esi
  00017	57		 push	 edi
  00018	b8 cc cc cc cc	 mov	 eax, -858993460		; ccccccccH
  0001d	89 45 e0	 mov	 DWORD PTR [ebp-32], eax
  00020	89 45 e4	 mov	 DWORD PTR [ebp-28], eax
  00023	89 45 e8	 mov	 DWORD PTR [ebp-24], eax
  00026	89 45 ec	 mov	 DWORD PTR [ebp-20], eax
  00029	a1 00 00 00 00	 mov	 eax, DWORD PTR ___security_cookie
  0002e	33 c5		 xor	 eax, ebp
  00030	50		 push	 eax
  00031	8d 45 f4	 lea	 eax, DWORD PTR __$EHRec$[ebp+4]
  00034	64 a3 00 00 00
	00		 mov	 DWORD PTR fs:0, eax
  0003a	89 65 f0	 mov	 DWORD PTR __$EHRec$[ebp], esp
  0003d	b9 00 00 00 00	 mov	 ecx, OFFSET __C21BA676_pmc_interface_csharp@cpp
  00042	e8 00 00 00 00	 call	 @__CheckForDebuggerJustMyCode@4

; 807  :         if (w == nullptr)

  00047	83 7d 10 00	 cmp	 DWORD PTR _w$[ebp], 0
  0004b	75 07		 jne	 SHORT $LN2@PMCCS_Bitw

; 808  :             return (PMC_STATUS_ARGUMENT_NULL_ERROR);

  0004d	b8 fe ff ff ff	 mov	 eax, -2			; fffffffeH
  00052	eb 47		 jmp	 SHORT $LN1@PMCCS_Bitw
$LN2@PMCCS_Bitw:

; 809  :         try

  00054	c7 45 fc 00 00
	00 00		 mov	 DWORD PTR __$EHRec$[ebp+12], 0

; 810  :         {
; 811  :             *w = PMC_BitwiseAnd_X_I(u, v);

  0005b	8b 45 0c	 mov	 eax, DWORD PTR _v$[ebp]
  0005e	50		 push	 eax
  0005f	8b 4d 08	 mov	 ecx, DWORD PTR _u$[ebp]
  00062	51		 push	 ecx
  00063	e8 00 00 00 00	 call	 ?PMC_BitwiseAnd_X_I@Internal@Core@Math@Palmtree@@YGIPAU__tag_PMC_HANDLE_UINT@1234@I@Z ; Palmtree::Math::Core::Internal::PMC_BitwiseAnd_X_I
  00068	8b 55 10	 mov	 edx, DWORD PTR _w$[ebp]
  0006b	89 02		 mov	 DWORD PTR [edx], eax

; 812  :             return (PMC_STATUS_OK);

  0006d	33 c0		 xor	 eax, eax
  0006f	eb 2a		 jmp	 SHORT $LN1@PMCCS_Bitw
__catch$_PMCCS_BitwiseAnd_X_I@12$0:

; 813  :         }
; 814  :         catch (const Palmtree::Math::Core::Internal::Exception& ex)
; 815  :         {
; 816  :             return (ex.GetStatusCode());

  00071	8b 4d e8	 mov	 ecx, DWORD PTR _ex$3[ebp]
  00074	e8 00 00 00 00	 call	 ?GetStatusCode@Exception@Internal@Core@Math@Palmtree@@QBEHXZ ; Palmtree::Math::Core::Internal::Exception::GetStatusCode
  00079	89 45 e0	 mov	 DWORD PTR $T2[ebp], eax
  0007c	b8 00 00 00 00	 mov	 eax, $LN8@PMCCS_Bitw
  00081	c3		 ret	 0

; 817  :         }

  00082	b8 00 00 00 00	 mov	 eax, __tryend$_PMCCS_BitwiseAnd_X_I@12$1
  00087	c3		 ret	 0
__tryend$_PMCCS_BitwiseAnd_X_I@12$1:
  00088	c7 45 fc ff ff
	ff ff		 mov	 DWORD PTR __$EHRec$[ebp+12], -1
  0008f	eb 0a		 jmp	 SHORT $LN1@PMCCS_Bitw
$LN8@PMCCS_Bitw:
  00091	c7 45 fc ff ff
	ff ff		 mov	 DWORD PTR __$EHRec$[ebp+12], -1

; 813  :         }
; 814  :         catch (const Palmtree::Math::Core::Internal::Exception& ex)
; 815  :         {
; 816  :             return (ex.GetStatusCode());

  00098	8b 45 e0	 mov	 eax, DWORD PTR $T2[ebp]
$LN1@PMCCS_Bitw:

; 818  :     }

  0009b	52		 push	 edx
  0009c	8b cd		 mov	 ecx, ebp
  0009e	50		 push	 eax
  0009f	8d 15 00 00 00
	00		 lea	 edx, DWORD PTR $LN12@PMCCS_Bitw
  000a5	e8 00 00 00 00	 call	 @_RTC_CheckStackVars@8
  000aa	58		 pop	 eax
  000ab	5a		 pop	 edx
  000ac	8b 4d f4	 mov	 ecx, DWORD PTR __$EHRec$[ebp+4]
  000af	64 89 0d 00 00
	00 00		 mov	 DWORD PTR fs:0, ecx
  000b6	59		 pop	 ecx
  000b7	5f		 pop	 edi
  000b8	5e		 pop	 esi
  000b9	5b		 pop	 ebx
  000ba	83 c4 20	 add	 esp, 32			; 00000020H
  000bd	3b ec		 cmp	 ebp, esp
  000bf	e8 00 00 00 00	 call	 __RTC_CheckEsp
  000c4	8b e5		 mov	 esp, ebp
  000c6	5d		 pop	 ebp
  000c7	c2 0c 00	 ret	 12			; 0000000cH
  000ca	66 90		 npad	 2
$LN12@PMCCS_Bitw:
  000cc	01 00 00 00	 DD	 1
  000d0	00 00 00 00	 DD	 $LN11@PMCCS_Bitw
$LN11@PMCCS_Bitw:
  000d4	e8 ff ff ff	 DD	 -24			; ffffffe8H
  000d8	04 00 00 00	 DD	 4
  000dc	00 00 00 00	 DD	 $LN9@PMCCS_Bitw
$LN9@PMCCS_Bitw:
  000e0	65		 DB	 101			; 00000065H
  000e1	78		 DB	 120			; 00000078H
  000e2	00		 DB	 0
_TEXT	ENDS
text$x	SEGMENT
__ehhandler$_PMCCS_BitwiseAnd_X_I@12:
  00000	8b 54 24 08	 mov	 edx, DWORD PTR [esp+8]
  00004	8d 42 0c	 lea	 eax, DWORD PTR [edx+12]
  00007	8b 4a dc	 mov	 ecx, DWORD PTR [edx-36]
  0000a	33 c8		 xor	 ecx, eax
  0000c	e8 00 00 00 00	 call	 @__security_check_cookie@4
  00011	b8 00 00 00 00	 mov	 eax, OFFSET __ehfuncinfo$_PMCCS_BitwiseAnd_X_I@12
  00016	e9 00 00 00 00	 jmp	 ___CxxFrameHandler3
text$x	ENDS
_PMCCS_BitwiseAnd_X_I@12 ENDP
; Function compile flags: /Odtp /RTCsu
; File z:\sources\lunor\repos\rougemeilland\palmtree.math.core.uint\palmtree.math.core.uint\pmc_interface_csharp.cpp
_TEXT	SEGMENT
$T2 = -32						; size = 4
_ex$3 = -24						; size = 4
__$EHRec$ = -16						; size = 16
_u$ = 8							; size = 8
_v$ = 16						; size = 4
_w$ = 20						; size = 4
_PMCCS_BitwiseAnd_L_X@16 PROC

; 791  :     {

  00000	55		 push	 ebp
  00001	8b ec		 mov	 ebp, esp
  00003	6a ff		 push	 -1
  00005	68 00 00 00 00	 push	 __ehhandler$_PMCCS_BitwiseAnd_L_X@16
  0000a	64 a1 00 00 00
	00		 mov	 eax, DWORD PTR fs:0
  00010	50		 push	 eax
  00011	51		 push	 ecx
  00012	83 ec 10	 sub	 esp, 16			; 00000010H
  00015	53		 push	 ebx
  00016	56		 push	 esi
  00017	57		 push	 edi
  00018	b8 cc cc cc cc	 mov	 eax, -858993460		; ccccccccH
  0001d	89 45 e0	 mov	 DWORD PTR [ebp-32], eax
  00020	89 45 e4	 mov	 DWORD PTR [ebp-28], eax
  00023	89 45 e8	 mov	 DWORD PTR [ebp-24], eax
  00026	89 45 ec	 mov	 DWORD PTR [ebp-20], eax
  00029	a1 00 00 00 00	 mov	 eax, DWORD PTR ___security_cookie
  0002e	33 c5		 xor	 eax, ebp
  00030	50		 push	 eax
  00031	8d 45 f4	 lea	 eax, DWORD PTR __$EHRec$[ebp+4]
  00034	64 a3 00 00 00
	00		 mov	 DWORD PTR fs:0, eax
  0003a	89 65 f0	 mov	 DWORD PTR __$EHRec$[ebp], esp
  0003d	b9 00 00 00 00	 mov	 ecx, OFFSET __C21BA676_pmc_interface_csharp@cpp
  00042	e8 00 00 00 00	 call	 @__CheckForDebuggerJustMyCode@4

; 792  :         if (w == nullptr)

  00047	83 7d 14 00	 cmp	 DWORD PTR _w$[ebp], 0
  0004b	75 07		 jne	 SHORT $LN2@PMCCS_Bitw

; 793  :             return (PMC_STATUS_ARGUMENT_NULL_ERROR);

  0004d	b8 fe ff ff ff	 mov	 eax, -2			; fffffffeH
  00052	eb 4e		 jmp	 SHORT $LN1@PMCCS_Bitw
$LN2@PMCCS_Bitw:

; 794  :         try

  00054	c7 45 fc 00 00
	00 00		 mov	 DWORD PTR __$EHRec$[ebp+12], 0

; 795  :         {
; 796  :             *w = PMC_BitwiseAnd_L_X(u, v);

  0005b	8b 45 10	 mov	 eax, DWORD PTR _v$[ebp]
  0005e	50		 push	 eax
  0005f	8b 4d 0c	 mov	 ecx, DWORD PTR _u$[ebp+4]
  00062	51		 push	 ecx
  00063	8b 55 08	 mov	 edx, DWORD PTR _u$[ebp]
  00066	52		 push	 edx
  00067	e8 00 00 00 00	 call	 ?PMC_BitwiseAnd_L_X@Internal@Core@Math@Palmtree@@YG_K_KPAU__tag_PMC_HANDLE_UINT@1234@@Z ; Palmtree::Math::Core::Internal::PMC_BitwiseAnd_L_X
  0006c	8b 4d 14	 mov	 ecx, DWORD PTR _w$[ebp]
  0006f	89 01		 mov	 DWORD PTR [ecx], eax
  00071	89 51 04	 mov	 DWORD PTR [ecx+4], edx

; 797  :             return (PMC_STATUS_OK);

  00074	33 c0		 xor	 eax, eax
  00076	eb 2a		 jmp	 SHORT $LN1@PMCCS_Bitw
__catch$_PMCCS_BitwiseAnd_L_X@16$0:

; 798  :         }
; 799  :         catch (const Palmtree::Math::Core::Internal::Exception& ex)
; 800  :         {
; 801  :             return (ex.GetStatusCode());

  00078	8b 4d e8	 mov	 ecx, DWORD PTR _ex$3[ebp]
  0007b	e8 00 00 00 00	 call	 ?GetStatusCode@Exception@Internal@Core@Math@Palmtree@@QBEHXZ ; Palmtree::Math::Core::Internal::Exception::GetStatusCode
  00080	89 45 e0	 mov	 DWORD PTR $T2[ebp], eax
  00083	b8 00 00 00 00	 mov	 eax, $LN8@PMCCS_Bitw
  00088	c3		 ret	 0

; 802  :         }

  00089	b8 00 00 00 00	 mov	 eax, __tryend$_PMCCS_BitwiseAnd_L_X@16$1
  0008e	c3		 ret	 0
__tryend$_PMCCS_BitwiseAnd_L_X@16$1:
  0008f	c7 45 fc ff ff
	ff ff		 mov	 DWORD PTR __$EHRec$[ebp+12], -1
  00096	eb 0a		 jmp	 SHORT $LN1@PMCCS_Bitw
$LN8@PMCCS_Bitw:
  00098	c7 45 fc ff ff
	ff ff		 mov	 DWORD PTR __$EHRec$[ebp+12], -1

; 798  :         }
; 799  :         catch (const Palmtree::Math::Core::Internal::Exception& ex)
; 800  :         {
; 801  :             return (ex.GetStatusCode());

  0009f	8b 45 e0	 mov	 eax, DWORD PTR $T2[ebp]
$LN1@PMCCS_Bitw:

; 803  :     }

  000a2	52		 push	 edx
  000a3	8b cd		 mov	 ecx, ebp
  000a5	50		 push	 eax
  000a6	8d 15 00 00 00
	00		 lea	 edx, DWORD PTR $LN12@PMCCS_Bitw
  000ac	e8 00 00 00 00	 call	 @_RTC_CheckStackVars@8
  000b1	58		 pop	 eax
  000b2	5a		 pop	 edx
  000b3	8b 4d f4	 mov	 ecx, DWORD PTR __$EHRec$[ebp+4]
  000b6	64 89 0d 00 00
	00 00		 mov	 DWORD PTR fs:0, ecx
  000bd	59		 pop	 ecx
  000be	5f		 pop	 edi
  000bf	5e		 pop	 esi
  000c0	5b		 pop	 ebx
  000c1	83 c4 20	 add	 esp, 32			; 00000020H
  000c4	3b ec		 cmp	 ebp, esp
  000c6	e8 00 00 00 00	 call	 __RTC_CheckEsp
  000cb	8b e5		 mov	 esp, ebp
  000cd	5d		 pop	 ebp
  000ce	c2 10 00	 ret	 16			; 00000010H
  000d1	0f 1f 00	 npad	 3
$LN12@PMCCS_Bitw:
  000d4	01 00 00 00	 DD	 1
  000d8	00 00 00 00	 DD	 $LN11@PMCCS_Bitw
$LN11@PMCCS_Bitw:
  000dc	e8 ff ff ff	 DD	 -24			; ffffffe8H
  000e0	04 00 00 00	 DD	 4
  000e4	00 00 00 00	 DD	 $LN9@PMCCS_Bitw
$LN9@PMCCS_Bitw:
  000e8	65		 DB	 101			; 00000065H
  000e9	78		 DB	 120			; 00000078H
  000ea	00		 DB	 0
_TEXT	ENDS
text$x	SEGMENT
__ehhandler$_PMCCS_BitwiseAnd_L_X@16:
  00000	8b 54 24 08	 mov	 edx, DWORD PTR [esp+8]
  00004	8d 42 0c	 lea	 eax, DWORD PTR [edx+12]
  00007	8b 4a dc	 mov	 ecx, DWORD PTR [edx-36]
  0000a	33 c8		 xor	 ecx, eax
  0000c	e8 00 00 00 00	 call	 @__security_check_cookie@4
  00011	b8 00 00 00 00	 mov	 eax, OFFSET __ehfuncinfo$_PMCCS_BitwiseAnd_L_X@16
  00016	e9 00 00 00 00	 jmp	 ___CxxFrameHandler3
text$x	ENDS
_PMCCS_BitwiseAnd_L_X@16 ENDP
; Function compile flags: /Odtp /RTCsu
; File z:\sources\lunor\repos\rougemeilland\palmtree.math.core.uint\palmtree.math.core.uint\pmc_interface_csharp.cpp
_TEXT	SEGMENT
$T2 = -32						; size = 4
_ex$3 = -24						; size = 4
__$EHRec$ = -16						; size = 16
_u$ = 8							; size = 4
_v$ = 12						; size = 4
_w$ = 16						; size = 4
_PMCCS_BitwiseAnd_I_X@12 PROC

; 776  :     {

  00000	55		 push	 ebp
  00001	8b ec		 mov	 ebp, esp
  00003	6a ff		 push	 -1
  00005	68 00 00 00 00	 push	 __ehhandler$_PMCCS_BitwiseAnd_I_X@12
  0000a	64 a1 00 00 00
	00		 mov	 eax, DWORD PTR fs:0
  00010	50		 push	 eax
  00011	51		 push	 ecx
  00012	83 ec 10	 sub	 esp, 16			; 00000010H
  00015	53		 push	 ebx
  00016	56		 push	 esi
  00017	57		 push	 edi
  00018	b8 cc cc cc cc	 mov	 eax, -858993460		; ccccccccH
  0001d	89 45 e0	 mov	 DWORD PTR [ebp-32], eax
  00020	89 45 e4	 mov	 DWORD PTR [ebp-28], eax
  00023	89 45 e8	 mov	 DWORD PTR [ebp-24], eax
  00026	89 45 ec	 mov	 DWORD PTR [ebp-20], eax
  00029	a1 00 00 00 00	 mov	 eax, DWORD PTR ___security_cookie
  0002e	33 c5		 xor	 eax, ebp
  00030	50		 push	 eax
  00031	8d 45 f4	 lea	 eax, DWORD PTR __$EHRec$[ebp+4]
  00034	64 a3 00 00 00
	00		 mov	 DWORD PTR fs:0, eax
  0003a	89 65 f0	 mov	 DWORD PTR __$EHRec$[ebp], esp
  0003d	b9 00 00 00 00	 mov	 ecx, OFFSET __C21BA676_pmc_interface_csharp@cpp
  00042	e8 00 00 00 00	 call	 @__CheckForDebuggerJustMyCode@4

; 777  :         if (w == nullptr)

  00047	83 7d 10 00	 cmp	 DWORD PTR _w$[ebp], 0
  0004b	75 07		 jne	 SHORT $LN2@PMCCS_Bitw

; 778  :             return (PMC_STATUS_ARGUMENT_NULL_ERROR);

  0004d	b8 fe ff ff ff	 mov	 eax, -2			; fffffffeH
  00052	eb 47		 jmp	 SHORT $LN1@PMCCS_Bitw
$LN2@PMCCS_Bitw:

; 779  :         try

  00054	c7 45 fc 00 00
	00 00		 mov	 DWORD PTR __$EHRec$[ebp+12], 0

; 780  :         {
; 781  :             *w = PMC_BitwiseAnd_I_X(u, v);

  0005b	8b 45 0c	 mov	 eax, DWORD PTR _v$[ebp]
  0005e	50		 push	 eax
  0005f	8b 4d 08	 mov	 ecx, DWORD PTR _u$[ebp]
  00062	51		 push	 ecx
  00063	e8 00 00 00 00	 call	 ?PMC_BitwiseAnd_I_X@Internal@Core@Math@Palmtree@@YGIIPAU__tag_PMC_HANDLE_UINT@1234@@Z ; Palmtree::Math::Core::Internal::PMC_BitwiseAnd_I_X
  00068	8b 55 10	 mov	 edx, DWORD PTR _w$[ebp]
  0006b	89 02		 mov	 DWORD PTR [edx], eax

; 782  :             return (PMC_STATUS_OK);

  0006d	33 c0		 xor	 eax, eax
  0006f	eb 2a		 jmp	 SHORT $LN1@PMCCS_Bitw
__catch$_PMCCS_BitwiseAnd_I_X@12$0:

; 783  :         }
; 784  :         catch (const Palmtree::Math::Core::Internal::Exception& ex)
; 785  :         {
; 786  :             return (ex.GetStatusCode());

  00071	8b 4d e8	 mov	 ecx, DWORD PTR _ex$3[ebp]
  00074	e8 00 00 00 00	 call	 ?GetStatusCode@Exception@Internal@Core@Math@Palmtree@@QBEHXZ ; Palmtree::Math::Core::Internal::Exception::GetStatusCode
  00079	89 45 e0	 mov	 DWORD PTR $T2[ebp], eax
  0007c	b8 00 00 00 00	 mov	 eax, $LN8@PMCCS_Bitw
  00081	c3		 ret	 0

; 787  :         }

  00082	b8 00 00 00 00	 mov	 eax, __tryend$_PMCCS_BitwiseAnd_I_X@12$1
  00087	c3		 ret	 0
__tryend$_PMCCS_BitwiseAnd_I_X@12$1:
  00088	c7 45 fc ff ff
	ff ff		 mov	 DWORD PTR __$EHRec$[ebp+12], -1
  0008f	eb 0a		 jmp	 SHORT $LN1@PMCCS_Bitw
$LN8@PMCCS_Bitw:
  00091	c7 45 fc ff ff
	ff ff		 mov	 DWORD PTR __$EHRec$[ebp+12], -1

; 783  :         }
; 784  :         catch (const Palmtree::Math::Core::Internal::Exception& ex)
; 785  :         {
; 786  :             return (ex.GetStatusCode());

  00098	8b 45 e0	 mov	 eax, DWORD PTR $T2[ebp]
$LN1@PMCCS_Bitw:

; 788  :     }

  0009b	52		 push	 edx
  0009c	8b cd		 mov	 ecx, ebp
  0009e	50		 push	 eax
  0009f	8d 15 00 00 00
	00		 lea	 edx, DWORD PTR $LN12@PMCCS_Bitw
  000a5	e8 00 00 00 00	 call	 @_RTC_CheckStackVars@8
  000aa	58		 pop	 eax
  000ab	5a		 pop	 edx
  000ac	8b 4d f4	 mov	 ecx, DWORD PTR __$EHRec$[ebp+4]
  000af	64 89 0d 00 00
	00 00		 mov	 DWORD PTR fs:0, ecx
  000b6	59		 pop	 ecx
  000b7	5f		 pop	 edi
  000b8	5e		 pop	 esi
  000b9	5b		 pop	 ebx
  000ba	83 c4 20	 add	 esp, 32			; 00000020H
  000bd	3b ec		 cmp	 ebp, esp
  000bf	e8 00 00 00 00	 call	 __RTC_CheckEsp
  000c4	8b e5		 mov	 esp, ebp
  000c6	5d		 pop	 ebp
  000c7	c2 0c 00	 ret	 12			; 0000000cH
  000ca	66 90		 npad	 2
$LN12@PMCCS_Bitw:
  000cc	01 00 00 00	 DD	 1
  000d0	00 00 00 00	 DD	 $LN11@PMCCS_Bitw
$LN11@PMCCS_Bitw:
  000d4	e8 ff ff ff	 DD	 -24			; ffffffe8H
  000d8	04 00 00 00	 DD	 4
  000dc	00 00 00 00	 DD	 $LN9@PMCCS_Bitw
$LN9@PMCCS_Bitw:
  000e0	65		 DB	 101			; 00000065H
  000e1	78		 DB	 120			; 00000078H
  000e2	00		 DB	 0
_TEXT	ENDS
text$x	SEGMENT
__ehhandler$_PMCCS_BitwiseAnd_I_X@12:
  00000	8b 54 24 08	 mov	 edx, DWORD PTR [esp+8]
  00004	8d 42 0c	 lea	 eax, DWORD PTR [edx+12]
  00007	8b 4a dc	 mov	 ecx, DWORD PTR [edx-36]
  0000a	33 c8		 xor	 ecx, eax
  0000c	e8 00 00 00 00	 call	 @__security_check_cookie@4
  00011	b8 00 00 00 00	 mov	 eax, OFFSET __ehfuncinfo$_PMCCS_BitwiseAnd_I_X@12
  00016	e9 00 00 00 00	 jmp	 ___CxxFrameHandler3
text$x	ENDS
_PMCCS_BitwiseAnd_I_X@12 ENDP
; Function compile flags: /Odtp /RTCsu
; File z:\sources\lunor\repos\rougemeilland\palmtree.math.core.uint\palmtree.math.core.uint\pmc_interface_csharp.cpp
_TEXT	SEGMENT
$T2 = -32						; size = 4
_ex$3 = -24						; size = 4
__$EHRec$ = -16						; size = 16
_p$ = 8							; size = 4
_n$ = 12						; size = 4
_o$ = 16						; size = 4
_PMCCS_LeftShift_X_I@12 PROC

; 761  :     {

  00000	55		 push	 ebp
  00001	8b ec		 mov	 ebp, esp
  00003	6a ff		 push	 -1
  00005	68 00 00 00 00	 push	 __ehhandler$_PMCCS_LeftShift_X_I@12
  0000a	64 a1 00 00 00
	00		 mov	 eax, DWORD PTR fs:0
  00010	50		 push	 eax
  00011	51		 push	 ecx
  00012	83 ec 10	 sub	 esp, 16			; 00000010H
  00015	53		 push	 ebx
  00016	56		 push	 esi
  00017	57		 push	 edi
  00018	b8 cc cc cc cc	 mov	 eax, -858993460		; ccccccccH
  0001d	89 45 e0	 mov	 DWORD PTR [ebp-32], eax
  00020	89 45 e4	 mov	 DWORD PTR [ebp-28], eax
  00023	89 45 e8	 mov	 DWORD PTR [ebp-24], eax
  00026	89 45 ec	 mov	 DWORD PTR [ebp-20], eax
  00029	a1 00 00 00 00	 mov	 eax, DWORD PTR ___security_cookie
  0002e	33 c5		 xor	 eax, ebp
  00030	50		 push	 eax
  00031	8d 45 f4	 lea	 eax, DWORD PTR __$EHRec$[ebp+4]
  00034	64 a3 00 00 00
	00		 mov	 DWORD PTR fs:0, eax
  0003a	89 65 f0	 mov	 DWORD PTR __$EHRec$[ebp], esp
  0003d	b9 00 00 00 00	 mov	 ecx, OFFSET __C21BA676_pmc_interface_csharp@cpp
  00042	e8 00 00 00 00	 call	 @__CheckForDebuggerJustMyCode@4

; 762  :         if (o == nullptr)

  00047	83 7d 10 00	 cmp	 DWORD PTR _o$[ebp], 0
  0004b	75 07		 jne	 SHORT $LN2@PMCCS_Left

; 763  :             return (PMC_STATUS_ARGUMENT_NULL_ERROR);

  0004d	b8 fe ff ff ff	 mov	 eax, -2			; fffffffeH
  00052	eb 47		 jmp	 SHORT $LN1@PMCCS_Left
$LN2@PMCCS_Left:

; 764  :         try

  00054	c7 45 fc 00 00
	00 00		 mov	 DWORD PTR __$EHRec$[ebp+12], 0

; 765  :         {
; 766  :             *o = PMC_LeftShift_X_I(p, n);

  0005b	8b 45 0c	 mov	 eax, DWORD PTR _n$[ebp]
  0005e	50		 push	 eax
  0005f	8b 4d 08	 mov	 ecx, DWORD PTR _p$[ebp]
  00062	51		 push	 ecx
  00063	e8 00 00 00 00	 call	 ?PMC_LeftShift_X_I@Internal@Core@Math@Palmtree@@YGPAU__tag_PMC_HANDLE_UINT@1234@PAU51234@H@Z ; Palmtree::Math::Core::Internal::PMC_LeftShift_X_I
  00068	8b 55 10	 mov	 edx, DWORD PTR _o$[ebp]
  0006b	89 02		 mov	 DWORD PTR [edx], eax

; 767  :             return (PMC_STATUS_OK);

  0006d	33 c0		 xor	 eax, eax
  0006f	eb 2a		 jmp	 SHORT $LN1@PMCCS_Left
__catch$_PMCCS_LeftShift_X_I@12$0:

; 768  :         }
; 769  :         catch (const Palmtree::Math::Core::Internal::Exception& ex)
; 770  :         {
; 771  :             return (ex.GetStatusCode());

  00071	8b 4d e8	 mov	 ecx, DWORD PTR _ex$3[ebp]
  00074	e8 00 00 00 00	 call	 ?GetStatusCode@Exception@Internal@Core@Math@Palmtree@@QBEHXZ ; Palmtree::Math::Core::Internal::Exception::GetStatusCode
  00079	89 45 e0	 mov	 DWORD PTR $T2[ebp], eax
  0007c	b8 00 00 00 00	 mov	 eax, $LN8@PMCCS_Left
  00081	c3		 ret	 0

; 772  :         }

  00082	b8 00 00 00 00	 mov	 eax, __tryend$_PMCCS_LeftShift_X_I@12$1
  00087	c3		 ret	 0
__tryend$_PMCCS_LeftShift_X_I@12$1:
  00088	c7 45 fc ff ff
	ff ff		 mov	 DWORD PTR __$EHRec$[ebp+12], -1
  0008f	eb 0a		 jmp	 SHORT $LN1@PMCCS_Left
$LN8@PMCCS_Left:
  00091	c7 45 fc ff ff
	ff ff		 mov	 DWORD PTR __$EHRec$[ebp+12], -1

; 768  :         }
; 769  :         catch (const Palmtree::Math::Core::Internal::Exception& ex)
; 770  :         {
; 771  :             return (ex.GetStatusCode());

  00098	8b 45 e0	 mov	 eax, DWORD PTR $T2[ebp]
$LN1@PMCCS_Left:

; 773  :     }

  0009b	52		 push	 edx
  0009c	8b cd		 mov	 ecx, ebp
  0009e	50		 push	 eax
  0009f	8d 15 00 00 00
	00		 lea	 edx, DWORD PTR $LN12@PMCCS_Left
  000a5	e8 00 00 00 00	 call	 @_RTC_CheckStackVars@8
  000aa	58		 pop	 eax
  000ab	5a		 pop	 edx
  000ac	8b 4d f4	 mov	 ecx, DWORD PTR __$EHRec$[ebp+4]
  000af	64 89 0d 00 00
	00 00		 mov	 DWORD PTR fs:0, ecx
  000b6	59		 pop	 ecx
  000b7	5f		 pop	 edi
  000b8	5e		 pop	 esi
  000b9	5b		 pop	 ebx
  000ba	83 c4 20	 add	 esp, 32			; 00000020H
  000bd	3b ec		 cmp	 ebp, esp
  000bf	e8 00 00 00 00	 call	 __RTC_CheckEsp
  000c4	8b e5		 mov	 esp, ebp
  000c6	5d		 pop	 ebp
  000c7	c2 0c 00	 ret	 12			; 0000000cH
  000ca	66 90		 npad	 2
$LN12@PMCCS_Left:
  000cc	01 00 00 00	 DD	 1
  000d0	00 00 00 00	 DD	 $LN11@PMCCS_Left
$LN11@PMCCS_Left:
  000d4	e8 ff ff ff	 DD	 -24			; ffffffe8H
  000d8	04 00 00 00	 DD	 4
  000dc	00 00 00 00	 DD	 $LN9@PMCCS_Left
$LN9@PMCCS_Left:
  000e0	65		 DB	 101			; 00000065H
  000e1	78		 DB	 120			; 00000078H
  000e2	00		 DB	 0
_TEXT	ENDS
text$x	SEGMENT
__ehhandler$_PMCCS_LeftShift_X_I@12:
  00000	8b 54 24 08	 mov	 edx, DWORD PTR [esp+8]
  00004	8d 42 0c	 lea	 eax, DWORD PTR [edx+12]
  00007	8b 4a dc	 mov	 ecx, DWORD PTR [edx-36]
  0000a	33 c8		 xor	 ecx, eax
  0000c	e8 00 00 00 00	 call	 @__security_check_cookie@4
  00011	b8 00 00 00 00	 mov	 eax, OFFSET __ehfuncinfo$_PMCCS_LeftShift_X_I@12
  00016	e9 00 00 00 00	 jmp	 ___CxxFrameHandler3
text$x	ENDS
_PMCCS_LeftShift_X_I@12 ENDP
; Function compile flags: /Odtp /RTCsu
; File z:\sources\lunor\repos\rougemeilland\palmtree.math.core.uint\palmtree.math.core.uint\pmc_interface_csharp.cpp
_TEXT	SEGMENT
$T2 = -32						; size = 4
_ex$3 = -24						; size = 4
__$EHRec$ = -16						; size = 16
_p$ = 8							; size = 4
_n$ = 12						; size = 4
_o$ = 16						; size = 4
_PMCCS_RightShift_X_I@12 PROC

; 746  :     {

  00000	55		 push	 ebp
  00001	8b ec		 mov	 ebp, esp
  00003	6a ff		 push	 -1
  00005	68 00 00 00 00	 push	 __ehhandler$_PMCCS_RightShift_X_I@12
  0000a	64 a1 00 00 00
	00		 mov	 eax, DWORD PTR fs:0
  00010	50		 push	 eax
  00011	51		 push	 ecx
  00012	83 ec 10	 sub	 esp, 16			; 00000010H
  00015	53		 push	 ebx
  00016	56		 push	 esi
  00017	57		 push	 edi
  00018	b8 cc cc cc cc	 mov	 eax, -858993460		; ccccccccH
  0001d	89 45 e0	 mov	 DWORD PTR [ebp-32], eax
  00020	89 45 e4	 mov	 DWORD PTR [ebp-28], eax
  00023	89 45 e8	 mov	 DWORD PTR [ebp-24], eax
  00026	89 45 ec	 mov	 DWORD PTR [ebp-20], eax
  00029	a1 00 00 00 00	 mov	 eax, DWORD PTR ___security_cookie
  0002e	33 c5		 xor	 eax, ebp
  00030	50		 push	 eax
  00031	8d 45 f4	 lea	 eax, DWORD PTR __$EHRec$[ebp+4]
  00034	64 a3 00 00 00
	00		 mov	 DWORD PTR fs:0, eax
  0003a	89 65 f0	 mov	 DWORD PTR __$EHRec$[ebp], esp
  0003d	b9 00 00 00 00	 mov	 ecx, OFFSET __C21BA676_pmc_interface_csharp@cpp
  00042	e8 00 00 00 00	 call	 @__CheckForDebuggerJustMyCode@4

; 747  :         if (o == nullptr)

  00047	83 7d 10 00	 cmp	 DWORD PTR _o$[ebp], 0
  0004b	75 07		 jne	 SHORT $LN2@PMCCS_Righ

; 748  :             return (PMC_STATUS_ARGUMENT_NULL_ERROR);

  0004d	b8 fe ff ff ff	 mov	 eax, -2			; fffffffeH
  00052	eb 47		 jmp	 SHORT $LN1@PMCCS_Righ
$LN2@PMCCS_Righ:

; 749  :         try

  00054	c7 45 fc 00 00
	00 00		 mov	 DWORD PTR __$EHRec$[ebp+12], 0

; 750  :         {
; 751  :             *o = PMC_RightShift_X_I(p, n);

  0005b	8b 45 0c	 mov	 eax, DWORD PTR _n$[ebp]
  0005e	50		 push	 eax
  0005f	8b 4d 08	 mov	 ecx, DWORD PTR _p$[ebp]
  00062	51		 push	 ecx
  00063	e8 00 00 00 00	 call	 ?PMC_RightShift_X_I@Internal@Core@Math@Palmtree@@YGPAU__tag_PMC_HANDLE_UINT@1234@PAU51234@H@Z ; Palmtree::Math::Core::Internal::PMC_RightShift_X_I
  00068	8b 55 10	 mov	 edx, DWORD PTR _o$[ebp]
  0006b	89 02		 mov	 DWORD PTR [edx], eax

; 752  :             return (PMC_STATUS_OK);

  0006d	33 c0		 xor	 eax, eax
  0006f	eb 2a		 jmp	 SHORT $LN1@PMCCS_Righ
__catch$_PMCCS_RightShift_X_I@12$0:

; 753  :         }
; 754  :         catch (const Palmtree::Math::Core::Internal::Exception& ex)
; 755  :         {
; 756  :             return (ex.GetStatusCode());

  00071	8b 4d e8	 mov	 ecx, DWORD PTR _ex$3[ebp]
  00074	e8 00 00 00 00	 call	 ?GetStatusCode@Exception@Internal@Core@Math@Palmtree@@QBEHXZ ; Palmtree::Math::Core::Internal::Exception::GetStatusCode
  00079	89 45 e0	 mov	 DWORD PTR $T2[ebp], eax
  0007c	b8 00 00 00 00	 mov	 eax, $LN8@PMCCS_Righ
  00081	c3		 ret	 0

; 757  :         }

  00082	b8 00 00 00 00	 mov	 eax, __tryend$_PMCCS_RightShift_X_I@12$1
  00087	c3		 ret	 0
__tryend$_PMCCS_RightShift_X_I@12$1:
  00088	c7 45 fc ff ff
	ff ff		 mov	 DWORD PTR __$EHRec$[ebp+12], -1
  0008f	eb 0a		 jmp	 SHORT $LN1@PMCCS_Righ
$LN8@PMCCS_Righ:
  00091	c7 45 fc ff ff
	ff ff		 mov	 DWORD PTR __$EHRec$[ebp+12], -1

; 753  :         }
; 754  :         catch (const Palmtree::Math::Core::Internal::Exception& ex)
; 755  :         {
; 756  :             return (ex.GetStatusCode());

  00098	8b 45 e0	 mov	 eax, DWORD PTR $T2[ebp]
$LN1@PMCCS_Righ:

; 758  :     }

  0009b	52		 push	 edx
  0009c	8b cd		 mov	 ecx, ebp
  0009e	50		 push	 eax
  0009f	8d 15 00 00 00
	00		 lea	 edx, DWORD PTR $LN12@PMCCS_Righ
  000a5	e8 00 00 00 00	 call	 @_RTC_CheckStackVars@8
  000aa	58		 pop	 eax
  000ab	5a		 pop	 edx
  000ac	8b 4d f4	 mov	 ecx, DWORD PTR __$EHRec$[ebp+4]
  000af	64 89 0d 00 00
	00 00		 mov	 DWORD PTR fs:0, ecx
  000b6	59		 pop	 ecx
  000b7	5f		 pop	 edi
  000b8	5e		 pop	 esi
  000b9	5b		 pop	 ebx
  000ba	83 c4 20	 add	 esp, 32			; 00000020H
  000bd	3b ec		 cmp	 ebp, esp
  000bf	e8 00 00 00 00	 call	 __RTC_CheckEsp
  000c4	8b e5		 mov	 esp, ebp
  000c6	5d		 pop	 ebp
  000c7	c2 0c 00	 ret	 12			; 0000000cH
  000ca	66 90		 npad	 2
$LN12@PMCCS_Righ:
  000cc	01 00 00 00	 DD	 1
  000d0	00 00 00 00	 DD	 $LN11@PMCCS_Righ
$LN11@PMCCS_Righ:
  000d4	e8 ff ff ff	 DD	 -24			; ffffffe8H
  000d8	04 00 00 00	 DD	 4
  000dc	00 00 00 00	 DD	 $LN9@PMCCS_Righ
$LN9@PMCCS_Righ:
  000e0	65		 DB	 101			; 00000065H
  000e1	78		 DB	 120			; 00000078H
  000e2	00		 DB	 0
_TEXT	ENDS
text$x	SEGMENT
__ehhandler$_PMCCS_RightShift_X_I@12:
  00000	8b 54 24 08	 mov	 edx, DWORD PTR [esp+8]
  00004	8d 42 0c	 lea	 eax, DWORD PTR [edx+12]
  00007	8b 4a dc	 mov	 ecx, DWORD PTR [edx-36]
  0000a	33 c8		 xor	 ecx, eax
  0000c	e8 00 00 00 00	 call	 @__security_check_cookie@4
  00011	b8 00 00 00 00	 mov	 eax, OFFSET __ehfuncinfo$_PMCCS_RightShift_X_I@12
  00016	e9 00 00 00 00	 jmp	 ___CxxFrameHandler3
text$x	ENDS
_PMCCS_RightShift_X_I@12 ENDP
; Function compile flags: /Odtp /RTCsu
; File z:\sources\lunor\repos\rougemeilland\palmtree.math.core.uint\palmtree.math.core.uint\pmc_interface_csharp.cpp
_TEXT	SEGMENT
$T2 = -32						; size = 4
_ex$3 = -24						; size = 4
__$EHRec$ = -16						; size = 16
_u$ = 8							; size = 4
_v$ = 12						; size = 4
_r$ = 16						; size = 4
_PMCCS_Remainder_X_X@12 PROC

; 731  :     {

  00000	55		 push	 ebp
  00001	8b ec		 mov	 ebp, esp
  00003	6a ff		 push	 -1
  00005	68 00 00 00 00	 push	 __ehhandler$_PMCCS_Remainder_X_X@12
  0000a	64 a1 00 00 00
	00		 mov	 eax, DWORD PTR fs:0
  00010	50		 push	 eax
  00011	51		 push	 ecx
  00012	83 ec 10	 sub	 esp, 16			; 00000010H
  00015	53		 push	 ebx
  00016	56		 push	 esi
  00017	57		 push	 edi
  00018	b8 cc cc cc cc	 mov	 eax, -858993460		; ccccccccH
  0001d	89 45 e0	 mov	 DWORD PTR [ebp-32], eax
  00020	89 45 e4	 mov	 DWORD PTR [ebp-28], eax
  00023	89 45 e8	 mov	 DWORD PTR [ebp-24], eax
  00026	89 45 ec	 mov	 DWORD PTR [ebp-20], eax
  00029	a1 00 00 00 00	 mov	 eax, DWORD PTR ___security_cookie
  0002e	33 c5		 xor	 eax, ebp
  00030	50		 push	 eax
  00031	8d 45 f4	 lea	 eax, DWORD PTR __$EHRec$[ebp+4]
  00034	64 a3 00 00 00
	00		 mov	 DWORD PTR fs:0, eax
  0003a	89 65 f0	 mov	 DWORD PTR __$EHRec$[ebp], esp
  0003d	b9 00 00 00 00	 mov	 ecx, OFFSET __C21BA676_pmc_interface_csharp@cpp
  00042	e8 00 00 00 00	 call	 @__CheckForDebuggerJustMyCode@4

; 732  :         if (r == nullptr)

  00047	83 7d 10 00	 cmp	 DWORD PTR _r$[ebp], 0
  0004b	75 07		 jne	 SHORT $LN2@PMCCS_Rema

; 733  :             return (PMC_STATUS_ARGUMENT_NULL_ERROR);

  0004d	b8 fe ff ff ff	 mov	 eax, -2			; fffffffeH
  00052	eb 49		 jmp	 SHORT $LN1@PMCCS_Rema
$LN2@PMCCS_Rema:

; 734  :         try

  00054	c7 45 fc 00 00
	00 00		 mov	 DWORD PTR __$EHRec$[ebp+12], 0

; 735  :         {
; 736  :             *r = PMC_DivRem_X_X(u, v, nullptr);

  0005b	6a 00		 push	 0
  0005d	8b 45 0c	 mov	 eax, DWORD PTR _v$[ebp]
  00060	50		 push	 eax
  00061	8b 4d 08	 mov	 ecx, DWORD PTR _u$[ebp]
  00064	51		 push	 ecx
  00065	e8 00 00 00 00	 call	 ?PMC_DivRem_X_X@Internal@Core@Math@Palmtree@@YGPAU__tag_PMC_HANDLE_UINT@1234@PAU51234@0PAPAU51234@@Z ; Palmtree::Math::Core::Internal::PMC_DivRem_X_X
  0006a	8b 55 10	 mov	 edx, DWORD PTR _r$[ebp]
  0006d	89 02		 mov	 DWORD PTR [edx], eax

; 737  :             return (PMC_STATUS_OK);

  0006f	33 c0		 xor	 eax, eax
  00071	eb 2a		 jmp	 SHORT $LN1@PMCCS_Rema
__catch$_PMCCS_Remainder_X_X@12$0:

; 738  :         }
; 739  :         catch (const Palmtree::Math::Core::Internal::Exception& ex)
; 740  :         {
; 741  :             return (ex.GetStatusCode());

  00073	8b 4d e8	 mov	 ecx, DWORD PTR _ex$3[ebp]
  00076	e8 00 00 00 00	 call	 ?GetStatusCode@Exception@Internal@Core@Math@Palmtree@@QBEHXZ ; Palmtree::Math::Core::Internal::Exception::GetStatusCode
  0007b	89 45 e0	 mov	 DWORD PTR $T2[ebp], eax
  0007e	b8 00 00 00 00	 mov	 eax, $LN8@PMCCS_Rema
  00083	c3		 ret	 0

; 742  :         }

  00084	b8 00 00 00 00	 mov	 eax, __tryend$_PMCCS_Remainder_X_X@12$1
  00089	c3		 ret	 0
__tryend$_PMCCS_Remainder_X_X@12$1:
  0008a	c7 45 fc ff ff
	ff ff		 mov	 DWORD PTR __$EHRec$[ebp+12], -1
  00091	eb 0a		 jmp	 SHORT $LN1@PMCCS_Rema
$LN8@PMCCS_Rema:
  00093	c7 45 fc ff ff
	ff ff		 mov	 DWORD PTR __$EHRec$[ebp+12], -1

; 738  :         }
; 739  :         catch (const Palmtree::Math::Core::Internal::Exception& ex)
; 740  :         {
; 741  :             return (ex.GetStatusCode());

  0009a	8b 45 e0	 mov	 eax, DWORD PTR $T2[ebp]
$LN1@PMCCS_Rema:

; 743  :     }

  0009d	52		 push	 edx
  0009e	8b cd		 mov	 ecx, ebp
  000a0	50		 push	 eax
  000a1	8d 15 00 00 00
	00		 lea	 edx, DWORD PTR $LN12@PMCCS_Rema
  000a7	e8 00 00 00 00	 call	 @_RTC_CheckStackVars@8
  000ac	58		 pop	 eax
  000ad	5a		 pop	 edx
  000ae	8b 4d f4	 mov	 ecx, DWORD PTR __$EHRec$[ebp+4]
  000b1	64 89 0d 00 00
	00 00		 mov	 DWORD PTR fs:0, ecx
  000b8	59		 pop	 ecx
  000b9	5f		 pop	 edi
  000ba	5e		 pop	 esi
  000bb	5b		 pop	 ebx
  000bc	83 c4 20	 add	 esp, 32			; 00000020H
  000bf	3b ec		 cmp	 ebp, esp
  000c1	e8 00 00 00 00	 call	 __RTC_CheckEsp
  000c6	8b e5		 mov	 esp, ebp
  000c8	5d		 pop	 ebp
  000c9	c2 0c 00	 ret	 12			; 0000000cH
$LN12@PMCCS_Rema:
  000cc	01 00 00 00	 DD	 1
  000d0	00 00 00 00	 DD	 $LN11@PMCCS_Rema
$LN11@PMCCS_Rema:
  000d4	e8 ff ff ff	 DD	 -24			; ffffffe8H
  000d8	04 00 00 00	 DD	 4
  000dc	00 00 00 00	 DD	 $LN9@PMCCS_Rema
$LN9@PMCCS_Rema:
  000e0	65		 DB	 101			; 00000065H
  000e1	78		 DB	 120			; 00000078H
  000e2	00		 DB	 0
_TEXT	ENDS
text$x	SEGMENT
__ehhandler$_PMCCS_Remainder_X_X@12:
  00000	8b 54 24 08	 mov	 edx, DWORD PTR [esp+8]
  00004	8d 42 0c	 lea	 eax, DWORD PTR [edx+12]
  00007	8b 4a dc	 mov	 ecx, DWORD PTR [edx-36]
  0000a	33 c8		 xor	 ecx, eax
  0000c	e8 00 00 00 00	 call	 @__security_check_cookie@4
  00011	b8 00 00 00 00	 mov	 eax, OFFSET __ehfuncinfo$_PMCCS_Remainder_X_X@12
  00016	e9 00 00 00 00	 jmp	 ___CxxFrameHandler3
text$x	ENDS
_PMCCS_Remainder_X_X@12 ENDP
; Function compile flags: /Odtp /RTCsu
; File z:\sources\lunor\repos\rougemeilland\palmtree.math.core.uint\palmtree.math.core.uint\pmc_interface_csharp.cpp
_TEXT	SEGMENT
$T2 = -32						; size = 4
_ex$3 = -24						; size = 4
