; Listing generated by Microsoft (R) Optimizing Compiler Version 19.16.27027.1 

	TITLE	Z:\Sources\Lunor\Repos\rougemeilland\Palmtree.Math.Core.Uint\Palmtree.Math.Core.Uint\pmc_divrem.cpp
	.686P
	.XMM
	include listing.inc
	.model	flat

INCLUDELIB MSVCRTD
INCLUDELIB OLDNAMES

msvcjmc	SEGMENT
__7B7A869E_ctype@h DB 01H
__457DD326_basetsd@h DB 01H
__4384A2D9_corecrt_memcpy_s@h DB 01H
__2088847F_corecrt_memory@h DB 01H
__4E51A221_corecrt_wstring@h DB 01H
__2140C079_string@h DB 01H
__E9FFF232_guiddef@h DB 01H
__1887E595_winnt@h DB 01H
__9FC7C64B_processthreadsapi@h DB 01H
__FA470AEC_memoryapi@h DB 01H
__F37DAFF1_winerror@h DB 01H
__7A450CCC_winbase@h DB 01H
__12AD47BB_winuser@h DB 01H
__B4B40122_winioctl@h DB 01H
__A73354DD_stdlib@h DB 01H
__25F3FB34_propidl@h DB 01H
__A40E48B8_oleauto@h DB 01H
__86261D59_stralign@h DB 01H
__2CC6E67D_corecrt_stdio_config@h DB 01H
__41381B41_corecrt_wconio@h DB 01H
__F0CC4AC4_corecrt_wio@h DB 01H
__05476D76_corecrt_wstdio@h DB 01H
__C0802A2B_corecrt_wtime@h DB 01H
__A40A425D_stat@h DB 01H
__5A74375D_wchar@h DB 01H
__6BC0FD35_vcruntime_new@h DB 01H
__77F53984_cstddef DB 01H
__188180DA_corecrt_math@h DB 01H
__D23EE329_cstdlib DB 01H
__5ECFF36E_type_traits DB 01H
__331E732B_malloc@h DB 01H
__9BB4E194_vcruntime_exception@h DB 01H
__7949CB39_exception DB 01H
__802FEEC0_pmc_exception@h DB 01H
__BB6D3116_pmc_uint_internal@h DB 01H
__1AB12E38_pmc_resourceholder@h DB 01H
__746E1CEC_xmmintrin@h DB 01H
__8CA3E54E_pmc_inline_func@h DB 01H
__E05E7037_autogenerated_inline_func@h DB 01H
__E17217E9_pmc_divrem@cpp DB 01H
msvcjmc	ENDS
CONST	SEGMENT
$SG118418 DB	'p', 00H, 'm', 00H, 'c', 00H, '_', 00H, 'd', 00H, 'i', 00H
	DB	'v', 00H, 'r', 00H, 'e', 00H, 'm', 00H, '.', 00H, 'c', 00H, 'p'
	DB	00H, 'p', 00H, ';', 00H, 'P', 00H, 'M', 00H, 'C', 00H, '_', 00H
	DB	'D', 00H, 'i', 00H, 'v', 00H, 'R', 00H, 'e', 00H, 'm', 00H, '_'
	DB	00H, 'I', 00H, '_', 00H, 'X', 00H, ';', 00H, '1', 00H, 00H, 00H
$SG118419 DB	088H, 'N', 01fH, 'gW0f0D0j0D0', 0b3H, '0', 0fcH, '0', 0c9H
	DB	'0k00RT', 090H, 'W0~0W0_0', 02H, '0', 00H, 00H
	ORG $+2
$SG118426 DB	'v', 00H, 00H, 00H
$SG118427 DB	015H, '_pek0n', 00H, 'u', 00H, 'l', 00H, 'l', 00H, 'p', 00H
	DB	't', 00H, 'r', 00H, 'L0', 0eH, 'NH0', 089H, '0', 08cH, '0f0D0~'
	DB	'0Y0', 02H, '0', 00H, 00H
	ORG $+2
$SG118434 DB	'0', 00H, 'k0', 088H, '0', 08bH, '0d', 096H, 097H, '{L0L', 088H
	DB	08fH, '0', 08cH, '0', 088H, '0F0h0W0~0W0_0', 02H, '0', 00H, 00H
	ORG $+2
$SG118464 DB	'0', 00H, 'k0', 088H, '0', 08bH, '0d', 096H, 097H, '{L0L', 088H
	DB	08fH, '0', 08cH, '0', 088H, '0F0h0W0~0W0_0', 02H, '0', 00H, 00H
	ORG $+2
$SG118494 DB	'p', 00H, 'm', 00H, 'c', 00H, '_', 00H, 'd', 00H, 'i', 00H
	DB	'v', 00H, 'r', 00H, 'e', 00H, 'm', 00H, '.', 00H, 'c', 00H, 'p'
	DB	00H, 'p', 00H, ';', 00H, 'P', 00H, 'M', 00H, 'C', 00H, '_', 00H
	DB	'D', 00H, 'i', 00H, 'v', 00H, 'R', 00H, 'e', 00H, 'm', 00H, '_'
	DB	00H, 'X', 00H, '_', 00H, 'I', 00H, ';', 00H, '1', 00H, 00H, 00H
$SG118495 DB	088H, 'N', 01fH, 'gW0f0D0j0D0', 0b3H, '0', 0fcH, '0', 0c9H
	DB	'0k00RT', 090H, 'W0~0W0_0', 02H, '0', 00H, 00H
	ORG $+2
$SG118498 DB	'u', 00H, 00H, 00H
$SG118499 DB	015H, '_pek0n', 00H, 'u', 00H, 'l', 00H, 'l', 00H, 'p', 00H
	DB	't', 00H, 'r', 00H, 'L0', 0eH, 'NH0', 089H, '0', 08cH, '0f0D0~'
	DB	'0Y0', 02H, '0', 00H, 00H
	ORG $+2
$SG118556 DB	'p', 00H, 'm', 00H, 'c', 00H, '_', 00H, 'd', 00H, 'i', 00H
	DB	'v', 00H, 'r', 00H, 'e', 00H, 'm', 00H, '.', 00H, 'c', 00H, 'p'
	DB	00H, 'p', 00H, ';', 00H, 'P', 00H, 'M', 00H, 'C', 00H, '_', 00H
	DB	'D', 00H, 'i', 00H, 'v', 00H, 'R', 00H, 'e', 00H, 'm', 00H, '_'
	DB	00H, 'L', 00H, '_', 00H, 'X', 00H, ';', 00H, '1', 00H, 00H, 00H
$SG118557 DB	088H, 'N', 01fH, 'gW0f0D0j0D0', 0b3H, '0', 0fcH, '0', 0c9H
	DB	'0k00RT', 090H, 'W0~0W0_0', 02H, '0', 00H, 00H
	ORG $+2
$SG118560 DB	'v', 00H, 00H, 00H
$SG118561 DB	015H, '_pek0n', 00H, 'u', 00H, 'l', 00H, 'l', 00H, 'p', 00H
	DB	't', 00H, 'r', 00H, 'L0', 0eH, 'NH0', 089H, '0', 08cH, '0f0D0~'
	DB	'0Y0', 02H, '0', 00H, 00H
	ORG $+2
$SG118564 DB	'0', 00H, 'k0', 088H, '0', 08bH, '0d', 096H, 097H, '{L0L', 088H
	DB	08fH, '0', 08cH, '0', 088H, '0F0h0W0~0W0_0', 02H, '0', 00H, 00H
	ORG $+2
$SG118648 DB	'0', 00H, 'k0', 088H, '0', 08bH, '0d', 096H, 097H, '{L0L', 088H
	DB	08fH, '0', 08cH, '0', 088H, '0F0h0W0~0W0_0', 02H, '0', 00H, 00H
	ORG $+2
$SG118701 DB	'p', 00H, 'm', 00H, 'c', 00H, '_', 00H, 'd', 00H, 'i', 00H
	DB	'v', 00H, 'r', 00H, 'e', 00H, 'm', 00H, '.', 00H, 'c', 00H, 'p'
	DB	00H, 'p', 00H, ';', 00H, 'P', 00H, 'M', 00H, 'C', 00H, '_', 00H
	DB	'D', 00H, 'i', 00H, 'v', 00H, 'R', 00H, 'e', 00H, 'm', 00H, '_'
	DB	00H, 'X', 00H, '_', 00H, 'L', 00H, ';', 00H, '1', 00H, 00H, 00H
$SG118702 DB	088H, 'N', 01fH, 'gW0f0D0j0D0', 0b3H, '0', 0fcH, '0', 0c9H
	DB	'0k00RT', 090H, 'W0~0W0_0', 02H, '0', 00H, 00H
	ORG $+2
$SG118705 DB	'u', 00H, 00H, 00H
$SG118706 DB	015H, '_pek0n', 00H, 'u', 00H, 'l', 00H, 'l', 00H, 'p', 00H
	DB	't', 00H, 'r', 00H, 'L0', 0eH, 'NH0', 089H, '0', 08cH, '0f0D0~'
	DB	'0Y0', 02H, '0', 00H, 00H
	ORG $+2
$SG118792 DB	'u', 00H, 00H, 00H
$SG118793 DB	015H, '_pek0n', 00H, 'u', 00H, 'l', 00H, 'l', 00H, 'p', 00H
	DB	't', 00H, 'r', 00H, 'L0', 0eH, 'NH0', 089H, '0', 08cH, '0f0D0~'
	DB	'0Y0', 02H, '0', 00H, 00H
	ORG $+2
$SG118796 DB	'v', 00H, 00H, 00H
$SG118797 DB	015H, '_pek0n', 00H, 'u', 00H, 'l', 00H, 'l', 00H, 'p', 00H
	DB	't', 00H, 'r', 00H, 'L0', 0eH, 'NH0', 089H, '0', 08cH, '0f0D0~'
	DB	'0Y0', 02H, '0', 00H, 00H
	ORG $+2
$SG118800 DB	'0', 00H, 'k0', 088H, '0', 08bH, '0d', 096H, 097H, '{L0L', 088H
	DB	08fH, '0', 08cH, '0', 088H, '0F0h0W0~0W0_0', 02H, '0', 00H, 00H
CONST	ENDS
PUBLIC	??0exception@std@@QAE@XZ			; std::exception::exception
PUBLIC	??1exception@std@@UAE@XZ			; std::exception::~exception
PUBLIC	?what@exception@std@@UBEPBDXZ			; std::exception::what
PUBLIC	??_Gexception@std@@UAEPAXI@Z			; std::exception::`scalar deleting destructor'
PUBLIC	??0Exception@Internal@Core@Math@Palmtree@@IAE@HPB_W@Z ; Palmtree::Math::Core::Internal::Exception::Exception
PUBLIC	??0Exception@Internal@Core@Math@Palmtree@@IAE@HPB_W0@Z ; Palmtree::Math::Core::Internal::Exception::Exception
PUBLIC	??0Exception@Internal@Core@Math@Palmtree@@QAE@ABV01234@@Z ; Palmtree::Math::Core::Internal::Exception::Exception
PUBLIC	??1Exception@Internal@Core@Math@Palmtree@@UAE@XZ ; Palmtree::Math::Core::Internal::Exception::~Exception
PUBLIC	??_GException@Internal@Core@Math@Palmtree@@UAEPAXI@Z ; Palmtree::Math::Core::Internal::Exception::`scalar deleting destructor'
PUBLIC	??0ArgumentNullException@Internal@Core@Math@Palmtree@@QAE@PB_W0@Z ; Palmtree::Math::Core::Internal::ArgumentNullException::ArgumentNullException
PUBLIC	??0ArgumentNullException@Internal@Core@Math@Palmtree@@QAE@ABV01234@@Z ; Palmtree::Math::Core::Internal::ArgumentNullException::ArgumentNullException
PUBLIC	??1ArgumentNullException@Internal@Core@Math@Palmtree@@UAE@XZ ; Palmtree::Math::Core::Internal::ArgumentNullException::~ArgumentNullException
PUBLIC	??_GArgumentNullException@Internal@Core@Math@Palmtree@@UAEPAXI@Z ; Palmtree::Math::Core::Internal::ArgumentNullException::`scalar deleting destructor'
PUBLIC	??0DivisionByZeroException@Internal@Core@Math@Palmtree@@QAE@PB_W@Z ; Palmtree::Math::Core::Internal::DivisionByZeroException::DivisionByZeroException
PUBLIC	??0DivisionByZeroException@Internal@Core@Math@Palmtree@@QAE@ABV01234@@Z ; Palmtree::Math::Core::Internal::DivisionByZeroException::DivisionByZeroException
PUBLIC	??1DivisionByZeroException@Internal@Core@Math@Palmtree@@UAE@XZ ; Palmtree::Math::Core::Internal::DivisionByZeroException::~DivisionByZeroException
PUBLIC	??_GDivisionByZeroException@Internal@Core@Math@Palmtree@@UAEPAXI@Z ; Palmtree::Math::Core::Internal::DivisionByZeroException::`scalar deleting destructor'
PUBLIC	??0InternalErrorException@Internal@Core@Math@Palmtree@@QAE@PB_W0@Z ; Palmtree::Math::Core::Internal::InternalErrorException::InternalErrorException
PUBLIC	??0InternalErrorException@Internal@Core@Math@Palmtree@@QAE@ABV01234@@Z ; Palmtree::Math::Core::Internal::InternalErrorException::InternalErrorException
PUBLIC	??1InternalErrorException@Internal@Core@Math@Palmtree@@UAE@XZ ; Palmtree::Math::Core::Internal::InternalErrorException::~InternalErrorException
PUBLIC	??_GInternalErrorException@Internal@Core@Math@Palmtree@@UAEPAXI@Z ; Palmtree::Math::Core::Internal::InternalErrorException::`scalar deleting destructor'
PUBLIC	?DivRem_X_1W@Internal@Core@Math@Palmtree@@YAXPAIII00@Z ; Palmtree::Math::Core::Internal::DivRem_X_1W
PUBLIC	?Rem_X_1W@Internal@Core@Math@Palmtree@@YAIPAIII@Z ; Palmtree::Math::Core::Internal::Rem_X_1W
PUBLIC	?DivRem_X_X@Internal@Core@Math@Palmtree@@YAXPAII0I000@Z ; Palmtree::Math::Core::Internal::DivRem_X_X
PUBLIC	?Initialize_DivRem@Internal@Core@Math@Palmtree@@YAHPAU_tag_PROCESSOR_FEATURES@1234@@Z ; Palmtree::Math::Core::Internal::Initialize_DivRem
PUBLIC	?PMC_DivRem_I_X@Internal@Core@Math@Palmtree@@YGIIPAU__tag_PMC_HANDLE_UINT@1234@PAI@Z ; Palmtree::Math::Core::Internal::PMC_DivRem_I_X
PUBLIC	?PMC_DivRem_L_X@Internal@Core@Math@Palmtree@@YG_K_KPAU__tag_PMC_HANDLE_UINT@1234@PA_K@Z ; Palmtree::Math::Core::Internal::PMC_DivRem_L_X
PUBLIC	?PMC_DivRem_X_I@Internal@Core@Math@Palmtree@@YGIPAU__tag_PMC_HANDLE_UINT@1234@IPAPAU51234@@Z ; Palmtree::Math::Core::Internal::PMC_DivRem_X_I
PUBLIC	?PMC_DivRem_X_L@Internal@Core@Math@Palmtree@@YG_KPAU__tag_PMC_HANDLE_UINT@1234@_KPAPAU51234@@Z ; Palmtree::Math::Core::Internal::PMC_DivRem_X_L
PUBLIC	?PMC_DivRem_X_X@Internal@Core@Math@Palmtree@@YGPAU__tag_PMC_HANDLE_UINT@1234@PAU51234@0PAPAU51234@@Z ; Palmtree::Math::Core::Internal::PMC_DivRem_X_X
PUBLIC	__JustMyCode_Default
PUBLIC	??_7exception@std@@6B@				; std::exception::`vftable'
PUBLIC	??_C@_0BC@EOODALEL@Unknown?5exception@		; `string'
PUBLIC	??_7Exception@Internal@Core@Math@Palmtree@@6B@	; Palmtree::Math::Core::Internal::Exception::`vftable'
PUBLIC	??_7ArgumentNullException@Internal@Core@Math@Palmtree@@6B@ ; Palmtree::Math::Core::Internal::ArgumentNullException::`vftable'
PUBLIC	??_7DivisionByZeroException@Internal@Core@Math@Palmtree@@6B@ ; Palmtree::Math::Core::Internal::DivisionByZeroException::`vftable'
PUBLIC	??_7InternalErrorException@Internal@Core@Math@Palmtree@@6B@ ; Palmtree::Math::Core::Internal::InternalErrorException::`vftable'
PUBLIC	__TI2?AVInternalErrorException@Internal@Core@Math@Palmtree@@
PUBLIC	__CTA2?AVInternalErrorException@Internal@Core@Math@Palmtree@@
PUBLIC	??_R0?AVInternalErrorException@Internal@Core@Math@Palmtree@@@8 ; Palmtree::Math::Core::Internal::InternalErrorException `RTTI Type Descriptor'
PUBLIC	__CT??_R0?AVInternalErrorException@Internal@Core@Math@Palmtree@@@8??0InternalErrorException@Internal@Core@Math@Palmtree@@QAE@ABV01234@@Z24
PUBLIC	??_R0?AVException@Internal@Core@Math@Palmtree@@@8 ; Palmtree::Math::Core::Internal::Exception `RTTI Type Descriptor'
PUBLIC	__CT??_R0?AVException@Internal@Core@Math@Palmtree@@@8??0Exception@Internal@Core@Math@Palmtree@@QAE@ABV01234@@Z24
PUBLIC	__TI2?AVArgumentNullException@Internal@Core@Math@Palmtree@@
PUBLIC	__CTA2?AVArgumentNullException@Internal@Core@Math@Palmtree@@
PUBLIC	??_R0?AVArgumentNullException@Internal@Core@Math@Palmtree@@@8 ; Palmtree::Math::Core::Internal::ArgumentNullException `RTTI Type Descriptor'
PUBLIC	__CT??_R0?AVArgumentNullException@Internal@Core@Math@Palmtree@@@8??0ArgumentNullException@Internal@Core@Math@Palmtree@@QAE@ABV01234@@Z24
PUBLIC	__TI2?AVDivisionByZeroException@Internal@Core@Math@Palmtree@@
PUBLIC	__CTA2?AVDivisionByZeroException@Internal@Core@Math@Palmtree@@
PUBLIC	??_R0?AVDivisionByZeroException@Internal@Core@Math@Palmtree@@@8 ; Palmtree::Math::Core::Internal::DivisionByZeroException `RTTI Type Descriptor'
PUBLIC	__CT??_R0?AVDivisionByZeroException@Internal@Core@Math@Palmtree@@@8??0DivisionByZeroException@Internal@Core@Math@Palmtree@@QAE@ABV01234@@Z24
PUBLIC	??_R4exception@std@@6B@				; std::exception::`RTTI Complete Object Locator'
PUBLIC	??_R0?AVexception@std@@@8			; std::exception `RTTI Type Descriptor'
PUBLIC	??_R3exception@std@@8				; std::exception::`RTTI Class Hierarchy Descriptor'
PUBLIC	??_R2exception@std@@8				; std::exception::`RTTI Base Class Array'
PUBLIC	??_R1A@?0A@EA@exception@std@@8			; std::exception::`RTTI Base Class Descriptor at (0,-1,0,64)'
PUBLIC	??_R4Exception@Internal@Core@Math@Palmtree@@6B@	; Palmtree::Math::Core::Internal::Exception::`RTTI Complete Object Locator'
PUBLIC	??_R3Exception@Internal@Core@Math@Palmtree@@8	; Palmtree::Math::Core::Internal::Exception::`RTTI Class Hierarchy Descriptor'
PUBLIC	??_R2Exception@Internal@Core@Math@Palmtree@@8	; Palmtree::Math::Core::Internal::Exception::`RTTI Base Class Array'
PUBLIC	??_R1A@?0A@EA@Exception@Internal@Core@Math@Palmtree@@8 ; Palmtree::Math::Core::Internal::Exception::`RTTI Base Class Descriptor at (0,-1,0,64)'
PUBLIC	??_R1A@?0A@EN@exception@std@@8			; std::exception::`RTTI Base Class Descriptor at (0,-1,0,77)'
PUBLIC	??_R4ArgumentNullException@Internal@Core@Math@Palmtree@@6B@ ; Palmtree::Math::Core::Internal::ArgumentNullException::`RTTI Complete Object Locator'
PUBLIC	??_R3ArgumentNullException@Internal@Core@Math@Palmtree@@8 ; Palmtree::Math::Core::Internal::ArgumentNullException::`RTTI Class Hierarchy Descriptor'
PUBLIC	??_R2ArgumentNullException@Internal@Core@Math@Palmtree@@8 ; Palmtree::Math::Core::Internal::ArgumentNullException::`RTTI Base Class Array'
PUBLIC	??_R1A@?0A@EA@ArgumentNullException@Internal@Core@Math@Palmtree@@8 ; Palmtree::Math::Core::Internal::ArgumentNullException::`RTTI Base Class Descriptor at (0,-1,0,64)'
PUBLIC	??_R4DivisionByZeroException@Internal@Core@Math@Palmtree@@6B@ ; Palmtree::Math::Core::Internal::DivisionByZeroException::`RTTI Complete Object Locator'
PUBLIC	??_R3DivisionByZeroException@Internal@Core@Math@Palmtree@@8 ; Palmtree::Math::Core::Internal::DivisionByZeroException::`RTTI Class Hierarchy Descriptor'
PUBLIC	??_R2DivisionByZeroException@Internal@Core@Math@Palmtree@@8 ; Palmtree::Math::Core::Internal::DivisionByZeroException::`RTTI Base Class Array'
PUBLIC	??_R1A@?0A@EA@DivisionByZeroException@Internal@Core@Math@Palmtree@@8 ; Palmtree::Math::Core::Internal::DivisionByZeroException::`RTTI Base Class Descriptor at (0,-1,0,64)'
PUBLIC	??_R4InternalErrorException@Internal@Core@Math@Palmtree@@6B@ ; Palmtree::Math::Core::Internal::InternalErrorException::`RTTI Complete Object Locator'
PUBLIC	??_R3InternalErrorException@Internal@Core@Math@Palmtree@@8 ; Palmtree::Math::Core::Internal::InternalErrorException::`RTTI Class Hierarchy Descriptor'
PUBLIC	??_R2InternalErrorException@Internal@Core@Math@Palmtree@@8 ; Palmtree::Math::Core::Internal::InternalErrorException::`RTTI Base Class Array'
PUBLIC	??_R1A@?0A@EA@InternalErrorException@Internal@Core@Math@Palmtree@@8 ; Palmtree::Math::Core::Internal::InternalErrorException::`RTTI Base Class Descriptor at (0,-1,0,64)'
EXTRN	??3@YAXPAXI@Z:PROC				; operator delete
EXTRN	___std_exception_destroy:PROC
EXTRN	??_Eexception@std@@UAEPAXI@Z:PROC		; std::exception::`vector deleting destructor'
EXTRN	??_EException@Internal@Core@Math@Palmtree@@UAEPAXI@Z:PROC ; Palmtree::Math::Core::Internal::Exception::`vector deleting destructor'
EXTRN	??_EArgumentNullException@Internal@Core@Math@Palmtree@@UAEPAXI@Z:PROC ; Palmtree::Math::Core::Internal::ArgumentNullException::`vector deleting destructor'
EXTRN	??_EDivisionByZeroException@Internal@Core@Math@Palmtree@@UAEPAXI@Z:PROC ; Palmtree::Math::Core::Internal::DivisionByZeroException::`vector deleting destructor'
EXTRN	??_EInternalErrorException@Internal@Core@Math@Palmtree@@UAEPAXI@Z:PROC ; Palmtree::Math::Core::Internal::InternalErrorException::`vector deleting destructor'
EXTRN	?CommitNumber@Internal@Core@Math@Palmtree@@YAXPAU__tag_NUMBER_HEADER@1234@@Z:PROC ; Palmtree::Math::Core::Internal::CommitNumber
EXTRN	?CheckNumber@Internal@Core@Math@Palmtree@@YAXPAU__tag_NUMBER_HEADER@1234@@Z:PROC ; Palmtree::Math::Core::Internal::CheckNumber
EXTRN	?DuplicateNumber@Internal@Core@Math@Palmtree@@YAPAU__tag_NUMBER_HEADER@1234@PAU51234@@Z:PROC ; Palmtree::Math::Core::Internal::DuplicateNumber
EXTRN	?RightShift_Imp@Internal@Core@Math@Palmtree@@YAXPAIII0H@Z:PROC ; Palmtree::Math::Core::Internal::RightShift_Imp
EXTRN	?LeftShift_Imp@Internal@Core@Math@Palmtree@@YAXPAIII0H@Z:PROC ; Palmtree::Math::Core::Internal::LeftShift_Imp
EXTRN	??0ResourceHolderUINT@Internal@Core@Math@Palmtree@@QAE@XZ:PROC ; Palmtree::Math::Core::Internal::ResourceHolderUINT::ResourceHolderUINT
EXTRN	??1ResourceHolderUINT@Internal@Core@Math@Palmtree@@UAE@XZ:PROC ; Palmtree::Math::Core::Internal::ResourceHolderUINT::~ResourceHolderUINT
EXTRN	?AllocateBlock@ResourceHolderUINT@Internal@Core@Math@Palmtree@@QAEPAII@Z:PROC ; Palmtree::Math::Core::Internal::ResourceHolderUINT::AllocateBlock
EXTRN	?DeallocateBlock@ResourceHolderUINT@Internal@Core@Math@Palmtree@@QAEXPAI@Z:PROC ; Palmtree::Math::Core::Internal::ResourceHolderUINT::DeallocateBlock
EXTRN	?CheckBlock@ResourceHolderUINT@Internal@Core@Math@Palmtree@@QAEXPAI@Z:PROC ; Palmtree::Math::Core::Internal::ResourceHolderUINT::CheckBlock
EXTRN	?AllocateNumber@ResourceHolderUINT@Internal@Core@Math@Palmtree@@QAEPAU__tag_NUMBER_HEADER@2345@I@Z:PROC ; Palmtree::Math::Core::Internal::ResourceHolderUINT::AllocateNumber
EXTRN	?HookNumber@ResourceHolderUINT@Internal@Core@Math@Palmtree@@QAEXPAU__tag_NUMBER_HEADER@2345@@Z:PROC ; Palmtree::Math::Core::Internal::ResourceHolderUINT::HookNumber
EXTRN	?DeallocateNumber@ResourceHolderUINT@Internal@Core@Math@Palmtree@@QAEXPAU__tag_NUMBER_HEADER@2345@@Z:PROC ; Palmtree::Math::Core::Internal::ResourceHolderUINT::DeallocateNumber
EXTRN	?CheckNumber@ResourceHolderUINT@Internal@Core@Math@Palmtree@@QAEXPAU__tag_NUMBER_HEADER@2345@@Z:PROC ; Palmtree::Math::Core::Internal::ResourceHolderUINT::CheckNumber
EXTRN	?UnlinkNumber@ResourceHolderUINT@Internal@Core@Math@Palmtree@@QAEXPAU__tag_NUMBER_HEADER@2345@@Z:PROC ; Palmtree::Math::Core::Internal::ResourceHolderUINT::UnlinkNumber
EXTRN	@_RTC_CheckStackVars@8:PROC
EXTRN	@__CheckForDebuggerJustMyCode@4:PROC
EXTRN	@__security_check_cookie@4:PROC
EXTRN	__CxxThrowException@8:PROC
EXTRN	__RTC_CheckEsp:PROC
EXTRN	__RTC_InitBase:PROC
EXTRN	__RTC_Shutdown:PROC
EXTRN	___CxxFrameHandler3:PROC
EXTRN	__allshl:PROC
EXTRN	__aulldiv:PROC
EXTRN	__aullrem:PROC
EXTRN	__aullshr:PROC
EXTRN	?number_zero@Internal@Core@Math@Palmtree@@3U__tag_NUMBER_HEADER@1234@A:BYTE ; Palmtree::Math::Core::Internal::number_zero
EXTRN	?statistics_info@Internal@Core@Math@Palmtree@@3U__tag_PMC_STATISTICS_INFO@1234@A:BYTE ; Palmtree::Math::Core::Internal::statistics_info
EXTRN	??_7type_info@@6B@:QWORD			; type_info::`vftable'
EXTRN	___security_cookie:DWORD
_BSS	SEGMENT
?fp_DivRem_X_X@Internal@Core@Math@Palmtree@@3P6AXPAII0I000@ZA DD 01H DUP (?) ; Palmtree::Math::Core::Internal::fp_DivRem_X_X
_BSS	ENDS
;	COMDAT rtc$TMZ
rtc$TMZ	SEGMENT
__RTC_Shutdown.rtc$TMZ DD FLAT:__RTC_Shutdown
rtc$TMZ	ENDS
;	COMDAT rtc$IMZ
rtc$IMZ	SEGMENT
__RTC_InitBase.rtc$IMZ DD FLAT:__RTC_InitBase
rtc$IMZ	ENDS
;	COMDAT ??_R1A@?0A@EA@InternalErrorException@Internal@Core@Math@Palmtree@@8
rdata$r	SEGMENT
??_R1A@?0A@EA@InternalErrorException@Internal@Core@Math@Palmtree@@8 DD FLAT:??_R0?AVInternalErrorException@Internal@Core@Math@Palmtree@@@8 ; Palmtree::Math::Core::Internal::InternalErrorException::`RTTI Base Class Descriptor at (0,-1,0,64)'
	DD	02H
	DD	00H
	DD	0ffffffffH
	DD	00H
	DD	040H
	DD	FLAT:??_R3InternalErrorException@Internal@Core@Math@Palmtree@@8
rdata$r	ENDS
;	COMDAT ??_R2InternalErrorException@Internal@Core@Math@Palmtree@@8
rdata$r	SEGMENT
??_R2InternalErrorException@Internal@Core@Math@Palmtree@@8 DD FLAT:??_R1A@?0A@EA@InternalErrorException@Internal@Core@Math@Palmtree@@8 ; Palmtree::Math::Core::Internal::InternalErrorException::`RTTI Base Class Array'
	DD	FLAT:??_R1A@?0A@EA@Exception@Internal@Core@Math@Palmtree@@8
	DD	FLAT:??_R1A@?0A@EN@exception@std@@8
rdata$r	ENDS
;	COMDAT ??_R3InternalErrorException@Internal@Core@Math@Palmtree@@8
rdata$r	SEGMENT
??_R3InternalErrorException@Internal@Core@Math@Palmtree@@8 DD 00H ; Palmtree::Math::Core::Internal::InternalErrorException::`RTTI Class Hierarchy Descriptor'
	DD	00H
	DD	03H
	DD	FLAT:??_R2InternalErrorException@Internal@Core@Math@Palmtree@@8
rdata$r	ENDS
;	COMDAT ??_R4InternalErrorException@Internal@Core@Math@Palmtree@@6B@
rdata$r	SEGMENT
??_R4InternalErrorException@Internal@Core@Math@Palmtree@@6B@ DD 00H ; Palmtree::Math::Core::Internal::InternalErrorException::`RTTI Complete Object Locator'
	DD	00H
	DD	00H
	DD	FLAT:??_R0?AVInternalErrorException@Internal@Core@Math@Palmtree@@@8
	DD	FLAT:??_R3InternalErrorException@Internal@Core@Math@Palmtree@@8
rdata$r	ENDS
;	COMDAT ??_R1A@?0A@EA@DivisionByZeroException@Internal@Core@Math@Palmtree@@8
rdata$r	SEGMENT
??_R1A@?0A@EA@DivisionByZeroException@Internal@Core@Math@Palmtree@@8 DD FLAT:??_R0?AVDivisionByZeroException@Internal@Core@Math@Palmtree@@@8 ; Palmtree::Math::Core::Internal::DivisionByZeroException::`RTTI Base Class Descriptor at (0,-1,0,64)'
	DD	02H
	DD	00H
	DD	0ffffffffH
	DD	00H
	DD	040H
	DD	FLAT:??_R3DivisionByZeroException@Internal@Core@Math@Palmtree@@8
rdata$r	ENDS
;	COMDAT ??_R2DivisionByZeroException@Internal@Core@Math@Palmtree@@8
rdata$r	SEGMENT
??_R2DivisionByZeroException@Internal@Core@Math@Palmtree@@8 DD FLAT:??_R1A@?0A@EA@DivisionByZeroException@Internal@Core@Math@Palmtree@@8 ; Palmtree::Math::Core::Internal::DivisionByZeroException::`RTTI Base Class Array'
	DD	FLAT:??_R1A@?0A@EA@Exception@Internal@Core@Math@Palmtree@@8
	DD	FLAT:??_R1A@?0A@EN@exception@std@@8
rdata$r	ENDS
;	COMDAT ??_R3DivisionByZeroException@Internal@Core@Math@Palmtree@@8
rdata$r	SEGMENT
??_R3DivisionByZeroException@Internal@Core@Math@Palmtree@@8 DD 00H ; Palmtree::Math::Core::Internal::DivisionByZeroException::`RTTI Class Hierarchy Descriptor'
	DD	00H
	DD	03H
	DD	FLAT:??_R2DivisionByZeroException@Internal@Core@Math@Palmtree@@8
rdata$r	ENDS
;	COMDAT ??_R4DivisionByZeroException@Internal@Core@Math@Palmtree@@6B@
rdata$r	SEGMENT
??_R4DivisionByZeroException@Internal@Core@Math@Palmtree@@6B@ DD 00H ; Palmtree::Math::Core::Internal::DivisionByZeroException::`RTTI Complete Object Locator'
	DD	00H
	DD	00H
	DD	FLAT:??_R0?AVDivisionByZeroException@Internal@Core@Math@Palmtree@@@8
	DD	FLAT:??_R3DivisionByZeroException@Internal@Core@Math@Palmtree@@8
rdata$r	ENDS
;	COMDAT ??_R1A@?0A@EA@ArgumentNullException@Internal@Core@Math@Palmtree@@8
rdata$r	SEGMENT
??_R1A@?0A@EA@ArgumentNullException@Internal@Core@Math@Palmtree@@8 DD FLAT:??_R0?AVArgumentNullException@Internal@Core@Math@Palmtree@@@8 ; Palmtree::Math::Core::Internal::ArgumentNullException::`RTTI Base Class Descriptor at (0,-1,0,64)'
	DD	02H
	DD	00H
	DD	0ffffffffH
	DD	00H
	DD	040H
	DD	FLAT:??_R3ArgumentNullException@Internal@Core@Math@Palmtree@@8
rdata$r	ENDS
;	COMDAT ??_R2ArgumentNullException@Internal@Core@Math@Palmtree@@8
rdata$r	SEGMENT
??_R2ArgumentNullException@Internal@Core@Math@Palmtree@@8 DD FLAT:??_R1A@?0A@EA@ArgumentNullException@Internal@Core@Math@Palmtree@@8 ; Palmtree::Math::Core::Internal::ArgumentNullException::`RTTI Base Class Array'
	DD	FLAT:??_R1A@?0A@EA@Exception@Internal@Core@Math@Palmtree@@8
	DD	FLAT:??_R1A@?0A@EN@exception@std@@8
rdata$r	ENDS
;	COMDAT ??_R3ArgumentNullException@Internal@Core@Math@Palmtree@@8
rdata$r	SEGMENT
??_R3ArgumentNullException@Internal@Core@Math@Palmtree@@8 DD 00H ; Palmtree::Math::Core::Internal::ArgumentNullException::`RTTI Class Hierarchy Descriptor'
	DD	00H
	DD	03H
	DD	FLAT:??_R2ArgumentNullException@Internal@Core@Math@Palmtree@@8
rdata$r	ENDS
;	COMDAT ??_R4ArgumentNullException@Internal@Core@Math@Palmtree@@6B@
rdata$r	SEGMENT
??_R4ArgumentNullException@Internal@Core@Math@Palmtree@@6B@ DD 00H ; Palmtree::Math::Core::Internal::ArgumentNullException::`RTTI Complete Object Locator'
	DD	00H
	DD	00H
	DD	FLAT:??_R0?AVArgumentNullException@Internal@Core@Math@Palmtree@@@8
	DD	FLAT:??_R3ArgumentNullException@Internal@Core@Math@Palmtree@@8
rdata$r	ENDS
;	COMDAT ??_R1A@?0A@EN@exception@std@@8
rdata$r	SEGMENT
??_R1A@?0A@EN@exception@std@@8 DD FLAT:??_R0?AVexception@std@@@8 ; std::exception::`RTTI Base Class Descriptor at (0,-1,0,77)'
	DD	00H
	DD	00H
	DD	0ffffffffH
	DD	00H
	DD	04dH
	DD	FLAT:??_R3exception@std@@8
rdata$r	ENDS
;	COMDAT ??_R1A@?0A@EA@Exception@Internal@Core@Math@Palmtree@@8
rdata$r	SEGMENT
??_R1A@?0A@EA@Exception@Internal@Core@Math@Palmtree@@8 DD FLAT:??_R0?AVException@Internal@Core@Math@Palmtree@@@8 ; Palmtree::Math::Core::Internal::Exception::`RTTI Base Class Descriptor at (0,-1,0,64)'
	DD	01H
	DD	00H
	DD	0ffffffffH
	DD	00H
	DD	040H
	DD	FLAT:??_R3Exception@Internal@Core@Math@Palmtree@@8
rdata$r	ENDS
;	COMDAT ??_R2Exception@Internal@Core@Math@Palmtree@@8
rdata$r	SEGMENT
??_R2Exception@Internal@Core@Math@Palmtree@@8 DD FLAT:??_R1A@?0A@EA@Exception@Internal@Core@Math@Palmtree@@8 ; Palmtree::Math::Core::Internal::Exception::`RTTI Base Class Array'
	DD	FLAT:??_R1A@?0A@EN@exception@std@@8
rdata$r	ENDS
;	COMDAT ??_R3Exception@Internal@Core@Math@Palmtree@@8
rdata$r	SEGMENT
??_R3Exception@Internal@Core@Math@Palmtree@@8 DD 00H	; Palmtree::Math::Core::Internal::Exception::`RTTI Class Hierarchy Descriptor'
	DD	00H
	DD	02H
	DD	FLAT:??_R2Exception@Internal@Core@Math@Palmtree@@8
rdata$r	ENDS
;	COMDAT ??_R4Exception@Internal@Core@Math@Palmtree@@6B@
rdata$r	SEGMENT
??_R4Exception@Internal@Core@Math@Palmtree@@6B@ DD 00H	; Palmtree::Math::Core::Internal::Exception::`RTTI Complete Object Locator'
	DD	00H
	DD	00H
	DD	FLAT:??_R0?AVException@Internal@Core@Math@Palmtree@@@8
	DD	FLAT:??_R3Exception@Internal@Core@Math@Palmtree@@8
rdata$r	ENDS
;	COMDAT ??_R1A@?0A@EA@exception@std@@8
rdata$r	SEGMENT
??_R1A@?0A@EA@exception@std@@8 DD FLAT:??_R0?AVexception@std@@@8 ; std::exception::`RTTI Base Class Descriptor at (0,-1,0,64)'
	DD	00H
	DD	00H
	DD	0ffffffffH
	DD	00H
	DD	040H
	DD	FLAT:??_R3exception@std@@8
rdata$r	ENDS
;	COMDAT ??_R2exception@std@@8
rdata$r	SEGMENT
??_R2exception@std@@8 DD FLAT:??_R1A@?0A@EA@exception@std@@8 ; std::exception::`RTTI Base Class Array'
rdata$r	ENDS
;	COMDAT ??_R3exception@std@@8
rdata$r	SEGMENT
??_R3exception@std@@8 DD 00H				; std::exception::`RTTI Class Hierarchy Descriptor'
	DD	00H
	DD	01H
	DD	FLAT:??_R2exception@std@@8
rdata$r	ENDS
;	COMDAT ??_R0?AVexception@std@@@8
data$r	SEGMENT
??_R0?AVexception@std@@@8 DD FLAT:??_7type_info@@6B@	; std::exception `RTTI Type Descriptor'
	DD	00H
	DB	'.?AVexception@std@@', 00H
data$r	ENDS
;	COMDAT ??_R4exception@std@@6B@
rdata$r	SEGMENT
??_R4exception@std@@6B@ DD 00H				; std::exception::`RTTI Complete Object Locator'
	DD	00H
	DD	00H
	DD	FLAT:??_R0?AVexception@std@@@8
	DD	FLAT:??_R3exception@std@@8
rdata$r	ENDS
;	COMDAT __CT??_R0?AVDivisionByZeroException@Internal@Core@Math@Palmtree@@@8??0DivisionByZeroException@Internal@Core@Math@Palmtree@@QAE@ABV01234@@Z24
xdata$x	SEGMENT
__CT??_R0?AVDivisionByZeroException@Internal@Core@Math@Palmtree@@@8??0DivisionByZeroException@Internal@Core@Math@Palmtree@@QAE@ABV01234@@Z24 DD 00H
	DD	FLAT:??_R0?AVDivisionByZeroException@Internal@Core@Math@Palmtree@@@8
	DD	00H
	DD	0ffffffffH
	ORG $+4
	DD	018H
	DD	FLAT:??0DivisionByZeroException@Internal@Core@Math@Palmtree@@QAE@ABV01234@@Z
xdata$x	ENDS
;	COMDAT ??_R0?AVDivisionByZeroException@Internal@Core@Math@Palmtree@@@8
data$r	SEGMENT
??_R0?AVDivisionByZeroException@Internal@Core@Math@Palmtree@@@8 DD FLAT:??_7type_info@@6B@ ; Palmtree::Math::Core::Internal::DivisionByZeroException `RTTI Type Descriptor'
	DD	00H
	DB	'.?AVDivisionByZeroException@Internal@Core@Math@Palmtree@'
	DB	'@', 00H
data$r	ENDS
;	COMDAT __CTA2?AVDivisionByZeroException@Internal@Core@Math@Palmtree@@
xdata$x	SEGMENT
__CTA2?AVDivisionByZeroException@Internal@Core@Math@Palmtree@@ DD 02H
	DD	FLAT:__CT??_R0?AVDivisionByZeroException@Internal@Core@Math@Palmtree@@@8??0DivisionByZeroException@Internal@Core@Math@Palmtree@@QAE@ABV01234@@Z24
	DD	FLAT:__CT??_R0?AVException@Internal@Core@Math@Palmtree@@@8??0Exception@Internal@Core@Math@Palmtree@@QAE@ABV01234@@Z24
xdata$x	ENDS
;	COMDAT __TI2?AVDivisionByZeroException@Internal@Core@Math@Palmtree@@
xdata$x	SEGMENT
__TI2?AVDivisionByZeroException@Internal@Core@Math@Palmtree@@ DD 00H
	DD	FLAT:??1DivisionByZeroException@Internal@Core@Math@Palmtree@@UAE@XZ
	DD	00H
	DD	FLAT:__CTA2?AVDivisionByZeroException@Internal@Core@Math@Palmtree@@
xdata$x	ENDS
;	COMDAT __CT??_R0?AVArgumentNullException@Internal@Core@Math@Palmtree@@@8??0ArgumentNullException@Internal@Core@Math@Palmtree@@QAE@ABV01234@@Z24
xdata$x	SEGMENT
__CT??_R0?AVArgumentNullException@Internal@Core@Math@Palmtree@@@8??0ArgumentNullException@Internal@Core@Math@Palmtree@@QAE@ABV01234@@Z24 DD 00H
	DD	FLAT:??_R0?AVArgumentNullException@Internal@Core@Math@Palmtree@@@8
	DD	00H
	DD	0ffffffffH
	ORG $+4
	DD	018H
	DD	FLAT:??0ArgumentNullException@Internal@Core@Math@Palmtree@@QAE@ABV01234@@Z
xdata$x	ENDS
;	COMDAT ??_R0?AVArgumentNullException@Internal@Core@Math@Palmtree@@@8
data$r	SEGMENT
??_R0?AVArgumentNullException@Internal@Core@Math@Palmtree@@@8 DD FLAT:??_7type_info@@6B@ ; Palmtree::Math::Core::Internal::ArgumentNullException `RTTI Type Descriptor'
	DD	00H
	DB	'.?AVArgumentNullException@Internal@Core@Math@Palmtree@@', 00H
data$r	ENDS
;	COMDAT __CTA2?AVArgumentNullException@Internal@Core@Math@Palmtree@@
xdata$x	SEGMENT
__CTA2?AVArgumentNullException@Internal@Core@Math@Palmtree@@ DD 02H
	DD	FLAT:__CT??_R0?AVArgumentNullException@Internal@Core@Math@Palmtree@@@8??0ArgumentNullException@Internal@Core@Math@Palmtree@@QAE@ABV01234@@Z24
	DD	FLAT:__CT??_R0?AVException@Internal@Core@Math@Palmtree@@@8??0Exception@Internal@Core@Math@Palmtree@@QAE@ABV01234@@Z24
xdata$x	ENDS
;	COMDAT __TI2?AVArgumentNullException@Internal@Core@Math@Palmtree@@
xdata$x	SEGMENT
__TI2?AVArgumentNullException@Internal@Core@Math@Palmtree@@ DD 00H
	DD	FLAT:??1ArgumentNullException@Internal@Core@Math@Palmtree@@UAE@XZ
	DD	00H
	DD	FLAT:__CTA2?AVArgumentNullException@Internal@Core@Math@Palmtree@@
xdata$x	ENDS
;	COMDAT __CT??_R0?AVException@Internal@Core@Math@Palmtree@@@8??0Exception@Internal@Core@Math@Palmtree@@QAE@ABV01234@@Z24
xdata$x	SEGMENT
__CT??_R0?AVException@Internal@Core@Math@Palmtree@@@8??0Exception@Internal@Core@Math@Palmtree@@QAE@ABV01234@@Z24 DD 00H
	DD	FLAT:??_R0?AVException@Internal@Core@Math@Palmtree@@@8
	DD	00H
	DD	0ffffffffH
	ORG $+4
	DD	018H
	DD	FLAT:??0Exception@Internal@Core@Math@Palmtree@@QAE@ABV01234@@Z
xdata$x	ENDS
;	COMDAT ??_R0?AVException@Internal@Core@Math@Palmtree@@@8
data$r	SEGMENT
??_R0?AVException@Internal@Core@Math@Palmtree@@@8 DD FLAT:??_7type_info@@6B@ ; Palmtree::Math::Core::Internal::Exception `RTTI Type Descriptor'
	DD	00H
	DB	'.?AVException@Internal@Core@Math@Palmtree@@', 00H
data$r	ENDS
;	COMDAT __CT??_R0?AVInternalErrorException@Internal@Core@Math@Palmtree@@@8??0InternalErrorException@Internal@Core@Math@Palmtree@@QAE@ABV01234@@Z24
xdata$x	SEGMENT
__CT??_R0?AVInternalErrorException@Internal@Core@Math@Palmtree@@@8??0InternalErrorException@Internal@Core@Math@Palmtree@@QAE@ABV01234@@Z24 DD 00H
	DD	FLAT:??_R0?AVInternalErrorException@Internal@Core@Math@Palmtree@@@8
	DD	00H
	DD	0ffffffffH
	ORG $+4
	DD	018H
	DD	FLAT:??0InternalErrorException@Internal@Core@Math@Palmtree@@QAE@ABV01234@@Z
xdata$x	ENDS
;	COMDAT ??_R0?AVInternalErrorException@Internal@Core@Math@Palmtree@@@8
data$r	SEGMENT
??_R0?AVInternalErrorException@Internal@Core@Math@Palmtree@@@8 DD FLAT:??_7type_info@@6B@ ; Palmtree::Math::Core::Internal::InternalErrorException `RTTI Type Descriptor'
	DD	00H
	DB	'.?AVInternalErrorException@Internal@Core@Math@Palmtree@@'
	DB	00H
data$r	ENDS
;	COMDAT __CTA2?AVInternalErrorException@Internal@Core@Math@Palmtree@@
xdata$x	SEGMENT
__CTA2?AVInternalErrorException@Internal@Core@Math@Palmtree@@ DD 02H
	DD	FLAT:__CT??_R0?AVInternalErrorException@Internal@Core@Math@Palmtree@@@8??0InternalErrorException@Internal@Core@Math@Palmtree@@QAE@ABV01234@@Z24
	DD	FLAT:__CT??_R0?AVException@Internal@Core@Math@Palmtree@@@8??0Exception@Internal@Core@Math@Palmtree@@QAE@ABV01234@@Z24
xdata$x	ENDS
;	COMDAT __TI2?AVInternalErrorException@Internal@Core@Math@Palmtree@@
xdata$x	SEGMENT
__TI2?AVInternalErrorException@Internal@Core@Math@Palmtree@@ DD 00H
	DD	FLAT:??1InternalErrorException@Internal@Core@Math@Palmtree@@UAE@XZ
	DD	00H
	DD	FLAT:__CTA2?AVInternalErrorException@Internal@Core@Math@Palmtree@@
xdata$x	ENDS
;	COMDAT ??_7InternalErrorException@Internal@Core@Math@Palmtree@@6B@
CONST	SEGMENT
??_7InternalErrorException@Internal@Core@Math@Palmtree@@6B@ DD FLAT:??_R4InternalErrorException@Internal@Core@Math@Palmtree@@6B@ ; Palmtree::Math::Core::Internal::InternalErrorException::`vftable'
	DD	FLAT:??_EInternalErrorException@Internal@Core@Math@Palmtree@@UAEPAXI@Z
	DD	FLAT:?what@exception@std@@UBEPBDXZ
CONST	ENDS
;	COMDAT ??_7DivisionByZeroException@Internal@Core@Math@Palmtree@@6B@
CONST	SEGMENT
??_7DivisionByZeroException@Internal@Core@Math@Palmtree@@6B@ DD FLAT:??_R4DivisionByZeroException@Internal@Core@Math@Palmtree@@6B@ ; Palmtree::Math::Core::Internal::DivisionByZeroException::`vftable'
	DD	FLAT:??_EDivisionByZeroException@Internal@Core@Math@Palmtree@@UAEPAXI@Z
	DD	FLAT:?what@exception@std@@UBEPBDXZ
CONST	ENDS
;	COMDAT ??_7ArgumentNullException@Internal@Core@Math@Palmtree@@6B@
CONST	SEGMENT
??_7ArgumentNullException@Internal@Core@Math@Palmtree@@6B@ DD FLAT:??_R4ArgumentNullException@Internal@Core@Math@Palmtree@@6B@ ; Palmtree::Math::Core::Internal::ArgumentNullException::`vftable'
	DD	FLAT:??_EArgumentNullException@Internal@Core@Math@Palmtree@@UAEPAXI@Z
	DD	FLAT:?what@exception@std@@UBEPBDXZ
CONST	ENDS
;	COMDAT ??_7Exception@Internal@Core@Math@Palmtree@@6B@
CONST	SEGMENT
??_7Exception@Internal@Core@Math@Palmtree@@6B@ DD FLAT:??_R4Exception@Internal@Core@Math@Palmtree@@6B@ ; Palmtree::Math::Core::Internal::Exception::`vftable'
	DD	FLAT:??_EException@Internal@Core@Math@Palmtree@@UAEPAXI@Z
	DD	FLAT:?what@exception@std@@UBEPBDXZ
CONST	ENDS
;	COMDAT ??_C@_0BC@EOODALEL@Unknown?5exception@
CONST	SEGMENT
??_C@_0BC@EOODALEL@Unknown?5exception@ DB 'Unknown exception', 00H ; `string'
CONST	ENDS
;	COMDAT ??_7exception@std@@6B@
CONST	SEGMENT
??_7exception@std@@6B@ DD FLAT:??_R4exception@std@@6B@	; std::exception::`vftable'
	DD	FLAT:??_Eexception@std@@UAEPAXI@Z
	DD	FLAT:?what@exception@std@@UBEPBDXZ
CONST	ENDS
xdata$x	SEGMENT
__unwindtable$?PMC_DivRem_X_I_Imp@Internal@Core@Math@Palmtree@@YAIPAU__tag_NUMBER_HEADER@1234@IPAPAU51234@@Z DD 0ffffffffH
	DD	FLAT:__unwindfunclet$?PMC_DivRem_X_I_Imp@Internal@Core@Math@Palmtree@@YAIPAU__tag_NUMBER_HEADER@1234@IPAPAU51234@@Z$0
__unwindtable$?PMC_DivRem_X_X@Internal@Core@Math@Palmtree@@YGPAU__tag_PMC_HANDLE_UINT@1234@PAU51234@0PAPAU51234@@Z DD 0ffffffffH
	DD	FLAT:__unwindfunclet$?PMC_DivRem_X_X@Internal@Core@Math@Palmtree@@YGPAU__tag_PMC_HANDLE_UINT@1234@PAU51234@0PAPAU51234@@Z$0
__unwindtable$?PMC_DivRem_X_L@Internal@Core@Math@Palmtree@@YG_KPAU__tag_PMC_HANDLE_UINT@1234@_KPAPAU51234@@Z DD 0ffffffffH
	DD	FLAT:__unwindfunclet$?PMC_DivRem_X_L@Internal@Core@Math@Palmtree@@YG_KPAU__tag_PMC_HANDLE_UINT@1234@_KPAPAU51234@@Z$0
__unwindtable$?PMC_DivRem_X_I@Internal@Core@Math@Palmtree@@YGIPAU__tag_PMC_HANDLE_UINT@1234@IPAPAU51234@@Z DD 0ffffffffH
	DD	FLAT:__unwindfunclet$?PMC_DivRem_X_I@Internal@Core@Math@Palmtree@@YGIPAU__tag_PMC_HANDLE_UINT@1234@IPAPAU51234@@Z$0
__unwindtable$?PMC_DivRem_X_X_Imp@Internal@Core@Math@Palmtree@@YAPAU__tag_NUMBER_HEADER@1234@PAU51234@0PAPAU51234@@Z DD 0ffffffffH
	DD	FLAT:__unwindfunclet$?PMC_DivRem_X_X_Imp@Internal@Core@Math@Palmtree@@YAPAU__tag_NUMBER_HEADER@1234@PAU51234@0PAPAU51234@@Z$0
	DD	0ffffffffH
	DD	FLAT:__unwindfunclet$?PMC_DivRem_X_X_Imp@Internal@Core@Math@Palmtree@@YAPAU__tag_NUMBER_HEADER@1234@PAU51234@0PAPAU51234@@Z$1
	DD	0ffffffffH
	DD	FLAT:__unwindfunclet$?PMC_DivRem_X_X_Imp@Internal@Core@Math@Palmtree@@YAPAU__tag_NUMBER_HEADER@1234@PAU51234@0PAPAU51234@@Z$2
	DD	0ffffffffH
	DD	FLAT:__unwindfunclet$?PMC_DivRem_X_X_Imp@Internal@Core@Math@Palmtree@@YAPAU__tag_NUMBER_HEADER@1234@PAU51234@0PAPAU51234@@Z$3
__unwindtable$?PMC_DivRem_X_L_Imp@Internal@Core@Math@Palmtree@@YA_KPAU__tag_NUMBER_HEADER@1234@_KPAPAU51234@@Z DD 0ffffffffH
	DD	FLAT:__unwindfunclet$?PMC_DivRem_X_L_Imp@Internal@Core@Math@Palmtree@@YA_KPAU__tag_NUMBER_HEADER@1234@_KPAPAU51234@@Z$0
	DD	0ffffffffH
	DD	FLAT:__unwindfunclet$?PMC_DivRem_X_L_Imp@Internal@Core@Math@Palmtree@@YA_KPAU__tag_NUMBER_HEADER@1234@_KPAPAU51234@@Z$1
	DD	0ffffffffH
	DD	FLAT:__unwindfunclet$?PMC_DivRem_X_L_Imp@Internal@Core@Math@Palmtree@@YA_KPAU__tag_NUMBER_HEADER@1234@_KPAPAU51234@@Z$2
	DD	0ffffffffH
	DD	FLAT:__unwindfunclet$?PMC_DivRem_X_L_Imp@Internal@Core@Math@Palmtree@@YA_KPAU__tag_NUMBER_HEADER@1234@_KPAPAU51234@@Z$3
__ehfuncinfo$?PMC_DivRem_X_X_Imp@Internal@Core@Math@Palmtree@@YAPAU__tag_NUMBER_HEADER@1234@PAU51234@0PAPAU51234@@Z DD 019930522H
	DD	04H
	DD	FLAT:__unwindtable$?PMC_DivRem_X_X_Imp@Internal@Core@Math@Palmtree@@YAPAU__tag_NUMBER_HEADER@1234@PAU51234@0PAPAU51234@@Z
	DD	2 DUP(00H)
	DD	2 DUP(00H)
	DD	00H
	DD	00H
__ehfuncinfo$?PMC_DivRem_X_L_Imp@Internal@Core@Math@Palmtree@@YA_KPAU__tag_NUMBER_HEADER@1234@_KPAPAU51234@@Z DD 019930522H
	DD	04H
	DD	FLAT:__unwindtable$?PMC_DivRem_X_L_Imp@Internal@Core@Math@Palmtree@@YA_KPAU__tag_NUMBER_HEADER@1234@_KPAPAU51234@@Z
	DD	2 DUP(00H)
	DD	2 DUP(00H)
	DD	00H
	DD	00H
__ehfuncinfo$?PMC_DivRem_X_I_Imp@Internal@Core@Math@Palmtree@@YAIPAU__tag_NUMBER_HEADER@1234@IPAPAU51234@@Z DD 019930522H
	DD	01H
	DD	FLAT:__unwindtable$?PMC_DivRem_X_I_Imp@Internal@Core@Math@Palmtree@@YAIPAU__tag_NUMBER_HEADER@1234@IPAPAU51234@@Z
	DD	2 DUP(00H)
	DD	2 DUP(00H)
	DD	00H
	DD	00H
__ehfuncinfo$?PMC_DivRem_X_X@Internal@Core@Math@Palmtree@@YGPAU__tag_PMC_HANDLE_UINT@1234@PAU51234@0PAPAU51234@@Z DD 019930522H
	DD	01H
	DD	FLAT:__unwindtable$?PMC_DivRem_X_X@Internal@Core@Math@Palmtree@@YGPAU__tag_PMC_HANDLE_UINT@1234@PAU51234@0PAPAU51234@@Z
	DD	2 DUP(00H)
	DD	2 DUP(00H)
	DD	00H
	DD	00H
__ehfuncinfo$?PMC_DivRem_X_L@Internal@Core@Math@Palmtree@@YG_KPAU__tag_PMC_HANDLE_UINT@1234@_KPAPAU51234@@Z DD 019930522H
	DD	01H
	DD	FLAT:__unwindtable$?PMC_DivRem_X_L@Internal@Core@Math@Palmtree@@YG_KPAU__tag_PMC_HANDLE_UINT@1234@_KPAPAU51234@@Z
	DD	2 DUP(00H)
	DD	2 DUP(00H)
	DD	00H
	DD	00H
__ehfuncinfo$?PMC_DivRem_X_I@Internal@Core@Math@Palmtree@@YGIPAU__tag_PMC_HANDLE_UINT@1234@IPAPAU51234@@Z DD 019930522H
	DD	01H
	DD	FLAT:__unwindtable$?PMC_DivRem_X_I@Internal@Core@Math@Palmtree@@YGIPAU__tag_PMC_HANDLE_UINT@1234@IPAPAU51234@@Z
	DD	2 DUP(00H)
	DD	2 DUP(00H)
	DD	00H
	DD	00H
xdata$x	ENDS
;	COMDAT xdata$x
xdata$x	SEGMENT
__unwindtable$??1InternalErrorException@Internal@Core@Math@Palmtree@@UAE@XZ DD 0ffffffffH
	DD	FLAT:__unwindfunclet$??1InternalErrorException@Internal@Core@Math@Palmtree@@UAE@XZ$0
__ehfuncinfo$??1InternalErrorException@Internal@Core@Math@Palmtree@@UAE@XZ DD 019930522H
	DD	01H
	DD	FLAT:__unwindtable$??1InternalErrorException@Internal@Core@Math@Palmtree@@UAE@XZ
	DD	2 DUP(00H)
	DD	2 DUP(00H)
	DD	00H
	DD	04H
xdata$x	ENDS
;	COMDAT xdata$x
xdata$x	SEGMENT
__unwindtable$??0InternalErrorException@Internal@Core@Math@Palmtree@@QAE@ABV01234@@Z DD 0ffffffffH
	DD	FLAT:__unwindfunclet$??0InternalErrorException@Internal@Core@Math@Palmtree@@QAE@ABV01234@@Z$0
__ehfuncinfo$??0InternalErrorException@Internal@Core@Math@Palmtree@@QAE@ABV01234@@Z DD 019930522H
	DD	01H
	DD	FLAT:__unwindtable$??0InternalErrorException@Internal@Core@Math@Palmtree@@QAE@ABV01234@@Z
	DD	2 DUP(00H)
	DD	2 DUP(00H)
	DD	00H
	DD	04H
xdata$x	ENDS
;	COMDAT xdata$x
xdata$x	SEGMENT
__unwindtable$??0InternalErrorException@Internal@Core@Math@Palmtree@@QAE@PB_W0@Z DD 0ffffffffH
	DD	FLAT:__unwindfunclet$??0InternalErrorException@Internal@Core@Math@Palmtree@@QAE@PB_W0@Z$0
__ehfuncinfo$??0InternalErrorException@Internal@Core@Math@Palmtree@@QAE@PB_W0@Z DD 019930522H
	DD	01H
	DD	FLAT:__unwindtable$??0InternalErrorException@Internal@Core@Math@Palmtree@@QAE@PB_W0@Z
	DD	2 DUP(00H)
	DD	2 DUP(00H)
	DD	00H
	DD	04H
xdata$x	ENDS
;	COMDAT xdata$x
xdata$x	SEGMENT
__unwindtable$??1DivisionByZeroException@Internal@Core@Math@Palmtree@@UAE@XZ DD 0ffffffffH
	DD	FLAT:__unwindfunclet$??1DivisionByZeroException@Internal@Core@Math@Palmtree@@UAE@XZ$0
__ehfuncinfo$??1DivisionByZeroException@Internal@Core@Math@Palmtree@@UAE@XZ DD 019930522H
	DD	01H
	DD	FLAT:__unwindtable$??1DivisionByZeroException@Internal@Core@Math@Palmtree@@UAE@XZ
	DD	2 DUP(00H)
	DD	2 DUP(00H)
	DD	00H
	DD	04H
xdata$x	ENDS
;	COMDAT xdata$x
xdata$x	SEGMENT
__unwindtable$??0DivisionByZeroException@Internal@Core@Math@Palmtree@@QAE@ABV01234@@Z DD 0ffffffffH
	DD	FLAT:__unwindfunclet$??0DivisionByZeroException@Internal@Core@Math@Palmtree@@QAE@ABV01234@@Z$0
__ehfuncinfo$??0DivisionByZeroException@Internal@Core@Math@Palmtree@@QAE@ABV01234@@Z DD 019930522H
	DD	01H
	DD	FLAT:__unwindtable$??0DivisionByZeroException@Internal@Core@Math@Palmtree@@QAE@ABV01234@@Z
	DD	2 DUP(00H)
	DD	2 DUP(00H)
	DD	00H
	DD	04H
xdata$x	ENDS
;	COMDAT xdata$x
xdata$x	SEGMENT
__unwindtable$??0DivisionByZeroException@Internal@Core@Math@Palmtree@@QAE@PB_W@Z DD 0ffffffffH
	DD	FLAT:__unwindfunclet$??0DivisionByZeroException@Internal@Core@Math@Palmtree@@QAE@PB_W@Z$0
__ehfuncinfo$??0DivisionByZeroException@Internal@Core@Math@Palmtree@@QAE@PB_W@Z DD 019930522H
	DD	01H
	DD	FLAT:__unwindtable$??0DivisionByZeroException@Internal@Core@Math@Palmtree@@QAE@PB_W@Z
	DD	2 DUP(00H)
	DD	2 DUP(00H)
	DD	00H
	DD	04H
xdata$x	ENDS
;	COMDAT xdata$x
xdata$x	SEGMENT
__unwindtable$??1ArgumentNullException@Internal@Core@Math@Palmtree@@UAE@XZ DD 0ffffffffH
	DD	FLAT:__unwindfunclet$??1ArgumentNullException@Internal@Core@Math@Palmtree@@UAE@XZ$0
__ehfuncinfo$??1ArgumentNullException@Internal@Core@Math@Palmtree@@UAE@XZ DD 019930522H
	DD	01H
	DD	FLAT:__unwindtable$??1ArgumentNullException@Internal@Core@Math@Palmtree@@UAE@XZ
	DD	2 DUP(00H)
	DD	2 DUP(00H)
	DD	00H
	DD	04H
xdata$x	ENDS
;	COMDAT xdata$x
xdata$x	SEGMENT
__unwindtable$??0ArgumentNullException@Internal@Core@Math@Palmtree@@QAE@ABV01234@@Z DD 0ffffffffH
	DD	FLAT:__unwindfunclet$??0ArgumentNullException@Internal@Core@Math@Palmtree@@QAE@ABV01234@@Z$0
__ehfuncinfo$??0ArgumentNullException@Internal@Core@Math@Palmtree@@QAE@ABV01234@@Z DD 019930522H
	DD	01H
	DD	FLAT:__unwindtable$??0ArgumentNullException@Internal@Core@Math@Palmtree@@QAE@ABV01234@@Z
	DD	2 DUP(00H)
	DD	2 DUP(00H)
	DD	00H
	DD	04H
xdata$x	ENDS
;	COMDAT xdata$x
xdata$x	SEGMENT
__unwindtable$??0ArgumentNullException@Internal@Core@Math@Palmtree@@QAE@PB_W0@Z DD 0ffffffffH
	DD	FLAT:__unwindfunclet$??0ArgumentNullException@Internal@Core@Math@Palmtree@@QAE@PB_W0@Z$0
__ehfuncinfo$??0ArgumentNullException@Internal@Core@Math@Palmtree@@QAE@PB_W0@Z DD 019930522H
	DD	01H
	DD	FLAT:__unwindtable$??0ArgumentNullException@Internal@Core@Math@Palmtree@@QAE@PB_W0@Z
	DD	2 DUP(00H)
	DD	2 DUP(00H)
	DD	00H
	DD	04H
xdata$x	ENDS
;	COMDAT xdata$x
xdata$x	SEGMENT
__unwindtable$??1Exception@Internal@Core@Math@Palmtree@@UAE@XZ DD 0ffffffffH
	DD	FLAT:__unwindfunclet$??1Exception@Internal@Core@Math@Palmtree@@UAE@XZ$0
__ehfuncinfo$??1Exception@Internal@Core@Math@Palmtree@@UAE@XZ DD 019930522H
	DD	01H
	DD	FLAT:__unwindtable$??1Exception@Internal@Core@Math@Palmtree@@UAE@XZ
	DD	2 DUP(00H)
	DD	2 DUP(00H)
	DD	00H
	DD	04H
xdata$x	ENDS
;	COMDAT xdata$x
xdata$x	SEGMENT
__unwindtable$??0Exception@Internal@Core@Math@Palmtree@@QAE@ABV01234@@Z DD 0ffffffffH
	DD	FLAT:__unwindfunclet$??0Exception@Internal@Core@Math@Palmtree@@QAE@ABV01234@@Z$0
__ehfuncinfo$??0Exception@Internal@Core@Math@Palmtree@@QAE@ABV01234@@Z DD 019930522H
	DD	01H
	DD	FLAT:__unwindtable$??0Exception@Internal@Core@Math@Palmtree@@QAE@ABV01234@@Z
	DD	2 DUP(00H)
	DD	2 DUP(00H)
	DD	00H
	DD	04H
xdata$x	ENDS
;	COMDAT xdata$x
xdata$x	SEGMENT
__unwindtable$??0Exception@Internal@Core@Math@Palmtree@@IAE@HPB_W0@Z DD 0ffffffffH
	DD	FLAT:__unwindfunclet$??0Exception@Internal@Core@Math@Palmtree@@IAE@HPB_W0@Z$0
__ehfuncinfo$??0Exception@Internal@Core@Math@Palmtree@@IAE@HPB_W0@Z DD 019930522H
	DD	01H
	DD	FLAT:__unwindtable$??0Exception@Internal@Core@Math@Palmtree@@IAE@HPB_W0@Z
	DD	2 DUP(00H)
	DD	2 DUP(00H)
	DD	00H
	DD	04H
xdata$x	ENDS
;	COMDAT xdata$x
xdata$x	SEGMENT
__unwindtable$??0Exception@Internal@Core@Math@Palmtree@@IAE@HPB_W@Z DD 0ffffffffH
	DD	FLAT:__unwindfunclet$??0Exception@Internal@Core@Math@Palmtree@@IAE@HPB_W@Z$0
__ehfuncinfo$??0Exception@Internal@Core@Math@Palmtree@@IAE@HPB_W@Z DD 019930522H
	DD	01H
	DD	FLAT:__unwindtable$??0Exception@Internal@Core@Math@Palmtree@@IAE@HPB_W@Z
	DD	2 DUP(00H)
	DD	2 DUP(00H)
	DD	00H
	DD	04H
xdata$x	ENDS
;	COMDAT xdata$x
xdata$x	SEGMENT
__ehfuncinfo$??1exception@std@@UAE@XZ DD 019930522H
	DD	00H
	DD	00H
	DD	2 DUP(00H)
	DD	2 DUP(00H)
	DD	00H
	DD	04H
xdata$x	ENDS
;	COMDAT xdata$x
xdata$x	SEGMENT
__ehfuncinfo$??0exception@std@@QAE@XZ DD 019930522H
	DD	00H
	DD	00H
	DD	2 DUP(00H)
	DD	2 DUP(00H)
	DD	00H
	DD	04H
xdata$x	ENDS
; Function compile flags: /Odt
;	COMDAT __JustMyCode_Default
_TEXT	SEGMENT
__JustMyCode_Default PROC				; COMDAT
  00000	55		 push	 ebp
  00001	8b ec		 mov	 ebp, esp
  00003	5d		 pop	 ebp
  00004	c3		 ret	 0
__JustMyCode_Default ENDP
_TEXT	ENDS
; Function compile flags: /Odtp /RTCsu
; File z:\sources\lunor\repos\rougemeilland\palmtree.math.core.uint\palmtree.math.core.uint\pmc_divrem.cpp
_TEXT	SEGMENT
tv272 = -192						; size = 4
tv222 = -188						; size = 4
tv178 = -184						; size = 4
$T2 = -180						; size = 4
$T3 = -176						; size = 4
$T4 = -172						; size = 4
$T5 = -168						; size = 4
_work_v_buf$6 = -164					; size = 4
_r$7 = -160						; size = 4
_r_bit_count$8 = -156					; size = 4
_root$9 = -148						; size = 16
_work_v_buf$10 = -128					; size = 4
_r$11 = -124						; size = 4
_r_bit_count$12 = -120					; size = 4
_q_bit_count$13 = -116					; size = 4
_root$14 = -108						; size = 16
_r$15 = -88						; size = 4
_r_bit_count$16 = -84					; size = 4
_root$17 = -76						; size = 16
_r$18 = -56						; size = 4
_r_bit_count$19 = -52					; size = 4
_q_bit_count$20 = -48					; size = 4
_root$21 = -40						; size = 16
_v_bit_count$22 = -20					; size = 4
_u_bit_count$23 = -16					; size = 4
__$EHRec$ = -12						; size = 12
_u$ = 8							; size = 4
_v$ = 12						; size = 4
_q$ = 16						; size = 4
?PMC_DivRem_X_X_Imp@Internal@Core@Math@Palmtree@@YAPAU__tag_NUMBER_HEADER@1234@PAU51234@0PAPAU51234@@Z PROC ; Palmtree::Math::Core::Internal::PMC_DivRem_X_X_Imp

; 2039 :     {

  00000	55		 push	 ebp
  00001	8b ec		 mov	 ebp, esp
  00003	6a ff		 push	 -1
  00005	68 00 00 00 00	 push	 __ehhandler$?PMC_DivRem_X_X_Imp@Internal@Core@Math@Palmtree@@YAPAU__tag_NUMBER_HEADER@1234@PAU51234@0PAPAU51234@@Z
  0000a	64 a1 00 00 00
	00		 mov	 eax, DWORD PTR fs:0
  00010	50		 push	 eax
  00011	81 ec b4 00 00
	00		 sub	 esp, 180		; 000000b4H
  00017	56		 push	 esi
  00018	57		 push	 edi
  00019	8d bd 40 ff ff
	ff		 lea	 edi, DWORD PTR [ebp-192]
  0001f	b9 2d 00 00 00	 mov	 ecx, 45			; 0000002dH
  00024	b8 cc cc cc cc	 mov	 eax, -858993460		; ccccccccH
  00029	f3 ab		 rep stosd
  0002b	a1 00 00 00 00	 mov	 eax, DWORD PTR ___security_cookie
  00030	33 c5		 xor	 eax, ebp
  00032	50		 push	 eax
  00033	8d 45 f4	 lea	 eax, DWORD PTR __$EHRec$[ebp]
  00036	64 a3 00 00 00
	00		 mov	 DWORD PTR fs:0, eax
  0003c	b9 00 00 00 00	 mov	 ecx, OFFSET __E17217E9_pmc_divrem@cpp
  00041	e8 00 00 00 00	 call	 @__CheckForDebuggerJustMyCode@4

; 2040 :         if (u->IS_ZERO)

  00046	8b 45 08	 mov	 eax, DWORD PTR _u$[ebp]
  00049	8b 48 04	 mov	 ecx, DWORD PTR [eax+4]
  0004c	83 e1 01	 and	 ecx, 1
  0004f	74 1e		 je	 SHORT $LN2@PMC_DivRem

; 2041 :         {
; 2042 :             // u が 0 である場合
; 2043 : 
; 2044 :             // q = 0, r = 0 を返す
; 2045 :             if (q != nullptr)

  00051	83 7d 10 00	 cmp	 DWORD PTR _q$[ebp], 0
  00055	74 09		 je	 SHORT $LN4@PMC_DivRem

; 2046 :                 *q = &number_zero;

  00057	8b 55 10	 mov	 edx, DWORD PTR _q$[ebp]
  0005a	c7 02 00 00 00
	00		 mov	 DWORD PTR [edx], OFFSET ?number_zero@Internal@Core@Math@Palmtree@@3U__tag_NUMBER_HEADER@1234@A ; Palmtree::Math::Core::Internal::number_zero
$LN4@PMC_DivRem:

; 2047 :             return (&number_zero);

  00060	b8 00 00 00 00	 mov	 eax, OFFSET ?number_zero@Internal@Core@Math@Palmtree@@3U__tag_NUMBER_HEADER@1234@A ; Palmtree::Math::Core::Internal::number_zero
  00065	e9 60 05 00 00	 jmp	 $LN1@PMC_DivRem

; 2048 :         }
; 2049 :         else

  0006a	e9 5b 05 00 00	 jmp	 $LN1@PMC_DivRem
$LN2@PMC_DivRem:

; 2050 :         {
; 2051 :             // u が 0 ではない場合
; 2052 : 
; 2053 :             if (v->IS_ONE)

  0006f	8b 45 0c	 mov	 eax, DWORD PTR _v$[ebp]
  00072	8b 48 04	 mov	 ecx, DWORD PTR [eax+4]
  00075	d1 e9		 shr	 ecx, 1
  00077	83 e1 01	 and	 ecx, 1
  0007a	74 26		 je	 SHORT $LN5@PMC_DivRem

; 2054 :             {
; 2055 :                 // v が 1 である場合
; 2056 : 
; 2057 :                 // q = u, r = 0 を返す
; 2058 :                 if (q != nullptr)

  0007c	83 7d 10 00	 cmp	 DWORD PTR _q$[ebp], 0
  00080	74 11		 je	 SHORT $LN7@PMC_DivRem

; 2059 :                     *q = DuplicateNumber(u);

  00082	8b 55 08	 mov	 edx, DWORD PTR _u$[ebp]
  00085	52		 push	 edx
  00086	e8 00 00 00 00	 call	 ?DuplicateNumber@Internal@Core@Math@Palmtree@@YAPAU__tag_NUMBER_HEADER@1234@PAU51234@@Z ; Palmtree::Math::Core::Internal::DuplicateNumber
  0008b	83 c4 04	 add	 esp, 4
  0008e	8b 4d 10	 mov	 ecx, DWORD PTR _q$[ebp]
  00091	89 01		 mov	 DWORD PTR [ecx], eax
$LN7@PMC_DivRem:

; 2060 :                 return (&number_zero);

  00093	b8 00 00 00 00	 mov	 eax, OFFSET ?number_zero@Internal@Core@Math@Palmtree@@3U__tag_NUMBER_HEADER@1234@A ; Palmtree::Math::Core::Internal::number_zero
  00098	e9 2d 05 00 00	 jmp	 $LN1@PMC_DivRem

; 2061 :             }
; 2062 :             else

  0009d	e9 28 05 00 00	 jmp	 $LN1@PMC_DivRem
$LN5@PMC_DivRem:

; 2063 :             {
; 2064 :                 // u > 0 かつ v > 1 である場合
; 2065 : 
; 2066 :                 // x と y の商・剰余を計算する
; 2067 :                 __UNIT_TYPE u_bit_count = u->UNIT_BIT_COUNT;

  000a2	8b 55 08	 mov	 edx, DWORD PTR _u$[ebp]
  000a5	8b 42 14	 mov	 eax, DWORD PTR [edx+20]
  000a8	89 45 f0	 mov	 DWORD PTR _u_bit_count$23[ebp], eax

; 2068 :                 __UNIT_TYPE v_bit_count = v->UNIT_BIT_COUNT;

  000ab	8b 4d 0c	 mov	 ecx, DWORD PTR _v$[ebp]
  000ae	8b 51 14	 mov	 edx, DWORD PTR [ecx+20]
  000b1	89 55 ec	 mov	 DWORD PTR _v_bit_count$22[ebp], edx

; 2069 :                 if (u_bit_count < v_bit_count)

  000b4	8b 45 f0	 mov	 eax, DWORD PTR _u_bit_count$23[ebp]
  000b7	3b 45 ec	 cmp	 eax, DWORD PTR _v_bit_count$22[ebp]
  000ba	73 25		 jae	 SHORT $LN8@PMC_DivRem

; 2070 :                 {
; 2071 :                     // 明らかに u < v である場合
; 2072 : 
; 2073 :                     // q = 0, r = u を返す。
; 2074 :                     if (q != nullptr)

  000bc	83 7d 10 00	 cmp	 DWORD PTR _q$[ebp], 0
  000c0	74 09		 je	 SHORT $LN10@PMC_DivRem

; 2075 :                         *q = &number_zero;

  000c2	8b 4d 10	 mov	 ecx, DWORD PTR _q$[ebp]
  000c5	c7 01 00 00 00
	00		 mov	 DWORD PTR [ecx], OFFSET ?number_zero@Internal@Core@Math@Palmtree@@3U__tag_NUMBER_HEADER@1234@A ; Palmtree::Math::Core::Internal::number_zero
$LN10@PMC_DivRem:

; 2076 :                     return (DuplicateNumber(u));

  000cb	8b 55 08	 mov	 edx, DWORD PTR _u$[ebp]
  000ce	52		 push	 edx
  000cf	e8 00 00 00 00	 call	 ?DuplicateNumber@Internal@Core@Math@Palmtree@@YAPAU__tag_NUMBER_HEADER@1234@PAU51234@@Z ; Palmtree::Math::Core::Internal::DuplicateNumber
  000d4	83 c4 04	 add	 esp, 4
  000d7	e9 ee 04 00 00	 jmp	 $LN1@PMC_DivRem
  000dc	e9 e9 04 00 00	 jmp	 $LN1@PMC_DivRem
$LN8@PMC_DivRem:

; 2077 :                 }
; 2078 :                 else if (v_bit_count <= sizeof(__UNIT_TYPE) * 8)

  000e1	83 7d ec 20	 cmp	 DWORD PTR _v_bit_count$22[ebp], 32 ; 00000020H
  000e5	0f 87 16 02 00
	00		 ja	 $LN11@PMC_DivRem

; 2079 :                 {
; 2080 :                     // 除数が 1 ワードで表現できる場合
; 2081 : 
; 2082 :                     if (q != nullptr)

  000eb	83 7d 10 00	 cmp	 DWORD PTR _q$[ebp], 0
  000ef	0f 84 36 01 00
	00		 je	 $LN13@PMC_DivRem

; 2083 :                     {
; 2084 :                         ResourceHolderUINT root;

  000f5	8d 4d d8	 lea	 ecx, DWORD PTR _root$21[ebp]
  000f8	e8 00 00 00 00	 call	 ??0ResourceHolderUINT@Internal@Core@Math@Palmtree@@QAE@XZ ; Palmtree::Math::Core::Internal::ResourceHolderUINT::ResourceHolderUINT
  000fd	c7 45 fc 00 00
	00 00		 mov	 DWORD PTR __$EHRec$[ebp+8], 0

; 2085 :                         __UNIT_TYPE q_bit_count = u_bit_count - v_bit_count + 1 + __UNIT_TYPE_BIT_COUNT; // 演算結果を格納するためには u_bit_count - v_bit_count + 1 だけあれば十分であるが、除算の作業用バッファも兼ねているので余分にとっている。

  00104	8b 45 f0	 mov	 eax, DWORD PTR _u_bit_count$23[ebp]
  00107	2b 45 ec	 sub	 eax, DWORD PTR _v_bit_count$22[ebp]
  0010a	83 c0 21	 add	 eax, 33			; 00000021H
  0010d	89 45 d0	 mov	 DWORD PTR _q_bit_count$20[ebp], eax

; 2086 :                         *q = root.AllocateNumber(q_bit_count);

  00110	8b 4d d0	 mov	 ecx, DWORD PTR _q_bit_count$20[ebp]
  00113	51		 push	 ecx
  00114	8d 4d d8	 lea	 ecx, DWORD PTR _root$21[ebp]
  00117	e8 00 00 00 00	 call	 ?AllocateNumber@ResourceHolderUINT@Internal@Core@Math@Palmtree@@QAEPAU__tag_NUMBER_HEADER@2345@I@Z ; Palmtree::Math::Core::Internal::ResourceHolderUINT::AllocateNumber
  0011c	8b 55 10	 mov	 edx, DWORD PTR _q$[ebp]
  0011f	89 02		 mov	 DWORD PTR [edx], eax

; 2087 :                         __UNIT_TYPE r_bit_count = sizeof(__UNIT_TYPE) * 8;

  00121	c7 45 cc 20 00
	00 00		 mov	 DWORD PTR _r_bit_count$19[ebp], 32 ; 00000020H

; 2088 :                         NUMBER_HEADER* r = root.AllocateNumber(r_bit_count);

  00128	8b 45 cc	 mov	 eax, DWORD PTR _r_bit_count$19[ebp]
  0012b	50		 push	 eax
  0012c	8d 4d d8	 lea	 ecx, DWORD PTR _root$21[ebp]
  0012f	e8 00 00 00 00	 call	 ?AllocateNumber@ResourceHolderUINT@Internal@Core@Math@Palmtree@@QAEPAU__tag_NUMBER_HEADER@2345@I@Z ; Palmtree::Math::Core::Internal::ResourceHolderUINT::AllocateNumber
  00134	89 45 c8	 mov	 DWORD PTR _r$18[ebp], eax

; 2089 :                         DivRem_X_1W(u->BLOCK, u->UNIT_WORD_COUNT, (__UNIT_TYPE)v->BLOCK[0], (*q)->BLOCK, r->BLOCK);

  00137	8b 4d c8	 mov	 ecx, DWORD PTR _r$18[ebp]
  0013a	8b 51 24	 mov	 edx, DWORD PTR [ecx+36]
  0013d	52		 push	 edx
  0013e	8b 45 10	 mov	 eax, DWORD PTR _q$[ebp]
  00141	8b 08		 mov	 ecx, DWORD PTR [eax]
  00143	8b 51 24	 mov	 edx, DWORD PTR [ecx+36]
  00146	52		 push	 edx
  00147	b8 04 00 00 00	 mov	 eax, 4
  0014c	6b c8 00	 imul	 ecx, eax, 0
  0014f	8b 55 0c	 mov	 edx, DWORD PTR _v$[ebp]
  00152	8b 42 24	 mov	 eax, DWORD PTR [edx+36]
  00155	8b 0c 08	 mov	 ecx, DWORD PTR [eax+ecx]
  00158	51		 push	 ecx
  00159	8b 55 08	 mov	 edx, DWORD PTR _u$[ebp]
  0015c	8b 42 10	 mov	 eax, DWORD PTR [edx+16]
  0015f	50		 push	 eax
  00160	8b 4d 08	 mov	 ecx, DWORD PTR _u$[ebp]
  00163	8b 51 24	 mov	 edx, DWORD PTR [ecx+36]
  00166	52		 push	 edx
  00167	e8 00 00 00 00	 call	 ?DivRem_X_1W@Internal@Core@Math@Palmtree@@YAXPAIII00@Z ; Palmtree::Math::Core::Internal::DivRem_X_1W
  0016c	83 c4 14	 add	 esp, 20			; 00000014H

; 2090 :                         root.CheckNumber(*q);

  0016f	8b 45 10	 mov	 eax, DWORD PTR _q$[ebp]
  00172	8b 08		 mov	 ecx, DWORD PTR [eax]
  00174	51		 push	 ecx
  00175	8d 4d d8	 lea	 ecx, DWORD PTR _root$21[ebp]
  00178	e8 00 00 00 00	 call	 ?CheckNumber@ResourceHolderUINT@Internal@Core@Math@Palmtree@@QAEXPAU__tag_NUMBER_HEADER@2345@@Z ; Palmtree::Math::Core::Internal::ResourceHolderUINT::CheckNumber

; 2091 :                         root.CheckNumber(r);

  0017d	8b 55 c8	 mov	 edx, DWORD PTR _r$18[ebp]
  00180	52		 push	 edx
  00181	8d 4d d8	 lea	 ecx, DWORD PTR _root$21[ebp]
  00184	e8 00 00 00 00	 call	 ?CheckNumber@ResourceHolderUINT@Internal@Core@Math@Palmtree@@QAEXPAU__tag_NUMBER_HEADER@2345@@Z ; Palmtree::Math::Core::Internal::ResourceHolderUINT::CheckNumber

; 2092 :                         CommitNumber(*q);

  00189	8b 45 10	 mov	 eax, DWORD PTR _q$[ebp]
  0018c	8b 08		 mov	 ecx, DWORD PTR [eax]
  0018e	51		 push	 ecx
  0018f	e8 00 00 00 00	 call	 ?CommitNumber@Internal@Core@Math@Palmtree@@YAXPAU__tag_NUMBER_HEADER@1234@@Z ; Palmtree::Math::Core::Internal::CommitNumber
  00194	83 c4 04	 add	 esp, 4

; 2093 :                         CommitNumber(r);

  00197	8b 55 c8	 mov	 edx, DWORD PTR _r$18[ebp]
  0019a	52		 push	 edx
  0019b	e8 00 00 00 00	 call	 ?CommitNumber@Internal@Core@Math@Palmtree@@YAXPAU__tag_NUMBER_HEADER@1234@@Z ; Palmtree::Math::Core::Internal::CommitNumber
  001a0	83 c4 04	 add	 esp, 4

; 2094 :                         if ((*q)->IS_ZERO)

  001a3	8b 45 10	 mov	 eax, DWORD PTR _q$[ebp]
  001a6	8b 08		 mov	 ecx, DWORD PTR [eax]
  001a8	8b 51 04	 mov	 edx, DWORD PTR [ecx+4]
  001ab	83 e2 01	 and	 edx, 1
  001ae	74 19		 je	 SHORT $LN15@PMC_DivRem

; 2095 :                         {
; 2096 :                             root.DeallocateNumber(*q);

  001b0	8b 45 10	 mov	 eax, DWORD PTR _q$[ebp]
  001b3	8b 08		 mov	 ecx, DWORD PTR [eax]
  001b5	51		 push	 ecx
  001b6	8d 4d d8	 lea	 ecx, DWORD PTR _root$21[ebp]
  001b9	e8 00 00 00 00	 call	 ?DeallocateNumber@ResourceHolderUINT@Internal@Core@Math@Palmtree@@QAEXPAU__tag_NUMBER_HEADER@2345@@Z ; Palmtree::Math::Core::Internal::ResourceHolderUINT::DeallocateNumber

; 2097 :                             *q = &number_zero;

  001be	8b 55 10	 mov	 edx, DWORD PTR _q$[ebp]
  001c1	c7 02 00 00 00
	00		 mov	 DWORD PTR [edx], OFFSET ?number_zero@Internal@Core@Math@Palmtree@@3U__tag_NUMBER_HEADER@1234@A ; Palmtree::Math::Core::Internal::number_zero

; 2098 :                         }
; 2099 :                         else

  001c7	eb 0e		 jmp	 SHORT $LN16@PMC_DivRem
$LN15@PMC_DivRem:

; 2100 :                             root.UnlinkNumber(*q);

  001c9	8b 45 10	 mov	 eax, DWORD PTR _q$[ebp]
  001cc	8b 08		 mov	 ecx, DWORD PTR [eax]
  001ce	51		 push	 ecx
  001cf	8d 4d d8	 lea	 ecx, DWORD PTR _root$21[ebp]
  001d2	e8 00 00 00 00	 call	 ?UnlinkNumber@ResourceHolderUINT@Internal@Core@Math@Palmtree@@QAEXPAU__tag_NUMBER_HEADER@2345@@Z ; Palmtree::Math::Core::Internal::ResourceHolderUINT::UnlinkNumber
$LN16@PMC_DivRem:

; 2101 :                         if (r->IS_ZERO)

  001d7	8b 55 c8	 mov	 edx, DWORD PTR _r$18[ebp]
  001da	8b 42 04	 mov	 eax, DWORD PTR [edx+4]
  001dd	83 e0 01	 and	 eax, 1
  001e0	74 15		 je	 SHORT $LN17@PMC_DivRem

; 2102 :                         {
; 2103 :                             root.DeallocateNumber(r);

  001e2	8b 4d c8	 mov	 ecx, DWORD PTR _r$18[ebp]
  001e5	51		 push	 ecx
  001e6	8d 4d d8	 lea	 ecx, DWORD PTR _root$21[ebp]
  001e9	e8 00 00 00 00	 call	 ?DeallocateNumber@ResourceHolderUINT@Internal@Core@Math@Palmtree@@QAEXPAU__tag_NUMBER_HEADER@2345@@Z ; Palmtree::Math::Core::Internal::ResourceHolderUINT::DeallocateNumber

; 2104 :                             r = &number_zero;

  001ee	c7 45 c8 00 00
	00 00		 mov	 DWORD PTR _r$18[ebp], OFFSET ?number_zero@Internal@Core@Math@Palmtree@@3U__tag_NUMBER_HEADER@1234@A ; Palmtree::Math::Core::Internal::number_zero

; 2105 :                         }
; 2106 :                         else

  001f5	eb 0c		 jmp	 SHORT $LN18@PMC_DivRem
$LN17@PMC_DivRem:

; 2107 :                             root.UnlinkNumber(r);

  001f7	8b 55 c8	 mov	 edx, DWORD PTR _r$18[ebp]
  001fa	52		 push	 edx
  001fb	8d 4d d8	 lea	 ecx, DWORD PTR _root$21[ebp]
  001fe	e8 00 00 00 00	 call	 ?UnlinkNumber@ResourceHolderUINT@Internal@Core@Math@Palmtree@@QAEXPAU__tag_NUMBER_HEADER@2345@@Z ; Palmtree::Math::Core::Internal::ResourceHolderUINT::UnlinkNumber
$LN18@PMC_DivRem:

; 2108 :                         return (r);

  00203	8b 45 c8	 mov	 eax, DWORD PTR _r$18[ebp]
  00206	89 85 58 ff ff
	ff		 mov	 DWORD PTR $T5[ebp], eax
  0020c	c7 45 fc ff ff
	ff ff		 mov	 DWORD PTR __$EHRec$[ebp+8], -1
  00213	8d 4d d8	 lea	 ecx, DWORD PTR _root$21[ebp]
  00216	e8 00 00 00 00	 call	 ??1ResourceHolderUINT@Internal@Core@Math@Palmtree@@UAE@XZ ; Palmtree::Math::Core::Internal::ResourceHolderUINT::~ResourceHolderUINT
  0021b	8b 85 58 ff ff
	ff		 mov	 eax, DWORD PTR $T5[ebp]
  00221	e9 a4 03 00 00	 jmp	 $LN1@PMC_DivRem

; 2109 :                     }
; 2110 :                     else

  00226	e9 d1 00 00 00	 jmp	 $LN14@PMC_DivRem
$LN13@PMC_DivRem:

; 2111 :                     {
; 2112 :                         ResourceHolderUINT root;

  0022b	8d 4d b4	 lea	 ecx, DWORD PTR _root$17[ebp]
  0022e	e8 00 00 00 00	 call	 ??0ResourceHolderUINT@Internal@Core@Math@Palmtree@@QAE@XZ ; Palmtree::Math::Core::Internal::ResourceHolderUINT::ResourceHolderUINT
  00233	c7 45 fc 01 00
	00 00		 mov	 DWORD PTR __$EHRec$[ebp+8], 1

; 2113 :                         __UNIT_TYPE r_bit_count = sizeof(__UNIT_TYPE) * 8;

  0023a	c7 45 ac 20 00
	00 00		 mov	 DWORD PTR _r_bit_count$16[ebp], 32 ; 00000020H

; 2114 :                         NUMBER_HEADER* r = root.AllocateNumber(r_bit_count);

  00241	8b 4d ac	 mov	 ecx, DWORD PTR _r_bit_count$16[ebp]
  00244	51		 push	 ecx
  00245	8d 4d b4	 lea	 ecx, DWORD PTR _root$17[ebp]
  00248	e8 00 00 00 00	 call	 ?AllocateNumber@ResourceHolderUINT@Internal@Core@Math@Palmtree@@QAEPAU__tag_NUMBER_HEADER@2345@I@Z ; Palmtree::Math::Core::Internal::ResourceHolderUINT::AllocateNumber
  0024d	89 45 a8	 mov	 DWORD PTR _r$15[ebp], eax

; 2115 :                         r->BLOCK[0] = Rem_X_1W(u->BLOCK, u->UNIT_WORD_COUNT, (__UNIT_TYPE)v->BLOCK[0]);

  00250	ba 04 00 00 00	 mov	 edx, 4
  00255	6b c2 00	 imul	 eax, edx, 0
  00258	8b 4d 0c	 mov	 ecx, DWORD PTR _v$[ebp]
  0025b	8b 51 24	 mov	 edx, DWORD PTR [ecx+36]
  0025e	8b 04 02	 mov	 eax, DWORD PTR [edx+eax]
  00261	50		 push	 eax
  00262	8b 4d 08	 mov	 ecx, DWORD PTR _u$[ebp]
  00265	8b 51 10	 mov	 edx, DWORD PTR [ecx+16]
  00268	52		 push	 edx
  00269	8b 45 08	 mov	 eax, DWORD PTR _u$[ebp]
  0026c	8b 48 24	 mov	 ecx, DWORD PTR [eax+36]
  0026f	51		 push	 ecx
  00270	e8 00 00 00 00	 call	 ?Rem_X_1W@Internal@Core@Math@Palmtree@@YAIPAIII@Z ; Palmtree::Math::Core::Internal::Rem_X_1W
  00275	83 c4 0c	 add	 esp, 12			; 0000000cH
  00278	89 85 48 ff ff
	ff		 mov	 DWORD PTR tv178[ebp], eax
  0027e	ba 04 00 00 00	 mov	 edx, 4
  00283	6b c2 00	 imul	 eax, edx, 0
  00286	8b 4d a8	 mov	 ecx, DWORD PTR _r$15[ebp]
  00289	8b 51 24	 mov	 edx, DWORD PTR [ecx+36]
  0028c	8b 8d 48 ff ff
	ff		 mov	 ecx, DWORD PTR tv178[ebp]
  00292	89 0c 10	 mov	 DWORD PTR [eax+edx], ecx

; 2116 :                         root.CheckNumber(r);

  00295	8b 55 a8	 mov	 edx, DWORD PTR _r$15[ebp]
  00298	52		 push	 edx
  00299	8d 4d b4	 lea	 ecx, DWORD PTR _root$17[ebp]
  0029c	e8 00 00 00 00	 call	 ?CheckNumber@ResourceHolderUINT@Internal@Core@Math@Palmtree@@QAEXPAU__tag_NUMBER_HEADER@2345@@Z ; Palmtree::Math::Core::Internal::ResourceHolderUINT::CheckNumber

; 2117 :                         CommitNumber(r);

  002a1	8b 45 a8	 mov	 eax, DWORD PTR _r$15[ebp]
  002a4	50		 push	 eax
  002a5	e8 00 00 00 00	 call	 ?CommitNumber@Internal@Core@Math@Palmtree@@YAXPAU__tag_NUMBER_HEADER@1234@@Z ; Palmtree::Math::Core::Internal::CommitNumber
  002aa	83 c4 04	 add	 esp, 4

; 2118 :                         if (r->IS_ZERO)

  002ad	8b 4d a8	 mov	 ecx, DWORD PTR _r$15[ebp]
  002b0	8b 51 04	 mov	 edx, DWORD PTR [ecx+4]
  002b3	83 e2 01	 and	 edx, 1
  002b6	74 15		 je	 SHORT $LN19@PMC_DivRem

; 2119 :                         {
; 2120 :                             root.DeallocateNumber(r);

  002b8	8b 45 a8	 mov	 eax, DWORD PTR _r$15[ebp]
  002bb	50		 push	 eax
  002bc	8d 4d b4	 lea	 ecx, DWORD PTR _root$17[ebp]
  002bf	e8 00 00 00 00	 call	 ?DeallocateNumber@ResourceHolderUINT@Internal@Core@Math@Palmtree@@QAEXPAU__tag_NUMBER_HEADER@2345@@Z ; Palmtree::Math::Core::Internal::ResourceHolderUINT::DeallocateNumber

; 2121 :                             r = &number_zero;

  002c4	c7 45 a8 00 00
	00 00		 mov	 DWORD PTR _r$15[ebp], OFFSET ?number_zero@Internal@Core@Math@Palmtree@@3U__tag_NUMBER_HEADER@1234@A ; Palmtree::Math::Core::Internal::number_zero

; 2122 :                         }
; 2123 :                         else

  002cb	eb 0c		 jmp	 SHORT $LN20@PMC_DivRem
$LN19@PMC_DivRem:

; 2124 :                             root.UnlinkNumber(r);

  002cd	8b 4d a8	 mov	 ecx, DWORD PTR _r$15[ebp]
  002d0	51		 push	 ecx
  002d1	8d 4d b4	 lea	 ecx, DWORD PTR _root$17[ebp]
  002d4	e8 00 00 00 00	 call	 ?UnlinkNumber@ResourceHolderUINT@Internal@Core@Math@Palmtree@@QAEXPAU__tag_NUMBER_HEADER@2345@@Z ; Palmtree::Math::Core::Internal::ResourceHolderUINT::UnlinkNumber
$LN20@PMC_DivRem:

; 2125 :                         return (r);

  002d9	8b 55 a8	 mov	 edx, DWORD PTR _r$15[ebp]
  002dc	89 95 54 ff ff
	ff		 mov	 DWORD PTR $T4[ebp], edx
  002e2	c7 45 fc ff ff
	ff ff		 mov	 DWORD PTR __$EHRec$[ebp+8], -1
  002e9	8d 4d b4	 lea	 ecx, DWORD PTR _root$17[ebp]
  002ec	e8 00 00 00 00	 call	 ??1ResourceHolderUINT@Internal@Core@Math@Palmtree@@UAE@XZ ; Palmtree::Math::Core::Internal::ResourceHolderUINT::~ResourceHolderUINT
  002f1	8b 85 54 ff ff
	ff		 mov	 eax, DWORD PTR $T4[ebp]
  002f7	e9 ce 02 00 00	 jmp	 $LN1@PMC_DivRem
$LN14@PMC_DivRem:

; 2126 :                     }
; 2127 :                 }
; 2128 :                 else

  002fc	e9 c9 02 00 00	 jmp	 $LN1@PMC_DivRem
$LN11@PMC_DivRem:

; 2129 :                 {
; 2130 :                     // 除数を表現するのに 2 ワード以上必要な場合
; 2131 :                     if (q != nullptr)

  00301	83 7d 10 00	 cmp	 DWORD PTR _q$[ebp], 0
  00305	0f 84 7b 01 00
	00		 je	 $LN21@PMC_DivRem

; 2132 :                     {
; 2133 :                         ResourceHolderUINT root;

  0030b	8d 4d 94	 lea	 ecx, DWORD PTR _root$14[ebp]
  0030e	e8 00 00 00 00	 call	 ??0ResourceHolderUINT@Internal@Core@Math@Palmtree@@QAE@XZ ; Palmtree::Math::Core::Internal::ResourceHolderUINT::ResourceHolderUINT
  00313	c7 45 fc 02 00
	00 00		 mov	 DWORD PTR __$EHRec$[ebp+8], 2

; 2134 :                         __UNIT_TYPE q_bit_count = u_bit_count - v_bit_count + 1 + __UNIT_TYPE_BIT_COUNT; // 演算結果を格納するためには u_bit_count - v_bit_count + 1 だけあれば十分であるが、除算の作業用バッファも兼ねているので余分にとっている。

  0031a	8b 45 f0	 mov	 eax, DWORD PTR _u_bit_count$23[ebp]
  0031d	2b 45 ec	 sub	 eax, DWORD PTR _v_bit_count$22[ebp]
  00320	83 c0 21	 add	 eax, 33			; 00000021H
  00323	89 45 8c	 mov	 DWORD PTR _q_bit_count$13[ebp], eax

; 2135 :                         __UNIT_TYPE r_bit_count = u_bit_count + __UNIT_TYPE_BIT_COUNT; // 演算結果を格納するためには v_bit_count だけあれば十分であるが、除算の作業用バッファも兼ねているので余分にとっている。

  00326	8b 4d f0	 mov	 ecx, DWORD PTR _u_bit_count$23[ebp]
  00329	83 c1 20	 add	 ecx, 32			; 00000020H
  0032c	89 4d 88	 mov	 DWORD PTR _r_bit_count$12[ebp], ecx

; 2136 :                         *q = root.AllocateNumber(q_bit_count);

  0032f	8b 55 8c	 mov	 edx, DWORD PTR _q_bit_count$13[ebp]
  00332	52		 push	 edx
  00333	8d 4d 94	 lea	 ecx, DWORD PTR _root$14[ebp]
  00336	e8 00 00 00 00	 call	 ?AllocateNumber@ResourceHolderUINT@Internal@Core@Math@Palmtree@@QAEPAU__tag_NUMBER_HEADER@2345@I@Z ; Palmtree::Math::Core::Internal::ResourceHolderUINT::AllocateNumber
  0033b	8b 4d 10	 mov	 ecx, DWORD PTR _q$[ebp]
  0033e	89 01		 mov	 DWORD PTR [ecx], eax

; 2137 :                         NUMBER_HEADER* r = root.AllocateNumber(r_bit_count);

  00340	8b 55 88	 mov	 edx, DWORD PTR _r_bit_count$12[ebp]
  00343	52		 push	 edx
  00344	8d 4d 94	 lea	 ecx, DWORD PTR _root$14[ebp]
  00347	e8 00 00 00 00	 call	 ?AllocateNumber@ResourceHolderUINT@Internal@Core@Math@Palmtree@@QAEPAU__tag_NUMBER_HEADER@2345@I@Z ; Palmtree::Math::Core::Internal::ResourceHolderUINT::AllocateNumber
  0034c	89 45 84	 mov	 DWORD PTR _r$11[ebp], eax

; 2138 :                          __UNIT_TYPE* work_v_buf = root.AllocateBlock(v->UNIT_WORD_COUNT * __UNIT_TYPE_BIT_COUNT);

  0034f	8b 45 0c	 mov	 eax, DWORD PTR _v$[ebp]
  00352	8b 48 10	 mov	 ecx, DWORD PTR [eax+16]
  00355	c1 e1 05	 shl	 ecx, 5
  00358	51		 push	 ecx
  00359	8d 4d 94	 lea	 ecx, DWORD PTR _root$14[ebp]
  0035c	e8 00 00 00 00	 call	 ?AllocateBlock@ResourceHolderUINT@Internal@Core@Math@Palmtree@@QAEPAII@Z ; Palmtree::Math::Core::Internal::ResourceHolderUINT::AllocateBlock
  00361	89 45 80	 mov	 DWORD PTR _work_v_buf$10[ebp], eax

; 2139 :                         (*fp_DivRem_X_X)(u->BLOCK, u->UNIT_WORD_COUNT, v->BLOCK, v->UNIT_WORD_COUNT, work_v_buf, (*q)->BLOCK, r->BLOCK);

  00364	8b 15 00 00 00
	00		 mov	 edx, DWORD PTR ?fp_DivRem_X_X@Internal@Core@Math@Palmtree@@3P6AXPAII0I000@ZA
  0036a	89 95 44 ff ff
	ff		 mov	 DWORD PTR tv222[ebp], edx
  00370	8b f4		 mov	 esi, esp
  00372	8b 45 84	 mov	 eax, DWORD PTR _r$11[ebp]
  00375	8b 48 24	 mov	 ecx, DWORD PTR [eax+36]
  00378	51		 push	 ecx
  00379	8b 55 10	 mov	 edx, DWORD PTR _q$[ebp]
  0037c	8b 02		 mov	 eax, DWORD PTR [edx]
  0037e	8b 48 24	 mov	 ecx, DWORD PTR [eax+36]
  00381	51		 push	 ecx
  00382	8b 55 80	 mov	 edx, DWORD PTR _work_v_buf$10[ebp]
  00385	52		 push	 edx
  00386	8b 45 0c	 mov	 eax, DWORD PTR _v$[ebp]
  00389	8b 48 10	 mov	 ecx, DWORD PTR [eax+16]
  0038c	51		 push	 ecx
  0038d	8b 55 0c	 mov	 edx, DWORD PTR _v$[ebp]
  00390	8b 42 24	 mov	 eax, DWORD PTR [edx+36]
  00393	50		 push	 eax
  00394	8b 4d 08	 mov	 ecx, DWORD PTR _u$[ebp]
  00397	8b 51 10	 mov	 edx, DWORD PTR [ecx+16]
  0039a	52		 push	 edx
  0039b	8b 45 08	 mov	 eax, DWORD PTR _u$[ebp]
  0039e	8b 48 24	 mov	 ecx, DWORD PTR [eax+36]
  003a1	51		 push	 ecx
  003a2	ff 95 44 ff ff
	ff		 call	 DWORD PTR tv222[ebp]
  003a8	83 c4 1c	 add	 esp, 28			; 0000001cH
  003ab	3b f4		 cmp	 esi, esp
  003ad	e8 00 00 00 00	 call	 __RTC_CheckEsp

; 2140 :                         root.CheckBlock(work_v_buf);

  003b2	8b 55 80	 mov	 edx, DWORD PTR _work_v_buf$10[ebp]
  003b5	52		 push	 edx
  003b6	8d 4d 94	 lea	 ecx, DWORD PTR _root$14[ebp]
  003b9	e8 00 00 00 00	 call	 ?CheckBlock@ResourceHolderUINT@Internal@Core@Math@Palmtree@@QAEXPAI@Z ; Palmtree::Math::Core::Internal::ResourceHolderUINT::CheckBlock

; 2141 :                         root.CheckNumber(*q);

  003be	8b 45 10	 mov	 eax, DWORD PTR _q$[ebp]
  003c1	8b 08		 mov	 ecx, DWORD PTR [eax]
  003c3	51		 push	 ecx
  003c4	8d 4d 94	 lea	 ecx, DWORD PTR _root$14[ebp]
  003c7	e8 00 00 00 00	 call	 ?CheckNumber@ResourceHolderUINT@Internal@Core@Math@Palmtree@@QAEXPAU__tag_NUMBER_HEADER@2345@@Z ; Palmtree::Math::Core::Internal::ResourceHolderUINT::CheckNumber

; 2142 :                         root.CheckNumber(r);

  003cc	8b 55 84	 mov	 edx, DWORD PTR _r$11[ebp]
  003cf	52		 push	 edx
  003d0	8d 4d 94	 lea	 ecx, DWORD PTR _root$14[ebp]
  003d3	e8 00 00 00 00	 call	 ?CheckNumber@ResourceHolderUINT@Internal@Core@Math@Palmtree@@QAEXPAU__tag_NUMBER_HEADER@2345@@Z ; Palmtree::Math::Core::Internal::ResourceHolderUINT::CheckNumber

; 2143 :                         root.DeallocateBlock(work_v_buf);

  003d8	8b 45 80	 mov	 eax, DWORD PTR _work_v_buf$10[ebp]
  003db	50		 push	 eax
  003dc	8d 4d 94	 lea	 ecx, DWORD PTR _root$14[ebp]
  003df	e8 00 00 00 00	 call	 ?DeallocateBlock@ResourceHolderUINT@Internal@Core@Math@Palmtree@@QAEXPAI@Z ; Palmtree::Math::Core::Internal::ResourceHolderUINT::DeallocateBlock

; 2144 :                         CommitNumber(*q);

  003e4	8b 4d 10	 mov	 ecx, DWORD PTR _q$[ebp]
  003e7	8b 11		 mov	 edx, DWORD PTR [ecx]
  003e9	52		 push	 edx
  003ea	e8 00 00 00 00	 call	 ?CommitNumber@Internal@Core@Math@Palmtree@@YAXPAU__tag_NUMBER_HEADER@1234@@Z ; Palmtree::Math::Core::Internal::CommitNumber
  003ef	83 c4 04	 add	 esp, 4

; 2145 :                         CommitNumber(r);

  003f2	8b 45 84	 mov	 eax, DWORD PTR _r$11[ebp]
  003f5	50		 push	 eax
  003f6	e8 00 00 00 00	 call	 ?CommitNumber@Internal@Core@Math@Palmtree@@YAXPAU__tag_NUMBER_HEADER@1234@@Z ; Palmtree::Math::Core::Internal::CommitNumber
  003fb	83 c4 04	 add	 esp, 4

; 2146 :                         if ((*q)->IS_ZERO)

  003fe	8b 4d 10	 mov	 ecx, DWORD PTR _q$[ebp]
  00401	8b 11		 mov	 edx, DWORD PTR [ecx]
  00403	8b 42 04	 mov	 eax, DWORD PTR [edx+4]
  00406	83 e0 01	 and	 eax, 1
  00409	74 19		 je	 SHORT $LN23@PMC_DivRem

; 2147 :                         {
; 2148 :                             root.DeallocateNumber(*q);

  0040b	8b 4d 10	 mov	 ecx, DWORD PTR _q$[ebp]
  0040e	8b 11		 mov	 edx, DWORD PTR [ecx]
  00410	52		 push	 edx
  00411	8d 4d 94	 lea	 ecx, DWORD PTR _root$14[ebp]
  00414	e8 00 00 00 00	 call	 ?DeallocateNumber@ResourceHolderUINT@Internal@Core@Math@Palmtree@@QAEXPAU__tag_NUMBER_HEADER@2345@@Z ; Palmtree::Math::Core::Internal::ResourceHolderUINT::DeallocateNumber

; 2149 :                             *q = &number_zero;

  00419	8b 45 10	 mov	 eax, DWORD PTR _q$[ebp]
  0041c	c7 00 00 00 00
	00		 mov	 DWORD PTR [eax], OFFSET ?number_zero@Internal@Core@Math@Palmtree@@3U__tag_NUMBER_HEADER@1234@A ; Palmtree::Math::Core::Internal::number_zero

; 2150 :                         }
; 2151 :                         else

  00422	eb 0e		 jmp	 SHORT $LN24@PMC_DivRem
$LN23@PMC_DivRem:

; 2152 :                             root.UnlinkNumber(*q);

  00424	8b 4d 10	 mov	 ecx, DWORD PTR _q$[ebp]
  00427	8b 11		 mov	 edx, DWORD PTR [ecx]
  00429	52		 push	 edx
  0042a	8d 4d 94	 lea	 ecx, DWORD PTR _root$14[ebp]
  0042d	e8 00 00 00 00	 call	 ?UnlinkNumber@ResourceHolderUINT@Internal@Core@Math@Palmtree@@QAEXPAU__tag_NUMBER_HEADER@2345@@Z ; Palmtree::Math::Core::Internal::ResourceHolderUINT::UnlinkNumber
$LN24@PMC_DivRem:

; 2153 :                         if (r->IS_ZERO)

  00432	8b 45 84	 mov	 eax, DWORD PTR _r$11[ebp]
  00435	8b 48 04	 mov	 ecx, DWORD PTR [eax+4]
  00438	83 e1 01	 and	 ecx, 1
  0043b	74 15		 je	 SHORT $LN25@PMC_DivRem

; 2154 :                         {
; 2155 :                             root.DeallocateNumber(r);

  0043d	8b 55 84	 mov	 edx, DWORD PTR _r$11[ebp]
  00440	52		 push	 edx
  00441	8d 4d 94	 lea	 ecx, DWORD PTR _root$14[ebp]
  00444	e8 00 00 00 00	 call	 ?DeallocateNumber@ResourceHolderUINT@Internal@Core@Math@Palmtree@@QAEXPAU__tag_NUMBER_HEADER@2345@@Z ; Palmtree::Math::Core::Internal::ResourceHolderUINT::DeallocateNumber

; 2156 :                             r = &number_zero;

  00449	c7 45 84 00 00
	00 00		 mov	 DWORD PTR _r$11[ebp], OFFSET ?number_zero@Internal@Core@Math@Palmtree@@3U__tag_NUMBER_HEADER@1234@A ; Palmtree::Math::Core::Internal::number_zero

; 2157 :                         }
; 2158 :                         else

  00450	eb 0c		 jmp	 SHORT $LN26@PMC_DivRem
$LN25@PMC_DivRem:

; 2159 :                             root.UnlinkNumber(r);

  00452	8b 45 84	 mov	 eax, DWORD PTR _r$11[ebp]
  00455	50		 push	 eax
  00456	8d 4d 94	 lea	 ecx, DWORD PTR _root$14[ebp]
  00459	e8 00 00 00 00	 call	 ?UnlinkNumber@ResourceHolderUINT@Internal@Core@Math@Palmtree@@QAEXPAU__tag_NUMBER_HEADER@2345@@Z ; Palmtree::Math::Core::Internal::ResourceHolderUINT::UnlinkNumber
$LN26@PMC_DivRem:

; 2160 :                         return (r);

  0045e	8b 4d 84	 mov	 ecx, DWORD PTR _r$11[ebp]
  00461	89 8d 50 ff ff
	ff		 mov	 DWORD PTR $T3[ebp], ecx
  00467	c7 45 fc ff ff
	ff ff		 mov	 DWORD PTR __$EHRec$[ebp+8], -1
  0046e	8d 4d 94	 lea	 ecx, DWORD PTR _root$14[ebp]
  00471	e8 00 00 00 00	 call	 ??1ResourceHolderUINT@Internal@Core@Math@Palmtree@@UAE@XZ ; Palmtree::Math::Core::Internal::ResourceHolderUINT::~ResourceHolderUINT
  00476	8b 85 50 ff ff
	ff		 mov	 eax, DWORD PTR $T3[ebp]
  0047c	e9 49 01 00 00	 jmp	 $LN1@PMC_DivRem

; 2161 :                     }
; 2162 :                     else

  00481	e9 44 01 00 00	 jmp	 $LN1@PMC_DivRem
$LN21@PMC_DivRem:

; 2163 :                     {
; 2164 :                         ResourceHolderUINT root;

  00486	8d 8d 6c ff ff
	ff		 lea	 ecx, DWORD PTR _root$9[ebp]
  0048c	e8 00 00 00 00	 call	 ??0ResourceHolderUINT@Internal@Core@Math@Palmtree@@QAE@XZ ; Palmtree::Math::Core::Internal::ResourceHolderUINT::ResourceHolderUINT
  00491	c7 45 fc 03 00
	00 00		 mov	 DWORD PTR __$EHRec$[ebp+8], 3

; 2165 :                         __UNIT_TYPE r_bit_count = u_bit_count + __UNIT_TYPE_BIT_COUNT; // 演算結果を格納するためには v_bit_count だけあれば十分であるが、除算の作業用バッファも兼ねているので余分にとっている。

  00498	8b 55 f0	 mov	 edx, DWORD PTR _u_bit_count$23[ebp]
  0049b	83 c2 20	 add	 edx, 32			; 00000020H
  0049e	89 95 64 ff ff
	ff		 mov	 DWORD PTR _r_bit_count$8[ebp], edx

; 2166 :                         NUMBER_HEADER* r = root.AllocateNumber(r_bit_count);

  004a4	8b 85 64 ff ff
	ff		 mov	 eax, DWORD PTR _r_bit_count$8[ebp]
  004aa	50		 push	 eax
  004ab	8d 8d 6c ff ff
	ff		 lea	 ecx, DWORD PTR _root$9[ebp]
  004b1	e8 00 00 00 00	 call	 ?AllocateNumber@ResourceHolderUINT@Internal@Core@Math@Palmtree@@QAEPAU__tag_NUMBER_HEADER@2345@I@Z ; Palmtree::Math::Core::Internal::ResourceHolderUINT::AllocateNumber
  004b6	89 85 60 ff ff
	ff		 mov	 DWORD PTR _r$7[ebp], eax

; 2167 :                         __UNIT_TYPE* work_v_buf = root.AllocateBlock(v->UNIT_WORD_COUNT * __UNIT_TYPE_BIT_COUNT);

  004bc	8b 4d 0c	 mov	 ecx, DWORD PTR _v$[ebp]
  004bf	8b 51 10	 mov	 edx, DWORD PTR [ecx+16]
  004c2	c1 e2 05	 shl	 edx, 5
  004c5	52		 push	 edx
  004c6	8d 8d 6c ff ff
	ff		 lea	 ecx, DWORD PTR _root$9[ebp]
  004cc	e8 00 00 00 00	 call	 ?AllocateBlock@ResourceHolderUINT@Internal@Core@Math@Palmtree@@QAEPAII@Z ; Palmtree::Math::Core::Internal::ResourceHolderUINT::AllocateBlock
  004d1	89 85 5c ff ff
	ff		 mov	 DWORD PTR _work_v_buf$6[ebp], eax

; 2168 :                         (*fp_DivRem_X_X)(u->BLOCK, u->UNIT_WORD_COUNT, v->BLOCK, v->UNIT_WORD_COUNT, work_v_buf, nullptr, r->BLOCK);

  004d7	a1 00 00 00 00	 mov	 eax, DWORD PTR ?fp_DivRem_X_X@Internal@Core@Math@Palmtree@@3P6AXPAII0I000@ZA
  004dc	89 85 40 ff ff
	ff		 mov	 DWORD PTR tv272[ebp], eax
  004e2	8b f4		 mov	 esi, esp
  004e4	8b 8d 60 ff ff
	ff		 mov	 ecx, DWORD PTR _r$7[ebp]
  004ea	8b 51 24	 mov	 edx, DWORD PTR [ecx+36]
  004ed	52		 push	 edx
  004ee	6a 00		 push	 0
  004f0	8b 85 5c ff ff
	ff		 mov	 eax, DWORD PTR _work_v_buf$6[ebp]
  004f6	50		 push	 eax
  004f7	8b 4d 0c	 mov	 ecx, DWORD PTR _v$[ebp]
  004fa	8b 51 10	 mov	 edx, DWORD PTR [ecx+16]
  004fd	52		 push	 edx
  004fe	8b 45 0c	 mov	 eax, DWORD PTR _v$[ebp]
  00501	8b 48 24	 mov	 ecx, DWORD PTR [eax+36]
  00504	51		 push	 ecx
  00505	8b 55 08	 mov	 edx, DWORD PTR _u$[ebp]
  00508	8b 42 10	 mov	 eax, DWORD PTR [edx+16]
  0050b	50		 push	 eax
  0050c	8b 4d 08	 mov	 ecx, DWORD PTR _u$[ebp]
  0050f	8b 51 24	 mov	 edx, DWORD PTR [ecx+36]
  00512	52		 push	 edx
  00513	ff 95 40 ff ff
	ff		 call	 DWORD PTR tv272[ebp]
  00519	83 c4 1c	 add	 esp, 28			; 0000001cH
  0051c	3b f4		 cmp	 esi, esp
  0051e	e8 00 00 00 00	 call	 __RTC_CheckEsp

; 2169 :                         root.CheckBlock(work_v_buf);

  00523	8b 85 5c ff ff
	ff		 mov	 eax, DWORD PTR _work_v_buf$6[ebp]
  00529	50		 push	 eax
  0052a	8d 8d 6c ff ff
	ff		 lea	 ecx, DWORD PTR _root$9[ebp]
  00530	e8 00 00 00 00	 call	 ?CheckBlock@ResourceHolderUINT@Internal@Core@Math@Palmtree@@QAEXPAI@Z ; Palmtree::Math::Core::Internal::ResourceHolderUINT::CheckBlock

; 2170 :                         root.CheckNumber(r);

  00535	8b 8d 60 ff ff
	ff		 mov	 ecx, DWORD PTR _r$7[ebp]
  0053b	51		 push	 ecx
  0053c	8d 8d 6c ff ff
	ff		 lea	 ecx, DWORD PTR _root$9[ebp]
  00542	e8 00 00 00 00	 call	 ?CheckNumber@ResourceHolderUINT@Internal@Core@Math@Palmtree@@QAEXPAU__tag_NUMBER_HEADER@2345@@Z ; Palmtree::Math::Core::Internal::ResourceHolderUINT::CheckNumber

; 2171 :                         root.DeallocateBlock(work_v_buf);

  00547	8b 95 5c ff ff
	ff		 mov	 edx, DWORD PTR _work_v_buf$6[ebp]
  0054d	52		 push	 edx
  0054e	8d 8d 6c ff ff
	ff		 lea	 ecx, DWORD PTR _root$9[ebp]
  00554	e8 00 00 00 00	 call	 ?DeallocateBlock@ResourceHolderUINT@Internal@Core@Math@Palmtree@@QAEXPAI@Z ; Palmtree::Math::Core::Internal::ResourceHolderUINT::DeallocateBlock

; 2172 :                         CommitNumber(r);

  00559	8b 85 60 ff ff
	ff		 mov	 eax, DWORD PTR _r$7[ebp]
  0055f	50		 push	 eax
  00560	e8 00 00 00 00	 call	 ?CommitNumber@Internal@Core@Math@Palmtree@@YAXPAU__tag_NUMBER_HEADER@1234@@Z ; Palmtree::Math::Core::Internal::CommitNumber
  00565	83 c4 04	 add	 esp, 4

; 2173 :                         if (r->IS_ZERO)

  00568	8b 8d 60 ff ff
	ff		 mov	 ecx, DWORD PTR _r$7[ebp]
  0056e	8b 51 04	 mov	 edx, DWORD PTR [ecx+4]
  00571	83 e2 01	 and	 edx, 1
  00574	74 1e		 je	 SHORT $LN27@PMC_DivRem

; 2174 :                         {
; 2175 :                             root.DeallocateNumber(r);

  00576	8b 85 60 ff ff
	ff		 mov	 eax, DWORD PTR _r$7[ebp]
  0057c	50		 push	 eax
  0057d	8d 8d 6c ff ff
	ff		 lea	 ecx, DWORD PTR _root$9[ebp]
  00583	e8 00 00 00 00	 call	 ?DeallocateNumber@ResourceHolderUINT@Internal@Core@Math@Palmtree@@QAEXPAU__tag_NUMBER_HEADER@2345@@Z ; Palmtree::Math::Core::Internal::ResourceHolderUINT::DeallocateNumber

; 2176 :                             r = &number_zero;

  00588	c7 85 60 ff ff
	ff 00 00 00 00	 mov	 DWORD PTR _r$7[ebp], OFFSET ?number_zero@Internal@Core@Math@Palmtree@@3U__tag_NUMBER_HEADER@1234@A ; Palmtree::Math::Core::Internal::number_zero

; 2177 :                         }
; 2178 :                         else

  00592	eb 12		 jmp	 SHORT $LN28@PMC_DivRem
$LN27@PMC_DivRem:

; 2179 :                             root.UnlinkNumber(r);

  00594	8b 8d 60 ff ff
	ff		 mov	 ecx, DWORD PTR _r$7[ebp]
  0059a	51		 push	 ecx
  0059b	8d 8d 6c ff ff
	ff		 lea	 ecx, DWORD PTR _root$9[ebp]
  005a1	e8 00 00 00 00	 call	 ?UnlinkNumber@ResourceHolderUINT@Internal@Core@Math@Palmtree@@QAEXPAU__tag_NUMBER_HEADER@2345@@Z ; Palmtree::Math::Core::Internal::ResourceHolderUINT::UnlinkNumber
$LN28@PMC_DivRem:

; 2180 :                         return (r);

  005a6	8b 95 60 ff ff
	ff		 mov	 edx, DWORD PTR _r$7[ebp]
  005ac	89 95 4c ff ff
	ff		 mov	 DWORD PTR $T2[ebp], edx
  005b2	c7 45 fc ff ff
	ff ff		 mov	 DWORD PTR __$EHRec$[ebp+8], -1
  005b9	8d 8d 6c ff ff
	ff		 lea	 ecx, DWORD PTR _root$9[ebp]
  005bf	e8 00 00 00 00	 call	 ??1ResourceHolderUINT@Internal@Core@Math@Palmtree@@UAE@XZ ; Palmtree::Math::Core::Internal::ResourceHolderUINT::~ResourceHolderUINT
  005c4	8b 85 4c ff ff
	ff		 mov	 eax, DWORD PTR $T2[ebp]
$LN1@PMC_DivRem:

; 2181 :                     }
; 2182 :                 }
; 2183 :             }
; 2184 :         }
; 2185 :     }

  005ca	52		 push	 edx
  005cb	8b cd		 mov	 ecx, ebp
  005cd	50		 push	 eax
  005ce	8d 15 00 00 00
	00		 lea	 edx, DWORD PTR $LN40@PMC_DivRem
  005d4	e8 00 00 00 00	 call	 @_RTC_CheckStackVars@8
  005d9	58		 pop	 eax
  005da	5a		 pop	 edx
  005db	8b 4d f4	 mov	 ecx, DWORD PTR __$EHRec$[ebp]
  005de	64 89 0d 00 00
	00 00		 mov	 DWORD PTR fs:0, ecx
  005e5	59		 pop	 ecx
  005e6	5f		 pop	 edi
  005e7	5e		 pop	 esi
  005e8	81 c4 c0 00 00
	00		 add	 esp, 192		; 000000c0H
  005ee	3b ec		 cmp	 ebp, esp
  005f0	e8 00 00 00 00	 call	 __RTC_CheckEsp
  005f5	8b e5		 mov	 esp, ebp
  005f7	5d		 pop	 ebp
  005f8	c3		 ret	 0
  005f9	0f 1f 00	 npad	 3
$LN40@PMC_DivRem:
  005fc	04 00 00 00	 DD	 4
  00600	00 00 00 00	 DD	 $LN39@PMC_DivRem
$LN39@PMC_DivRem:
  00604	d8 ff ff ff	 DD	 -40			; ffffffd8H
  00608	10 00 00 00	 DD	 16			; 00000010H
  0060c	00 00 00 00	 DD	 $LN34@PMC_DivRem
  00610	b4 ff ff ff	 DD	 -76			; ffffffb4H
  00614	10 00 00 00	 DD	 16			; 00000010H
  00618	00 00 00 00	 DD	 $LN35@PMC_DivRem
  0061c	94 ff ff ff	 DD	 -108			; ffffff94H
  00620	10 00 00 00	 DD	 16			; 00000010H
  00624	00 00 00 00	 DD	 $LN36@PMC_DivRem
  00628	6c ff ff ff	 DD	 -148			; ffffff6cH
  0062c	10 00 00 00	 DD	 16			; 00000010H
  00630	00 00 00 00	 DD	 $LN37@PMC_DivRem
$LN37@PMC_DivRem:
  00634	72		 DB	 114			; 00000072H
  00635	6f		 DB	 111			; 0000006fH
  00636	6f		 DB	 111			; 0000006fH
  00637	74		 DB	 116			; 00000074H
  00638	00		 DB	 0
$LN36@PMC_DivRem:
  00639	72		 DB	 114			; 00000072H
  0063a	6f		 DB	 111			; 0000006fH
  0063b	6f		 DB	 111			; 0000006fH
  0063c	74		 DB	 116			; 00000074H
  0063d	00		 DB	 0
$LN35@PMC_DivRem:
  0063e	72		 DB	 114			; 00000072H
  0063f	6f		 DB	 111			; 0000006fH
  00640	6f		 DB	 111			; 0000006fH
  00641	74		 DB	 116			; 00000074H
  00642	00		 DB	 0
$LN34@PMC_DivRem:
  00643	72		 DB	 114			; 00000072H
  00644	6f		 DB	 111			; 0000006fH
  00645	6f		 DB	 111			; 0000006fH
  00646	74		 DB	 116			; 00000074H
  00647	00		 DB	 0
_TEXT	ENDS
text$x	SEGMENT
__unwindfunclet$?PMC_DivRem_X_X_Imp@Internal@Core@Math@Palmtree@@YAPAU__tag_NUMBER_HEADER@1234@PAU51234@0PAPAU51234@@Z$0:
  00000	8d 4d d8	 lea	 ecx, DWORD PTR _root$21[ebp]
  00003	e9 00 00 00 00	 jmp	 ??1ResourceHolderUINT@Internal@Core@Math@Palmtree@@UAE@XZ ; Palmtree::Math::Core::Internal::ResourceHolderUINT::~ResourceHolderUINT
__unwindfunclet$?PMC_DivRem_X_X_Imp@Internal@Core@Math@Palmtree@@YAPAU__tag_NUMBER_HEADER@1234@PAU51234@0PAPAU51234@@Z$1:
  00008	8d 4d b4	 lea	 ecx, DWORD PTR _root$17[ebp]
  0000b	e9 00 00 00 00	 jmp	 ??1ResourceHolderUINT@Internal@Core@Math@Palmtree@@UAE@XZ ; Palmtree::Math::Core::Internal::ResourceHolderUINT::~ResourceHolderUINT
__unwindfunclet$?PMC_DivRem_X_X_Imp@Internal@Core@Math@Palmtree@@YAPAU__tag_NUMBER_HEADER@1234@PAU51234@0PAPAU51234@@Z$2:
  00010	8d 4d 94	 lea	 ecx, DWORD PTR _root$14[ebp]
  00013	e9 00 00 00 00	 jmp	 ??1ResourceHolderUINT@Internal@Core@Math@Palmtree@@UAE@XZ ; Palmtree::Math::Core::Internal::ResourceHolderUINT::~ResourceHolderUINT
__unwindfunclet$?PMC_DivRem_X_X_Imp@Internal@Core@Math@Palmtree@@YAPAU__tag_NUMBER_HEADER@1234@PAU51234@0PAPAU51234@@Z$3:
  00018	8d 8d 6c ff ff
	ff		 lea	 ecx, DWORD PTR _root$9[ebp]
  0001e	e9 00 00 00 00	 jmp	 ??1ResourceHolderUINT@Internal@Core@Math@Palmtree@@UAE@XZ ; Palmtree::Math::Core::Internal::ResourceHolderUINT::~ResourceHolderUINT
__ehhandler$?PMC_DivRem_X_X_Imp@Internal@Core@Math@Palmtree@@YAPAU__tag_NUMBER_HEADER@1234@PAU51234@0PAPAU51234@@Z:
  00023	8b 54 24 08	 mov	 edx, DWORD PTR [esp+8]
  00027	8d 42 0c	 lea	 eax, DWORD PTR [edx+12]
  0002a	8b 8a 40 ff ff
	ff		 mov	 ecx, DWORD PTR [edx-192]
  00030	33 c8		 xor	 ecx, eax
  00032	e8 00 00 00 00	 call	 @__security_check_cookie@4
  00037	b8 00 00 00 00	 mov	 eax, OFFSET __ehfuncinfo$?PMC_DivRem_X_X_Imp@Internal@Core@Math@Palmtree@@YAPAU__tag_NUMBER_HEADER@1234@PAU51234@0PAPAU51234@@Z
  0003c	e9 00 00 00 00	 jmp	 ___CxxFrameHandler3
text$x	ENDS
?PMC_DivRem_X_X_Imp@Internal@Core@Math@Palmtree@@YAPAU__tag_NUMBER_HEADER@1234@PAU51234@0PAPAU51234@@Z ENDP ; Palmtree::Math::Core::Internal::PMC_DivRem_X_X_Imp
; Function compile flags: /Odtp /RTCsu
; File z:\sources\lunor\repos\rougemeilland\palmtree.math.core.uint\palmtree.math.core.uint\pmc_divrem.cpp
_TEXT	SEGMENT
tv244 = -352						; size = 4
tv207 = -348						; size = 4
tv178 = -344						; size = 4
$T2 = -340						; size = 8
$T3 = -332						; size = 8
$T4 = -324						; size = 8
$T5 = -316						; size = 8
$T6 = -308						; size = 24
_r_buf$7 = -284						; size = 4
_r_buf$8 = -276						; size = 4
_q_bit_count$9 = -268					; size = 4
_root$10 = -260						; size = 16
_v_bit_count$11 = -240					; size = 4
_u_bit_count$12 = -236					; size = 4
_r$13 = -232						; size = 8
_r_buf$14 = -224					; size = 4
_work_v_buf$15 = -216					; size = 8
_v_buf$16 = -200					; size = 8
_r_bit_count$17 = -188					; size = 4
_root$18 = -180						; size = 16
_r_buf$19 = -160					; size = 4
_work_v_buf$20 = -152					; size = 8
_v_buf$21 = -136					; size = 8
_r_bit_count$22 = -124					; size = 4
_q_bit_count$23 = -120					; size = 4
_root$24 = -112						; size = 16
_r_hi$25 = -92						; size = 4
_r_lo$26 = -88						; size = 4
_v_bit_count$27 = -84					; size = 4
_r_buf$28 = -80						; size = 4
_r_buf$29 = -72						; size = 4
_q_bit_count$30 = -64					; size = 4
_root$31 = -56						; size = 16
_v_bit_count$32 = -36					; size = 4
_v_lo$33 = -32						; size = 4
_v_hi$34 = -24						; size = 4
_u_bit_count$35 = -16					; size = 4
__$EHRec$ = -12						; size = 12
_u$ = 8							; size = 4
_v$ = 12						; size = 8
_q$ = 20						; size = 4
?PMC_DivRem_X_L_Imp@Internal@Core@Math@Palmtree@@YA_KPAU__tag_NUMBER_HEADER@1234@_KPAPAU51234@@Z PROC ; Palmtree::Math::Core::Internal::PMC_DivRem_X_L_Imp

; 1818 :     {

  00000	55		 push	 ebp
  00001	8b ec		 mov	 ebp, esp
  00003	6a ff		 push	 -1
  00005	68 00 00 00 00	 push	 __ehhandler$?PMC_DivRem_X_L_Imp@Internal@Core@Math@Palmtree@@YA_KPAU__tag_NUMBER_HEADER@1234@_KPAPAU51234@@Z
  0000a	64 a1 00 00 00
	00		 mov	 eax, DWORD PTR fs:0
  00010	50		 push	 eax
  00011	81 ec 54 01 00
	00		 sub	 esp, 340		; 00000154H
  00017	56		 push	 esi
  00018	57		 push	 edi
  00019	8d bd a0 fe ff
	ff		 lea	 edi, DWORD PTR [ebp-352]
  0001f	b9 55 00 00 00	 mov	 ecx, 85			; 00000055H
  00024	b8 cc cc cc cc	 mov	 eax, -858993460		; ccccccccH
  00029	f3 ab		 rep stosd
  0002b	a1 00 00 00 00	 mov	 eax, DWORD PTR ___security_cookie
  00030	33 c5		 xor	 eax, ebp
  00032	50		 push	 eax
  00033	8d 45 f4	 lea	 eax, DWORD PTR __$EHRec$[ebp]
  00036	64 a3 00 00 00
	00		 mov	 DWORD PTR fs:0, eax
  0003c	b9 00 00 00 00	 mov	 ecx, OFFSET __E17217E9_pmc_divrem@cpp
  00041	e8 00 00 00 00	 call	 @__CheckForDebuggerJustMyCode@4

; 1819 :         if (v == 0)

  00046	8b 45 0c	 mov	 eax, DWORD PTR _v$[ebp]
  00049	0b 45 10	 or	 eax, DWORD PTR _v$[ebp+4]
  0004c	75 21		 jne	 SHORT $LN2@PMC_DivRem

; 1820 :         {
; 1821 :             // v が 0 である場合
; 1822 : 
; 1823 :             // 0 による除算はエラーで返す
; 1824 :             throw DivisionByZeroException(L"0による除算が行われようとしました。");

  0004e	68 00 00 00 00	 push	 OFFSET $SG118648
  00053	8d 8d cc fe ff
	ff		 lea	 ecx, DWORD PTR $T6[ebp]
  00059	e8 00 00 00 00	 call	 ??0DivisionByZeroException@Internal@Core@Math@Palmtree@@QAE@PB_W@Z ; Palmtree::Math::Core::Internal::DivisionByZeroException::DivisionByZeroException
  0005e	68 00 00 00 00	 push	 OFFSET __TI2?AVDivisionByZeroException@Internal@Core@Math@Palmtree@@
  00063	8d 8d cc fe ff
	ff		 lea	 ecx, DWORD PTR $T6[ebp]
  00069	51		 push	 ecx
  0006a	e8 00 00 00 00	 call	 __CxxThrowException@8
$LN2@PMC_DivRem:

; 1825 :         }
; 1826 :         if (u->IS_ZERO)

  0006f	8b 55 08	 mov	 edx, DWORD PTR _u$[ebp]
  00072	8b 42 04	 mov	 eax, DWORD PTR [edx+4]
  00075	83 e0 01	 and	 eax, 1
  00078	74 1d		 je	 SHORT $LN3@PMC_DivRem

; 1827 :         {
; 1828 :             // x が 0 である場合
; 1829 : 
; 1830 :             // q = 0, r = 0 を返す
; 1831 :             if (q != nullptr)

  0007a	83 7d 14 00	 cmp	 DWORD PTR _q$[ebp], 0
  0007e	74 09		 je	 SHORT $LN5@PMC_DivRem

; 1832 :                 *q = &number_zero;

  00080	8b 4d 14	 mov	 ecx, DWORD PTR _q$[ebp]
  00083	c7 01 00 00 00
	00		 mov	 DWORD PTR [ecx], OFFSET ?number_zero@Internal@Core@Math@Palmtree@@3U__tag_NUMBER_HEADER@1234@A ; Palmtree::Math::Core::Internal::number_zero
$LN5@PMC_DivRem:

; 1833 :             return (0);

  00089	33 c0		 xor	 eax, eax
  0008b	33 d2		 xor	 edx, edx
  0008d	e9 d0 06 00 00	 jmp	 $LN36@PMC_DivRem

; 1834 :         }
; 1835 :         else

  00092	e9 cb 06 00 00	 jmp	 $LN36@PMC_DivRem
$LN3@PMC_DivRem:

; 1836 :         {
; 1837 :             // u が 0 ではない場合
; 1838 : 
; 1839 :             if (v == 1)

  00097	83 7d 0c 01	 cmp	 DWORD PTR _v$[ebp], 1
  0009b	75 2b		 jne	 SHORT $LN6@PMC_DivRem
  0009d	83 7d 10 00	 cmp	 DWORD PTR _v$[ebp+4], 0
  000a1	75 25		 jne	 SHORT $LN6@PMC_DivRem

; 1840 :             {
; 1841 :                 // v が 1 である場合
; 1842 : 
; 1843 :                 // q = u, r = 0 を返す
; 1844 :                 if (q != nullptr)

  000a3	83 7d 14 00	 cmp	 DWORD PTR _q$[ebp], 0
  000a7	74 11		 je	 SHORT $LN8@PMC_DivRem

; 1845 :                     *q = DuplicateNumber(u);

  000a9	8b 55 08	 mov	 edx, DWORD PTR _u$[ebp]
  000ac	52		 push	 edx
  000ad	e8 00 00 00 00	 call	 ?DuplicateNumber@Internal@Core@Math@Palmtree@@YAPAU__tag_NUMBER_HEADER@1234@PAU51234@@Z ; Palmtree::Math::Core::Internal::DuplicateNumber
  000b2	83 c4 04	 add	 esp, 4
  000b5	8b 4d 14	 mov	 ecx, DWORD PTR _q$[ebp]
  000b8	89 01		 mov	 DWORD PTR [ecx], eax
$LN8@PMC_DivRem:

; 1846 :                 return (0);

  000ba	33 c0		 xor	 eax, eax
  000bc	33 d2		 xor	 edx, edx
  000be	e9 9f 06 00 00	 jmp	 $LN36@PMC_DivRem

; 1847 :             }
; 1848 :             else

  000c3	e9 9a 06 00 00	 jmp	 $LN36@PMC_DivRem
$LN6@PMC_DivRem:

; 1849 :             {
; 1850 :                 // u > 0 かつ v > 1 である場合
; 1851 : 
; 1852 :                 // u と v の商・剰余を計算する
; 1853 :                 __UNIT_TYPE u_bit_count = u->UNIT_BIT_COUNT;

  000c8	8b 55 08	 mov	 edx, DWORD PTR _u$[ebp]
  000cb	8b 42 14	 mov	 eax, DWORD PTR [edx+20]
  000ce	89 45 f0	 mov	 DWORD PTR _u_bit_count$35[ebp], eax

; 1854 :                 if (sizeof(__UNIT_TYPE) < sizeof(v))

  000d1	b9 01 00 00 00	 mov	 ecx, 1
  000d6	85 c9		 test	 ecx, ecx
  000d8	0f 84 f0 04 00
	00		 je	 $LN9@PMC_DivRem

; 1855 :                 {
; 1856 :                     // _UINT64_T が 1 ワードで表現しきれない場合
; 1857 :                     _UINT32_T v_hi;
; 1858 :                     _UINT32_T v_lo = _FROMDWORDTOWORD(v, &v_hi);

  000de	8d 55 e8	 lea	 edx, DWORD PTR _v_hi$34[ebp]
  000e1	52		 push	 edx
  000e2	8b 45 10	 mov	 eax, DWORD PTR _v$[ebp+4]
  000e5	50		 push	 eax
  000e6	8b 4d 0c	 mov	 ecx, DWORD PTR _v$[ebp]
  000e9	51		 push	 ecx
  000ea	e8 00 00 00 00	 call	 __FROMDWORDTOWORD
  000ef	83 c4 0c	 add	 esp, 12			; 0000000cH
  000f2	89 45 e0	 mov	 DWORD PTR _v_lo$33[ebp], eax

; 1859 :                     if (v_hi == 0)

  000f5	83 7d e8 00	 cmp	 DWORD PTR _v_hi$34[ebp], 0
  000f9	0f 85 5f 01 00
	00		 jne	 $LN11@PMC_DivRem

; 1860 :                     {
; 1861 :                         // v の値が 32bit で表現可能な場合
; 1862 :                         __UNIT_TYPE v_bit_count = sizeof(v_lo) * 8 - _LZCNT_ALT_32(v_lo);

  000ff	8b 55 e0	 mov	 edx, DWORD PTR _v_lo$33[ebp]
  00102	52		 push	 edx
  00103	e8 00 00 00 00	 call	 __LZCNT_ALT_32
  00108	83 c4 04	 add	 esp, 4
  0010b	b9 20 00 00 00	 mov	 ecx, 32			; 00000020H
  00110	2b c8		 sub	 ecx, eax
  00112	89 4d dc	 mov	 DWORD PTR _v_bit_count$32[ebp], ecx

; 1863 :                         if (u_bit_count < v_bit_count)

  00115	8b 55 f0	 mov	 edx, DWORD PTR _u_bit_count$35[ebp]
  00118	3b 55 dc	 cmp	 edx, DWORD PTR _v_bit_count$32[ebp]
  0011b	73 2e		 jae	 SHORT $LN13@PMC_DivRem

; 1864 :                         {
; 1865 :                             // 明らかに u < v である場合
; 1866 : 
; 1867 :                             // q = 0, r = u を返す。
; 1868 :                             if (q != nullptr)

  0011d	83 7d 14 00	 cmp	 DWORD PTR _q$[ebp], 0
  00121	74 09		 je	 SHORT $LN15@PMC_DivRem

; 1869 :                                 *q = &number_zero;

  00123	8b 45 14	 mov	 eax, DWORD PTR _q$[ebp]
  00126	c7 00 00 00 00
	00		 mov	 DWORD PTR [eax], OFFSET ?number_zero@Internal@Core@Math@Palmtree@@3U__tag_NUMBER_HEADER@1234@A ; Palmtree::Math::Core::Internal::number_zero
$LN15@PMC_DivRem:

; 1870 :                             return (u->BLOCK[0]);

  0012c	b9 04 00 00 00	 mov	 ecx, 4
  00131	6b d1 00	 imul	 edx, ecx, 0
  00134	8b 45 08	 mov	 eax, DWORD PTR _u$[ebp]
  00137	8b 48 24	 mov	 ecx, DWORD PTR [eax+36]
  0013a	33 f6		 xor	 esi, esi
  0013c	8b 04 11	 mov	 eax, DWORD PTR [ecx+edx]
  0013f	8b d6		 mov	 edx, esi
  00141	e9 1c 06 00 00	 jmp	 $LN36@PMC_DivRem

; 1871 :                         }
; 1872 :                         else

  00146	e9 0e 01 00 00	 jmp	 $LN14@PMC_DivRem
$LN13@PMC_DivRem:

; 1873 :                         {
; 1874 :                             if (q != nullptr)

  0014b	83 7d 14 00	 cmp	 DWORD PTR _q$[ebp], 0
  0014f	0f 84 dd 00 00
	00		 je	 $LN16@PMC_DivRem

; 1875 :                             {
; 1876 :                                 ResourceHolderUINT root;

  00155	8d 4d c8	 lea	 ecx, DWORD PTR _root$31[ebp]
  00158	e8 00 00 00 00	 call	 ??0ResourceHolderUINT@Internal@Core@Math@Palmtree@@QAE@XZ ; Palmtree::Math::Core::Internal::ResourceHolderUINT::ResourceHolderUINT
  0015d	c7 45 fc 00 00
	00 00		 mov	 DWORD PTR __$EHRec$[ebp+8], 0

; 1877 :                                 __UNIT_TYPE q_bit_count = u_bit_count - v_bit_count + 1 + __UNIT_TYPE_BIT_COUNT; // 演算結果を格納するためには u_bit_count - v_bit_count + 1 だけあれば十分であるが、除算の作業用バッファも兼ねているので余分にとっている。

  00164	8b 55 f0	 mov	 edx, DWORD PTR _u_bit_count$35[ebp]
  00167	2b 55 dc	 sub	 edx, DWORD PTR _v_bit_count$32[ebp]
  0016a	83 c2 21	 add	 edx, 33			; 00000021H
  0016d	89 55 c0	 mov	 DWORD PTR _q_bit_count$30[ebp], edx

; 1878 :                                 *q = root.AllocateNumber(q_bit_count);

  00170	8b 45 c0	 mov	 eax, DWORD PTR _q_bit_count$30[ebp]
  00173	50		 push	 eax
  00174	8d 4d c8	 lea	 ecx, DWORD PTR _root$31[ebp]
  00177	e8 00 00 00 00	 call	 ?AllocateNumber@ResourceHolderUINT@Internal@Core@Math@Palmtree@@QAEPAU__tag_NUMBER_HEADER@2345@I@Z ; Palmtree::Math::Core::Internal::ResourceHolderUINT::AllocateNumber
  0017c	8b 4d 14	 mov	 ecx, DWORD PTR _q$[ebp]
  0017f	89 01		 mov	 DWORD PTR [ecx], eax

; 1879 :                                 __UNIT_TYPE r_buf = 0;

  00181	c7 45 b8 00 00
	00 00		 mov	 DWORD PTR _r_buf$29[ebp], 0

; 1880 :                                 DivRem_X_1W(u->BLOCK, u->UNIT_WORD_COUNT, v_lo, (*q)->BLOCK, &r_buf);

  00188	8d 55 b8	 lea	 edx, DWORD PTR _r_buf$29[ebp]
  0018b	52		 push	 edx
  0018c	8b 45 14	 mov	 eax, DWORD PTR _q$[ebp]
  0018f	8b 08		 mov	 ecx, DWORD PTR [eax]
  00191	8b 51 24	 mov	 edx, DWORD PTR [ecx+36]
  00194	52		 push	 edx
  00195	8b 45 e0	 mov	 eax, DWORD PTR _v_lo$33[ebp]
  00198	50		 push	 eax
  00199	8b 4d 08	 mov	 ecx, DWORD PTR _u$[ebp]
  0019c	8b 51 10	 mov	 edx, DWORD PTR [ecx+16]
  0019f	52		 push	 edx
  001a0	8b 45 08	 mov	 eax, DWORD PTR _u$[ebp]
  001a3	8b 48 24	 mov	 ecx, DWORD PTR [eax+36]
  001a6	51		 push	 ecx
  001a7	e8 00 00 00 00	 call	 ?DivRem_X_1W@Internal@Core@Math@Palmtree@@YAXPAIII00@Z ; Palmtree::Math::Core::Internal::DivRem_X_1W
  001ac	83 c4 14	 add	 esp, 20			; 00000014H

; 1881 :                                 root.CheckNumber(*q);

  001af	8b 55 14	 mov	 edx, DWORD PTR _q$[ebp]
  001b2	8b 02		 mov	 eax, DWORD PTR [edx]
  001b4	50		 push	 eax
  001b5	8d 4d c8	 lea	 ecx, DWORD PTR _root$31[ebp]
  001b8	e8 00 00 00 00	 call	 ?CheckNumber@ResourceHolderUINT@Internal@Core@Math@Palmtree@@QAEXPAU__tag_NUMBER_HEADER@2345@@Z ; Palmtree::Math::Core::Internal::ResourceHolderUINT::CheckNumber

; 1882 :                                 CommitNumber(*q);

  001bd	8b 4d 14	 mov	 ecx, DWORD PTR _q$[ebp]
  001c0	8b 11		 mov	 edx, DWORD PTR [ecx]
  001c2	52		 push	 edx
  001c3	e8 00 00 00 00	 call	 ?CommitNumber@Internal@Core@Math@Palmtree@@YAXPAU__tag_NUMBER_HEADER@1234@@Z ; Palmtree::Math::Core::Internal::CommitNumber
  001c8	83 c4 04	 add	 esp, 4

; 1883 :                                 if ((*q)->IS_ZERO)

  001cb	8b 45 14	 mov	 eax, DWORD PTR _q$[ebp]
  001ce	8b 08		 mov	 ecx, DWORD PTR [eax]
  001d0	8b 51 04	 mov	 edx, DWORD PTR [ecx+4]
  001d3	83 e2 01	 and	 edx, 1
  001d6	74 19		 je	 SHORT $LN18@PMC_DivRem

; 1884 :                                 {
; 1885 :                                     root.DeallocateNumber(*q);

  001d8	8b 45 14	 mov	 eax, DWORD PTR _q$[ebp]
  001db	8b 08		 mov	 ecx, DWORD PTR [eax]
  001dd	51		 push	 ecx
  001de	8d 4d c8	 lea	 ecx, DWORD PTR _root$31[ebp]
  001e1	e8 00 00 00 00	 call	 ?DeallocateNumber@ResourceHolderUINT@Internal@Core@Math@Palmtree@@QAEXPAU__tag_NUMBER_HEADER@2345@@Z ; Palmtree::Math::Core::Internal::ResourceHolderUINT::DeallocateNumber

; 1886 :                                     *q = &number_zero;

  001e6	8b 55 14	 mov	 edx, DWORD PTR _q$[ebp]
  001e9	c7 02 00 00 00
	00		 mov	 DWORD PTR [edx], OFFSET ?number_zero@Internal@Core@Math@Palmtree@@3U__tag_NUMBER_HEADER@1234@A ; Palmtree::Math::Core::Internal::number_zero

; 1887 :                                 }
; 1888 :                                 else

  001ef	eb 0e		 jmp	 SHORT $LN19@PMC_DivRem
$LN18@PMC_DivRem:

; 1889 :                                     root.UnlinkNumber(*q);

  001f1	8b 45 14	 mov	 eax, DWORD PTR _q$[ebp]
  001f4	8b 08		 mov	 ecx, DWORD PTR [eax]
  001f6	51		 push	 ecx
  001f7	8d 4d c8	 lea	 ecx, DWORD PTR _root$31[ebp]
  001fa	e8 00 00 00 00	 call	 ?UnlinkNumber@ResourceHolderUINT@Internal@Core@Math@Palmtree@@QAEXPAU__tag_NUMBER_HEADER@2345@@Z ; Palmtree::Math::Core::Internal::ResourceHolderUINT::UnlinkNumber
$LN19@PMC_DivRem:

; 1890 :                                 return (r_buf);

  001ff	8b 55 b8	 mov	 edx, DWORD PTR _r_buf$29[ebp]
  00202	33 c0		 xor	 eax, eax
  00204	89 95 c4 fe ff
	ff		 mov	 DWORD PTR $T5[ebp], edx
  0020a	89 85 c8 fe ff
	ff		 mov	 DWORD PTR $T5[ebp+4], eax
  00210	c7 45 fc ff ff
	ff ff		 mov	 DWORD PTR __$EHRec$[ebp+8], -1
  00217	8d 4d c8	 lea	 ecx, DWORD PTR _root$31[ebp]
  0021a	e8 00 00 00 00	 call	 ??1ResourceHolderUINT@Internal@Core@Math@Palmtree@@UAE@XZ ; Palmtree::Math::Core::Internal::ResourceHolderUINT::~ResourceHolderUINT
  0021f	8b 85 c4 fe ff
	ff		 mov	 eax, DWORD PTR $T5[ebp]
  00225	8b 95 c8 fe ff
	ff		 mov	 edx, DWORD PTR $T5[ebp+4]
  0022b	e9 32 05 00 00	 jmp	 $LN36@PMC_DivRem

; 1891 :                             }
; 1892 :                             else

  00230	eb 27		 jmp	 SHORT $LN14@PMC_DivRem
$LN16@PMC_DivRem:

; 1893 :                             {
; 1894 :                                 __UNIT_TYPE r_buf = Rem_X_1W(u->BLOCK, u->UNIT_WORD_COUNT, v_lo);

  00232	8b 4d e0	 mov	 ecx, DWORD PTR _v_lo$33[ebp]
  00235	51		 push	 ecx
  00236	8b 55 08	 mov	 edx, DWORD PTR _u$[ebp]
  00239	8b 42 10	 mov	 eax, DWORD PTR [edx+16]
  0023c	50		 push	 eax
  0023d	8b 4d 08	 mov	 ecx, DWORD PTR _u$[ebp]
  00240	8b 51 24	 mov	 edx, DWORD PTR [ecx+36]
  00243	52		 push	 edx
  00244	e8 00 00 00 00	 call	 ?Rem_X_1W@Internal@Core@Math@Palmtree@@YAIPAIII@Z ; Palmtree::Math::Core::Internal::Rem_X_1W
  00249	83 c4 0c	 add	 esp, 12			; 0000000cH
  0024c	89 45 b0	 mov	 DWORD PTR _r_buf$28[ebp], eax

; 1895 :                                 return (r_buf);

  0024f	33 d2		 xor	 edx, edx
  00251	8b 45 b0	 mov	 eax, DWORD PTR _r_buf$28[ebp]
  00254	e9 09 05 00 00	 jmp	 $LN36@PMC_DivRem
$LN14@PMC_DivRem:

; 1896 :                             }
; 1897 :                         }
; 1898 :                     }
; 1899 :                     else

  00259	e9 6b 03 00 00	 jmp	 $LN12@PMC_DivRem
$LN11@PMC_DivRem:

; 1900 :                     {
; 1901 :                         // v の値が 32bit では表現できない場合
; 1902 :                         __UNIT_TYPE v_bit_count = sizeof(v) * 8 - _LZCNT_ALT_32(v_hi);

  0025e	8b 45 e8	 mov	 eax, DWORD PTR _v_hi$34[ebp]
  00261	50		 push	 eax
  00262	e8 00 00 00 00	 call	 __LZCNT_ALT_32
  00267	83 c4 04	 add	 esp, 4
  0026a	b9 40 00 00 00	 mov	 ecx, 64			; 00000040H
  0026f	2b c8		 sub	 ecx, eax
  00271	89 4d ac	 mov	 DWORD PTR _v_bit_count$27[ebp], ecx

; 1903 :                         if (u_bit_count < v_bit_count)

  00274	8b 55 f0	 mov	 edx, DWORD PTR _u_bit_count$35[ebp]
  00277	3b 55 ac	 cmp	 edx, DWORD PTR _v_bit_count$27[ebp]
  0027a	0f 83 92 00 00
	00		 jae	 $LN20@PMC_DivRem

; 1904 :                         {
; 1905 :                             // 明らかに u < v である場合
; 1906 : 
; 1907 :                             // q = 0, r = u を返す。
; 1908 :                             if (q != nullptr)

  00280	83 7d 14 00	 cmp	 DWORD PTR _q$[ebp], 0
  00284	74 09		 je	 SHORT $LN22@PMC_DivRem

; 1909 :                                 *q = &number_zero;

  00286	8b 45 14	 mov	 eax, DWORD PTR _q$[ebp]
  00289	c7 00 00 00 00
	00		 mov	 DWORD PTR [eax], OFFSET ?number_zero@Internal@Core@Math@Palmtree@@3U__tag_NUMBER_HEADER@1234@A ; Palmtree::Math::Core::Internal::number_zero
$LN22@PMC_DivRem:

; 1910 :                             if (sizeof(v) == sizeof(__UNIT_TYPE))

  0028f	33 c9		 xor	 ecx, ecx
  00291	74 1c		 je	 SHORT $LN23@PMC_DivRem

; 1911 :                                 return (u->BLOCK[0]);

  00293	ba 04 00 00 00	 mov	 edx, 4
  00298	6b c2 00	 imul	 eax, edx, 0
  0029b	8b 4d 08	 mov	 ecx, DWORD PTR _u$[ebp]
  0029e	8b 51 24	 mov	 edx, DWORD PTR [ecx+36]
  002a1	33 c9		 xor	 ecx, ecx
  002a3	8b 04 02	 mov	 eax, DWORD PTR [edx+eax]
  002a6	8b d1		 mov	 edx, ecx
  002a8	e9 b5 04 00 00	 jmp	 $LN36@PMC_DivRem

; 1912 :                             else

  002ad	eb 5e		 jmp	 SHORT $LN24@PMC_DivRem
$LN23@PMC_DivRem:

; 1913 :                             {
; 1914 :                                 __UNIT_TYPE r_lo = u->BLOCK[0];

  002af	ba 04 00 00 00	 mov	 edx, 4
  002b4	6b c2 00	 imul	 eax, edx, 0
  002b7	8b 4d 08	 mov	 ecx, DWORD PTR _u$[ebp]
  002ba	8b 51 24	 mov	 edx, DWORD PTR [ecx+36]
  002bd	8b 04 10	 mov	 eax, DWORD PTR [eax+edx]
  002c0	89 45 a8	 mov	 DWORD PTR _r_lo$26[ebp], eax

; 1915 :                                 __UNIT_TYPE r_hi = u->UNIT_WORD_COUNT > 1 ? u->BLOCK[1] : 0;

  002c3	8b 4d 08	 mov	 ecx, DWORD PTR _u$[ebp]
  002c6	83 79 10 01	 cmp	 DWORD PTR [ecx+16], 1
  002ca	76 19		 jbe	 SHORT $LN37@PMC_DivRem
  002cc	ba 04 00 00 00	 mov	 edx, 4
  002d1	c1 e2 00	 shl	 edx, 0
  002d4	8b 45 08	 mov	 eax, DWORD PTR _u$[ebp]
  002d7	8b 48 24	 mov	 ecx, DWORD PTR [eax+36]
  002da	8b 14 0a	 mov	 edx, DWORD PTR [edx+ecx]
  002dd	89 95 a8 fe ff
	ff		 mov	 DWORD PTR tv178[ebp], edx
  002e3	eb 0a		 jmp	 SHORT $LN38@PMC_DivRem
$LN37@PMC_DivRem:
  002e5	c7 85 a8 fe ff
	ff 00 00 00 00	 mov	 DWORD PTR tv178[ebp], 0
$LN38@PMC_DivRem:
  002ef	8b 85 a8 fe ff
	ff		 mov	 eax, DWORD PTR tv178[ebp]
  002f5	89 45 a4	 mov	 DWORD PTR _r_hi$25[ebp], eax

; 1916 :                                 return (_FROMWORDTODWORD((_UINT32_T)r_hi, (_UINT32_T)r_lo));

  002f8	8b 4d a8	 mov	 ecx, DWORD PTR _r_lo$26[ebp]
  002fb	51		 push	 ecx
  002fc	8b 55 a4	 mov	 edx, DWORD PTR _r_hi$25[ebp]
  002ff	52		 push	 edx
  00300	e8 00 00 00 00	 call	 __FROMWORDTODWORD
  00305	83 c4 08	 add	 esp, 8
  00308	e9 55 04 00 00	 jmp	 $LN36@PMC_DivRem
$LN24@PMC_DivRem:

; 1917 :                             }
; 1918 :                         }
; 1919 :                         else

  0030d	e9 b7 02 00 00	 jmp	 $LN12@PMC_DivRem
$LN20@PMC_DivRem:

; 1920 :                         {
; 1921 :                             if (q != nullptr)

  00312	83 7d 14 00	 cmp	 DWORD PTR _q$[ebp], 0
  00316	0f 84 75 01 00
	00		 je	 $LN25@PMC_DivRem

; 1922 :                             {
; 1923 :                                 ResourceHolderUINT root;

  0031c	8d 4d 90	 lea	 ecx, DWORD PTR _root$24[ebp]
  0031f	e8 00 00 00 00	 call	 ??0ResourceHolderUINT@Internal@Core@Math@Palmtree@@QAE@XZ ; Palmtree::Math::Core::Internal::ResourceHolderUINT::ResourceHolderUINT
  00324	c7 45 fc 01 00
	00 00		 mov	 DWORD PTR __$EHRec$[ebp+8], 1

; 1924 :                                 __UNIT_TYPE q_bit_count = u_bit_count - v_bit_count + 1 + __UNIT_TYPE_BIT_COUNT; // 演算結果を格納するためには u_bit_count - v_bit_count + 1 だけあれば十分であるが、除算の作業用バッファも兼ねているので余分にとっている。

  0032b	8b 45 f0	 mov	 eax, DWORD PTR _u_bit_count$35[ebp]
  0032e	2b 45 ac	 sub	 eax, DWORD PTR _v_bit_count$27[ebp]
  00331	83 c0 21	 add	 eax, 33			; 00000021H
  00334	89 45 88	 mov	 DWORD PTR _q_bit_count$23[ebp], eax

; 1925 :                                 __UNIT_TYPE r_bit_count = u_bit_count + __UNIT_TYPE_BIT_COUNT; // 演算結果を格納するためには v_bit_count だけあれば十分であるが、除算の作業用バッファも兼ねているので余分にとっている。

  00337	8b 4d f0	 mov	 ecx, DWORD PTR _u_bit_count$35[ebp]
  0033a	83 c1 20	 add	 ecx, 32			; 00000020H
  0033d	89 4d 84	 mov	 DWORD PTR _r_bit_count$22[ebp], ecx

; 1926 :                                 *q = root.AllocateNumber(q_bit_count);

  00340	8b 55 88	 mov	 edx, DWORD PTR _q_bit_count$23[ebp]
  00343	52		 push	 edx
  00344	8d 4d 90	 lea	 ecx, DWORD PTR _root$24[ebp]
  00347	e8 00 00 00 00	 call	 ?AllocateNumber@ResourceHolderUINT@Internal@Core@Math@Palmtree@@QAEPAU__tag_NUMBER_HEADER@2345@I@Z ; Palmtree::Math::Core::Internal::ResourceHolderUINT::AllocateNumber
  0034c	8b 4d 14	 mov	 ecx, DWORD PTR _q$[ebp]
  0034f	89 01		 mov	 DWORD PTR [ecx], eax

; 1927 :                                 __UNIT_TYPE v_buf[] = { v_lo, v_hi };

  00351	8b 55 e0	 mov	 edx, DWORD PTR _v_lo$33[ebp]
  00354	89 95 78 ff ff
	ff		 mov	 DWORD PTR _v_buf$21[ebp], edx
  0035a	8b 45 e8	 mov	 eax, DWORD PTR _v_hi$34[ebp]
  0035d	89 85 7c ff ff
	ff		 mov	 DWORD PTR _v_buf$21[ebp+4], eax

; 1928 :                                 __UNIT_TYPE work_v_buf[] = { 0, 0 };

  00363	c7 85 68 ff ff
	ff 00 00 00 00	 mov	 DWORD PTR _work_v_buf$20[ebp], 0
  0036d	c7 85 6c ff ff
	ff 00 00 00 00	 mov	 DWORD PTR _work_v_buf$20[ebp+4], 0

; 1929 :                                 __UNIT_TYPE* r_buf = root.AllocateBlock(r_bit_count);

  00377	8b 4d 84	 mov	 ecx, DWORD PTR _r_bit_count$22[ebp]
  0037a	51		 push	 ecx
  0037b	8d 4d 90	 lea	 ecx, DWORD PTR _root$24[ebp]
  0037e	e8 00 00 00 00	 call	 ?AllocateBlock@ResourceHolderUINT@Internal@Core@Math@Palmtree@@QAEPAII@Z ; Palmtree::Math::Core::Internal::ResourceHolderUINT::AllocateBlock
  00383	89 85 60 ff ff
	ff		 mov	 DWORD PTR _r_buf$19[ebp], eax

; 1930 :                                 (*fp_DivRem_X_X)(u->BLOCK, u->UNIT_WORD_COUNT, v_buf, sizeof(v_buf) / sizeof(v_buf[0]), work_v_buf, (*q)->BLOCK, r_buf);

  00389	8b 15 00 00 00
	00		 mov	 edx, DWORD PTR ?fp_DivRem_X_X@Internal@Core@Math@Palmtree@@3P6AXPAII0I000@ZA
  0038f	89 95 a4 fe ff
	ff		 mov	 DWORD PTR tv207[ebp], edx
  00395	8b f4		 mov	 esi, esp
  00397	8b 85 60 ff ff
	ff		 mov	 eax, DWORD PTR _r_buf$19[ebp]
  0039d	50		 push	 eax
  0039e	8b 4d 14	 mov	 ecx, DWORD PTR _q$[ebp]
  003a1	8b 11		 mov	 edx, DWORD PTR [ecx]
  003a3	8b 42 24	 mov	 eax, DWORD PTR [edx+36]
  003a6	50		 push	 eax
  003a7	8d 8d 68 ff ff
	ff		 lea	 ecx, DWORD PTR _work_v_buf$20[ebp]
  003ad	51		 push	 ecx
  003ae	6a 02		 push	 2
  003b0	8d 95 78 ff ff
	ff		 lea	 edx, DWORD PTR _v_buf$21[ebp]
  003b6	52		 push	 edx
  003b7	8b 45 08	 mov	 eax, DWORD PTR _u$[ebp]
  003ba	8b 48 10	 mov	 ecx, DWORD PTR [eax+16]
  003bd	51		 push	 ecx
  003be	8b 55 08	 mov	 edx, DWORD PTR _u$[ebp]
  003c1	8b 42 24	 mov	 eax, DWORD PTR [edx+36]
  003c4	50		 push	 eax
  003c5	ff 95 a4 fe ff
	ff		 call	 DWORD PTR tv207[ebp]
  003cb	83 c4 1c	 add	 esp, 28			; 0000001cH
  003ce	3b f4		 cmp	 esi, esp
  003d0	e8 00 00 00 00	 call	 __RTC_CheckEsp

; 1931 :                                 root.CheckNumber(*q);

  003d5	8b 4d 14	 mov	 ecx, DWORD PTR _q$[ebp]
  003d8	8b 11		 mov	 edx, DWORD PTR [ecx]
  003da	52		 push	 edx
  003db	8d 4d 90	 lea	 ecx, DWORD PTR _root$24[ebp]
  003de	e8 00 00 00 00	 call	 ?CheckNumber@ResourceHolderUINT@Internal@Core@Math@Palmtree@@QAEXPAU__tag_NUMBER_HEADER@2345@@Z ; Palmtree::Math::Core::Internal::ResourceHolderUINT::CheckNumber

; 1932 :                                 root.CheckBlock(r_buf);

  003e3	8b 85 60 ff ff
	ff		 mov	 eax, DWORD PTR _r_buf$19[ebp]
  003e9	50		 push	 eax
  003ea	8d 4d 90	 lea	 ecx, DWORD PTR _root$24[ebp]
  003ed	e8 00 00 00 00	 call	 ?CheckBlock@ResourceHolderUINT@Internal@Core@Math@Palmtree@@QAEXPAI@Z ; Palmtree::Math::Core::Internal::ResourceHolderUINT::CheckBlock

; 1933 :                                 CommitNumber(*q);

  003f2	8b 4d 14	 mov	 ecx, DWORD PTR _q$[ebp]
  003f5	8b 11		 mov	 edx, DWORD PTR [ecx]
  003f7	52		 push	 edx
  003f8	e8 00 00 00 00	 call	 ?CommitNumber@Internal@Core@Math@Palmtree@@YAXPAU__tag_NUMBER_HEADER@1234@@Z ; Palmtree::Math::Core::Internal::CommitNumber
  003fd	83 c4 04	 add	 esp, 4

; 1934 :                                 if ((*q)->IS_ZERO)

  00400	8b 45 14	 mov	 eax, DWORD PTR _q$[ebp]
  00403	8b 08		 mov	 ecx, DWORD PTR [eax]
  00405	8b 51 04	 mov	 edx, DWORD PTR [ecx+4]
  00408	83 e2 01	 and	 edx, 1
  0040b	74 19		 je	 SHORT $LN27@PMC_DivRem

; 1935 :                                 {
; 1936 :                                     root.DeallocateNumber(*q);

  0040d	8b 45 14	 mov	 eax, DWORD PTR _q$[ebp]
  00410	8b 08		 mov	 ecx, DWORD PTR [eax]
  00412	51		 push	 ecx
  00413	8d 4d 90	 lea	 ecx, DWORD PTR _root$24[ebp]
  00416	e8 00 00 00 00	 call	 ?DeallocateNumber@ResourceHolderUINT@Internal@Core@Math@Palmtree@@QAEXPAU__tag_NUMBER_HEADER@2345@@Z ; Palmtree::Math::Core::Internal::ResourceHolderUINT::DeallocateNumber

; 1937 :                                     *q = &number_zero;

  0041b	8b 55 14	 mov	 edx, DWORD PTR _q$[ebp]
  0041e	c7 02 00 00 00
	00		 mov	 DWORD PTR [edx], OFFSET ?number_zero@Internal@Core@Math@Palmtree@@3U__tag_NUMBER_HEADER@1234@A ; Palmtree::Math::Core::Internal::number_zero

; 1938 :                                 }
; 1939 :                                 else

  00424	eb 0e		 jmp	 SHORT $LN28@PMC_DivRem
$LN27@PMC_DivRem:

; 1940 :                                     root.UnlinkNumber(*q);

  00426	8b 45 14	 mov	 eax, DWORD PTR _q$[ebp]
  00429	8b 08		 mov	 ecx, DWORD PTR [eax]
  0042b	51		 push	 ecx
  0042c	8d 4d 90	 lea	 ecx, DWORD PTR _root$24[ebp]
  0042f	e8 00 00 00 00	 call	 ?UnlinkNumber@ResourceHolderUINT@Internal@Core@Math@Palmtree@@QAEXPAU__tag_NUMBER_HEADER@2345@@Z ; Palmtree::Math::Core::Internal::ResourceHolderUINT::UnlinkNumber
$LN28@PMC_DivRem:

; 1941 :                                 return (_FROMWORDTODWORD((_UINT32_T)r_buf[1], (_UINT32_T)r_buf[0]));

  00434	ba 04 00 00 00	 mov	 edx, 4
  00439	6b c2 00	 imul	 eax, edx, 0
  0043c	8b 8d 60 ff ff
	ff		 mov	 ecx, DWORD PTR _r_buf$19[ebp]
  00442	8b 14 01	 mov	 edx, DWORD PTR [ecx+eax]
  00445	52		 push	 edx
  00446	b8 04 00 00 00	 mov	 eax, 4
  0044b	c1 e0 00	 shl	 eax, 0
  0044e	8b 8d 60 ff ff
	ff		 mov	 ecx, DWORD PTR _r_buf$19[ebp]
  00454	8b 14 01	 mov	 edx, DWORD PTR [ecx+eax]
  00457	52		 push	 edx
  00458	e8 00 00 00 00	 call	 __FROMWORDTODWORD
  0045d	83 c4 08	 add	 esp, 8
  00460	89 85 bc fe ff
	ff		 mov	 DWORD PTR $T4[ebp], eax
  00466	89 95 c0 fe ff
	ff		 mov	 DWORD PTR $T4[ebp+4], edx
  0046c	c7 45 fc ff ff
	ff ff		 mov	 DWORD PTR __$EHRec$[ebp+8], -1
  00473	8d 4d 90	 lea	 ecx, DWORD PTR _root$24[ebp]
  00476	e8 00 00 00 00	 call	 ??1ResourceHolderUINT@Internal@Core@Math@Palmtree@@UAE@XZ ; Palmtree::Math::Core::Internal::ResourceHolderUINT::~ResourceHolderUINT
  0047b	8b 85 bc fe ff
	ff		 mov	 eax, DWORD PTR $T4[ebp]
  00481	8b 95 c0 fe ff
	ff		 mov	 edx, DWORD PTR $T4[ebp+4]
  00487	e9 d6 02 00 00	 jmp	 $LN36@PMC_DivRem

; 1942 :                             }
; 1943 :                             else

  0048c	e9 38 01 00 00	 jmp	 $LN12@PMC_DivRem
$LN25@PMC_DivRem:

; 1944 :                             {
; 1945 :                                 ResourceHolderUINT root;

  00491	8d 8d 4c ff ff
	ff		 lea	 ecx, DWORD PTR _root$18[ebp]
  00497	e8 00 00 00 00	 call	 ??0ResourceHolderUINT@Internal@Core@Math@Palmtree@@QAE@XZ ; Palmtree::Math::Core::Internal::ResourceHolderUINT::ResourceHolderUINT
  0049c	c7 45 fc 02 00
	00 00		 mov	 DWORD PTR __$EHRec$[ebp+8], 2

; 1946 :                                 __UNIT_TYPE r_bit_count = u_bit_count + __UNIT_TYPE_BIT_COUNT; // 演算結果を格納するためには v_bit_count だけあれば十分であるが、除算の作業用バッファも兼ねているので余分にとっている。

  004a3	8b 45 f0	 mov	 eax, DWORD PTR _u_bit_count$35[ebp]
  004a6	83 c0 20	 add	 eax, 32			; 00000020H
  004a9	89 85 44 ff ff
	ff		 mov	 DWORD PTR _r_bit_count$17[ebp], eax

; 1947 :                                 __UNIT_TYPE v_buf[] = { v_lo, v_hi };

  004af	8b 4d e0	 mov	 ecx, DWORD PTR _v_lo$33[ebp]
  004b2	89 8d 38 ff ff
	ff		 mov	 DWORD PTR _v_buf$16[ebp], ecx
  004b8	8b 55 e8	 mov	 edx, DWORD PTR _v_hi$34[ebp]
  004bb	89 95 3c ff ff
	ff		 mov	 DWORD PTR _v_buf$16[ebp+4], edx

; 1948 :                                 __UNIT_TYPE work_v_buf[] = { 0, 0 };

  004c1	c7 85 28 ff ff
	ff 00 00 00 00	 mov	 DWORD PTR _work_v_buf$15[ebp], 0
  004cb	c7 85 2c ff ff
	ff 00 00 00 00	 mov	 DWORD PTR _work_v_buf$15[ebp+4], 0

; 1949 :                                 __UNIT_TYPE* r_buf = root.AllocateBlock(r_bit_count);

  004d5	8b 85 44 ff ff
	ff		 mov	 eax, DWORD PTR _r_bit_count$17[ebp]
  004db	50		 push	 eax
  004dc	8d 8d 4c ff ff
	ff		 lea	 ecx, DWORD PTR _root$18[ebp]
  004e2	e8 00 00 00 00	 call	 ?AllocateBlock@ResourceHolderUINT@Internal@Core@Math@Palmtree@@QAEPAII@Z ; Palmtree::Math::Core::Internal::ResourceHolderUINT::AllocateBlock
  004e7	89 85 20 ff ff
	ff		 mov	 DWORD PTR _r_buf$14[ebp], eax

; 1950 :                                 (*fp_DivRem_X_X)(u->BLOCK, u->UNIT_WORD_COUNT, v_buf, sizeof(v_buf) / sizeof(v_buf[0]), work_v_buf, nullptr, r_buf);

  004ed	8b 0d 00 00 00
	00		 mov	 ecx, DWORD PTR ?fp_DivRem_X_X@Internal@Core@Math@Palmtree@@3P6AXPAII0I000@ZA
  004f3	89 8d a0 fe ff
	ff		 mov	 DWORD PTR tv244[ebp], ecx
  004f9	8b f4		 mov	 esi, esp
  004fb	8b 95 20 ff ff
	ff		 mov	 edx, DWORD PTR _r_buf$14[ebp]
  00501	52		 push	 edx
  00502	6a 00		 push	 0
  00504	8d 85 28 ff ff
	ff		 lea	 eax, DWORD PTR _work_v_buf$15[ebp]
  0050a	50		 push	 eax
  0050b	6a 02		 push	 2
  0050d	8d 8d 38 ff ff
	ff		 lea	 ecx, DWORD PTR _v_buf$16[ebp]
  00513	51		 push	 ecx
  00514	8b 55 08	 mov	 edx, DWORD PTR _u$[ebp]
  00517	8b 42 10	 mov	 eax, DWORD PTR [edx+16]
  0051a	50		 push	 eax
  0051b	8b 4d 08	 mov	 ecx, DWORD PTR _u$[ebp]
  0051e	8b 51 24	 mov	 edx, DWORD PTR [ecx+36]
  00521	52		 push	 edx
  00522	ff 95 a0 fe ff
	ff		 call	 DWORD PTR tv244[ebp]
  00528	83 c4 1c	 add	 esp, 28			; 0000001cH
  0052b	3b f4		 cmp	 esi, esp
  0052d	e8 00 00 00 00	 call	 __RTC_CheckEsp

; 1951 :                                 root.CheckBlock(r_buf);

  00532	8b 85 20 ff ff
	ff		 mov	 eax, DWORD PTR _r_buf$14[ebp]
  00538	50		 push	 eax
  00539	8d 8d 4c ff ff
	ff		 lea	 ecx, DWORD PTR _root$18[ebp]
  0053f	e8 00 00 00 00	 call	 ?CheckBlock@ResourceHolderUINT@Internal@Core@Math@Palmtree@@QAEXPAI@Z ; Palmtree::Math::Core::Internal::ResourceHolderUINT::CheckBlock

; 1952 :                                 _UINT64_T r = _FROMWORDTODWORD((_UINT32_T)r_buf[1], (_UINT32_T)r_buf[0]);

  00544	b9 04 00 00 00	 mov	 ecx, 4
  00549	6b d1 00	 imul	 edx, ecx, 0
  0054c	8b 85 20 ff ff
	ff		 mov	 eax, DWORD PTR _r_buf$14[ebp]
  00552	8b 0c 10	 mov	 ecx, DWORD PTR [eax+edx]
  00555	51		 push	 ecx
  00556	ba 04 00 00 00	 mov	 edx, 4
  0055b	c1 e2 00	 shl	 edx, 0
  0055e	8b 85 20 ff ff
	ff		 mov	 eax, DWORD PTR _r_buf$14[ebp]
  00564	8b 0c 10	 mov	 ecx, DWORD PTR [eax+edx]
  00567	51		 push	 ecx
  00568	e8 00 00 00 00	 call	 __FROMWORDTODWORD
  0056d	83 c4 08	 add	 esp, 8
  00570	89 85 18 ff ff
	ff		 mov	 DWORD PTR _r$13[ebp], eax
  00576	89 95 1c ff ff
	ff		 mov	 DWORD PTR _r$13[ebp+4], edx

; 1953 :                                 root.DeallocateBlock(r_buf);

  0057c	8b 95 20 ff ff
	ff		 mov	 edx, DWORD PTR _r_buf$14[ebp]
  00582	52		 push	 edx
  00583	8d 8d 4c ff ff
	ff		 lea	 ecx, DWORD PTR _root$18[ebp]
  00589	e8 00 00 00 00	 call	 ?DeallocateBlock@ResourceHolderUINT@Internal@Core@Math@Palmtree@@QAEXPAI@Z ; Palmtree::Math::Core::Internal::ResourceHolderUINT::DeallocateBlock

; 1954 :                                 return (r);

  0058e	8b 85 18 ff ff
	ff		 mov	 eax, DWORD PTR _r$13[ebp]
  00594	89 85 b4 fe ff
	ff		 mov	 DWORD PTR $T3[ebp], eax
  0059a	8b 8d 1c ff ff
	ff		 mov	 ecx, DWORD PTR _r$13[ebp+4]
  005a0	89 8d b8 fe ff
	ff		 mov	 DWORD PTR $T3[ebp+4], ecx
  005a6	c7 45 fc ff ff
	ff ff		 mov	 DWORD PTR __$EHRec$[ebp+8], -1
  005ad	8d 8d 4c ff ff
	ff		 lea	 ecx, DWORD PTR _root$18[ebp]
  005b3	e8 00 00 00 00	 call	 ??1ResourceHolderUINT@Internal@Core@Math@Palmtree@@UAE@XZ ; Palmtree::Math::Core::Internal::ResourceHolderUINT::~ResourceHolderUINT
  005b8	8b 85 b4 fe ff
	ff		 mov	 eax, DWORD PTR $T3[ebp]
  005be	8b 95 b8 fe ff
	ff		 mov	 edx, DWORD PTR $T3[ebp+4]
  005c4	e9 99 01 00 00	 jmp	 $LN36@PMC_DivRem
$LN12@PMC_DivRem:

; 1955 :                             }
; 1956 :                         }
; 1957 :                     }
; 1958 :                 }
; 1959 :                 else

  005c9	e9 94 01 00 00	 jmp	 $LN36@PMC_DivRem
$LN9@PMC_DivRem:

; 1960 :                 {
; 1961 :                     // _UINT64_T が 1 ワードで表現できる場合
; 1962 : 
; 1963 :                     // x と y の商・剰余を計算する
; 1964 :                     __UNIT_TYPE u_bit_count = u->UNIT_BIT_COUNT;

  005ce	8b 55 08	 mov	 edx, DWORD PTR _u$[ebp]
  005d1	8b 42 14	 mov	 eax, DWORD PTR [edx+20]
  005d4	89 85 14 ff ff
	ff		 mov	 DWORD PTR _u_bit_count$12[ebp], eax

; 1965 :                     __UNIT_TYPE v_bit_count = sizeof(v) * 8 - _LZCNT_ALT_UNIT((__UNIT_TYPE)v);

  005da	8b 4d 0c	 mov	 ecx, DWORD PTR _v$[ebp]
  005dd	51		 push	 ecx
  005de	e8 00 00 00 00	 call	 __LZCNT_ALT_UNIT
  005e3	83 c4 04	 add	 esp, 4
  005e6	ba 40 00 00 00	 mov	 edx, 64			; 00000040H
  005eb	2b d0		 sub	 edx, eax
  005ed	89 95 10 ff ff
	ff		 mov	 DWORD PTR _v_bit_count$11[ebp], edx

; 1966 :                     if (u_bit_count < v_bit_count)

  005f3	8b 85 14 ff ff
	ff		 mov	 eax, DWORD PTR _u_bit_count$12[ebp]
  005f9	3b 85 10 ff ff
	ff		 cmp	 eax, DWORD PTR _v_bit_count$11[ebp]
  005ff	73 2e		 jae	 SHORT $LN29@PMC_DivRem

; 1967 :                     {
; 1968 :                         // 明らかに u < v である場合
; 1969 : 
; 1970 :                         // q = 0, r = u を返す。
; 1971 :                         if (q != nullptr)

  00601	83 7d 14 00	 cmp	 DWORD PTR _q$[ebp], 0
  00605	74 09		 je	 SHORT $LN31@PMC_DivRem

; 1972 :                             *q = &number_zero;

  00607	8b 4d 14	 mov	 ecx, DWORD PTR _q$[ebp]
  0060a	c7 01 00 00 00
	00		 mov	 DWORD PTR [ecx], OFFSET ?number_zero@Internal@Core@Math@Palmtree@@3U__tag_NUMBER_HEADER@1234@A ; Palmtree::Math::Core::Internal::number_zero
$LN31@PMC_DivRem:

; 1973 :                         return (u->BLOCK[0]);

  00610	ba 04 00 00 00	 mov	 edx, 4
  00615	6b c2 00	 imul	 eax, edx, 0
  00618	8b 4d 08	 mov	 ecx, DWORD PTR _u$[ebp]
  0061b	8b 51 24	 mov	 edx, DWORD PTR [ecx+36]
  0061e	33 c9		 xor	 ecx, ecx
  00620	8b 04 02	 mov	 eax, DWORD PTR [edx+eax]
  00623	8b d1		 mov	 edx, ecx
  00625	e9 38 01 00 00	 jmp	 $LN36@PMC_DivRem

; 1974 :                     }
; 1975 :                     else

  0062a	e9 33 01 00 00	 jmp	 $LN36@PMC_DivRem
$LN29@PMC_DivRem:

; 1976 :                     {
; 1977 :                         if (q != nullptr)

  0062f	83 7d 14 00	 cmp	 DWORD PTR _q$[ebp], 0
  00633	0f 84 01 01 00
	00		 je	 $LN32@PMC_DivRem

; 1978 :                         {
; 1979 :                             ResourceHolderUINT root;

  00639	8d 8d fc fe ff
	ff		 lea	 ecx, DWORD PTR _root$10[ebp]
  0063f	e8 00 00 00 00	 call	 ??0ResourceHolderUINT@Internal@Core@Math@Palmtree@@QAE@XZ ; Palmtree::Math::Core::Internal::ResourceHolderUINT::ResourceHolderUINT
  00644	c7 45 fc 03 00
	00 00		 mov	 DWORD PTR __$EHRec$[ebp+8], 3

; 1980 :                             __UNIT_TYPE q_bit_count = u_bit_count - v_bit_count + 1 + __UNIT_TYPE_BIT_COUNT; // 演算結果を格納するためには u_bit_count - v_bit_count + 1 だけあれば十分であるが、除算の作業用バッファも兼ねているので余分にとっている。

  0064b	8b 95 14 ff ff
	ff		 mov	 edx, DWORD PTR _u_bit_count$12[ebp]
  00651	2b 95 10 ff ff
	ff		 sub	 edx, DWORD PTR _v_bit_count$11[ebp]
  00657	83 c2 21	 add	 edx, 33			; 00000021H
  0065a	89 95 f4 fe ff
	ff		 mov	 DWORD PTR _q_bit_count$9[ebp], edx

; 1981 :                             *q = root.AllocateNumber(q_bit_count);

  00660	8b 85 f4 fe ff
	ff		 mov	 eax, DWORD PTR _q_bit_count$9[ebp]
  00666	50		 push	 eax
  00667	8d 8d fc fe ff
	ff		 lea	 ecx, DWORD PTR _root$10[ebp]
  0066d	e8 00 00 00 00	 call	 ?AllocateNumber@ResourceHolderUINT@Internal@Core@Math@Palmtree@@QAEPAU__tag_NUMBER_HEADER@2345@I@Z ; Palmtree::Math::Core::Internal::ResourceHolderUINT::AllocateNumber
  00672	8b 4d 14	 mov	 ecx, DWORD PTR _q$[ebp]
  00675	89 01		 mov	 DWORD PTR [ecx], eax

; 1982 :                             __UNIT_TYPE r_buf = 0;

  00677	c7 85 ec fe ff
	ff 00 00 00 00	 mov	 DWORD PTR _r_buf$8[ebp], 0

; 1983 :                             DivRem_X_1W(u->BLOCK, u->UNIT_WORD_COUNT, (__UNIT_TYPE)v, (*q)->BLOCK, &r_buf);

  00681	8d 95 ec fe ff
	ff		 lea	 edx, DWORD PTR _r_buf$8[ebp]
  00687	52		 push	 edx
  00688	8b 45 14	 mov	 eax, DWORD PTR _q$[ebp]
  0068b	8b 08		 mov	 ecx, DWORD PTR [eax]
  0068d	8b 51 24	 mov	 edx, DWORD PTR [ecx+36]
  00690	52		 push	 edx
  00691	8b 45 0c	 mov	 eax, DWORD PTR _v$[ebp]
  00694	50		 push	 eax
  00695	8b 4d 08	 mov	 ecx, DWORD PTR _u$[ebp]
  00698	8b 51 10	 mov	 edx, DWORD PTR [ecx+16]
  0069b	52		 push	 edx
  0069c	8b 45 08	 mov	 eax, DWORD PTR _u$[ebp]
  0069f	8b 48 24	 mov	 ecx, DWORD PTR [eax+36]
  006a2	51		 push	 ecx
  006a3	e8 00 00 00 00	 call	 ?DivRem_X_1W@Internal@Core@Math@Palmtree@@YAXPAIII00@Z ; Palmtree::Math::Core::Internal::DivRem_X_1W
  006a8	83 c4 14	 add	 esp, 20			; 00000014H

; 1984 :                             root.CheckNumber(*q);

  006ab	8b 55 14	 mov	 edx, DWORD PTR _q$[ebp]
  006ae	8b 02		 mov	 eax, DWORD PTR [edx]
  006b0	50		 push	 eax
  006b1	8d 8d fc fe ff
	ff		 lea	 ecx, DWORD PTR _root$10[ebp]
  006b7	e8 00 00 00 00	 call	 ?CheckNumber@ResourceHolderUINT@Internal@Core@Math@Palmtree@@QAEXPAU__tag_NUMBER_HEADER@2345@@Z ; Palmtree::Math::Core::Internal::ResourceHolderUINT::CheckNumber

; 1985 :                             CommitNumber(*q);

  006bc	8b 4d 14	 mov	 ecx, DWORD PTR _q$[ebp]
  006bf	8b 11		 mov	 edx, DWORD PTR [ecx]
  006c1	52		 push	 edx
  006c2	e8 00 00 00 00	 call	 ?CommitNumber@Internal@Core@Math@Palmtree@@YAXPAU__tag_NUMBER_HEADER@1234@@Z ; Palmtree::Math::Core::Internal::CommitNumber
  006c7	83 c4 04	 add	 esp, 4

; 1986 :                             if ((*q)->IS_ZERO)

  006ca	8b 45 14	 mov	 eax, DWORD PTR _q$[ebp]
  006cd	8b 08		 mov	 ecx, DWORD PTR [eax]
  006cf	8b 51 04	 mov	 edx, DWORD PTR [ecx+4]
  006d2	83 e2 01	 and	 edx, 1
  006d5	74 1c		 je	 SHORT $LN34@PMC_DivRem

; 1987 :                             {
; 1988 :                                 root.DeallocateNumber(*q);

  006d7	8b 45 14	 mov	 eax, DWORD PTR _q$[ebp]
  006da	8b 08		 mov	 ecx, DWORD PTR [eax]
  006dc	51		 push	 ecx
  006dd	8d 8d fc fe ff
	ff		 lea	 ecx, DWORD PTR _root$10[ebp]
  006e3	e8 00 00 00 00	 call	 ?DeallocateNumber@ResourceHolderUINT@Internal@Core@Math@Palmtree@@QAEXPAU__tag_NUMBER_HEADER@2345@@Z ; Palmtree::Math::Core::Internal::ResourceHolderUINT::DeallocateNumber

; 1989 :                                 *q = &number_zero;

  006e8	8b 55 14	 mov	 edx, DWORD PTR _q$[ebp]
  006eb	c7 02 00 00 00
	00		 mov	 DWORD PTR [edx], OFFSET ?number_zero@Internal@Core@Math@Palmtree@@3U__tag_NUMBER_HEADER@1234@A ; Palmtree::Math::Core::Internal::number_zero

; 1990 :                             }
; 1991 :                             else

  006f1	eb 11		 jmp	 SHORT $LN35@PMC_DivRem
$LN34@PMC_DivRem:

; 1992 :                                 root.UnlinkNumber(*q);

  006f3	8b 45 14	 mov	 eax, DWORD PTR _q$[ebp]
  006f6	8b 08		 mov	 ecx, DWORD PTR [eax]
  006f8	51		 push	 ecx
  006f9	8d 8d fc fe ff
	ff		 lea	 ecx, DWORD PTR _root$10[ebp]
  006ff	e8 00 00 00 00	 call	 ?UnlinkNumber@ResourceHolderUINT@Internal@Core@Math@Palmtree@@QAEXPAU__tag_NUMBER_HEADER@2345@@Z ; Palmtree::Math::Core::Internal::ResourceHolderUINT::UnlinkNumber
$LN35@PMC_DivRem:

; 1993 :                             return (r_buf);

  00704	8b 95 ec fe ff
	ff		 mov	 edx, DWORD PTR _r_buf$8[ebp]
  0070a	33 c0		 xor	 eax, eax
  0070c	89 95 ac fe ff
	ff		 mov	 DWORD PTR $T2[ebp], edx
  00712	89 85 b0 fe ff
	ff		 mov	 DWORD PTR $T2[ebp+4], eax
  00718	c7 45 fc ff ff
	ff ff		 mov	 DWORD PTR __$EHRec$[ebp+8], -1
  0071f	8d 8d fc fe ff
	ff		 lea	 ecx, DWORD PTR _root$10[ebp]
  00725	e8 00 00 00 00	 call	 ??1ResourceHolderUINT@Internal@Core@Math@Palmtree@@UAE@XZ ; Palmtree::Math::Core::Internal::ResourceHolderUINT::~ResourceHolderUINT
  0072a	8b 85 ac fe ff
	ff		 mov	 eax, DWORD PTR $T2[ebp]
  00730	8b 95 b0 fe ff
	ff		 mov	 edx, DWORD PTR $T2[ebp+4]
  00736	eb 2a		 jmp	 SHORT $LN36@PMC_DivRem

; 1994 :                         }
; 1995 :                         else

  00738	eb 28		 jmp	 SHORT $LN36@PMC_DivRem
$LN32@PMC_DivRem:

; 1996 :                         {
; 1997 :                             __UNIT_TYPE r_buf = Rem_X_1W(u->BLOCK, u->UNIT_WORD_COUNT, (__UNIT_TYPE)v);

  0073a	8b 4d 0c	 mov	 ecx, DWORD PTR _v$[ebp]
  0073d	51		 push	 ecx
  0073e	8b 55 08	 mov	 edx, DWORD PTR _u$[ebp]
  00741	8b 42 10	 mov	 eax, DWORD PTR [edx+16]
  00744	50		 push	 eax
  00745	8b 4d 08	 mov	 ecx, DWORD PTR _u$[ebp]
  00748	8b 51 24	 mov	 edx, DWORD PTR [ecx+36]
  0074b	52		 push	 edx
  0074c	e8 00 00 00 00	 call	 ?Rem_X_1W@Internal@Core@Math@Palmtree@@YAIPAIII@Z ; Palmtree::Math::Core::Internal::Rem_X_1W
  00751	83 c4 0c	 add	 esp, 12			; 0000000cH
  00754	89 85 e4 fe ff
	ff		 mov	 DWORD PTR _r_buf$7[ebp], eax

; 1998 :                             return (r_buf);

  0075a	33 d2		 xor	 edx, edx
  0075c	8b 85 e4 fe ff
	ff		 mov	 eax, DWORD PTR _r_buf$7[ebp]
$LN36@PMC_DivRem:

; 1999 :                         }
; 2000 :                     }
; 2001 :                 }
; 2002 : 
; 2003 :             }
; 2004 :         }
; 2005 :     }

  00762	52		 push	 edx
  00763	8b cd		 mov	 ecx, ebp
  00765	50		 push	 eax
  00766	8d 15 00 00 00
	00		 lea	 edx, DWORD PTR $LN56@PMC_DivRem
  0076c	e8 00 00 00 00	 call	 @_RTC_CheckStackVars@8
  00771	58		 pop	 eax
  00772	5a		 pop	 edx
  00773	8b 4d f4	 mov	 ecx, DWORD PTR __$EHRec$[ebp]
  00776	64 89 0d 00 00
	00 00		 mov	 DWORD PTR fs:0, ecx
  0077d	59		 pop	 ecx
  0077e	5f		 pop	 edi
  0077f	5e		 pop	 esi
  00780	81 c4 60 01 00
	00		 add	 esp, 352		; 00000160H
  00786	3b ec		 cmp	 ebp, esp
  00788	e8 00 00 00 00	 call	 __RTC_CheckEsp
  0078d	8b e5		 mov	 esp, ebp
  0078f	5d		 pop	 ebp
  00790	c3		 ret	 0
  00791	0f 1f 00	 npad	 3
$LN56@PMC_DivRem:
  00794	0b 00 00 00	 DD	 11			; 0000000bH
  00798	00 00 00 00	 DD	 $LN55@PMC_DivRem
$LN55@PMC_DivRem:
  0079c	e8 ff ff ff	 DD	 -24			; ffffffe8H
  007a0	04 00 00 00	 DD	 4
  007a4	00 00 00 00	 DD	 $LN43@PMC_DivRem
  007a8	c8 ff ff ff	 DD	 -56			; ffffffc8H
  007ac	10 00 00 00	 DD	 16			; 00000010H
  007b0	00 00 00 00	 DD	 $LN44@PMC_DivRem
  007b4	b8 ff ff ff	 DD	 -72			; ffffffb8H
  007b8	04 00 00 00	 DD	 4
  007bc	00 00 00 00	 DD	 $LN45@PMC_DivRem
  007c0	90 ff ff ff	 DD	 -112			; ffffff90H
  007c4	10 00 00 00	 DD	 16			; 00000010H
  007c8	00 00 00 00	 DD	 $LN46@PMC_DivRem
  007cc	78 ff ff ff	 DD	 -136			; ffffff78H
  007d0	08 00 00 00	 DD	 8
  007d4	00 00 00 00	 DD	 $LN47@PMC_DivRem
  007d8	68 ff ff ff	 DD	 -152			; ffffff68H
  007dc	08 00 00 00	 DD	 8
  007e0	00 00 00 00	 DD	 $LN48@PMC_DivRem
  007e4	4c ff ff ff	 DD	 -180			; ffffff4cH
  007e8	10 00 00 00	 DD	 16			; 00000010H
  007ec	00 00 00 00	 DD	 $LN49@PMC_DivRem
  007f0	38 ff ff ff	 DD	 -200			; ffffff38H
  007f4	08 00 00 00	 DD	 8
  007f8	00 00 00 00	 DD	 $LN50@PMC_DivRem
  007fc	28 ff ff ff	 DD	 -216			; ffffff28H
  00800	08 00 00 00	 DD	 8
  00804	00 00 00 00	 DD	 $LN51@PMC_DivRem
  00808	fc fe ff ff	 DD	 -260			; fffffefcH
  0080c	10 00 00 00	 DD	 16			; 00000010H
  00810	00 00 00 00	 DD	 $LN52@PMC_DivRem
  00814	ec fe ff ff	 DD	 -276			; fffffeecH
  00818	04 00 00 00	 DD	 4
  0081c	00 00 00 00	 DD	 $LN53@PMC_DivRem
$LN53@PMC_DivRem:
  00820	72		 DB	 114			; 00000072H
  00821	5f		 DB	 95			; 0000005fH
  00822	62		 DB	 98			; 00000062H
  00823	75		 DB	 117			; 00000075H
  00824	66		 DB	 102			; 00000066H
  00825	00		 DB	 0
$LN52@PMC_DivRem:
  00826	72		 DB	 114			; 00000072H
  00827	6f		 DB	 111			; 0000006fH
  00828	6f		 DB	 111			; 0000006fH
  00829	74		 DB	 116			; 00000074H
  0082a	00		 DB	 0
$LN51@PMC_DivRem:
  0082b	77		 DB	 119			; 00000077H
  0082c	6f		 DB	 111			; 0000006fH
  0082d	72		 DB	 114			; 00000072H
  0082e	6b		 DB	 107			; 0000006bH
  0082f	5f		 DB	 95			; 0000005fH
  00830	76		 DB	 118			; 00000076H
  00831	5f		 DB	 95			; 0000005fH
  00832	62		 DB	 98			; 00000062H
  00833	75		 DB	 117			; 00000075H
  00834	66		 DB	 102			; 00000066H
  00835	00		 DB	 0
$LN50@PMC_DivRem:
  00836	76		 DB	 118			; 00000076H
  00837	5f		 DB	 95			; 0000005fH
  00838	62		 DB	 98			; 00000062H
  00839	75		 DB	 117			; 00000075H
  0083a	66		 DB	 102			; 00000066H
  0083b	00		 DB	 0
$LN49@PMC_DivRem:
  0083c	72		 DB	 114			; 00000072H
  0083d	6f		 DB	 111			; 0000006fH
  0083e	6f		 DB	 111			; 0000006fH
  0083f	74		 DB	 116			; 00000074H
  00840	00		 DB	 0
$LN48@PMC_DivRem:
  00841	77		 DB	 119			; 00000077H
  00842	6f		 DB	 111			; 0000006fH
  00843	72		 DB	 114			; 00000072H
  00844	6b		 DB	 107			; 0000006bH
  00845	5f		 DB	 95			; 0000005fH
  00846	76		 DB	 118			; 00000076H
  00847	5f		 DB	 95			; 0000005fH
  00848	62		 DB	 98			; 00000062H
  00849	75		 DB	 117			; 00000075H
  0084a	66		 DB	 102			; 00000066H
  0084b	00		 DB	 0
$LN47@PMC_DivRem:
  0084c	76		 DB	 118			; 00000076H
  0084d	5f		 DB	 95			; 0000005fH
  0084e	62		 DB	 98			; 00000062H
  0084f	75		 DB	 117			; 00000075H
  00850	66		 DB	 102			; 00000066H
  00851	00		 DB	 0
$LN46@PMC_DivRem:
  00852	72		 DB	 114			; 00000072H
  00853	6f		 DB	 111			; 0000006fH
  00854	6f		 DB	 111			; 0000006fH
  00855	74		 DB	 116			; 00000074H
  00856	00		 DB	 0
$LN45@PMC_DivRem:
  00857	72		 DB	 114			; 00000072H
  00858	5f		 DB	 95			; 0000005fH
  00859	62		 DB	 98			; 00000062H
  0085a	75		 DB	 117			; 00000075H
  0085b	66		 DB	 102			; 00000066H
  0085c	00		 DB	 0
$LN44@PMC_DivRem:
  0085d	72		 DB	 114			; 00000072H
  0085e	6f		 DB	 111			; 0000006fH
  0085f	6f		 DB	 111			; 0000006fH
  00860	74		 DB	 116			; 00000074H
  00861	00		 DB	 0
$LN43@PMC_DivRem:
  00862	76		 DB	 118			; 00000076H
  00863	5f		 DB	 95			; 0000005fH
  00864	68		 DB	 104			; 00000068H
  00865	69		 DB	 105			; 00000069H
  00866	00		 DB	 0
_TEXT	ENDS
text$x	SEGMENT
__unwindfunclet$?PMC_DivRem_X_L_Imp@Internal@Core@Math@Palmtree@@YA_KPAU__tag_NUMBER_HEADER@1234@_KPAPAU51234@@Z$0:
  00000	8d 4d c8	 lea	 ecx, DWORD PTR _root$31[ebp]
  00003	e9 00 00 00 00	 jmp	 ??1ResourceHolderUINT@Internal@Core@Math@Palmtree@@UAE@XZ ; Palmtree::Math::Core::Internal::ResourceHolderUINT::~ResourceHolderUINT
__unwindfunclet$?PMC_DivRem_X_L_Imp@Internal@Core@Math@Palmtree@@YA_KPAU__tag_NUMBER_HEADER@1234@_KPAPAU51234@@Z$1:
  00008	8d 4d 90	 lea	 ecx, DWORD PTR _root$24[ebp]
  0000b	e9 00 00 00 00	 jmp	 ??1ResourceHolderUINT@Internal@Core@Math@Palmtree@@UAE@XZ ; Palmtree::Math::Core::Internal::ResourceHolderUINT::~ResourceHolderUINT
__unwindfunclet$?PMC_DivRem_X_L_Imp@Internal@Core@Math@Palmtree@@YA_KPAU__tag_NUMBER_HEADER@1234@_KPAPAU51234@@Z$2:
  00010	8d 8d 4c ff ff
	ff		 lea	 ecx, DWORD PTR _root$18[ebp]
  00016	e9 00 00 00 00	 jmp	 ??1ResourceHolderUINT@Internal@Core@Math@Palmtree@@UAE@XZ ; Palmtree::Math::Core::Internal::ResourceHolderUINT::~ResourceHolderUINT
__unwindfunclet$?PMC_DivRem_X_L_Imp@Internal@Core@Math@Palmtree@@YA_KPAU__tag_NUMBER_HEADER@1234@_KPAPAU51234@@Z$3:
  0001b	8d 8d fc fe ff
	ff		 lea	 ecx, DWORD PTR _root$10[ebp]
  00021	e9 00 00 00 00	 jmp	 ??1ResourceHolderUINT@Internal@Core@Math@Palmtree@@UAE@XZ ; Palmtree::Math::Core::Internal::ResourceHolderUINT::~ResourceHolderUINT
__ehhandler$?PMC_DivRem_X_L_Imp@Internal@Core@Math@Palmtree@@YA_KPAU__tag_NUMBER_HEADER@1234@_KPAPAU51234@@Z:
  00026	8b 54 24 08	 mov	 edx, DWORD PTR [esp+8]
  0002a	8d 42 0c	 lea	 eax, DWORD PTR [edx+12]
  0002d	8b 8a a0 fe ff
	ff		 mov	 ecx, DWORD PTR [edx-352]
  00033	33 c8		 xor	 ecx, eax
  00035	e8 00 00 00 00	 call	 @__security_check_cookie@4
  0003a	b8 00 00 00 00	 mov	 eax, OFFSET __ehfuncinfo$?PMC_DivRem_X_L_Imp@Internal@Core@Math@Palmtree@@YA_KPAU__tag_NUMBER_HEADER@1234@_KPAPAU51234@@Z
  0003f	e9 00 00 00 00	 jmp	 ___CxxFrameHandler3
text$x	ENDS
?PMC_DivRem_X_L_Imp@Internal@Core@Math@Palmtree@@YA_KPAU__tag_NUMBER_HEADER@1234@_KPAPAU51234@@Z ENDP ; Palmtree::Math::Core::Internal::PMC_DivRem_X_L_Imp
; Function compile flags: /Odtp /RTCsu
; File z:\sources\lunor\repos\rougemeilland\palmtree.math.core.uint\palmtree.math.core.uint\pmc_divrem.cpp
_TEXT	SEGMENT
$T2 = -92						; size = 4
$T3 = -88						; size = 24
_r_buf$4 = -64						; size = 4
_r_buf$5 = -56						; size = 4
_q_bit_count$6 = -48					; size = 4
_root$7 = -40						; size = 16
_v_bit_count$8 = -20					; size = 4
_u_bit_count$9 = -16					; size = 4
__$EHRec$ = -12						; size = 12
_u$ = 8							; size = 4
_v$ = 12						; size = 4
_q$ = 16						; size = 4
?PMC_DivRem_X_I_Imp@Internal@Core@Math@Palmtree@@YAIPAU__tag_NUMBER_HEADER@1234@IPAPAU51234@@Z PROC ; Palmtree::Math::Core::Internal::PMC_DivRem_X_I_Imp

; 1521 :     {

  00000	55		 push	 ebp
  00001	8b ec		 mov	 ebp, esp
  00003	6a ff		 push	 -1
  00005	68 00 00 00 00	 push	 __ehhandler$?PMC_DivRem_X_I_Imp@Internal@Core@Math@Palmtree@@YAIPAU__tag_NUMBER_HEADER@1234@IPAPAU51234@@Z
  0000a	64 a1 00 00 00
	00		 mov	 eax, DWORD PTR fs:0
  00010	50		 push	 eax
  00011	83 ec 50	 sub	 esp, 80			; 00000050H
  00014	57		 push	 edi
  00015	8d 7d a4	 lea	 edi, DWORD PTR [ebp-92]
  00018	b9 14 00 00 00	 mov	 ecx, 20			; 00000014H
  0001d	b8 cc cc cc cc	 mov	 eax, -858993460		; ccccccccH
  00022	f3 ab		 rep stosd
  00024	a1 00 00 00 00	 mov	 eax, DWORD PTR ___security_cookie
  00029	33 c5		 xor	 eax, ebp
  0002b	50		 push	 eax
  0002c	8d 45 f4	 lea	 eax, DWORD PTR __$EHRec$[ebp]
  0002f	64 a3 00 00 00
	00		 mov	 DWORD PTR fs:0, eax
  00035	b9 00 00 00 00	 mov	 ecx, OFFSET __E17217E9_pmc_divrem@cpp
  0003a	e8 00 00 00 00	 call	 @__CheckForDebuggerJustMyCode@4

; 1522 :         if (v == 0)

  0003f	83 7d 0c 00	 cmp	 DWORD PTR _v$[ebp], 0
  00043	75 1b		 jne	 SHORT $LN2@PMC_DivRem

; 1523 :         {
; 1524 :             // v が 0 である場合
; 1525 : 
; 1526 :             // 0 による除算はエラーで返す
; 1527 :             throw DivisionByZeroException(L"0による除算が行われようとしました。");

  00045	68 00 00 00 00	 push	 OFFSET $SG118464
  0004a	8d 4d a8	 lea	 ecx, DWORD PTR $T3[ebp]
  0004d	e8 00 00 00 00	 call	 ??0DivisionByZeroException@Internal@Core@Math@Palmtree@@QAE@PB_W@Z ; Palmtree::Math::Core::Internal::DivisionByZeroException::DivisionByZeroException
  00052	68 00 00 00 00	 push	 OFFSET __TI2?AVDivisionByZeroException@Internal@Core@Math@Palmtree@@
  00057	8d 45 a8	 lea	 eax, DWORD PTR $T3[ebp]
  0005a	50		 push	 eax
  0005b	e8 00 00 00 00	 call	 __CxxThrowException@8
$LN2@PMC_DivRem:

; 1528 :         }
; 1529 :         if (u->IS_ZERO)

  00060	8b 4d 08	 mov	 ecx, DWORD PTR _u$[ebp]
  00063	8b 51 04	 mov	 edx, DWORD PTR [ecx+4]
  00066	83 e2 01	 and	 edx, 1
  00069	74 1b		 je	 SHORT $LN3@PMC_DivRem

; 1530 :         {
; 1531 :             // u が 0 である場合
; 1532 : 
; 1533 :             // q = 0, r = 0 を返す
; 1534 : 
; 1535 :             if (q != nullptr)

  0006b	83 7d 10 00	 cmp	 DWORD PTR _q$[ebp], 0
  0006f	74 09		 je	 SHORT $LN5@PMC_DivRem

; 1536 :                 *q = &number_zero;

  00071	8b 45 10	 mov	 eax, DWORD PTR _q$[ebp]
  00074	c7 00 00 00 00
	00		 mov	 DWORD PTR [eax], OFFSET ?number_zero@Internal@Core@Math@Palmtree@@3U__tag_NUMBER_HEADER@1234@A ; Palmtree::Math::Core::Internal::number_zero
$LN5@PMC_DivRem:

; 1537 :             return (0);

  0007a	33 c0		 xor	 eax, eax
  0007c	e9 6f 01 00 00	 jmp	 $LN16@PMC_DivRem

; 1538 :         }
; 1539 :         else

  00081	e9 6a 01 00 00	 jmp	 $LN16@PMC_DivRem
$LN3@PMC_DivRem:

; 1540 :         {
; 1541 :             // u が 0 ではない場合
; 1542 : 
; 1543 :             if (v == 1)

  00086	83 7d 0c 01	 cmp	 DWORD PTR _v$[ebp], 1
  0008a	75 23		 jne	 SHORT $LN6@PMC_DivRem

; 1544 :             {
; 1545 :                 // v が 1 である場合
; 1546 : 
; 1547 :                 // q = u, r = 0 を返す
; 1548 :                 if (q != nullptr)

  0008c	83 7d 10 00	 cmp	 DWORD PTR _q$[ebp], 0
  00090	74 11		 je	 SHORT $LN8@PMC_DivRem

; 1549 :                     *q = DuplicateNumber(u);

  00092	8b 4d 08	 mov	 ecx, DWORD PTR _u$[ebp]
  00095	51		 push	 ecx
  00096	e8 00 00 00 00	 call	 ?DuplicateNumber@Internal@Core@Math@Palmtree@@YAPAU__tag_NUMBER_HEADER@1234@PAU51234@@Z ; Palmtree::Math::Core::Internal::DuplicateNumber
  0009b	83 c4 04	 add	 esp, 4
  0009e	8b 55 10	 mov	 edx, DWORD PTR _q$[ebp]
  000a1	89 02		 mov	 DWORD PTR [edx], eax
$LN8@PMC_DivRem:

; 1550 :                 return (0);

  000a3	33 c0		 xor	 eax, eax
  000a5	e9 46 01 00 00	 jmp	 $LN16@PMC_DivRem

; 1551 :             }
; 1552 :             else

  000aa	e9 41 01 00 00	 jmp	 $LN16@PMC_DivRem
$LN6@PMC_DivRem:

; 1553 :             {
; 1554 :                 // u と v がともに 0 ではない場合
; 1555 : 
; 1556 :                 // x と y の商・剰余を計算する
; 1557 :                 __UNIT_TYPE u_bit_count = u->UNIT_BIT_COUNT;

  000af	8b 45 08	 mov	 eax, DWORD PTR _u$[ebp]
  000b2	8b 48 14	 mov	 ecx, DWORD PTR [eax+20]
  000b5	89 4d f0	 mov	 DWORD PTR _u_bit_count$9[ebp], ecx

; 1558 :                 __UNIT_TYPE v_bit_count = sizeof(v) * 8 - _LZCNT_ALT_32(v);

  000b8	8b 55 0c	 mov	 edx, DWORD PTR _v$[ebp]
  000bb	52		 push	 edx
  000bc	e8 00 00 00 00	 call	 __LZCNT_ALT_32
  000c1	83 c4 04	 add	 esp, 4
  000c4	b9 20 00 00 00	 mov	 ecx, 32			; 00000020H
  000c9	2b c8		 sub	 ecx, eax
  000cb	89 4d ec	 mov	 DWORD PTR _v_bit_count$8[ebp], ecx

; 1559 :                 if (u_bit_count < v_bit_count)

  000ce	8b 55 f0	 mov	 edx, DWORD PTR _u_bit_count$9[ebp]
  000d1	3b 55 ec	 cmp	 edx, DWORD PTR _v_bit_count$8[ebp]
  000d4	73 2a		 jae	 SHORT $LN9@PMC_DivRem

; 1560 :                 {
; 1561 :                     // 明らかに u < v である場合
; 1562 : 
; 1563 :                     // q = 0, r = u を返す。
; 1564 :                     if (q != nullptr)

  000d6	83 7d 10 00	 cmp	 DWORD PTR _q$[ebp], 0
  000da	74 09		 je	 SHORT $LN11@PMC_DivRem

; 1565 :                         *q = &number_zero;

  000dc	8b 45 10	 mov	 eax, DWORD PTR _q$[ebp]
  000df	c7 00 00 00 00
	00		 mov	 DWORD PTR [eax], OFFSET ?number_zero@Internal@Core@Math@Palmtree@@3U__tag_NUMBER_HEADER@1234@A ; Palmtree::Math::Core::Internal::number_zero
$LN11@PMC_DivRem:

; 1566 :                     return ((_UINT32_T)u->BLOCK[0]);

  000e5	b9 04 00 00 00	 mov	 ecx, 4
  000ea	6b d1 00	 imul	 edx, ecx, 0
  000ed	8b 45 08	 mov	 eax, DWORD PTR _u$[ebp]
  000f0	8b 48 24	 mov	 ecx, DWORD PTR [eax+36]
  000f3	8b 04 0a	 mov	 eax, DWORD PTR [edx+ecx]
  000f6	e9 f5 00 00 00	 jmp	 $LN16@PMC_DivRem

; 1567 :                 }
; 1568 :                 else

  000fb	e9 f0 00 00 00	 jmp	 $LN16@PMC_DivRem
$LN9@PMC_DivRem:

; 1569 :                 {
; 1570 :                     if (q != nullptr)

  00100	83 7d 10 00	 cmp	 DWORD PTR _q$[ebp], 0
  00104	0f 84 c6 00 00
	00		 je	 $LN12@PMC_DivRem

; 1571 :                     {
; 1572 :                         ResourceHolderUINT root;

  0010a	8d 4d d8	 lea	 ecx, DWORD PTR _root$7[ebp]
  0010d	e8 00 00 00 00	 call	 ??0ResourceHolderUINT@Internal@Core@Math@Palmtree@@QAE@XZ ; Palmtree::Math::Core::Internal::ResourceHolderUINT::ResourceHolderUINT
  00112	c7 45 fc 00 00
	00 00		 mov	 DWORD PTR __$EHRec$[ebp+8], 0

; 1573 :                         __UNIT_TYPE q_bit_count = u_bit_count - v_bit_count + 1 + __UNIT_TYPE_BIT_COUNT; // 演算結果を格納するためには u_bit_count - v_bit_count + 1 だけあれば十分であるが、除算の作業用バッファも兼ねているので余分にとっている。

  00119	8b 55 f0	 mov	 edx, DWORD PTR _u_bit_count$9[ebp]
  0011c	2b 55 ec	 sub	 edx, DWORD PTR _v_bit_count$8[ebp]
  0011f	83 c2 21	 add	 edx, 33			; 00000021H
  00122	89 55 d0	 mov	 DWORD PTR _q_bit_count$6[ebp], edx

; 1574 :                         *q = root.AllocateNumber(q_bit_count);

  00125	8b 45 d0	 mov	 eax, DWORD PTR _q_bit_count$6[ebp]
  00128	50		 push	 eax
  00129	8d 4d d8	 lea	 ecx, DWORD PTR _root$7[ebp]
  0012c	e8 00 00 00 00	 call	 ?AllocateNumber@ResourceHolderUINT@Internal@Core@Math@Palmtree@@QAEPAU__tag_NUMBER_HEADER@2345@I@Z ; Palmtree::Math::Core::Internal::ResourceHolderUINT::AllocateNumber
  00131	8b 4d 10	 mov	 ecx, DWORD PTR _q$[ebp]
  00134	89 01		 mov	 DWORD PTR [ecx], eax

; 1575 :                         __UNIT_TYPE r_buf = 0;

  00136	c7 45 c8 00 00
	00 00		 mov	 DWORD PTR _r_buf$5[ebp], 0

; 1576 :                         DivRem_X_1W(u->BLOCK, u->UNIT_WORD_COUNT, v, (*q)->BLOCK, &r_buf);

  0013d	8d 55 c8	 lea	 edx, DWORD PTR _r_buf$5[ebp]
  00140	52		 push	 edx
  00141	8b 45 10	 mov	 eax, DWORD PTR _q$[ebp]
  00144	8b 08		 mov	 ecx, DWORD PTR [eax]
  00146	8b 51 24	 mov	 edx, DWORD PTR [ecx+36]
  00149	52		 push	 edx
  0014a	8b 45 0c	 mov	 eax, DWORD PTR _v$[ebp]
  0014d	50		 push	 eax
  0014e	8b 4d 08	 mov	 ecx, DWORD PTR _u$[ebp]
  00151	8b 51 10	 mov	 edx, DWORD PTR [ecx+16]
  00154	52		 push	 edx
  00155	8b 45 08	 mov	 eax, DWORD PTR _u$[ebp]
  00158	8b 48 24	 mov	 ecx, DWORD PTR [eax+36]
  0015b	51		 push	 ecx
  0015c	e8 00 00 00 00	 call	 ?DivRem_X_1W@Internal@Core@Math@Palmtree@@YAXPAIII00@Z ; Palmtree::Math::Core::Internal::DivRem_X_1W
  00161	83 c4 14	 add	 esp, 20			; 00000014H

; 1577 :                         root.CheckNumber(*q);

  00164	8b 55 10	 mov	 edx, DWORD PTR _q$[ebp]
  00167	8b 02		 mov	 eax, DWORD PTR [edx]
  00169	50		 push	 eax
  0016a	8d 4d d8	 lea	 ecx, DWORD PTR _root$7[ebp]
  0016d	e8 00 00 00 00	 call	 ?CheckNumber@ResourceHolderUINT@Internal@Core@Math@Palmtree@@QAEXPAU__tag_NUMBER_HEADER@2345@@Z ; Palmtree::Math::Core::Internal::ResourceHolderUINT::CheckNumber

; 1578 :                         CommitNumber(*q);

  00172	8b 4d 10	 mov	 ecx, DWORD PTR _q$[ebp]
  00175	8b 11		 mov	 edx, DWORD PTR [ecx]
  00177	52		 push	 edx
  00178	e8 00 00 00 00	 call	 ?CommitNumber@Internal@Core@Math@Palmtree@@YAXPAU__tag_NUMBER_HEADER@1234@@Z ; Palmtree::Math::Core::Internal::CommitNumber
  0017d	83 c4 04	 add	 esp, 4

; 1579 :                         if ((*q)->IS_ZERO)

  00180	8b 45 10	 mov	 eax, DWORD PTR _q$[ebp]
  00183	8b 08		 mov	 ecx, DWORD PTR [eax]
  00185	8b 51 04	 mov	 edx, DWORD PTR [ecx+4]
  00188	83 e2 01	 and	 edx, 1
  0018b	74 19		 je	 SHORT $LN14@PMC_DivRem

; 1580 :                         {
; 1581 :                             root.DeallocateNumber(*q);

  0018d	8b 45 10	 mov	 eax, DWORD PTR _q$[ebp]
  00190	8b 08		 mov	 ecx, DWORD PTR [eax]
  00192	51		 push	 ecx
  00193	8d 4d d8	 lea	 ecx, DWORD PTR _root$7[ebp]
  00196	e8 00 00 00 00	 call	 ?DeallocateNumber@ResourceHolderUINT@Internal@Core@Math@Palmtree@@QAEXPAU__tag_NUMBER_HEADER@2345@@Z ; Palmtree::Math::Core::Internal::ResourceHolderUINT::DeallocateNumber

; 1582 :                             *q = &number_zero;

  0019b	8b 55 10	 mov	 edx, DWORD PTR _q$[ebp]
  0019e	c7 02 00 00 00
	00		 mov	 DWORD PTR [edx], OFFSET ?number_zero@Internal@Core@Math@Palmtree@@3U__tag_NUMBER_HEADER@1234@A ; Palmtree::Math::Core::Internal::number_zero

; 1583 :                         }
; 1584 :                         else

  001a4	eb 0e		 jmp	 SHORT $LN15@PMC_DivRem
$LN14@PMC_DivRem:

; 1585 :                             root.UnlinkNumber(*q);

  001a6	8b 45 10	 mov	 eax, DWORD PTR _q$[ebp]
  001a9	8b 08		 mov	 ecx, DWORD PTR [eax]
  001ab	51		 push	 ecx
  001ac	8d 4d d8	 lea	 ecx, DWORD PTR _root$7[ebp]
  001af	e8 00 00 00 00	 call	 ?UnlinkNumber@ResourceHolderUINT@Internal@Core@Math@Palmtree@@QAEXPAU__tag_NUMBER_HEADER@2345@@Z ; Palmtree::Math::Core::Internal::ResourceHolderUINT::UnlinkNumber
$LN15@PMC_DivRem:

; 1586 :                         return ((_UINT32_T)r_buf);

  001b4	8b 55 c8	 mov	 edx, DWORD PTR _r_buf$5[ebp]
  001b7	89 55 a4	 mov	 DWORD PTR $T2[ebp], edx
  001ba	c7 45 fc ff ff
	ff ff		 mov	 DWORD PTR __$EHRec$[ebp+8], -1
  001c1	8d 4d d8	 lea	 ecx, DWORD PTR _root$7[ebp]
  001c4	e8 00 00 00 00	 call	 ??1ResourceHolderUINT@Internal@Core@Math@Palmtree@@UAE@XZ ; Palmtree::Math::Core::Internal::ResourceHolderUINT::~ResourceHolderUINT
  001c9	8b 45 a4	 mov	 eax, DWORD PTR $T2[ebp]
  001cc	eb 22		 jmp	 SHORT $LN16@PMC_DivRem

; 1587 :                     }
; 1588 :                     else

  001ce	eb 20		 jmp	 SHORT $LN16@PMC_DivRem
$LN12@PMC_DivRem:

; 1589 :                     {
; 1590 :                         __UNIT_TYPE r_buf = Rem_X_1W(u->BLOCK, u->UNIT_WORD_COUNT, v);

  001d0	8b 45 0c	 mov	 eax, DWORD PTR _v$[ebp]
  001d3	50		 push	 eax
  001d4	8b 4d 08	 mov	 ecx, DWORD PTR _u$[ebp]
  001d7	8b 51 10	 mov	 edx, DWORD PTR [ecx+16]
  001da	52		 push	 edx
  001db	8b 45 08	 mov	 eax, DWORD PTR _u$[ebp]
  001de	8b 48 24	 mov	 ecx, DWORD PTR [eax+36]
  001e1	51		 push	 ecx
  001e2	e8 00 00 00 00	 call	 ?Rem_X_1W@Internal@Core@Math@Palmtree@@YAIPAIII@Z ; Palmtree::Math::Core::Internal::Rem_X_1W
  001e7	83 c4 0c	 add	 esp, 12			; 0000000cH
  001ea	89 45 c0	 mov	 DWORD PTR _r_buf$4[ebp], eax

; 1591 :                         return ((_UINT32_T)r_buf);

  001ed	8b 45 c0	 mov	 eax, DWORD PTR _r_buf$4[ebp]
$LN16@PMC_DivRem:

; 1592 :                     }
; 1593 :                 }
; 1594 :             }
; 1595 :         }
; 1596 :     }

  001f0	52		 push	 edx
  001f1	8b cd		 mov	 ecx, ebp
  001f3	50		 push	 eax
  001f4	8d 15 00 00 00
	00		 lea	 edx, DWORD PTR $LN22@PMC_DivRem
  001fa	e8 00 00 00 00	 call	 @_RTC_CheckStackVars@8
  001ff	58		 pop	 eax
  00200	5a		 pop	 edx
  00201	8b 4d f4	 mov	 ecx, DWORD PTR __$EHRec$[ebp]
  00204	64 89 0d 00 00
	00 00		 mov	 DWORD PTR fs:0, ecx
  0020b	59		 pop	 ecx
  0020c	5f		 pop	 edi
  0020d	83 c4 5c	 add	 esp, 92			; 0000005cH
  00210	3b ec		 cmp	 ebp, esp
  00212	e8 00 00 00 00	 call	 __RTC_CheckEsp
  00217	8b e5		 mov	 esp, ebp
  00219	5d		 pop	 ebp
  0021a	c3		 ret	 0
  0021b	90		 npad	 1
$LN22@PMC_DivRem:
  0021c	02 00 00 00	 DD	 2
  00220	00 00 00 00	 DD	 $LN21@PMC_DivRem
$LN21@PMC_DivRem:
  00224	d8 ff ff ff	 DD	 -40			; ffffffd8H
  00228	10 00 00 00	 DD	 16			; 00000010H
  0022c	00 00 00 00	 DD	 $LN18@PMC_DivRem
  00230	c8 ff ff ff	 DD	 -56			; ffffffc8H
  00234	04 00 00 00	 DD	 4
  00238	00 00 00 00	 DD	 $LN19@PMC_DivRem
$LN19@PMC_DivRem:
  0023c	72		 DB	 114			; 00000072H
  0023d	5f		 DB	 95			; 0000005fH
  0023e	62		 DB	 98			; 00000062H
  0023f	75		 DB	 117			; 00000075H
  00240	66		 DB	 102			; 00000066H
  00241	00		 DB	 0
$LN18@PMC_DivRem:
  00242	72		 DB	 114			; 00000072H
  00243	6f		 DB	 111			; 0000006fH
  00244	6f		 DB	 111			; 0000006fH
  00245	74		 DB	 116			; 00000074H
  00246	00		 DB	 0
_TEXT	ENDS
text$x	SEGMENT
__unwindfunclet$?PMC_DivRem_X_I_Imp@Internal@Core@Math@Palmtree@@YAIPAU__tag_NUMBER_HEADER@1234@IPAPAU51234@@Z$0:
  00000	8d 4d d8	 lea	 ecx, DWORD PTR _root$7[ebp]
  00003	e9 00 00 00 00	 jmp	 ??1ResourceHolderUINT@Internal@Core@Math@Palmtree@@UAE@XZ ; Palmtree::Math::Core::Internal::ResourceHolderUINT::~ResourceHolderUINT
__ehhandler$?PMC_DivRem_X_I_Imp@Internal@Core@Math@Palmtree@@YAIPAU__tag_NUMBER_HEADER@1234@IPAPAU51234@@Z:
  00008	8b 54 24 08	 mov	 edx, DWORD PTR [esp+8]
  0000c	8d 42 0c	 lea	 eax, DWORD PTR [edx+12]
  0000f	8b 4a a8	 mov	 ecx, DWORD PTR [edx-88]
  00012	33 c8		 xor	 ecx, eax
  00014	e8 00 00 00 00	 call	 @__security_check_cookie@4
  00019	b8 00 00 00 00	 mov	 eax, OFFSET __ehfuncinfo$?PMC_DivRem_X_I_Imp@Internal@Core@Math@Palmtree@@YAIPAU__tag_NUMBER_HEADER@1234@IPAPAU51234@@Z
  0001e	e9 00 00 00 00	 jmp	 ___CxxFrameHandler3
text$x	ENDS
?PMC_DivRem_X_I_Imp@Internal@Core@Math@Palmtree@@YAIPAU__tag_NUMBER_HEADER@1234@IPAPAU51234@@Z ENDP ; Palmtree::Math::Core::Internal::PMC_DivRem_X_I_Imp
; Function compile flags: /Odtp /RTCsu
; File z:\sources\lunor\repos\rougemeilland\palmtree.math.core.uint\palmtree.math.core.uint\pmc_divrem.cpp
_TEXT	SEGMENT
_q_$1 = -16						; size = 4
_q_index$ = -12						; size = 4
_work_u_buf$ = -8					; size = 4
_d_factor$ = -4						; size = 4
_u_buf$ = 8						; size = 4
_u_buf_len$ = 12					; size = 4
_v_buf$ = 16						; size = 4
_v_buf_len$ = 20					; size = 4
_work_v_buf$ = 24					; size = 4
_q_buf$ = 28						; size = 4
_r_buf$ = 32						; size = 4
?DivRem_X_X_using_ADX_MULX@Internal@Core@Math@Palmtree@@YAXPAII0I000@Z PROC ; Palmtree::Math::Core::Internal::DivRem_X_X_using_ADX_MULX

; 1392 :     {

  00000	55		 push	 ebp
  00001	8b ec		 mov	 ebp, esp
  00003	83 ec 10	 sub	 esp, 16			; 00000010H
  00006	b8 cc cc cc cc	 mov	 eax, -858993460		; ccccccccH
  0000b	89 45 f0	 mov	 DWORD PTR [ebp-16], eax
  0000e	89 45 f4	 mov	 DWORD PTR [ebp-12], eax
  00011	89 45 f8	 mov	 DWORD PTR [ebp-8], eax
  00014	89 45 fc	 mov	 DWORD PTR [ebp-4], eax
  00017	b9 00 00 00 00	 mov	 ecx, OFFSET __E17217E9_pmc_divrem@cpp
  0001c	e8 00 00 00 00	 call	 @__CheckForDebuggerJustMyCode@4

; 1393 :         // u の最上位ワードは 0 でありうることに注意すること。
; 1394 : 
; 1395 : #ifdef _DEBUG
; 1396 :         if (v_buf[v_buf_len - 1] == 0)
; 1397 :         {
; 1398 :             ; // このルートには到達しないはず。デバッグ用。
; 1399 :         }
; 1400 : #endif
; 1401 : 
; 1402 :         __UNIT_TYPE d_factor = _LZCNT_ALT_UNIT(v_buf[v_buf_len - 1]);

  00021	8b 55 14	 mov	 edx, DWORD PTR _v_buf_len$[ebp]
  00024	8b 45 10	 mov	 eax, DWORD PTR _v_buf$[ebp]
  00027	8b 4c 90 fc	 mov	 ecx, DWORD PTR [eax+edx*4-4]
  0002b	51		 push	 ecx
  0002c	e8 00 00 00 00	 call	 __LZCNT_ALT_UNIT
  00031	83 c4 04	 add	 esp, 4
  00034	89 45 fc	 mov	 DWORD PTR _d_factor$[ebp], eax

; 1403 :         if (d_factor == 0)

  00037	83 7d fc 00	 cmp	 DWORD PTR _d_factor$[ebp], 0
  0003b	75 37		 jne	 SHORT $LN6@DivRem_X_X

; 1404 :         {
; 1405 :             _COPY_MEMORY_UNIT(r_buf, u_buf, u_buf_len);

  0003d	8b 55 0c	 mov	 edx, DWORD PTR _u_buf_len$[ebp]
  00040	52		 push	 edx
  00041	8b 45 08	 mov	 eax, DWORD PTR _u_buf$[ebp]
  00044	50		 push	 eax
  00045	8b 4d 20	 mov	 ecx, DWORD PTR _r_buf$[ebp]
  00048	51		 push	 ecx
  00049	e8 00 00 00 00	 call	 __COPY_MEMORY_UNIT
  0004e	83 c4 0c	 add	 esp, 12			; 0000000cH

; 1406 :             _COPY_MEMORY_UNIT(work_v_buf, v_buf, v_buf_len);

  00051	8b 55 14	 mov	 edx, DWORD PTR _v_buf_len$[ebp]
  00054	52		 push	 edx
  00055	8b 45 10	 mov	 eax, DWORD PTR _v_buf$[ebp]
  00058	50		 push	 eax
  00059	8b 4d 18	 mov	 ecx, DWORD PTR _work_v_buf$[ebp]
  0005c	51		 push	 ecx
  0005d	e8 00 00 00 00	 call	 __COPY_MEMORY_UNIT
  00062	83 c4 0c	 add	 esp, 12			; 0000000cH

; 1407 :             r_buf[u_buf_len] = 0;

  00065	8b 55 0c	 mov	 edx, DWORD PTR _u_buf_len$[ebp]
  00068	8b 45 20	 mov	 eax, DWORD PTR _r_buf$[ebp]
  0006b	c7 04 90 00 00
	00 00		 mov	 DWORD PTR [eax+edx*4], 0

; 1408 :         }
; 1409 :         else

  00072	eb 34		 jmp	 SHORT $LN7@DivRem_X_X
$LN6@DivRem_X_X:

; 1410 :         {
; 1411 :             LeftShift_Imp(u_buf, u_buf_len, d_factor, r_buf, FALSE);

  00074	6a 00		 push	 0
  00076	8b 4d 20	 mov	 ecx, DWORD PTR _r_buf$[ebp]
  00079	51		 push	 ecx
  0007a	8b 55 fc	 mov	 edx, DWORD PTR _d_factor$[ebp]
  0007d	52		 push	 edx
  0007e	8b 45 0c	 mov	 eax, DWORD PTR _u_buf_len$[ebp]
  00081	50		 push	 eax
  00082	8b 4d 08	 mov	 ecx, DWORD PTR _u_buf$[ebp]
  00085	51		 push	 ecx
  00086	e8 00 00 00 00	 call	 ?LeftShift_Imp@Internal@Core@Math@Palmtree@@YAXPAIII0H@Z ; Palmtree::Math::Core::Internal::LeftShift_Imp
  0008b	83 c4 14	 add	 esp, 20			; 00000014H

; 1412 :             LeftShift_Imp(v_buf, v_buf_len, d_factor, work_v_buf, FALSE);

  0008e	6a 00		 push	 0
  00090	8b 55 18	 mov	 edx, DWORD PTR _work_v_buf$[ebp]
  00093	52		 push	 edx
  00094	8b 45 fc	 mov	 eax, DWORD PTR _d_factor$[ebp]
  00097	50		 push	 eax
  00098	8b 4d 14	 mov	 ecx, DWORD PTR _v_buf_len$[ebp]
  0009b	51		 push	 ecx
  0009c	8b 55 10	 mov	 edx, DWORD PTR _v_buf$[ebp]
  0009f	52		 push	 edx
  000a0	e8 00 00 00 00	 call	 ?LeftShift_Imp@Internal@Core@Math@Palmtree@@YAXPAIII0H@Z ; Palmtree::Math::Core::Internal::LeftShift_Imp
  000a5	83 c4 14	 add	 esp, 20			; 00000014H
$LN7@DivRem_X_X:

; 1413 :         }
; 1414 : 
; 1415 :         __UNIT_TYPE* work_u_buf = r_buf;

  000a8	8b 45 20	 mov	 eax, DWORD PTR _r_buf$[ebp]
  000ab	89 45 f8	 mov	 DWORD PTR _work_u_buf$[ebp], eax

; 1416 :         __UNIT_TYPE q_index = u_buf_len - v_buf_len;

  000ae	8b 4d 0c	 mov	 ecx, DWORD PTR _u_buf_len$[ebp]
  000b1	2b 4d 14	 sub	 ecx, DWORD PTR _v_buf_len$[ebp]
  000b4	89 4d f4	 mov	 DWORD PTR _q_index$[ebp], ecx
$LN4@DivRem_X_X:

; 1417 : 
; 1418 :         for (;;)
; 1419 :         {
; 1420 :             __UNIT_TYPE q_ = CalculateQ_X(work_u_buf, work_v_buf, v_buf_len, q_index);

  000b7	8b 55 f4	 mov	 edx, DWORD PTR _q_index$[ebp]
  000ba	52		 push	 edx
  000bb	8b 45 14	 mov	 eax, DWORD PTR _v_buf_len$[ebp]
  000be	50		 push	 eax
  000bf	8b 4d 18	 mov	 ecx, DWORD PTR _work_v_buf$[ebp]
  000c2	51		 push	 ecx
  000c3	8b 55 f8	 mov	 edx, DWORD PTR _work_u_buf$[ebp]
  000c6	52		 push	 edx
  000c7	e8 00 00 00 00	 call	 ?CalculateQ_X@Internal@Core@Math@Palmtree@@YAIPAI0II@Z ; Palmtree::Math::Core::Internal::CalculateQ_X
  000cc	83 c4 10	 add	 esp, 16			; 00000010H
  000cf	89 45 f0	 mov	 DWORD PTR _q_$1[ebp], eax

; 1421 : 
; 1422 :             if (SubtructOneLineX(work_u_buf, u_buf_len, work_v_buf, v_buf_len, q_index, q_))

  000d2	8b 45 f0	 mov	 eax, DWORD PTR _q_$1[ebp]
  000d5	50		 push	 eax
  000d6	8b 4d f4	 mov	 ecx, DWORD PTR _q_index$[ebp]
  000d9	51		 push	 ecx
  000da	8b 55 14	 mov	 edx, DWORD PTR _v_buf_len$[ebp]
  000dd	52		 push	 edx
  000de	8b 45 18	 mov	 eax, DWORD PTR _work_v_buf$[ebp]
  000e1	50		 push	 eax
  000e2	8b 4d 0c	 mov	 ecx, DWORD PTR _u_buf_len$[ebp]
  000e5	51		 push	 ecx
  000e6	8b 55 f8	 mov	 edx, DWORD PTR _work_u_buf$[ebp]
  000e9	52		 push	 edx
  000ea	e8 00 00 00 00	 call	 ?SubtructOneLineX@Internal@Core@Math@Palmtree@@YAHPAII0III@Z ; Palmtree::Math::Core::Internal::SubtructOneLineX
  000ef	83 c4 18	 add	 esp, 24			; 00000018H
  000f2	85 c0		 test	 eax, eax
  000f4	74 25		 je	 SHORT $LN8@DivRem_X_X

; 1423 :             {
; 1424 :                 // 桁借りが発生した場合
; 1425 : 
; 1426 :                 --q_;

  000f6	8b 45 f0	 mov	 eax, DWORD PTR _q_$1[ebp]
  000f9	83 e8 01	 sub	 eax, 1
  000fc	89 45 f0	 mov	 DWORD PTR _q_$1[ebp], eax

; 1427 :                 AddOneLineX(work_u_buf, u_buf_len, work_v_buf, v_buf_len, q_index);

  000ff	8b 4d f4	 mov	 ecx, DWORD PTR _q_index$[ebp]
  00102	51		 push	 ecx
  00103	8b 55 14	 mov	 edx, DWORD PTR _v_buf_len$[ebp]
  00106	52		 push	 edx
  00107	8b 45 18	 mov	 eax, DWORD PTR _work_v_buf$[ebp]
  0010a	50		 push	 eax
  0010b	8b 4d 0c	 mov	 ecx, DWORD PTR _u_buf_len$[ebp]
  0010e	51		 push	 ecx
  0010f	8b 55 f8	 mov	 edx, DWORD PTR _work_u_buf$[ebp]
  00112	52		 push	 edx
  00113	e8 00 00 00 00	 call	 ?AddOneLineX@Internal@Core@Math@Palmtree@@YAXPAII0II@Z ; Palmtree::Math::Core::Internal::AddOneLineX
  00118	83 c4 14	 add	 esp, 20			; 00000014H
$LN8@DivRem_X_X:

; 1428 :             }
; 1429 : 
; 1430 :             if (q_buf != nullptr)

  0011b	83 7d 1c 00	 cmp	 DWORD PTR _q_buf$[ebp], 0
  0011f	74 0c		 je	 SHORT $LN9@DivRem_X_X

; 1431 :                 q_buf[q_index] = q_;

  00121	8b 45 f4	 mov	 eax, DWORD PTR _q_index$[ebp]
  00124	8b 4d 1c	 mov	 ecx, DWORD PTR _q_buf$[ebp]
  00127	8b 55 f0	 mov	 edx, DWORD PTR _q_$1[ebp]
  0012a	89 14 81	 mov	 DWORD PTR [ecx+eax*4], edx
$LN9@DivRem_X_X:

; 1432 : 
; 1433 : 
; 1434 :             if (q_index == 0)

  0012d	83 7d f4 00	 cmp	 DWORD PTR _q_index$[ebp], 0
  00131	75 02		 jne	 SHORT $LN10@DivRem_X_X

; 1435 :                 break;

  00133	eb 0e		 jmp	 SHORT $LN3@DivRem_X_X
$LN10@DivRem_X_X:

; 1436 :             --q_index;

  00135	8b 45 f4	 mov	 eax, DWORD PTR _q_index$[ebp]
  00138	83 e8 01	 sub	 eax, 1
  0013b	89 45 f4	 mov	 DWORD PTR _q_index$[ebp], eax

; 1437 :         }

  0013e	e9 74 ff ff ff	 jmp	 $LN4@DivRem_X_X
$LN3@DivRem_X_X:

; 1438 : 
; 1439 :         if (d_factor > 0)

  00143	83 7d fc 00	 cmp	 DWORD PTR _d_factor$[ebp], 0
  00147	76 1d		 jbe	 SHORT $LN1@DivRem_X_X

; 1440 :             RightShift_Imp(work_u_buf, u_buf_len + 1, d_factor, work_u_buf, FALSE);

  00149	6a 00		 push	 0
  0014b	8b 4d f8	 mov	 ecx, DWORD PTR _work_u_buf$[ebp]
  0014e	51		 push	 ecx
  0014f	8b 55 fc	 mov	 edx, DWORD PTR _d_factor$[ebp]
  00152	52		 push	 edx
  00153	8b 45 0c	 mov	 eax, DWORD PTR _u_buf_len$[ebp]
  00156	83 c0 01	 add	 eax, 1
  00159	50		 push	 eax
  0015a	8b 4d f8	 mov	 ecx, DWORD PTR _work_u_buf$[ebp]
  0015d	51		 push	 ecx
  0015e	e8 00 00 00 00	 call	 ?RightShift_Imp@Internal@Core@Math@Palmtree@@YAXPAIII0H@Z ; Palmtree::Math::Core::Internal::RightShift_Imp
  00163	83 c4 14	 add	 esp, 20			; 00000014H
$LN1@DivRem_X_X:

; 1441 :     }

  00166	83 c4 10	 add	 esp, 16			; 00000010H
  00169	3b ec		 cmp	 ebp, esp
  0016b	e8 00 00 00 00	 call	 __RTC_CheckEsp
  00170	8b e5		 mov	 esp, ebp
  00172	5d		 pop	 ebp
  00173	c3		 ret	 0
?DivRem_X_X_using_ADX_MULX@Internal@Core@Math@Palmtree@@YAXPAII0I000@Z ENDP ; Palmtree::Math::Core::Internal::DivRem_X_X_using_ADX_MULX
_TEXT	ENDS
; Function compile flags: /Odtp /RTCsu
; File z:\sources\lunor\repos\rougemeilland\palmtree.math.core.uint\palmtree.math.core.uint\pmc_divrem.cpp
_TEXT	SEGMENT
_q_$1 = -16						; size = 4
_q_index$ = -12						; size = 4
_work_u_buf$ = -8					; size = 4
_d_factor$ = -4						; size = 4
_u_buf$ = 8						; size = 4
_u_buf_len$ = 12					; size = 4
_v_buf$ = 16						; size = 4
_v_buf_len$ = 20					; size = 4
_work_v_buf$ = 24					; size = 4
_q_buf$ = 28						; size = 4
_r_buf$ = 32						; size = 4
?DivRem_X_X_using_ADC_MUL@Internal@Core@Math@Palmtree@@YAXPAII0I000@Z PROC ; Palmtree::Math::Core::Internal::DivRem_X_X_using_ADC_MUL

; 1335 :     {

  00000	55		 push	 ebp
  00001	8b ec		 mov	 ebp, esp
  00003	83 ec 10	 sub	 esp, 16			; 00000010H
  00006	b8 cc cc cc cc	 mov	 eax, -858993460		; ccccccccH
  0000b	89 45 f0	 mov	 DWORD PTR [ebp-16], eax
  0000e	89 45 f4	 mov	 DWORD PTR [ebp-12], eax
  00011	89 45 f8	 mov	 DWORD PTR [ebp-8], eax
  00014	89 45 fc	 mov	 DWORD PTR [ebp-4], eax
  00017	b9 00 00 00 00	 mov	 ecx, OFFSET __E17217E9_pmc_divrem@cpp
  0001c	e8 00 00 00 00	 call	 @__CheckForDebuggerJustMyCode@4

; 1336 :         // u および v の最上位ワードは 0 でありうることに注意すること。
; 1337 :         if (sizeof(__UNIT_TYPE) != sizeof(__UNIT_TYPE))

  00021	33 c0		 xor	 eax, eax
  00023	74 30		 je	 SHORT $LN10@DivRem_X_X
$LN2@DivRem_X_X:

; 1338 :         {
; 1339 :             while (u_buf[u_buf_len - 1] == 0)

  00025	8b 4d 0c	 mov	 ecx, DWORD PTR _u_buf_len$[ebp]
  00028	8b 55 08	 mov	 edx, DWORD PTR _u_buf$[ebp]
  0002b	83 7c 8a fc 00	 cmp	 DWORD PTR [edx+ecx*4-4], 0
  00030	75 0b		 jne	 SHORT $LN4@DivRem_X_X

; 1340 :                 --u_buf_len;

  00032	8b 45 0c	 mov	 eax, DWORD PTR _u_buf_len$[ebp]
  00035	83 e8 01	 sub	 eax, 1
  00038	89 45 0c	 mov	 DWORD PTR _u_buf_len$[ebp], eax
  0003b	eb e8		 jmp	 SHORT $LN2@DivRem_X_X
$LN4@DivRem_X_X:

; 1341 :             while (v_buf[v_buf_len - 1] == 0)

  0003d	8b 4d 14	 mov	 ecx, DWORD PTR _v_buf_len$[ebp]
  00040	8b 55 10	 mov	 edx, DWORD PTR _v_buf$[ebp]
  00043	83 7c 8a fc 00	 cmp	 DWORD PTR [edx+ecx*4-4], 0
  00048	75 0b		 jne	 SHORT $LN10@DivRem_X_X

; 1342 :                 --v_buf_len;

  0004a	8b 45 14	 mov	 eax, DWORD PTR _v_buf_len$[ebp]
  0004d	83 e8 01	 sub	 eax, 1
  00050	89 45 14	 mov	 DWORD PTR _v_buf_len$[ebp], eax
  00053	eb e8		 jmp	 SHORT $LN4@DivRem_X_X
$LN10@DivRem_X_X:

; 1343 :         }
; 1344 : 
; 1345 : #ifdef _DEBUG
; 1346 :         if (v_buf[v_buf_len - 1] == 0)
; 1347 :         {
; 1348 :             ; // このルートには到達しないはず。デバッグ用。
; 1349 :         }
; 1350 : #endif
; 1351 : 
; 1352 :         __UNIT_TYPE d_factor = _LZCNT_ALT_UNIT(v_buf[v_buf_len - 1]);

  00055	8b 45 14	 mov	 eax, DWORD PTR _v_buf_len$[ebp]
  00058	8b 4d 10	 mov	 ecx, DWORD PTR _v_buf$[ebp]
  0005b	8b 54 81 fc	 mov	 edx, DWORD PTR [ecx+eax*4-4]
  0005f	52		 push	 edx
  00060	e8 00 00 00 00	 call	 __LZCNT_ALT_UNIT
  00065	83 c4 04	 add	 esp, 4
  00068	89 45 fc	 mov	 DWORD PTR _d_factor$[ebp], eax

; 1353 :         if (d_factor == 0)

  0006b	83 7d fc 00	 cmp	 DWORD PTR _d_factor$[ebp], 0
  0006f	75 37		 jne	 SHORT $LN11@DivRem_X_X

; 1354 :         {
; 1355 :             _COPY_MEMORY_UNIT(r_buf, u_buf, u_buf_len);

  00071	8b 45 0c	 mov	 eax, DWORD PTR _u_buf_len$[ebp]
  00074	50		 push	 eax
  00075	8b 4d 08	 mov	 ecx, DWORD PTR _u_buf$[ebp]
  00078	51		 push	 ecx
  00079	8b 55 20	 mov	 edx, DWORD PTR _r_buf$[ebp]
  0007c	52		 push	 edx
  0007d	e8 00 00 00 00	 call	 __COPY_MEMORY_UNIT
  00082	83 c4 0c	 add	 esp, 12			; 0000000cH

; 1356 :             _COPY_MEMORY_UNIT(work_v_buf, v_buf, v_buf_len);

  00085	8b 45 14	 mov	 eax, DWORD PTR _v_buf_len$[ebp]
  00088	50		 push	 eax
  00089	8b 4d 10	 mov	 ecx, DWORD PTR _v_buf$[ebp]
  0008c	51		 push	 ecx
  0008d	8b 55 18	 mov	 edx, DWORD PTR _work_v_buf$[ebp]
  00090	52		 push	 edx
  00091	e8 00 00 00 00	 call	 __COPY_MEMORY_UNIT
  00096	83 c4 0c	 add	 esp, 12			; 0000000cH

; 1357 :             r_buf[u_buf_len] = 0;

  00099	8b 45 0c	 mov	 eax, DWORD PTR _u_buf_len$[ebp]
  0009c	8b 4d 20	 mov	 ecx, DWORD PTR _r_buf$[ebp]
  0009f	c7 04 81 00 00
	00 00		 mov	 DWORD PTR [ecx+eax*4], 0

; 1358 :         }
; 1359 :         else

  000a6	eb 34		 jmp	 SHORT $LN12@DivRem_X_X
$LN11@DivRem_X_X:

; 1360 :         {
; 1361 :             LeftShift_Imp(u_buf, u_buf_len, d_factor, r_buf, FALSE);

  000a8	6a 00		 push	 0
  000aa	8b 55 20	 mov	 edx, DWORD PTR _r_buf$[ebp]
  000ad	52		 push	 edx
  000ae	8b 45 fc	 mov	 eax, DWORD PTR _d_factor$[ebp]
  000b1	50		 push	 eax
  000b2	8b 4d 0c	 mov	 ecx, DWORD PTR _u_buf_len$[ebp]
  000b5	51		 push	 ecx
  000b6	8b 55 08	 mov	 edx, DWORD PTR _u_buf$[ebp]
  000b9	52		 push	 edx
  000ba	e8 00 00 00 00	 call	 ?LeftShift_Imp@Internal@Core@Math@Palmtree@@YAXPAIII0H@Z ; Palmtree::Math::Core::Internal::LeftShift_Imp
  000bf	83 c4 14	 add	 esp, 20			; 00000014H

; 1362 :             LeftShift_Imp(v_buf, v_buf_len, d_factor, work_v_buf, FALSE);

  000c2	6a 00		 push	 0
  000c4	8b 45 18	 mov	 eax, DWORD PTR _work_v_buf$[ebp]
  000c7	50		 push	 eax
  000c8	8b 4d fc	 mov	 ecx, DWORD PTR _d_factor$[ebp]
  000cb	51		 push	 ecx
  000cc	8b 55 14	 mov	 edx, DWORD PTR _v_buf_len$[ebp]
  000cf	52		 push	 edx
  000d0	8b 45 10	 mov	 eax, DWORD PTR _v_buf$[ebp]
  000d3	50		 push	 eax
  000d4	e8 00 00 00 00	 call	 ?LeftShift_Imp@Internal@Core@Math@Palmtree@@YAXPAIII0H@Z ; Palmtree::Math::Core::Internal::LeftShift_Imp
  000d9	83 c4 14	 add	 esp, 20			; 00000014H
$LN12@DivRem_X_X:

; 1363 :         }
; 1364 : 
; 1365 :         __UNIT_TYPE* work_u_buf = r_buf;

  000dc	8b 4d 20	 mov	 ecx, DWORD PTR _r_buf$[ebp]
  000df	89 4d f8	 mov	 DWORD PTR _work_u_buf$[ebp], ecx

; 1366 :         __UNIT_TYPE q_index = u_buf_len - v_buf_len;

  000e2	8b 55 0c	 mov	 edx, DWORD PTR _u_buf_len$[ebp]
  000e5	2b 55 14	 sub	 edx, DWORD PTR _v_buf_len$[ebp]
  000e8	89 55 f4	 mov	 DWORD PTR _q_index$[ebp], edx
$LN8@DivRem_X_X:

; 1367 : 
; 1368 :         for (;;)
; 1369 :         {
; 1370 :             __UNIT_TYPE q_ = CalculateQ_(work_u_buf, work_v_buf, v_buf_len, q_index);

  000eb	8b 45 f4	 mov	 eax, DWORD PTR _q_index$[ebp]
  000ee	50		 push	 eax
  000ef	8b 4d 14	 mov	 ecx, DWORD PTR _v_buf_len$[ebp]
  000f2	51		 push	 ecx
  000f3	8b 55 18	 mov	 edx, DWORD PTR _work_v_buf$[ebp]
  000f6	52		 push	 edx
  000f7	8b 45 f8	 mov	 eax, DWORD PTR _work_u_buf$[ebp]
  000fa	50		 push	 eax
  000fb	e8 00 00 00 00	 call	 ?CalculateQ_@Internal@Core@Math@Palmtree@@YAIPAI0II@Z ; Palmtree::Math::Core::Internal::CalculateQ_
  00100	83 c4 10	 add	 esp, 16			; 00000010H
  00103	89 45 f0	 mov	 DWORD PTR _q_$1[ebp], eax

; 1371 : 
; 1372 : 
; 1373 :             if (SubtructOneLine(work_u_buf, u_buf_len, work_v_buf, v_buf_len, q_index, q_))

  00106	8b 4d f0	 mov	 ecx, DWORD PTR _q_$1[ebp]
  00109	51		 push	 ecx
  0010a	8b 55 f4	 mov	 edx, DWORD PTR _q_index$[ebp]
  0010d	52		 push	 edx
  0010e	8b 45 14	 mov	 eax, DWORD PTR _v_buf_len$[ebp]
  00111	50		 push	 eax
  00112	8b 4d 18	 mov	 ecx, DWORD PTR _work_v_buf$[ebp]
  00115	51		 push	 ecx
  00116	8b 55 0c	 mov	 edx, DWORD PTR _u_buf_len$[ebp]
  00119	52		 push	 edx
  0011a	8b 45 f8	 mov	 eax, DWORD PTR _work_u_buf$[ebp]
  0011d	50		 push	 eax
  0011e	e8 00 00 00 00	 call	 ?SubtructOneLine@Internal@Core@Math@Palmtree@@YAHPAII0III@Z ; Palmtree::Math::Core::Internal::SubtructOneLine
  00123	83 c4 18	 add	 esp, 24			; 00000018H
  00126	85 c0		 test	 eax, eax
  00128	74 25		 je	 SHORT $LN13@DivRem_X_X

; 1374 :             {
; 1375 :                 // 桁借りが発生した場合
; 1376 :                 --q_;

  0012a	8b 4d f0	 mov	 ecx, DWORD PTR _q_$1[ebp]
  0012d	83 e9 01	 sub	 ecx, 1
  00130	89 4d f0	 mov	 DWORD PTR _q_$1[ebp], ecx

; 1377 :                 AddOneLine(work_u_buf, u_buf_len, work_v_buf, v_buf_len, q_index);

  00133	8b 55 f4	 mov	 edx, DWORD PTR _q_index$[ebp]
  00136	52		 push	 edx
  00137	8b 45 14	 mov	 eax, DWORD PTR _v_buf_len$[ebp]
  0013a	50		 push	 eax
  0013b	8b 4d 18	 mov	 ecx, DWORD PTR _work_v_buf$[ebp]
  0013e	51		 push	 ecx
  0013f	8b 55 0c	 mov	 edx, DWORD PTR _u_buf_len$[ebp]
  00142	52		 push	 edx
  00143	8b 45 f8	 mov	 eax, DWORD PTR _work_u_buf$[ebp]
  00146	50		 push	 eax
  00147	e8 00 00 00 00	 call	 ?AddOneLine@Internal@Core@Math@Palmtree@@YAXPAII0II@Z ; Palmtree::Math::Core::Internal::AddOneLine
  0014c	83 c4 14	 add	 esp, 20			; 00000014H
$LN13@DivRem_X_X:

; 1378 :             }
; 1379 : 
; 1380 :             if (q_buf != nullptr)

  0014f	83 7d 1c 00	 cmp	 DWORD PTR _q_buf$[ebp], 0
  00153	74 0c		 je	 SHORT $LN14@DivRem_X_X

; 1381 :                 q_buf[q_index] = q_;

  00155	8b 4d f4	 mov	 ecx, DWORD PTR _q_index$[ebp]
  00158	8b 55 1c	 mov	 edx, DWORD PTR _q_buf$[ebp]
  0015b	8b 45 f0	 mov	 eax, DWORD PTR _q_$1[ebp]
  0015e	89 04 8a	 mov	 DWORD PTR [edx+ecx*4], eax
$LN14@DivRem_X_X:

; 1382 :             if (q_index == 0)

  00161	83 7d f4 00	 cmp	 DWORD PTR _q_index$[ebp], 0
  00165	75 02		 jne	 SHORT $LN15@DivRem_X_X

; 1383 :                 break;

  00167	eb 0e		 jmp	 SHORT $LN7@DivRem_X_X
$LN15@DivRem_X_X:

; 1384 :             --q_index;

  00169	8b 4d f4	 mov	 ecx, DWORD PTR _q_index$[ebp]
  0016c	83 e9 01	 sub	 ecx, 1
  0016f	89 4d f4	 mov	 DWORD PTR _q_index$[ebp], ecx

; 1385 :         }

  00172	e9 74 ff ff ff	 jmp	 $LN8@DivRem_X_X
$LN7@DivRem_X_X:

; 1386 : 
; 1387 :         if (d_factor > 0)

  00177	83 7d fc 00	 cmp	 DWORD PTR _d_factor$[ebp], 0
  0017b	76 1d		 jbe	 SHORT $LN1@DivRem_X_X

; 1388 :             RightShift_Imp(work_u_buf, u_buf_len + 1, d_factor, work_u_buf, FALSE);

  0017d	6a 00		 push	 0
  0017f	8b 55 f8	 mov	 edx, DWORD PTR _work_u_buf$[ebp]
  00182	52		 push	 edx
  00183	8b 45 fc	 mov	 eax, DWORD PTR _d_factor$[ebp]
  00186	50		 push	 eax
  00187	8b 4d 0c	 mov	 ecx, DWORD PTR _u_buf_len$[ebp]
  0018a	83 c1 01	 add	 ecx, 1
  0018d	51		 push	 ecx
  0018e	8b 55 f8	 mov	 edx, DWORD PTR _work_u_buf$[ebp]
  00191	52		 push	 edx
  00192	e8 00 00 00 00	 call	 ?RightShift_Imp@Internal@Core@Math@Palmtree@@YAXPAIII0H@Z ; Palmtree::Math::Core::Internal::RightShift_Imp
  00197	83 c4 14	 add	 esp, 20			; 00000014H
$LN1@DivRem_X_X:

; 1389 :     }

  0019a	83 c4 10	 add	 esp, 16			; 00000010H
  0019d	3b ec		 cmp	 ebp, esp
  0019f	e8 00 00 00 00	 call	 __RTC_CheckEsp
  001a4	8b e5		 mov	 esp, ebp
  001a6	5d		 pop	 ebp
  001a7	c3		 ret	 0
?DivRem_X_X_using_ADC_MUL@Internal@Core@Math@Palmtree@@YAXPAII0I000@Z ENDP ; Palmtree::Math::Core::Internal::DivRem_X_X_using_ADC_MUL
_TEXT	ENDS
; Function compile flags: /Odtp /RTCsu
; File z:\sources\lunor\repos\rougemeilland\palmtree.math.core.uint\palmtree.math.core.uint\pmc_divrem.cpp
_TEXT	SEGMENT
_count$ = -20						; size = 4
_c$ = -13						; size = 1
_v_count$ = -12						; size = 4
_v_ptr$ = -8						; size = 4
_u_ptr$ = -4						; size = 4
_u_buf$ = 8						; size = 4
_u_buf_len$ = 12					; size = 4
_v_buf$ = 16						; size = 4
_v_buf_len$ = 20					; size = 4
_q_index$ = 24						; size = 4
?AddOneLineX@Internal@Core@Math@Palmtree@@YAXPAII0II@Z PROC ; Palmtree::Math::Core::Internal::AddOneLineX

; 1269 :     {

  00000	55		 push	 ebp
  00001	8b ec		 mov	 ebp, esp
  00003	83 ec 14	 sub	 esp, 20			; 00000014H
  00006	b8 cc cc cc cc	 mov	 eax, -858993460		; ccccccccH
  0000b	89 45 ec	 mov	 DWORD PTR [ebp-20], eax
  0000e	89 45 f0	 mov	 DWORD PTR [ebp-16], eax
  00011	89 45 f4	 mov	 DWORD PTR [ebp-12], eax
  00014	89 45 f8	 mov	 DWORD PTR [ebp-8], eax
  00017	89 45 fc	 mov	 DWORD PTR [ebp-4], eax
  0001a	b9 00 00 00 00	 mov	 ecx, OFFSET __E17217E9_pmc_divrem@cpp
  0001f	e8 00 00 00 00	 call	 @__CheckForDebuggerJustMyCode@4

; 1270 :         __UNIT_TYPE* u_ptr = &u_buf[q_index];

  00024	8b 45 18	 mov	 eax, DWORD PTR _q_index$[ebp]
  00027	8b 4d 08	 mov	 ecx, DWORD PTR _u_buf$[ebp]
  0002a	8d 14 81	 lea	 edx, DWORD PTR [ecx+eax*4]
  0002d	89 55 fc	 mov	 DWORD PTR _u_ptr$[ebp], edx

; 1271 :         __UNIT_TYPE* v_ptr = &v_buf[0];

  00030	b8 04 00 00 00	 mov	 eax, 4
  00035	6b c8 00	 imul	 ecx, eax, 0
  00038	03 4d 10	 add	 ecx, DWORD PTR _v_buf$[ebp]
  0003b	89 4d f8	 mov	 DWORD PTR _v_ptr$[ebp], ecx

; 1272 :         __UNIT_TYPE v_count = v_buf_len;

  0003e	8b 55 14	 mov	 edx, DWORD PTR _v_buf_len$[ebp]
  00041	89 55 f4	 mov	 DWORD PTR _v_count$[ebp], edx

; 1273 :         char c = 0;

  00044	c6 45 f3 00	 mov	 BYTE PTR _c$[ebp], 0

; 1274 : 
; 1275 :         // まず 32 ワードずつ加算をする。
; 1276 :         __UNIT_TYPE count = v_count >> 5;

  00048	8b 45 f4	 mov	 eax, DWORD PTR _v_count$[ebp]
  0004b	c1 e8 05	 shr	 eax, 5
  0004e	89 45 ec	 mov	 DWORD PTR _count$[ebp], eax
$LN2@AddOneLine:

; 1277 :         while (count != 0)

  00051	83 7d ec 00	 cmp	 DWORD PTR _count$[ebp], 0
  00055	74 3e		 je	 SHORT $LN3@AddOneLine

; 1278 :         {
; 1279 :             c = _ADD_32WORDS_ADCX(c, u_ptr, v_ptr, u_ptr);

  00057	8b 4d fc	 mov	 ecx, DWORD PTR _u_ptr$[ebp]
  0005a	51		 push	 ecx
  0005b	8b 55 f8	 mov	 edx, DWORD PTR _v_ptr$[ebp]
  0005e	52		 push	 edx
  0005f	8b 45 fc	 mov	 eax, DWORD PTR _u_ptr$[ebp]
  00062	50		 push	 eax
  00063	0f b6 4d f3	 movzx	 ecx, BYTE PTR _c$[ebp]
  00067	51		 push	 ecx
  00068	e8 00 00 00 00	 call	 __ADD_32WORDS_ADCX
  0006d	83 c4 10	 add	 esp, 16			; 00000010H
  00070	88 45 f3	 mov	 BYTE PTR _c$[ebp], al

; 1280 :             u_ptr += 32;

  00073	8b 55 fc	 mov	 edx, DWORD PTR _u_ptr$[ebp]
  00076	81 c2 80 00 00
	00		 add	 edx, 128		; 00000080H
  0007c	89 55 fc	 mov	 DWORD PTR _u_ptr$[ebp], edx

; 1281 :             v_ptr += 32;

  0007f	8b 45 f8	 mov	 eax, DWORD PTR _v_ptr$[ebp]
  00082	05 80 00 00 00	 add	 eax, 128		; 00000080H
  00087	89 45 f8	 mov	 DWORD PTR _v_ptr$[ebp], eax

; 1282 :             --count;

  0008a	8b 4d ec	 mov	 ecx, DWORD PTR _count$[ebp]
  0008d	83 e9 01	 sub	 ecx, 1
  00090	89 4d ec	 mov	 DWORD PTR _count$[ebp], ecx

; 1283 :         }

  00093	eb bc		 jmp	 SHORT $LN2@AddOneLine
$LN3@AddOneLine:

; 1284 :         // この時点で未処理の桁は 32 ワード未満のはず
; 1285 : 
; 1286 :         // 未処理の桁が 16 ワード以上あるなら 16 ワード加算を行う。
; 1287 :         if (v_count & 0x10)

  00095	8b 55 f4	 mov	 edx, DWORD PTR _v_count$[ebp]
  00098	83 e2 10	 and	 edx, 16			; 00000010H
  0009b	74 2e		 je	 SHORT $LN4@AddOneLine

; 1288 :         {
; 1289 :             c = _ADD_16WORDS_ADCX(c, u_ptr, v_ptr, u_ptr);

  0009d	8b 45 fc	 mov	 eax, DWORD PTR _u_ptr$[ebp]
  000a0	50		 push	 eax
  000a1	8b 4d f8	 mov	 ecx, DWORD PTR _v_ptr$[ebp]
  000a4	51		 push	 ecx
  000a5	8b 55 fc	 mov	 edx, DWORD PTR _u_ptr$[ebp]
  000a8	52		 push	 edx
  000a9	0f b6 45 f3	 movzx	 eax, BYTE PTR _c$[ebp]
  000ad	50		 push	 eax
  000ae	e8 00 00 00 00	 call	 __ADD_16WORDS_ADCX
  000b3	83 c4 10	 add	 esp, 16			; 00000010H
  000b6	88 45 f3	 mov	 BYTE PTR _c$[ebp], al

; 1290 :             u_ptr += 16;

  000b9	8b 4d fc	 mov	 ecx, DWORD PTR _u_ptr$[ebp]
  000bc	83 c1 40	 add	 ecx, 64			; 00000040H
  000bf	89 4d fc	 mov	 DWORD PTR _u_ptr$[ebp], ecx

; 1291 :             v_ptr += 16;

  000c2	8b 55 f8	 mov	 edx, DWORD PTR _v_ptr$[ebp]
  000c5	83 c2 40	 add	 edx, 64			; 00000040H
  000c8	89 55 f8	 mov	 DWORD PTR _v_ptr$[ebp], edx
$LN4@AddOneLine:

; 1292 :         }
; 1293 :         // この時点で未処理の桁は 16 ワード未満のはず
; 1294 : 
; 1295 :         // 未処理の桁が 8 ワード以上あるなら 8 ワード加算を行う。
; 1296 :         if (v_count & 0x8)

  000cb	8b 45 f4	 mov	 eax, DWORD PTR _v_count$[ebp]
  000ce	83 e0 08	 and	 eax, 8
  000d1	74 2e		 je	 SHORT $LN5@AddOneLine

; 1297 :         {
; 1298 :             c = _ADD_8WORDS_ADCX(c, u_ptr, v_ptr, u_ptr);

  000d3	8b 4d fc	 mov	 ecx, DWORD PTR _u_ptr$[ebp]
  000d6	51		 push	 ecx
  000d7	8b 55 f8	 mov	 edx, DWORD PTR _v_ptr$[ebp]
  000da	52		 push	 edx
  000db	8b 45 fc	 mov	 eax, DWORD PTR _u_ptr$[ebp]
  000de	50		 push	 eax
  000df	0f b6 4d f3	 movzx	 ecx, BYTE PTR _c$[ebp]
  000e3	51		 push	 ecx
  000e4	e8 00 00 00 00	 call	 __ADD_8WORDS_ADCX
  000e9	83 c4 10	 add	 esp, 16			; 00000010H
  000ec	88 45 f3	 mov	 BYTE PTR _c$[ebp], al

; 1299 :             u_ptr += 8;

  000ef	8b 55 fc	 mov	 edx, DWORD PTR _u_ptr$[ebp]
  000f2	83 c2 20	 add	 edx, 32			; 00000020H
  000f5	89 55 fc	 mov	 DWORD PTR _u_ptr$[ebp], edx

; 1300 :             v_ptr += 8;

  000f8	8b 45 f8	 mov	 eax, DWORD PTR _v_ptr$[ebp]
  000fb	83 c0 20	 add	 eax, 32			; 00000020H
  000fe	89 45 f8	 mov	 DWORD PTR _v_ptr$[ebp], eax
$LN5@AddOneLine:

; 1301 :         }
; 1302 :         // この時点で未処理の桁は 8 ワード未満のはず
; 1303 : 
; 1304 :         // 未処理の桁が 4 ワード以上あるなら 4 ワード加算を行う。
; 1305 :         if (v_count & 0x4)

  00101	8b 4d f4	 mov	 ecx, DWORD PTR _v_count$[ebp]
  00104	83 e1 04	 and	 ecx, 4
  00107	74 2e		 je	 SHORT $LN6@AddOneLine

; 1306 :         {
; 1307 :             c = _ADD_4WORDS_ADCX(c, u_ptr, v_ptr, u_ptr);

  00109	8b 55 fc	 mov	 edx, DWORD PTR _u_ptr$[ebp]
  0010c	52		 push	 edx
  0010d	8b 45 f8	 mov	 eax, DWORD PTR _v_ptr$[ebp]
  00110	50		 push	 eax
  00111	8b 4d fc	 mov	 ecx, DWORD PTR _u_ptr$[ebp]
  00114	51		 push	 ecx
  00115	0f b6 55 f3	 movzx	 edx, BYTE PTR _c$[ebp]
  00119	52		 push	 edx
  0011a	e8 00 00 00 00	 call	 __ADD_4WORDS_ADCX
  0011f	83 c4 10	 add	 esp, 16			; 00000010H
  00122	88 45 f3	 mov	 BYTE PTR _c$[ebp], al

; 1308 :             u_ptr += 4;

  00125	8b 45 fc	 mov	 eax, DWORD PTR _u_ptr$[ebp]
  00128	83 c0 10	 add	 eax, 16			; 00000010H
  0012b	89 45 fc	 mov	 DWORD PTR _u_ptr$[ebp], eax

; 1309 :             v_ptr += 4;

  0012e	8b 4d f8	 mov	 ecx, DWORD PTR _v_ptr$[ebp]
  00131	83 c1 10	 add	 ecx, 16			; 00000010H
  00134	89 4d f8	 mov	 DWORD PTR _v_ptr$[ebp], ecx
$LN6@AddOneLine:

; 1310 :         }
; 1311 :         // この時点で未処理の桁は 4 ワード未満のはず
; 1312 : 
; 1313 :         // 未処理の桁が 2 ワード以上あるなら 2 ワード加算を行う。
; 1314 :         if (v_count & 0x2)

  00137	8b 55 f4	 mov	 edx, DWORD PTR _v_count$[ebp]
  0013a	83 e2 02	 and	 edx, 2
  0013d	74 2e		 je	 SHORT $LN7@AddOneLine

; 1315 :         {
; 1316 :             c = _ADD_2WORDS_ADCX(c, u_ptr, v_ptr, u_ptr);

  0013f	8b 45 fc	 mov	 eax, DWORD PTR _u_ptr$[ebp]
  00142	50		 push	 eax
  00143	8b 4d f8	 mov	 ecx, DWORD PTR _v_ptr$[ebp]
  00146	51		 push	 ecx
  00147	8b 55 fc	 mov	 edx, DWORD PTR _u_ptr$[ebp]
  0014a	52		 push	 edx
  0014b	0f b6 45 f3	 movzx	 eax, BYTE PTR _c$[ebp]
  0014f	50		 push	 eax
  00150	e8 00 00 00 00	 call	 __ADD_2WORDS_ADCX
  00155	83 c4 10	 add	 esp, 16			; 00000010H
  00158	88 45 f3	 mov	 BYTE PTR _c$[ebp], al

; 1317 :             u_ptr += 2;

  0015b	8b 4d fc	 mov	 ecx, DWORD PTR _u_ptr$[ebp]
  0015e	83 c1 08	 add	 ecx, 8
  00161	89 4d fc	 mov	 DWORD PTR _u_ptr$[ebp], ecx

; 1318 :             v_ptr += 2;

  00164	8b 55 f8	 mov	 edx, DWORD PTR _v_ptr$[ebp]
  00167	83 c2 08	 add	 edx, 8
  0016a	89 55 f8	 mov	 DWORD PTR _v_ptr$[ebp], edx
$LN7@AddOneLine:

; 1319 :         }
; 1320 :         // この時点で未処理の桁は 2 ワード未満のはず
; 1321 : 
; 1322 :         // 未処理の桁が 1 ワード以上あるなら 1 ワード加算を行う。
; 1323 :         if (v_count & 0x1)

  0016d	8b 45 f4	 mov	 eax, DWORD PTR _v_count$[ebp]
  00170	83 e0 01	 and	 eax, 1
  00173	74 32		 je	 SHORT $LN8@AddOneLine

; 1324 :         {
; 1325 :             c = _ADD_UNIT(c, *u_ptr, *v_ptr, u_ptr);

  00175	8b 4d fc	 mov	 ecx, DWORD PTR _u_ptr$[ebp]
  00178	51		 push	 ecx
  00179	8b 55 f8	 mov	 edx, DWORD PTR _v_ptr$[ebp]
  0017c	8b 02		 mov	 eax, DWORD PTR [edx]
  0017e	50		 push	 eax
  0017f	8b 4d fc	 mov	 ecx, DWORD PTR _u_ptr$[ebp]
  00182	8b 11		 mov	 edx, DWORD PTR [ecx]
  00184	52		 push	 edx
  00185	0f b6 45 f3	 movzx	 eax, BYTE PTR _c$[ebp]
  00189	50		 push	 eax
  0018a	e8 00 00 00 00	 call	 __ADD_UNIT
  0018f	83 c4 10	 add	 esp, 16			; 00000010H
  00192	88 45 f3	 mov	 BYTE PTR _c$[ebp], al

; 1326 :             ++u_ptr;

  00195	8b 4d fc	 mov	 ecx, DWORD PTR _u_ptr$[ebp]
  00198	83 c1 04	 add	 ecx, 4
  0019b	89 4d fc	 mov	 DWORD PTR _u_ptr$[ebp], ecx

; 1327 :             ++v_ptr;

  0019e	8b 55 f8	 mov	 edx, DWORD PTR _v_ptr$[ebp]
  001a1	83 c2 04	 add	 edx, 4
  001a4	89 55 f8	 mov	 DWORD PTR _v_ptr$[ebp], edx
$LN8@AddOneLine:

; 1328 :         }
; 1329 : 
; 1330 :         // 残りの桁の繰り上がりを計算する。
; 1331 :         DoCarry(c, u_ptr, u_buf + u_buf_len + 1 - u_ptr);

  001a7	8b 45 0c	 mov	 eax, DWORD PTR _u_buf_len$[ebp]
  001aa	8b 4d 08	 mov	 ecx, DWORD PTR _u_buf$[ebp]
  001ad	8d 54 81 04	 lea	 edx, DWORD PTR [ecx+eax*4+4]
  001b1	2b 55 fc	 sub	 edx, DWORD PTR _u_ptr$[ebp]
  001b4	c1 fa 02	 sar	 edx, 2
  001b7	52		 push	 edx
  001b8	8b 45 fc	 mov	 eax, DWORD PTR _u_ptr$[ebp]
  001bb	50		 push	 eax
  001bc	0f b6 4d f3	 movzx	 ecx, BYTE PTR _c$[ebp]
  001c0	51		 push	 ecx
  001c1	e8 00 00 00 00	 call	 ?DoCarry@Internal@Core@Math@Palmtree@@YAXDPAII@Z ; Palmtree::Math::Core::Internal::DoCarry
  001c6	83 c4 0c	 add	 esp, 12			; 0000000cH

; 1332 :     }

  001c9	83 c4 14	 add	 esp, 20			; 00000014H
  001cc	3b ec		 cmp	 ebp, esp
  001ce	e8 00 00 00 00	 call	 __RTC_CheckEsp
  001d3	8b e5		 mov	 esp, ebp
  001d5	5d		 pop	 ebp
  001d6	c3		 ret	 0
?AddOneLineX@Internal@Core@Math@Palmtree@@YAXPAII0II@Z ENDP ; Palmtree::Math::Core::Internal::AddOneLineX
_TEXT	ENDS
; Function compile flags: /Odtp /RTCsu
; File z:\sources\lunor\repos\rougemeilland\palmtree.math.core.uint\palmtree.math.core.uint\pmc_divrem.cpp
_TEXT	SEGMENT
_count$ = -20						; size = 4
_c$ = -13						; size = 1
_v_count$ = -12						; size = 4
_v_ptr$ = -8						; size = 4
_u_ptr$ = -4						; size = 4
_u_buf$ = 8						; size = 4
_u_buf_len$ = 12					; size = 4
_v_buf$ = 16						; size = 4
_v_buf_len$ = 20					; size = 4
_q_index$ = 24						; size = 4
?AddOneLine@Internal@Core@Math@Palmtree@@YAXPAII0II@Z PROC ; Palmtree::Math::Core::Internal::AddOneLine

; 1203 :     {

  00000	55		 push	 ebp
  00001	8b ec		 mov	 ebp, esp
  00003	83 ec 14	 sub	 esp, 20			; 00000014H
  00006	b8 cc cc cc cc	 mov	 eax, -858993460		; ccccccccH
  0000b	89 45 ec	 mov	 DWORD PTR [ebp-20], eax
  0000e	89 45 f0	 mov	 DWORD PTR [ebp-16], eax
  00011	89 45 f4	 mov	 DWORD PTR [ebp-12], eax
  00014	89 45 f8	 mov	 DWORD PTR [ebp-8], eax
  00017	89 45 fc	 mov	 DWORD PTR [ebp-4], eax
  0001a	b9 00 00 00 00	 mov	 ecx, OFFSET __E17217E9_pmc_divrem@cpp
  0001f	e8 00 00 00 00	 call	 @__CheckForDebuggerJustMyCode@4

; 1204 :         __UNIT_TYPE* u_ptr = &u_buf[q_index];

  00024	8b 45 18	 mov	 eax, DWORD PTR _q_index$[ebp]
  00027	8b 4d 08	 mov	 ecx, DWORD PTR _u_buf$[ebp]
  0002a	8d 14 81	 lea	 edx, DWORD PTR [ecx+eax*4]
  0002d	89 55 fc	 mov	 DWORD PTR _u_ptr$[ebp], edx

; 1205 :         __UNIT_TYPE* v_ptr = &v_buf[0];

  00030	b8 04 00 00 00	 mov	 eax, 4
  00035	6b c8 00	 imul	 ecx, eax, 0
  00038	03 4d 10	 add	 ecx, DWORD PTR _v_buf$[ebp]
  0003b	89 4d f8	 mov	 DWORD PTR _v_ptr$[ebp], ecx

; 1206 :         __UNIT_TYPE v_count = v_buf_len;

  0003e	8b 55 14	 mov	 edx, DWORD PTR _v_buf_len$[ebp]
  00041	89 55 f4	 mov	 DWORD PTR _v_count$[ebp], edx

; 1207 :         char c = 0;

  00044	c6 45 f3 00	 mov	 BYTE PTR _c$[ebp], 0

; 1208 : 
; 1209 :         // まず 32 ワードずつ加算をする。
; 1210 :         __UNIT_TYPE count = v_count >> 5;

  00048	8b 45 f4	 mov	 eax, DWORD PTR _v_count$[ebp]
  0004b	c1 e8 05	 shr	 eax, 5
  0004e	89 45 ec	 mov	 DWORD PTR _count$[ebp], eax
$LN2@AddOneLine:

; 1211 :         while (count != 0)

  00051	83 7d ec 00	 cmp	 DWORD PTR _count$[ebp], 0
  00055	74 3e		 je	 SHORT $LN3@AddOneLine

; 1212 :         {
; 1213 :             c = _ADD_32WORDS_ADC(c, u_ptr, v_ptr, u_ptr);

  00057	8b 4d fc	 mov	 ecx, DWORD PTR _u_ptr$[ebp]
  0005a	51		 push	 ecx
  0005b	8b 55 f8	 mov	 edx, DWORD PTR _v_ptr$[ebp]
  0005e	52		 push	 edx
  0005f	8b 45 fc	 mov	 eax, DWORD PTR _u_ptr$[ebp]
  00062	50		 push	 eax
  00063	0f b6 4d f3	 movzx	 ecx, BYTE PTR _c$[ebp]
  00067	51		 push	 ecx
  00068	e8 00 00 00 00	 call	 __ADD_32WORDS_ADC
  0006d	83 c4 10	 add	 esp, 16			; 00000010H
  00070	88 45 f3	 mov	 BYTE PTR _c$[ebp], al

; 1214 :             u_ptr += 32;

  00073	8b 55 fc	 mov	 edx, DWORD PTR _u_ptr$[ebp]
  00076	81 c2 80 00 00
	00		 add	 edx, 128		; 00000080H
  0007c	89 55 fc	 mov	 DWORD PTR _u_ptr$[ebp], edx

; 1215 :             v_ptr += 32;

  0007f	8b 45 f8	 mov	 eax, DWORD PTR _v_ptr$[ebp]
  00082	05 80 00 00 00	 add	 eax, 128		; 00000080H
  00087	89 45 f8	 mov	 DWORD PTR _v_ptr$[ebp], eax

; 1216 :             --count;

  0008a	8b 4d ec	 mov	 ecx, DWORD PTR _count$[ebp]
  0008d	83 e9 01	 sub	 ecx, 1
  00090	89 4d ec	 mov	 DWORD PTR _count$[ebp], ecx

; 1217 :         }

  00093	eb bc		 jmp	 SHORT $LN2@AddOneLine
$LN3@AddOneLine:

; 1218 :         // この時点で未処理の桁は 32 ワード未満のはず
; 1219 : 
; 1220 :         // 未処理の桁が 16 ワード以上あるなら 16 ワード加算を行う。
; 1221 :         if (v_count & 0x10)

  00095	8b 55 f4	 mov	 edx, DWORD PTR _v_count$[ebp]
  00098	83 e2 10	 and	 edx, 16			; 00000010H
  0009b	74 2e		 je	 SHORT $LN4@AddOneLine

; 1222 :         {
; 1223 :             c = _ADD_16WORDS_ADC(c, u_ptr, v_ptr, u_ptr);

  0009d	8b 45 fc	 mov	 eax, DWORD PTR _u_ptr$[ebp]
  000a0	50		 push	 eax
  000a1	8b 4d f8	 mov	 ecx, DWORD PTR _v_ptr$[ebp]
  000a4	51		 push	 ecx
  000a5	8b 55 fc	 mov	 edx, DWORD PTR _u_ptr$[ebp]
  000a8	52		 push	 edx
  000a9	0f b6 45 f3	 movzx	 eax, BYTE PTR _c$[ebp]
  000ad	50		 push	 eax
  000ae	e8 00 00 00 00	 call	 __ADD_16WORDS_ADC
  000b3	83 c4 10	 add	 esp, 16			; 00000010H
  000b6	88 45 f3	 mov	 BYTE PTR _c$[ebp], al

; 1224 :             u_ptr += 16;

  000b9	8b 4d fc	 mov	 ecx, DWORD PTR _u_ptr$[ebp]
  000bc	83 c1 40	 add	 ecx, 64			; 00000040H
  000bf	89 4d fc	 mov	 DWORD PTR _u_ptr$[ebp], ecx

; 1225 :             v_ptr += 16;

  000c2	8b 55 f8	 mov	 edx, DWORD PTR _v_ptr$[ebp]
  000c5	83 c2 40	 add	 edx, 64			; 00000040H
  000c8	89 55 f8	 mov	 DWORD PTR _v_ptr$[ebp], edx
$LN4@AddOneLine:

; 1226 :         }
; 1227 :         // この時点で未処理の桁は 16 ワード未満のはず
; 1228 : 
; 1229 :         // 未処理の桁が 8 ワード以上あるなら 8 ワード加算を行う。
; 1230 :         if (v_count & 0x8)

  000cb	8b 45 f4	 mov	 eax, DWORD PTR _v_count$[ebp]
  000ce	83 e0 08	 and	 eax, 8
  000d1	74 2e		 je	 SHORT $LN5@AddOneLine

; 1231 :         {
; 1232 :             c = _ADD_8WORDS_ADC(c, u_ptr, v_ptr, u_ptr);

  000d3	8b 4d fc	 mov	 ecx, DWORD PTR _u_ptr$[ebp]
  000d6	51		 push	 ecx
  000d7	8b 55 f8	 mov	 edx, DWORD PTR _v_ptr$[ebp]
  000da	52		 push	 edx
  000db	8b 45 fc	 mov	 eax, DWORD PTR _u_ptr$[ebp]
  000de	50		 push	 eax
  000df	0f b6 4d f3	 movzx	 ecx, BYTE PTR _c$[ebp]
  000e3	51		 push	 ecx
  000e4	e8 00 00 00 00	 call	 __ADD_8WORDS_ADC
  000e9	83 c4 10	 add	 esp, 16			; 00000010H
  000ec	88 45 f3	 mov	 BYTE PTR _c$[ebp], al

; 1233 :             u_ptr += 8;

  000ef	8b 55 fc	 mov	 edx, DWORD PTR _u_ptr$[ebp]
  000f2	83 c2 20	 add	 edx, 32			; 00000020H
  000f5	89 55 fc	 mov	 DWORD PTR _u_ptr$[ebp], edx

; 1234 :             v_ptr += 8;

  000f8	8b 45 f8	 mov	 eax, DWORD PTR _v_ptr$[ebp]
  000fb	83 c0 20	 add	 eax, 32			; 00000020H
  000fe	89 45 f8	 mov	 DWORD PTR _v_ptr$[ebp], eax
$LN5@AddOneLine:

; 1235 :         }
; 1236 :         // この時点で未処理の桁は 8 ワード未満のはず
; 1237 : 
; 1238 :         // 未処理の桁が 4 ワード以上あるなら 4 ワード加算を行う。
; 1239 :         if (v_count & 0x4)

  00101	8b 4d f4	 mov	 ecx, DWORD PTR _v_count$[ebp]
  00104	83 e1 04	 and	 ecx, 4
  00107	74 2e		 je	 SHORT $LN6@AddOneLine

; 1240 :         {
; 1241 :             c = _ADD_4WORDS_ADC(c, u_ptr, v_ptr, u_ptr);

  00109	8b 55 fc	 mov	 edx, DWORD PTR _u_ptr$[ebp]
  0010c	52		 push	 edx
  0010d	8b 45 f8	 mov	 eax, DWORD PTR _v_ptr$[ebp]
  00110	50		 push	 eax
  00111	8b 4d fc	 mov	 ecx, DWORD PTR _u_ptr$[ebp]
  00114	51		 push	 ecx
  00115	0f b6 55 f3	 movzx	 edx, BYTE PTR _c$[ebp]
  00119	52		 push	 edx
  0011a	e8 00 00 00 00	 call	 __ADD_4WORDS_ADC
  0011f	83 c4 10	 add	 esp, 16			; 00000010H
  00122	88 45 f3	 mov	 BYTE PTR _c$[ebp], al

; 1242 :             u_ptr += 4;

  00125	8b 45 fc	 mov	 eax, DWORD PTR _u_ptr$[ebp]
  00128	83 c0 10	 add	 eax, 16			; 00000010H
  0012b	89 45 fc	 mov	 DWORD PTR _u_ptr$[ebp], eax

; 1243 :             v_ptr += 4;

  0012e	8b 4d f8	 mov	 ecx, DWORD PTR _v_ptr$[ebp]
  00131	83 c1 10	 add	 ecx, 16			; 00000010H
  00134	89 4d f8	 mov	 DWORD PTR _v_ptr$[ebp], ecx
$LN6@AddOneLine:

; 1244 :         }
; 1245 :         // この時点で未処理の桁は 4 ワード未満のはず
; 1246 : 
; 1247 :         // 未処理の桁が 2 ワード以上あるなら 2 ワード加算を行う。
; 1248 :         if (v_count & 0x2)

  00137	8b 55 f4	 mov	 edx, DWORD PTR _v_count$[ebp]
  0013a	83 e2 02	 and	 edx, 2
  0013d	74 2e		 je	 SHORT $LN7@AddOneLine

; 1249 :         {
; 1250 :             c = _ADD_2WORDS_ADC(c, u_ptr, v_ptr, u_ptr);

  0013f	8b 45 fc	 mov	 eax, DWORD PTR _u_ptr$[ebp]
  00142	50		 push	 eax
  00143	8b 4d f8	 mov	 ecx, DWORD PTR _v_ptr$[ebp]
  00146	51		 push	 ecx
  00147	8b 55 fc	 mov	 edx, DWORD PTR _u_ptr$[ebp]
  0014a	52		 push	 edx
  0014b	0f b6 45 f3	 movzx	 eax, BYTE PTR _c$[ebp]
  0014f	50		 push	 eax
  00150	e8 00 00 00 00	 call	 __ADD_2WORDS_ADC
  00155	83 c4 10	 add	 esp, 16			; 00000010H
  00158	88 45 f3	 mov	 BYTE PTR _c$[ebp], al

; 1251 :             u_ptr += 2;

  0015b	8b 4d fc	 mov	 ecx, DWORD PTR _u_ptr$[ebp]
  0015e	83 c1 08	 add	 ecx, 8
  00161	89 4d fc	 mov	 DWORD PTR _u_ptr$[ebp], ecx

; 1252 :             v_ptr += 2;

  00164	8b 55 f8	 mov	 edx, DWORD PTR _v_ptr$[ebp]
  00167	83 c2 08	 add	 edx, 8
  0016a	89 55 f8	 mov	 DWORD PTR _v_ptr$[ebp], edx
$LN7@AddOneLine:

; 1253 :         }
; 1254 :         // この時点で未処理の桁は 2 ワード未満のはず
; 1255 : 
; 1256 :         // 未処理の桁が 1 ワード以上あるなら 1 ワード加算を行う。
; 1257 :         if (v_count & 0x1)

  0016d	8b 45 f4	 mov	 eax, DWORD PTR _v_count$[ebp]
  00170	83 e0 01	 and	 eax, 1
  00173	74 32		 je	 SHORT $LN8@AddOneLine

; 1258 :         {
; 1259 :             c = _ADD_UNIT(c, *u_ptr, *v_ptr, u_ptr);

  00175	8b 4d fc	 mov	 ecx, DWORD PTR _u_ptr$[ebp]
  00178	51		 push	 ecx
  00179	8b 55 f8	 mov	 edx, DWORD PTR _v_ptr$[ebp]
  0017c	8b 02		 mov	 eax, DWORD PTR [edx]
  0017e	50		 push	 eax
  0017f	8b 4d fc	 mov	 ecx, DWORD PTR _u_ptr$[ebp]
  00182	8b 11		 mov	 edx, DWORD PTR [ecx]
  00184	52		 push	 edx
  00185	0f b6 45 f3	 movzx	 eax, BYTE PTR _c$[ebp]
  00189	50		 push	 eax
  0018a	e8 00 00 00 00	 call	 __ADD_UNIT
  0018f	83 c4 10	 add	 esp, 16			; 00000010H
  00192	88 45 f3	 mov	 BYTE PTR _c$[ebp], al

; 1260 :             ++u_ptr;

  00195	8b 4d fc	 mov	 ecx, DWORD PTR _u_ptr$[ebp]
  00198	83 c1 04	 add	 ecx, 4
  0019b	89 4d fc	 mov	 DWORD PTR _u_ptr$[ebp], ecx

; 1261 :             ++v_ptr;

  0019e	8b 55 f8	 mov	 edx, DWORD PTR _v_ptr$[ebp]
  001a1	83 c2 04	 add	 edx, 4
  001a4	89 55 f8	 mov	 DWORD PTR _v_ptr$[ebp], edx
$LN8@AddOneLine:

; 1262 :         }
; 1263 : 
; 1264 :         // 残りの桁の繰り上がりを計算する。
; 1265 :         DoCarry(c, u_ptr, u_buf + u_buf_len + 1 - u_ptr);

  001a7	8b 45 0c	 mov	 eax, DWORD PTR _u_buf_len$[ebp]
  001aa	8b 4d 08	 mov	 ecx, DWORD PTR _u_buf$[ebp]
  001ad	8d 54 81 04	 lea	 edx, DWORD PTR [ecx+eax*4+4]
  001b1	2b 55 fc	 sub	 edx, DWORD PTR _u_ptr$[ebp]
  001b4	c1 fa 02	 sar	 edx, 2
  001b7	52		 push	 edx
  001b8	8b 45 fc	 mov	 eax, DWORD PTR _u_ptr$[ebp]
  001bb	50		 push	 eax
  001bc	0f b6 4d f3	 movzx	 ecx, BYTE PTR _c$[ebp]
  001c0	51		 push	 ecx
  001c1	e8 00 00 00 00	 call	 ?DoCarry@Internal@Core@Math@Palmtree@@YAXDPAII@Z ; Palmtree::Math::Core::Internal::DoCarry
  001c6	83 c4 0c	 add	 esp, 12			; 0000000cH

; 1266 :     }

  001c9	83 c4 14	 add	 esp, 20			; 00000014H
  001cc	3b ec		 cmp	 ebp, esp
  001ce	e8 00 00 00 00	 call	 __RTC_CheckEsp
  001d3	8b e5		 mov	 esp, ebp
  001d5	5d		 pop	 ebp
  001d6	c3		 ret	 0
?AddOneLine@Internal@Core@Math@Palmtree@@YAXPAII0II@Z ENDP ; Palmtree::Math::Core::Internal::AddOneLine
_TEXT	ENDS
; Function compile flags: /Odtp /RTCsu
; File z:\sources\lunor\repos\rougemeilland\palmtree.math.core.uint\palmtree.math.core.uint\pmc_divrem.cpp
_TEXT	SEGMENT
_c$ = 8							; size = 1
_u_ptr$ = 12						; size = 4
_u_count$ = 16						; size = 4
?DoCarry@Internal@Core@Math@Palmtree@@YAXDPAII@Z PROC	; Palmtree::Math::Core::Internal::DoCarry

; 1174 :     {

  00000	55		 push	 ebp
  00001	8b ec		 mov	 ebp, esp
  00003	b9 00 00 00 00	 mov	 ecx, OFFSET __E17217E9_pmc_divrem@cpp
  00008	e8 00 00 00 00	 call	 @__CheckForDebuggerJustMyCode@4
$LN4@DoCarry:

; 1175 :         // 繰り上がりを続く限り行う
; 1176 :         for (;;)
; 1177 :         {
; 1178 :             if (u_count <= 0)

  0000d	83 7d 10 00	 cmp	 DWORD PTR _u_count$[ebp], 0
  00011	77 04		 ja	 SHORT $LN5@DoCarry

; 1179 :             {
; 1180 :                 // u の最上位まで達してしまった場合
; 1181 :                 return;

  00013	eb 3e		 jmp	 SHORT $LN1@DoCarry
  00015	eb 3a		 jmp	 SHORT $LN6@DoCarry
$LN5@DoCarry:

; 1182 :             }
; 1183 :             else if (c)

  00017	0f be 45 08	 movsx	 eax, BYTE PTR _c$[ebp]
  0001b	85 c0		 test	 eax, eax
  0001d	74 30		 je	 SHORT $LN7@DoCarry

; 1184 :             {
; 1185 :                 // u の最上位に達しておらず、かつキャリーが立っている場合
; 1186 : 
; 1187 :                 // 繰り上がりを継続する
; 1188 :                 c = _ADD_UNIT(c, *u_ptr, 0, u_ptr);

  0001f	8b 4d 0c	 mov	 ecx, DWORD PTR _u_ptr$[ebp]
  00022	51		 push	 ecx
  00023	6a 00		 push	 0
  00025	8b 55 0c	 mov	 edx, DWORD PTR _u_ptr$[ebp]
  00028	8b 02		 mov	 eax, DWORD PTR [edx]
  0002a	50		 push	 eax
  0002b	0f b6 4d 08	 movzx	 ecx, BYTE PTR _c$[ebp]
  0002f	51		 push	 ecx
  00030	e8 00 00 00 00	 call	 __ADD_UNIT
  00035	83 c4 10	 add	 esp, 16			; 00000010H
  00038	88 45 08	 mov	 BYTE PTR _c$[ebp], al

; 1189 :                 ++u_ptr;

  0003b	8b 55 0c	 mov	 edx, DWORD PTR _u_ptr$[ebp]
  0003e	83 c2 04	 add	 edx, 4
  00041	89 55 0c	 mov	 DWORD PTR _u_ptr$[ebp], edx

; 1190 :                 --u_count;

  00044	8b 45 10	 mov	 eax, DWORD PTR _u_count$[ebp]
  00047	83 e8 01	 sub	 eax, 1
  0004a	89 45 10	 mov	 DWORD PTR _u_count$[ebp], eax

; 1191 :             }
; 1192 :             else

  0004d	eb 02		 jmp	 SHORT $LN6@DoCarry
$LN7@DoCarry:

; 1193 :             {
; 1194 :                 // u の最上位に達しておらず、かつキャリーが立っていない場合
; 1195 : 
; 1196 :                 // 繰り上がりを中断し、復帰する。
; 1197 :                 return;

  0004f	eb 02		 jmp	 SHORT $LN1@DoCarry
$LN6@DoCarry:

; 1198 :             }
; 1199 :         }

  00051	eb ba		 jmp	 SHORT $LN4@DoCarry
$LN1@DoCarry:

; 1200 :     }

  00053	3b ec		 cmp	 ebp, esp
  00055	e8 00 00 00 00	 call	 __RTC_CheckEsp
  0005a	5d		 pop	 ebp
  0005b	c3		 ret	 0
?DoCarry@Internal@Core@Math@Palmtree@@YAXDPAII@Z ENDP	; Palmtree::Math::Core::Internal::DoCarry
_TEXT	ENDS
; Function compile flags: /Odtp /RTCsu
; File z:\sources\lunor\repos\rougemeilland\palmtree.math.core.uint\palmtree.math.core.uint\pmc_divrem.cpp
_TEXT	SEGMENT
_count$ = -32						; size = 4
_c$ = -25						; size = 1
_k$ = -20						; size = 4
_v_count$ = -12						; size = 4
_v_ptr$ = -8						; size = 4
_u_ptr$ = -4						; size = 4
_u_buf$ = 8						; size = 4
_u_buf_len$ = 12					; size = 4
_v_buf$ = 16						; size = 4
_v_buf_len$ = 20					; size = 4
_q_index$ = 24						; size = 4
_q_$ = 28						; size = 4
?SubtructOneLineX@Internal@Core@Math@Palmtree@@YAHPAII0III@Z PROC ; Palmtree::Math::Core::Internal::SubtructOneLineX

; 1023 :     {

  00000	55		 push	 ebp
  00001	8b ec		 mov	 ebp, esp
  00003	83 ec 20	 sub	 esp, 32			; 00000020H
  00006	b8 cc cc cc cc	 mov	 eax, -858993460		; ccccccccH
  0000b	89 45 e0	 mov	 DWORD PTR [ebp-32], eax
  0000e	89 45 e4	 mov	 DWORD PTR [ebp-28], eax
  00011	89 45 e8	 mov	 DWORD PTR [ebp-24], eax
  00014	89 45 ec	 mov	 DWORD PTR [ebp-20], eax
  00017	89 45 f0	 mov	 DWORD PTR [ebp-16], eax
  0001a	89 45 f4	 mov	 DWORD PTR [ebp-12], eax
  0001d	89 45 f8	 mov	 DWORD PTR [ebp-8], eax
  00020	89 45 fc	 mov	 DWORD PTR [ebp-4], eax
  00023	b9 00 00 00 00	 mov	 ecx, OFFSET __E17217E9_pmc_divrem@cpp
  00028	e8 00 00 00 00	 call	 @__CheckForDebuggerJustMyCode@4

; 1024 :         __UNIT_TYPE* u_ptr = &u_buf[q_index];

  0002d	8b 45 18	 mov	 eax, DWORD PTR _q_index$[ebp]
  00030	8b 4d 08	 mov	 ecx, DWORD PTR _u_buf$[ebp]
  00033	8d 14 81	 lea	 edx, DWORD PTR [ecx+eax*4]
  00036	89 55 fc	 mov	 DWORD PTR _u_ptr$[ebp], edx

; 1025 :         __UNIT_TYPE* v_ptr = &v_buf[0];

  00039	b8 04 00 00 00	 mov	 eax, 4
  0003e	6b c8 00	 imul	 ecx, eax, 0
  00041	03 4d 10	 add	 ecx, DWORD PTR _v_buf$[ebp]
  00044	89 4d f8	 mov	 DWORD PTR _v_ptr$[ebp], ecx

; 1026 :         __UNIT_TYPE v_count = v_buf_len;

  00047	8b 55 14	 mov	 edx, DWORD PTR _v_buf_len$[ebp]
  0004a	89 55 f4	 mov	 DWORD PTR _v_count$[ebp], edx

; 1027 :         __UNIT_TYPE k = 0;

  0004d	c7 45 ec 00 00
	00 00		 mov	 DWORD PTR _k$[ebp], 0

; 1028 :         char c = 0;

  00054	c6 45 e7 00	 mov	 BYTE PTR _c$[ebp], 0

; 1029 : 
; 1030 :         __UNIT_TYPE count = v_count >> 5;

  00058	8b 45 f4	 mov	 eax, DWORD PTR _v_count$[ebp]
  0005b	c1 e8 05	 shr	 eax, 5
  0005e	89 45 e0	 mov	 DWORD PTR _count$[ebp], eax
$LN2@SubtructOn:

; 1031 :         while (count != 0)

  00061	83 7d e0 00	 cmp	 DWORD PTR _count$[ebp], 0
  00065	0f 84 3d 06 00
	00		 je	 $LN3@SubtructOn

; 1032 :         {
; 1033 :             c = _MULTIPLYX_DIGIT_UNIT_DIV(c, &k, &v_ptr[0], q_, &u_ptr[0]);

  0006b	b9 04 00 00 00	 mov	 ecx, 4
  00070	6b d1 00	 imul	 edx, ecx, 0
  00073	03 55 fc	 add	 edx, DWORD PTR _u_ptr$[ebp]
  00076	52		 push	 edx
  00077	8b 45 1c	 mov	 eax, DWORD PTR _q_$[ebp]
  0007a	50		 push	 eax
  0007b	b9 04 00 00 00	 mov	 ecx, 4
  00080	6b d1 00	 imul	 edx, ecx, 0
  00083	03 55 f8	 add	 edx, DWORD PTR _v_ptr$[ebp]
  00086	52		 push	 edx
  00087	8d 45 ec	 lea	 eax, DWORD PTR _k$[ebp]
  0008a	50		 push	 eax
  0008b	0f b6 4d e7	 movzx	 ecx, BYTE PTR _c$[ebp]
  0008f	51		 push	 ecx
  00090	e8 00 00 00 00	 call	 ?_MULTIPLYX_DIGIT_UNIT_DIV@Internal@Core@Math@Palmtree@@YADDPAI0I0@Z ; Palmtree::Math::Core::Internal::_MULTIPLYX_DIGIT_UNIT_DIV
  00095	83 c4 14	 add	 esp, 20			; 00000014H
  00098	88 45 e7	 mov	 BYTE PTR _c$[ebp], al

; 1034 :             c = _MULTIPLYX_DIGIT_UNIT_DIV(c, &k, &v_ptr[1], q_, &u_ptr[1]);

  0009b	ba 04 00 00 00	 mov	 edx, 4
  000a0	c1 e2 00	 shl	 edx, 0
  000a3	03 55 fc	 add	 edx, DWORD PTR _u_ptr$[ebp]
  000a6	52		 push	 edx
  000a7	8b 45 1c	 mov	 eax, DWORD PTR _q_$[ebp]
  000aa	50		 push	 eax
  000ab	b9 04 00 00 00	 mov	 ecx, 4
  000b0	c1 e1 00	 shl	 ecx, 0
  000b3	03 4d f8	 add	 ecx, DWORD PTR _v_ptr$[ebp]
  000b6	51		 push	 ecx
  000b7	8d 55 ec	 lea	 edx, DWORD PTR _k$[ebp]
  000ba	52		 push	 edx
  000bb	0f b6 45 e7	 movzx	 eax, BYTE PTR _c$[ebp]
  000bf	50		 push	 eax
  000c0	e8 00 00 00 00	 call	 ?_MULTIPLYX_DIGIT_UNIT_DIV@Internal@Core@Math@Palmtree@@YADDPAI0I0@Z ; Palmtree::Math::Core::Internal::_MULTIPLYX_DIGIT_UNIT_DIV
  000c5	83 c4 14	 add	 esp, 20			; 00000014H
  000c8	88 45 e7	 mov	 BYTE PTR _c$[ebp], al

; 1035 :             c = _MULTIPLYX_DIGIT_UNIT_DIV(c, &k, &v_ptr[2], q_, &u_ptr[2]);

  000cb	b9 04 00 00 00	 mov	 ecx, 4
  000d0	d1 e1		 shl	 ecx, 1
  000d2	03 4d fc	 add	 ecx, DWORD PTR _u_ptr$[ebp]
  000d5	51		 push	 ecx
  000d6	8b 55 1c	 mov	 edx, DWORD PTR _q_$[ebp]
  000d9	52		 push	 edx
  000da	b8 04 00 00 00	 mov	 eax, 4
  000df	d1 e0		 shl	 eax, 1
  000e1	03 45 f8	 add	 eax, DWORD PTR _v_ptr$[ebp]
  000e4	50		 push	 eax
  000e5	8d 4d ec	 lea	 ecx, DWORD PTR _k$[ebp]
  000e8	51		 push	 ecx
  000e9	0f b6 55 e7	 movzx	 edx, BYTE PTR _c$[ebp]
  000ed	52		 push	 edx
  000ee	e8 00 00 00 00	 call	 ?_MULTIPLYX_DIGIT_UNIT_DIV@Internal@Core@Math@Palmtree@@YADDPAI0I0@Z ; Palmtree::Math::Core::Internal::_MULTIPLYX_DIGIT_UNIT_DIV
  000f3	83 c4 14	 add	 esp, 20			; 00000014H
  000f6	88 45 e7	 mov	 BYTE PTR _c$[ebp], al

; 1036 :             c = _MULTIPLYX_DIGIT_UNIT_DIV(c, &k, &v_ptr[3], q_, &u_ptr[3]);

  000f9	b8 04 00 00 00	 mov	 eax, 4
  000fe	6b c8 03	 imul	 ecx, eax, 3
  00101	03 4d fc	 add	 ecx, DWORD PTR _u_ptr$[ebp]
  00104	51		 push	 ecx
  00105	8b 55 1c	 mov	 edx, DWORD PTR _q_$[ebp]
  00108	52		 push	 edx
  00109	b8 04 00 00 00	 mov	 eax, 4
  0010e	6b c8 03	 imul	 ecx, eax, 3
  00111	03 4d f8	 add	 ecx, DWORD PTR _v_ptr$[ebp]
  00114	51		 push	 ecx
  00115	8d 55 ec	 lea	 edx, DWORD PTR _k$[ebp]
  00118	52		 push	 edx
  00119	0f b6 45 e7	 movzx	 eax, BYTE PTR _c$[ebp]
  0011d	50		 push	 eax
  0011e	e8 00 00 00 00	 call	 ?_MULTIPLYX_DIGIT_UNIT_DIV@Internal@Core@Math@Palmtree@@YADDPAI0I0@Z ; Palmtree::Math::Core::Internal::_MULTIPLYX_DIGIT_UNIT_DIV
  00123	83 c4 14	 add	 esp, 20			; 00000014H
  00126	88 45 e7	 mov	 BYTE PTR _c$[ebp], al

; 1037 :             c = _MULTIPLYX_DIGIT_UNIT_DIV(c, &k, &v_ptr[4], q_, &u_ptr[4]);

  00129	b9 04 00 00 00	 mov	 ecx, 4
  0012e	c1 e1 02	 shl	 ecx, 2
  00131	03 4d fc	 add	 ecx, DWORD PTR _u_ptr$[ebp]
  00134	51		 push	 ecx
  00135	8b 55 1c	 mov	 edx, DWORD PTR _q_$[ebp]
  00138	52		 push	 edx
  00139	b8 04 00 00 00	 mov	 eax, 4
  0013e	c1 e0 02	 shl	 eax, 2
  00141	03 45 f8	 add	 eax, DWORD PTR _v_ptr$[ebp]
  00144	50		 push	 eax
  00145	8d 4d ec	 lea	 ecx, DWORD PTR _k$[ebp]
  00148	51		 push	 ecx
  00149	0f b6 55 e7	 movzx	 edx, BYTE PTR _c$[ebp]
  0014d	52		 push	 edx
  0014e	e8 00 00 00 00	 call	 ?_MULTIPLYX_DIGIT_UNIT_DIV@Internal@Core@Math@Palmtree@@YADDPAI0I0@Z ; Palmtree::Math::Core::Internal::_MULTIPLYX_DIGIT_UNIT_DIV
  00153	83 c4 14	 add	 esp, 20			; 00000014H
  00156	88 45 e7	 mov	 BYTE PTR _c$[ebp], al

; 1038 :             c = _MULTIPLYX_DIGIT_UNIT_DIV(c, &k, &v_ptr[5], q_, &u_ptr[5]);

  00159	b8 04 00 00 00	 mov	 eax, 4
  0015e	6b c8 05	 imul	 ecx, eax, 5
  00161	03 4d fc	 add	 ecx, DWORD PTR _u_ptr$[ebp]
  00164	51		 push	 ecx
  00165	8b 55 1c	 mov	 edx, DWORD PTR _q_$[ebp]
  00168	52		 push	 edx
  00169	b8 04 00 00 00	 mov	 eax, 4
  0016e	6b c8 05	 imul	 ecx, eax, 5
  00171	03 4d f8	 add	 ecx, DWORD PTR _v_ptr$[ebp]
  00174	51		 push	 ecx
  00175	8d 55 ec	 lea	 edx, DWORD PTR _k$[ebp]
  00178	52		 push	 edx
  00179	0f b6 45 e7	 movzx	 eax, BYTE PTR _c$[ebp]
  0017d	50		 push	 eax
  0017e	e8 00 00 00 00	 call	 ?_MULTIPLYX_DIGIT_UNIT_DIV@Internal@Core@Math@Palmtree@@YADDPAI0I0@Z ; Palmtree::Math::Core::Internal::_MULTIPLYX_DIGIT_UNIT_DIV
  00183	83 c4 14	 add	 esp, 20			; 00000014H
  00186	88 45 e7	 mov	 BYTE PTR _c$[ebp], al

; 1039 :             c = _MULTIPLYX_DIGIT_UNIT_DIV(c, &k, &v_ptr[6], q_, &u_ptr[6]);

  00189	b9 04 00 00 00	 mov	 ecx, 4
  0018e	6b d1 06	 imul	 edx, ecx, 6
  00191	03 55 fc	 add	 edx, DWORD PTR _u_ptr$[ebp]
  00194	52		 push	 edx
  00195	8b 45 1c	 mov	 eax, DWORD PTR _q_$[ebp]
  00198	50		 push	 eax
  00199	b9 04 00 00 00	 mov	 ecx, 4
  0019e	6b d1 06	 imul	 edx, ecx, 6
  001a1	03 55 f8	 add	 edx, DWORD PTR _v_ptr$[ebp]
  001a4	52		 push	 edx
  001a5	8d 45 ec	 lea	 eax, DWORD PTR _k$[ebp]
  001a8	50		 push	 eax
  001a9	0f b6 4d e7	 movzx	 ecx, BYTE PTR _c$[ebp]
  001ad	51		 push	 ecx
  001ae	e8 00 00 00 00	 call	 ?_MULTIPLYX_DIGIT_UNIT_DIV@Internal@Core@Math@Palmtree@@YADDPAI0I0@Z ; Palmtree::Math::Core::Internal::_MULTIPLYX_DIGIT_UNIT_DIV
  001b3	83 c4 14	 add	 esp, 20			; 00000014H
  001b6	88 45 e7	 mov	 BYTE PTR _c$[ebp], al

; 1040 :             c = _MULTIPLYX_DIGIT_UNIT_DIV(c, &k, &v_ptr[7], q_, &u_ptr[7]);

  001b9	ba 04 00 00 00	 mov	 edx, 4
  001be	6b c2 07	 imul	 eax, edx, 7
  001c1	03 45 fc	 add	 eax, DWORD PTR _u_ptr$[ebp]
  001c4	50		 push	 eax
  001c5	8b 4d 1c	 mov	 ecx, DWORD PTR _q_$[ebp]
  001c8	51		 push	 ecx
  001c9	ba 04 00 00 00	 mov	 edx, 4
  001ce	6b c2 07	 imul	 eax, edx, 7
  001d1	03 45 f8	 add	 eax, DWORD PTR _v_ptr$[ebp]
  001d4	50		 push	 eax
  001d5	8d 4d ec	 lea	 ecx, DWORD PTR _k$[ebp]
  001d8	51		 push	 ecx
  001d9	0f b6 55 e7	 movzx	 edx, BYTE PTR _c$[ebp]
  001dd	52		 push	 edx
  001de	e8 00 00 00 00	 call	 ?_MULTIPLYX_DIGIT_UNIT_DIV@Internal@Core@Math@Palmtree@@YADDPAI0I0@Z ; Palmtree::Math::Core::Internal::_MULTIPLYX_DIGIT_UNIT_DIV
  001e3	83 c4 14	 add	 esp, 20			; 00000014H
  001e6	88 45 e7	 mov	 BYTE PTR _c$[ebp], al

; 1041 :             c = _MULTIPLYX_DIGIT_UNIT_DIV(c, &k, &v_ptr[8], q_, &u_ptr[8]);

  001e9	b8 04 00 00 00	 mov	 eax, 4
  001ee	c1 e0 03	 shl	 eax, 3
  001f1	03 45 fc	 add	 eax, DWORD PTR _u_ptr$[ebp]
  001f4	50		 push	 eax
  001f5	8b 4d 1c	 mov	 ecx, DWORD PTR _q_$[ebp]
  001f8	51		 push	 ecx
  001f9	ba 04 00 00 00	 mov	 edx, 4
  001fe	c1 e2 03	 shl	 edx, 3
  00201	03 55 f8	 add	 edx, DWORD PTR _v_ptr$[ebp]
  00204	52		 push	 edx
  00205	8d 45 ec	 lea	 eax, DWORD PTR _k$[ebp]
  00208	50		 push	 eax
  00209	0f b6 4d e7	 movzx	 ecx, BYTE PTR _c$[ebp]
  0020d	51		 push	 ecx
  0020e	e8 00 00 00 00	 call	 ?_MULTIPLYX_DIGIT_UNIT_DIV@Internal@Core@Math@Palmtree@@YADDPAI0I0@Z ; Palmtree::Math::Core::Internal::_MULTIPLYX_DIGIT_UNIT_DIV
  00213	83 c4 14	 add	 esp, 20			; 00000014H
  00216	88 45 e7	 mov	 BYTE PTR _c$[ebp], al

; 1042 :             c = _MULTIPLYX_DIGIT_UNIT_DIV(c, &k, &v_ptr[9], q_, &u_ptr[9]);

  00219	ba 04 00 00 00	 mov	 edx, 4
  0021e	6b c2 09	 imul	 eax, edx, 9
  00221	03 45 fc	 add	 eax, DWORD PTR _u_ptr$[ebp]
  00224	50		 push	 eax
  00225	8b 4d 1c	 mov	 ecx, DWORD PTR _q_$[ebp]
  00228	51		 push	 ecx
  00229	ba 04 00 00 00	 mov	 edx, 4
  0022e	6b c2 09	 imul	 eax, edx, 9
  00231	03 45 f8	 add	 eax, DWORD PTR _v_ptr$[ebp]
  00234	50		 push	 eax
  00235	8d 4d ec	 lea	 ecx, DWORD PTR _k$[ebp]
  00238	51		 push	 ecx
  00239	0f b6 55 e7	 movzx	 edx, BYTE PTR _c$[ebp]
  0023d	52		 push	 edx
  0023e	e8 00 00 00 00	 call	 ?_MULTIPLYX_DIGIT_UNIT_DIV@Internal@Core@Math@Palmtree@@YADDPAI0I0@Z ; Palmtree::Math::Core::Internal::_MULTIPLYX_DIGIT_UNIT_DIV
  00243	83 c4 14	 add	 esp, 20			; 00000014H
  00246	88 45 e7	 mov	 BYTE PTR _c$[ebp], al

; 1043 :             c = _MULTIPLYX_DIGIT_UNIT_DIV(c, &k, &v_ptr[10], q_, &u_ptr[10]);

  00249	b8 04 00 00 00	 mov	 eax, 4
  0024e	6b c8 0a	 imul	 ecx, eax, 10
  00251	03 4d fc	 add	 ecx, DWORD PTR _u_ptr$[ebp]
  00254	51		 push	 ecx
  00255	8b 55 1c	 mov	 edx, DWORD PTR _q_$[ebp]
  00258	52		 push	 edx
  00259	b8 04 00 00 00	 mov	 eax, 4
  0025e	6b c8 0a	 imul	 ecx, eax, 10
  00261	03 4d f8	 add	 ecx, DWORD PTR _v_ptr$[ebp]
  00264	51		 push	 ecx
  00265	8d 55 ec	 lea	 edx, DWORD PTR _k$[ebp]
  00268	52		 push	 edx
  00269	0f b6 45 e7	 movzx	 eax, BYTE PTR _c$[ebp]
  0026d	50		 push	 eax
  0026e	e8 00 00 00 00	 call	 ?_MULTIPLYX_DIGIT_UNIT_DIV@Internal@Core@Math@Palmtree@@YADDPAI0I0@Z ; Palmtree::Math::Core::Internal::_MULTIPLYX_DIGIT_UNIT_DIV
  00273	83 c4 14	 add	 esp, 20			; 00000014H
  00276	88 45 e7	 mov	 BYTE PTR _c$[ebp], al

; 1044 :             c = _MULTIPLYX_DIGIT_UNIT_DIV(c, &k, &v_ptr[11], q_, &u_ptr[11]);

  00279	b9 04 00 00 00	 mov	 ecx, 4
  0027e	6b d1 0b	 imul	 edx, ecx, 11
  00281	03 55 fc	 add	 edx, DWORD PTR _u_ptr$[ebp]
  00284	52		 push	 edx
  00285	8b 45 1c	 mov	 eax, DWORD PTR _q_$[ebp]
  00288	50		 push	 eax
  00289	b9 04 00 00 00	 mov	 ecx, 4
  0028e	6b d1 0b	 imul	 edx, ecx, 11
  00291	03 55 f8	 add	 edx, DWORD PTR _v_ptr$[ebp]
  00294	52		 push	 edx
  00295	8d 45 ec	 lea	 eax, DWORD PTR _k$[ebp]
  00298	50		 push	 eax
  00299	0f b6 4d e7	 movzx	 ecx, BYTE PTR _c$[ebp]
  0029d	51		 push	 ecx
  0029e	e8 00 00 00 00	 call	 ?_MULTIPLYX_DIGIT_UNIT_DIV@Internal@Core@Math@Palmtree@@YADDPAI0I0@Z ; Palmtree::Math::Core::Internal::_MULTIPLYX_DIGIT_UNIT_DIV
  002a3	83 c4 14	 add	 esp, 20			; 00000014H
  002a6	88 45 e7	 mov	 BYTE PTR _c$[ebp], al

; 1045 :             c = _MULTIPLYX_DIGIT_UNIT_DIV(c, &k, &v_ptr[12], q_, &u_ptr[12]);

  002a9	ba 04 00 00 00	 mov	 edx, 4
  002ae	6b c2 0c	 imul	 eax, edx, 12
  002b1	03 45 fc	 add	 eax, DWORD PTR _u_ptr$[ebp]
  002b4	50		 push	 eax
  002b5	8b 4d 1c	 mov	 ecx, DWORD PTR _q_$[ebp]
  002b8	51		 push	 ecx
  002b9	ba 04 00 00 00	 mov	 edx, 4
  002be	6b c2 0c	 imul	 eax, edx, 12
  002c1	03 45 f8	 add	 eax, DWORD PTR _v_ptr$[ebp]
  002c4	50		 push	 eax
  002c5	8d 4d ec	 lea	 ecx, DWORD PTR _k$[ebp]
  002c8	51		 push	 ecx
  002c9	0f b6 55 e7	 movzx	 edx, BYTE PTR _c$[ebp]
  002cd	52		 push	 edx
  002ce	e8 00 00 00 00	 call	 ?_MULTIPLYX_DIGIT_UNIT_DIV@Internal@Core@Math@Palmtree@@YADDPAI0I0@Z ; Palmtree::Math::Core::Internal::_MULTIPLYX_DIGIT_UNIT_DIV
  002d3	83 c4 14	 add	 esp, 20			; 00000014H
  002d6	88 45 e7	 mov	 BYTE PTR _c$[ebp], al

; 1046 :             c = _MULTIPLYX_DIGIT_UNIT_DIV(c, &k, &v_ptr[13], q_, &u_ptr[13]);

  002d9	b8 04 00 00 00	 mov	 eax, 4
  002de	6b c8 0d	 imul	 ecx, eax, 13
  002e1	03 4d fc	 add	 ecx, DWORD PTR _u_ptr$[ebp]
  002e4	51		 push	 ecx
  002e5	8b 55 1c	 mov	 edx, DWORD PTR _q_$[ebp]
  002e8	52		 push	 edx
  002e9	b8 04 00 00 00	 mov	 eax, 4
  002ee	6b c8 0d	 imul	 ecx, eax, 13
  002f1	03 4d f8	 add	 ecx, DWORD PTR _v_ptr$[ebp]
  002f4	51		 push	 ecx
  002f5	8d 55 ec	 lea	 edx, DWORD PTR _k$[ebp]
  002f8	52		 push	 edx
  002f9	0f b6 45 e7	 movzx	 eax, BYTE PTR _c$[ebp]
  002fd	50		 push	 eax
  002fe	e8 00 00 00 00	 call	 ?_MULTIPLYX_DIGIT_UNIT_DIV@Internal@Core@Math@Palmtree@@YADDPAI0I0@Z ; Palmtree::Math::Core::Internal::_MULTIPLYX_DIGIT_UNIT_DIV
  00303	83 c4 14	 add	 esp, 20			; 00000014H
  00306	88 45 e7	 mov	 BYTE PTR _c$[ebp], al

; 1047 :             c = _MULTIPLYX_DIGIT_UNIT_DIV(c, &k, &v_ptr[14], q_, &u_ptr[14]);

  00309	b9 04 00 00 00	 mov	 ecx, 4
  0030e	6b d1 0e	 imul	 edx, ecx, 14
  00311	03 55 fc	 add	 edx, DWORD PTR _u_ptr$[ebp]
  00314	52		 push	 edx
  00315	8b 45 1c	 mov	 eax, DWORD PTR _q_$[ebp]
  00318	50		 push	 eax
  00319	b9 04 00 00 00	 mov	 ecx, 4
  0031e	6b d1 0e	 imul	 edx, ecx, 14
  00321	03 55 f8	 add	 edx, DWORD PTR _v_ptr$[ebp]
  00324	52		 push	 edx
  00325	8d 45 ec	 lea	 eax, DWORD PTR _k$[ebp]
  00328	50		 push	 eax
  00329	0f b6 4d e7	 movzx	 ecx, BYTE PTR _c$[ebp]
  0032d	51		 push	 ecx
  0032e	e8 00 00 00 00	 call	 ?_MULTIPLYX_DIGIT_UNIT_DIV@Internal@Core@Math@Palmtree@@YADDPAI0I0@Z ; Palmtree::Math::Core::Internal::_MULTIPLYX_DIGIT_UNIT_DIV
  00333	83 c4 14	 add	 esp, 20			; 00000014H
  00336	88 45 e7	 mov	 BYTE PTR _c$[ebp], al

; 1048 :             c = _MULTIPLYX_DIGIT_UNIT_DIV(c, &k, &v_ptr[15], q_, &u_ptr[15]);

  00339	ba 04 00 00 00	 mov	 edx, 4
  0033e	6b c2 0f	 imul	 eax, edx, 15
  00341	03 45 fc	 add	 eax, DWORD PTR _u_ptr$[ebp]
  00344	50		 push	 eax
  00345	8b 4d 1c	 mov	 ecx, DWORD PTR _q_$[ebp]
  00348	51		 push	 ecx
  00349	ba 04 00 00 00	 mov	 edx, 4
  0034e	6b c2 0f	 imul	 eax, edx, 15
  00351	03 45 f8	 add	 eax, DWORD PTR _v_ptr$[ebp]
  00354	50		 push	 eax
  00355	8d 4d ec	 lea	 ecx, DWORD PTR _k$[ebp]
  00358	51		 push	 ecx
  00359	0f b6 55 e7	 movzx	 edx, BYTE PTR _c$[ebp]
  0035d	52		 push	 edx
  0035e	e8 00 00 00 00	 call	 ?_MULTIPLYX_DIGIT_UNIT_DIV@Internal@Core@Math@Palmtree@@YADDPAI0I0@Z ; Palmtree::Math::Core::Internal::_MULTIPLYX_DIGIT_UNIT_DIV
  00363	83 c4 14	 add	 esp, 20			; 00000014H
  00366	88 45 e7	 mov	 BYTE PTR _c$[ebp], al

; 1049 :             c = _MULTIPLYX_DIGIT_UNIT_DIV(c, &k, &v_ptr[16], q_, &u_ptr[16]);

  00369	b8 04 00 00 00	 mov	 eax, 4
  0036e	c1 e0 04	 shl	 eax, 4
  00371	03 45 fc	 add	 eax, DWORD PTR _u_ptr$[ebp]
  00374	50		 push	 eax
  00375	8b 4d 1c	 mov	 ecx, DWORD PTR _q_$[ebp]
  00378	51		 push	 ecx
  00379	ba 04 00 00 00	 mov	 edx, 4
  0037e	c1 e2 04	 shl	 edx, 4
  00381	03 55 f8	 add	 edx, DWORD PTR _v_ptr$[ebp]
  00384	52		 push	 edx
  00385	8d 45 ec	 lea	 eax, DWORD PTR _k$[ebp]
  00388	50		 push	 eax
  00389	0f b6 4d e7	 movzx	 ecx, BYTE PTR _c$[ebp]
  0038d	51		 push	 ecx
  0038e	e8 00 00 00 00	 call	 ?_MULTIPLYX_DIGIT_UNIT_DIV@Internal@Core@Math@Palmtree@@YADDPAI0I0@Z ; Palmtree::Math::Core::Internal::_MULTIPLYX_DIGIT_UNIT_DIV
  00393	83 c4 14	 add	 esp, 20			; 00000014H
  00396	88 45 e7	 mov	 BYTE PTR _c$[ebp], al

; 1050 :             c = _MULTIPLYX_DIGIT_UNIT_DIV(c, &k, &v_ptr[17], q_, &u_ptr[17]);

  00399	ba 04 00 00 00	 mov	 edx, 4
  0039e	6b c2 11	 imul	 eax, edx, 17
  003a1	03 45 fc	 add	 eax, DWORD PTR _u_ptr$[ebp]
  003a4	50		 push	 eax
  003a5	8b 4d 1c	 mov	 ecx, DWORD PTR _q_$[ebp]
  003a8	51		 push	 ecx
  003a9	ba 04 00 00 00	 mov	 edx, 4
  003ae	6b c2 11	 imul	 eax, edx, 17
  003b1	03 45 f8	 add	 eax, DWORD PTR _v_ptr$[ebp]
  003b4	50		 push	 eax
  003b5	8d 4d ec	 lea	 ecx, DWORD PTR _k$[ebp]
  003b8	51		 push	 ecx
  003b9	0f b6 55 e7	 movzx	 edx, BYTE PTR _c$[ebp]
  003bd	52		 push	 edx
  003be	e8 00 00 00 00	 call	 ?_MULTIPLYX_DIGIT_UNIT_DIV@Internal@Core@Math@Palmtree@@YADDPAI0I0@Z ; Palmtree::Math::Core::Internal::_MULTIPLYX_DIGIT_UNIT_DIV
  003c3	83 c4 14	 add	 esp, 20			; 00000014H
  003c6	88 45 e7	 mov	 BYTE PTR _c$[ebp], al

; 1051 :             c = _MULTIPLYX_DIGIT_UNIT_DIV(c, &k, &v_ptr[18], q_, &u_ptr[18]);

  003c9	b8 04 00 00 00	 mov	 eax, 4
  003ce	6b c8 12	 imul	 ecx, eax, 18
  003d1	03 4d fc	 add	 ecx, DWORD PTR _u_ptr$[ebp]
  003d4	51		 push	 ecx
  003d5	8b 55 1c	 mov	 edx, DWORD PTR _q_$[ebp]
  003d8	52		 push	 edx
  003d9	b8 04 00 00 00	 mov	 eax, 4
  003de	6b c8 12	 imul	 ecx, eax, 18
  003e1	03 4d f8	 add	 ecx, DWORD PTR _v_ptr$[ebp]
  003e4	51		 push	 ecx
  003e5	8d 55 ec	 lea	 edx, DWORD PTR _k$[ebp]
  003e8	52		 push	 edx
  003e9	0f b6 45 e7	 movzx	 eax, BYTE PTR _c$[ebp]
  003ed	50		 push	 eax
  003ee	e8 00 00 00 00	 call	 ?_MULTIPLYX_DIGIT_UNIT_DIV@Internal@Core@Math@Palmtree@@YADDPAI0I0@Z ; Palmtree::Math::Core::Internal::_MULTIPLYX_DIGIT_UNIT_DIV
  003f3	83 c4 14	 add	 esp, 20			; 00000014H
  003f6	88 45 e7	 mov	 BYTE PTR _c$[ebp], al

; 1052 :             c = _MULTIPLYX_DIGIT_UNIT_DIV(c, &k, &v_ptr[19], q_, &u_ptr[19]);

  003f9	b9 04 00 00 00	 mov	 ecx, 4
  003fe	6b d1 13	 imul	 edx, ecx, 19
  00401	03 55 fc	 add	 edx, DWORD PTR _u_ptr$[ebp]
  00404	52		 push	 edx
  00405	8b 45 1c	 mov	 eax, DWORD PTR _q_$[ebp]
  00408	50		 push	 eax
  00409	b9 04 00 00 00	 mov	 ecx, 4
  0040e	6b d1 13	 imul	 edx, ecx, 19
  00411	03 55 f8	 add	 edx, DWORD PTR _v_ptr$[ebp]
  00414	52		 push	 edx
  00415	8d 45 ec	 lea	 eax, DWORD PTR _k$[ebp]
  00418	50		 push	 eax
  00419	0f b6 4d e7	 movzx	 ecx, BYTE PTR _c$[ebp]
  0041d	51		 push	 ecx
  0041e	e8 00 00 00 00	 call	 ?_MULTIPLYX_DIGIT_UNIT_DIV@Internal@Core@Math@Palmtree@@YADDPAI0I0@Z ; Palmtree::Math::Core::Internal::_MULTIPLYX_DIGIT_UNIT_DIV
  00423	83 c4 14	 add	 esp, 20			; 00000014H
  00426	88 45 e7	 mov	 BYTE PTR _c$[ebp], al

; 1053 :             c = _MULTIPLYX_DIGIT_UNIT_DIV(c, &k, &v_ptr[20], q_, &u_ptr[20]);

  00429	ba 04 00 00 00	 mov	 edx, 4
  0042e	6b c2 14	 imul	 eax, edx, 20
  00431	03 45 fc	 add	 eax, DWORD PTR _u_ptr$[ebp]
  00434	50		 push	 eax
  00435	8b 4d 1c	 mov	 ecx, DWORD PTR _q_$[ebp]
  00438	51		 push	 ecx
  00439	ba 04 00 00 00	 mov	 edx, 4
  0043e	6b c2 14	 imul	 eax, edx, 20
  00441	03 45 f8	 add	 eax, DWORD PTR _v_ptr$[ebp]
  00444	50		 push	 eax
  00445	8d 4d ec	 lea	 ecx, DWORD PTR _k$[ebp]
  00448	51		 push	 ecx
  00449	0f b6 55 e7	 movzx	 edx, BYTE PTR _c$[ebp]
  0044d	52		 push	 edx
  0044e	e8 00 00 00 00	 call	 ?_MULTIPLYX_DIGIT_UNIT_DIV@Internal@Core@Math@Palmtree@@YADDPAI0I0@Z ; Palmtree::Math::Core::Internal::_MULTIPLYX_DIGIT_UNIT_DIV
  00453	83 c4 14	 add	 esp, 20			; 00000014H
  00456	88 45 e7	 mov	 BYTE PTR _c$[ebp], al

; 1054 :             c = _MULTIPLYX_DIGIT_UNIT_DIV(c, &k, &v_ptr[21], q_, &u_ptr[21]);

  00459	b8 04 00 00 00	 mov	 eax, 4
  0045e	6b c8 15	 imul	 ecx, eax, 21
  00461	03 4d fc	 add	 ecx, DWORD PTR _u_ptr$[ebp]
  00464	51		 push	 ecx
  00465	8b 55 1c	 mov	 edx, DWORD PTR _q_$[ebp]
  00468	52		 push	 edx
  00469	b8 04 00 00 00	 mov	 eax, 4
  0046e	6b c8 15	 imul	 ecx, eax, 21
  00471	03 4d f8	 add	 ecx, DWORD PTR _v_ptr$[ebp]
  00474	51		 push	 ecx
  00475	8d 55 ec	 lea	 edx, DWORD PTR _k$[ebp]
  00478	52		 push	 edx
  00479	0f b6 45 e7	 movzx	 eax, BYTE PTR _c$[ebp]
  0047d	50		 push	 eax
  0047e	e8 00 00 00 00	 call	 ?_MULTIPLYX_DIGIT_UNIT_DIV@Internal@Core@Math@Palmtree@@YADDPAI0I0@Z ; Palmtree::Math::Core::Internal::_MULTIPLYX_DIGIT_UNIT_DIV
  00483	83 c4 14	 add	 esp, 20			; 00000014H
  00486	88 45 e7	 mov	 BYTE PTR _c$[ebp], al

; 1055 :             c = _MULTIPLYX_DIGIT_UNIT_DIV(c, &k, &v_ptr[22], q_, &u_ptr[22]);

  00489	b9 04 00 00 00	 mov	 ecx, 4
  0048e	6b d1 16	 imul	 edx, ecx, 22
  00491	03 55 fc	 add	 edx, DWORD PTR _u_ptr$[ebp]
  00494	52		 push	 edx
  00495	8b 45 1c	 mov	 eax, DWORD PTR _q_$[ebp]
  00498	50		 push	 eax
  00499	b9 04 00 00 00	 mov	 ecx, 4
  0049e	6b d1 16	 imul	 edx, ecx, 22
  004a1	03 55 f8	 add	 edx, DWORD PTR _v_ptr$[ebp]
  004a4	52		 push	 edx
  004a5	8d 45 ec	 lea	 eax, DWORD PTR _k$[ebp]
  004a8	50		 push	 eax
  004a9	0f b6 4d e7	 movzx	 ecx, BYTE PTR _c$[ebp]
  004ad	51		 push	 ecx
  004ae	e8 00 00 00 00	 call	 ?_MULTIPLYX_DIGIT_UNIT_DIV@Internal@Core@Math@Palmtree@@YADDPAI0I0@Z ; Palmtree::Math::Core::Internal::_MULTIPLYX_DIGIT_UNIT_DIV
  004b3	83 c4 14	 add	 esp, 20			; 00000014H
  004b6	88 45 e7	 mov	 BYTE PTR _c$[ebp], al

; 1056 :             c = _MULTIPLYX_DIGIT_UNIT_DIV(c, &k, &v_ptr[23], q_, &u_ptr[23]);

  004b9	ba 04 00 00 00	 mov	 edx, 4
  004be	6b c2 17	 imul	 eax, edx, 23
  004c1	03 45 fc	 add	 eax, DWORD PTR _u_ptr$[ebp]
  004c4	50		 push	 eax
  004c5	8b 4d 1c	 mov	 ecx, DWORD PTR _q_$[ebp]
  004c8	51		 push	 ecx
  004c9	ba 04 00 00 00	 mov	 edx, 4
  004ce	6b c2 17	 imul	 eax, edx, 23
  004d1	03 45 f8	 add	 eax, DWORD PTR _v_ptr$[ebp]
  004d4	50		 push	 eax
  004d5	8d 4d ec	 lea	 ecx, DWORD PTR _k$[ebp]
  004d8	51		 push	 ecx
  004d9	0f b6 55 e7	 movzx	 edx, BYTE PTR _c$[ebp]
  004dd	52		 push	 edx
  004de	e8 00 00 00 00	 call	 ?_MULTIPLYX_DIGIT_UNIT_DIV@Internal@Core@Math@Palmtree@@YADDPAI0I0@Z ; Palmtree::Math::Core::Internal::_MULTIPLYX_DIGIT_UNIT_DIV
  004e3	83 c4 14	 add	 esp, 20			; 00000014H
  004e6	88 45 e7	 mov	 BYTE PTR _c$[ebp], al

; 1057 :             c = _MULTIPLYX_DIGIT_UNIT_DIV(c, &k, &v_ptr[24], q_, &u_ptr[24]);

  004e9	b8 04 00 00 00	 mov	 eax, 4
  004ee	6b c8 18	 imul	 ecx, eax, 24
  004f1	03 4d fc	 add	 ecx, DWORD PTR _u_ptr$[ebp]
  004f4	51		 push	 ecx
  004f5	8b 55 1c	 mov	 edx, DWORD PTR _q_$[ebp]
  004f8	52		 push	 edx
  004f9	b8 04 00 00 00	 mov	 eax, 4
  004fe	6b c8 18	 imul	 ecx, eax, 24
  00501	03 4d f8	 add	 ecx, DWORD PTR _v_ptr$[ebp]
  00504	51		 push	 ecx
  00505	8d 55 ec	 lea	 edx, DWORD PTR _k$[ebp]
  00508	52		 push	 edx
  00509	0f b6 45 e7	 movzx	 eax, BYTE PTR _c$[ebp]
  0050d	50		 push	 eax
  0050e	e8 00 00 00 00	 call	 ?_MULTIPLYX_DIGIT_UNIT_DIV@Internal@Core@Math@Palmtree@@YADDPAI0I0@Z ; Palmtree::Math::Core::Internal::_MULTIPLYX_DIGIT_UNIT_DIV
  00513	83 c4 14	 add	 esp, 20			; 00000014H
  00516	88 45 e7	 mov	 BYTE PTR _c$[ebp], al

; 1058 :             c = _MULTIPLYX_DIGIT_UNIT_DIV(c, &k, &v_ptr[25], q_, &u_ptr[25]);

  00519	b9 04 00 00 00	 mov	 ecx, 4
  0051e	6b d1 19	 imul	 edx, ecx, 25
  00521	03 55 fc	 add	 edx, DWORD PTR _u_ptr$[ebp]
  00524	52		 push	 edx
  00525	8b 45 1c	 mov	 eax, DWORD PTR _q_$[ebp]
  00528	50		 push	 eax
  00529	b9 04 00 00 00	 mov	 ecx, 4
  0052e	6b d1 19	 imul	 edx, ecx, 25
  00531	03 55 f8	 add	 edx, DWORD PTR _v_ptr$[ebp]
  00534	52		 push	 edx
  00535	8d 45 ec	 lea	 eax, DWORD PTR _k$[ebp]
  00538	50		 push	 eax
  00539	0f b6 4d e7	 movzx	 ecx, BYTE PTR _c$[ebp]
  0053d	51		 push	 ecx
  0053e	e8 00 00 00 00	 call	 ?_MULTIPLYX_DIGIT_UNIT_DIV@Internal@Core@Math@Palmtree@@YADDPAI0I0@Z ; Palmtree::Math::Core::Internal::_MULTIPLYX_DIGIT_UNIT_DIV
  00543	83 c4 14	 add	 esp, 20			; 00000014H
  00546	88 45 e7	 mov	 BYTE PTR _c$[ebp], al

; 1059 :             c = _MULTIPLYX_DIGIT_UNIT_DIV(c, &k, &v_ptr[26], q_, &u_ptr[26]);

  00549	ba 04 00 00 00	 mov	 edx, 4
  0054e	6b c2 1a	 imul	 eax, edx, 26
  00551	03 45 fc	 add	 eax, DWORD PTR _u_ptr$[ebp]
  00554	50		 push	 eax
  00555	8b 4d 1c	 mov	 ecx, DWORD PTR _q_$[ebp]
  00558	51		 push	 ecx
  00559	ba 04 00 00 00	 mov	 edx, 4
  0055e	6b c2 1a	 imul	 eax, edx, 26
  00561	03 45 f8	 add	 eax, DWORD PTR _v_ptr$[ebp]
  00564	50		 push	 eax
  00565	8d 4d ec	 lea	 ecx, DWORD PTR _k$[ebp]
  00568	51		 push	 ecx
  00569	0f b6 55 e7	 movzx	 edx, BYTE PTR _c$[ebp]
  0056d	52		 push	 edx
  0056e	e8 00 00 00 00	 call	 ?_MULTIPLYX_DIGIT_UNIT_DIV@Internal@Core@Math@Palmtree@@YADDPAI0I0@Z ; Palmtree::Math::Core::Internal::_MULTIPLYX_DIGIT_UNIT_DIV
  00573	83 c4 14	 add	 esp, 20			; 00000014H
  00576	88 45 e7	 mov	 BYTE PTR _c$[ebp], al

; 1060 :             c = _MULTIPLYX_DIGIT_UNIT_DIV(c, &k, &v_ptr[27], q_, &u_ptr[27]);

  00579	b8 04 00 00 00	 mov	 eax, 4
  0057e	6b c8 1b	 imul	 ecx, eax, 27
  00581	03 4d fc	 add	 ecx, DWORD PTR _u_ptr$[ebp]
  00584	51		 push	 ecx
  00585	8b 55 1c	 mov	 edx, DWORD PTR _q_$[ebp]
  00588	52		 push	 edx
  00589	b8 04 00 00 00	 mov	 eax, 4
  0058e	6b c8 1b	 imul	 ecx, eax, 27
  00591	03 4d f8	 add	 ecx, DWORD PTR _v_ptr$[ebp]
  00594	51		 push	 ecx
  00595	8d 55 ec	 lea	 edx, DWORD PTR _k$[ebp]
  00598	52		 push	 edx
  00599	0f b6 45 e7	 movzx	 eax, BYTE PTR _c$[ebp]
  0059d	50		 push	 eax
  0059e	e8 00 00 00 00	 call	 ?_MULTIPLYX_DIGIT_UNIT_DIV@Internal@Core@Math@Palmtree@@YADDPAI0I0@Z ; Palmtree::Math::Core::Internal::_MULTIPLYX_DIGIT_UNIT_DIV
  005a3	83 c4 14	 add	 esp, 20			; 00000014H
  005a6	88 45 e7	 mov	 BYTE PTR _c$[ebp], al

; 1061 :             c = _MULTIPLYX_DIGIT_UNIT_DIV(c, &k, &v_ptr[28], q_, &u_ptr[28]);

  005a9	b9 04 00 00 00	 mov	 ecx, 4
  005ae	6b d1 1c	 imul	 edx, ecx, 28
  005b1	03 55 fc	 add	 edx, DWORD PTR _u_ptr$[ebp]
  005b4	52		 push	 edx
  005b5	8b 45 1c	 mov	 eax, DWORD PTR _q_$[ebp]
  005b8	50		 push	 eax
  005b9	b9 04 00 00 00	 mov	 ecx, 4
  005be	6b d1 1c	 imul	 edx, ecx, 28
  005c1	03 55 f8	 add	 edx, DWORD PTR _v_ptr$[ebp]
  005c4	52		 push	 edx
  005c5	8d 45 ec	 lea	 eax, DWORD PTR _k$[ebp]
  005c8	50		 push	 eax
  005c9	0f b6 4d e7	 movzx	 ecx, BYTE PTR _c$[ebp]
  005cd	51		 push	 ecx
  005ce	e8 00 00 00 00	 call	 ?_MULTIPLYX_DIGIT_UNIT_DIV@Internal@Core@Math@Palmtree@@YADDPAI0I0@Z ; Palmtree::Math::Core::Internal::_MULTIPLYX_DIGIT_UNIT_DIV
  005d3	83 c4 14	 add	 esp, 20			; 00000014H
  005d6	88 45 e7	 mov	 BYTE PTR _c$[ebp], al

; 1062 :             c = _MULTIPLYX_DIGIT_UNIT_DIV(c, &k, &v_ptr[29], q_, &u_ptr[29]);

  005d9	ba 04 00 00 00	 mov	 edx, 4
  005de	6b c2 1d	 imul	 eax, edx, 29
  005e1	03 45 fc	 add	 eax, DWORD PTR _u_ptr$[ebp]
  005e4	50		 push	 eax
  005e5	8b 4d 1c	 mov	 ecx, DWORD PTR _q_$[ebp]
  005e8	51		 push	 ecx
  005e9	ba 04 00 00 00	 mov	 edx, 4
  005ee	6b c2 1d	 imul	 eax, edx, 29
  005f1	03 45 f8	 add	 eax, DWORD PTR _v_ptr$[ebp]
  005f4	50		 push	 eax
  005f5	8d 4d ec	 lea	 ecx, DWORD PTR _k$[ebp]
  005f8	51		 push	 ecx
  005f9	0f b6 55 e7	 movzx	 edx, BYTE PTR _c$[ebp]
  005fd	52		 push	 edx
  005fe	e8 00 00 00 00	 call	 ?_MULTIPLYX_DIGIT_UNIT_DIV@Internal@Core@Math@Palmtree@@YADDPAI0I0@Z ; Palmtree::Math::Core::Internal::_MULTIPLYX_DIGIT_UNIT_DIV
  00603	83 c4 14	 add	 esp, 20			; 00000014H
  00606	88 45 e7	 mov	 BYTE PTR _c$[ebp], al

; 1063 :             c = _MULTIPLYX_DIGIT_UNIT_DIV(c, &k, &v_ptr[30], q_, &u_ptr[30]);

  00609	b8 04 00 00 00	 mov	 eax, 4
  0060e	6b c8 1e	 imul	 ecx, eax, 30
  00611	03 4d fc	 add	 ecx, DWORD PTR _u_ptr$[ebp]
  00614	51		 push	 ecx
  00615	8b 55 1c	 mov	 edx, DWORD PTR _q_$[ebp]
  00618	52		 push	 edx
  00619	b8 04 00 00 00	 mov	 eax, 4
  0061e	6b c8 1e	 imul	 ecx, eax, 30
  00621	03 4d f8	 add	 ecx, DWORD PTR _v_ptr$[ebp]
  00624	51		 push	 ecx
  00625	8d 55 ec	 lea	 edx, DWORD PTR _k$[ebp]
  00628	52		 push	 edx
  00629	0f b6 45 e7	 movzx	 eax, BYTE PTR _c$[ebp]
  0062d	50		 push	 eax
  0062e	e8 00 00 00 00	 call	 ?_MULTIPLYX_DIGIT_UNIT_DIV@Internal@Core@Math@Palmtree@@YADDPAI0I0@Z ; Palmtree::Math::Core::Internal::_MULTIPLYX_DIGIT_UNIT_DIV
  00633	83 c4 14	 add	 esp, 20			; 00000014H
  00636	88 45 e7	 mov	 BYTE PTR _c$[ebp], al

; 1064 :             c = _MULTIPLYX_DIGIT_UNIT_DIV(c, &k, &v_ptr[31], q_, &u_ptr[31]);

  00639	b9 04 00 00 00	 mov	 ecx, 4
  0063e	6b d1 1f	 imul	 edx, ecx, 31
  00641	03 55 fc	 add	 edx, DWORD PTR _u_ptr$[ebp]
  00644	52		 push	 edx
  00645	8b 45 1c	 mov	 eax, DWORD PTR _q_$[ebp]
  00648	50		 push	 eax
  00649	b9 04 00 00 00	 mov	 ecx, 4
  0064e	6b d1 1f	 imul	 edx, ecx, 31
  00651	03 55 f8	 add	 edx, DWORD PTR _v_ptr$[ebp]
  00654	52		 push	 edx
  00655	8d 45 ec	 lea	 eax, DWORD PTR _k$[ebp]
  00658	50		 push	 eax
  00659	0f b6 4d e7	 movzx	 ecx, BYTE PTR _c$[ebp]
  0065d	51		 push	 ecx
  0065e	e8 00 00 00 00	 call	 ?_MULTIPLYX_DIGIT_UNIT_DIV@Internal@Core@Math@Palmtree@@YADDPAI0I0@Z ; Palmtree::Math::Core::Internal::_MULTIPLYX_DIGIT_UNIT_DIV
  00663	83 c4 14	 add	 esp, 20			; 00000014H
  00666	88 45 e7	 mov	 BYTE PTR _c$[ebp], al

; 1065 :             u_ptr += 32;

  00669	8b 55 fc	 mov	 edx, DWORD PTR _u_ptr$[ebp]
  0066c	81 c2 80 00 00
	00		 add	 edx, 128		; 00000080H
  00672	89 55 fc	 mov	 DWORD PTR _u_ptr$[ebp], edx

; 1066 :             v_ptr += 32;

  00675	8b 45 f8	 mov	 eax, DWORD PTR _v_ptr$[ebp]
  00678	05 80 00 00 00	 add	 eax, 128		; 00000080H
  0067d	89 45 f8	 mov	 DWORD PTR _v_ptr$[ebp], eax

; 1067 :             --count;

  00680	8b 4d e0	 mov	 ecx, DWORD PTR _count$[ebp]
  00683	83 e9 01	 sub	 ecx, 1
  00686	89 4d e0	 mov	 DWORD PTR _count$[ebp], ecx

; 1068 : #ifdef ENABLED_PERFORMANCE_COUNTER
; 1069 :             if (sizeof(k) == sizeof(_UINT64_T))

  00689	33 d2		 xor	 edx, edx
  0068b	74 0c		 je	 SHORT $LN4@SubtructOn

; 1070 :                 AddToMULTI64Counter(32);

  0068d	6a 20		 push	 32			; 00000020H
  0068f	e8 00 00 00 00	 call	 ?AddToMULTI64Counter@Internal@Core@Math@Palmtree@@YAXH@Z ; Palmtree::Math::Core::Internal::AddToMULTI64Counter
  00694	83 c4 04	 add	 esp, 4

; 1071 :             else

  00697	eb 0a		 jmp	 SHORT $LN5@SubtructOn
$LN4@SubtructOn:

; 1072 :                 AddToMULTI32Counter(32);

  00699	6a 20		 push	 32			; 00000020H
  0069b	e8 00 00 00 00	 call	 ?AddToMULTI32Counter@Internal@Core@Math@Palmtree@@YAXH@Z ; Palmtree::Math::Core::Internal::AddToMULTI32Counter
  006a0	83 c4 04	 add	 esp, 4
$LN5@SubtructOn:

; 1073 : #endif
; 1074 :         }

  006a3	e9 b9 f9 ff ff	 jmp	 $LN2@SubtructOn
$LN3@SubtructOn:

; 1075 : 
; 1076 :         if (v_count & 0x10)

  006a8	8b 45 f4	 mov	 eax, DWORD PTR _v_count$[ebp]
  006ab	83 e0 10	 and	 eax, 16			; 00000010H
  006ae	0f 84 2a 03 00
	00		 je	 $LN6@SubtructOn

; 1077 :         {
; 1078 :             c = _MULTIPLYX_DIGIT_UNIT_DIV(c, &k, &v_ptr[0], q_, &u_ptr[0]);

  006b4	b9 04 00 00 00	 mov	 ecx, 4
  006b9	6b d1 00	 imul	 edx, ecx, 0
  006bc	03 55 fc	 add	 edx, DWORD PTR _u_ptr$[ebp]
  006bf	52		 push	 edx
  006c0	8b 45 1c	 mov	 eax, DWORD PTR _q_$[ebp]
  006c3	50		 push	 eax
  006c4	b9 04 00 00 00	 mov	 ecx, 4
  006c9	6b d1 00	 imul	 edx, ecx, 0
  006cc	03 55 f8	 add	 edx, DWORD PTR _v_ptr$[ebp]
  006cf	52		 push	 edx
  006d0	8d 45 ec	 lea	 eax, DWORD PTR _k$[ebp]
  006d3	50		 push	 eax
  006d4	0f b6 4d e7	 movzx	 ecx, BYTE PTR _c$[ebp]
  006d8	51		 push	 ecx
  006d9	e8 00 00 00 00	 call	 ?_MULTIPLYX_DIGIT_UNIT_DIV@Internal@Core@Math@Palmtree@@YADDPAI0I0@Z ; Palmtree::Math::Core::Internal::_MULTIPLYX_DIGIT_UNIT_DIV
  006de	83 c4 14	 add	 esp, 20			; 00000014H
  006e1	88 45 e7	 mov	 BYTE PTR _c$[ebp], al

; 1079 :             c = _MULTIPLYX_DIGIT_UNIT_DIV(c, &k, &v_ptr[1], q_, &u_ptr[1]);

  006e4	ba 04 00 00 00	 mov	 edx, 4
  006e9	c1 e2 00	 shl	 edx, 0
  006ec	03 55 fc	 add	 edx, DWORD PTR _u_ptr$[ebp]
  006ef	52		 push	 edx
  006f0	8b 45 1c	 mov	 eax, DWORD PTR _q_$[ebp]
  006f3	50		 push	 eax
  006f4	b9 04 00 00 00	 mov	 ecx, 4
  006f9	c1 e1 00	 shl	 ecx, 0
  006fc	03 4d f8	 add	 ecx, DWORD PTR _v_ptr$[ebp]
  006ff	51		 push	 ecx
  00700	8d 55 ec	 lea	 edx, DWORD PTR _k$[ebp]
  00703	52		 push	 edx
  00704	0f b6 45 e7	 movzx	 eax, BYTE PTR _c$[ebp]
  00708	50		 push	 eax
  00709	e8 00 00 00 00	 call	 ?_MULTIPLYX_DIGIT_UNIT_DIV@Internal@Core@Math@Palmtree@@YADDPAI0I0@Z ; Palmtree::Math::Core::Internal::_MULTIPLYX_DIGIT_UNIT_DIV
  0070e	83 c4 14	 add	 esp, 20			; 00000014H
  00711	88 45 e7	 mov	 BYTE PTR _c$[ebp], al

; 1080 :             c = _MULTIPLYX_DIGIT_UNIT_DIV(c, &k, &v_ptr[2], q_, &u_ptr[2]);

  00714	b9 04 00 00 00	 mov	 ecx, 4
  00719	d1 e1		 shl	 ecx, 1
  0071b	03 4d fc	 add	 ecx, DWORD PTR _u_ptr$[ebp]
  0071e	51		 push	 ecx
  0071f	8b 55 1c	 mov	 edx, DWORD PTR _q_$[ebp]
  00722	52		 push	 edx
  00723	b8 04 00 00 00	 mov	 eax, 4
  00728	d1 e0		 shl	 eax, 1
  0072a	03 45 f8	 add	 eax, DWORD PTR _v_ptr$[ebp]
  0072d	50		 push	 eax
  0072e	8d 4d ec	 lea	 ecx, DWORD PTR _k$[ebp]
  00731	51		 push	 ecx
  00732	0f b6 55 e7	 movzx	 edx, BYTE PTR _c$[ebp]
  00736	52		 push	 edx
  00737	e8 00 00 00 00	 call	 ?_MULTIPLYX_DIGIT_UNIT_DIV@Internal@Core@Math@Palmtree@@YADDPAI0I0@Z ; Palmtree::Math::Core::Internal::_MULTIPLYX_DIGIT_UNIT_DIV
  0073c	83 c4 14	 add	 esp, 20			; 00000014H
  0073f	88 45 e7	 mov	 BYTE PTR _c$[ebp], al

; 1081 :             c = _MULTIPLYX_DIGIT_UNIT_DIV(c, &k, &v_ptr[3], q_, &u_ptr[3]);

  00742	b8 04 00 00 00	 mov	 eax, 4
  00747	6b c8 03	 imul	 ecx, eax, 3
  0074a	03 4d fc	 add	 ecx, DWORD PTR _u_ptr$[ebp]
  0074d	51		 push	 ecx
  0074e	8b 55 1c	 mov	 edx, DWORD PTR _q_$[ebp]
  00751	52		 push	 edx
  00752	b8 04 00 00 00	 mov	 eax, 4
  00757	6b c8 03	 imul	 ecx, eax, 3
  0075a	03 4d f8	 add	 ecx, DWORD PTR _v_ptr$[ebp]
  0075d	51		 push	 ecx
  0075e	8d 55 ec	 lea	 edx, DWORD PTR _k$[ebp]
  00761	52		 push	 edx
  00762	0f b6 45 e7	 movzx	 eax, BYTE PTR _c$[ebp]
  00766	50		 push	 eax
  00767	e8 00 00 00 00	 call	 ?_MULTIPLYX_DIGIT_UNIT_DIV@Internal@Core@Math@Palmtree@@YADDPAI0I0@Z ; Palmtree::Math::Core::Internal::_MULTIPLYX_DIGIT_UNIT_DIV
  0076c	83 c4 14	 add	 esp, 20			; 00000014H
  0076f	88 45 e7	 mov	 BYTE PTR _c$[ebp], al

; 1082 :             c = _MULTIPLYX_DIGIT_UNIT_DIV(c, &k, &v_ptr[4], q_, &u_ptr[4]);

  00772	b9 04 00 00 00	 mov	 ecx, 4
  00777	c1 e1 02	 shl	 ecx, 2
  0077a	03 4d fc	 add	 ecx, DWORD PTR _u_ptr$[ebp]
  0077d	51		 push	 ecx
  0077e	8b 55 1c	 mov	 edx, DWORD PTR _q_$[ebp]
  00781	52		 push	 edx
  00782	b8 04 00 00 00	 mov	 eax, 4
  00787	c1 e0 02	 shl	 eax, 2
  0078a	03 45 f8	 add	 eax, DWORD PTR _v_ptr$[ebp]
  0078d	50		 push	 eax
  0078e	8d 4d ec	 lea	 ecx, DWORD PTR _k$[ebp]
  00791	51		 push	 ecx
  00792	0f b6 55 e7	 movzx	 edx, BYTE PTR _c$[ebp]
  00796	52		 push	 edx
  00797	e8 00 00 00 00	 call	 ?_MULTIPLYX_DIGIT_UNIT_DIV@Internal@Core@Math@Palmtree@@YADDPAI0I0@Z ; Palmtree::Math::Core::Internal::_MULTIPLYX_DIGIT_UNIT_DIV
  0079c	83 c4 14	 add	 esp, 20			; 00000014H
  0079f	88 45 e7	 mov	 BYTE PTR _c$[ebp], al

; 1083 :             c = _MULTIPLYX_DIGIT_UNIT_DIV(c, &k, &v_ptr[5], q_, &u_ptr[5]);

  007a2	b8 04 00 00 00	 mov	 eax, 4
  007a7	6b c8 05	 imul	 ecx, eax, 5
  007aa	03 4d fc	 add	 ecx, DWORD PTR _u_ptr$[ebp]
  007ad	51		 push	 ecx
  007ae	8b 55 1c	 mov	 edx, DWORD PTR _q_$[ebp]
  007b1	52		 push	 edx
  007b2	b8 04 00 00 00	 mov	 eax, 4
  007b7	6b c8 05	 imul	 ecx, eax, 5
  007ba	03 4d f8	 add	 ecx, DWORD PTR _v_ptr$[ebp]
  007bd	51		 push	 ecx
  007be	8d 55 ec	 lea	 edx, DWORD PTR _k$[ebp]
  007c1	52		 push	 edx
  007c2	0f b6 45 e7	 movzx	 eax, BYTE PTR _c$[ebp]
  007c6	50		 push	 eax
  007c7	e8 00 00 00 00	 call	 ?_MULTIPLYX_DIGIT_UNIT_DIV@Internal@Core@Math@Palmtree@@YADDPAI0I0@Z ; Palmtree::Math::Core::Internal::_MULTIPLYX_DIGIT_UNIT_DIV
  007cc	83 c4 14	 add	 esp, 20			; 00000014H
  007cf	88 45 e7	 mov	 BYTE PTR _c$[ebp], al

; 1084 :             c = _MULTIPLYX_DIGIT_UNIT_DIV(c, &k, &v_ptr[6], q_, &u_ptr[6]);

  007d2	b9 04 00 00 00	 mov	 ecx, 4
  007d7	6b d1 06	 imul	 edx, ecx, 6
  007da	03 55 fc	 add	 edx, DWORD PTR _u_ptr$[ebp]
  007dd	52		 push	 edx
  007de	8b 45 1c	 mov	 eax, DWORD PTR _q_$[ebp]
  007e1	50		 push	 eax
  007e2	b9 04 00 00 00	 mov	 ecx, 4
  007e7	6b d1 06	 imul	 edx, ecx, 6
  007ea	03 55 f8	 add	 edx, DWORD PTR _v_ptr$[ebp]
  007ed	52		 push	 edx
  007ee	8d 45 ec	 lea	 eax, DWORD PTR _k$[ebp]
  007f1	50		 push	 eax
  007f2	0f b6 4d e7	 movzx	 ecx, BYTE PTR _c$[ebp]
  007f6	51		 push	 ecx
  007f7	e8 00 00 00 00	 call	 ?_MULTIPLYX_DIGIT_UNIT_DIV@Internal@Core@Math@Palmtree@@YADDPAI0I0@Z ; Palmtree::Math::Core::Internal::_MULTIPLYX_DIGIT_UNIT_DIV
  007fc	83 c4 14	 add	 esp, 20			; 00000014H
  007ff	88 45 e7	 mov	 BYTE PTR _c$[ebp], al

; 1085 :             c = _MULTIPLYX_DIGIT_UNIT_DIV(c, &k, &v_ptr[7], q_, &u_ptr[7]);

  00802	ba 04 00 00 00	 mov	 edx, 4
  00807	6b c2 07	 imul	 eax, edx, 7
  0080a	03 45 fc	 add	 eax, DWORD PTR _u_ptr$[ebp]
  0080d	50		 push	 eax
  0080e	8b 4d 1c	 mov	 ecx, DWORD PTR _q_$[ebp]
  00811	51		 push	 ecx
  00812	ba 04 00 00 00	 mov	 edx, 4
  00817	6b c2 07	 imul	 eax, edx, 7
  0081a	03 45 f8	 add	 eax, DWORD PTR _v_ptr$[ebp]
  0081d	50		 push	 eax
  0081e	8d 4d ec	 lea	 ecx, DWORD PTR _k$[ebp]
  00821	51		 push	 ecx
  00822	0f b6 55 e7	 movzx	 edx, BYTE PTR _c$[ebp]
  00826	52		 push	 edx
  00827	e8 00 00 00 00	 call	 ?_MULTIPLYX_DIGIT_UNIT_DIV@Internal@Core@Math@Palmtree@@YADDPAI0I0@Z ; Palmtree::Math::Core::Internal::_MULTIPLYX_DIGIT_UNIT_DIV
  0082c	83 c4 14	 add	 esp, 20			; 00000014H
  0082f	88 45 e7	 mov	 BYTE PTR _c$[ebp], al

; 1086 :             c = _MULTIPLYX_DIGIT_UNIT_DIV(c, &k, &v_ptr[8], q_, &u_ptr[8]);

  00832	b8 04 00 00 00	 mov	 eax, 4
  00837	c1 e0 03	 shl	 eax, 3
  0083a	03 45 fc	 add	 eax, DWORD PTR _u_ptr$[ebp]
  0083d	50		 push	 eax
  0083e	8b 4d 1c	 mov	 ecx, DWORD PTR _q_$[ebp]
  00841	51		 push	 ecx
  00842	ba 04 00 00 00	 mov	 edx, 4
  00847	c1 e2 03	 shl	 edx, 3
  0084a	03 55 f8	 add	 edx, DWORD PTR _v_ptr$[ebp]
  0084d	52		 push	 edx
  0084e	8d 45 ec	 lea	 eax, DWORD PTR _k$[ebp]
  00851	50		 push	 eax
  00852	0f b6 4d e7	 movzx	 ecx, BYTE PTR _c$[ebp]
  00856	51		 push	 ecx
  00857	e8 00 00 00 00	 call	 ?_MULTIPLYX_DIGIT_UNIT_DIV@Internal@Core@Math@Palmtree@@YADDPAI0I0@Z ; Palmtree::Math::Core::Internal::_MULTIPLYX_DIGIT_UNIT_DIV
  0085c	83 c4 14	 add	 esp, 20			; 00000014H
  0085f	88 45 e7	 mov	 BYTE PTR _c$[ebp], al

; 1087 :             c = _MULTIPLYX_DIGIT_UNIT_DIV(c, &k, &v_ptr[9], q_, &u_ptr[9]);

  00862	ba 04 00 00 00	 mov	 edx, 4
  00867	6b c2 09	 imul	 eax, edx, 9
  0086a	03 45 fc	 add	 eax, DWORD PTR _u_ptr$[ebp]
  0086d	50		 push	 eax
  0086e	8b 4d 1c	 mov	 ecx, DWORD PTR _q_$[ebp]
  00871	51		 push	 ecx
  00872	ba 04 00 00 00	 mov	 edx, 4
  00877	6b c2 09	 imul	 eax, edx, 9
  0087a	03 45 f8	 add	 eax, DWORD PTR _v_ptr$[ebp]
  0087d	50		 push	 eax
  0087e	8d 4d ec	 lea	 ecx, DWORD PTR _k$[ebp]
  00881	51		 push	 ecx
  00882	0f b6 55 e7	 movzx	 edx, BYTE PTR _c$[ebp]
  00886	52		 push	 edx
  00887	e8 00 00 00 00	 call	 ?_MULTIPLYX_DIGIT_UNIT_DIV@Internal@Core@Math@Palmtree@@YADDPAI0I0@Z ; Palmtree::Math::Core::Internal::_MULTIPLYX_DIGIT_UNIT_DIV
  0088c	83 c4 14	 add	 esp, 20			; 00000014H
  0088f	88 45 e7	 mov	 BYTE PTR _c$[ebp], al

; 1088 :             c = _MULTIPLYX_DIGIT_UNIT_DIV(c, &k, &v_ptr[10], q_, &u_ptr[10]);

  00892	b8 04 00 00 00	 mov	 eax, 4
  00897	6b c8 0a	 imul	 ecx, eax, 10
  0089a	03 4d fc	 add	 ecx, DWORD PTR _u_ptr$[ebp]
  0089d	51		 push	 ecx
  0089e	8b 55 1c	 mov	 edx, DWORD PTR _q_$[ebp]
  008a1	52		 push	 edx
  008a2	b8 04 00 00 00	 mov	 eax, 4
  008a7	6b c8 0a	 imul	 ecx, eax, 10
  008aa	03 4d f8	 add	 ecx, DWORD PTR _v_ptr$[ebp]
  008ad	51		 push	 ecx
  008ae	8d 55 ec	 lea	 edx, DWORD PTR _k$[ebp]
  008b1	52		 push	 edx
  008b2	0f b6 45 e7	 movzx	 eax, BYTE PTR _c$[ebp]
  008b6	50		 push	 eax
  008b7	e8 00 00 00 00	 call	 ?_MULTIPLYX_DIGIT_UNIT_DIV@Internal@Core@Math@Palmtree@@YADDPAI0I0@Z ; Palmtree::Math::Core::Internal::_MULTIPLYX_DIGIT_UNIT_DIV
  008bc	83 c4 14	 add	 esp, 20			; 00000014H
  008bf	88 45 e7	 mov	 BYTE PTR _c$[ebp], al

; 1089 :             c = _MULTIPLYX_DIGIT_UNIT_DIV(c, &k, &v_ptr[11], q_, &u_ptr[11]);

  008c2	b9 04 00 00 00	 mov	 ecx, 4
  008c7	6b d1 0b	 imul	 edx, ecx, 11
  008ca	03 55 fc	 add	 edx, DWORD PTR _u_ptr$[ebp]
  008cd	52		 push	 edx
  008ce	8b 45 1c	 mov	 eax, DWORD PTR _q_$[ebp]
  008d1	50		 push	 eax
  008d2	b9 04 00 00 00	 mov	 ecx, 4
  008d7	6b d1 0b	 imul	 edx, ecx, 11
  008da	03 55 f8	 add	 edx, DWORD PTR _v_ptr$[ebp]
  008dd	52		 push	 edx
  008de	8d 45 ec	 lea	 eax, DWORD PTR _k$[ebp]
  008e1	50		 push	 eax
  008e2	0f b6 4d e7	 movzx	 ecx, BYTE PTR _c$[ebp]
  008e6	51		 push	 ecx
  008e7	e8 00 00 00 00	 call	 ?_MULTIPLYX_DIGIT_UNIT_DIV@Internal@Core@Math@Palmtree@@YADDPAI0I0@Z ; Palmtree::Math::Core::Internal::_MULTIPLYX_DIGIT_UNIT_DIV
  008ec	83 c4 14	 add	 esp, 20			; 00000014H
  008ef	88 45 e7	 mov	 BYTE PTR _c$[ebp], al

; 1090 :             c = _MULTIPLYX_DIGIT_UNIT_DIV(c, &k, &v_ptr[12], q_, &u_ptr[12]);

  008f2	ba 04 00 00 00	 mov	 edx, 4
  008f7	6b c2 0c	 imul	 eax, edx, 12
  008fa	03 45 fc	 add	 eax, DWORD PTR _u_ptr$[ebp]
  008fd	50		 push	 eax
  008fe	8b 4d 1c	 mov	 ecx, DWORD PTR _q_$[ebp]
  00901	51		 push	 ecx
  00902	ba 04 00 00 00	 mov	 edx, 4
  00907	6b c2 0c	 imul	 eax, edx, 12
  0090a	03 45 f8	 add	 eax, DWORD PTR _v_ptr$[ebp]
  0090d	50		 push	 eax
  0090e	8d 4d ec	 lea	 ecx, DWORD PTR _k$[ebp]
  00911	51		 push	 ecx
  00912	0f b6 55 e7	 movzx	 edx, BYTE PTR _c$[ebp]
  00916	52		 push	 edx
  00917	e8 00 00 00 00	 call	 ?_MULTIPLYX_DIGIT_UNIT_DIV@Internal@Core@Math@Palmtree@@YADDPAI0I0@Z ; Palmtree::Math::Core::Internal::_MULTIPLYX_DIGIT_UNIT_DIV
  0091c	83 c4 14	 add	 esp, 20			; 00000014H
  0091f	88 45 e7	 mov	 BYTE PTR _c$[ebp], al

; 1091 :             c = _MULTIPLYX_DIGIT_UNIT_DIV(c, &k, &v_ptr[13], q_, &u_ptr[13]);

  00922	b8 04 00 00 00	 mov	 eax, 4
  00927	6b c8 0d	 imul	 ecx, eax, 13
  0092a	03 4d fc	 add	 ecx, DWORD PTR _u_ptr$[ebp]
  0092d	51		 push	 ecx
  0092e	8b 55 1c	 mov	 edx, DWORD PTR _q_$[ebp]
  00931	52		 push	 edx
  00932	b8 04 00 00 00	 mov	 eax, 4
  00937	6b c8 0d	 imul	 ecx, eax, 13
  0093a	03 4d f8	 add	 ecx, DWORD PTR _v_ptr$[ebp]
  0093d	51		 push	 ecx
  0093e	8d 55 ec	 lea	 edx, DWORD PTR _k$[ebp]
  00941	52		 push	 edx
  00942	0f b6 45 e7	 movzx	 eax, BYTE PTR _c$[ebp]
  00946	50		 push	 eax
  00947	e8 00 00 00 00	 call	 ?_MULTIPLYX_DIGIT_UNIT_DIV@Internal@Core@Math@Palmtree@@YADDPAI0I0@Z ; Palmtree::Math::Core::Internal::_MULTIPLYX_DIGIT_UNIT_DIV
  0094c	83 c4 14	 add	 esp, 20			; 00000014H
  0094f	88 45 e7	 mov	 BYTE PTR _c$[ebp], al

; 1092 :             c = _MULTIPLYX_DIGIT_UNIT_DIV(c, &k, &v_ptr[14], q_, &u_ptr[14]);

  00952	b9 04 00 00 00	 mov	 ecx, 4
  00957	6b d1 0e	 imul	 edx, ecx, 14
  0095a	03 55 fc	 add	 edx, DWORD PTR _u_ptr$[ebp]
  0095d	52		 push	 edx
  0095e	8b 45 1c	 mov	 eax, DWORD PTR _q_$[ebp]
  00961	50		 push	 eax
  00962	b9 04 00 00 00	 mov	 ecx, 4
  00967	6b d1 0e	 imul	 edx, ecx, 14
  0096a	03 55 f8	 add	 edx, DWORD PTR _v_ptr$[ebp]
  0096d	52		 push	 edx
  0096e	8d 45 ec	 lea	 eax, DWORD PTR _k$[ebp]
  00971	50		 push	 eax
  00972	0f b6 4d e7	 movzx	 ecx, BYTE PTR _c$[ebp]
  00976	51		 push	 ecx
  00977	e8 00 00 00 00	 call	 ?_MULTIPLYX_DIGIT_UNIT_DIV@Internal@Core@Math@Palmtree@@YADDPAI0I0@Z ; Palmtree::Math::Core::Internal::_MULTIPLYX_DIGIT_UNIT_DIV
  0097c	83 c4 14	 add	 esp, 20			; 00000014H
  0097f	88 45 e7	 mov	 BYTE PTR _c$[ebp], al

; 1093 :             c = _MULTIPLYX_DIGIT_UNIT_DIV(c, &k, &v_ptr[15], q_, &u_ptr[15]);

  00982	ba 04 00 00 00	 mov	 edx, 4
  00987	6b c2 0f	 imul	 eax, edx, 15
  0098a	03 45 fc	 add	 eax, DWORD PTR _u_ptr$[ebp]
  0098d	50		 push	 eax
  0098e	8b 4d 1c	 mov	 ecx, DWORD PTR _q_$[ebp]
  00991	51		 push	 ecx
  00992	ba 04 00 00 00	 mov	 edx, 4
  00997	6b c2 0f	 imul	 eax, edx, 15
  0099a	03 45 f8	 add	 eax, DWORD PTR _v_ptr$[ebp]
  0099d	50		 push	 eax
  0099e	8d 4d ec	 lea	 ecx, DWORD PTR _k$[ebp]
  009a1	51		 push	 ecx
  009a2	0f b6 55 e7	 movzx	 edx, BYTE PTR _c$[ebp]
  009a6	52		 push	 edx
  009a7	e8 00 00 00 00	 call	 ?_MULTIPLYX_DIGIT_UNIT_DIV@Internal@Core@Math@Palmtree@@YADDPAI0I0@Z ; Palmtree::Math::Core::Internal::_MULTIPLYX_DIGIT_UNIT_DIV
  009ac	83 c4 14	 add	 esp, 20			; 00000014H
  009af	88 45 e7	 mov	 BYTE PTR _c$[ebp], al

; 1094 :             u_ptr += 16;

  009b2	8b 45 fc	 mov	 eax, DWORD PTR _u_ptr$[ebp]
  009b5	83 c0 40	 add	 eax, 64			; 00000040H
  009b8	89 45 fc	 mov	 DWORD PTR _u_ptr$[ebp], eax

; 1095 :             v_ptr += 16;

  009bb	8b 4d f8	 mov	 ecx, DWORD PTR _v_ptr$[ebp]
  009be	83 c1 40	 add	 ecx, 64			; 00000040H
  009c1	89 4d f8	 mov	 DWORD PTR _v_ptr$[ebp], ecx

; 1096 : #ifdef ENABLED_PERFORMANCE_COUNTER
; 1097 :             if (sizeof(k) == sizeof(_UINT64_T))

  009c4	33 d2		 xor	 edx, edx
  009c6	74 0c		 je	 SHORT $LN7@SubtructOn

; 1098 :                 AddToMULTI64Counter(16);

  009c8	6a 10		 push	 16			; 00000010H
  009ca	e8 00 00 00 00	 call	 ?AddToMULTI64Counter@Internal@Core@Math@Palmtree@@YAXH@Z ; Palmtree::Math::Core::Internal::AddToMULTI64Counter
  009cf	83 c4 04	 add	 esp, 4

; 1099 :             else

  009d2	eb 0a		 jmp	 SHORT $LN6@SubtructOn
$LN7@SubtructOn:

; 1100 :                 AddToMULTI32Counter(16);

  009d4	6a 10		 push	 16			; 00000010H
  009d6	e8 00 00 00 00	 call	 ?AddToMULTI32Counter@Internal@Core@Math@Palmtree@@YAXH@Z ; Palmtree::Math::Core::Internal::AddToMULTI32Counter
  009db	83 c4 04	 add	 esp, 4
$LN6@SubtructOn:

; 1101 : #endif
; 1102 :         }
; 1103 : 
; 1104 :         if (v_count & 0x8)

  009de	8b 45 f4	 mov	 eax, DWORD PTR _v_count$[ebp]
  009e1	83 e0 08	 and	 eax, 8
  009e4	0f 84 aa 01 00
	00		 je	 $LN9@SubtructOn

; 1105 :         {
; 1106 :             c = _MULTIPLYX_DIGIT_UNIT_DIV(c, &k, &v_ptr[0], q_, &u_ptr[0]);

  009ea	b9 04 00 00 00	 mov	 ecx, 4
  009ef	6b d1 00	 imul	 edx, ecx, 0
  009f2	03 55 fc	 add	 edx, DWORD PTR _u_ptr$[ebp]
  009f5	52		 push	 edx
  009f6	8b 45 1c	 mov	 eax, DWORD PTR _q_$[ebp]
  009f9	50		 push	 eax
  009fa	b9 04 00 00 00	 mov	 ecx, 4
  009ff	6b d1 00	 imul	 edx, ecx, 0
  00a02	03 55 f8	 add	 edx, DWORD PTR _v_ptr$[ebp]
  00a05	52		 push	 edx
  00a06	8d 45 ec	 lea	 eax, DWORD PTR _k$[ebp]
  00a09	50		 push	 eax
  00a0a	0f b6 4d e7	 movzx	 ecx, BYTE PTR _c$[ebp]
  00a0e	51		 push	 ecx
  00a0f	e8 00 00 00 00	 call	 ?_MULTIPLYX_DIGIT_UNIT_DIV@Internal@Core@Math@Palmtree@@YADDPAI0I0@Z ; Palmtree::Math::Core::Internal::_MULTIPLYX_DIGIT_UNIT_DIV
  00a14	83 c4 14	 add	 esp, 20			; 00000014H
  00a17	88 45 e7	 mov	 BYTE PTR _c$[ebp], al

; 1107 :             c = _MULTIPLYX_DIGIT_UNIT_DIV(c, &k, &v_ptr[1], q_, &u_ptr[1]);

  00a1a	ba 04 00 00 00	 mov	 edx, 4
  00a1f	c1 e2 00	 shl	 edx, 0
  00a22	03 55 fc	 add	 edx, DWORD PTR _u_ptr$[ebp]
  00a25	52		 push	 edx
  00a26	8b 45 1c	 mov	 eax, DWORD PTR _q_$[ebp]
  00a29	50		 push	 eax
  00a2a	b9 04 00 00 00	 mov	 ecx, 4
  00a2f	c1 e1 00	 shl	 ecx, 0
  00a32	03 4d f8	 add	 ecx, DWORD PTR _v_ptr$[ebp]
  00a35	51		 push	 ecx
  00a36	8d 55 ec	 lea	 edx, DWORD PTR _k$[ebp]
  00a39	52		 push	 edx
  00a3a	0f b6 45 e7	 movzx	 eax, BYTE PTR _c$[ebp]
  00a3e	50		 push	 eax
  00a3f	e8 00 00 00 00	 call	 ?_MULTIPLYX_DIGIT_UNIT_DIV@Internal@Core@Math@Palmtree@@YADDPAI0I0@Z ; Palmtree::Math::Core::Internal::_MULTIPLYX_DIGIT_UNIT_DIV
  00a44	83 c4 14	 add	 esp, 20			; 00000014H
  00a47	88 45 e7	 mov	 BYTE PTR _c$[ebp], al

; 1108 :             c = _MULTIPLYX_DIGIT_UNIT_DIV(c, &k, &v_ptr[2], q_, &u_ptr[2]);

  00a4a	b9 04 00 00 00	 mov	 ecx, 4
  00a4f	d1 e1		 shl	 ecx, 1
  00a51	03 4d fc	 add	 ecx, DWORD PTR _u_ptr$[ebp]
  00a54	51		 push	 ecx
  00a55	8b 55 1c	 mov	 edx, DWORD PTR _q_$[ebp]
  00a58	52		 push	 edx
  00a59	b8 04 00 00 00	 mov	 eax, 4
  00a5e	d1 e0		 shl	 eax, 1
  00a60	03 45 f8	 add	 eax, DWORD PTR _v_ptr$[ebp]
  00a63	50		 push	 eax
  00a64	8d 4d ec	 lea	 ecx, DWORD PTR _k$[ebp]
  00a67	51		 push	 ecx
  00a68	0f b6 55 e7	 movzx	 edx, BYTE PTR _c$[ebp]
  00a6c	52		 push	 edx
  00a6d	e8 00 00 00 00	 call	 ?_MULTIPLYX_DIGIT_UNIT_DIV@Internal@Core@Math@Palmtree@@YADDPAI0I0@Z ; Palmtree::Math::Core::Internal::_MULTIPLYX_DIGIT_UNIT_DIV
  00a72	83 c4 14	 add	 esp, 20			; 00000014H
  00a75	88 45 e7	 mov	 BYTE PTR _c$[ebp], al

; 1109 :             c = _MULTIPLYX_DIGIT_UNIT_DIV(c, &k, &v_ptr[3], q_, &u_ptr[3]);

  00a78	b8 04 00 00 00	 mov	 eax, 4
  00a7d	6b c8 03	 imul	 ecx, eax, 3
  00a80	03 4d fc	 add	 ecx, DWORD PTR _u_ptr$[ebp]
  00a83	51		 push	 ecx
  00a84	8b 55 1c	 mov	 edx, DWORD PTR _q_$[ebp]
  00a87	52		 push	 edx
  00a88	b8 04 00 00 00	 mov	 eax, 4
  00a8d	6b c8 03	 imul	 ecx, eax, 3
  00a90	03 4d f8	 add	 ecx, DWORD PTR _v_ptr$[ebp]
  00a93	51		 push	 ecx
  00a94	8d 55 ec	 lea	 edx, DWORD PTR _k$[ebp]
  00a97	52		 push	 edx
  00a98	0f b6 45 e7	 movzx	 eax, BYTE PTR _c$[ebp]
  00a9c	50		 push	 eax
  00a9d	e8 00 00 00 00	 call	 ?_MULTIPLYX_DIGIT_UNIT_DIV@Internal@Core@Math@Palmtree@@YADDPAI0I0@Z ; Palmtree::Math::Core::Internal::_MULTIPLYX_DIGIT_UNIT_DIV
  00aa2	83 c4 14	 add	 esp, 20			; 00000014H
  00aa5	88 45 e7	 mov	 BYTE PTR _c$[ebp], al

; 1110 :             c = _MULTIPLYX_DIGIT_UNIT_DIV(c, &k, &v_ptr[4], q_, &u_ptr[4]);

  00aa8	b9 04 00 00 00	 mov	 ecx, 4
  00aad	c1 e1 02	 shl	 ecx, 2
  00ab0	03 4d fc	 add	 ecx, DWORD PTR _u_ptr$[ebp]
  00ab3	51		 push	 ecx
  00ab4	8b 55 1c	 mov	 edx, DWORD PTR _q_$[ebp]
  00ab7	52		 push	 edx
  00ab8	b8 04 00 00 00	 mov	 eax, 4
  00abd	c1 e0 02	 shl	 eax, 2
  00ac0	03 45 f8	 add	 eax, DWORD PTR _v_ptr$[ebp]
  00ac3	50		 push	 eax
  00ac4	8d 4d ec	 lea	 ecx, DWORD PTR _k$[ebp]
  00ac7	51		 push	 ecx
  00ac8	0f b6 55 e7	 movzx	 edx, BYTE PTR _c$[ebp]
  00acc	52		 push	 edx
  00acd	e8 00 00 00 00	 call	 ?_MULTIPLYX_DIGIT_UNIT_DIV@Internal@Core@Math@Palmtree@@YADDPAI0I0@Z ; Palmtree::Math::Core::Internal::_MULTIPLYX_DIGIT_UNIT_DIV
  00ad2	83 c4 14	 add	 esp, 20			; 00000014H
  00ad5	88 45 e7	 mov	 BYTE PTR _c$[ebp], al

; 1111 :             c = _MULTIPLYX_DIGIT_UNIT_DIV(c, &k, &v_ptr[5], q_, &u_ptr[5]);

  00ad8	b8 04 00 00 00	 mov	 eax, 4
  00add	6b c8 05	 imul	 ecx, eax, 5
  00ae0	03 4d fc	 add	 ecx, DWORD PTR _u_ptr$[ebp]
  00ae3	51		 push	 ecx
  00ae4	8b 55 1c	 mov	 edx, DWORD PTR _q_$[ebp]
  00ae7	52		 push	 edx
  00ae8	b8 04 00 00 00	 mov	 eax, 4
  00aed	6b c8 05	 imul	 ecx, eax, 5
  00af0	03 4d f8	 add	 ecx, DWORD PTR _v_ptr$[ebp]
  00af3	51		 push	 ecx
  00af4	8d 55 ec	 lea	 edx, DWORD PTR _k$[ebp]
  00af7	52		 push	 edx
  00af8	0f b6 45 e7	 movzx	 eax, BYTE PTR _c$[ebp]
  00afc	50		 push	 eax
  00afd	e8 00 00 00 00	 call	 ?_MULTIPLYX_DIGIT_UNIT_DIV@Internal@Core@Math@Palmtree@@YADDPAI0I0@Z ; Palmtree::Math::Core::Internal::_MULTIPLYX_DIGIT_UNIT_DIV
  00b02	83 c4 14	 add	 esp, 20			; 00000014H
  00b05	88 45 e7	 mov	 BYTE PTR _c$[ebp], al

; 1112 :             c = _MULTIPLYX_DIGIT_UNIT_DIV(c, &k, &v_ptr[6], q_, &u_ptr[6]);

  00b08	b9 04 00 00 00	 mov	 ecx, 4
  00b0d	6b d1 06	 imul	 edx, ecx, 6
  00b10	03 55 fc	 add	 edx, DWORD PTR _u_ptr$[ebp]
  00b13	52		 push	 edx
  00b14	8b 45 1c	 mov	 eax, DWORD PTR _q_$[ebp]
  00b17	50		 push	 eax
  00b18	b9 04 00 00 00	 mov	 ecx, 4
  00b1d	6b d1 06	 imul	 edx, ecx, 6
  00b20	03 55 f8	 add	 edx, DWORD PTR _v_ptr$[ebp]
  00b23	52		 push	 edx
  00b24	8d 45 ec	 lea	 eax, DWORD PTR _k$[ebp]
  00b27	50		 push	 eax
  00b28	0f b6 4d e7	 movzx	 ecx, BYTE PTR _c$[ebp]
  00b2c	51		 push	 ecx
  00b2d	e8 00 00 00 00	 call	 ?_MULTIPLYX_DIGIT_UNIT_DIV@Internal@Core@Math@Palmtree@@YADDPAI0I0@Z ; Palmtree::Math::Core::Internal::_MULTIPLYX_DIGIT_UNIT_DIV
  00b32	83 c4 14	 add	 esp, 20			; 00000014H
  00b35	88 45 e7	 mov	 BYTE PTR _c$[ebp], al

; 1113 :             c = _MULTIPLYX_DIGIT_UNIT_DIV(c, &k, &v_ptr[7], q_, &u_ptr[7]);

  00b38	ba 04 00 00 00	 mov	 edx, 4
  00b3d	6b c2 07	 imul	 eax, edx, 7
  00b40	03 45 fc	 add	 eax, DWORD PTR _u_ptr$[ebp]
  00b43	50		 push	 eax
  00b44	8b 4d 1c	 mov	 ecx, DWORD PTR _q_$[ebp]
  00b47	51		 push	 ecx
  00b48	ba 04 00 00 00	 mov	 edx, 4
  00b4d	6b c2 07	 imul	 eax, edx, 7
  00b50	03 45 f8	 add	 eax, DWORD PTR _v_ptr$[ebp]
  00b53	50		 push	 eax
  00b54	8d 4d ec	 lea	 ecx, DWORD PTR _k$[ebp]
  00b57	51		 push	 ecx
  00b58	0f b6 55 e7	 movzx	 edx, BYTE PTR _c$[ebp]
  00b5c	52		 push	 edx
  00b5d	e8 00 00 00 00	 call	 ?_MULTIPLYX_DIGIT_UNIT_DIV@Internal@Core@Math@Palmtree@@YADDPAI0I0@Z ; Palmtree::Math::Core::Internal::_MULTIPLYX_DIGIT_UNIT_DIV
  00b62	83 c4 14	 add	 esp, 20			; 00000014H
  00b65	88 45 e7	 mov	 BYTE PTR _c$[ebp], al

; 1114 :             u_ptr += 8;

  00b68	8b 45 fc	 mov	 eax, DWORD PTR _u_ptr$[ebp]
  00b6b	83 c0 20	 add	 eax, 32			; 00000020H
  00b6e	89 45 fc	 mov	 DWORD PTR _u_ptr$[ebp], eax

; 1115 :             v_ptr += 8;

  00b71	8b 4d f8	 mov	 ecx, DWORD PTR _v_ptr$[ebp]
  00b74	83 c1 20	 add	 ecx, 32			; 00000020H
  00b77	89 4d f8	 mov	 DWORD PTR _v_ptr$[ebp], ecx

; 1116 : #ifdef ENABLED_PERFORMANCE_COUNTER
; 1117 :             if (sizeof(k) == sizeof(_UINT64_T))

  00b7a	33 d2		 xor	 edx, edx
  00b7c	74 0c		 je	 SHORT $LN10@SubtructOn

; 1118 :                 AddToMULTI64Counter(8);

  00b7e	6a 08		 push	 8
  00b80	e8 00 00 00 00	 call	 ?AddToMULTI64Counter@Internal@Core@Math@Palmtree@@YAXH@Z ; Palmtree::Math::Core::Internal::AddToMULTI64Counter
  00b85	83 c4 04	 add	 esp, 4

; 1119 :             else

  00b88	eb 0a		 jmp	 SHORT $LN9@SubtructOn
$LN10@SubtructOn:

; 1120 :                 AddToMULTI32Counter(8);

  00b8a	6a 08		 push	 8
  00b8c	e8 00 00 00 00	 call	 ?AddToMULTI32Counter@Internal@Core@Math@Palmtree@@YAXH@Z ; Palmtree::Math::Core::Internal::AddToMULTI32Counter
  00b91	83 c4 04	 add	 esp, 4
$LN9@SubtructOn:

; 1121 : #endif
; 1122 :         }
; 1123 : 
; 1124 :         if (v_count & 0x4)

  00b94	8b 45 f4	 mov	 eax, DWORD PTR _v_count$[ebp]
  00b97	83 e0 04	 and	 eax, 4
  00b9a	0f 84 ea 00 00
	00		 je	 $LN12@SubtructOn

; 1125 :         {
; 1126 :             c = _MULTIPLYX_DIGIT_UNIT_DIV(c, &k, &v_ptr[0], q_, &u_ptr[0]);

  00ba0	b9 04 00 00 00	 mov	 ecx, 4
  00ba5	6b d1 00	 imul	 edx, ecx, 0
  00ba8	03 55 fc	 add	 edx, DWORD PTR _u_ptr$[ebp]
  00bab	52		 push	 edx
  00bac	8b 45 1c	 mov	 eax, DWORD PTR _q_$[ebp]
  00baf	50		 push	 eax
  00bb0	b9 04 00 00 00	 mov	 ecx, 4
  00bb5	6b d1 00	 imul	 edx, ecx, 0
  00bb8	03 55 f8	 add	 edx, DWORD PTR _v_ptr$[ebp]
  00bbb	52		 push	 edx
  00bbc	8d 45 ec	 lea	 eax, DWORD PTR _k$[ebp]
  00bbf	50		 push	 eax
  00bc0	0f b6 4d e7	 movzx	 ecx, BYTE PTR _c$[ebp]
  00bc4	51		 push	 ecx
  00bc5	e8 00 00 00 00	 call	 ?_MULTIPLYX_DIGIT_UNIT_DIV@Internal@Core@Math@Palmtree@@YADDPAI0I0@Z ; Palmtree::Math::Core::Internal::_MULTIPLYX_DIGIT_UNIT_DIV
  00bca	83 c4 14	 add	 esp, 20			; 00000014H
  00bcd	88 45 e7	 mov	 BYTE PTR _c$[ebp], al

; 1127 :             c = _MULTIPLYX_DIGIT_UNIT_DIV(c, &k, &v_ptr[1], q_, &u_ptr[1]);

  00bd0	ba 04 00 00 00	 mov	 edx, 4
  00bd5	c1 e2 00	 shl	 edx, 0
  00bd8	03 55 fc	 add	 edx, DWORD PTR _u_ptr$[ebp]
  00bdb	52		 push	 edx
  00bdc	8b 45 1c	 mov	 eax, DWORD PTR _q_$[ebp]
  00bdf	50		 push	 eax
  00be0	b9 04 00 00 00	 mov	 ecx, 4
  00be5	c1 e1 00	 shl	 ecx, 0
  00be8	03 4d f8	 add	 ecx, DWORD PTR _v_ptr$[ebp]
  00beb	51		 push	 ecx
  00bec	8d 55 ec	 lea	 edx, DWORD PTR _k$[ebp]
  00bef	52		 push	 edx
  00bf0	0f b6 45 e7	 movzx	 eax, BYTE PTR _c$[ebp]
  00bf4	50		 push	 eax
  00bf5	e8 00 00 00 00	 call	 ?_MULTIPLYX_DIGIT_UNIT_DIV@Internal@Core@Math@Palmtree@@YADDPAI0I0@Z ; Palmtree::Math::Core::Internal::_MULTIPLYX_DIGIT_UNIT_DIV
  00bfa	83 c4 14	 add	 esp, 20			; 00000014H
  00bfd	88 45 e7	 mov	 BYTE PTR _c$[ebp], al

; 1128 :             c = _MULTIPLYX_DIGIT_UNIT_DIV(c, &k, &v_ptr[2], q_, &u_ptr[2]);

  00c00	b9 04 00 00 00	 mov	 ecx, 4
  00c05	d1 e1		 shl	 ecx, 1
  00c07	03 4d fc	 add	 ecx, DWORD PTR _u_ptr$[ebp]
  00c0a	51		 push	 ecx
  00c0b	8b 55 1c	 mov	 edx, DWORD PTR _q_$[ebp]
  00c0e	52		 push	 edx
  00c0f	b8 04 00 00 00	 mov	 eax, 4
  00c14	d1 e0		 shl	 eax, 1
  00c16	03 45 f8	 add	 eax, DWORD PTR _v_ptr$[ebp]
  00c19	50		 push	 eax
  00c1a	8d 4d ec	 lea	 ecx, DWORD PTR _k$[ebp]
  00c1d	51		 push	 ecx
  00c1e	0f b6 55 e7	 movzx	 edx, BYTE PTR _c$[ebp]
  00c22	52		 push	 edx
  00c23	e8 00 00 00 00	 call	 ?_MULTIPLYX_DIGIT_UNIT_DIV@Internal@Core@Math@Palmtree@@YADDPAI0I0@Z ; Palmtree::Math::Core::Internal::_MULTIPLYX_DIGIT_UNIT_DIV
  00c28	83 c4 14	 add	 esp, 20			; 00000014H
  00c2b	88 45 e7	 mov	 BYTE PTR _c$[ebp], al

; 1129 :             c = _MULTIPLYX_DIGIT_UNIT_DIV(c, &k, &v_ptr[3], q_, &u_ptr[3]);

  00c2e	b8 04 00 00 00	 mov	 eax, 4
  00c33	6b c8 03	 imul	 ecx, eax, 3
  00c36	03 4d fc	 add	 ecx, DWORD PTR _u_ptr$[ebp]
  00c39	51		 push	 ecx
  00c3a	8b 55 1c	 mov	 edx, DWORD PTR _q_$[ebp]
  00c3d	52		 push	 edx
  00c3e	b8 04 00 00 00	 mov	 eax, 4
  00c43	6b c8 03	 imul	 ecx, eax, 3
  00c46	03 4d f8	 add	 ecx, DWORD PTR _v_ptr$[ebp]
  00c49	51		 push	 ecx
  00c4a	8d 55 ec	 lea	 edx, DWORD PTR _k$[ebp]
  00c4d	52		 push	 edx
  00c4e	0f b6 45 e7	 movzx	 eax, BYTE PTR _c$[ebp]
  00c52	50		 push	 eax
  00c53	e8 00 00 00 00	 call	 ?_MULTIPLYX_DIGIT_UNIT_DIV@Internal@Core@Math@Palmtree@@YADDPAI0I0@Z ; Palmtree::Math::Core::Internal::_MULTIPLYX_DIGIT_UNIT_DIV
  00c58	83 c4 14	 add	 esp, 20			; 00000014H
  00c5b	88 45 e7	 mov	 BYTE PTR _c$[ebp], al

; 1130 :             u_ptr += 4;

  00c5e	8b 4d fc	 mov	 ecx, DWORD PTR _u_ptr$[ebp]
  00c61	83 c1 10	 add	 ecx, 16			; 00000010H
  00c64	89 4d fc	 mov	 DWORD PTR _u_ptr$[ebp], ecx

; 1131 :             v_ptr += 4;

  00c67	8b 55 f8	 mov	 edx, DWORD PTR _v_ptr$[ebp]
  00c6a	83 c2 10	 add	 edx, 16			; 00000010H
  00c6d	89 55 f8	 mov	 DWORD PTR _v_ptr$[ebp], edx

; 1132 : #ifdef ENABLED_PERFORMANCE_COUNTER
; 1133 :             if (sizeof(k) == sizeof(_UINT64_T))

  00c70	33 c0		 xor	 eax, eax
  00c72	74 0c		 je	 SHORT $LN13@SubtructOn

; 1134 :                 AddToMULTI64Counter(4);

  00c74	6a 04		 push	 4
