; Listing generated by Microsoft (R) Optimizing Compiler Version 19.16.27026.1 

	TITLE	Z:\Sources\Lunor\Repos\rougemeilland\Palmtree.Math.Core.Uint\Palmtree.Math.Core.Uint\TEST_op_DivRem.c
	.686P
	.XMM
	include listing.inc
	.model	flat

INCLUDELIB MSVCRTD
INCLUDELIB OLDNAMES

msvcjmc	SEGMENT
__7B7A869E_ctype@h DB 01H
__457DD326_basetsd@h DB 01H
__4384A2D9_corecrt_memcpy_s@h DB 01H
__4E51A221_corecrt_wstring@h DB 01H
__2140C079_string@h DB 01H
__1887E595_winnt@h DB 01H
__9FC7C64B_processthreadsapi@h DB 01H
__FA470AEC_memoryapi@h DB 01H
__F37DAFF1_winerror@h DB 01H
__7A450CCC_winbase@h DB 01H
__B4B40122_winioctl@h DB 01H
__86261D59_stralign@h DB 01H
__630249ED_pmc_uint_debug@h DB 01H
__FF4197B5_test_op_divrem@c DB 01H
msvcjmc	ENDS
PUBLIC	_TEST_PMC_DivRem_I_X
PUBLIC	_TEST_PMC_DivRem_L_X
PUBLIC	_TEST_PMC_DivRem_X_I
PUBLIC	_TEST_PMC_DivRem_X_L
PUBLIC	_TEST_PMC_DivRem_X_X
PUBLIC	__JustMyCode_Default
EXTRN	_TEST_Assert:PROC
EXTRN	_FormatTestLabel:PROC
EXTRN	_FormatTestMesssage:PROC
EXTRN	@_RTC_CheckStackVars@8:PROC
EXTRN	@__CheckForDebuggerJustMyCode@4:PROC
EXTRN	@__security_check_cookie@4:PROC
EXTRN	__RTC_CheckEsp:PROC
EXTRN	__RTC_InitBase:PROC
EXTRN	__RTC_Shutdown:PROC
EXTRN	___security_cookie:DWORD
;	COMDAT rtc$TMZ
rtc$TMZ	SEGMENT
__RTC_Shutdown.rtc$TMZ DD FLAT:__RTC_Shutdown
rtc$TMZ	ENDS
;	COMDAT rtc$IMZ
rtc$IMZ	SEGMENT
__RTC_InitBase.rtc$IMZ DD FLAT:__RTC_InitBase
rtc$IMZ	ENDS
_DATA	SEGMENT
$SG94666 DB	'P', 00H, 'M', 00H, 'C', 00H, '_', 00H, 'F', 00H, 'r', 00H
	DB	'o', 00H, 'm', 00H, 'B', 00H, 'y', 00H, 't', 00H, 'e', 00H, 'A'
	DB	00H, 'r', 00H, 'r', 00H, 'a', 00H, 'y', 00H, 'n0', 0a9H, '_0^', 0b3H
	DB	'0', 0fcH, '0', 0c9H, '0L0', 01fH, 'g', 085H, '_', 01aH, 090H, 08aH
	DB	'0g0o0j0D0(', 00H, '%', 00H, 'd', 00H, ')', 00H, 00H, 00H
	ORG $+2
$SG94667 DB	'P', 00H, 'M', 00H, 'C', 00H, '_', 00H, 'D', 00H, 'i', 00H
	DB	'v', 00H, 'R', 00H, 'e', 00H, 'm', 00H, '_', 00H, 'I', 00H, '_'
	DB	00H, 'X', 00H, ' ', 00H, '(', 00H, '%', 00H, 'd', 00H, '.', 00H
	DB	'%', 00H, 'd', 00H, ')', 00H, 00H, 00H
	ORG $+6
$SG94668 DB	'P', 00H, 'M', 00H, 'C', 00H, '_', 00H, 'D', 00H, 'i', 00H
	DB	'v', 00H, 'R', 00H, 'e', 00H, 'm', 00H, '_', 00H, 'I', 00H, '_'
	DB	00H, 'X', 00H, 'n0', 0a9H, '_0^', 0b3H, '0', 0fcH, '0', 0c9H, '0'
	DB	'L0', 01fH, 'g', 085H, '_', 01aH, 090H, 08aH, '0g0o0j0D0(', 00H
	DB	'%', 00H, 'd', 00H, ')', 00H, 00H, 00H
$SG94669 DB	'P', 00H, 'M', 00H, 'C', 00H, '_', 00H, 'D', 00H, 'i', 00H
	DB	'v', 00H, 'R', 00H, 'e', 00H, 'm', 00H, '_', 00H, 'I', 00H, '_'
	DB	00H, 'X', 00H, ' ', 00H, '(', 00H, '%', 00H, 'd', 00H, '.', 00H
	DB	'%', 00H, 'd', 00H, ')', 00H, 00H, 00H
	ORG $+2
$SG94671 DB	'FUn0$PL0', 00H, 'N', 0f4H, 081H, 'W0j0D0', 00H, 00H
$SG94672 DB	'P', 00H, 'M', 00H, 'C', 00H, '_', 00H, 'D', 00H, 'i', 00H
	DB	'v', 00H, 'R', 00H, 'e', 00H, 'm', 00H, '_', 00H, 'I', 00H, '_'
	DB	00H, 'X', 00H, ' ', 00H, '(', 00H, '%', 00H, 'd', 00H, '.', 00H
	DB	'%', 00H, 'd', 00H, ')', 00H, 00H, 00H
	ORG $+2
$SG94673 DB	'pRYOn0$PL0', 00H, 'N', 0f4H, 081H, 'W0j0D0', 00H, 00H
	ORG $+2
$SG94674 DB	'P', 00H, 'M', 00H, 'C', 00H, '_', 00H, 'D', 00H, 'i', 00H
	DB	'v', 00H, 'R', 00H, 'e', 00H, 'm', 00H, '_', 00H, 'I', 00H, '_'
	DB	00H, 'X', 00H, ' ', 00H, '(', 00H, '%', 00H, 'd', 00H, '.', 00H
	DB	'%', 00H, 'd', 00H, ')', 00H, 00H, 00H
	ORG $+2
$SG94700 DB	'P', 00H, 'M', 00H, 'C', 00H, '_', 00H, 'F', 00H, 'r', 00H
	DB	'o', 00H, 'm', 00H, 'B', 00H, 'y', 00H, 't', 00H, 'e', 00H, 'A'
	DB	00H, 'r', 00H, 'r', 00H, 'a', 00H, 'y', 00H, 'n0', 0a9H, '_0^', 0b3H
	DB	'0', 0fcH, '0', 0c9H, '0L0', 01fH, 'g', 085H, '_', 01aH, 090H, 08aH
	DB	'0g0o0j0D0(', 00H, '%', 00H, 'd', 00H, ')', 00H, 00H, 00H
	ORG $+2
$SG94701 DB	'P', 00H, 'M', 00H, 'C', 00H, '_', 00H, 'D', 00H, 'i', 00H
	DB	'v', 00H, 'R', 00H, 'e', 00H, 'm', 00H, '_', 00H, 'L', 00H, '_'
	DB	00H, 'X', 00H, ' ', 00H, '(', 00H, '%', 00H, 'd', 00H, '.', 00H
	DB	'%', 00H, 'd', 00H, ')', 00H, 00H, 00H
	ORG $+6
$SG94702 DB	'P', 00H, 'M', 00H, 'C', 00H, '_', 00H, 'D', 00H, 'i', 00H
	DB	'v', 00H, 'R', 00H, 'e', 00H, 'm', 00H, '_', 00H, 'L', 00H, '_'
	DB	00H, 'X', 00H, 'n0', 0a9H, '_0^', 0b3H, '0', 0fcH, '0', 0c9H, '0'
	DB	'L0', 01fH, 'g', 085H, '_', 01aH, 090H, 08aH, '0g0o0j0D0(', 00H
	DB	'%', 00H, 'd', 00H, ')', 00H, 00H, 00H
$SG94703 DB	'P', 00H, 'M', 00H, 'C', 00H, '_', 00H, 'D', 00H, 'i', 00H
	DB	'v', 00H, 'R', 00H, 'e', 00H, 'm', 00H, '_', 00H, 'L', 00H, '_'
	DB	00H, 'X', 00H, ' ', 00H, '(', 00H, '%', 00H, 'd', 00H, '.', 00H
	DB	'%', 00H, 'd', 00H, ')', 00H, 00H, 00H
	ORG $+2
$SG94705 DB	'FUn0$PL0', 00H, 'N', 0f4H, 081H, 'W0j0D0', 00H, 00H
$SG94706 DB	'P', 00H, 'M', 00H, 'C', 00H, '_', 00H, 'D', 00H, 'i', 00H
	DB	'v', 00H, 'R', 00H, 'e', 00H, 'm', 00H, '_', 00H, 'L', 00H, '_'
	DB	00H, 'X', 00H, ' ', 00H, '(', 00H, '%', 00H, 'd', 00H, '.', 00H
	DB	'%', 00H, 'd', 00H, ')', 00H, 00H, 00H
	ORG $+2
$SG94707 DB	'pRYOn0$PL0', 00H, 'N', 0f4H, 081H, 'W0j0D0', 00H, 00H
	ORG $+2
$SG94708 DB	'P', 00H, 'M', 00H, 'C', 00H, '_', 00H, 'D', 00H, 'i', 00H
	DB	'v', 00H, 'R', 00H, 'e', 00H, 'm', 00H, '_', 00H, 'L', 00H, '_'
	DB	00H, 'X', 00H, ' ', 00H, '(', 00H, '%', 00H, 'd', 00H, '.', 00H
	DB	'%', 00H, 'd', 00H, ')', 00H, 00H, 00H
	ORG $+2
$SG94739 DB	'P', 00H, 'M', 00H, 'C', 00H, '_', 00H, 'F', 00H, 'r', 00H
	DB	'o', 00H, 'm', 00H, 'B', 00H, 'y', 00H, 't', 00H, 'e', 00H, 'A'
	DB	00H, 'r', 00H, 'r', 00H, 'a', 00H, 'y', 00H, 'n0', 0a9H, '_0^', 0b3H
	DB	'0', 0fcH, '0', 0c9H, '0L0', 01fH, 'g', 085H, '_', 01aH, 090H, 08aH
	DB	'0g0o0j0D0(', 00H, '%', 00H, 'd', 00H, ')', 00H, 00H, 00H
	ORG $+2
$SG94740 DB	'P', 00H, 'M', 00H, 'C', 00H, '_', 00H, 'D', 00H, 'i', 00H
	DB	'v', 00H, 'R', 00H, 'e', 00H, 'm', 00H, '_', 00H, 'X', 00H, '_'
	DB	00H, 'I', 00H, ' ', 00H, '(', 00H, '%', 00H, 'd', 00H, '.', 00H
	DB	'%', 00H, 'd', 00H, ')', 00H, 00H, 00H
	ORG $+6
$SG94741 DB	'P', 00H, 'M', 00H, 'C', 00H, '_', 00H, 'D', 00H, 'i', 00H
	DB	'v', 00H, 'R', 00H, 'e', 00H, 'm', 00H, '_', 00H, 'X', 00H, '_'
	DB	00H, 'I', 00H, 'n0', 0a9H, '_0^', 0b3H, '0', 0fcH, '0', 0c9H, '0'
	DB	'L0', 01fH, 'g', 085H, '_', 01aH, 090H, 08aH, '0g0o0j0D0(', 00H
	DB	'%', 00H, 'd', 00H, ')', 00H, 00H, 00H
$SG94742 DB	'P', 00H, 'M', 00H, 'C', 00H, '_', 00H, 'D', 00H, 'i', 00H
	DB	'v', 00H, 'R', 00H, 'e', 00H, 'm', 00H, '_', 00H, 'X', 00H, '_'
	DB	00H, 'I', 00H, ' ', 00H, '(', 00H, '%', 00H, 'd', 00H, '.', 00H
	DB	'%', 00H, 'd', 00H, ')', 00H, 00H, 00H
	ORG $+6
$SG94744 DB	'P', 00H, 'M', 00H, 'C', 00H, '_', 00H, 'T', 00H, 'o', 00H
	DB	'B', 00H, 'y', 00H, 't', 00H, 'e', 00H, 'A', 00H, 'r', 00H, 'r'
	DB	00H, 'a', 00H, 'y', 00H, 'n0', 0a9H, '_0^', 0b3H, '0', 0fcH, '0'
	DB	0c9H, '0L0', 01fH, 'g', 085H, '_', 01aH, 090H, 08aH, '0g0o0j0D'
	DB	'0(', 00H, '%', 00H, 'd', 00H, ')', 00H, 00H, 00H
	ORG $+2
$SG94745 DB	'P', 00H, 'M', 00H, 'C', 00H, '_', 00H, 'D', 00H, 'i', 00H
	DB	'v', 00H, 'R', 00H, 'e', 00H, 'm', 00H, '_', 00H, 'X', 00H, '_'
	DB	00H, 'I', 00H, ' ', 00H, '(', 00H, '%', 00H, 'd', 00H, '.', 00H
	DB	'%', 00H, 'd', 00H, ')', 00H, 00H, 00H
	ORG $+2
$SG94746 DB	'FUn0$PL0', 00H, 'N', 0f4H, 081H, 'W0j0D0', 00H, 00H
$SG94747 DB	'P', 00H, 'M', 00H, 'C', 00H, '_', 00H, 'D', 00H, 'i', 00H
	DB	'v', 00H, 'R', 00H, 'e', 00H, 'm', 00H, '_', 00H, 'X', 00H, '_'
	DB	00H, 'I', 00H, ' ', 00H, '(', 00H, '%', 00H, 'd', 00H, '.', 00H
	DB	'%', 00H, 'd', 00H, ')', 00H, 00H, 00H
	ORG $+2
$SG94748 DB	'pRYOn0$PL0', 00H, 'N', 0f4H, 081H, 'W0j0D0', 00H, 00H
	ORG $+2
$SG94749 DB	'P', 00H, 'M', 00H, 'C', 00H, '_', 00H, 'D', 00H, 'i', 00H
	DB	'v', 00H, 'R', 00H, 'e', 00H, 'm', 00H, '_', 00H, 'X', 00H, '_'
	DB	00H, 'I', 00H, ' ', 00H, '(', 00H, '%', 00H, 'd', 00H, '.', 00H
	DB	'%', 00H, 'd', 00H, ')', 00H, 00H, 00H
	ORG $+6
$SG94781 DB	'P', 00H, 'M', 00H, 'C', 00H, '_', 00H, 'F', 00H, 'r', 00H
	DB	'o', 00H, 'm', 00H, 'B', 00H, 'y', 00H, 't', 00H, 'e', 00H, 'A'
	DB	00H, 'r', 00H, 'r', 00H, 'a', 00H, 'y', 00H, 'n0', 0a9H, '_0^', 0b3H
	DB	'0', 0fcH, '0', 0c9H, '0L0', 01fH, 'g', 085H, '_', 01aH, 090H, 08aH
	DB	'0g0o0j0D0(', 00H, '%', 00H, 'd', 00H, ')', 00H, 00H, 00H
	ORG $+2
$SG94782 DB	'P', 00H, 'M', 00H, 'C', 00H, '_', 00H, 'D', 00H, 'i', 00H
	DB	'v', 00H, 'R', 00H, 'e', 00H, 'm', 00H, '_', 00H, 'X', 00H, '_'
	DB	00H, 'L', 00H, ' ', 00H, '(', 00H, '%', 00H, 'd', 00H, '.', 00H
	DB	'%', 00H, 'd', 00H, ')', 00H, 00H, 00H
	ORG $+6
$SG94783 DB	'P', 00H, 'M', 00H, 'C', 00H, '_', 00H, 'D', 00H, 'i', 00H
	DB	'v', 00H, 'R', 00H, 'e', 00H, 'm', 00H, '_', 00H, 'X', 00H, '_'
	DB	00H, 'L', 00H, 'n0', 0a9H, '_0^', 0b3H, '0', 0fcH, '0', 0c9H, '0'
	DB	'L0', 01fH, 'g', 085H, '_', 01aH, 090H, 08aH, '0g0o0j0D0(', 00H
	DB	'%', 00H, 'd', 00H, ')', 00H, 00H, 00H
$SG94784 DB	'P', 00H, 'M', 00H, 'C', 00H, '_', 00H, 'D', 00H, 'i', 00H
	DB	'v', 00H, 'R', 00H, 'e', 00H, 'm', 00H, '_', 00H, 'X', 00H, '_'
	DB	00H, 'L', 00H, ' ', 00H, '(', 00H, '%', 00H, 'd', 00H, '.', 00H
	DB	'%', 00H, 'd', 00H, ')', 00H, 00H, 00H
	ORG $+6
$SG94786 DB	'P', 00H, 'M', 00H, 'C', 00H, '_', 00H, 'T', 00H, 'o', 00H
	DB	'B', 00H, 'y', 00H, 't', 00H, 'e', 00H, 'A', 00H, 'r', 00H, 'r'
	DB	00H, 'a', 00H, 'y', 00H, 'n0', 0a9H, '_0^', 0b3H, '0', 0fcH, '0'
	DB	0c9H, '0L0', 01fH, 'g', 085H, '_', 01aH, 090H, 08aH, '0g0o0j0D'
	DB	'0(', 00H, '%', 00H, 'd', 00H, ')', 00H, 00H, 00H
	ORG $+2
$SG94787 DB	'P', 00H, 'M', 00H, 'C', 00H, '_', 00H, 'D', 00H, 'i', 00H
	DB	'v', 00H, 'R', 00H, 'e', 00H, 'm', 00H, '_', 00H, 'X', 00H, '_'
	DB	00H, 'L', 00H, ' ', 00H, '(', 00H, '%', 00H, 'd', 00H, '.', 00H
	DB	'%', 00H, 'd', 00H, ')', 00H, 00H, 00H
	ORG $+2
$SG94788 DB	'FUn0$PL0', 00H, 'N', 0f4H, 081H, 'W0j0D0', 00H, 00H
$SG94789 DB	'P', 00H, 'M', 00H, 'C', 00H, '_', 00H, 'D', 00H, 'i', 00H
	DB	'v', 00H, 'R', 00H, 'e', 00H, 'm', 00H, '_', 00H, 'X', 00H, '_'
	DB	00H, 'L', 00H, ' ', 00H, '(', 00H, '%', 00H, 'd', 00H, '.', 00H
	DB	'%', 00H, 'd', 00H, ')', 00H, 00H, 00H
	ORG $+2
$SG94790 DB	'pRYOn0$PL0', 00H, 'N', 0f4H, 081H, 'W0j0D0', 00H, 00H
	ORG $+2
$SG94791 DB	'P', 00H, 'M', 00H, 'C', 00H, '_', 00H, 'D', 00H, 'i', 00H
	DB	'v', 00H, 'R', 00H, 'e', 00H, 'm', 00H, '_', 00H, 'X', 00H, '_'
	DB	00H, 'L', 00H, ' ', 00H, '(', 00H, '%', 00H, 'd', 00H, '.', 00H
	DB	'%', 00H, 'd', 00H, ')', 00H, 00H, 00H
	ORG $+6
$SG94831 DB	'P', 00H, 'M', 00H, 'C', 00H, '_', 00H, 'F', 00H, 'r', 00H
	DB	'o', 00H, 'm', 00H, 'B', 00H, 'y', 00H, 't', 00H, 'e', 00H, 'A'
	DB	00H, 'r', 00H, 'r', 00H, 'a', 00H, 'y', 00H, 'n0', 0a9H, '_0^', 0b3H
	DB	'0', 0fcH, '0', 0c9H, '0L0', 01fH, 'g', 085H, '_', 01aH, 090H, 08aH
	DB	'0g0o0j0D0(', 00H, '%', 00H, 'd', 00H, ')', 00H, 00H, 00H
	ORG $+2
$SG94832 DB	'P', 00H, 'M', 00H, 'C', 00H, '_', 00H, 'D', 00H, 'i', 00H
	DB	'v', 00H, 'R', 00H, 'e', 00H, 'm', 00H, '_', 00H, 'X', 00H, '_'
	DB	00H, 'X', 00H, ' ', 00H, '(', 00H, '%', 00H, 'd', 00H, '.', 00H
	DB	'%', 00H, 'd', 00H, ')', 00H, 00H, 00H
	ORG $+6
$SG94833 DB	'P', 00H, 'M', 00H, 'C', 00H, '_', 00H, 'F', 00H, 'r', 00H
	DB	'o', 00H, 'm', 00H, 'B', 00H, 'y', 00H, 't', 00H, 'e', 00H, 'A'
	DB	00H, 'r', 00H, 'r', 00H, 'a', 00H, 'y', 00H, 'n0', 0a9H, '_0^', 0b3H
	DB	'0', 0fcH, '0', 0c9H, '0L0', 01fH, 'g', 085H, '_', 01aH, 090H, 08aH
	DB	'0g0o0j0D0(', 00H, '%', 00H, 'd', 00H, ')', 00H, 00H, 00H
	ORG $+2
$SG94834 DB	'P', 00H, 'M', 00H, 'C', 00H, '_', 00H, 'D', 00H, 'i', 00H
	DB	'v', 00H, 'R', 00H, 'e', 00H, 'm', 00H, '_', 00H, 'X', 00H, '_'
	DB	00H, 'X', 00H, ' ', 00H, '(', 00H, '%', 00H, 'd', 00H, '.', 00H
	DB	'%', 00H, 'd', 00H, ')', 00H, 00H, 00H
	ORG $+6
$SG94835 DB	'P', 00H, 'M', 00H, 'C', 00H, '_', 00H, 'D', 00H, 'i', 00H
	DB	'v', 00H, 'R', 00H, 'e', 00H, 'm', 00H, '_', 00H, 'X', 00H, '_'
	DB	00H, 'X', 00H, 'n0', 0a9H, '_0^', 0b3H, '0', 0fcH, '0', 0c9H, '0'
	DB	'L0', 01fH, 'g', 085H, '_', 01aH, 090H, 08aH, '0g0o0j0D0(', 00H
	DB	'%', 00H, 'd', 00H, ')', 00H, 00H, 00H
$SG94836 DB	'P', 00H, 'M', 00H, 'C', 00H, '_', 00H, 'D', 00H, 'i', 00H
	DB	'v', 00H, 'R', 00H, 'e', 00H, 'm', 00H, '_', 00H, 'X', 00H, '_'
	DB	00H, 'X', 00H, ' ', 00H, '(', 00H, '%', 00H, 'd', 00H, '.', 00H
	DB	'%', 00H, 'd', 00H, ')', 00H, 00H, 00H
	ORG $+6
$SG94838 DB	'P', 00H, 'M', 00H, 'C', 00H, '_', 00H, 'T', 00H, 'o', 00H
	DB	'B', 00H, 'y', 00H, 't', 00H, 'e', 00H, 'A', 00H, 'r', 00H, 'r'
	DB	00H, 'a', 00H, 'y', 00H, 'n0', 0a9H, '_0^', 0b3H, '0', 0fcH, '0'
	DB	0c9H, '0L0', 01fH, 'g', 085H, '_', 01aH, 090H, 08aH, '0g0o0j0D'
	DB	'0(', 00H, '%', 00H, 'd', 00H, ')', 00H, 00H, 00H
	ORG $+2
$SG94839 DB	'P', 00H, 'M', 00H, 'C', 00H, '_', 00H, 'D', 00H, 'i', 00H
	DB	'v', 00H, 'R', 00H, 'e', 00H, 'm', 00H, '_', 00H, 'X', 00H, '_'
	DB	00H, 'X', 00H, ' ', 00H, '(', 00H, '%', 00H, 'd', 00H, '.', 00H
	DB	'%', 00H, 'd', 00H, ')', 00H, 00H, 00H
	ORG $+2
$SG94840 DB	'P', 00H, 'M', 00H, 'C', 00H, '_', 00H, 'T', 00H, 'o', 00H
	DB	'B', 00H, 'y', 00H, 't', 00H, 'e', 00H, 'A', 00H, 'r', 00H, 'r'
	DB	00H, 'a', 00H, 'y', 00H, 'n0', 0a9H, '_0^', 0b3H, '0', 0fcH, '0'
	DB	0c9H, '0L0', 01fH, 'g', 085H, '_', 01aH, 090H, 08aH, '0g0o0j0D'
	DB	'0(', 00H, '%', 00H, 'd', 00H, ')', 00H, 00H, 00H
	ORG $+2
$SG94841 DB	'P', 00H, 'M', 00H, 'C', 00H, '_', 00H, 'D', 00H, 'i', 00H
	DB	'v', 00H, 'R', 00H, 'e', 00H, 'm', 00H, '_', 00H, 'X', 00H, '_'
	DB	00H, 'X', 00H, ' ', 00H, '(', 00H, '%', 00H, 'd', 00H, '.', 00H
	DB	'%', 00H, 'd', 00H, ')', 00H, 00H, 00H
	ORG $+2
$SG94842 DB	'FUn0$PL0', 00H, 'N', 0f4H, 081H, 'W0j0D0', 00H, 00H
$SG94843 DB	'P', 00H, 'M', 00H, 'C', 00H, '_', 00H, 'D', 00H, 'i', 00H
	DB	'v', 00H, 'R', 00H, 'e', 00H, 'm', 00H, '_', 00H, 'X', 00H, '_'
	DB	00H, 'X', 00H, ' ', 00H, '(', 00H, '%', 00H, 'd', 00H, '.', 00H
	DB	'%', 00H, 'd', 00H, ')', 00H, 00H, 00H
	ORG $+2
$SG94844 DB	'pRYOn0$PL0', 00H, 'N', 0f4H, 081H, 'W0j0D0', 00H, 00H
	ORG $+2
$SG94845 DB	'P', 00H, 'M', 00H, 'C', 00H, '_', 00H, 'D', 00H, 'i', 00H
	DB	'v', 00H, 'R', 00H, 'e', 00H, 'm', 00H, '_', 00H, 'X', 00H, '_'
	DB	00H, 'X', 00H, ' ', 00H, '(', 00H, '%', 00H, 'd', 00H, '.', 00H
	DB	'%', 00H, 'd', 00H, ')', 00H, 00H, 00H
_DATA	ENDS
; Function compile flags: /Odt
;	COMDAT __JustMyCode_Default
_TEXT	SEGMENT
__JustMyCode_Default PROC				; COMDAT
	push	ebp
	mov	ebp, esp
	pop	ebp
	ret	0
__JustMyCode_Default ENDP
_TEXT	ENDS
; Function compile flags: /Odtp /RTCsu
; File z:\sources\lunor\repos\rougemeilland\palmtree.math.core.uint\palmtree.math.core.uint\pmc_uint_debug.h
_TEXT	SEGMENT
_buffer1$ = 8						; size = 4
_count1$ = 12						; size = 4
_buffer2$ = 16						; size = 4
_count2$ = 20						; size = 4
__EQUALS_MEMORY PROC

; 155  : {

	push	ebp
	mov	ebp, esp
	mov	ecx, OFFSET __630249ED_pmc_uint_debug@h
	call	@__CheckForDebuggerJustMyCode@4

; 156  :     if (count1 != count2)

	mov	eax, DWORD PTR _count1$[ebp]
	cmp	eax, DWORD PTR _count2$[ebp]
	je	SHORT $LN2@EQUALS_MEM

; 157  :         return (-1);

	or	eax, -1
	jmp	SHORT $LN1@EQUALS_MEM
$LN2@EQUALS_MEM:

; 158  :     while (count1 > 0)

	cmp	DWORD PTR _count1$[ebp], 0
	jbe	SHORT $LN3@EQUALS_MEM

; 159  :     {
; 160  :         if (*buffer1 != *buffer2)

	mov	ecx, DWORD PTR _buffer1$[ebp]
	movzx	edx, BYTE PTR [ecx]
	mov	eax, DWORD PTR _buffer2$[ebp]
	movzx	ecx, BYTE PTR [eax]
	cmp	edx, ecx
	je	SHORT $LN5@EQUALS_MEM

; 161  :             return (-1);

	or	eax, -1
	jmp	SHORT $LN1@EQUALS_MEM
$LN5@EQUALS_MEM:

; 162  :         ++buffer1;

	mov	edx, DWORD PTR _buffer1$[ebp]
	add	edx, 1
	mov	DWORD PTR _buffer1$[ebp], edx

; 163  :         ++buffer2;

	mov	eax, DWORD PTR _buffer2$[ebp]
	add	eax, 1
	mov	DWORD PTR _buffer2$[ebp], eax

; 164  :         --count1;

	mov	ecx, DWORD PTR _count1$[ebp]
	sub	ecx, 1
	mov	DWORD PTR _count1$[ebp], ecx

; 165  :     }

	jmp	SHORT $LN2@EQUALS_MEM
$LN3@EQUALS_MEM:

; 166  :     return (0);

	xor	eax, eax
$LN1@EQUALS_MEM:

; 167  : }

	cmp	ebp, esp
	call	__RTC_CheckEsp
	pop	ebp
	ret	0
__EQUALS_MEMORY ENDP
_TEXT	ENDS
; Function compile flags: /Odtp /RTCsu
; File z:\sources\lunor\repos\rougemeilland\palmtree.math.core.uint\palmtree.math.core.uint\test_op_divrem.c
_TEXT	SEGMENT
tv212 = -648						; size = 4
tv197 = -644						; size = 4
tv182 = -640						; size = 4
tv163 = -636						; size = 4
tv143 = -632						; size = 4
tv92 = -628						; size = 4
tv74 = -624						; size = 4
_q_r_result$ = -620					; size = 4
_v_result$ = -616					; size = 4
_u_result$ = -612					; size = 4
_result$ = -608						; size = 4
_actual_r_buf_size$ = -600				; size = 4
_actual_r_buf$ = -588					; size = 256
_actual_q_buf_size$ = -324				; size = 4
_actual_q_buf$ = -312					; size = 256
_r$ = -48						; size = 4
_q$ = -36						; size = 4
_v$ = -24						; size = 4
_u$ = -12						; size = 4
__$ArrayPad$ = -4					; size = 4
_env$ = 8						; size = 4
_ep$ = 12						; size = 4
_no$ = 16						; size = 4
_u_buf$ = 20						; size = 4
_u_buf_size$ = 24					; size = 4
_v_buf$ = 28						; size = 4
_v_buf_size$ = 32					; size = 4
_desired_return_code$ = 36				; size = 4
_desired_q_buf$ = 40					; size = 4
_desired_q_buf_size$ = 44				; size = 4
_desired_r_buf$ = 48					; size = 4
_desired_r_buf_size$ = 52				; size = 4
_TEST_PMC_DivRem_X_X PROC

; 117  : {

	push	ebp
	mov	ebp, esp
	sub	esp, 648				; 00000288H
	push	esi
	push	edi
	lea	edi, DWORD PTR [ebp-648]
	mov	ecx, 162				; 000000a2H
	mov	eax, -858993460				; ccccccccH
	rep stosd
	mov	eax, DWORD PTR ___security_cookie
	xor	eax, ebp
	mov	DWORD PTR __$ArrayPad$[ebp], eax
	mov	ecx, OFFSET __FF4197B5_test_op_divrem@c
	call	@__CheckForDebuggerJustMyCode@4

; 118  : 	PMC_HANDLE_UINT u;
; 119  : 	PMC_HANDLE_UINT v;
; 120  : 	PMC_HANDLE_UINT q;
; 121  : 	PMC_HANDLE_UINT r;
; 122  : 	unsigned char actual_q_buf[256];
; 123  : 	size_t actual_q_buf_size;
; 124  : 	unsigned char actual_r_buf[256];
; 125  : 	size_t actual_r_buf_size;
; 126  : 	PMC_STATUS_CODE result;
; 127  : 	PMC_STATUS_CODE u_result;
; 128  : 	PMC_STATUS_CODE v_result;
; 129  : 	PMC_STATUS_CODE q_r_result;
; 130  : 	TEST_Assert(env, FormatTestLabel(L"PMC_DivRem_X_X (%d.%d)", no, 1), (u_result = ep->FromByteArray(u_buf, u_buf_size, &u)) == PMC_STATUS_OK, FormatTestMesssage(L"PMC_FromByteArrayの復帰コードが期待通りではない(%d)", u_result));

	mov	esi, esp
	lea	eax, DWORD PTR _u$[ebp]
	push	eax
	mov	ecx, DWORD PTR _u_buf_size$[ebp]
	push	ecx
	mov	edx, DWORD PTR _u_buf$[ebp]
	push	edx
	mov	eax, DWORD PTR _ep$[ebp]
	mov	ecx, DWORD PTR [eax+24]
	call	ecx
	cmp	esi, esp
	call	__RTC_CheckEsp
	mov	DWORD PTR _u_result$[ebp], eax
	cmp	DWORD PTR _u_result$[ebp], 0
	jne	SHORT $LN7@TEST_PMC_D
	mov	DWORD PTR tv74[ebp], 1
	jmp	SHORT $LN8@TEST_PMC_D
$LN7@TEST_PMC_D:
	mov	DWORD PTR tv74[ebp], 0
$LN8@TEST_PMC_D:
	mov	edx, DWORD PTR _u_result$[ebp]
	push	edx
	push	OFFSET $SG94831
	call	_FormatTestMesssage
	add	esp, 8
	push	eax
	mov	eax, DWORD PTR tv74[ebp]
	push	eax
	push	1
	mov	ecx, DWORD PTR _no$[ebp]
	push	ecx
	push	OFFSET $SG94832
	call	_FormatTestLabel
	add	esp, 12					; 0000000cH
	push	eax
	mov	edx, DWORD PTR _env$[ebp]
	push	edx
	call	_TEST_Assert
	add	esp, 16					; 00000010H

; 131  : 	TEST_Assert(env, FormatTestLabel(L"PMC_DivRem_X_X (%d.%d)", no, 2), (v_result = ep->FromByteArray(v_buf, v_buf_size, &v)) == PMC_STATUS_OK, FormatTestMesssage(L"PMC_FromByteArrayの復帰コードが期待通りではない(%d)", v_result));

	mov	esi, esp
	lea	eax, DWORD PTR _v$[ebp]
	push	eax
	mov	ecx, DWORD PTR _v_buf_size$[ebp]
	push	ecx
	mov	edx, DWORD PTR _v_buf$[ebp]
	push	edx
	mov	eax, DWORD PTR _ep$[ebp]
	mov	ecx, DWORD PTR [eax+24]
	call	ecx
	cmp	esi, esp
	call	__RTC_CheckEsp
	mov	DWORD PTR _v_result$[ebp], eax
	cmp	DWORD PTR _v_result$[ebp], 0
	jne	SHORT $LN9@TEST_PMC_D
	mov	DWORD PTR tv92[ebp], 1
	jmp	SHORT $LN10@TEST_PMC_D
$LN9@TEST_PMC_D:
	mov	DWORD PTR tv92[ebp], 0
$LN10@TEST_PMC_D:
	mov	edx, DWORD PTR _v_result$[ebp]
	push	edx
	push	OFFSET $SG94833
	call	_FormatTestMesssage
	add	esp, 8
	push	eax
	mov	eax, DWORD PTR tv92[ebp]
	push	eax
	push	2
	mov	ecx, DWORD PTR _no$[ebp]
	push	ecx
	push	OFFSET $SG94834
	call	_FormatTestLabel
	add	esp, 12					; 0000000cH
	push	eax
	mov	edx, DWORD PTR _env$[ebp]
	push	edx
	call	_TEST_Assert
	add	esp, 16					; 00000010H

; 132  : 	TEST_Assert(env, FormatTestLabel(L"PMC_DivRem_X_X (%d.%d)", no, 3), (q_r_result = ep->DivRem_X_X(u, v, &q, &r)) == desired_return_code, FormatTestMesssage(L"PMC_DivRem_X_Xの復帰コードが期待通りではない(%d)", q_r_result));

	mov	esi, esp
	lea	eax, DWORD PTR _r$[ebp]
	push	eax
	lea	ecx, DWORD PTR _q$[ebp]
	push	ecx
	mov	edx, DWORD PTR _v$[ebp]
	push	edx
	mov	eax, DWORD PTR _u$[ebp]
	push	eax
	mov	ecx, DWORD PTR _ep$[ebp]
	mov	edx, DWORD PTR [ecx+132]
	call	edx
	cmp	esi, esp
	call	__RTC_CheckEsp
	mov	DWORD PTR _q_r_result$[ebp], eax
	mov	eax, DWORD PTR _q_r_result$[ebp]
	cmp	eax, DWORD PTR _desired_return_code$[ebp]
	jne	SHORT $LN11@TEST_PMC_D
	mov	DWORD PTR tv143[ebp], 1
	jmp	SHORT $LN12@TEST_PMC_D
$LN11@TEST_PMC_D:
	mov	DWORD PTR tv143[ebp], 0
$LN12@TEST_PMC_D:
	mov	ecx, DWORD PTR _q_r_result$[ebp]
	push	ecx
	push	OFFSET $SG94835
	call	_FormatTestMesssage
	add	esp, 8
	push	eax
	mov	edx, DWORD PTR tv143[ebp]
	push	edx
	push	3
	mov	eax, DWORD PTR _no$[ebp]
	push	eax
	push	OFFSET $SG94836
	call	_FormatTestLabel
	add	esp, 12					; 0000000cH
	push	eax
	mov	ecx, DWORD PTR _env$[ebp]
	push	ecx
	call	_TEST_Assert
	add	esp, 16					; 00000010H

; 133  : 	if (desired_return_code == PMC_STATUS_OK)

	cmp	DWORD PTR _desired_return_code$[ebp], 0
	jne	$LN2@TEST_PMC_D

; 134  : 	{
; 135  : 		TEST_Assert(env, FormatTestLabel(L"PMC_DivRem_X_X (%d.%d)", no, 4), (result = ep->ToByteArray(q, actual_q_buf, sizeof(actual_q_buf), &actual_q_buf_size)) == PMC_STATUS_OK, FormatTestMesssage(L"PMC_ToByteArrayの復帰コードが期待通りではない(%d)", result));

	mov	esi, esp
	lea	edx, DWORD PTR _actual_q_buf_size$[ebp]
	push	edx
	push	256					; 00000100H
	lea	eax, DWORD PTR _actual_q_buf$[ebp]
	push	eax
	mov	ecx, DWORD PTR _q$[ebp]
	push	ecx
	mov	edx, DWORD PTR _ep$[ebp]
	mov	eax, DWORD PTR [edx+28]
	call	eax
	cmp	esi, esp
	call	__RTC_CheckEsp
	mov	DWORD PTR _result$[ebp], eax
	cmp	DWORD PTR _result$[ebp], 0
	jne	SHORT $LN13@TEST_PMC_D
	mov	DWORD PTR tv163[ebp], 1
	jmp	SHORT $LN14@TEST_PMC_D
$LN13@TEST_PMC_D:
	mov	DWORD PTR tv163[ebp], 0
$LN14@TEST_PMC_D:
	mov	ecx, DWORD PTR _result$[ebp]
	push	ecx
	push	OFFSET $SG94838
	call	_FormatTestMesssage
	add	esp, 8
	push	eax
	mov	edx, DWORD PTR tv163[ebp]
	push	edx
	push	4
	mov	eax, DWORD PTR _no$[ebp]
	push	eax
	push	OFFSET $SG94839
	call	_FormatTestLabel
	add	esp, 12					; 0000000cH
	push	eax
	mov	ecx, DWORD PTR _env$[ebp]
	push	ecx
	call	_TEST_Assert
	add	esp, 16					; 00000010H

; 136  : 		TEST_Assert(env, FormatTestLabel(L"PMC_DivRem_X_X (%d.%d)", no, 5), (result = ep->ToByteArray(r, actual_r_buf, sizeof(actual_r_buf), &actual_r_buf_size)) == PMC_STATUS_OK, FormatTestMesssage(L"PMC_ToByteArrayの復帰コードが期待通りではない(%d)", result));

	mov	esi, esp
	lea	edx, DWORD PTR _actual_r_buf_size$[ebp]
	push	edx
	push	256					; 00000100H
	lea	eax, DWORD PTR _actual_r_buf$[ebp]
	push	eax
	mov	ecx, DWORD PTR _r$[ebp]
	push	ecx
	mov	edx, DWORD PTR _ep$[ebp]
	mov	eax, DWORD PTR [edx+28]
	call	eax
	cmp	esi, esp
	call	__RTC_CheckEsp
	mov	DWORD PTR _result$[ebp], eax
	cmp	DWORD PTR _result$[ebp], 0
	jne	SHORT $LN15@TEST_PMC_D
	mov	DWORD PTR tv182[ebp], 1
	jmp	SHORT $LN16@TEST_PMC_D
$LN15@TEST_PMC_D:
	mov	DWORD PTR tv182[ebp], 0
$LN16@TEST_PMC_D:
	mov	ecx, DWORD PTR _result$[ebp]
	push	ecx
	push	OFFSET $SG94840
	call	_FormatTestMesssage
	add	esp, 8
	push	eax
	mov	edx, DWORD PTR tv182[ebp]
	push	edx
	push	5
	mov	eax, DWORD PTR _no$[ebp]
	push	eax
	push	OFFSET $SG94841
	call	_FormatTestLabel
	add	esp, 12					; 0000000cH
	push	eax
	mov	ecx, DWORD PTR _env$[ebp]
	push	ecx
	call	_TEST_Assert
	add	esp, 16					; 00000010H

; 137  : 		TEST_Assert(env, FormatTestLabel(L"PMC_DivRem_X_X (%d.%d)", no, 6), _EQUALS_MEMORY(actual_q_buf, actual_q_buf_size, desired_q_buf, desired_q_buf_size) == 0, L"商の値が一致しない");

	mov	edx, DWORD PTR _desired_q_buf_size$[ebp]
	push	edx
	mov	eax, DWORD PTR _desired_q_buf$[ebp]
	push	eax
	mov	ecx, DWORD PTR _actual_q_buf_size$[ebp]
	push	ecx
	lea	edx, DWORD PTR _actual_q_buf$[ebp]
	push	edx
	call	__EQUALS_MEMORY
	add	esp, 16					; 00000010H
	test	eax, eax
	jne	SHORT $LN17@TEST_PMC_D
	mov	DWORD PTR tv197[ebp], 1
	jmp	SHORT $LN18@TEST_PMC_D
$LN17@TEST_PMC_D:
	mov	DWORD PTR tv197[ebp], 0
$LN18@TEST_PMC_D:
	push	OFFSET $SG94842
	mov	eax, DWORD PTR tv197[ebp]
	push	eax
	push	6
	mov	ecx, DWORD PTR _no$[ebp]
	push	ecx
	push	OFFSET $SG94843
	call	_FormatTestLabel
	add	esp, 12					; 0000000cH
	push	eax
	mov	edx, DWORD PTR _env$[ebp]
	push	edx
	call	_TEST_Assert
	add	esp, 16					; 00000010H

; 138  : 		TEST_Assert(env, FormatTestLabel(L"PMC_DivRem_X_X (%d.%d)", no, 7), _EQUALS_MEMORY(actual_r_buf, actual_r_buf_size, desired_r_buf, desired_r_buf_size) == 0, L"剰余の値が一致しない");

	mov	eax, DWORD PTR _desired_r_buf_size$[ebp]
	push	eax
	mov	ecx, DWORD PTR _desired_r_buf$[ebp]
	push	ecx
	mov	edx, DWORD PTR _actual_r_buf_size$[ebp]
	push	edx
	lea	eax, DWORD PTR _actual_r_buf$[ebp]
	push	eax
	call	__EQUALS_MEMORY
	add	esp, 16					; 00000010H
	test	eax, eax
	jne	SHORT $LN19@TEST_PMC_D
	mov	DWORD PTR tv212[ebp], 1
	jmp	SHORT $LN20@TEST_PMC_D
$LN19@TEST_PMC_D:
	mov	DWORD PTR tv212[ebp], 0
$LN20@TEST_PMC_D:
	push	OFFSET $SG94844
	mov	ecx, DWORD PTR tv212[ebp]
	push	ecx
	push	7
	mov	edx, DWORD PTR _no$[ebp]
	push	edx
	push	OFFSET $SG94845
	call	_FormatTestLabel
	add	esp, 12					; 0000000cH
	push	eax
	mov	eax, DWORD PTR _env$[ebp]
	push	eax
	call	_TEST_Assert
	add	esp, 16					; 00000010H
$LN2@TEST_PMC_D:

; 139  : 	}
; 140  : 	if (q_r_result == PMC_STATUS_OK)

	cmp	DWORD PTR _q_r_result$[ebp], 0
	jne	SHORT $LN3@TEST_PMC_D

; 141  : 	{
; 142  : 		ep->Dispose(q);

	mov	esi, esp
	mov	ecx, DWORD PTR _q$[ebp]
	push	ecx
	mov	edx, DWORD PTR _ep$[ebp]
	mov	eax, DWORD PTR [edx+16]
	call	eax
	cmp	esi, esp
	call	__RTC_CheckEsp

; 143  : 		ep->Dispose(r);

	mov	esi, esp
	mov	ecx, DWORD PTR _r$[ebp]
	push	ecx
	mov	edx, DWORD PTR _ep$[ebp]
	mov	eax, DWORD PTR [edx+16]
	call	eax
	cmp	esi, esp
	call	__RTC_CheckEsp
$LN3@TEST_PMC_D:

; 144  : 	}
; 145  : 	if (v_result == PMC_STATUS_OK)

	cmp	DWORD PTR _v_result$[ebp], 0
	jne	SHORT $LN4@TEST_PMC_D

; 146  : 		ep->Dispose(v);

	mov	esi, esp
	mov	ecx, DWORD PTR _v$[ebp]
	push	ecx
	mov	edx, DWORD PTR _ep$[ebp]
	mov	eax, DWORD PTR [edx+16]
	call	eax
	cmp	esi, esp
	call	__RTC_CheckEsp
$LN4@TEST_PMC_D:

; 147  : 	if (u_result == PMC_STATUS_OK)

	cmp	DWORD PTR _u_result$[ebp], 0
	jne	SHORT $LN1@TEST_PMC_D

; 148  : 		ep->Dispose(u);

	mov	esi, esp
	mov	ecx, DWORD PTR _u$[ebp]
	push	ecx
	mov	edx, DWORD PTR _ep$[ebp]
	mov	eax, DWORD PTR [edx+16]
	call	eax
	cmp	esi, esp
	call	__RTC_CheckEsp
$LN1@TEST_PMC_D:

; 149  : }

	push	edx
	mov	ecx, ebp
	push	eax
	lea	edx, DWORD PTR $LN30@TEST_PMC_D
	call	@_RTC_CheckStackVars@8
	pop	eax
	pop	edx
	pop	edi
	pop	esi
	mov	ecx, DWORD PTR __$ArrayPad$[ebp]
	xor	ecx, ebp
	call	@__security_check_cookie@4
	add	esp, 648				; 00000288H
	cmp	ebp, esp
	call	__RTC_CheckEsp
	mov	esp, ebp
	pop	ebp
	ret	0
	npad	3
$LN30@TEST_PMC_D:
	DD	8
	DD	$LN29@TEST_PMC_D
$LN29@TEST_PMC_D:
	DD	-12					; fffffff4H
	DD	4
	DD	$LN21@TEST_PMC_D
	DD	-24					; ffffffe8H
	DD	4
	DD	$LN22@TEST_PMC_D
	DD	-36					; ffffffdcH
	DD	4
	DD	$LN23@TEST_PMC_D
	DD	-48					; ffffffd0H
	DD	4
	DD	$LN24@TEST_PMC_D
	DD	-312					; fffffec8H
	DD	256					; 00000100H
	DD	$LN25@TEST_PMC_D
	DD	-324					; fffffebcH
	DD	4
	DD	$LN26@TEST_PMC_D
	DD	-588					; fffffdb4H
	DD	256					; 00000100H
	DD	$LN27@TEST_PMC_D
	DD	-600					; fffffda8H
	DD	4
	DD	$LN28@TEST_PMC_D
$LN28@TEST_PMC_D:
	DB	97					; 00000061H
	DB	99					; 00000063H
	DB	116					; 00000074H
	DB	117					; 00000075H
	DB	97					; 00000061H
	DB	108					; 0000006cH
	DB	95					; 0000005fH
	DB	114					; 00000072H
	DB	95					; 0000005fH
	DB	98					; 00000062H
	DB	117					; 00000075H
	DB	102					; 00000066H
	DB	95					; 0000005fH
	DB	115					; 00000073H
	DB	105					; 00000069H
	DB	122					; 0000007aH
	DB	101					; 00000065H
	DB	0
$LN27@TEST_PMC_D:
	DB	97					; 00000061H
	DB	99					; 00000063H
	DB	116					; 00000074H
	DB	117					; 00000075H
	DB	97					; 00000061H
	DB	108					; 0000006cH
	DB	95					; 0000005fH
	DB	114					; 00000072H
	DB	95					; 0000005fH
	DB	98					; 00000062H
	DB	117					; 00000075H
	DB	102					; 00000066H
	DB	0
$LN26@TEST_PMC_D:
	DB	97					; 00000061H
	DB	99					; 00000063H
	DB	116					; 00000074H
	DB	117					; 00000075H
	DB	97					; 00000061H
	DB	108					; 0000006cH
	DB	95					; 0000005fH
	DB	113					; 00000071H
	DB	95					; 0000005fH
	DB	98					; 00000062H
	DB	117					; 00000075H
	DB	102					; 00000066H
	DB	95					; 0000005fH
	DB	115					; 00000073H
	DB	105					; 00000069H
	DB	122					; 0000007aH
	DB	101					; 00000065H
	DB	0
$LN25@TEST_PMC_D:
	DB	97					; 00000061H
	DB	99					; 00000063H
	DB	116					; 00000074H
	DB	117					; 00000075H
	DB	97					; 00000061H
	DB	108					; 0000006cH
	DB	95					; 0000005fH
	DB	113					; 00000071H
	DB	95					; 0000005fH
	DB	98					; 00000062H
	DB	117					; 00000075H
	DB	102					; 00000066H
	DB	0
$LN24@TEST_PMC_D:
	DB	114					; 00000072H
	DB	0
$LN23@TEST_PMC_D:
	DB	113					; 00000071H
	DB	0
$LN22@TEST_PMC_D:
	DB	118					; 00000076H
	DB	0
$LN21@TEST_PMC_D:
	DB	117					; 00000075H
	DB	0
_TEST_PMC_DivRem_X_X ENDP
_TEXT	ENDS
; Function compile flags: /Odtp /RTCsu
; File z:\sources\lunor\repos\rougemeilland\palmtree.math.core.uint\palmtree.math.core.uint\test_op_divrem.c
_TEXT	SEGMENT
tv170 = -352						; size = 4
tv160 = -348						; size = 4
tv145 = -344						; size = 4
tv93 = -340						; size = 4
tv74 = -336						; size = 4
_q_result$ = -332					; size = 4
_u_result$ = -328					; size = 4
_result$ = -324						; size = 4
_actual_r$ = -316					; size = 8
_actual_q_buf_size$ = -300				; size = 4
_actual_q_buf$ = -288					; size = 256
_q$ = -24						; size = 4
_u$ = -12						; size = 4
__$ArrayPad$ = -4					; size = 4
_env$ = 8						; size = 4
_ep$ = 12						; size = 4
_no$ = 16						; size = 4
_u_buf$ = 20						; size = 4
_u_buf_size$ = 24					; size = 4
_v$ = 28						; size = 8
_desired_return_code$ = 36				; size = 4
_desired_q_buf$ = 40					; size = 4
_desired_q_buf_size$ = 44				; size = 4
_desired_r$ = 48					; size = 8
_TEST_PMC_DivRem_X_L PROC

; 93   : {

	push	ebp
	mov	ebp, esp
	sub	esp, 352				; 00000160H
	push	esi
	push	edi
	lea	edi, DWORD PTR [ebp-352]
	mov	ecx, 88					; 00000058H
	mov	eax, -858993460				; ccccccccH
	rep stosd
	mov	eax, DWORD PTR ___security_cookie
	xor	eax, ebp
	mov	DWORD PTR __$ArrayPad$[ebp], eax
	mov	ecx, OFFSET __FF4197B5_test_op_divrem@c
	call	@__CheckForDebuggerJustMyCode@4

; 94   :     PMC_HANDLE_UINT u;
; 95   :     PMC_HANDLE_UINT q;
; 96   :     unsigned char actual_q_buf[256];
; 97   :     size_t actual_q_buf_size;
; 98   :     unsigned __int64 actual_r;
; 99   :     PMC_STATUS_CODE result;
; 100  :     PMC_STATUS_CODE u_result;
; 101  :     PMC_STATUS_CODE q_result;
; 102  :     TEST_Assert(env, FormatTestLabel(L"PMC_DivRem_X_L (%d.%d)", no, 1), (u_result = ep->FromByteArray(u_buf, u_buf_size, &u)) == PMC_STATUS_OK, FormatTestMesssage(L"PMC_FromByteArrayの復帰コードが期待通りではない(%d)", u_result));

	mov	esi, esp
	lea	eax, DWORD PTR _u$[ebp]
	push	eax
	mov	ecx, DWORD PTR _u_buf_size$[ebp]
	push	ecx
	mov	edx, DWORD PTR _u_buf$[ebp]
	push	edx
	mov	eax, DWORD PTR _ep$[ebp]
	mov	ecx, DWORD PTR [eax+24]
	call	ecx
	cmp	esi, esp
	call	__RTC_CheckEsp
	mov	DWORD PTR _u_result$[ebp], eax
	cmp	DWORD PTR _u_result$[ebp], 0
	jne	SHORT $LN6@TEST_PMC_D
	mov	DWORD PTR tv74[ebp], 1
	jmp	SHORT $LN7@TEST_PMC_D
$LN6@TEST_PMC_D:
	mov	DWORD PTR tv74[ebp], 0
$LN7@TEST_PMC_D:
	mov	edx, DWORD PTR _u_result$[ebp]
	push	edx
	push	OFFSET $SG94781
	call	_FormatTestMesssage
	add	esp, 8
	push	eax
	mov	eax, DWORD PTR tv74[ebp]
	push	eax
	push	1
	mov	ecx, DWORD PTR _no$[ebp]
	push	ecx
	push	OFFSET $SG94782
	call	_FormatTestLabel
	add	esp, 12					; 0000000cH
	push	eax
	mov	edx, DWORD PTR _env$[ebp]
	push	edx
	call	_TEST_Assert
	add	esp, 16					; 00000010H

; 103  :     TEST_Assert(env, FormatTestLabel(L"PMC_DivRem_X_L (%d.%d)", no, 2), (q_result = ep->DivRem_X_L(u, v, &q, &actual_r)) == desired_return_code, FormatTestMesssage(L"PMC_DivRem_X_Lの復帰コードが期待通りではない(%d)", q_result));

	mov	esi, esp
	lea	eax, DWORD PTR _actual_r$[ebp]
	push	eax
	lea	ecx, DWORD PTR _q$[ebp]
	push	ecx
	mov	edx, DWORD PTR _v$[ebp+4]
	push	edx
	mov	eax, DWORD PTR _v$[ebp]
	push	eax
	mov	ecx, DWORD PTR _u$[ebp]
	push	ecx
	mov	edx, DWORD PTR _ep$[ebp]
	mov	eax, DWORD PTR [edx+128]
	call	eax
	cmp	esi, esp
	call	__RTC_CheckEsp
	mov	DWORD PTR _q_result$[ebp], eax
	mov	ecx, DWORD PTR _q_result$[ebp]
	cmp	ecx, DWORD PTR _desired_return_code$[ebp]
	jne	SHORT $LN8@TEST_PMC_D
	mov	DWORD PTR tv93[ebp], 1
	jmp	SHORT $LN9@TEST_PMC_D
$LN8@TEST_PMC_D:
	mov	DWORD PTR tv93[ebp], 0
$LN9@TEST_PMC_D:
	mov	edx, DWORD PTR _q_result$[ebp]
	push	edx
	push	OFFSET $SG94783
	call	_FormatTestMesssage
	add	esp, 8
	push	eax
	mov	eax, DWORD PTR tv93[ebp]
	push	eax
	push	2
	mov	ecx, DWORD PTR _no$[ebp]
	push	ecx
	push	OFFSET $SG94784
	call	_FormatTestLabel
	add	esp, 12					; 0000000cH
	push	eax
	mov	edx, DWORD PTR _env$[ebp]
	push	edx
	call	_TEST_Assert
	add	esp, 16					; 00000010H

; 104  :     if (desired_return_code == PMC_STATUS_OK)

	cmp	DWORD PTR _desired_return_code$[ebp], 0
	jne	$LN2@TEST_PMC_D

; 105  :     {
; 106  :         TEST_Assert(env, FormatTestLabel(L"PMC_DivRem_X_L (%d.%d)", no, 3), (result = ep->ToByteArray(q, actual_q_buf, sizeof(actual_q_buf), &actual_q_buf_size)) == PMC_STATUS_OK, FormatTestMesssage(L"PMC_ToByteArrayの復帰コードが期待通りではない(%d)", result));

	mov	esi, esp
	lea	eax, DWORD PTR _actual_q_buf_size$[ebp]
	push	eax
	push	256					; 00000100H
	lea	ecx, DWORD PTR _actual_q_buf$[ebp]
	push	ecx
	mov	edx, DWORD PTR _q$[ebp]
	push	edx
	mov	eax, DWORD PTR _ep$[ebp]
	mov	ecx, DWORD PTR [eax+28]
	call	ecx
	cmp	esi, esp
	call	__RTC_CheckEsp
	mov	DWORD PTR _result$[ebp], eax
	cmp	DWORD PTR _result$[ebp], 0
	jne	SHORT $LN10@TEST_PMC_D
	mov	DWORD PTR tv145[ebp], 1
	jmp	SHORT $LN11@TEST_PMC_D
$LN10@TEST_PMC_D:
	mov	DWORD PTR tv145[ebp], 0
$LN11@TEST_PMC_D:
	mov	edx, DWORD PTR _result$[ebp]
	push	edx
	push	OFFSET $SG94786
	call	_FormatTestMesssage
	add	esp, 8
	push	eax
	mov	eax, DWORD PTR tv145[ebp]
	push	eax
	push	3
	mov	ecx, DWORD PTR _no$[ebp]
	push	ecx
	push	OFFSET $SG94787
	call	_FormatTestLabel
	add	esp, 12					; 0000000cH
	push	eax
	mov	edx, DWORD PTR _env$[ebp]
	push	edx
	call	_TEST_Assert
	add	esp, 16					; 00000010H

; 107  :         TEST_Assert(env, FormatTestLabel(L"PMC_DivRem_X_L (%d.%d)", no, 4), _EQUALS_MEMORY(actual_q_buf, actual_q_buf_size, desired_q_buf, desired_q_buf_size) == 0, L"商の値が一致しない");

	mov	eax, DWORD PTR _desired_q_buf_size$[ebp]
	push	eax
	mov	ecx, DWORD PTR _desired_q_buf$[ebp]
	push	ecx
	mov	edx, DWORD PTR _actual_q_buf_size$[ebp]
	push	edx
	lea	eax, DWORD PTR _actual_q_buf$[ebp]
	push	eax
	call	__EQUALS_MEMORY
	add	esp, 16					; 00000010H
	test	eax, eax
	jne	SHORT $LN12@TEST_PMC_D
	mov	DWORD PTR tv160[ebp], 1
	jmp	SHORT $LN13@TEST_PMC_D
$LN12@TEST_PMC_D:
	mov	DWORD PTR tv160[ebp], 0
$LN13@TEST_PMC_D:
	push	OFFSET $SG94788
	mov	ecx, DWORD PTR tv160[ebp]
	push	ecx
	push	4
	mov	edx, DWORD PTR _no$[ebp]
	push	edx
	push	OFFSET $SG94789
	call	_FormatTestLabel
	add	esp, 12					; 0000000cH
	push	eax
	mov	eax, DWORD PTR _env$[ebp]
	push	eax
	call	_TEST_Assert
	add	esp, 16					; 00000010H

; 108  :         TEST_Assert(env, FormatTestLabel(L"PMC_DivRem_X_L (%d.%d)", no, 5), actual_r == desired_r, L"剰余の値が一致しない");

	mov	ecx, DWORD PTR _actual_r$[ebp]
	cmp	ecx, DWORD PTR _desired_r$[ebp]
	jne	SHORT $LN14@TEST_PMC_D
	mov	edx, DWORD PTR _actual_r$[ebp+4]
	cmp	edx, DWORD PTR _desired_r$[ebp+4]
	jne	SHORT $LN14@TEST_PMC_D
	mov	DWORD PTR tv170[ebp], 1
	jmp	SHORT $LN15@TEST_PMC_D
$LN14@TEST_PMC_D:
	mov	DWORD PTR tv170[ebp], 0
$LN15@TEST_PMC_D:
	push	OFFSET $SG94790
	mov	eax, DWORD PTR tv170[ebp]
	push	eax
	push	5
	mov	ecx, DWORD PTR _no$[ebp]
	push	ecx
	push	OFFSET $SG94791
	call	_FormatTestLabel
	add	esp, 12					; 0000000cH
	push	eax
	mov	edx, DWORD PTR _env$[ebp]
	push	edx
	call	_TEST_Assert
	add	esp, 16					; 00000010H
$LN2@TEST_PMC_D:

; 109  :     }
; 110  :     if (q_result == PMC_STATUS_OK)

	cmp	DWORD PTR _q_result$[ebp], 0
	jne	SHORT $LN3@TEST_PMC_D

; 111  :         ep->Dispose(q);

	mov	esi, esp
	mov	eax, DWORD PTR _q$[ebp]
	push	eax
	mov	ecx, DWORD PTR _ep$[ebp]
	mov	edx, DWORD PTR [ecx+16]
	call	edx
	cmp	esi, esp
	call	__RTC_CheckEsp
$LN3@TEST_PMC_D:

; 112  :     if (u_result == PMC_STATUS_OK)

	cmp	DWORD PTR _u_result$[ebp], 0
	jne	SHORT $LN1@TEST_PMC_D

; 113  :         ep->Dispose(u);

	mov	esi, esp
	mov	eax, DWORD PTR _u$[ebp]
	push	eax
	mov	ecx, DWORD PTR _ep$[ebp]
	mov	edx, DWORD PTR [ecx+16]
	call	edx
	cmp	esi, esp
	call	__RTC_CheckEsp
$LN1@TEST_PMC_D:

; 114  : }

	push	edx
	mov	ecx, ebp
	push	eax
	lea	edx, DWORD PTR $LN22@TEST_PMC_D
	call	@_RTC_CheckStackVars@8
	pop	eax
	pop	edx
	pop	edi
	pop	esi
	mov	ecx, DWORD PTR __$ArrayPad$[ebp]
	xor	ecx, ebp
	call	@__security_check_cookie@4
	add	esp, 352				; 00000160H
	cmp	ebp, esp
	call	__RTC_CheckEsp
	mov	esp, ebp
	pop	ebp
	ret	0
	npad	2
$LN22@TEST_PMC_D:
	DD	5
	DD	$LN21@TEST_PMC_D
$LN21@TEST_PMC_D:
	DD	-12					; fffffff4H
	DD	4
	DD	$LN16@TEST_PMC_D
	DD	-24					; ffffffe8H
	DD	4
	DD	$LN17@TEST_PMC_D
	DD	-288					; fffffee0H
	DD	256					; 00000100H
	DD	$LN18@TEST_PMC_D
	DD	-300					; fffffed4H
	DD	4
	DD	$LN19@TEST_PMC_D
	DD	-316					; fffffec4H
	DD	8
	DD	$LN20@TEST_PMC_D
$LN20@TEST_PMC_D:
	DB	97					; 00000061H
	DB	99					; 00000063H
	DB	116					; 00000074H
	DB	117					; 00000075H
	DB	97					; 00000061H
	DB	108					; 0000006cH
	DB	95					; 0000005fH
	DB	114					; 00000072H
	DB	0
$LN19@TEST_PMC_D:
	DB	97					; 00000061H
	DB	99					; 00000063H
	DB	116					; 00000074H
	DB	117					; 00000075H
	DB	97					; 00000061H
	DB	108					; 0000006cH
	DB	95					; 0000005fH
	DB	113					; 00000071H
	DB	95					; 0000005fH
	DB	98					; 00000062H
	DB	117					; 00000075H
	DB	102					; 00000066H
	DB	95					; 0000005fH
	DB	115					; 00000073H
	DB	105					; 00000069H
	DB	122					; 0000007aH
	DB	101					; 00000065H
	DB	0
$LN18@TEST_PMC_D:
	DB	97					; 00000061H
	DB	99					; 00000063H
	DB	116					; 00000074H
	DB	117					; 00000075H
	DB	97					; 00000061H
	DB	108					; 0000006cH
	DB	95					; 0000005fH
	DB	113					; 00000071H
	DB	95					; 0000005fH
	DB	98					; 00000062H
	DB	117					; 00000075H
	DB	102					; 00000066H
	DB	0
$LN17@TEST_PMC_D:
	DB	113					; 00000071H
	DB	0
$LN16@TEST_PMC_D:
	DB	117					; 00000075H
	DB	0
_TEST_PMC_DivRem_X_L ENDP
_TEXT	ENDS
; Function compile flags: /Odtp /RTCsu
; File z:\sources\lunor\repos\rougemeilland\palmtree.math.core.uint\palmtree.math.core.uint\test_op_divrem.c
_TEXT	SEGMENT
tv170 = -348						; size = 4
tv160 = -344						; size = 4
tv145 = -340						; size = 4
tv93 = -336						; size = 4
tv74 = -332						; size = 4
_q_result$ = -328					; size = 4
_u_result$ = -324					; size = 4
_result$ = -320						; size = 4
_actual_r$ = -312					; size = 4
_actual_q_buf_size$ = -300				; size = 4
_actual_q_buf$ = -288					; size = 256
_q$ = -24						; size = 4
_u$ = -12						; size = 4
__$ArrayPad$ = -4					; size = 4
_env$ = 8						; size = 4
_ep$ = 12						; size = 4
_no$ = 16						; size = 4
_u_buf$ = 20						; size = 4
_u_buf_size$ = 24					; size = 4
_v$ = 28						; size = 4
_desired_return_code$ = 32				; size = 4
_desired_q_buf$ = 36					; size = 4
_desired_q_buf_size$ = 40				; size = 4
_desired_r$ = 44					; size = 4
_TEST_PMC_DivRem_X_I PROC

; 69   : {

	push	ebp
	mov	ebp, esp
	sub	esp, 348				; 0000015cH
	push	esi
	push	edi
	lea	edi, DWORD PTR [ebp-348]
	mov	ecx, 87					; 00000057H
	mov	eax, -858993460				; ccccccccH
	rep stosd
	mov	eax, DWORD PTR ___security_cookie
	xor	eax, ebp
	mov	DWORD PTR __$ArrayPad$[ebp], eax
	mov	ecx, OFFSET __FF4197B5_test_op_divrem@c
	call	@__CheckForDebuggerJustMyCode@4

; 70   :     PMC_HANDLE_UINT u;
; 71   :     PMC_HANDLE_UINT q;
; 72   :     unsigned char actual_q_buf[256];
; 73   :     size_t actual_q_buf_size;
; 74   :     unsigned __int32 actual_r;
; 75   :     PMC_STATUS_CODE result;
; 76   :     PMC_STATUS_CODE u_result;
; 77   :     PMC_STATUS_CODE q_result;
; 78   :     TEST_Assert(env, FormatTestLabel(L"PMC_DivRem_X_I (%d.%d)", no, 1), (u_result = ep->FromByteArray(u_buf, u_buf_size, &u)) == PMC_STATUS_OK, FormatTestMesssage(L"PMC_FromByteArrayの復帰コードが期待通りではない(%d)", u_result));

	mov	esi, esp
	lea	eax, DWORD PTR _u$[ebp]
	push	eax
	mov	ecx, DWORD PTR _u_buf_size$[ebp]
	push	ecx
	mov	edx, DWORD PTR _u_buf$[ebp]
	push	edx
	mov	eax, DWORD PTR _ep$[ebp]
	mov	ecx, DWORD PTR [eax+24]
	call	ecx
	cmp	esi, esp
	call	__RTC_CheckEsp
	mov	DWORD PTR _u_result$[ebp], eax
	cmp	DWORD PTR _u_result$[ebp], 0
	jne	SHORT $LN6@TEST_PMC_D
	mov	DWORD PTR tv74[ebp], 1
	jmp	SHORT $LN7@TEST_PMC_D
$LN6@TEST_PMC_D:
	mov	DWORD PTR tv74[ebp], 0
$LN7@TEST_PMC_D:
	mov	edx, DWORD PTR _u_result$[ebp]
	push	edx
	push	OFFSET $SG94739
	call	_FormatTestMesssage
	add	esp, 8
	push	eax
	mov	eax, DWORD PTR tv74[ebp]
	push	eax
	push	1
	mov	ecx, DWORD PTR _no$[ebp]
	push	ecx
	push	OFFSET $SG94740
	call	_FormatTestLabel
	add	esp, 12					; 0000000cH
	push	eax
	mov	edx, DWORD PTR _env$[ebp]
	push	edx
	call	_TEST_Assert
	add	esp, 16					; 00000010H

; 79   :     TEST_Assert(env, FormatTestLabel(L"PMC_DivRem_X_I (%d.%d)", no, 2), (q_result = ep->DivRem_X_I(u, v, &q, &actual_r)) == desired_return_code, FormatTestMesssage(L"PMC_DivRem_X_Iの復帰コードが期待通りではない(%d)", q_result));

	mov	esi, esp
	lea	eax, DWORD PTR _actual_r$[ebp]
	push	eax
	lea	ecx, DWORD PTR _q$[ebp]
	push	ecx
	mov	edx, DWORD PTR _v$[ebp]
	push	edx
	mov	eax, DWORD PTR _u$[ebp]
	push	eax
	mov	ecx, DWORD PTR _ep$[ebp]
	mov	edx, DWORD PTR [ecx+124]
	call	edx
	cmp	esi, esp
	call	__RTC_CheckEsp
	mov	DWORD PTR _q_result$[ebp], eax
	mov	eax, DWORD PTR _q_result$[ebp]
	cmp	eax, DWORD PTR _desired_return_code$[ebp]
	jne	SHORT $LN8@TEST_PMC_D
	mov	DWORD PTR tv93[ebp], 1
	jmp	SHORT $LN9@TEST_PMC_D
$LN8@TEST_PMC_D:
	mov	DWORD PTR tv93[ebp], 0
$LN9@TEST_PMC_D:
	mov	ecx, DWORD PTR _q_result$[ebp]
	push	ecx
	push	OFFSET $SG94741
	call	_FormatTestMesssage
	add	esp, 8
	push	eax
	mov	edx, DWORD PTR tv93[ebp]
	push	edx
	push	2
	mov	eax, DWORD PTR _no$[ebp]
	push	eax
	push	OFFSET $SG94742
	call	_FormatTestLabel
	add	esp, 12					; 0000000cH
	push	eax
	mov	ecx, DWORD PTR _env$[ebp]
	push	ecx
	call	_TEST_Assert
	add	esp, 16					; 00000010H

; 80   :     if (desired_return_code == PMC_STATUS_OK)

	cmp	DWORD PTR _desired_return_code$[ebp], 0
	jne	$LN2@TEST_PMC_D

; 81   :     {
; 82   :         TEST_Assert(env, FormatTestLabel(L"PMC_DivRem_X_I (%d.%d)", no, 3), (result = ep->ToByteArray(q, actual_q_buf, sizeof(actual_q_buf), &actual_q_buf_size)) == PMC_STATUS_OK, FormatTestMesssage(L"PMC_ToByteArrayの復帰コードが期待通りではない(%d)", result));

	mov	esi, esp
	lea	edx, DWORD PTR _actual_q_buf_size$[ebp]
	push	edx
	push	256					; 00000100H
	lea	eax, DWORD PTR _actual_q_buf$[ebp]
	push	eax
	mov	ecx, DWORD PTR _q$[ebp]
	push	ecx
	mov	edx, DWORD PTR _ep$[ebp]
	mov	eax, DWORD PTR [edx+28]
	call	eax
	cmp	esi, esp
	call	__RTC_CheckEsp
	mov	DWORD PTR _result$[ebp], eax
	cmp	DWORD PTR _result$[ebp], 0
	jne	SHORT $LN10@TEST_PMC_D
	mov	DWORD PTR tv145[ebp], 1
	jmp	SHORT $LN11@TEST_PMC_D
$LN10@TEST_PMC_D:
	mov	DWORD PTR tv145[ebp], 0
$LN11@TEST_PMC_D:
	mov	ecx, DWORD PTR _result$[ebp]
	push	ecx
	push	OFFSET $SG94744
	call	_FormatTestMesssage
	add	esp, 8
	push	eax
	mov	edx, DWORD PTR tv145[ebp]
	push	edx
	push	3
	mov	eax, DWORD PTR _no$[ebp]
	push	eax
	push	OFFSET $SG94745
	call	_FormatTestLabel
	add	esp, 12					; 0000000cH
	push	eax
	mov	ecx, DWORD PTR _env$[ebp]
	push	ecx
	call	_TEST_Assert
	add	esp, 16					; 00000010H

; 83   :         TEST_Assert(env, FormatTestLabel(L"PMC_DivRem_X_I (%d.%d)", no, 4), _EQUALS_MEMORY(actual_q_buf, actual_q_buf_size, desired_q_buf, desired_q_buf_size) == 0, L"商の値が一致しない");

	mov	edx, DWORD PTR _desired_q_buf_size$[ebp]
	push	edx
	mov	eax, DWORD PTR _desired_q_buf$[ebp]
	push	eax
	mov	ecx, DWORD PTR _actual_q_buf_size$[ebp]
	push	ecx
	lea	edx, DWORD PTR _actual_q_buf$[ebp]
	push	edx
	call	__EQUALS_MEMORY
	add	esp, 16					; 00000010H
	test	eax, eax
	jne	SHORT $LN12@TEST_PMC_D
	mov	DWORD PTR tv160[ebp], 1
	jmp	SHORT $LN13@TEST_PMC_D
$LN12@TEST_PMC_D:
	mov	DWORD PTR tv160[ebp], 0
$LN13@TEST_PMC_D:
	push	OFFSET $SG94746
	mov	eax, DWORD PTR tv160[ebp]
	push	eax
	push	4
	mov	ecx, DWORD PTR _no$[ebp]
	push	ecx
	push	OFFSET $SG94747
	call	_FormatTestLabel
	add	esp, 12					; 0000000cH
	push	eax
	mov	edx, DWORD PTR _env$[ebp]
	push	edx
	call	_TEST_Assert
	add	esp, 16					; 00000010H

; 84   :         TEST_Assert(env, FormatTestLabel(L"PMC_DivRem_X_I (%d.%d)", no, 5), actual_r == desired_r, L"剰余の値が一致しない");

	mov	eax, DWORD PTR _actual_r$[ebp]
	cmp	eax, DWORD PTR _desired_r$[ebp]
	jne	SHORT $LN14@TEST_PMC_D
	mov	DWORD PTR tv170[ebp], 1
	jmp	SHORT $LN15@TEST_PMC_D
$LN14@TEST_PMC_D:
	mov	DWORD PTR tv170[ebp], 0
$LN15@TEST_PMC_D:
	push	OFFSET $SG94748
	mov	ecx, DWORD PTR tv170[ebp]
	push	ecx
	push	5
	mov	edx, DWORD PTR _no$[ebp]
	push	edx
	push	OFFSET $SG94749
	call	_FormatTestLabel
	add	esp, 12					; 0000000cH
	push	eax
	mov	eax, DWORD PTR _env$[ebp]
	push	eax
	call	_TEST_Assert
	add	esp, 16					; 00000010H
$LN2@TEST_PMC_D:

; 85   :     }
; 86   :     if (q_result == PMC_STATUS_OK)

	cmp	DWORD PTR _q_result$[ebp], 0
	jne	SHORT $LN3@TEST_PMC_D

; 87   :         ep->Dispose(q);

	mov	esi, esp
	mov	ecx, DWORD PTR _q$[ebp]
	push	ecx
	mov	edx, DWORD PTR _ep$[ebp]
	mov	eax, DWORD PTR [edx+16]
	call	eax
	cmp	esi, esp
	call	__RTC_CheckEsp
$LN3@TEST_PMC_D:

; 88   :     if (u_result == PMC_STATUS_OK)

	cmp	DWORD PTR _u_result$[ebp], 0
	jne	SHORT $LN1@TEST_PMC_D

; 89   :         ep->Dispose(u);

	mov	esi, esp
	mov	ecx, DWORD PTR _u$[ebp]
	push	ecx
	mov	edx, DWORD PTR _ep$[ebp]
	mov	eax, DWORD PTR [edx+16]
	call	eax
	cmp	esi, esp
	call	__RTC_CheckEsp
$LN1@TEST_PMC_D:

; 90   : }

	push	edx
	mov	ecx, ebp
	push	eax
	lea	edx, DWORD PTR $LN22@TEST_PMC_D
	call	@_RTC_CheckStackVars@8
	pop	eax
	pop	edx
	pop	edi
	pop	esi
	mov	ecx, DWORD PTR __$ArrayPad$[ebp]
	xor	ecx, ebp
	call	@__security_check_cookie@4
	add	esp, 348				; 0000015cH
	cmp	ebp, esp
	call	__RTC_CheckEsp
	mov	esp, ebp
	pop	ebp
	ret	0
$LN22@TEST_PMC_D:
	DD	5
	DD	$LN21@TEST_PMC_D
$LN21@TEST_PMC_D:
	DD	-12					; fffffff4H
	DD	4
	DD	$LN16@TEST_PMC_D
	DD	-24					; ffffffe8H
	DD	4
	DD	$LN17@TEST_PMC_D
	DD	-288					; fffffee0H
	DD	256					; 00000100H
	DD	$LN18@TEST_PMC_D
	DD	-300					; fffffed4H
	DD	4
	DD	$LN19@TEST_PMC_D
	DD	-312					; fffffec8H
	DD	4
	DD	$LN20@TEST_PMC_D
$LN20@TEST_PMC_D:
	DB	97					; 00000061H
	DB	99					; 00000063H
	DB	116					; 00000074H
	DB	117					; 00000075H
	DB	97					; 00000061H
	DB	108					; 0000006cH
	DB	95					; 0000005fH
	DB	114					; 00000072H
	DB	0
$LN19@TEST_PMC_D:
	DB	97					; 00000061H
	DB	99					; 00000063H
	DB	116					; 00000074H
	DB	117					; 00000075H
	DB	97					; 00000061H
	DB	108					; 0000006cH
	DB	95					; 0000005fH
	DB	113					; 00000071H
	DB	95					; 0000005fH
	DB	98					; 00000062H
	DB	117					; 00000075H
	DB	102					; 00000066H
	DB	95					; 0000005fH
	DB	115					; 00000073H
	DB	105					; 00000069H
	DB	122					; 0000007aH
	DB	101					; 00000065H
	DB	0
$LN18@TEST_PMC_D:
	DB	97					; 00000061H
	DB	99					; 00000063H
	DB	116					; 00000074H
	DB	117					; 00000075H
	DB	97					; 00000061H
	DB	108					; 0000006cH
	DB	95					; 0000005fH
	DB	113					; 00000071H
	DB	95					; 0000005fH
	DB	98					; 00000062H
	DB	117					; 00000075H
	DB	102					; 00000066H
	DB	0
$LN17@TEST_PMC_D:
	DB	113					; 00000071H
	DB	0
$LN16@TEST_PMC_D:
	DB	117					; 00000075H
	DB	0
_TEST_PMC_DivRem_X_I ENDP
_TEXT	ENDS
; Function compile flags: /Odtp /RTCsu
; File z:\sources\lunor\repos\rougemeilland\palmtree.math.core.uint\palmtree.math.core.uint\test_op_divrem.c
_TEXT	SEGMENT
tv146 = -68						; size = 4
tv136 = -64						; size = 4
tv93 = -60						; size = 4
tv74 = -56						; size = 4
_v_result$ = -52					; size = 4
_result$ = -48						; size = 4
_actual_r$ = -40					; size = 8
_actual_q$ = -24					; size = 8
_v$ = -8						; size = 4
_env$ = 8						; size = 4
_ep$ = 12						; size = 4
_no$ = 16						; size = 4
_u$ = 20						; size = 8
_v_buf$ = 28						; size = 4
_v_buf_size$ = 32					; size = 4
_desired_return_code$ = 36				; size = 4
_desired_q$ = 40					; size = 8
_desired_r$ = 48					; size = 8
_TEST_PMC_DivRem_L_X PROC

; 51   : {

	push	ebp
	mov	ebp, esp
	sub	esp, 68					; 00000044H
	push	esi
	push	edi
	lea	edi, DWORD PTR [ebp-68]
	mov	ecx, 17					; 00000011H
	mov	eax, -858993460				; ccccccccH
	rep stosd
	mov	ecx, OFFSET __FF4197B5_test_op_divrem@c
	call	@__CheckForDebuggerJustMyCode@4

; 52   : 	PMC_HANDLE_UINT v;
; 53   : 	unsigned __int64 actual_q;
; 54   :     unsigned __int64 actual_r;
; 55   :     PMC_STATUS_CODE result;
; 56   : 	PMC_STATUS_CODE v_result;
; 57   : 	TEST_Assert(env, FormatTestLabel(L"PMC_DivRem_L_X (%d.%d)", no, 1), (v_result = ep->FromByteArray(v_buf, v_buf_size, &v)) == PMC_STATUS_OK, FormatTestMesssage(L"PMC_FromByteArrayの復帰コードが期待通りではない(%d)", v_result));

	mov	esi, esp
	lea	eax, DWORD PTR _v$[ebp]
	push	eax
	mov	ecx, DWORD PTR _v_buf_size$[ebp]
	push	ecx
	mov	edx, DWORD PTR _v_buf$[ebp]
	push	edx
	mov	eax, DWORD PTR _ep$[ebp]
	mov	ecx, DWORD PTR [eax+24]
	call	ecx
	cmp	esi, esp
	call	__RTC_CheckEsp
	mov	DWORD PTR _v_result$[ebp], eax
	cmp	DWORD PTR _v_result$[ebp], 0
	jne	SHORT $LN5@TEST_PMC_D
	mov	DWORD PTR tv74[ebp], 1
	jmp	SHORT $LN6@TEST_PMC_D
$LN5@TEST_PMC_D:
	mov	DWORD PTR tv74[ebp], 0
$LN6@TEST_PMC_D:
	mov	edx, DWORD PTR _v_result$[ebp]
	push	edx
	push	OFFSET $SG94700
	call	_FormatTestMesssage
	add	esp, 8
	push	eax
	mov	eax, DWORD PTR tv74[ebp]
	push	eax
	push	1
	mov	ecx, DWORD PTR _no$[ebp]
	push	ecx
	push	OFFSET $SG94701
	call	_FormatTestLabel
	add	esp, 12					; 0000000cH
	push	eax
	mov	edx, DWORD PTR _env$[ebp]
	push	edx
	call	_TEST_Assert
	add	esp, 16					; 00000010H

; 58   : 	TEST_Assert(env, FormatTestLabel(L"PMC_DivRem_L_X (%d.%d)", no, 2), (result = ep->DivRem_L_X(u, v, &actual_q, &actual_r)) == desired_return_code, FormatTestMesssage(L"PMC_DivRem_L_Xの復帰コードが期待通りではない(%d)", result));

	mov	esi, esp
	lea	eax, DWORD PTR _actual_r$[ebp]
	push	eax
	lea	ecx, DWORD PTR _actual_q$[ebp]
	push	ecx
	mov	edx, DWORD PTR _v$[ebp]
	push	edx
	mov	eax, DWORD PTR _u$[ebp+4]
	push	eax
	mov	ecx, DWORD PTR _u$[ebp]
	push	ecx
	mov	edx, DWORD PTR _ep$[ebp]
	mov	eax, DWORD PTR [edx+120]
	call	eax
	cmp	esi, esp
	call	__RTC_CheckEsp
	mov	DWORD PTR _result$[ebp], eax
	mov	ecx, DWORD PTR _result$[ebp]
	cmp	ecx, DWORD PTR _desired_return_code$[ebp]
	jne	SHORT $LN7@TEST_PMC_D
	mov	DWORD PTR tv93[ebp], 1
	jmp	SHORT $LN8@TEST_PMC_D
$LN7@TEST_PMC_D:
	mov	DWORD PTR tv93[ebp], 0
$LN8@TEST_PMC_D:
	mov	edx, DWORD PTR _result$[ebp]
	push	edx
	push	OFFSET $SG94702
	call	_FormatTestMesssage
	add	esp, 8
	push	eax
	mov	eax, DWORD PTR tv93[ebp]
	push	eax
	push	2
	mov	ecx, DWORD PTR _no$[ebp]
	push	ecx
	push	OFFSET $SG94703
	call	_FormatTestLabel
	add	esp, 12					; 0000000cH
	push	eax
	mov	edx, DWORD PTR _env$[ebp]
	push	edx
	call	_TEST_Assert
	add	esp, 16					; 00000010H

; 59   : 	if (desired_return_code == PMC_STATUS_OK)

	cmp	DWORD PTR _desired_return_code$[ebp], 0
	jne	$LN2@TEST_PMC_D

; 60   : 	{
; 61   : 		TEST_Assert(env, FormatTestLabel(L"PMC_DivRem_L_X (%d.%d)", no, 3), actual_q == desired_q, L"商の値が一致しない");

	mov	eax, DWORD PTR _actual_q$[ebp]
	cmp	eax, DWORD PTR _desired_q$[ebp]
	jne	SHORT $LN9@TEST_PMC_D
	mov	ecx, DWORD PTR _actual_q$[ebp+4]
	cmp	ecx, DWORD PTR _desired_q$[ebp+4]
	jne	SHORT $LN9@TEST_PMC_D
	mov	DWORD PTR tv136[ebp], 1
	jmp	SHORT $LN10@TEST_PMC_D
$LN9@TEST_PMC_D:
	mov	DWORD PTR tv136[ebp], 0
$LN10@TEST_PMC_D:
	push	OFFSET $SG94705
	mov	edx, DWORD PTR tv136[ebp]
	push	edx
	push	3
	mov	eax, DWORD PTR _no$[ebp]
	push	eax
	push	OFFSET $SG94706
	call	_FormatTestLabel
	add	esp, 12					; 0000000cH
	push	eax
	mov	ecx, DWORD PTR _env$[ebp]
	push	ecx
	call	_TEST_Assert
	add	esp, 16					; 00000010H

; 62   :         TEST_Assert(env, FormatTestLabel(L"PMC_DivRem_L_X (%d.%d)", no, 4), actual_r == desired_r, L"剰余の値が一致しない");

	mov	edx, DWORD PTR _actual_r$[ebp]
	cmp	edx, DWORD PTR _desired_r$[ebp]
	jne	SHORT $LN11@TEST_PMC_D
	mov	eax, DWORD PTR _actual_r$[ebp+4]
	cmp	eax, DWORD PTR _desired_r$[ebp+4]
	jne	SHORT $LN11@TEST_PMC_D
	mov	DWORD PTR tv146[ebp], 1
	jmp	SHORT $LN12@TEST_PMC_D
$LN11@TEST_PMC_D:
	mov	DWORD PTR tv146[ebp], 0
$LN12@TEST_PMC_D:
	push	OFFSET $SG94707
	mov	ecx, DWORD PTR tv146[ebp]
	push	ecx
	push	4
	mov	edx, DWORD PTR _no$[ebp]
	push	edx
	push	OFFSET $SG94708
	call	_FormatTestLabel
	add	esp, 12					; 0000000cH
	push	eax
	mov	eax, DWORD PTR _env$[ebp]
	push	eax
	call	_TEST_Assert
	add	esp, 16					; 00000010H
$LN2@TEST_PMC_D:

; 63   :     }
; 64   : 	if (v_result == PMC_STATUS_OK)

	cmp	DWORD PTR _v_result$[ebp], 0
	jne	SHORT $LN1@TEST_PMC_D

; 65   : 		ep->Dispose(v);

	mov	esi, esp
	mov	ecx, DWORD PTR _v$[ebp]
	push	ecx
	mov	edx, DWORD PTR _ep$[ebp]
	mov	eax, DWORD PTR [edx+16]
	call	eax
	cmp	esi, esp
	call	__RTC_CheckEsp
$LN1@TEST_PMC_D:

; 66   : }

	push	edx
	mov	ecx, ebp
	push	eax
	lea	edx, DWORD PTR $LN17@TEST_PMC_D
	call	@_RTC_CheckStackVars@8
	pop	eax
	pop	edx
	pop	edi
	pop	esi
	add	esp, 68					; 00000044H
	cmp	ebp, esp
	call	__RTC_CheckEsp
	mov	esp, ebp
	pop	ebp
	ret	0
	npad	1
$LN17@TEST_PMC_D:
	DD	3
	DD	$LN16@TEST_PMC_D
$LN16@TEST_PMC_D:
	DD	-8					; fffffff8H
	DD	4
	DD	$LN13@TEST_PMC_D
	DD	-24					; ffffffe8H
	DD	8
	DD	$LN14@TEST_PMC_D
	DD	-40					; ffffffd8H
	DD	8
	DD	$LN15@TEST_PMC_D
$LN15@TEST_PMC_D:
	DB	97					; 00000061H
	DB	99					; 00000063H
	DB	116					; 00000074H
	DB	117					; 00000075H
	DB	97					; 00000061H
	DB	108					; 0000006cH
	DB	95					; 0000005fH
	DB	114					; 00000072H
	DB	0
$LN14@TEST_PMC_D:
	DB	97					; 00000061H
	DB	99					; 00000063H
	DB	116					; 00000074H
	DB	117					; 00000075H
	DB	97					; 00000061H
	DB	108					; 0000006cH
	DB	95					; 0000005fH
	DB	113					; 00000071H
	DB	0
$LN13@TEST_PMC_D:
	DB	118					; 00000076H
	DB	0
_TEST_PMC_DivRem_L_X ENDP
_TEXT	ENDS
; Function compile flags: /Odtp /RTCsu
; File z:\sources\lunor\repos\rougemeilland\palmtree.math.core.uint\palmtree.math.core.uint\test_op_divrem.c
_TEXT	SEGMENT
tv146 = -60						; size = 4
tv136 = -56						; size = 4
tv93 = -52						; size = 4
tv74 = -48						; size = 4
_v_result$ = -44					; size = 4
_result$ = -40						; size = 4
_actual_r$ = -32					; size = 4
_actual_q$ = -20					; size = 4
_v$ = -8						; size = 4
_env$ = 8						; size = 4
_ep$ = 12						; size = 4
_no$ = 16						; size = 4
_u$ = 20						; size = 4
_v_buf$ = 24						; size = 4
_v_buf_size$ = 28					; size = 4
_desired_return_code$ = 32				; size = 4
_desired_q$ = 36					; size = 4
_desired_r$ = 40					; size = 4
_TEST_PMC_DivRem_I_X PROC

; 33   : {

	push	ebp
	mov	ebp, esp
	sub	esp, 60					; 0000003cH
	push	esi
	push	edi
	lea	edi, DWORD PTR [ebp-60]
	mov	ecx, 15					; 0000000fH
	mov	eax, -858993460				; ccccccccH
	rep stosd
	mov	ecx, OFFSET __FF4197B5_test_op_divrem@c
	call	@__CheckForDebuggerJustMyCode@4

; 34   : 	PMC_HANDLE_UINT v;
; 35   : 	unsigned __int32 actual_q;
; 36   :     unsigned __int32 actual_r;
; 37   :     PMC_STATUS_CODE result;
; 38   : 	PMC_STATUS_CODE v_result;
; 39   : 	TEST_Assert(env, FormatTestLabel(L"PMC_DivRem_I_X (%d.%d)", no, 1), (v_result = ep->FromByteArray(v_buf, v_buf_size, &v)) == PMC_STATUS_OK, FormatTestMesssage(L"PMC_FromByteArrayの復帰コードが期待通りではない(%d)", v_result));

	mov	esi, esp
	lea	eax, DWORD PTR _v$[ebp]
	push	eax
	mov	ecx, DWORD PTR _v_buf_size$[ebp]
	push	ecx
	mov	edx, DWORD PTR _v_buf$[ebp]
	push	edx
	mov	eax, DWORD PTR _ep$[ebp]
	mov	ecx, DWORD PTR [eax+24]
	call	ecx
	cmp	esi, esp
	call	__RTC_CheckEsp
	mov	DWORD PTR _v_result$[ebp], eax
	cmp	DWORD PTR _v_result$[ebp], 0
	jne	SHORT $LN5@TEST_PMC_D
	mov	DWORD PTR tv74[ebp], 1
	jmp	SHORT $LN6@TEST_PMC_D
$LN5@TEST_PMC_D:
	mov	DWORD PTR tv74[ebp], 0
$LN6@TEST_PMC_D:
	mov	edx, DWORD PTR _v_result$[ebp]
	push	edx
	push	OFFSET $SG94666
	call	_FormatTestMesssage
	add	esp, 8
	push	eax
	mov	eax, DWORD PTR tv74[ebp]
	push	eax
	push	1
	mov	ecx, DWORD PTR _no$[ebp]
	push	ecx
	push	OFFSET $SG94667
	call	_FormatTestLabel
	add	esp, 12					; 0000000cH
	push	eax
	mov	edx, DWORD PTR _env$[ebp]
	push	edx
	call	_TEST_Assert
	add	esp, 16					; 00000010H

; 40   : 	TEST_Assert(env, FormatTestLabel(L"PMC_DivRem_I_X (%d.%d)", no, 2), (result = ep->DivRem_I_X(u, v, &actual_q, &actual_r)) == desired_return_code, FormatTestMesssage(L"PMC_DivRem_I_Xの復帰コードが期待通りではない(%d)", result));

	mov	esi, esp
	lea	eax, DWORD PTR _actual_r$[ebp]
	push	eax
	lea	ecx, DWORD PTR _actual_q$[ebp]
	push	ecx
	mov	edx, DWORD PTR _v$[ebp]
	push	edx
	mov	eax, DWORD PTR _u$[ebp]
	push	eax
	mov	ecx, DWORD PTR _ep$[ebp]
	mov	edx, DWORD PTR [ecx+116]
	call	edx
	cmp	esi, esp
	call	__RTC_CheckEsp
	mov	DWORD PTR _result$[ebp], eax
	mov	eax, DWORD PTR _result$[ebp]
	cmp	eax, DWORD PTR _desired_return_code$[ebp]
	jne	SHORT $LN7@TEST_PMC_D
	mov	DWORD PTR tv93[ebp], 1
	jmp	SHORT $LN8@TEST_PMC_D
$LN7@TEST_PMC_D:
	mov	DWORD PTR tv93[ebp], 0
$LN8@TEST_PMC_D:
	mov	ecx, DWORD PTR _result$[ebp]
	push	ecx
	push	OFFSET $SG94668
	call	_FormatTestMesssage
	add	esp, 8
	push	eax
	mov	edx, DWORD PTR tv93[ebp]
	push	edx
	push	2
	mov	eax, DWORD PTR _no$[ebp]
	push	eax
	push	OFFSET $SG94669
	call	_FormatTestLabel
	add	esp, 12					; 0000000cH
	push	eax
	mov	ecx, DWORD PTR _env$[ebp]
	push	ecx
	call	_TEST_Assert
	add	esp, 16					; 00000010H

; 41   : 	if (desired_return_code == PMC_STATUS_OK)

	cmp	DWORD PTR _desired_return_code$[ebp], 0
	jne	$LN2@TEST_PMC_D

; 42   : 	{
; 43   : 		TEST_Assert(env, FormatTestLabel(L"PMC_DivRem_I_X (%d.%d)", no, 3), actual_q == desired_q, L"商の値が一致しない");

	mov	edx, DWORD PTR _actual_q$[ebp]
	cmp	edx, DWORD PTR _desired_q$[ebp]
	jne	SHORT $LN9@TEST_PMC_D
	mov	DWORD PTR tv136[ebp], 1
	jmp	SHORT $LN10@TEST_PMC_D
$LN9@TEST_PMC_D:
	mov	DWORD PTR tv136[ebp], 0
$LN10@TEST_PMC_D:
	push	OFFSET $SG94671
	mov	eax, DWORD PTR tv136[ebp]
	push	eax
	push	3
	mov	ecx, DWORD PTR _no$[ebp]
	push	ecx
	push	OFFSET $SG94672
	call	_FormatTestLabel
	add	esp, 12					; 0000000cH
	push	eax
	mov	edx, DWORD PTR _env$[ebp]
	push	edx
	call	_TEST_Assert
	add	esp, 16					; 00000010H

; 44   :         TEST_Assert(env, FormatTestLabel(L"PMC_DivRem_I_X (%d.%d)", no, 4), actual_r == desired_r, L"剰余の値が一致しない");

	mov	eax, DWORD PTR _actual_r$[ebp]
	cmp	eax, DWORD PTR _desired_r$[ebp]
	jne	SHORT $LN11@TEST_PMC_D
	mov	DWORD PTR tv146[ebp], 1
	jmp	SHORT $LN12@TEST_PMC_D
$LN11@TEST_PMC_D:
	mov	DWORD PTR tv146[ebp], 0
$LN12@TEST_PMC_D:
	push	OFFSET $SG94673
	mov	ecx, DWORD PTR tv146[ebp]
	push	ecx
	push	4
	mov	edx, DWORD PTR _no$[ebp]
	push	edx
	push	OFFSET $SG94674
	call	_FormatTestLabel
	add	esp, 12					; 0000000cH
	push	eax
	mov	eax, DWORD PTR _env$[ebp]
	push	eax
	call	_TEST_Assert
	add	esp, 16					; 00000010H
$LN2@TEST_PMC_D:

; 45   :     }
; 46   : 	if (v_result == PMC_STATUS_OK)

	cmp	DWORD PTR _v_result$[ebp], 0
	jne	SHORT $LN1@TEST_PMC_D

; 47   : 		ep->Dispose(v);

	mov	esi, esp
	mov	ecx, DWORD PTR _v$[ebp]
	push	ecx
	mov	edx, DWORD PTR _ep$[ebp]
	mov	eax, DWORD PTR [edx+16]
	call	eax
	cmp	esi, esp
	call	__RTC_CheckEsp
$LN1@TEST_PMC_D:

; 48   : }

	push	edx
	mov	ecx, ebp
	push	eax
	lea	edx, DWORD PTR $LN17@TEST_PMC_D
	call	@_RTC_CheckStackVars@8
	pop	eax
	pop	edx
	pop	edi
	pop	esi
	add	esp, 60					; 0000003cH
	cmp	ebp, esp
	call	__RTC_CheckEsp
	mov	esp, ebp
	pop	ebp
	ret	0
	npad	1
$LN17@TEST_PMC_D:
	DD	3
	DD	$LN16@TEST_PMC_D
$LN16@TEST_PMC_D:
	DD	-8					; fffffff8H
	DD	4
	DD	$LN13@TEST_PMC_D
	DD	-20					; ffffffecH
	DD	4
	DD	$LN14@TEST_PMC_D
	DD	-32					; ffffffe0H
	DD	4
	DD	$LN15@TEST_PMC_D
$LN15@TEST_PMC_D:
	DB	97					; 00000061H
	DB	99					; 00000063H
	DB	116					; 00000074H
	DB	117					; 00000075H
	DB	97					; 00000061H
	DB	108					; 0000006cH
	DB	95					; 0000005fH
	DB	114					; 00000072H
	DB	0
$LN14@TEST_PMC_D:
	DB	97					; 00000061H
	DB	99					; 00000063H
	DB	116					; 00000074H
	DB	117					; 00000075H
	DB	97					; 00000061H
	DB	108					; 0000006cH
	DB	95					; 0000005fH
	DB	113					; 00000071H
	DB	0
$LN13@TEST_PMC_D:
	DB	118					; 00000076H
	DB	0
_TEST_PMC_DivRem_I_X ENDP
_TEXT	ENDS
END
