; Listing generated by Microsoft (R) Optimizing Compiler Version 19.16.27026.1 

	TITLE	Z:\Sources\Lunor\Repos\rougemeilland\Palmtree.Math.Core.Uint\Palmtree.Math.Core.Uint\TEST_op_ExclusiveOr.c
	.686P
	.XMM
	include listing.inc
	.model	flat

INCLUDELIB MSVCRTD
INCLUDELIB OLDNAMES

msvcjmc	SEGMENT
__7B7A869E_ctype@h DB 01H
__457DD326_basetsd@h DB 01H
__4384A2D9_corecrt_memcpy_s@h DB 01H
__4E51A221_corecrt_wstring@h DB 01H
__2140C079_string@h DB 01H
__1887E595_winnt@h DB 01H
__9FC7C64B_processthreadsapi@h DB 01H
__FA470AEC_memoryapi@h DB 01H
__F37DAFF1_winerror@h DB 01H
__7A450CCC_winbase@h DB 01H
__B4B40122_winioctl@h DB 01H
__86261D59_stralign@h DB 01H
__95056B1C_pmc_debug@h DB 01H
__1B39C617_test_op_exclusiveor@c DB 01H
msvcjmc	ENDS
PUBLIC	_TEST_PMC_ExclusiveOr_I_X
PUBLIC	_TEST_PMC_ExclusiveOr_L_X
PUBLIC	_TEST_PMC_ExclusiveOr_X_I
PUBLIC	_TEST_PMC_ExclusiveOr_X_L
PUBLIC	_TEST_PMC_ExclusiveOr_X_X
PUBLIC	__JustMyCode_Default
EXTRN	_TEST_Assert:PROC
EXTRN	_FormatTestLabel:PROC
EXTRN	_FormatTestMesssage:PROC
EXTRN	@_RTC_CheckStackVars@8:PROC
EXTRN	@__CheckForDebuggerJustMyCode@4:PROC
EXTRN	@__security_check_cookie@4:PROC
EXTRN	__RTC_CheckEsp:PROC
EXTRN	__RTC_InitBase:PROC
EXTRN	__RTC_Shutdown:PROC
EXTRN	___security_cookie:DWORD
;	COMDAT rtc$TMZ
rtc$TMZ	SEGMENT
__RTC_Shutdown.rtc$TMZ DD FLAT:__RTC_Shutdown
rtc$TMZ	ENDS
;	COMDAT rtc$IMZ
rtc$IMZ	SEGMENT
__RTC_InitBase.rtc$IMZ DD FLAT:__RTC_InitBase
rtc$IMZ	ENDS
_DATA	SEGMENT
$SG94550 DB	'P', 00H, 'M', 00H, 'C', 00H, '_', 00H, 'F', 00H, 'r', 00H
	DB	'o', 00H, 'm', 00H, 'B', 00H, 'y', 00H, 't', 00H, 'e', 00H, 'A'
	DB	00H, 'r', 00H, 'r', 00H, 'a', 00H, 'y', 00H, 'n0', 0a9H, '_0^', 0b3H
	DB	'0', 0fcH, '0', 0c9H, '0L0', 01fH, 'g', 085H, '_', 01aH, 090H, 08aH
	DB	'0g0o0j0D0(', 00H, '%', 00H, 'd', 00H, ')', 00H, 00H, 00H
	ORG $+2
$SG94551 DB	'P', 00H, 'M', 00H, 'C', 00H, '_', 00H, 'E', 00H, 'x', 00H
	DB	'c', 00H, 'l', 00H, 'u', 00H, 's', 00H, 'i', 00H, 'v', 00H, 'e'
	DB	00H, 'O', 00H, 'r', 00H, '_', 00H, 'I', 00H, '_', 00H, 'X', 00H
	DB	' ', 00H, '(', 00H, '%', 00H, 'd', 00H, '.', 00H, '%', 00H, 'd'
	DB	00H, ')', 00H, 00H, 00H
	ORG $+4
$SG94552 DB	'P', 00H, 'M', 00H, 'C', 00H, '_', 00H, 'E', 00H, 'x', 00H
	DB	'c', 00H, 'l', 00H, 'u', 00H, 's', 00H, 'i', 00H, 'v', 00H, 'e'
	DB	00H, 'O', 00H, 'r', 00H, '_', 00H, 'I', 00H, '_', 00H, 'X', 00H
	DB	'n0', 0a9H, '_0^', 0b3H, '0', 0fcH, '0', 0c9H, '0L0', 01fH, 'g'
	DB	085H, '_', 01aH, 090H, 08aH, '0g0o0j0D0(', 00H, '%', 00H, 'd', 00H
	DB	')', 00H, 00H, 00H
	ORG $+2
$SG94553 DB	'P', 00H, 'M', 00H, 'C', 00H, '_', 00H, 'E', 00H, 'x', 00H
	DB	'c', 00H, 'l', 00H, 'u', 00H, 's', 00H, 'i', 00H, 'v', 00H, 'e'
	DB	00H, 'O', 00H, 'r', 00H, '_', 00H, 'I', 00H, '_', 00H, 'X', 00H
	DB	' ', 00H, '(', 00H, '%', 00H, 'd', 00H, '.', 00H, '%', 00H, 'd'
	DB	00H, ')', 00H, 00H, 00H
$SG94554 DB	'P', 00H, 'M', 00H, 'C', 00H, '_', 00H, 'T', 00H, 'o', 00H
	DB	'B', 00H, 'y', 00H, 't', 00H, 'e', 00H, 'A', 00H, 'r', 00H, 'r'
	DB	00H, 'a', 00H, 'y', 00H, 'n0', 0a9H, '_0^', 0b3H, '0', 0fcH, '0'
	DB	0c9H, '0L0', 01fH, 'g', 085H, '_', 01aH, 090H, 08aH, '0g0o0j0D'
	DB	'0(', 00H, '%', 00H, 'd', 00H, ')', 00H, 00H, 00H
	ORG $+2
$SG94555 DB	'P', 00H, 'M', 00H, 'C', 00H, '_', 00H, 'E', 00H, 'x', 00H
	DB	'c', 00H, 'l', 00H, 'u', 00H, 's', 00H, 'i', 00H, 'v', 00H, 'e'
	DB	00H, 'O', 00H, 'r', 00H, '_', 00H, 'I', 00H, '_', 00H, 'X', 00H
	DB	' ', 00H, '(', 00H, '%', 00H, 'd', 00H, '.', 00H, '%', 00H, 'd'
	DB	00H, ')', 00H, 00H, 00H
$SG94556 DB	0c7H, '0', 0fcH, '0', 0bfH, '0n0', 085H, 'Q', 0b9H, '[L0', 00H
	DB	'N', 0f4H, 081H, 'W0j0D0', 00H, 00H
	ORG $+2
$SG94557 DB	'P', 00H, 'M', 00H, 'C', 00H, '_', 00H, 'E', 00H, 'x', 00H
	DB	'c', 00H, 'l', 00H, 'u', 00H, 's', 00H, 'i', 00H, 'v', 00H, 'e'
	DB	00H, 'O', 00H, 'r', 00H, '_', 00H, 'I', 00H, '_', 00H, 'X', 00H
	DB	' ', 00H, '(', 00H, '%', 00H, 'd', 00H, '.', 00H, '%', 00H, 'd'
	DB	00H, ')', 00H, 00H, 00H
	ORG $+4
$SG94584 DB	'P', 00H, 'M', 00H, 'C', 00H, '_', 00H, 'F', 00H, 'r', 00H
	DB	'o', 00H, 'm', 00H, 'B', 00H, 'y', 00H, 't', 00H, 'e', 00H, 'A'
	DB	00H, 'r', 00H, 'r', 00H, 'a', 00H, 'y', 00H, 'n0', 0a9H, '_0^', 0b3H
	DB	'0', 0fcH, '0', 0c9H, '0L0', 01fH, 'g', 085H, '_', 01aH, 090H, 08aH
	DB	'0g0o0j0D0(', 00H, '%', 00H, 'd', 00H, ')', 00H, 00H, 00H
	ORG $+2
$SG94585 DB	'P', 00H, 'M', 00H, 'C', 00H, '_', 00H, 'E', 00H, 'x', 00H
	DB	'c', 00H, 'l', 00H, 'u', 00H, 's', 00H, 'i', 00H, 'v', 00H, 'e'
	DB	00H, 'O', 00H, 'r', 00H, '_', 00H, 'L', 00H, '_', 00H, 'X', 00H
	DB	' ', 00H, '(', 00H, '%', 00H, 'd', 00H, '.', 00H, '%', 00H, 'd'
	DB	00H, ')', 00H, 00H, 00H
	ORG $+4
$SG94586 DB	'P', 00H, 'M', 00H, 'C', 00H, '_', 00H, 'E', 00H, 'x', 00H
	DB	'c', 00H, 'l', 00H, 'u', 00H, 's', 00H, 'i', 00H, 'v', 00H, 'e'
	DB	00H, 'O', 00H, 'r', 00H, '_', 00H, 'L', 00H, '_', 00H, 'X', 00H
	DB	'n0', 0a9H, '_0^', 0b3H, '0', 0fcH, '0', 0c9H, '0L0', 01fH, 'g'
	DB	085H, '_', 01aH, 090H, 08aH, '0g0o0j0D0(', 00H, '%', 00H, 'd', 00H
	DB	')', 00H, 00H, 00H
	ORG $+2
$SG94587 DB	'P', 00H, 'M', 00H, 'C', 00H, '_', 00H, 'E', 00H, 'x', 00H
	DB	'c', 00H, 'l', 00H, 'u', 00H, 's', 00H, 'i', 00H, 'v', 00H, 'e'
	DB	00H, 'O', 00H, 'r', 00H, '_', 00H, 'L', 00H, '_', 00H, 'X', 00H
	DB	' ', 00H, '(', 00H, '%', 00H, 'd', 00H, '.', 00H, '%', 00H, 'd'
	DB	00H, ')', 00H, 00H, 00H
$SG94588 DB	'P', 00H, 'M', 00H, 'C', 00H, '_', 00H, 'T', 00H, 'o', 00H
	DB	'B', 00H, 'y', 00H, 't', 00H, 'e', 00H, 'A', 00H, 'r', 00H, 'r'
	DB	00H, 'a', 00H, 'y', 00H, 'n0', 0a9H, '_0^', 0b3H, '0', 0fcH, '0'
	DB	0c9H, '0L0', 01fH, 'g', 085H, '_', 01aH, 090H, 08aH, '0g0o0j0D'
	DB	'0(', 00H, '%', 00H, 'd', 00H, ')', 00H, 00H, 00H
	ORG $+2
$SG94589 DB	'P', 00H, 'M', 00H, 'C', 00H, '_', 00H, 'E', 00H, 'x', 00H
	DB	'c', 00H, 'l', 00H, 'u', 00H, 's', 00H, 'i', 00H, 'v', 00H, 'e'
	DB	00H, 'O', 00H, 'r', 00H, '_', 00H, 'L', 00H, '_', 00H, 'X', 00H
	DB	' ', 00H, '(', 00H, '%', 00H, 'd', 00H, '.', 00H, '%', 00H, 'd'
	DB	00H, ')', 00H, 00H, 00H
$SG94590 DB	0c7H, '0', 0fcH, '0', 0bfH, '0n0', 085H, 'Q', 0b9H, '[L0', 00H
	DB	'N', 0f4H, 081H, 'W0j0D0', 00H, 00H
	ORG $+2
$SG94591 DB	'P', 00H, 'M', 00H, 'C', 00H, '_', 00H, 'E', 00H, 'x', 00H
	DB	'c', 00H, 'l', 00H, 'u', 00H, 's', 00H, 'i', 00H, 'v', 00H, 'e'
	DB	00H, 'O', 00H, 'r', 00H, '_', 00H, 'L', 00H, '_', 00H, 'X', 00H
	DB	' ', 00H, '(', 00H, '%', 00H, 'd', 00H, '.', 00H, '%', 00H, 'd'
	DB	00H, ')', 00H, 00H, 00H
	ORG $+4
$SG94618 DB	'P', 00H, 'M', 00H, 'C', 00H, '_', 00H, 'F', 00H, 'r', 00H
	DB	'o', 00H, 'm', 00H, 'B', 00H, 'y', 00H, 't', 00H, 'e', 00H, 'A'
	DB	00H, 'r', 00H, 'r', 00H, 'a', 00H, 'y', 00H, 'n0', 0a9H, '_0^', 0b3H
	DB	'0', 0fcH, '0', 0c9H, '0L0', 01fH, 'g', 085H, '_', 01aH, 090H, 08aH
	DB	'0g0o0j0D0(', 00H, '%', 00H, 'd', 00H, ')', 00H, 00H, 00H
	ORG $+2
$SG94619 DB	'P', 00H, 'M', 00H, 'C', 00H, '_', 00H, 'E', 00H, 'x', 00H
	DB	'c', 00H, 'l', 00H, 'u', 00H, 's', 00H, 'i', 00H, 'v', 00H, 'e'
	DB	00H, 'O', 00H, 'r', 00H, '_', 00H, 'X', 00H, '_', 00H, 'I', 00H
	DB	' ', 00H, '(', 00H, '%', 00H, 'd', 00H, '.', 00H, '%', 00H, 'd'
	DB	00H, ')', 00H, 00H, 00H
	ORG $+4
$SG94620 DB	'P', 00H, 'M', 00H, 'C', 00H, '_', 00H, 'E', 00H, 'x', 00H
	DB	'c', 00H, 'l', 00H, 'u', 00H, 's', 00H, 'i', 00H, 'v', 00H, 'e'
	DB	00H, 'O', 00H, 'r', 00H, '_', 00H, 'X', 00H, '_', 00H, 'I', 00H
	DB	'n0', 0a9H, '_0^', 0b3H, '0', 0fcH, '0', 0c9H, '0L0', 01fH, 'g'
	DB	085H, '_', 01aH, 090H, 08aH, '0g0o0j0D0(', 00H, '%', 00H, 'd', 00H
	DB	')', 00H, 00H, 00H
	ORG $+2
$SG94621 DB	'P', 00H, 'M', 00H, 'C', 00H, '_', 00H, 'E', 00H, 'x', 00H
	DB	'c', 00H, 'l', 00H, 'u', 00H, 's', 00H, 'i', 00H, 'v', 00H, 'e'
	DB	00H, 'O', 00H, 'r', 00H, '_', 00H, 'X', 00H, '_', 00H, 'I', 00H
	DB	' ', 00H, '(', 00H, '%', 00H, 'd', 00H, '.', 00H, '%', 00H, 'd'
	DB	00H, ')', 00H, 00H, 00H
$SG94622 DB	'P', 00H, 'M', 00H, 'C', 00H, '_', 00H, 'T', 00H, 'o', 00H
	DB	'B', 00H, 'y', 00H, 't', 00H, 'e', 00H, 'A', 00H, 'r', 00H, 'r'
	DB	00H, 'a', 00H, 'y', 00H, 'n0', 0a9H, '_0^', 0b3H, '0', 0fcH, '0'
	DB	0c9H, '0L0', 01fH, 'g', 085H, '_', 01aH, 090H, 08aH, '0g0o0j0D'
	DB	'0(', 00H, '%', 00H, 'd', 00H, ')', 00H, 00H, 00H
	ORG $+2
$SG94623 DB	'P', 00H, 'M', 00H, 'C', 00H, '_', 00H, 'E', 00H, 'x', 00H
	DB	'c', 00H, 'l', 00H, 'u', 00H, 's', 00H, 'i', 00H, 'v', 00H, 'e'
	DB	00H, 'O', 00H, 'r', 00H, '_', 00H, 'X', 00H, '_', 00H, 'I', 00H
	DB	' ', 00H, '(', 00H, '%', 00H, 'd', 00H, '.', 00H, '%', 00H, 'd'
	DB	00H, ')', 00H, 00H, 00H
$SG94624 DB	0c7H, '0', 0fcH, '0', 0bfH, '0n0', 085H, 'Q', 0b9H, '[L0', 00H
	DB	'N', 0f4H, 081H, 'W0j0D0', 00H, 00H
	ORG $+2
$SG94625 DB	'P', 00H, 'M', 00H, 'C', 00H, '_', 00H, 'E', 00H, 'x', 00H
	DB	'c', 00H, 'l', 00H, 'u', 00H, 's', 00H, 'i', 00H, 'v', 00H, 'e'
	DB	00H, 'O', 00H, 'r', 00H, '_', 00H, 'X', 00H, '_', 00H, 'I', 00H
	DB	' ', 00H, '(', 00H, '%', 00H, 'd', 00H, '.', 00H, '%', 00H, 'd'
	DB	00H, ')', 00H, 00H, 00H
	ORG $+4
$SG94652 DB	'P', 00H, 'M', 00H, 'C', 00H, '_', 00H, 'F', 00H, 'r', 00H
	DB	'o', 00H, 'm', 00H, 'B', 00H, 'y', 00H, 't', 00H, 'e', 00H, 'A'
	DB	00H, 'r', 00H, 'r', 00H, 'a', 00H, 'y', 00H, 'n0', 0a9H, '_0^', 0b3H
	DB	'0', 0fcH, '0', 0c9H, '0L0', 01fH, 'g', 085H, '_', 01aH, 090H, 08aH
	DB	'0g0o0j0D0(', 00H, '%', 00H, 'd', 00H, ')', 00H, 00H, 00H
	ORG $+2
$SG94653 DB	'P', 00H, 'M', 00H, 'C', 00H, '_', 00H, 'E', 00H, 'x', 00H
	DB	'c', 00H, 'l', 00H, 'u', 00H, 's', 00H, 'i', 00H, 'v', 00H, 'e'
	DB	00H, 'O', 00H, 'r', 00H, '_', 00H, 'X', 00H, '_', 00H, 'L', 00H
	DB	' ', 00H, '(', 00H, '%', 00H, 'd', 00H, '.', 00H, '%', 00H, 'd'
	DB	00H, ')', 00H, 00H, 00H
	ORG $+4
$SG94654 DB	'P', 00H, 'M', 00H, 'C', 00H, '_', 00H, 'E', 00H, 'x', 00H
	DB	'c', 00H, 'l', 00H, 'u', 00H, 's', 00H, 'i', 00H, 'v', 00H, 'e'
	DB	00H, 'O', 00H, 'r', 00H, '_', 00H, 'X', 00H, '_', 00H, 'L', 00H
	DB	'n0', 0a9H, '_0^', 0b3H, '0', 0fcH, '0', 0c9H, '0L0', 01fH, 'g'
	DB	085H, '_', 01aH, 090H, 08aH, '0g0o0j0D0(', 00H, '%', 00H, 'd', 00H
	DB	')', 00H, 00H, 00H
	ORG $+2
$SG94655 DB	'P', 00H, 'M', 00H, 'C', 00H, '_', 00H, 'E', 00H, 'x', 00H
	DB	'c', 00H, 'l', 00H, 'u', 00H, 's', 00H, 'i', 00H, 'v', 00H, 'e'
	DB	00H, 'O', 00H, 'r', 00H, '_', 00H, 'X', 00H, '_', 00H, 'L', 00H
	DB	' ', 00H, '(', 00H, '%', 00H, 'd', 00H, '.', 00H, '%', 00H, 'd'
	DB	00H, ')', 00H, 00H, 00H
$SG94656 DB	'P', 00H, 'M', 00H, 'C', 00H, '_', 00H, 'T', 00H, 'o', 00H
	DB	'B', 00H, 'y', 00H, 't', 00H, 'e', 00H, 'A', 00H, 'r', 00H, 'r'
	DB	00H, 'a', 00H, 'y', 00H, 'n0', 0a9H, '_0^', 0b3H, '0', 0fcH, '0'
	DB	0c9H, '0L0', 01fH, 'g', 085H, '_', 01aH, 090H, 08aH, '0g0o0j0D'
	DB	'0(', 00H, '%', 00H, 'd', 00H, ')', 00H, 00H, 00H
	ORG $+2
$SG94657 DB	'P', 00H, 'M', 00H, 'C', 00H, '_', 00H, 'E', 00H, 'x', 00H
	DB	'c', 00H, 'l', 00H, 'u', 00H, 's', 00H, 'i', 00H, 'v', 00H, 'e'
	DB	00H, 'O', 00H, 'r', 00H, '_', 00H, 'X', 00H, '_', 00H, 'L', 00H
	DB	' ', 00H, '(', 00H, '%', 00H, 'd', 00H, '.', 00H, '%', 00H, 'd'
	DB	00H, ')', 00H, 00H, 00H
$SG94658 DB	0c7H, '0', 0fcH, '0', 0bfH, '0n0', 085H, 'Q', 0b9H, '[L0', 00H
	DB	'N', 0f4H, 081H, 'W0j0D0', 00H, 00H
	ORG $+2
$SG94659 DB	'P', 00H, 'M', 00H, 'C', 00H, '_', 00H, 'E', 00H, 'x', 00H
	DB	'c', 00H, 'l', 00H, 'u', 00H, 's', 00H, 'i', 00H, 'v', 00H, 'e'
	DB	00H, 'O', 00H, 'r', 00H, '_', 00H, 'X', 00H, '_', 00H, 'L', 00H
	DB	' ', 00H, '(', 00H, '%', 00H, 'd', 00H, '.', 00H, '%', 00H, 'd'
	DB	00H, ')', 00H, 00H, 00H
	ORG $+4
$SG94690 DB	'P', 00H, 'M', 00H, 'C', 00H, '_', 00H, 'F', 00H, 'r', 00H
	DB	'o', 00H, 'm', 00H, 'B', 00H, 'y', 00H, 't', 00H, 'e', 00H, 'A'
	DB	00H, 'r', 00H, 'r', 00H, 'a', 00H, 'y', 00H, 'n0', 0a9H, '_0^', 0b3H
	DB	'0', 0fcH, '0', 0c9H, '0L0', 01fH, 'g', 085H, '_', 01aH, 090H, 08aH
	DB	'0g0o0j0D0(', 00H, '%', 00H, 'd', 00H, ')', 00H, 00H, 00H
	ORG $+2
$SG94691 DB	'P', 00H, 'M', 00H, 'C', 00H, '_', 00H, 'E', 00H, 'x', 00H
	DB	'c', 00H, 'l', 00H, 'u', 00H, 's', 00H, 'i', 00H, 'v', 00H, 'e'
	DB	00H, 'O', 00H, 'r', 00H, '_', 00H, 'X', 00H, '_', 00H, 'X', 00H
	DB	' ', 00H, '(', 00H, '%', 00H, 'd', 00H, '.', 00H, '%', 00H, 'd'
	DB	00H, ')', 00H, 00H, 00H
	ORG $+4
$SG94692 DB	'P', 00H, 'M', 00H, 'C', 00H, '_', 00H, 'F', 00H, 'r', 00H
	DB	'o', 00H, 'm', 00H, 'B', 00H, 'y', 00H, 't', 00H, 'e', 00H, 'A'
	DB	00H, 'r', 00H, 'r', 00H, 'a', 00H, 'y', 00H, 'n0', 0a9H, '_0^', 0b3H
	DB	'0', 0fcH, '0', 0c9H, '0L0', 01fH, 'g', 085H, '_', 01aH, 090H, 08aH
	DB	'0g0o0j0D0(', 00H, '%', 00H, 'd', 00H, ')', 00H, 00H, 00H
	ORG $+2
$SG94693 DB	'P', 00H, 'M', 00H, 'C', 00H, '_', 00H, 'E', 00H, 'x', 00H
	DB	'c', 00H, 'l', 00H, 'u', 00H, 's', 00H, 'i', 00H, 'v', 00H, 'e'
	DB	00H, 'O', 00H, 'r', 00H, '_', 00H, 'X', 00H, '_', 00H, 'X', 00H
	DB	' ', 00H, '(', 00H, '%', 00H, 'd', 00H, '.', 00H, '%', 00H, 'd'
	DB	00H, ')', 00H, 00H, 00H
	ORG $+4
$SG94694 DB	'P', 00H, 'M', 00H, 'C', 00H, '_', 00H, 'E', 00H, 'x', 00H
	DB	'c', 00H, 'l', 00H, 'u', 00H, 's', 00H, 'i', 00H, 'v', 00H, 'e'
	DB	00H, 'O', 00H, 'r', 00H, '_', 00H, 'X', 00H, '_', 00H, 'X', 00H
	DB	'n0', 0a9H, '_0^', 0b3H, '0', 0fcH, '0', 0c9H, '0L0', 01fH, 'g'
	DB	085H, '_', 01aH, 090H, 08aH, '0g0o0j0D0(', 00H, '%', 00H, 'd', 00H
	DB	')', 00H, 00H, 00H
	ORG $+2
$SG94695 DB	'P', 00H, 'M', 00H, 'C', 00H, '_', 00H, 'E', 00H, 'x', 00H
	DB	'c', 00H, 'l', 00H, 'u', 00H, 's', 00H, 'i', 00H, 'v', 00H, 'e'
	DB	00H, 'O', 00H, 'r', 00H, '_', 00H, 'X', 00H, '_', 00H, 'X', 00H
	DB	' ', 00H, '(', 00H, '%', 00H, 'd', 00H, '.', 00H, '%', 00H, 'd'
	DB	00H, ')', 00H, 00H, 00H
$SG94696 DB	'P', 00H, 'M', 00H, 'C', 00H, '_', 00H, 'T', 00H, 'o', 00H
	DB	'B', 00H, 'y', 00H, 't', 00H, 'e', 00H, 'A', 00H, 'r', 00H, 'r'
	DB	00H, 'a', 00H, 'y', 00H, 'n0', 0a9H, '_0^', 0b3H, '0', 0fcH, '0'
	DB	0c9H, '0L0', 01fH, 'g', 085H, '_', 01aH, 090H, 08aH, '0g0o0j0D'
	DB	'0(', 00H, '%', 00H, 'd', 00H, ')', 00H, 00H, 00H
	ORG $+2
$SG94697 DB	'P', 00H, 'M', 00H, 'C', 00H, '_', 00H, 'E', 00H, 'x', 00H
	DB	'c', 00H, 'l', 00H, 'u', 00H, 's', 00H, 'i', 00H, 'v', 00H, 'e'
	DB	00H, 'O', 00H, 'r', 00H, '_', 00H, 'X', 00H, '_', 00H, 'X', 00H
	DB	' ', 00H, '(', 00H, '%', 00H, 'd', 00H, '.', 00H, '%', 00H, 'd'
	DB	00H, ')', 00H, 00H, 00H
$SG94698 DB	0c7H, '0', 0fcH, '0', 0bfH, '0n0', 085H, 'Q', 0b9H, '[L0', 00H
	DB	'N', 0f4H, 081H, 'W0j0D0', 00H, 00H
	ORG $+2
$SG94699 DB	'P', 00H, 'M', 00H, 'C', 00H, '_', 00H, 'E', 00H, 'x', 00H
	DB	'c', 00H, 'l', 00H, 'u', 00H, 's', 00H, 'i', 00H, 'v', 00H, 'e'
	DB	00H, 'O', 00H, 'r', 00H, '_', 00H, 'X', 00H, '_', 00H, 'X', 00H
	DB	' ', 00H, '(', 00H, '%', 00H, 'd', 00H, '.', 00H, '%', 00H, 'd'
	DB	00H, ')', 00H, 00H, 00H
_DATA	ENDS
; Function compile flags: /Odt
;	COMDAT __JustMyCode_Default
_TEXT	SEGMENT
__JustMyCode_Default PROC				; COMDAT
	push	ebp
	mov	ebp, esp
	pop	ebp
	ret	0
__JustMyCode_Default ENDP
_TEXT	ENDS
; Function compile flags: /Odtp /RTCsu
; File z:\sources\lunor\repos\rougemeilland\palmtree.math.core.uint\palmtree.math.core.uint\pmc_debug.h
_TEXT	SEGMENT
_buffer1$ = 8						; size = 4
_count1$ = 12						; size = 4
_buffer2$ = 16						; size = 4
_count2$ = 20						; size = 4
__EQUALS_MEMORY PROC

; 155  : {

	push	ebp
	mov	ebp, esp
	mov	ecx, OFFSET __95056B1C_pmc_debug@h
	call	@__CheckForDebuggerJustMyCode@4

; 156  :     if (count1 != count2)

	mov	eax, DWORD PTR _count1$[ebp]
	cmp	eax, DWORD PTR _count2$[ebp]
	je	SHORT $LN2@EQUALS_MEM

; 157  :         return (-1);

	or	eax, -1
	jmp	SHORT $LN1@EQUALS_MEM
$LN2@EQUALS_MEM:

; 158  :     while (count1 > 0)

	cmp	DWORD PTR _count1$[ebp], 0
	jbe	SHORT $LN3@EQUALS_MEM

; 159  :     {
; 160  :         if (*buffer1 != *buffer2)

	mov	ecx, DWORD PTR _buffer1$[ebp]
	movzx	edx, BYTE PTR [ecx]
	mov	eax, DWORD PTR _buffer2$[ebp]
	movzx	ecx, BYTE PTR [eax]
	cmp	edx, ecx
	je	SHORT $LN5@EQUALS_MEM

; 161  :             return (-1);

	or	eax, -1
	jmp	SHORT $LN1@EQUALS_MEM
$LN5@EQUALS_MEM:

; 162  :         ++buffer1;

	mov	edx, DWORD PTR _buffer1$[ebp]
	add	edx, 1
	mov	DWORD PTR _buffer1$[ebp], edx

; 163  :         ++buffer2;

	mov	eax, DWORD PTR _buffer2$[ebp]
	add	eax, 1
	mov	DWORD PTR _buffer2$[ebp], eax

; 164  :         --count1;

	mov	ecx, DWORD PTR _count1$[ebp]
	sub	ecx, 1
	mov	DWORD PTR _count1$[ebp], ecx

; 165  :     }

	jmp	SHORT $LN2@EQUALS_MEM
$LN3@EQUALS_MEM:

; 166  :     return (0);

	xor	eax, eax
$LN1@EQUALS_MEM:

; 167  : }

	cmp	ebp, esp
	call	__RTC_CheckEsp
	pop	ebp
	ret	0
__EQUALS_MEMORY ENDP
_TEXT	ENDS
; Function compile flags: /Odtp /RTCsu
; File z:\sources\lunor\repos\rougemeilland\palmtree.math.core.uint\palmtree.math.core.uint\test_op_exclusiveor.c
_TEXT	SEGMENT
tv176 = -352						; size = 4
tv161 = -348						; size = 4
tv142 = -344						; size = 4
tv92 = -340						; size = 4
tv74 = -336						; size = 4
_w_result$ = -332					; size = 4
_v_result$ = -328					; size = 4
_u_result$ = -324					; size = 4
_result$ = -320						; size = 4
_actual_w_buf_size$ = -312				; size = 4
_actual_w_buf$ = -300					; size = 256
_w$ = -36						; size = 4
_v$ = -24						; size = 4
_u$ = -12						; size = 4
__$ArrayPad$ = -4					; size = 4
_env$ = 8						; size = 4
_ep$ = 12						; size = 4
_no$ = 16						; size = 4
_u_buf$ = 20						; size = 4
_u_buf_size$ = 24					; size = 4
_v_buf$ = 28						; size = 4
_v_buf_size$ = 32					; size = 4
_desired_w_buf$ = 36					; size = 4
_desired_w_buf_size$ = 40				; size = 4
_TEST_PMC_ExclusiveOr_X_X PROC

; 116  : {

	push	ebp
	mov	ebp, esp
	sub	esp, 352				; 00000160H
	push	esi
	push	edi
	lea	edi, DWORD PTR [ebp-352]
	mov	ecx, 88					; 00000058H
	mov	eax, -858993460				; ccccccccH
	rep stosd
	mov	eax, DWORD PTR ___security_cookie
	xor	eax, ebp
	mov	DWORD PTR __$ArrayPad$[ebp], eax
	mov	ecx, OFFSET __1B39C617_test_op_exclusiveor@c
	call	@__CheckForDebuggerJustMyCode@4

; 117  :     HANDLE u;
; 118  :     HANDLE v;
; 119  :     HANDLE w;
; 120  :     unsigned char actual_w_buf[256];
; 121  :     size_t actual_w_buf_size;
; 122  :     PMC_STATUS_CODE result;
; 123  :     PMC_STATUS_CODE u_result;
; 124  :     PMC_STATUS_CODE v_result;
; 125  :     PMC_STATUS_CODE w_result;
; 126  :     TEST_Assert(env, FormatTestLabel(L"PMC_ExclusiveOr_X_X (%d.%d)", no, 1), (u_result = ep->PMC_FromByteArray(u_buf, u_buf_size, &u)) == PMC_STATUS_OK, FormatTestMesssage(L"PMC_FromByteArrayの復帰コードが期待通りではない(%d)", u_result));

	mov	esi, esp
	lea	eax, DWORD PTR _u$[ebp]
	push	eax
	mov	ecx, DWORD PTR _u_buf_size$[ebp]
	push	ecx
	mov	edx, DWORD PTR _u_buf$[ebp]
	push	edx
	mov	eax, DWORD PTR _ep$[ebp]
	mov	ecx, DWORD PTR [eax+24]
	call	ecx
	cmp	esi, esp
	call	__RTC_CheckEsp
	mov	DWORD PTR _u_result$[ebp], eax
	cmp	DWORD PTR _u_result$[ebp], 0
	jne	SHORT $LN6@TEST_PMC_E
	mov	DWORD PTR tv74[ebp], 1
	jmp	SHORT $LN7@TEST_PMC_E
$LN6@TEST_PMC_E:
	mov	DWORD PTR tv74[ebp], 0
$LN7@TEST_PMC_E:
	mov	edx, DWORD PTR _u_result$[ebp]
	push	edx
	push	OFFSET $SG94690
	call	_FormatTestMesssage
	add	esp, 8
	push	eax
	mov	eax, DWORD PTR tv74[ebp]
	push	eax
	push	1
	mov	ecx, DWORD PTR _no$[ebp]
	push	ecx
	push	OFFSET $SG94691
	call	_FormatTestLabel
	add	esp, 12					; 0000000cH
	push	eax
	mov	edx, DWORD PTR _env$[ebp]
	push	edx
	call	_TEST_Assert
	add	esp, 16					; 00000010H

; 127  :     TEST_Assert(env, FormatTestLabel(L"PMC_ExclusiveOr_X_X (%d.%d)", no, 2), (v_result = ep->PMC_FromByteArray(v_buf, v_buf_size, &v)) == PMC_STATUS_OK, FormatTestMesssage(L"PMC_FromByteArrayの復帰コードが期待通りではない(%d)", v_result));

	mov	esi, esp
	lea	eax, DWORD PTR _v$[ebp]
	push	eax
	mov	ecx, DWORD PTR _v_buf_size$[ebp]
	push	ecx
	mov	edx, DWORD PTR _v_buf$[ebp]
	push	edx
	mov	eax, DWORD PTR _ep$[ebp]
	mov	ecx, DWORD PTR [eax+24]
	call	ecx
	cmp	esi, esp
	call	__RTC_CheckEsp
	mov	DWORD PTR _v_result$[ebp], eax
	cmp	DWORD PTR _v_result$[ebp], 0
	jne	SHORT $LN8@TEST_PMC_E
	mov	DWORD PTR tv92[ebp], 1
	jmp	SHORT $LN9@TEST_PMC_E
$LN8@TEST_PMC_E:
	mov	DWORD PTR tv92[ebp], 0
$LN9@TEST_PMC_E:
	mov	edx, DWORD PTR _v_result$[ebp]
	push	edx
	push	OFFSET $SG94692
	call	_FormatTestMesssage
	add	esp, 8
	push	eax
	mov	eax, DWORD PTR tv92[ebp]
	push	eax
	push	2
	mov	ecx, DWORD PTR _no$[ebp]
	push	ecx
	push	OFFSET $SG94693
	call	_FormatTestLabel
	add	esp, 12					; 0000000cH
	push	eax
	mov	edx, DWORD PTR _env$[ebp]
	push	edx
	call	_TEST_Assert
	add	esp, 16					; 00000010H

; 128  :     TEST_Assert(env, FormatTestLabel(L"PMC_ExclusiveOr_X_X (%d.%d)", no, 3), (w_result = ep->PMC_ExclusiveOr_X_X(u, v, &w)) == PMC_STATUS_OK, FormatTestMesssage(L"PMC_ExclusiveOr_X_Xの復帰コードが期待通りではない(%d)", w_result));

	mov	esi, esp
	lea	eax, DWORD PTR _w$[ebp]
	push	eax
	mov	ecx, DWORD PTR _v$[ebp]
	push	ecx
	mov	edx, DWORD PTR _u$[ebp]
	push	edx
	mov	eax, DWORD PTR _ep$[ebp]
	mov	ecx, DWORD PTR [eax+204]
	call	ecx
	cmp	esi, esp
	call	__RTC_CheckEsp
	mov	DWORD PTR _w_result$[ebp], eax
	cmp	DWORD PTR _w_result$[ebp], 0
	jne	SHORT $LN10@TEST_PMC_E
	mov	DWORD PTR tv142[ebp], 1
	jmp	SHORT $LN11@TEST_PMC_E
$LN10@TEST_PMC_E:
	mov	DWORD PTR tv142[ebp], 0
$LN11@TEST_PMC_E:
	mov	edx, DWORD PTR _w_result$[ebp]
	push	edx
	push	OFFSET $SG94694
	call	_FormatTestMesssage
	add	esp, 8
	push	eax
	mov	eax, DWORD PTR tv142[ebp]
	push	eax
	push	3
	mov	ecx, DWORD PTR _no$[ebp]
	push	ecx
	push	OFFSET $SG94695
	call	_FormatTestLabel
	add	esp, 12					; 0000000cH
	push	eax
	mov	edx, DWORD PTR _env$[ebp]
	push	edx
	call	_TEST_Assert
	add	esp, 16					; 00000010H

; 129  :     TEST_Assert(env, FormatTestLabel(L"PMC_ExclusiveOr_X_X (%d.%d)", no, 4), (result = ep->PMC_ToByteArray(w, actual_w_buf, sizeof(actual_w_buf), &actual_w_buf_size)) == PMC_STATUS_OK, FormatTestMesssage(L"PMC_ToByteArrayの復帰コードが期待通りではない(%d)", result));

	mov	esi, esp
	lea	eax, DWORD PTR _actual_w_buf_size$[ebp]
	push	eax
	push	256					; 00000100H
	lea	ecx, DWORD PTR _actual_w_buf$[ebp]
	push	ecx
	mov	edx, DWORD PTR _w$[ebp]
	push	edx
	mov	eax, DWORD PTR _ep$[ebp]
	mov	ecx, DWORD PTR [eax+28]
	call	ecx
	cmp	esi, esp
	call	__RTC_CheckEsp
	mov	DWORD PTR _result$[ebp], eax
	cmp	DWORD PTR _result$[ebp], 0
	jne	SHORT $LN12@TEST_PMC_E
	mov	DWORD PTR tv161[ebp], 1
	jmp	SHORT $LN13@TEST_PMC_E
$LN12@TEST_PMC_E:
	mov	DWORD PTR tv161[ebp], 0
$LN13@TEST_PMC_E:
	mov	edx, DWORD PTR _result$[ebp]
	push	edx
	push	OFFSET $SG94696
	call	_FormatTestMesssage
	add	esp, 8
	push	eax
	mov	eax, DWORD PTR tv161[ebp]
	push	eax
	push	4
	mov	ecx, DWORD PTR _no$[ebp]
	push	ecx
	push	OFFSET $SG94697
	call	_FormatTestLabel
	add	esp, 12					; 0000000cH
	push	eax
	mov	edx, DWORD PTR _env$[ebp]
	push	edx
	call	_TEST_Assert
	add	esp, 16					; 00000010H

; 130  :     TEST_Assert(env, FormatTestLabel(L"PMC_ExclusiveOr_X_X (%d.%d)", no, 5), _EQUALS_MEMORY(actual_w_buf, actual_w_buf_size, desired_w_buf, desired_w_buf_size) == 0, L"データの内容が一致しない");

	mov	eax, DWORD PTR _desired_w_buf_size$[ebp]
	push	eax
	mov	ecx, DWORD PTR _desired_w_buf$[ebp]
	push	ecx
	mov	edx, DWORD PTR _actual_w_buf_size$[ebp]
	push	edx
	lea	eax, DWORD PTR _actual_w_buf$[ebp]
	push	eax
	call	__EQUALS_MEMORY
	add	esp, 16					; 00000010H
	test	eax, eax
	jne	SHORT $LN14@TEST_PMC_E
	mov	DWORD PTR tv176[ebp], 1
	jmp	SHORT $LN15@TEST_PMC_E
$LN14@TEST_PMC_E:
	mov	DWORD PTR tv176[ebp], 0
$LN15@TEST_PMC_E:
	push	OFFSET $SG94698
	mov	ecx, DWORD PTR tv176[ebp]
	push	ecx
	push	5
	mov	edx, DWORD PTR _no$[ebp]
	push	edx
	push	OFFSET $SG94699
	call	_FormatTestLabel
	add	esp, 12					; 0000000cH
	push	eax
	mov	eax, DWORD PTR _env$[ebp]
	push	eax
	call	_TEST_Assert
	add	esp, 16					; 00000010H

; 131  :     if (w_result == PMC_STATUS_OK)

	cmp	DWORD PTR _w_result$[ebp], 0
	jne	SHORT $LN2@TEST_PMC_E

; 132  :         ep->PMC_Dispose(w);

	mov	esi, esp
	mov	ecx, DWORD PTR _w$[ebp]
	push	ecx
	mov	edx, DWORD PTR _ep$[ebp]
	mov	eax, DWORD PTR [edx+16]
	call	eax
	cmp	esi, esp
	call	__RTC_CheckEsp
$LN2@TEST_PMC_E:

; 133  :     if (v_result == PMC_STATUS_OK)

	cmp	DWORD PTR _v_result$[ebp], 0
	jne	SHORT $LN3@TEST_PMC_E

; 134  :         ep->PMC_Dispose(v);

	mov	esi, esp
	mov	ecx, DWORD PTR _v$[ebp]
	push	ecx
	mov	edx, DWORD PTR _ep$[ebp]
	mov	eax, DWORD PTR [edx+16]
	call	eax
	cmp	esi, esp
	call	__RTC_CheckEsp
$LN3@TEST_PMC_E:

; 135  :     if (u_result == PMC_STATUS_OK)

	cmp	DWORD PTR _u_result$[ebp], 0
	jne	SHORT $LN1@TEST_PMC_E

; 136  :         ep->PMC_Dispose(u);

	mov	esi, esp
	mov	ecx, DWORD PTR _u$[ebp]
	push	ecx
	mov	edx, DWORD PTR _ep$[ebp]
	mov	eax, DWORD PTR [edx+16]
	call	eax
	cmp	esi, esp
	call	__RTC_CheckEsp
$LN1@TEST_PMC_E:

; 137  : }

	push	edx
	mov	ecx, ebp
	push	eax
	lea	edx, DWORD PTR $LN22@TEST_PMC_E
	call	@_RTC_CheckStackVars@8
	pop	eax
	pop	edx
	pop	edi
	pop	esi
	mov	ecx, DWORD PTR __$ArrayPad$[ebp]
	xor	ecx, ebp
	call	@__security_check_cookie@4
	add	esp, 352				; 00000160H
	cmp	ebp, esp
	call	__RTC_CheckEsp
	mov	esp, ebp
	pop	ebp
	ret	0
	npad	1
$LN22@TEST_PMC_E:
	DD	5
	DD	$LN21@TEST_PMC_E
$LN21@TEST_PMC_E:
	DD	-12					; fffffff4H
	DD	4
	DD	$LN16@TEST_PMC_E
	DD	-24					; ffffffe8H
	DD	4
	DD	$LN17@TEST_PMC_E
	DD	-36					; ffffffdcH
	DD	4
	DD	$LN18@TEST_PMC_E
	DD	-300					; fffffed4H
	DD	256					; 00000100H
	DD	$LN19@TEST_PMC_E
	DD	-312					; fffffec8H
	DD	4
	DD	$LN20@TEST_PMC_E
$LN20@TEST_PMC_E:
	DB	97					; 00000061H
	DB	99					; 00000063H
	DB	116					; 00000074H
	DB	117					; 00000075H
	DB	97					; 00000061H
	DB	108					; 0000006cH
	DB	95					; 0000005fH
	DB	119					; 00000077H
	DB	95					; 0000005fH
	DB	98					; 00000062H
	DB	117					; 00000075H
	DB	102					; 00000066H
	DB	95					; 0000005fH
	DB	115					; 00000073H
	DB	105					; 00000069H
	DB	122					; 0000007aH
	DB	101					; 00000065H
	DB	0
$LN19@TEST_PMC_E:
	DB	97					; 00000061H
	DB	99					; 00000063H
	DB	116					; 00000074H
	DB	117					; 00000075H
	DB	97					; 00000061H
	DB	108					; 0000006cH
	DB	95					; 0000005fH
	DB	119					; 00000077H
	DB	95					; 0000005fH
	DB	98					; 00000062H
	DB	117					; 00000075H
	DB	102					; 00000066H
	DB	0
$LN18@TEST_PMC_E:
	DB	119					; 00000077H
	DB	0
$LN17@TEST_PMC_E:
	DB	118					; 00000076H
	DB	0
$LN16@TEST_PMC_E:
	DB	117					; 00000075H
	DB	0
_TEST_PMC_ExclusiveOr_X_X ENDP
_TEXT	ENDS
; Function compile flags: /Odtp /RTCsu
; File z:\sources\lunor\repos\rougemeilland\palmtree.math.core.uint\palmtree.math.core.uint\test_op_exclusiveor.c
_TEXT	SEGMENT
tv158 = -332						; size = 4
tv143 = -328						; size = 4
tv92 = -324						; size = 4
tv74 = -320						; size = 4
_w_result$ = -316					; size = 4
_u_result$ = -312					; size = 4
_result$ = -308						; size = 4
_actual_w_buf_size$ = -300				; size = 4
_actual_w_buf$ = -288					; size = 256
_w$ = -24						; size = 4
_u$ = -12						; size = 4
__$ArrayPad$ = -4					; size = 4
_env$ = 8						; size = 4
_ep$ = 12						; size = 4
_no$ = 16						; size = 4
_u_buf$ = 20						; size = 4
_u_buf_size$ = 24					; size = 4
_v$ = 28						; size = 8
_desired_w_buf$ = 36					; size = 4
_desired_w_buf_size$ = 40				; size = 4
_TEST_PMC_ExclusiveOr_X_L PROC

; 97   : {

	push	ebp
	mov	ebp, esp
	sub	esp, 332				; 0000014cH
	push	esi
	push	edi
	lea	edi, DWORD PTR [ebp-332]
	mov	ecx, 83					; 00000053H
	mov	eax, -858993460				; ccccccccH
	rep stosd
	mov	eax, DWORD PTR ___security_cookie
	xor	eax, ebp
	mov	DWORD PTR __$ArrayPad$[ebp], eax
	mov	ecx, OFFSET __1B39C617_test_op_exclusiveor@c
	call	@__CheckForDebuggerJustMyCode@4

; 98   :     HANDLE u;
; 99   :     HANDLE w;
; 100  :     unsigned char actual_w_buf[256];
; 101  :     size_t actual_w_buf_size;
; 102  :     PMC_STATUS_CODE result;
; 103  :     PMC_STATUS_CODE u_result;
; 104  :     PMC_STATUS_CODE w_result;
; 105  :     TEST_Assert(env, FormatTestLabel(L"PMC_ExclusiveOr_X_L (%d.%d)", no, 1), (u_result = ep->PMC_FromByteArray(u_buf, u_buf_size, &u)) == PMC_STATUS_OK, FormatTestMesssage(L"PMC_FromByteArrayの復帰コードが期待通りではない(%d)", u_result));

	mov	esi, esp
	lea	eax, DWORD PTR _u$[ebp]
	push	eax
	mov	ecx, DWORD PTR _u_buf_size$[ebp]
	push	ecx
	mov	edx, DWORD PTR _u_buf$[ebp]
	push	edx
	mov	eax, DWORD PTR _ep$[ebp]
	mov	ecx, DWORD PTR [eax+24]
	call	ecx
	cmp	esi, esp
	call	__RTC_CheckEsp
	mov	DWORD PTR _u_result$[ebp], eax
	cmp	DWORD PTR _u_result$[ebp], 0
	jne	SHORT $LN5@TEST_PMC_E
	mov	DWORD PTR tv74[ebp], 1
	jmp	SHORT $LN6@TEST_PMC_E
$LN5@TEST_PMC_E:
	mov	DWORD PTR tv74[ebp], 0
$LN6@TEST_PMC_E:
	mov	edx, DWORD PTR _u_result$[ebp]
	push	edx
	push	OFFSET $SG94652
	call	_FormatTestMesssage
	add	esp, 8
	push	eax
	mov	eax, DWORD PTR tv74[ebp]
	push	eax
	push	1
	mov	ecx, DWORD PTR _no$[ebp]
	push	ecx
	push	OFFSET $SG94653
	call	_FormatTestLabel
	add	esp, 12					; 0000000cH
	push	eax
	mov	edx, DWORD PTR _env$[ebp]
	push	edx
	call	_TEST_Assert
	add	esp, 16					; 00000010H

; 106  :     TEST_Assert(env, FormatTestLabel(L"PMC_ExclusiveOr_X_L (%d.%d)", no, 2), (w_result = ep->PMC_ExclusiveOr_X_L(u, v, &w)) == PMC_STATUS_OK, FormatTestMesssage(L"PMC_ExclusiveOr_X_Lの復帰コードが期待通りではない(%d)", w_result));

	mov	esi, esp
	lea	eax, DWORD PTR _w$[ebp]
	push	eax
	mov	ecx, DWORD PTR _v$[ebp+4]
	push	ecx
	mov	edx, DWORD PTR _v$[ebp]
	push	edx
	mov	eax, DWORD PTR _u$[ebp]
	push	eax
	mov	ecx, DWORD PTR _ep$[ebp]
	mov	edx, DWORD PTR [ecx+200]
	call	edx
	cmp	esi, esp
	call	__RTC_CheckEsp
	mov	DWORD PTR _w_result$[ebp], eax
	cmp	DWORD PTR _w_result$[ebp], 0
	jne	SHORT $LN7@TEST_PMC_E
	mov	DWORD PTR tv92[ebp], 1
	jmp	SHORT $LN8@TEST_PMC_E
$LN7@TEST_PMC_E:
	mov	DWORD PTR tv92[ebp], 0
$LN8@TEST_PMC_E:
	mov	eax, DWORD PTR _w_result$[ebp]
	push	eax
	push	OFFSET $SG94654
	call	_FormatTestMesssage
	add	esp, 8
	push	eax
	mov	ecx, DWORD PTR tv92[ebp]
	push	ecx
	push	2
	mov	edx, DWORD PTR _no$[ebp]
	push	edx
	push	OFFSET $SG94655
	call	_FormatTestLabel
	add	esp, 12					; 0000000cH
	push	eax
	mov	eax, DWORD PTR _env$[ebp]
	push	eax
	call	_TEST_Assert
	add	esp, 16					; 00000010H

; 107  :     TEST_Assert(env, FormatTestLabel(L"PMC_ExclusiveOr_X_L (%d.%d)", no, 3), (result = ep->PMC_ToByteArray(w, actual_w_buf, sizeof(actual_w_buf), &actual_w_buf_size)) == PMC_STATUS_OK, FormatTestMesssage(L"PMC_ToByteArrayの復帰コードが期待通りではない(%d)", result));

	mov	esi, esp
	lea	ecx, DWORD PTR _actual_w_buf_size$[ebp]
	push	ecx
	push	256					; 00000100H
	lea	edx, DWORD PTR _actual_w_buf$[ebp]
	push	edx
	mov	eax, DWORD PTR _w$[ebp]
	push	eax
	mov	ecx, DWORD PTR _ep$[ebp]
	mov	edx, DWORD PTR [ecx+28]
	call	edx
	cmp	esi, esp
	call	__RTC_CheckEsp
	mov	DWORD PTR _result$[ebp], eax
	cmp	DWORD PTR _result$[ebp], 0
	jne	SHORT $LN9@TEST_PMC_E
	mov	DWORD PTR tv143[ebp], 1
	jmp	SHORT $LN10@TEST_PMC_E
$LN9@TEST_PMC_E:
	mov	DWORD PTR tv143[ebp], 0
$LN10@TEST_PMC_E:
	mov	eax, DWORD PTR _result$[ebp]
	push	eax
	push	OFFSET $SG94656
	call	_FormatTestMesssage
	add	esp, 8
	push	eax
	mov	ecx, DWORD PTR tv143[ebp]
	push	ecx
	push	3
	mov	edx, DWORD PTR _no$[ebp]
	push	edx
	push	OFFSET $SG94657
	call	_FormatTestLabel
	add	esp, 12					; 0000000cH
	push	eax
	mov	eax, DWORD PTR _env$[ebp]
	push	eax
	call	_TEST_Assert
	add	esp, 16					; 00000010H

; 108  :     TEST_Assert(env, FormatTestLabel(L"PMC_ExclusiveOr_X_L (%d.%d)", no, 4), _EQUALS_MEMORY(actual_w_buf, actual_w_buf_size, desired_w_buf, desired_w_buf_size) == 0, L"データの内容が一致しない");

	mov	ecx, DWORD PTR _desired_w_buf_size$[ebp]
	push	ecx
	mov	edx, DWORD PTR _desired_w_buf$[ebp]
	push	edx
	mov	eax, DWORD PTR _actual_w_buf_size$[ebp]
	push	eax
	lea	ecx, DWORD PTR _actual_w_buf$[ebp]
	push	ecx
	call	__EQUALS_MEMORY
	add	esp, 16					; 00000010H
	test	eax, eax
	jne	SHORT $LN11@TEST_PMC_E
	mov	DWORD PTR tv158[ebp], 1
	jmp	SHORT $LN12@TEST_PMC_E
$LN11@TEST_PMC_E:
	mov	DWORD PTR tv158[ebp], 0
$LN12@TEST_PMC_E:
	push	OFFSET $SG94658
	mov	edx, DWORD PTR tv158[ebp]
	push	edx
	push	4
	mov	eax, DWORD PTR _no$[ebp]
	push	eax
	push	OFFSET $SG94659
	call	_FormatTestLabel
	add	esp, 12					; 0000000cH
	push	eax
	mov	ecx, DWORD PTR _env$[ebp]
	push	ecx
	call	_TEST_Assert
	add	esp, 16					; 00000010H

; 109  :     if (w_result == PMC_STATUS_OK)

	cmp	DWORD PTR _w_result$[ebp], 0
	jne	SHORT $LN2@TEST_PMC_E

; 110  :         ep->PMC_Dispose(w);

	mov	esi, esp
	mov	edx, DWORD PTR _w$[ebp]
	push	edx
	mov	eax, DWORD PTR _ep$[ebp]
	mov	ecx, DWORD PTR [eax+16]
	call	ecx
	cmp	esi, esp
	call	__RTC_CheckEsp
$LN2@TEST_PMC_E:

; 111  :     if (u_result == PMC_STATUS_OK)

	cmp	DWORD PTR _u_result$[ebp], 0
	jne	SHORT $LN1@TEST_PMC_E

; 112  :         ep->PMC_Dispose(u);

	mov	esi, esp
	mov	edx, DWORD PTR _u$[ebp]
	push	edx
	mov	eax, DWORD PTR _ep$[ebp]
	mov	ecx, DWORD PTR [eax+16]
	call	ecx
	cmp	esi, esp
	call	__RTC_CheckEsp
$LN1@TEST_PMC_E:

; 113  : }

	push	edx
	mov	ecx, ebp
	push	eax
	lea	edx, DWORD PTR $LN18@TEST_PMC_E
	call	@_RTC_CheckStackVars@8
	pop	eax
	pop	edx
	pop	edi
	pop	esi
	mov	ecx, DWORD PTR __$ArrayPad$[ebp]
	xor	ecx, ebp
	call	@__security_check_cookie@4
	add	esp, 332				; 0000014cH
	cmp	ebp, esp
	call	__RTC_CheckEsp
	mov	esp, ebp
	pop	ebp
	ret	0
	npad	1
$LN18@TEST_PMC_E:
	DD	4
	DD	$LN17@TEST_PMC_E
$LN17@TEST_PMC_E:
	DD	-12					; fffffff4H
	DD	4
	DD	$LN13@TEST_PMC_E
	DD	-24					; ffffffe8H
	DD	4
	DD	$LN14@TEST_PMC_E
	DD	-288					; fffffee0H
	DD	256					; 00000100H
	DD	$LN15@TEST_PMC_E
	DD	-300					; fffffed4H
	DD	4
	DD	$LN16@TEST_PMC_E
$LN16@TEST_PMC_E:
	DB	97					; 00000061H
	DB	99					; 00000063H
	DB	116					; 00000074H
	DB	117					; 00000075H
	DB	97					; 00000061H
	DB	108					; 0000006cH
	DB	95					; 0000005fH
	DB	119					; 00000077H
	DB	95					; 0000005fH
	DB	98					; 00000062H
	DB	117					; 00000075H
	DB	102					; 00000066H
	DB	95					; 0000005fH
	DB	115					; 00000073H
	DB	105					; 00000069H
	DB	122					; 0000007aH
	DB	101					; 00000065H
	DB	0
$LN15@TEST_PMC_E:
	DB	97					; 00000061H
	DB	99					; 00000063H
	DB	116					; 00000074H
	DB	117					; 00000075H
	DB	97					; 00000061H
	DB	108					; 0000006cH
	DB	95					; 0000005fH
	DB	119					; 00000077H
	DB	95					; 0000005fH
	DB	98					; 00000062H
	DB	117					; 00000075H
	DB	102					; 00000066H
	DB	0
$LN14@TEST_PMC_E:
	DB	119					; 00000077H
	DB	0
$LN13@TEST_PMC_E:
	DB	117					; 00000075H
	DB	0
_TEST_PMC_ExclusiveOr_X_L ENDP
_TEXT	ENDS
; Function compile flags: /Odtp /RTCsu
; File z:\sources\lunor\repos\rougemeilland\palmtree.math.core.uint\palmtree.math.core.uint\test_op_exclusiveor.c
_TEXT	SEGMENT
tv158 = -332						; size = 4
tv143 = -328						; size = 4
tv92 = -324						; size = 4
tv74 = -320						; size = 4
_w_result$ = -316					; size = 4
_u_result$ = -312					; size = 4
_result$ = -308						; size = 4
_actual_w_buf_size$ = -300				; size = 4
_actual_w_buf$ = -288					; size = 256
_w$ = -24						; size = 4
_u$ = -12						; size = 4
__$ArrayPad$ = -4					; size = 4
_env$ = 8						; size = 4
_ep$ = 12						; size = 4
_no$ = 16						; size = 4
_u_buf$ = 20						; size = 4
_u_buf_size$ = 24					; size = 4
_v$ = 28						; size = 4
_desired_w_buf$ = 32					; size = 4
_desired_w_buf_size$ = 36				; size = 4
_TEST_PMC_ExclusiveOr_X_I PROC

; 78   : {

	push	ebp
	mov	ebp, esp
	sub	esp, 332				; 0000014cH
	push	esi
	push	edi
	lea	edi, DWORD PTR [ebp-332]
	mov	ecx, 83					; 00000053H
	mov	eax, -858993460				; ccccccccH
	rep stosd
	mov	eax, DWORD PTR ___security_cookie
	xor	eax, ebp
	mov	DWORD PTR __$ArrayPad$[ebp], eax
	mov	ecx, OFFSET __1B39C617_test_op_exclusiveor@c
	call	@__CheckForDebuggerJustMyCode@4

; 79   :     HANDLE u;
; 80   :     HANDLE w;
; 81   :     unsigned char actual_w_buf[256];
; 82   :     size_t actual_w_buf_size;
; 83   :     PMC_STATUS_CODE result;
; 84   :     PMC_STATUS_CODE u_result;
; 85   :     PMC_STATUS_CODE w_result;
; 86   :     TEST_Assert(env, FormatTestLabel(L"PMC_ExclusiveOr_X_I (%d.%d)", no, 1), (u_result = ep->PMC_FromByteArray(u_buf, u_buf_size, &u)) == PMC_STATUS_OK, FormatTestMesssage(L"PMC_FromByteArrayの復帰コードが期待通りではない(%d)", u_result));

	mov	esi, esp
	lea	eax, DWORD PTR _u$[ebp]
	push	eax
	mov	ecx, DWORD PTR _u_buf_size$[ebp]
	push	ecx
	mov	edx, DWORD PTR _u_buf$[ebp]
	push	edx
	mov	eax, DWORD PTR _ep$[ebp]
	mov	ecx, DWORD PTR [eax+24]
	call	ecx
	cmp	esi, esp
	call	__RTC_CheckEsp
	mov	DWORD PTR _u_result$[ebp], eax
	cmp	DWORD PTR _u_result$[ebp], 0
	jne	SHORT $LN5@TEST_PMC_E
	mov	DWORD PTR tv74[ebp], 1
	jmp	SHORT $LN6@TEST_PMC_E
$LN5@TEST_PMC_E:
	mov	DWORD PTR tv74[ebp], 0
$LN6@TEST_PMC_E:
	mov	edx, DWORD PTR _u_result$[ebp]
	push	edx
	push	OFFSET $SG94618
	call	_FormatTestMesssage
	add	esp, 8
	push	eax
	mov	eax, DWORD PTR tv74[ebp]
	push	eax
	push	1
	mov	ecx, DWORD PTR _no$[ebp]
	push	ecx
	push	OFFSET $SG94619
	call	_FormatTestLabel
	add	esp, 12					; 0000000cH
	push	eax
	mov	edx, DWORD PTR _env$[ebp]
	push	edx
	call	_TEST_Assert
	add	esp, 16					; 00000010H

; 87   :     TEST_Assert(env, FormatTestLabel(L"PMC_ExclusiveOr_X_I (%d.%d)", no, 2), (w_result = ep->PMC_ExclusiveOr_X_I(u, v, &w)) == PMC_STATUS_OK, FormatTestMesssage(L"PMC_ExclusiveOr_X_Iの復帰コードが期待通りではない(%d)", w_result));

	mov	esi, esp
	lea	eax, DWORD PTR _w$[ebp]
	push	eax
	mov	ecx, DWORD PTR _v$[ebp]
	push	ecx
	mov	edx, DWORD PTR _u$[ebp]
	push	edx
	mov	eax, DWORD PTR _ep$[ebp]
	mov	ecx, DWORD PTR [eax+196]
	call	ecx
	cmp	esi, esp
	call	__RTC_CheckEsp
	mov	DWORD PTR _w_result$[ebp], eax
	cmp	DWORD PTR _w_result$[ebp], 0
	jne	SHORT $LN7@TEST_PMC_E
	mov	DWORD PTR tv92[ebp], 1
	jmp	SHORT $LN8@TEST_PMC_E
$LN7@TEST_PMC_E:
	mov	DWORD PTR tv92[ebp], 0
$LN8@TEST_PMC_E:
	mov	edx, DWORD PTR _w_result$[ebp]
	push	edx
	push	OFFSET $SG94620
	call	_FormatTestMesssage
	add	esp, 8
	push	eax
	mov	eax, DWORD PTR tv92[ebp]
	push	eax
	push	2
	mov	ecx, DWORD PTR _no$[ebp]
	push	ecx
	push	OFFSET $SG94621
	call	_FormatTestLabel
	add	esp, 12					; 0000000cH
	push	eax
	mov	edx, DWORD PTR _env$[ebp]
	push	edx
	call	_TEST_Assert
	add	esp, 16					; 00000010H

; 88   :     TEST_Assert(env, FormatTestLabel(L"PMC_ExclusiveOr_X_I (%d.%d)", no, 3), (result = ep->PMC_ToByteArray(w, actual_w_buf, sizeof(actual_w_buf), &actual_w_buf_size)) == PMC_STATUS_OK, FormatTestMesssage(L"PMC_ToByteArrayの復帰コードが期待通りではない(%d)", result));

	mov	esi, esp
	lea	eax, DWORD PTR _actual_w_buf_size$[ebp]
	push	eax
	push	256					; 00000100H
	lea	ecx, DWORD PTR _actual_w_buf$[ebp]
	push	ecx
	mov	edx, DWORD PTR _w$[ebp]
	push	edx
	mov	eax, DWORD PTR _ep$[ebp]
	mov	ecx, DWORD PTR [eax+28]
	call	ecx
	cmp	esi, esp
	call	__RTC_CheckEsp
	mov	DWORD PTR _result$[ebp], eax
	cmp	DWORD PTR _result$[ebp], 0
	jne	SHORT $LN9@TEST_PMC_E
	mov	DWORD PTR tv143[ebp], 1
	jmp	SHORT $LN10@TEST_PMC_E
$LN9@TEST_PMC_E:
	mov	DWORD PTR tv143[ebp], 0
$LN10@TEST_PMC_E:
	mov	edx, DWORD PTR _result$[ebp]
	push	edx
	push	OFFSET $SG94622
	call	_FormatTestMesssage
	add	esp, 8
	push	eax
	mov	eax, DWORD PTR tv143[ebp]
	push	eax
	push	3
	mov	ecx, DWORD PTR _no$[ebp]
	push	ecx
	push	OFFSET $SG94623
	call	_FormatTestLabel
	add	esp, 12					; 0000000cH
	push	eax
	mov	edx, DWORD PTR _env$[ebp]
	push	edx
	call	_TEST_Assert
	add	esp, 16					; 00000010H

; 89   :     TEST_Assert(env, FormatTestLabel(L"PMC_ExclusiveOr_X_I (%d.%d)", no, 4), _EQUALS_MEMORY(actual_w_buf, actual_w_buf_size, desired_w_buf, desired_w_buf_size) == 0, L"データの内容が一致しない");

	mov	eax, DWORD PTR _desired_w_buf_size$[ebp]
	push	eax
	mov	ecx, DWORD PTR _desired_w_buf$[ebp]
	push	ecx
	mov	edx, DWORD PTR _actual_w_buf_size$[ebp]
	push	edx
	lea	eax, DWORD PTR _actual_w_buf$[ebp]
	push	eax
	call	__EQUALS_MEMORY
	add	esp, 16					; 00000010H
	test	eax, eax
	jne	SHORT $LN11@TEST_PMC_E
	mov	DWORD PTR tv158[ebp], 1
	jmp	SHORT $LN12@TEST_PMC_E
$LN11@TEST_PMC_E:
	mov	DWORD PTR tv158[ebp], 0
$LN12@TEST_PMC_E:
	push	OFFSET $SG94624
	mov	ecx, DWORD PTR tv158[ebp]
	push	ecx
	push	4
	mov	edx, DWORD PTR _no$[ebp]
	push	edx
	push	OFFSET $SG94625
	call	_FormatTestLabel
	add	esp, 12					; 0000000cH
	push	eax
	mov	eax, DWORD PTR _env$[ebp]
	push	eax
	call	_TEST_Assert
	add	esp, 16					; 00000010H

; 90   :     if (w_result == PMC_STATUS_OK)

	cmp	DWORD PTR _w_result$[ebp], 0
	jne	SHORT $LN2@TEST_PMC_E

; 91   :         ep->PMC_Dispose(w);

	mov	esi, esp
	mov	ecx, DWORD PTR _w$[ebp]
	push	ecx
	mov	edx, DWORD PTR _ep$[ebp]
	mov	eax, DWORD PTR [edx+16]
	call	eax
	cmp	esi, esp
	call	__RTC_CheckEsp
$LN2@TEST_PMC_E:

; 92   :     if (u_result == PMC_STATUS_OK)

	cmp	DWORD PTR _u_result$[ebp], 0
	jne	SHORT $LN1@TEST_PMC_E

; 93   :         ep->PMC_Dispose(u);

	mov	esi, esp
	mov	ecx, DWORD PTR _u$[ebp]
	push	ecx
	mov	edx, DWORD PTR _ep$[ebp]
	mov	eax, DWORD PTR [edx+16]
	call	eax
	cmp	esi, esp
	call	__RTC_CheckEsp
$LN1@TEST_PMC_E:

; 94   : }

	push	edx
	mov	ecx, ebp
	push	eax
	lea	edx, DWORD PTR $LN18@TEST_PMC_E
	call	@_RTC_CheckStackVars@8
	pop	eax
	pop	edx
	pop	edi
	pop	esi
	mov	ecx, DWORD PTR __$ArrayPad$[ebp]
	xor	ecx, ebp
	call	@__security_check_cookie@4
	add	esp, 332				; 0000014cH
	cmp	ebp, esp
	call	__RTC_CheckEsp
	mov	esp, ebp
	pop	ebp
	ret	0
	npad	1
$LN18@TEST_PMC_E:
	DD	4
	DD	$LN17@TEST_PMC_E
$LN17@TEST_PMC_E:
	DD	-12					; fffffff4H
	DD	4
	DD	$LN13@TEST_PMC_E
	DD	-24					; ffffffe8H
	DD	4
	DD	$LN14@TEST_PMC_E
	DD	-288					; fffffee0H
	DD	256					; 00000100H
	DD	$LN15@TEST_PMC_E
	DD	-300					; fffffed4H
	DD	4
	DD	$LN16@TEST_PMC_E
$LN16@TEST_PMC_E:
	DB	97					; 00000061H
	DB	99					; 00000063H
	DB	116					; 00000074H
	DB	117					; 00000075H
	DB	97					; 00000061H
	DB	108					; 0000006cH
	DB	95					; 0000005fH
	DB	119					; 00000077H
	DB	95					; 0000005fH
	DB	98					; 00000062H
	DB	117					; 00000075H
	DB	102					; 00000066H
	DB	95					; 0000005fH
	DB	115					; 00000073H
	DB	105					; 00000069H
	DB	122					; 0000007aH
	DB	101					; 00000065H
	DB	0
$LN15@TEST_PMC_E:
	DB	97					; 00000061H
	DB	99					; 00000063H
	DB	116					; 00000074H
	DB	117					; 00000075H
	DB	97					; 00000061H
	DB	108					; 0000006cH
	DB	95					; 0000005fH
	DB	119					; 00000077H
	DB	95					; 0000005fH
	DB	98					; 00000062H
	DB	117					; 00000075H
	DB	102					; 00000066H
	DB	0
$LN14@TEST_PMC_E:
	DB	119					; 00000077H
	DB	0
$LN13@TEST_PMC_E:
	DB	117					; 00000075H
	DB	0
_TEST_PMC_ExclusiveOr_X_I ENDP
_TEXT	ENDS
; Function compile flags: /Odtp /RTCsu
; File z:\sources\lunor\repos\rougemeilland\palmtree.math.core.uint\palmtree.math.core.uint\test_op_exclusiveor.c
_TEXT	SEGMENT
tv158 = -332						; size = 4
tv143 = -328						; size = 4
tv92 = -324						; size = 4
tv74 = -320						; size = 4
_w_result$ = -316					; size = 4
_v_result$ = -312					; size = 4
_result$ = -308						; size = 4
_actual_w_buf_size$ = -300				; size = 4
_actual_w_buf$ = -288					; size = 256
_w$ = -24						; size = 4
_v$ = -12						; size = 4
__$ArrayPad$ = -4					; size = 4
_env$ = 8						; size = 4
_ep$ = 12						; size = 4
_no$ = 16						; size = 4
_u$ = 20						; size = 8
_v_buf$ = 28						; size = 4
_v_buf_size$ = 32					; size = 4
_desired_w_buf$ = 36					; size = 4
_desired_w_buf_size$ = 40				; size = 4
_TEST_PMC_ExclusiveOr_L_X PROC

; 59   : {

	push	ebp
	mov	ebp, esp
	sub	esp, 332				; 0000014cH
	push	esi
	push	edi
	lea	edi, DWORD PTR [ebp-332]
	mov	ecx, 83					; 00000053H
	mov	eax, -858993460				; ccccccccH
	rep stosd
	mov	eax, DWORD PTR ___security_cookie
	xor	eax, ebp
	mov	DWORD PTR __$ArrayPad$[ebp], eax
	mov	ecx, OFFSET __1B39C617_test_op_exclusiveor@c
	call	@__CheckForDebuggerJustMyCode@4

; 60   :     HANDLE v;
; 61   :     HANDLE w;
; 62   :     unsigned char actual_w_buf[256];
; 63   :     size_t actual_w_buf_size;
; 64   :     PMC_STATUS_CODE result;
; 65   :     PMC_STATUS_CODE v_result;
; 66   :     PMC_STATUS_CODE w_result;
; 67   :     TEST_Assert(env, FormatTestLabel(L"PMC_ExclusiveOr_L_X (%d.%d)", no, 1), (v_result = ep->PMC_FromByteArray(v_buf, v_buf_size, &v)) == PMC_STATUS_OK, FormatTestMesssage(L"PMC_FromByteArrayの復帰コードが期待通りではない(%d)", v_result));

	mov	esi, esp
	lea	eax, DWORD PTR _v$[ebp]
	push	eax
	mov	ecx, DWORD PTR _v_buf_size$[ebp]
	push	ecx
	mov	edx, DWORD PTR _v_buf$[ebp]
	push	edx
	mov	eax, DWORD PTR _ep$[ebp]
	mov	ecx, DWORD PTR [eax+24]
	call	ecx
	cmp	esi, esp
	call	__RTC_CheckEsp
	mov	DWORD PTR _v_result$[ebp], eax
	cmp	DWORD PTR _v_result$[ebp], 0
	jne	SHORT $LN5@TEST_PMC_E
	mov	DWORD PTR tv74[ebp], 1
	jmp	SHORT $LN6@TEST_PMC_E
$LN5@TEST_PMC_E:
	mov	DWORD PTR tv74[ebp], 0
$LN6@TEST_PMC_E:
	mov	edx, DWORD PTR _v_result$[ebp]
	push	edx
	push	OFFSET $SG94584
	call	_FormatTestMesssage
	add	esp, 8
	push	eax
	mov	eax, DWORD PTR tv74[ebp]
	push	eax
	push	1
	mov	ecx, DWORD PTR _no$[ebp]
	push	ecx
	push	OFFSET $SG94585
	call	_FormatTestLabel
	add	esp, 12					; 0000000cH
	push	eax
	mov	edx, DWORD PTR _env$[ebp]
	push	edx
	call	_TEST_Assert
	add	esp, 16					; 00000010H

; 68   :     TEST_Assert(env, FormatTestLabel(L"PMC_ExclusiveOr_L_X (%d.%d)", no, 2), (w_result = ep->PMC_ExclusiveOr_L_X(u, v, &w)) == PMC_STATUS_OK, FormatTestMesssage(L"PMC_ExclusiveOr_L_Xの復帰コードが期待通りではない(%d)", w_result));

	mov	esi, esp
	lea	eax, DWORD PTR _w$[ebp]
	push	eax
	mov	ecx, DWORD PTR _v$[ebp]
	push	ecx
	mov	edx, DWORD PTR _u$[ebp+4]
	push	edx
	mov	eax, DWORD PTR _u$[ebp]
	push	eax
	mov	ecx, DWORD PTR _ep$[ebp]
	mov	edx, DWORD PTR [ecx+192]
	call	edx
	cmp	esi, esp
	call	__RTC_CheckEsp
	mov	DWORD PTR _w_result$[ebp], eax
	cmp	DWORD PTR _w_result$[ebp], 0
	jne	SHORT $LN7@TEST_PMC_E
	mov	DWORD PTR tv92[ebp], 1
	jmp	SHORT $LN8@TEST_PMC_E
$LN7@TEST_PMC_E:
	mov	DWORD PTR tv92[ebp], 0
$LN8@TEST_PMC_E:
	mov	eax, DWORD PTR _w_result$[ebp]
	push	eax
	push	OFFSET $SG94586
	call	_FormatTestMesssage
	add	esp, 8
	push	eax
	mov	ecx, DWORD PTR tv92[ebp]
	push	ecx
	push	2
	mov	edx, DWORD PTR _no$[ebp]
	push	edx
	push	OFFSET $SG94587
	call	_FormatTestLabel
	add	esp, 12					; 0000000cH
	push	eax
	mov	eax, DWORD PTR _env$[ebp]
	push	eax
	call	_TEST_Assert
	add	esp, 16					; 00000010H

; 69   :     TEST_Assert(env, FormatTestLabel(L"PMC_ExclusiveOr_L_X (%d.%d)", no, 3), (result = ep->PMC_ToByteArray(w, actual_w_buf, sizeof(actual_w_buf), &actual_w_buf_size)) == PMC_STATUS_OK, FormatTestMesssage(L"PMC_ToByteArrayの復帰コードが期待通りではない(%d)", result));

	mov	esi, esp
	lea	ecx, DWORD PTR _actual_w_buf_size$[ebp]
	push	ecx
	push	256					; 00000100H
	lea	edx, DWORD PTR _actual_w_buf$[ebp]
	push	edx
	mov	eax, DWORD PTR _w$[ebp]
	push	eax
	mov	ecx, DWORD PTR _ep$[ebp]
	mov	edx, DWORD PTR [ecx+28]
	call	edx
	cmp	esi, esp
	call	__RTC_CheckEsp
	mov	DWORD PTR _result$[ebp], eax
	cmp	DWORD PTR _result$[ebp], 0
	jne	SHORT $LN9@TEST_PMC_E
	mov	DWORD PTR tv143[ebp], 1
	jmp	SHORT $LN10@TEST_PMC_E
$LN9@TEST_PMC_E:
	mov	DWORD PTR tv143[ebp], 0
$LN10@TEST_PMC_E:
	mov	eax, DWORD PTR _result$[ebp]
	push	eax
	push	OFFSET $SG94588
	call	_FormatTestMesssage
	add	esp, 8
	push	eax
	mov	ecx, DWORD PTR tv143[ebp]
	push	ecx
	push	3
	mov	edx, DWORD PTR _no$[ebp]
	push	edx
	push	OFFSET $SG94589
	call	_FormatTestLabel
	add	esp, 12					; 0000000cH
	push	eax
	mov	eax, DWORD PTR _env$[ebp]
	push	eax
	call	_TEST_Assert
	add	esp, 16					; 00000010H

; 70   :     TEST_Assert(env, FormatTestLabel(L"PMC_ExclusiveOr_L_X (%d.%d)", no, 4), _EQUALS_MEMORY(actual_w_buf, actual_w_buf_size, desired_w_buf, desired_w_buf_size) == 0, L"データの内容が一致しない");

	mov	ecx, DWORD PTR _desired_w_buf_size$[ebp]
	push	ecx
	mov	edx, DWORD PTR _desired_w_buf$[ebp]
	push	edx
	mov	eax, DWORD PTR _actual_w_buf_size$[ebp]
	push	eax
	lea	ecx, DWORD PTR _actual_w_buf$[ebp]
	push	ecx
	call	__EQUALS_MEMORY
	add	esp, 16					; 00000010H
	test	eax, eax
	jne	SHORT $LN11@TEST_PMC_E
	mov	DWORD PTR tv158[ebp], 1
	jmp	SHORT $LN12@TEST_PMC_E
$LN11@TEST_PMC_E:
	mov	DWORD PTR tv158[ebp], 0
$LN12@TEST_PMC_E:
	push	OFFSET $SG94590
	mov	edx, DWORD PTR tv158[ebp]
	push	edx
	push	4
	mov	eax, DWORD PTR _no$[ebp]
	push	eax
	push	OFFSET $SG94591
	call	_FormatTestLabel
	add	esp, 12					; 0000000cH
	push	eax
	mov	ecx, DWORD PTR _env$[ebp]
	push	ecx
	call	_TEST_Assert
	add	esp, 16					; 00000010H

; 71   :     if (w_result == PMC_STATUS_OK)

	cmp	DWORD PTR _w_result$[ebp], 0
	jne	SHORT $LN2@TEST_PMC_E

; 72   :         ep->PMC_Dispose(w);

	mov	esi, esp
	mov	edx, DWORD PTR _w$[ebp]
	push	edx
	mov	eax, DWORD PTR _ep$[ebp]
	mov	ecx, DWORD PTR [eax+16]
	call	ecx
	cmp	esi, esp
	call	__RTC_CheckEsp
$LN2@TEST_PMC_E:

; 73   :     if (v_result == PMC_STATUS_OK)

	cmp	DWORD PTR _v_result$[ebp], 0
	jne	SHORT $LN1@TEST_PMC_E

; 74   :         ep->PMC_Dispose(v);

	mov	esi, esp
	mov	edx, DWORD PTR _v$[ebp]
	push	edx
	mov	eax, DWORD PTR _ep$[ebp]
	mov	ecx, DWORD PTR [eax+16]
	call	ecx
	cmp	esi, esp
	call	__RTC_CheckEsp
$LN1@TEST_PMC_E:

; 75   : }

	push	edx
	mov	ecx, ebp
	push	eax
	lea	edx, DWORD PTR $LN18@TEST_PMC_E
	call	@_RTC_CheckStackVars@8
	pop	eax
	pop	edx
	pop	edi
	pop	esi
	mov	ecx, DWORD PTR __$ArrayPad$[ebp]
	xor	ecx, ebp
	call	@__security_check_cookie@4
	add	esp, 332				; 0000014cH
	cmp	ebp, esp
	call	__RTC_CheckEsp
	mov	esp, ebp
	pop	ebp
	ret	0
	npad	1
$LN18@TEST_PMC_E:
	DD	4
	DD	$LN17@TEST_PMC_E
$LN17@TEST_PMC_E:
	DD	-12					; fffffff4H
	DD	4
	DD	$LN13@TEST_PMC_E
	DD	-24					; ffffffe8H
	DD	4
	DD	$LN14@TEST_PMC_E
	DD	-288					; fffffee0H
	DD	256					; 00000100H
	DD	$LN15@TEST_PMC_E
	DD	-300					; fffffed4H
	DD	4
	DD	$LN16@TEST_PMC_E
$LN16@TEST_PMC_E:
	DB	97					; 00000061H
	DB	99					; 00000063H
	DB	116					; 00000074H
	DB	117					; 00000075H
	DB	97					; 00000061H
	DB	108					; 0000006cH
	DB	95					; 0000005fH
	DB	119					; 00000077H
	DB	95					; 0000005fH
	DB	98					; 00000062H
	DB	117					; 00000075H
	DB	102					; 00000066H
	DB	95					; 0000005fH
	DB	115					; 00000073H
	DB	105					; 00000069H
	DB	122					; 0000007aH
	DB	101					; 00000065H
	DB	0
$LN15@TEST_PMC_E:
	DB	97					; 00000061H
	DB	99					; 00000063H
	DB	116					; 00000074H
	DB	117					; 00000075H
	DB	97					; 00000061H
	DB	108					; 0000006cH
	DB	95					; 0000005fH
	DB	119					; 00000077H
	DB	95					; 0000005fH
	DB	98					; 00000062H
	DB	117					; 00000075H
	DB	102					; 00000066H
	DB	0
$LN14@TEST_PMC_E:
	DB	119					; 00000077H
	DB	0
$LN13@TEST_PMC_E:
	DB	118					; 00000076H
	DB	0
_TEST_PMC_ExclusiveOr_L_X ENDP
_TEXT	ENDS
; Function compile flags: /Odtp /RTCsu
; File z:\sources\lunor\repos\rougemeilland\palmtree.math.core.uint\palmtree.math.core.uint\test_op_exclusiveor.c
_TEXT	SEGMENT
tv158 = -332						; size = 4
tv143 = -328						; size = 4
tv92 = -324						; size = 4
tv74 = -320						; size = 4
_w_result$ = -316					; size = 4
_v_result$ = -312					; size = 4
_result$ = -308						; size = 4
_actual_w_buf_size$ = -300				; size = 4
_actual_w_buf$ = -288					; size = 256
_w$ = -24						; size = 4
_v$ = -12						; size = 4
__$ArrayPad$ = -4					; size = 4
_env$ = 8						; size = 4
_ep$ = 12						; size = 4
_no$ = 16						; size = 4
_u$ = 20						; size = 4
_v_buf$ = 24						; size = 4
_v_buf_size$ = 28					; size = 4
_desired_w_buf$ = 32					; size = 4
_desired_w_buf_size$ = 36				; size = 4
_TEST_PMC_ExclusiveOr_I_X PROC

; 40   : {

	push	ebp
	mov	ebp, esp
	sub	esp, 332				; 0000014cH
	push	esi
	push	edi
	lea	edi, DWORD PTR [ebp-332]
	mov	ecx, 83					; 00000053H
	mov	eax, -858993460				; ccccccccH
	rep stosd
	mov	eax, DWORD PTR ___security_cookie
	xor	eax, ebp
	mov	DWORD PTR __$ArrayPad$[ebp], eax
	mov	ecx, OFFSET __1B39C617_test_op_exclusiveor@c
	call	@__CheckForDebuggerJustMyCode@4

; 41   :     HANDLE v;
; 42   :     HANDLE w;
; 43   :     unsigned char actual_w_buf[256];
; 44   :     size_t actual_w_buf_size;
; 45   :     PMC_STATUS_CODE result;
; 46   :     PMC_STATUS_CODE v_result;
; 47   :     PMC_STATUS_CODE w_result;
; 48   :     TEST_Assert(env, FormatTestLabel(L"PMC_ExclusiveOr_I_X (%d.%d)", no, 1), (v_result = ep->PMC_FromByteArray(v_buf, v_buf_size, &v)) == PMC_STATUS_OK, FormatTestMesssage(L"PMC_FromByteArrayの復帰コードが期待通りではない(%d)", v_result));

	mov	esi, esp
	lea	eax, DWORD PTR _v$[ebp]
	push	eax
	mov	ecx, DWORD PTR _v_buf_size$[ebp]
	push	ecx
	mov	edx, DWORD PTR _v_buf$[ebp]
	push	edx
	mov	eax, DWORD PTR _ep$[ebp]
	mov	ecx, DWORD PTR [eax+24]
	call	ecx
	cmp	esi, esp
	call	__RTC_CheckEsp
	mov	DWORD PTR _v_result$[ebp], eax
	cmp	DWORD PTR _v_result$[ebp], 0
	jne	SHORT $LN5@TEST_PMC_E
	mov	DWORD PTR tv74[ebp], 1
	jmp	SHORT $LN6@TEST_PMC_E
$LN5@TEST_PMC_E:
	mov	DWORD PTR tv74[ebp], 0
$LN6@TEST_PMC_E:
	mov	edx, DWORD PTR _v_result$[ebp]
	push	edx
	push	OFFSET $SG94550
	call	_FormatTestMesssage
	add	esp, 8
	push	eax
	mov	eax, DWORD PTR tv74[ebp]
	push	eax
	push	1
	mov	ecx, DWORD PTR _no$[ebp]
	push	ecx
	push	OFFSET $SG94551
	call	_FormatTestLabel
	add	esp, 12					; 0000000cH
	push	eax
	mov	edx, DWORD PTR _env$[ebp]
	push	edx
	call	_TEST_Assert
	add	esp, 16					; 00000010H

; 49   :     TEST_Assert(env, FormatTestLabel(L"PMC_ExclusiveOr_I_X (%d.%d)", no, 2), (w_result = ep->PMC_ExclusiveOr_I_X(u, v, &w)) == PMC_STATUS_OK, FormatTestMesssage(L"PMC_ExclusiveOr_I_Xの復帰コードが期待通りではない(%d)", w_result));

	mov	esi, esp
	lea	eax, DWORD PTR _w$[ebp]
	push	eax
	mov	ecx, DWORD PTR _v$[ebp]
	push	ecx
	mov	edx, DWORD PTR _u$[ebp]
	push	edx
	mov	eax, DWORD PTR _ep$[ebp]
	mov	ecx, DWORD PTR [eax+188]
	call	ecx
	cmp	esi, esp
	call	__RTC_CheckEsp
	mov	DWORD PTR _w_result$[ebp], eax
	cmp	DWORD PTR _w_result$[ebp], 0
	jne	SHORT $LN7@TEST_PMC_E
	mov	DWORD PTR tv92[ebp], 1
	jmp	SHORT $LN8@TEST_PMC_E
$LN7@TEST_PMC_E:
	mov	DWORD PTR tv92[ebp], 0
$LN8@TEST_PMC_E:
	mov	edx, DWORD PTR _w_result$[ebp]
	push	edx
	push	OFFSET $SG94552
	call	_FormatTestMesssage
	add	esp, 8
	push	eax
	mov	eax, DWORD PTR tv92[ebp]
	push	eax
	push	2
	mov	ecx, DWORD PTR _no$[ebp]
	push	ecx
	push	OFFSET $SG94553
	call	_FormatTestLabel
	add	esp, 12					; 0000000cH
	push	eax
	mov	edx, DWORD PTR _env$[ebp]
	push	edx
	call	_TEST_Assert
	add	esp, 16					; 00000010H

; 50   :     TEST_Assert(env, FormatTestLabel(L"PMC_ExclusiveOr_I_X (%d.%d)", no, 3), (result = ep->PMC_ToByteArray(w, actual_w_buf, sizeof(actual_w_buf), &actual_w_buf_size)) == PMC_STATUS_OK, FormatTestMesssage(L"PMC_ToByteArrayの復帰コードが期待通りではない(%d)", result));

	mov	esi, esp
	lea	eax, DWORD PTR _actual_w_buf_size$[ebp]
	push	eax
	push	256					; 00000100H
	lea	ecx, DWORD PTR _actual_w_buf$[ebp]
	push	ecx
	mov	edx, DWORD PTR _w$[ebp]
	push	edx
	mov	eax, DWORD PTR _ep$[ebp]
	mov	ecx, DWORD PTR [eax+28]
	call	ecx
	cmp	esi, esp
	call	__RTC_CheckEsp
	mov	DWORD PTR _result$[ebp], eax
	cmp	DWORD PTR _result$[ebp], 0
	jne	SHORT $LN9@TEST_PMC_E
	mov	DWORD PTR tv143[ebp], 1
	jmp	SHORT $LN10@TEST_PMC_E
$LN9@TEST_PMC_E:
	mov	DWORD PTR tv143[ebp], 0
$LN10@TEST_PMC_E:
	mov	edx, DWORD PTR _result$[ebp]
	push	edx
	push	OFFSET $SG94554
	call	_FormatTestMesssage
	add	esp, 8
	push	eax
	mov	eax, DWORD PTR tv143[ebp]
	push	eax
	push	3
	mov	ecx, DWORD PTR _no$[ebp]
	push	ecx
	push	OFFSET $SG94555
	call	_FormatTestLabel
	add	esp, 12					; 0000000cH
	push	eax
	mov	edx, DWORD PTR _env$[ebp]
	push	edx
	call	_TEST_Assert
	add	esp, 16					; 00000010H

; 51   :     TEST_Assert(env, FormatTestLabel(L"PMC_ExclusiveOr_I_X (%d.%d)", no, 4), _EQUALS_MEMORY(actual_w_buf, actual_w_buf_size, desired_w_buf, desired_w_buf_size) == 0, L"データの内容が一致しない");

	mov	eax, DWORD PTR _desired_w_buf_size$[ebp]
	push	eax
	mov	ecx, DWORD PTR _desired_w_buf$[ebp]
	push	ecx
	mov	edx, DWORD PTR _actual_w_buf_size$[ebp]
	push	edx
	lea	eax, DWORD PTR _actual_w_buf$[ebp]
	push	eax
	call	__EQUALS_MEMORY
	add	esp, 16					; 00000010H
	test	eax, eax
	jne	SHORT $LN11@TEST_PMC_E
	mov	DWORD PTR tv158[ebp], 1
	jmp	SHORT $LN12@TEST_PMC_E
$LN11@TEST_PMC_E:
	mov	DWORD PTR tv158[ebp], 0
$LN12@TEST_PMC_E:
	push	OFFSET $SG94556
	mov	ecx, DWORD PTR tv158[ebp]
	push	ecx
	push	4
	mov	edx, DWORD PTR _no$[ebp]
	push	edx
	push	OFFSET $SG94557
	call	_FormatTestLabel
	add	esp, 12					; 0000000cH
	push	eax
	mov	eax, DWORD PTR _env$[ebp]
	push	eax
	call	_TEST_Assert
	add	esp, 16					; 00000010H

; 52   :     if (w_result == PMC_STATUS_OK)

	cmp	DWORD PTR _w_result$[ebp], 0
	jne	SHORT $LN2@TEST_PMC_E

; 53   :         ep->PMC_Dispose(w);

	mov	esi, esp
	mov	ecx, DWORD PTR _w$[ebp]
	push	ecx
	mov	edx, DWORD PTR _ep$[ebp]
	mov	eax, DWORD PTR [edx+16]
	call	eax
	cmp	esi, esp
	call	__RTC_CheckEsp
$LN2@TEST_PMC_E:

; 54   :     if (v_result == PMC_STATUS_OK)

	cmp	DWORD PTR _v_result$[ebp], 0
	jne	SHORT $LN1@TEST_PMC_E

; 55   :         ep->PMC_Dispose(v);

	mov	esi, esp
	mov	ecx, DWORD PTR _v$[ebp]
	push	ecx
	mov	edx, DWORD PTR _ep$[ebp]
	mov	eax, DWORD PTR [edx+16]
	call	eax
	cmp	esi, esp
	call	__RTC_CheckEsp
$LN1@TEST_PMC_E:

; 56   : }

	push	edx
	mov	ecx, ebp
	push	eax
	lea	edx, DWORD PTR $LN18@TEST_PMC_E
	call	@_RTC_CheckStackVars@8
	pop	eax
	pop	edx
	pop	edi
	pop	esi
	mov	ecx, DWORD PTR __$ArrayPad$[ebp]
	xor	ecx, ebp
	call	@__security_check_cookie@4
	add	esp, 332				; 0000014cH
	cmp	ebp, esp
	call	__RTC_CheckEsp
	mov	esp, ebp
	pop	ebp
	ret	0
	npad	1
$LN18@TEST_PMC_E:
	DD	4
	DD	$LN17@TEST_PMC_E
$LN17@TEST_PMC_E:
	DD	-12					; fffffff4H
	DD	4
	DD	$LN13@TEST_PMC_E
	DD	-24					; ffffffe8H
	DD	4
	DD	$LN14@TEST_PMC_E
	DD	-288					; fffffee0H
	DD	256					; 00000100H
	DD	$LN15@TEST_PMC_E
	DD	-300					; fffffed4H
	DD	4
	DD	$LN16@TEST_PMC_E
$LN16@TEST_PMC_E:
	DB	97					; 00000061H
	DB	99					; 00000063H
	DB	116					; 00000074H
	DB	117					; 00000075H
	DB	97					; 00000061H
	DB	108					; 0000006cH
	DB	95					; 0000005fH
	DB	119					; 00000077H
	DB	95					; 0000005fH
	DB	98					; 00000062H
	DB	117					; 00000075H
	DB	102					; 00000066H
	DB	95					; 0000005fH
	DB	115					; 00000073H
	DB	105					; 00000069H
	DB	122					; 0000007aH
	DB	101					; 00000065H
	DB	0
$LN15@TEST_PMC_E:
	DB	97					; 00000061H
	DB	99					; 00000063H
	DB	116					; 00000074H
	DB	117					; 00000075H
	DB	97					; 00000061H
	DB	108					; 0000006cH
	DB	95					; 0000005fH
	DB	119					; 00000077H
	DB	95					; 0000005fH
	DB	98					; 00000062H
	DB	117					; 00000075H
	DB	102					; 00000066H
	DB	0
$LN14@TEST_PMC_E:
	DB	119					; 00000077H
	DB	0
$LN13@TEST_PMC_E:
	DB	118					; 00000076H
	DB	0
_TEST_PMC_ExclusiveOr_I_X ENDP
_TEXT	ENDS
END
