; Listing generated by Microsoft (R) Optimizing Compiler Version 19.16.27026.1 

	TITLE	Z:\Sources\Lunor\Repos\rougemeilland\Palmtree.Math.Core.Uint\Palmtree.Math.Core.Uint\TEST_op_BitwiseOr.c
	.686P
	.XMM
	include listing.inc
	.model	flat

INCLUDELIB MSVCRTD
INCLUDELIB OLDNAMES

msvcjmc	SEGMENT
__7B7A869E_ctype@h DB 01H
__457DD326_basetsd@h DB 01H
__4384A2D9_corecrt_memcpy_s@h DB 01H
__4E51A221_corecrt_wstring@h DB 01H
__2140C079_string@h DB 01H
__1887E595_winnt@h DB 01H
__9FC7C64B_processthreadsapi@h DB 01H
__FA470AEC_memoryapi@h DB 01H
__F37DAFF1_winerror@h DB 01H
__7A450CCC_winbase@h DB 01H
__B4B40122_winioctl@h DB 01H
__86261D59_stralign@h DB 01H
__630249ED_pmc_uint_debug@h DB 01H
__61ADE7F1_test_op_bitwiseor@c DB 01H
msvcjmc	ENDS
PUBLIC	_TEST_PMC_BitwiseOr_I_X
PUBLIC	_TEST_PMC_BitwiseOr_L_X
PUBLIC	_TEST_PMC_BitwiseOr_X_I
PUBLIC	_TEST_PMC_BitwiseOr_X_L
PUBLIC	_TEST_PMC_BitwiseOr_X_X
PUBLIC	__JustMyCode_Default
EXTRN	_TEST_Assert:PROC
EXTRN	_FormatTestLabel:PROC
EXTRN	_FormatTestMesssage:PROC
EXTRN	@_RTC_CheckStackVars@8:PROC
EXTRN	@__CheckForDebuggerJustMyCode@4:PROC
EXTRN	@__security_check_cookie@4:PROC
EXTRN	__RTC_CheckEsp:PROC
EXTRN	__RTC_InitBase:PROC
EXTRN	__RTC_Shutdown:PROC
EXTRN	___security_cookie:DWORD
;	COMDAT rtc$TMZ
rtc$TMZ	SEGMENT
__RTC_Shutdown.rtc$TMZ DD FLAT:__RTC_Shutdown
rtc$TMZ	ENDS
;	COMDAT rtc$IMZ
rtc$IMZ	SEGMENT
__RTC_InitBase.rtc$IMZ DD FLAT:__RTC_InitBase
rtc$IMZ	ENDS
_DATA	SEGMENT
$SG95025 DB	'P', 00H, 'M', 00H, 'C', 00H, '_', 00H, 'F', 00H, 'r', 00H
	DB	'o', 00H, 'm', 00H, 'B', 00H, 'y', 00H, 't', 00H, 'e', 00H, 'A'
	DB	00H, 'r', 00H, 'r', 00H, 'a', 00H, 'y', 00H, 'n0', 0a9H, '_0^', 0b3H
	DB	'0', 0fcH, '0', 0c9H, '0L0', 01fH, 'g', 085H, '_', 01aH, 090H, 08aH
	DB	'0g0o0j0D0(', 00H, '%', 00H, 'd', 00H, ')', 00H, 00H, 00H
	ORG $+2
$SG95026 DB	'P', 00H, 'M', 00H, 'C', 00H, '_', 00H, 'B', 00H, 'i', 00H
	DB	't', 00H, 'w', 00H, 'i', 00H, 's', 00H, 'e', 00H, 'O', 00H, 'r'
	DB	00H, '_', 00H, 'I', 00H, '_', 00H, 'X', 00H, ' ', 00H, '(', 00H
	DB	'%', 00H, 'd', 00H, '.', 00H, '%', 00H, 'd', 00H, ')', 00H, 00H
	DB	00H
$SG95027 DB	'P', 00H, 'M', 00H, 'C', 00H, '_', 00H, 'B', 00H, 'i', 00H
	DB	't', 00H, 'w', 00H, 'i', 00H, 's', 00H, 'e', 00H, 'O', 00H, 'r'
	DB	00H, '_', 00H, 'I', 00H, '_', 00H, 'X', 00H, 'n0', 0a9H, '_0^', 0b3H
	DB	'0', 0fcH, '0', 0c9H, '0L0', 01fH, 'g', 085H, '_', 01aH, 090H, 08aH
	DB	'0g0o0j0D0(', 00H, '%', 00H, 'd', 00H, ')', 00H, 00H, 00H
	ORG $+2
$SG95028 DB	'P', 00H, 'M', 00H, 'C', 00H, '_', 00H, 'B', 00H, 'i', 00H
	DB	't', 00H, 'w', 00H, 'i', 00H, 's', 00H, 'e', 00H, 'O', 00H, 'r'
	DB	00H, '_', 00H, 'I', 00H, '_', 00H, 'X', 00H, ' ', 00H, '(', 00H
	DB	'%', 00H, 'd', 00H, '.', 00H, '%', 00H, 'd', 00H, ')', 00H, 00H
	DB	00H
$SG95029 DB	'P', 00H, 'M', 00H, 'C', 00H, '_', 00H, 'T', 00H, 'o', 00H
	DB	'B', 00H, 'y', 00H, 't', 00H, 'e', 00H, 'A', 00H, 'r', 00H, 'r'
	DB	00H, 'a', 00H, 'y', 00H, 'n0', 0a9H, '_0^', 0b3H, '0', 0fcH, '0'
	DB	0c9H, '0L0', 01fH, 'g', 085H, '_', 01aH, 090H, 08aH, '0g0o0j0D'
	DB	'0(', 00H, '%', 00H, 'd', 00H, ')', 00H, 00H, 00H
	ORG $+2
$SG95030 DB	'P', 00H, 'M', 00H, 'C', 00H, '_', 00H, 'B', 00H, 'i', 00H
	DB	't', 00H, 'w', 00H, 'i', 00H, 's', 00H, 'e', 00H, 'O', 00H, 'r'
	DB	00H, '_', 00H, 'I', 00H, '_', 00H, 'X', 00H, ' ', 00H, '(', 00H
	DB	'%', 00H, 'd', 00H, '.', 00H, '%', 00H, 'd', 00H, ')', 00H, 00H
	DB	00H
$SG95031 DB	0c7H, '0', 0fcH, '0', 0bfH, '0n0', 085H, 'Q', 0b9H, '[L0', 00H
	DB	'N', 0f4H, 081H, 'W0j0D0', 00H, 00H
	ORG $+2
$SG95032 DB	'P', 00H, 'M', 00H, 'C', 00H, '_', 00H, 'B', 00H, 'i', 00H
	DB	't', 00H, 'w', 00H, 'i', 00H, 's', 00H, 'e', 00H, 'O', 00H, 'r'
	DB	00H, '_', 00H, 'I', 00H, '_', 00H, 'X', 00H, ' ', 00H, '(', 00H
	DB	'%', 00H, 'd', 00H, '.', 00H, '%', 00H, 'd', 00H, ')', 00H, 00H
	DB	00H
	ORG $+4
$SG95059 DB	'P', 00H, 'M', 00H, 'C', 00H, '_', 00H, 'F', 00H, 'r', 00H
	DB	'o', 00H, 'm', 00H, 'B', 00H, 'y', 00H, 't', 00H, 'e', 00H, 'A'
	DB	00H, 'r', 00H, 'r', 00H, 'a', 00H, 'y', 00H, 'n0', 0a9H, '_0^', 0b3H
	DB	'0', 0fcH, '0', 0c9H, '0L0', 01fH, 'g', 085H, '_', 01aH, 090H, 08aH
	DB	'0g0o0j0D0(', 00H, '%', 00H, 'd', 00H, ')', 00H, 00H, 00H
	ORG $+2
$SG95060 DB	'P', 00H, 'M', 00H, 'C', 00H, '_', 00H, 'B', 00H, 'i', 00H
	DB	't', 00H, 'w', 00H, 'i', 00H, 's', 00H, 'e', 00H, 'O', 00H, 'r'
	DB	00H, '_', 00H, 'L', 00H, '_', 00H, 'X', 00H, ' ', 00H, '(', 00H
	DB	'%', 00H, 'd', 00H, '.', 00H, '%', 00H, 'd', 00H, ')', 00H, 00H
	DB	00H
$SG95061 DB	'P', 00H, 'M', 00H, 'C', 00H, '_', 00H, 'B', 00H, 'i', 00H
	DB	't', 00H, 'w', 00H, 'i', 00H, 's', 00H, 'e', 00H, 'O', 00H, 'r'
	DB	00H, '_', 00H, 'L', 00H, '_', 00H, 'X', 00H, 'n0', 0a9H, '_0^', 0b3H
	DB	'0', 0fcH, '0', 0c9H, '0L0', 01fH, 'g', 085H, '_', 01aH, 090H, 08aH
	DB	'0g0o0j0D0(', 00H, '%', 00H, 'd', 00H, ')', 00H, 00H, 00H
	ORG $+2
$SG95062 DB	'P', 00H, 'M', 00H, 'C', 00H, '_', 00H, 'B', 00H, 'i', 00H
	DB	't', 00H, 'w', 00H, 'i', 00H, 's', 00H, 'e', 00H, 'O', 00H, 'r'
	DB	00H, '_', 00H, 'L', 00H, '_', 00H, 'X', 00H, ' ', 00H, '(', 00H
	DB	'%', 00H, 'd', 00H, '.', 00H, '%', 00H, 'd', 00H, ')', 00H, 00H
	DB	00H
$SG95063 DB	'P', 00H, 'M', 00H, 'C', 00H, '_', 00H, 'T', 00H, 'o', 00H
	DB	'B', 00H, 'y', 00H, 't', 00H, 'e', 00H, 'A', 00H, 'r', 00H, 'r'
	DB	00H, 'a', 00H, 'y', 00H, 'n0', 0a9H, '_0^', 0b3H, '0', 0fcH, '0'
	DB	0c9H, '0L0', 01fH, 'g', 085H, '_', 01aH, 090H, 08aH, '0g0o0j0D'
	DB	'0(', 00H, '%', 00H, 'd', 00H, ')', 00H, 00H, 00H
	ORG $+2
$SG95064 DB	'P', 00H, 'M', 00H, 'C', 00H, '_', 00H, 'B', 00H, 'i', 00H
	DB	't', 00H, 'w', 00H, 'i', 00H, 's', 00H, 'e', 00H, 'O', 00H, 'r'
	DB	00H, '_', 00H, 'L', 00H, '_', 00H, 'X', 00H, ' ', 00H, '(', 00H
	DB	'%', 00H, 'd', 00H, '.', 00H, '%', 00H, 'd', 00H, ')', 00H, 00H
	DB	00H
$SG95065 DB	0c7H, '0', 0fcH, '0', 0bfH, '0n0', 085H, 'Q', 0b9H, '[L0', 00H
	DB	'N', 0f4H, 081H, 'W0j0D0', 00H, 00H
	ORG $+2
$SG95066 DB	'P', 00H, 'M', 00H, 'C', 00H, '_', 00H, 'B', 00H, 'i', 00H
	DB	't', 00H, 'w', 00H, 'i', 00H, 's', 00H, 'e', 00H, 'O', 00H, 'r'
	DB	00H, '_', 00H, 'L', 00H, '_', 00H, 'X', 00H, ' ', 00H, '(', 00H
	DB	'%', 00H, 'd', 00H, '.', 00H, '%', 00H, 'd', 00H, ')', 00H, 00H
	DB	00H
	ORG $+4
$SG95093 DB	'P', 00H, 'M', 00H, 'C', 00H, '_', 00H, 'F', 00H, 'r', 00H
	DB	'o', 00H, 'm', 00H, 'B', 00H, 'y', 00H, 't', 00H, 'e', 00H, 'A'
	DB	00H, 'r', 00H, 'r', 00H, 'a', 00H, 'y', 00H, 'n0', 0a9H, '_0^', 0b3H
	DB	'0', 0fcH, '0', 0c9H, '0L0', 01fH, 'g', 085H, '_', 01aH, 090H, 08aH
	DB	'0g0o0j0D0(', 00H, '%', 00H, 'd', 00H, ')', 00H, 00H, 00H
	ORG $+2
$SG95094 DB	'P', 00H, 'M', 00H, 'C', 00H, '_', 00H, 'B', 00H, 'i', 00H
	DB	't', 00H, 'w', 00H, 'i', 00H, 's', 00H, 'e', 00H, 'O', 00H, 'r'
	DB	00H, '_', 00H, 'X', 00H, '_', 00H, 'I', 00H, ' ', 00H, '(', 00H
	DB	'%', 00H, 'd', 00H, '.', 00H, '%', 00H, 'd', 00H, ')', 00H, 00H
	DB	00H
$SG95095 DB	'P', 00H, 'M', 00H, 'C', 00H, '_', 00H, 'B', 00H, 'i', 00H
	DB	't', 00H, 'w', 00H, 'i', 00H, 's', 00H, 'e', 00H, 'O', 00H, 'r'
	DB	00H, '_', 00H, 'X', 00H, '_', 00H, 'I', 00H, 'n0', 0a9H, '_0^', 0b3H
	DB	'0', 0fcH, '0', 0c9H, '0L0', 01fH, 'g', 085H, '_', 01aH, 090H, 08aH
	DB	'0g0o0j0D0(', 00H, '%', 00H, 'd', 00H, ')', 00H, 00H, 00H
	ORG $+2
$SG95096 DB	'P', 00H, 'M', 00H, 'C', 00H, '_', 00H, 'B', 00H, 'i', 00H
	DB	't', 00H, 'w', 00H, 'i', 00H, 's', 00H, 'e', 00H, 'O', 00H, 'r'
	DB	00H, '_', 00H, 'X', 00H, '_', 00H, 'I', 00H, ' ', 00H, '(', 00H
	DB	'%', 00H, 'd', 00H, '.', 00H, '%', 00H, 'd', 00H, ')', 00H, 00H
	DB	00H
$SG95097 DB	'P', 00H, 'M', 00H, 'C', 00H, '_', 00H, 'T', 00H, 'o', 00H
	DB	'B', 00H, 'y', 00H, 't', 00H, 'e', 00H, 'A', 00H, 'r', 00H, 'r'
	DB	00H, 'a', 00H, 'y', 00H, 'n0', 0a9H, '_0^', 0b3H, '0', 0fcH, '0'
	DB	0c9H, '0L0', 01fH, 'g', 085H, '_', 01aH, 090H, 08aH, '0g0o0j0D'
	DB	'0(', 00H, '%', 00H, 'd', 00H, ')', 00H, 00H, 00H
	ORG $+2
$SG95098 DB	'P', 00H, 'M', 00H, 'C', 00H, '_', 00H, 'B', 00H, 'i', 00H
	DB	't', 00H, 'w', 00H, 'i', 00H, 's', 00H, 'e', 00H, 'O', 00H, 'r'
	DB	00H, '_', 00H, 'X', 00H, '_', 00H, 'X', 00H, ' ', 00H, '(', 00H
	DB	'%', 00H, 'd', 00H, '.', 00H, '%', 00H, 'd', 00H, ')', 00H, 00H
	DB	00H
$SG95099 DB	0c7H, '0', 0fcH, '0', 0bfH, '0n0', 085H, 'Q', 0b9H, '[L0', 00H
	DB	'N', 0f4H, 081H, 'W0j0D0', 00H, 00H
	ORG $+2
$SG95100 DB	'P', 00H, 'M', 00H, 'C', 00H, '_', 00H, 'B', 00H, 'i', 00H
	DB	't', 00H, 'w', 00H, 'i', 00H, 's', 00H, 'e', 00H, 'O', 00H, 'r'
	DB	00H, '_', 00H, 'X', 00H, '_', 00H, 'X', 00H, ' ', 00H, '(', 00H
	DB	'%', 00H, 'd', 00H, '.', 00H, '%', 00H, 'd', 00H, ')', 00H, 00H
	DB	00H
	ORG $+4
$SG95127 DB	'P', 00H, 'M', 00H, 'C', 00H, '_', 00H, 'F', 00H, 'r', 00H
	DB	'o', 00H, 'm', 00H, 'B', 00H, 'y', 00H, 't', 00H, 'e', 00H, 'A'
	DB	00H, 'r', 00H, 'r', 00H, 'a', 00H, 'y', 00H, 'n0', 0a9H, '_0^', 0b3H
	DB	'0', 0fcH, '0', 0c9H, '0L0', 01fH, 'g', 085H, '_', 01aH, 090H, 08aH
	DB	'0g0o0j0D0(', 00H, '%', 00H, 'd', 00H, ')', 00H, 00H, 00H
	ORG $+2
$SG95128 DB	'P', 00H, 'M', 00H, 'C', 00H, '_', 00H, 'B', 00H, 'i', 00H
	DB	't', 00H, 'w', 00H, 'i', 00H, 's', 00H, 'e', 00H, 'O', 00H, 'r'
	DB	00H, '_', 00H, 'X', 00H, '_', 00H, 'L', 00H, ' ', 00H, '(', 00H
	DB	'%', 00H, 'd', 00H, '.', 00H, '%', 00H, 'd', 00H, ')', 00H, 00H
	DB	00H
$SG95129 DB	'P', 00H, 'M', 00H, 'C', 00H, '_', 00H, 'B', 00H, 'i', 00H
	DB	't', 00H, 'w', 00H, 'i', 00H, 's', 00H, 'e', 00H, 'O', 00H, 'r'
	DB	00H, '_', 00H, 'X', 00H, '_', 00H, 'L', 00H, 'n0', 0a9H, '_0^', 0b3H
	DB	'0', 0fcH, '0', 0c9H, '0L0', 01fH, 'g', 085H, '_', 01aH, 090H, 08aH
	DB	'0g0o0j0D0(', 00H, '%', 00H, 'd', 00H, ')', 00H, 00H, 00H
	ORG $+2
$SG95130 DB	'P', 00H, 'M', 00H, 'C', 00H, '_', 00H, 'B', 00H, 'i', 00H
	DB	't', 00H, 'w', 00H, 'i', 00H, 's', 00H, 'e', 00H, 'O', 00H, 'r'
	DB	00H, '_', 00H, 'X', 00H, '_', 00H, 'L', 00H, ' ', 00H, '(', 00H
	DB	'%', 00H, 'd', 00H, '.', 00H, '%', 00H, 'd', 00H, ')', 00H, 00H
	DB	00H
$SG95131 DB	'P', 00H, 'M', 00H, 'C', 00H, '_', 00H, 'T', 00H, 'o', 00H
	DB	'B', 00H, 'y', 00H, 't', 00H, 'e', 00H, 'A', 00H, 'r', 00H, 'r'
	DB	00H, 'a', 00H, 'y', 00H, 'n0', 0a9H, '_0^', 0b3H, '0', 0fcH, '0'
	DB	0c9H, '0L0', 01fH, 'g', 085H, '_', 01aH, 090H, 08aH, '0g0o0j0D'
	DB	'0(', 00H, '%', 00H, 'd', 00H, ')', 00H, 00H, 00H
	ORG $+2
$SG95132 DB	'P', 00H, 'M', 00H, 'C', 00H, '_', 00H, 'B', 00H, 'i', 00H
	DB	't', 00H, 'w', 00H, 'i', 00H, 's', 00H, 'e', 00H, 'O', 00H, 'r'
	DB	00H, '_', 00H, 'X', 00H, '_', 00H, 'X', 00H, ' ', 00H, '(', 00H
	DB	'%', 00H, 'd', 00H, '.', 00H, '%', 00H, 'd', 00H, ')', 00H, 00H
	DB	00H
$SG95133 DB	0c7H, '0', 0fcH, '0', 0bfH, '0n0', 085H, 'Q', 0b9H, '[L0', 00H
	DB	'N', 0f4H, 081H, 'W0j0D0', 00H, 00H
	ORG $+2
$SG95134 DB	'P', 00H, 'M', 00H, 'C', 00H, '_', 00H, 'B', 00H, 'i', 00H
	DB	't', 00H, 'w', 00H, 'i', 00H, 's', 00H, 'e', 00H, 'O', 00H, 'r'
	DB	00H, '_', 00H, 'X', 00H, '_', 00H, 'X', 00H, ' ', 00H, '(', 00H
	DB	'%', 00H, 'd', 00H, '.', 00H, '%', 00H, 'd', 00H, ')', 00H, 00H
	DB	00H
	ORG $+4
$SG95165 DB	'P', 00H, 'M', 00H, 'C', 00H, '_', 00H, 'F', 00H, 'r', 00H
	DB	'o', 00H, 'm', 00H, 'B', 00H, 'y', 00H, 't', 00H, 'e', 00H, 'A'
	DB	00H, 'r', 00H, 'r', 00H, 'a', 00H, 'y', 00H, 'n0', 0a9H, '_0^', 0b3H
	DB	'0', 0fcH, '0', 0c9H, '0L0', 01fH, 'g', 085H, '_', 01aH, 090H, 08aH
	DB	'0g0o0j0D0(', 00H, '%', 00H, 'd', 00H, ')', 00H, 00H, 00H
	ORG $+2
$SG95166 DB	'P', 00H, 'M', 00H, 'C', 00H, '_', 00H, 'B', 00H, 'i', 00H
	DB	't', 00H, 'w', 00H, 'i', 00H, 's', 00H, 'e', 00H, 'O', 00H, 'r'
	DB	00H, '_', 00H, 'X', 00H, '_', 00H, 'X', 00H, ' ', 00H, '(', 00H
	DB	'%', 00H, 'd', 00H, '.', 00H, '%', 00H, 'd', 00H, ')', 00H, 00H
	DB	00H
$SG95167 DB	'P', 00H, 'M', 00H, 'C', 00H, '_', 00H, 'F', 00H, 'r', 00H
	DB	'o', 00H, 'm', 00H, 'B', 00H, 'y', 00H, 't', 00H, 'e', 00H, 'A'
	DB	00H, 'r', 00H, 'r', 00H, 'a', 00H, 'y', 00H, 'n0', 0a9H, '_0^', 0b3H
	DB	'0', 0fcH, '0', 0c9H, '0L0', 01fH, 'g', 085H, '_', 01aH, 090H, 08aH
	DB	'0g0o0j0D0(', 00H, '%', 00H, 'd', 00H, ')', 00H, 00H, 00H
	ORG $+2
$SG95168 DB	'P', 00H, 'M', 00H, 'C', 00H, '_', 00H, 'B', 00H, 'i', 00H
	DB	't', 00H, 'w', 00H, 'i', 00H, 's', 00H, 'e', 00H, 'O', 00H, 'r'
	DB	00H, '_', 00H, 'X', 00H, '_', 00H, 'X', 00H, ' ', 00H, '(', 00H
	DB	'%', 00H, 'd', 00H, '.', 00H, '%', 00H, 'd', 00H, ')', 00H, 00H
	DB	00H
$SG95169 DB	'P', 00H, 'M', 00H, 'C', 00H, '_', 00H, 'B', 00H, 'i', 00H
	DB	't', 00H, 'w', 00H, 'i', 00H, 's', 00H, 'e', 00H, 'O', 00H, 'r'
	DB	00H, '_', 00H, 'X', 00H, '_', 00H, 'X', 00H, 'n0', 0a9H, '_0^', 0b3H
	DB	'0', 0fcH, '0', 0c9H, '0L0', 01fH, 'g', 085H, '_', 01aH, 090H, 08aH
	DB	'0g0o0j0D0(', 00H, '%', 00H, 'd', 00H, ')', 00H, 00H, 00H
	ORG $+2
$SG95170 DB	'P', 00H, 'M', 00H, 'C', 00H, '_', 00H, 'B', 00H, 'i', 00H
	DB	't', 00H, 'w', 00H, 'i', 00H, 's', 00H, 'e', 00H, 'O', 00H, 'r'
	DB	00H, '_', 00H, 'X', 00H, '_', 00H, 'X', 00H, ' ', 00H, '(', 00H
	DB	'%', 00H, 'd', 00H, '.', 00H, '%', 00H, 'd', 00H, ')', 00H, 00H
	DB	00H
$SG95171 DB	'P', 00H, 'M', 00H, 'C', 00H, '_', 00H, 'T', 00H, 'o', 00H
	DB	'B', 00H, 'y', 00H, 't', 00H, 'e', 00H, 'A', 00H, 'r', 00H, 'r'
	DB	00H, 'a', 00H, 'y', 00H, 'n0', 0a9H, '_0^', 0b3H, '0', 0fcH, '0'
	DB	0c9H, '0L0', 01fH, 'g', 085H, '_', 01aH, 090H, 08aH, '0g0o0j0D'
	DB	'0(', 00H, '%', 00H, 'd', 00H, ')', 00H, 00H, 00H
	ORG $+2
$SG95172 DB	'P', 00H, 'M', 00H, 'C', 00H, '_', 00H, 'B', 00H, 'i', 00H
	DB	't', 00H, 'w', 00H, 'i', 00H, 's', 00H, 'e', 00H, 'O', 00H, 'r'
	DB	00H, '_', 00H, 'X', 00H, '_', 00H, 'X', 00H, ' ', 00H, '(', 00H
	DB	'%', 00H, 'd', 00H, '.', 00H, '%', 00H, 'd', 00H, ')', 00H, 00H
	DB	00H
$SG95173 DB	0c7H, '0', 0fcH, '0', 0bfH, '0n0', 085H, 'Q', 0b9H, '[L0', 00H
	DB	'N', 0f4H, 081H, 'W0j0D0', 00H, 00H
	ORG $+2
$SG95174 DB	'P', 00H, 'M', 00H, 'C', 00H, '_', 00H, 'B', 00H, 'i', 00H
	DB	't', 00H, 'w', 00H, 'i', 00H, 's', 00H, 'e', 00H, 'O', 00H, 'r'
	DB	00H, '_', 00H, 'X', 00H, '_', 00H, 'X', 00H, ' ', 00H, '(', 00H
	DB	'%', 00H, 'd', 00H, '.', 00H, '%', 00H, 'd', 00H, ')', 00H, 00H
	DB	00H
_DATA	ENDS
; Function compile flags: /Odt
;	COMDAT __JustMyCode_Default
_TEXT	SEGMENT
__JustMyCode_Default PROC				; COMDAT
	push	ebp
	mov	ebp, esp
	pop	ebp
	ret	0
__JustMyCode_Default ENDP
_TEXT	ENDS
; Function compile flags: /Odtp /RTCsu
; File z:\sources\lunor\repos\rougemeilland\palmtree.math.core.uint\palmtree.math.core.uint\pmc_uint_debug.h
_TEXT	SEGMENT
_buffer1$ = 8						; size = 4
_count1$ = 12						; size = 4
_buffer2$ = 16						; size = 4
_count2$ = 20						; size = 4
__EQUALS_MEMORY PROC

; 149  : {

	push	ebp
	mov	ebp, esp
	mov	ecx, OFFSET __630249ED_pmc_uint_debug@h
	call	@__CheckForDebuggerJustMyCode@4

; 150  :     if (count1 != count2)

	mov	eax, DWORD PTR _count1$[ebp]
	cmp	eax, DWORD PTR _count2$[ebp]
	je	SHORT $LN2@EQUALS_MEM

; 151  :         return (-1);

	or	eax, -1
	jmp	SHORT $LN1@EQUALS_MEM
$LN2@EQUALS_MEM:

; 152  :     while (count1 > 0)

	cmp	DWORD PTR _count1$[ebp], 0
	jbe	SHORT $LN3@EQUALS_MEM

; 153  :     {
; 154  :         if (*buffer1 != *buffer2)

	mov	ecx, DWORD PTR _buffer1$[ebp]
	movzx	edx, BYTE PTR [ecx]
	mov	eax, DWORD PTR _buffer2$[ebp]
	movzx	ecx, BYTE PTR [eax]
	cmp	edx, ecx
	je	SHORT $LN5@EQUALS_MEM

; 155  :             return (-1);

	or	eax, -1
	jmp	SHORT $LN1@EQUALS_MEM
$LN5@EQUALS_MEM:

; 156  :         ++buffer1;

	mov	edx, DWORD PTR _buffer1$[ebp]
	add	edx, 1
	mov	DWORD PTR _buffer1$[ebp], edx

; 157  :         ++buffer2;

	mov	eax, DWORD PTR _buffer2$[ebp]
	add	eax, 1
	mov	DWORD PTR _buffer2$[ebp], eax

; 158  :         --count1;

	mov	ecx, DWORD PTR _count1$[ebp]
	sub	ecx, 1
	mov	DWORD PTR _count1$[ebp], ecx

; 159  :     }

	jmp	SHORT $LN2@EQUALS_MEM
$LN3@EQUALS_MEM:

; 160  :     return (0);

	xor	eax, eax
$LN1@EQUALS_MEM:

; 161  : }

	cmp	ebp, esp
	call	__RTC_CheckEsp
	pop	ebp
	ret	0
__EQUALS_MEMORY ENDP
_TEXT	ENDS
; Function compile flags: /Odtp /RTCsu
; File z:\sources\lunor\repos\rougemeilland\palmtree.math.core.uint\palmtree.math.core.uint\test_op_bitwiseor.c
_TEXT	SEGMENT
tv176 = -352						; size = 4
tv161 = -348						; size = 4
tv142 = -344						; size = 4
tv92 = -340						; size = 4
tv74 = -336						; size = 4
_w_result$ = -332					; size = 4
_v_result$ = -328					; size = 4
_u_result$ = -324					; size = 4
_result$ = -320						; size = 4
_actual_w_buf_size$ = -312				; size = 4
_actual_w_buf$ = -300					; size = 256
_w$ = -36						; size = 4
_v$ = -24						; size = 4
_u$ = -12						; size = 4
__$ArrayPad$ = -4					; size = 4
_env$ = 8						; size = 4
_ep$ = 12						; size = 4
_no$ = 16						; size = 4
_u_buf$ = 20						; size = 4
_u_buf_size$ = 24					; size = 4
_v_buf$ = 28						; size = 4
_v_buf_size$ = 32					; size = 4
_desired_w_buf$ = 36					; size = 4
_desired_w_buf_size$ = 40				; size = 4
_TEST_PMC_BitwiseOr_X_X PROC

; 109  : {

	push	ebp
	mov	ebp, esp
	sub	esp, 352				; 00000160H
	push	esi
	push	edi
	lea	edi, DWORD PTR [ebp-352]
	mov	ecx, 88					; 00000058H
	mov	eax, -858993460				; ccccccccH
	rep stosd
	mov	eax, DWORD PTR ___security_cookie
	xor	eax, ebp
	mov	DWORD PTR __$ArrayPad$[ebp], eax
	mov	ecx, OFFSET __61ADE7F1_test_op_bitwiseor@c
	call	@__CheckForDebuggerJustMyCode@4

; 110  :     HANDLE u;
; 111  :     HANDLE v;
; 112  :     HANDLE w;
; 113  :     unsigned char actual_w_buf[256];
; 114  :     size_t actual_w_buf_size;
; 115  :     PMC_STATUS_CODE result;
; 116  :     PMC_STATUS_CODE u_result;
; 117  :     PMC_STATUS_CODE v_result;
; 118  :     PMC_STATUS_CODE w_result;
; 119  :     TEST_Assert(env, FormatTestLabel(L"PMC_BitwiseOr_X_X (%d.%d)", no, 1), (u_result = ep->PMC_FromByteArray(u_buf, u_buf_size, &u)) == PMC_STATUS_OK, FormatTestMesssage(L"PMC_FromByteArrayの復帰コードが期待通りではない(%d)", u_result));

	mov	esi, esp
	lea	eax, DWORD PTR _u$[ebp]
	push	eax
	mov	ecx, DWORD PTR _u_buf_size$[ebp]
	push	ecx
	mov	edx, DWORD PTR _u_buf$[ebp]
	push	edx
	mov	eax, DWORD PTR _ep$[ebp]
	mov	ecx, DWORD PTR [eax+24]
	call	ecx
	cmp	esi, esp
	call	__RTC_CheckEsp
	mov	DWORD PTR _u_result$[ebp], eax
	cmp	DWORD PTR _u_result$[ebp], 0
	jne	SHORT $LN6@TEST_PMC_B
	mov	DWORD PTR tv74[ebp], 1
	jmp	SHORT $LN7@TEST_PMC_B
$LN6@TEST_PMC_B:
	mov	DWORD PTR tv74[ebp], 0
$LN7@TEST_PMC_B:
	mov	edx, DWORD PTR _u_result$[ebp]
	push	edx
	push	OFFSET $SG95165
	call	_FormatTestMesssage
	add	esp, 8
	push	eax
	mov	eax, DWORD PTR tv74[ebp]
	push	eax
	push	1
	mov	ecx, DWORD PTR _no$[ebp]
	push	ecx
	push	OFFSET $SG95166
	call	_FormatTestLabel
	add	esp, 12					; 0000000cH
	push	eax
	mov	edx, DWORD PTR _env$[ebp]
	push	edx
	call	_TEST_Assert
	add	esp, 16					; 00000010H

; 120  :     TEST_Assert(env, FormatTestLabel(L"PMC_BitwiseOr_X_X (%d.%d)", no, 2), (v_result = ep->PMC_FromByteArray(v_buf, v_buf_size, &v)) == PMC_STATUS_OK, FormatTestMesssage(L"PMC_FromByteArrayの復帰コードが期待通りではない(%d)", v_result));

	mov	esi, esp
	lea	eax, DWORD PTR _v$[ebp]
	push	eax
	mov	ecx, DWORD PTR _v_buf_size$[ebp]
	push	ecx
	mov	edx, DWORD PTR _v_buf$[ebp]
	push	edx
	mov	eax, DWORD PTR _ep$[ebp]
	mov	ecx, DWORD PTR [eax+24]
	call	ecx
	cmp	esi, esp
	call	__RTC_CheckEsp
	mov	DWORD PTR _v_result$[ebp], eax
	cmp	DWORD PTR _v_result$[ebp], 0
	jne	SHORT $LN8@TEST_PMC_B
	mov	DWORD PTR tv92[ebp], 1
	jmp	SHORT $LN9@TEST_PMC_B
$LN8@TEST_PMC_B:
	mov	DWORD PTR tv92[ebp], 0
$LN9@TEST_PMC_B:
	mov	edx, DWORD PTR _v_result$[ebp]
	push	edx
	push	OFFSET $SG95167
	call	_FormatTestMesssage
	add	esp, 8
	push	eax
	mov	eax, DWORD PTR tv92[ebp]
	push	eax
	push	2
	mov	ecx, DWORD PTR _no$[ebp]
	push	ecx
	push	OFFSET $SG95168
	call	_FormatTestLabel
	add	esp, 12					; 0000000cH
	push	eax
	mov	edx, DWORD PTR _env$[ebp]
	push	edx
	call	_TEST_Assert
	add	esp, 16					; 00000010H

; 121  :     TEST_Assert(env, FormatTestLabel(L"PMC_BitwiseOr_X_X (%d.%d)", no, 3), (w_result = ep->PMC_BitwiseOr_X_X(u, v, &w)) == PMC_STATUS_OK, FormatTestMesssage(L"PMC_BitwiseOr_X_Xの復帰コードが期待通りではない(%d)", w_result));

	mov	esi, esp
	lea	eax, DWORD PTR _w$[ebp]
	push	eax
	mov	ecx, DWORD PTR _v$[ebp]
	push	ecx
	mov	edx, DWORD PTR _u$[ebp]
	push	edx
	mov	eax, DWORD PTR _ep$[ebp]
	mov	ecx, DWORD PTR [eax+184]
	call	ecx
	cmp	esi, esp
	call	__RTC_CheckEsp
	mov	DWORD PTR _w_result$[ebp], eax
	cmp	DWORD PTR _w_result$[ebp], 0
	jne	SHORT $LN10@TEST_PMC_B
	mov	DWORD PTR tv142[ebp], 1
	jmp	SHORT $LN11@TEST_PMC_B
$LN10@TEST_PMC_B:
	mov	DWORD PTR tv142[ebp], 0
$LN11@TEST_PMC_B:
	mov	edx, DWORD PTR _w_result$[ebp]
	push	edx
	push	OFFSET $SG95169
	call	_FormatTestMesssage
	add	esp, 8
	push	eax
	mov	eax, DWORD PTR tv142[ebp]
	push	eax
	push	3
	mov	ecx, DWORD PTR _no$[ebp]
	push	ecx
	push	OFFSET $SG95170
	call	_FormatTestLabel
	add	esp, 12					; 0000000cH
	push	eax
	mov	edx, DWORD PTR _env$[ebp]
	push	edx
	call	_TEST_Assert
	add	esp, 16					; 00000010H

; 122  :     TEST_Assert(env, FormatTestLabel(L"PMC_BitwiseOr_X_X (%d.%d)", no, 4), (result = ep->PMC_ToByteArray(w, actual_w_buf, sizeof(actual_w_buf), &actual_w_buf_size)) == PMC_STATUS_OK, FormatTestMesssage(L"PMC_ToByteArrayの復帰コードが期待通りではない(%d)", result));

	mov	esi, esp
	lea	eax, DWORD PTR _actual_w_buf_size$[ebp]
	push	eax
	push	256					; 00000100H
	lea	ecx, DWORD PTR _actual_w_buf$[ebp]
	push	ecx
	mov	edx, DWORD PTR _w$[ebp]
	push	edx
	mov	eax, DWORD PTR _ep$[ebp]
	mov	ecx, DWORD PTR [eax+28]
	call	ecx
	cmp	esi, esp
	call	__RTC_CheckEsp
	mov	DWORD PTR _result$[ebp], eax
	cmp	DWORD PTR _result$[ebp], 0
	jne	SHORT $LN12@TEST_PMC_B
	mov	DWORD PTR tv161[ebp], 1
	jmp	SHORT $LN13@TEST_PMC_B
$LN12@TEST_PMC_B:
	mov	DWORD PTR tv161[ebp], 0
$LN13@TEST_PMC_B:
	mov	edx, DWORD PTR _result$[ebp]
	push	edx
	push	OFFSET $SG95171
	call	_FormatTestMesssage
	add	esp, 8
	push	eax
	mov	eax, DWORD PTR tv161[ebp]
	push	eax
	push	4
	mov	ecx, DWORD PTR _no$[ebp]
	push	ecx
	push	OFFSET $SG95172
	call	_FormatTestLabel
	add	esp, 12					; 0000000cH
	push	eax
	mov	edx, DWORD PTR _env$[ebp]
	push	edx
	call	_TEST_Assert
	add	esp, 16					; 00000010H

; 123  :     TEST_Assert(env, FormatTestLabel(L"PMC_BitwiseOr_X_X (%d.%d)", no, 5), _EQUALS_MEMORY(actual_w_buf, actual_w_buf_size, desired_w_buf, desired_w_buf_size) == 0, L"データの内容が一致しない");

	mov	eax, DWORD PTR _desired_w_buf_size$[ebp]
	push	eax
	mov	ecx, DWORD PTR _desired_w_buf$[ebp]
	push	ecx
	mov	edx, DWORD PTR _actual_w_buf_size$[ebp]
	push	edx
	lea	eax, DWORD PTR _actual_w_buf$[ebp]
	push	eax
	call	__EQUALS_MEMORY
	add	esp, 16					; 00000010H
	test	eax, eax
	jne	SHORT $LN14@TEST_PMC_B
	mov	DWORD PTR tv176[ebp], 1
	jmp	SHORT $LN15@TEST_PMC_B
$LN14@TEST_PMC_B:
	mov	DWORD PTR tv176[ebp], 0
$LN15@TEST_PMC_B:
	push	OFFSET $SG95173
	mov	ecx, DWORD PTR tv176[ebp]
	push	ecx
	push	5
	mov	edx, DWORD PTR _no$[ebp]
	push	edx
	push	OFFSET $SG95174
	call	_FormatTestLabel
	add	esp, 12					; 0000000cH
	push	eax
	mov	eax, DWORD PTR _env$[ebp]
	push	eax
	call	_TEST_Assert
	add	esp, 16					; 00000010H

; 124  :     if (w_result == PMC_STATUS_OK)

	cmp	DWORD PTR _w_result$[ebp], 0
	jne	SHORT $LN2@TEST_PMC_B

; 125  :         ep->PMC_Dispose(w);

	mov	esi, esp
	mov	ecx, DWORD PTR _w$[ebp]
	push	ecx
	mov	edx, DWORD PTR _ep$[ebp]
	mov	eax, DWORD PTR [edx+16]
	call	eax
	cmp	esi, esp
	call	__RTC_CheckEsp
$LN2@TEST_PMC_B:

; 126  :     if (v_result == PMC_STATUS_OK)

	cmp	DWORD PTR _v_result$[ebp], 0
	jne	SHORT $LN3@TEST_PMC_B

; 127  :         ep->PMC_Dispose(v);

	mov	esi, esp
	mov	ecx, DWORD PTR _v$[ebp]
	push	ecx
	mov	edx, DWORD PTR _ep$[ebp]
	mov	eax, DWORD PTR [edx+16]
	call	eax
	cmp	esi, esp
	call	__RTC_CheckEsp
$LN3@TEST_PMC_B:

; 128  :     if (u_result == PMC_STATUS_OK)

	cmp	DWORD PTR _u_result$[ebp], 0
	jne	SHORT $LN1@TEST_PMC_B

; 129  :         ep->PMC_Dispose(u);

	mov	esi, esp
	mov	ecx, DWORD PTR _u$[ebp]
	push	ecx
	mov	edx, DWORD PTR _ep$[ebp]
	mov	eax, DWORD PTR [edx+16]
	call	eax
	cmp	esi, esp
	call	__RTC_CheckEsp
$LN1@TEST_PMC_B:

; 130  : }

	push	edx
	mov	ecx, ebp
	push	eax
	lea	edx, DWORD PTR $LN22@TEST_PMC_B
	call	@_RTC_CheckStackVars@8
	pop	eax
	pop	edx
	pop	edi
	pop	esi
	mov	ecx, DWORD PTR __$ArrayPad$[ebp]
	xor	ecx, ebp
	call	@__security_check_cookie@4
	add	esp, 352				; 00000160H
	cmp	ebp, esp
	call	__RTC_CheckEsp
	mov	esp, ebp
	pop	ebp
	ret	0
	npad	1
$LN22@TEST_PMC_B:
	DD	5
	DD	$LN21@TEST_PMC_B
$LN21@TEST_PMC_B:
	DD	-12					; fffffff4H
	DD	4
	DD	$LN16@TEST_PMC_B
	DD	-24					; ffffffe8H
	DD	4
	DD	$LN17@TEST_PMC_B
	DD	-36					; ffffffdcH
	DD	4
	DD	$LN18@TEST_PMC_B
	DD	-300					; fffffed4H
	DD	256					; 00000100H
	DD	$LN19@TEST_PMC_B
	DD	-312					; fffffec8H
	DD	4
	DD	$LN20@TEST_PMC_B
$LN20@TEST_PMC_B:
	DB	97					; 00000061H
	DB	99					; 00000063H
	DB	116					; 00000074H
	DB	117					; 00000075H
	DB	97					; 00000061H
	DB	108					; 0000006cH
	DB	95					; 0000005fH
	DB	119					; 00000077H
	DB	95					; 0000005fH
	DB	98					; 00000062H
	DB	117					; 00000075H
	DB	102					; 00000066H
	DB	95					; 0000005fH
	DB	115					; 00000073H
	DB	105					; 00000069H
	DB	122					; 0000007aH
	DB	101					; 00000065H
	DB	0
$LN19@TEST_PMC_B:
	DB	97					; 00000061H
	DB	99					; 00000063H
	DB	116					; 00000074H
	DB	117					; 00000075H
	DB	97					; 00000061H
	DB	108					; 0000006cH
	DB	95					; 0000005fH
	DB	119					; 00000077H
	DB	95					; 0000005fH
	DB	98					; 00000062H
	DB	117					; 00000075H
	DB	102					; 00000066H
	DB	0
$LN18@TEST_PMC_B:
	DB	119					; 00000077H
	DB	0
$LN17@TEST_PMC_B:
	DB	118					; 00000076H
	DB	0
$LN16@TEST_PMC_B:
	DB	117					; 00000075H
	DB	0
_TEST_PMC_BitwiseOr_X_X ENDP
_TEXT	ENDS
; Function compile flags: /Odtp /RTCsu
; File z:\sources\lunor\repos\rougemeilland\palmtree.math.core.uint\palmtree.math.core.uint\test_op_bitwiseor.c
_TEXT	SEGMENT
tv158 = -332						; size = 4
tv143 = -328						; size = 4
tv92 = -324						; size = 4
tv74 = -320						; size = 4
_w_result$ = -316					; size = 4
_u_result$ = -312					; size = 4
_result$ = -308						; size = 4
_actual_w_buf_size$ = -300				; size = 4
_actual_w_buf$ = -288					; size = 256
_w$ = -24						; size = 4
_u$ = -12						; size = 4
__$ArrayPad$ = -4					; size = 4
_env$ = 8						; size = 4
_ep$ = 12						; size = 4
_no$ = 16						; size = 4
_u_buf$ = 20						; size = 4
_u_buf_size$ = 24					; size = 4
_v$ = 28						; size = 8
_desired_w_buf$ = 36					; size = 4
_desired_w_buf_size$ = 40				; size = 4
_TEST_PMC_BitwiseOr_X_L PROC

; 90   : {

	push	ebp
	mov	ebp, esp
	sub	esp, 332				; 0000014cH
	push	esi
	push	edi
	lea	edi, DWORD PTR [ebp-332]
	mov	ecx, 83					; 00000053H
	mov	eax, -858993460				; ccccccccH
	rep stosd
	mov	eax, DWORD PTR ___security_cookie
	xor	eax, ebp
	mov	DWORD PTR __$ArrayPad$[ebp], eax
	mov	ecx, OFFSET __61ADE7F1_test_op_bitwiseor@c
	call	@__CheckForDebuggerJustMyCode@4

; 91   :     HANDLE u;
; 92   :     HANDLE w;
; 93   :     unsigned char actual_w_buf[256];
; 94   :     size_t actual_w_buf_size;
; 95   :     PMC_STATUS_CODE result;
; 96   :     PMC_STATUS_CODE u_result;
; 97   :     PMC_STATUS_CODE w_result;
; 98   :     TEST_Assert(env, FormatTestLabel(L"PMC_BitwiseOr_X_L (%d.%d)", no, 1), (u_result = ep->PMC_FromByteArray(u_buf, u_buf_size, &u)) == PMC_STATUS_OK, FormatTestMesssage(L"PMC_FromByteArrayの復帰コードが期待通りではない(%d)", u_result));

	mov	esi, esp
	lea	eax, DWORD PTR _u$[ebp]
	push	eax
	mov	ecx, DWORD PTR _u_buf_size$[ebp]
	push	ecx
	mov	edx, DWORD PTR _u_buf$[ebp]
	push	edx
	mov	eax, DWORD PTR _ep$[ebp]
	mov	ecx, DWORD PTR [eax+24]
	call	ecx
	cmp	esi, esp
	call	__RTC_CheckEsp
	mov	DWORD PTR _u_result$[ebp], eax
	cmp	DWORD PTR _u_result$[ebp], 0
	jne	SHORT $LN5@TEST_PMC_B
	mov	DWORD PTR tv74[ebp], 1
	jmp	SHORT $LN6@TEST_PMC_B
$LN5@TEST_PMC_B:
	mov	DWORD PTR tv74[ebp], 0
$LN6@TEST_PMC_B:
	mov	edx, DWORD PTR _u_result$[ebp]
	push	edx
	push	OFFSET $SG95127
	call	_FormatTestMesssage
	add	esp, 8
	push	eax
	mov	eax, DWORD PTR tv74[ebp]
	push	eax
	push	1
	mov	ecx, DWORD PTR _no$[ebp]
	push	ecx
	push	OFFSET $SG95128
	call	_FormatTestLabel
	add	esp, 12					; 0000000cH
	push	eax
	mov	edx, DWORD PTR _env$[ebp]
	push	edx
	call	_TEST_Assert
	add	esp, 16					; 00000010H

; 99   :     TEST_Assert(env, FormatTestLabel(L"PMC_BitwiseOr_X_L (%d.%d)", no, 2), (w_result = ep->PMC_BitwiseOr_X_L(u, v, &w)) == PMC_STATUS_OK, FormatTestMesssage(L"PMC_BitwiseOr_X_Lの復帰コードが期待通りではない(%d)", w_result));

	mov	esi, esp
	lea	eax, DWORD PTR _w$[ebp]
	push	eax
	mov	ecx, DWORD PTR _v$[ebp+4]
	push	ecx
	mov	edx, DWORD PTR _v$[ebp]
	push	edx
	mov	eax, DWORD PTR _u$[ebp]
	push	eax
	mov	ecx, DWORD PTR _ep$[ebp]
	mov	edx, DWORD PTR [ecx+180]
	call	edx
	cmp	esi, esp
	call	__RTC_CheckEsp
	mov	DWORD PTR _w_result$[ebp], eax
	cmp	DWORD PTR _w_result$[ebp], 0
	jne	SHORT $LN7@TEST_PMC_B
	mov	DWORD PTR tv92[ebp], 1
	jmp	SHORT $LN8@TEST_PMC_B
$LN7@TEST_PMC_B:
	mov	DWORD PTR tv92[ebp], 0
$LN8@TEST_PMC_B:
	mov	eax, DWORD PTR _w_result$[ebp]
	push	eax
	push	OFFSET $SG95129
	call	_FormatTestMesssage
	add	esp, 8
	push	eax
	mov	ecx, DWORD PTR tv92[ebp]
	push	ecx
	push	2
	mov	edx, DWORD PTR _no$[ebp]
	push	edx
	push	OFFSET $SG95130
	call	_FormatTestLabel
	add	esp, 12					; 0000000cH
	push	eax
	mov	eax, DWORD PTR _env$[ebp]
	push	eax
	call	_TEST_Assert
	add	esp, 16					; 00000010H

; 100  :     TEST_Assert(env, FormatTestLabel(L"PMC_BitwiseOr_X_X (%d.%d)", no, 3), (result = ep->PMC_ToByteArray(w, actual_w_buf, sizeof(actual_w_buf), &actual_w_buf_size)) == PMC_STATUS_OK, FormatTestMesssage(L"PMC_ToByteArrayの復帰コードが期待通りではない(%d)", result));

	mov	esi, esp
	lea	ecx, DWORD PTR _actual_w_buf_size$[ebp]
	push	ecx
	push	256					; 00000100H
	lea	edx, DWORD PTR _actual_w_buf$[ebp]
	push	edx
	mov	eax, DWORD PTR _w$[ebp]
	push	eax
	mov	ecx, DWORD PTR _ep$[ebp]
	mov	edx, DWORD PTR [ecx+28]
	call	edx
	cmp	esi, esp
	call	__RTC_CheckEsp
	mov	DWORD PTR _result$[ebp], eax
	cmp	DWORD PTR _result$[ebp], 0
	jne	SHORT $LN9@TEST_PMC_B
	mov	DWORD PTR tv143[ebp], 1
	jmp	SHORT $LN10@TEST_PMC_B
$LN9@TEST_PMC_B:
	mov	DWORD PTR tv143[ebp], 0
$LN10@TEST_PMC_B:
	mov	eax, DWORD PTR _result$[ebp]
	push	eax
	push	OFFSET $SG95131
	call	_FormatTestMesssage
	add	esp, 8
	push	eax
	mov	ecx, DWORD PTR tv143[ebp]
	push	ecx
	push	3
	mov	edx, DWORD PTR _no$[ebp]
	push	edx
	push	OFFSET $SG95132
	call	_FormatTestLabel
	add	esp, 12					; 0000000cH
	push	eax
	mov	eax, DWORD PTR _env$[ebp]
	push	eax
	call	_TEST_Assert
	add	esp, 16					; 00000010H

; 101  :     TEST_Assert(env, FormatTestLabel(L"PMC_BitwiseOr_X_X (%d.%d)", no, 4), _EQUALS_MEMORY(actual_w_buf, actual_w_buf_size, desired_w_buf, desired_w_buf_size) == 0, L"データの内容が一致しない");

	mov	ecx, DWORD PTR _desired_w_buf_size$[ebp]
	push	ecx
	mov	edx, DWORD PTR _desired_w_buf$[ebp]
	push	edx
	mov	eax, DWORD PTR _actual_w_buf_size$[ebp]
	push	eax
	lea	ecx, DWORD PTR _actual_w_buf$[ebp]
	push	ecx
	call	__EQUALS_MEMORY
	add	esp, 16					; 00000010H
	test	eax, eax
	jne	SHORT $LN11@TEST_PMC_B
	mov	DWORD PTR tv158[ebp], 1
	jmp	SHORT $LN12@TEST_PMC_B
$LN11@TEST_PMC_B:
	mov	DWORD PTR tv158[ebp], 0
$LN12@TEST_PMC_B:
	push	OFFSET $SG95133
	mov	edx, DWORD PTR tv158[ebp]
	push	edx
	push	4
	mov	eax, DWORD PTR _no$[ebp]
	push	eax
	push	OFFSET $SG95134
	call	_FormatTestLabel
	add	esp, 12					; 0000000cH
	push	eax
	mov	ecx, DWORD PTR _env$[ebp]
	push	ecx
	call	_TEST_Assert
	add	esp, 16					; 00000010H

; 102  :     if (w_result == PMC_STATUS_OK)

	cmp	DWORD PTR _w_result$[ebp], 0
	jne	SHORT $LN2@TEST_PMC_B

; 103  :         ep->PMC_Dispose(w);

	mov	esi, esp
	mov	edx, DWORD PTR _w$[ebp]
	push	edx
	mov	eax, DWORD PTR _ep$[ebp]
	mov	ecx, DWORD PTR [eax+16]
	call	ecx
	cmp	esi, esp
	call	__RTC_CheckEsp
$LN2@TEST_PMC_B:

; 104  :     if (u_result == PMC_STATUS_OK)

	cmp	DWORD PTR _u_result$[ebp], 0
	jne	SHORT $LN1@TEST_PMC_B

; 105  :         ep->PMC_Dispose(u);

	mov	esi, esp
	mov	edx, DWORD PTR _u$[ebp]
	push	edx
	mov	eax, DWORD PTR _ep$[ebp]
	mov	ecx, DWORD PTR [eax+16]
	call	ecx
	cmp	esi, esp
	call	__RTC_CheckEsp
$LN1@TEST_PMC_B:

; 106  : }

	push	edx
	mov	ecx, ebp
	push	eax
	lea	edx, DWORD PTR $LN18@TEST_PMC_B
	call	@_RTC_CheckStackVars@8
	pop	eax
	pop	edx
	pop	edi
	pop	esi
	mov	ecx, DWORD PTR __$ArrayPad$[ebp]
	xor	ecx, ebp
	call	@__security_check_cookie@4
	add	esp, 332				; 0000014cH
	cmp	ebp, esp
	call	__RTC_CheckEsp
	mov	esp, ebp
	pop	ebp
	ret	0
	npad	1
$LN18@TEST_PMC_B:
	DD	4
	DD	$LN17@TEST_PMC_B
$LN17@TEST_PMC_B:
	DD	-12					; fffffff4H
	DD	4
	DD	$LN13@TEST_PMC_B
	DD	-24					; ffffffe8H
	DD	4
	DD	$LN14@TEST_PMC_B
	DD	-288					; fffffee0H
	DD	256					; 00000100H
	DD	$LN15@TEST_PMC_B
	DD	-300					; fffffed4H
	DD	4
	DD	$LN16@TEST_PMC_B
$LN16@TEST_PMC_B:
	DB	97					; 00000061H
	DB	99					; 00000063H
	DB	116					; 00000074H
	DB	117					; 00000075H
	DB	97					; 00000061H
	DB	108					; 0000006cH
	DB	95					; 0000005fH
	DB	119					; 00000077H
	DB	95					; 0000005fH
	DB	98					; 00000062H
	DB	117					; 00000075H
	DB	102					; 00000066H
	DB	95					; 0000005fH
	DB	115					; 00000073H
	DB	105					; 00000069H
	DB	122					; 0000007aH
	DB	101					; 00000065H
	DB	0
$LN15@TEST_PMC_B:
	DB	97					; 00000061H
	DB	99					; 00000063H
	DB	116					; 00000074H
	DB	117					; 00000075H
	DB	97					; 00000061H
	DB	108					; 0000006cH
	DB	95					; 0000005fH
	DB	119					; 00000077H
	DB	95					; 0000005fH
	DB	98					; 00000062H
	DB	117					; 00000075H
	DB	102					; 00000066H
	DB	0
$LN14@TEST_PMC_B:
	DB	119					; 00000077H
	DB	0
$LN13@TEST_PMC_B:
	DB	117					; 00000075H
	DB	0
_TEST_PMC_BitwiseOr_X_L ENDP
_TEXT	ENDS
; Function compile flags: /Odtp /RTCsu
; File z:\sources\lunor\repos\rougemeilland\palmtree.math.core.uint\palmtree.math.core.uint\test_op_bitwiseor.c
_TEXT	SEGMENT
tv158 = -332						; size = 4
tv143 = -328						; size = 4
tv92 = -324						; size = 4
tv74 = -320						; size = 4
_w_result$ = -316					; size = 4
_u_result$ = -312					; size = 4
_result$ = -308						; size = 4
_actual_w_buf_size$ = -300				; size = 4
_actual_w_buf$ = -288					; size = 256
_w$ = -24						; size = 4
_u$ = -12						; size = 4
__$ArrayPad$ = -4					; size = 4
_env$ = 8						; size = 4
_ep$ = 12						; size = 4
_no$ = 16						; size = 4
_u_buf$ = 20						; size = 4
_u_buf_size$ = 24					; size = 4
_v$ = 28						; size = 4
_desired_w_buf$ = 32					; size = 4
_desired_w_buf_size$ = 36				; size = 4
_TEST_PMC_BitwiseOr_X_I PROC

; 71   : {

	push	ebp
	mov	ebp, esp
	sub	esp, 332				; 0000014cH
	push	esi
	push	edi
	lea	edi, DWORD PTR [ebp-332]
	mov	ecx, 83					; 00000053H
	mov	eax, -858993460				; ccccccccH
	rep stosd
	mov	eax, DWORD PTR ___security_cookie
	xor	eax, ebp
	mov	DWORD PTR __$ArrayPad$[ebp], eax
	mov	ecx, OFFSET __61ADE7F1_test_op_bitwiseor@c
	call	@__CheckForDebuggerJustMyCode@4

; 72   :     HANDLE u;
; 73   :     HANDLE w;
; 74   :     unsigned char actual_w_buf[256];
; 75   :     size_t actual_w_buf_size;
; 76   :     PMC_STATUS_CODE result;
; 77   :     PMC_STATUS_CODE u_result;
; 78   :     PMC_STATUS_CODE w_result;
; 79   :     TEST_Assert(env, FormatTestLabel(L"PMC_BitwiseOr_X_I (%d.%d)", no, 1), (u_result = ep->PMC_FromByteArray(u_buf, u_buf_size, &u)) == PMC_STATUS_OK, FormatTestMesssage(L"PMC_FromByteArrayの復帰コードが期待通りではない(%d)", u_result));

	mov	esi, esp
	lea	eax, DWORD PTR _u$[ebp]
	push	eax
	mov	ecx, DWORD PTR _u_buf_size$[ebp]
	push	ecx
	mov	edx, DWORD PTR _u_buf$[ebp]
	push	edx
	mov	eax, DWORD PTR _ep$[ebp]
	mov	ecx, DWORD PTR [eax+24]
	call	ecx
	cmp	esi, esp
	call	__RTC_CheckEsp
	mov	DWORD PTR _u_result$[ebp], eax
	cmp	DWORD PTR _u_result$[ebp], 0
	jne	SHORT $LN5@TEST_PMC_B
	mov	DWORD PTR tv74[ebp], 1
	jmp	SHORT $LN6@TEST_PMC_B
$LN5@TEST_PMC_B:
	mov	DWORD PTR tv74[ebp], 0
$LN6@TEST_PMC_B:
	mov	edx, DWORD PTR _u_result$[ebp]
	push	edx
	push	OFFSET $SG95093
	call	_FormatTestMesssage
	add	esp, 8
	push	eax
	mov	eax, DWORD PTR tv74[ebp]
	push	eax
	push	1
	mov	ecx, DWORD PTR _no$[ebp]
	push	ecx
	push	OFFSET $SG95094
	call	_FormatTestLabel
	add	esp, 12					; 0000000cH
	push	eax
	mov	edx, DWORD PTR _env$[ebp]
	push	edx
	call	_TEST_Assert
	add	esp, 16					; 00000010H

; 80   :     TEST_Assert(env, FormatTestLabel(L"PMC_BitwiseOr_X_I (%d.%d)", no, 2), (w_result = ep->PMC_BitwiseOr_X_I(u, v, &w)) == PMC_STATUS_OK, FormatTestMesssage(L"PMC_BitwiseOr_X_Iの復帰コードが期待通りではない(%d)", w_result));

	mov	esi, esp
	lea	eax, DWORD PTR _w$[ebp]
	push	eax
	mov	ecx, DWORD PTR _v$[ebp]
	push	ecx
	mov	edx, DWORD PTR _u$[ebp]
	push	edx
	mov	eax, DWORD PTR _ep$[ebp]
	mov	ecx, DWORD PTR [eax+176]
	call	ecx
	cmp	esi, esp
	call	__RTC_CheckEsp
	mov	DWORD PTR _w_result$[ebp], eax
	cmp	DWORD PTR _w_result$[ebp], 0
	jne	SHORT $LN7@TEST_PMC_B
	mov	DWORD PTR tv92[ebp], 1
	jmp	SHORT $LN8@TEST_PMC_B
$LN7@TEST_PMC_B:
	mov	DWORD PTR tv92[ebp], 0
$LN8@TEST_PMC_B:
	mov	edx, DWORD PTR _w_result$[ebp]
	push	edx
	push	OFFSET $SG95095
	call	_FormatTestMesssage
	add	esp, 8
	push	eax
	mov	eax, DWORD PTR tv92[ebp]
	push	eax
	push	2
	mov	ecx, DWORD PTR _no$[ebp]
	push	ecx
	push	OFFSET $SG95096
	call	_FormatTestLabel
	add	esp, 12					; 0000000cH
	push	eax
	mov	edx, DWORD PTR _env$[ebp]
	push	edx
	call	_TEST_Assert
	add	esp, 16					; 00000010H

; 81   :     TEST_Assert(env, FormatTestLabel(L"PMC_BitwiseOr_X_X (%d.%d)", no, 3), (result = ep->PMC_ToByteArray(w, actual_w_buf, sizeof(actual_w_buf), &actual_w_buf_size)) == PMC_STATUS_OK, FormatTestMesssage(L"PMC_ToByteArrayの復帰コードが期待通りではない(%d)", result));

	mov	esi, esp
	lea	eax, DWORD PTR _actual_w_buf_size$[ebp]
	push	eax
	push	256					; 00000100H
	lea	ecx, DWORD PTR _actual_w_buf$[ebp]
	push	ecx
	mov	edx, DWORD PTR _w$[ebp]
	push	edx
	mov	eax, DWORD PTR _ep$[ebp]
	mov	ecx, DWORD PTR [eax+28]
	call	ecx
	cmp	esi, esp
	call	__RTC_CheckEsp
	mov	DWORD PTR _result$[ebp], eax
	cmp	DWORD PTR _result$[ebp], 0
	jne	SHORT $LN9@TEST_PMC_B
	mov	DWORD PTR tv143[ebp], 1
	jmp	SHORT $LN10@TEST_PMC_B
$LN9@TEST_PMC_B:
	mov	DWORD PTR tv143[ebp], 0
$LN10@TEST_PMC_B:
	mov	edx, DWORD PTR _result$[ebp]
	push	edx
	push	OFFSET $SG95097
	call	_FormatTestMesssage
	add	esp, 8
	push	eax
	mov	eax, DWORD PTR tv143[ebp]
	push	eax
	push	3
	mov	ecx, DWORD PTR _no$[ebp]
	push	ecx
	push	OFFSET $SG95098
	call	_FormatTestLabel
	add	esp, 12					; 0000000cH
	push	eax
	mov	edx, DWORD PTR _env$[ebp]
	push	edx
	call	_TEST_Assert
	add	esp, 16					; 00000010H

; 82   :     TEST_Assert(env, FormatTestLabel(L"PMC_BitwiseOr_X_X (%d.%d)", no, 4), _EQUALS_MEMORY(actual_w_buf, actual_w_buf_size, desired_w_buf, desired_w_buf_size) == 0, L"データの内容が一致しない");

	mov	eax, DWORD PTR _desired_w_buf_size$[ebp]
	push	eax
	mov	ecx, DWORD PTR _desired_w_buf$[ebp]
	push	ecx
	mov	edx, DWORD PTR _actual_w_buf_size$[ebp]
	push	edx
	lea	eax, DWORD PTR _actual_w_buf$[ebp]
	push	eax
	call	__EQUALS_MEMORY
	add	esp, 16					; 00000010H
	test	eax, eax
	jne	SHORT $LN11@TEST_PMC_B
	mov	DWORD PTR tv158[ebp], 1
	jmp	SHORT $LN12@TEST_PMC_B
$LN11@TEST_PMC_B:
	mov	DWORD PTR tv158[ebp], 0
$LN12@TEST_PMC_B:
	push	OFFSET $SG95099
	mov	ecx, DWORD PTR tv158[ebp]
	push	ecx
	push	4
	mov	edx, DWORD PTR _no$[ebp]
	push	edx
	push	OFFSET $SG95100
	call	_FormatTestLabel
	add	esp, 12					; 0000000cH
	push	eax
	mov	eax, DWORD PTR _env$[ebp]
	push	eax
	call	_TEST_Assert
	add	esp, 16					; 00000010H

; 83   :     if (w_result == PMC_STATUS_OK)

	cmp	DWORD PTR _w_result$[ebp], 0
	jne	SHORT $LN2@TEST_PMC_B

; 84   :         ep->PMC_Dispose(w);

	mov	esi, esp
	mov	ecx, DWORD PTR _w$[ebp]
	push	ecx
	mov	edx, DWORD PTR _ep$[ebp]
	mov	eax, DWORD PTR [edx+16]
	call	eax
	cmp	esi, esp
	call	__RTC_CheckEsp
$LN2@TEST_PMC_B:

; 85   :     if (u_result == PMC_STATUS_OK)

	cmp	DWORD PTR _u_result$[ebp], 0
	jne	SHORT $LN1@TEST_PMC_B

; 86   :         ep->PMC_Dispose(u);

	mov	esi, esp
	mov	ecx, DWORD PTR _u$[ebp]
	push	ecx
	mov	edx, DWORD PTR _ep$[ebp]
	mov	eax, DWORD PTR [edx+16]
	call	eax
	cmp	esi, esp
	call	__RTC_CheckEsp
$LN1@TEST_PMC_B:

; 87   : }

	push	edx
	mov	ecx, ebp
	push	eax
	lea	edx, DWORD PTR $LN18@TEST_PMC_B
	call	@_RTC_CheckStackVars@8
	pop	eax
	pop	edx
	pop	edi
	pop	esi
	mov	ecx, DWORD PTR __$ArrayPad$[ebp]
	xor	ecx, ebp
	call	@__security_check_cookie@4
	add	esp, 332				; 0000014cH
	cmp	ebp, esp
	call	__RTC_CheckEsp
	mov	esp, ebp
	pop	ebp
	ret	0
	npad	1
$LN18@TEST_PMC_B:
	DD	4
	DD	$LN17@TEST_PMC_B
$LN17@TEST_PMC_B:
	DD	-12					; fffffff4H
	DD	4
	DD	$LN13@TEST_PMC_B
	DD	-24					; ffffffe8H
	DD	4
	DD	$LN14@TEST_PMC_B
	DD	-288					; fffffee0H
	DD	256					; 00000100H
	DD	$LN15@TEST_PMC_B
	DD	-300					; fffffed4H
	DD	4
	DD	$LN16@TEST_PMC_B
$LN16@TEST_PMC_B:
	DB	97					; 00000061H
	DB	99					; 00000063H
	DB	116					; 00000074H
	DB	117					; 00000075H
	DB	97					; 00000061H
	DB	108					; 0000006cH
	DB	95					; 0000005fH
	DB	119					; 00000077H
	DB	95					; 0000005fH
	DB	98					; 00000062H
	DB	117					; 00000075H
	DB	102					; 00000066H
	DB	95					; 0000005fH
	DB	115					; 00000073H
	DB	105					; 00000069H
	DB	122					; 0000007aH
	DB	101					; 00000065H
	DB	0
$LN15@TEST_PMC_B:
	DB	97					; 00000061H
	DB	99					; 00000063H
	DB	116					; 00000074H
	DB	117					; 00000075H
	DB	97					; 00000061H
	DB	108					; 0000006cH
	DB	95					; 0000005fH
	DB	119					; 00000077H
	DB	95					; 0000005fH
	DB	98					; 00000062H
	DB	117					; 00000075H
	DB	102					; 00000066H
	DB	0
$LN14@TEST_PMC_B:
	DB	119					; 00000077H
	DB	0
$LN13@TEST_PMC_B:
	DB	117					; 00000075H
	DB	0
_TEST_PMC_BitwiseOr_X_I ENDP
_TEXT	ENDS
; Function compile flags: /Odtp /RTCsu
; File z:\sources\lunor\repos\rougemeilland\palmtree.math.core.uint\palmtree.math.core.uint\test_op_bitwiseor.c
_TEXT	SEGMENT
tv158 = -332						; size = 4
tv143 = -328						; size = 4
tv92 = -324						; size = 4
tv74 = -320						; size = 4
_w_result$ = -316					; size = 4
_v_result$ = -312					; size = 4
_result$ = -308						; size = 4
_actual_w_buf_size$ = -300				; size = 4
_actual_w_buf$ = -288					; size = 256
_w$ = -24						; size = 4
_v$ = -12						; size = 4
__$ArrayPad$ = -4					; size = 4
_env$ = 8						; size = 4
_ep$ = 12						; size = 4
_no$ = 16						; size = 4
_u$ = 20						; size = 8
_v_buf$ = 28						; size = 4
_v_buf_size$ = 32					; size = 4
_desired_w_buf$ = 36					; size = 4
_desired_w_buf_size$ = 40				; size = 4
_TEST_PMC_BitwiseOr_L_X PROC

; 52   : {

	push	ebp
	mov	ebp, esp
	sub	esp, 332				; 0000014cH
	push	esi
	push	edi
	lea	edi, DWORD PTR [ebp-332]
	mov	ecx, 83					; 00000053H
	mov	eax, -858993460				; ccccccccH
	rep stosd
	mov	eax, DWORD PTR ___security_cookie
	xor	eax, ebp
	mov	DWORD PTR __$ArrayPad$[ebp], eax
	mov	ecx, OFFSET __61ADE7F1_test_op_bitwiseor@c
	call	@__CheckForDebuggerJustMyCode@4

; 53   :     HANDLE v;
; 54   :     HANDLE w;
; 55   :     unsigned char actual_w_buf[256];
; 56   :     size_t actual_w_buf_size;
; 57   :     PMC_STATUS_CODE result;
; 58   :     PMC_STATUS_CODE v_result;
; 59   :     PMC_STATUS_CODE w_result;
; 60   :     TEST_Assert(env, FormatTestLabel(L"PMC_BitwiseOr_L_X (%d.%d)", no, 1), (v_result = ep->PMC_FromByteArray(v_buf, v_buf_size, &v)) == PMC_STATUS_OK, FormatTestMesssage(L"PMC_FromByteArrayの復帰コードが期待通りではない(%d)", v_result));

	mov	esi, esp
	lea	eax, DWORD PTR _v$[ebp]
	push	eax
	mov	ecx, DWORD PTR _v_buf_size$[ebp]
	push	ecx
	mov	edx, DWORD PTR _v_buf$[ebp]
	push	edx
	mov	eax, DWORD PTR _ep$[ebp]
	mov	ecx, DWORD PTR [eax+24]
	call	ecx
	cmp	esi, esp
	call	__RTC_CheckEsp
	mov	DWORD PTR _v_result$[ebp], eax
	cmp	DWORD PTR _v_result$[ebp], 0
	jne	SHORT $LN5@TEST_PMC_B
	mov	DWORD PTR tv74[ebp], 1
	jmp	SHORT $LN6@TEST_PMC_B
$LN5@TEST_PMC_B:
	mov	DWORD PTR tv74[ebp], 0
$LN6@TEST_PMC_B:
	mov	edx, DWORD PTR _v_result$[ebp]
	push	edx
	push	OFFSET $SG95059
	call	_FormatTestMesssage
	add	esp, 8
	push	eax
	mov	eax, DWORD PTR tv74[ebp]
	push	eax
	push	1
	mov	ecx, DWORD PTR _no$[ebp]
	push	ecx
	push	OFFSET $SG95060
	call	_FormatTestLabel
	add	esp, 12					; 0000000cH
	push	eax
	mov	edx, DWORD PTR _env$[ebp]
	push	edx
	call	_TEST_Assert
	add	esp, 16					; 00000010H

; 61   :     TEST_Assert(env, FormatTestLabel(L"PMC_BitwiseOr_L_X (%d.%d)", no, 2), (w_result = ep->PMC_BitwiseOr_L_X(u, v, &w)) == PMC_STATUS_OK, FormatTestMesssage(L"PMC_BitwiseOr_L_Xの復帰コードが期待通りではない(%d)", w_result));

	mov	esi, esp
	lea	eax, DWORD PTR _w$[ebp]
	push	eax
	mov	ecx, DWORD PTR _v$[ebp]
	push	ecx
	mov	edx, DWORD PTR _u$[ebp+4]
	push	edx
	mov	eax, DWORD PTR _u$[ebp]
	push	eax
	mov	ecx, DWORD PTR _ep$[ebp]
	mov	edx, DWORD PTR [ecx+172]
	call	edx
	cmp	esi, esp
	call	__RTC_CheckEsp
	mov	DWORD PTR _w_result$[ebp], eax
	cmp	DWORD PTR _w_result$[ebp], 0
	jne	SHORT $LN7@TEST_PMC_B
	mov	DWORD PTR tv92[ebp], 1
	jmp	SHORT $LN8@TEST_PMC_B
$LN7@TEST_PMC_B:
	mov	DWORD PTR tv92[ebp], 0
$LN8@TEST_PMC_B:
	mov	eax, DWORD PTR _w_result$[ebp]
	push	eax
	push	OFFSET $SG95061
	call	_FormatTestMesssage
	add	esp, 8
	push	eax
	mov	ecx, DWORD PTR tv92[ebp]
	push	ecx
	push	2
	mov	edx, DWORD PTR _no$[ebp]
	push	edx
	push	OFFSET $SG95062
	call	_FormatTestLabel
	add	esp, 12					; 0000000cH
	push	eax
	mov	eax, DWORD PTR _env$[ebp]
	push	eax
	call	_TEST_Assert
	add	esp, 16					; 00000010H

; 62   :     TEST_Assert(env, FormatTestLabel(L"PMC_BitwiseOr_L_X (%d.%d)", no, 3), (result = ep->PMC_ToByteArray(w, actual_w_buf, sizeof(actual_w_buf), &actual_w_buf_size)) == PMC_STATUS_OK, FormatTestMesssage(L"PMC_ToByteArrayの復帰コードが期待通りではない(%d)", result));

	mov	esi, esp
	lea	ecx, DWORD PTR _actual_w_buf_size$[ebp]
	push	ecx
	push	256					; 00000100H
	lea	edx, DWORD PTR _actual_w_buf$[ebp]
	push	edx
	mov	eax, DWORD PTR _w$[ebp]
	push	eax
	mov	ecx, DWORD PTR _ep$[ebp]
	mov	edx, DWORD PTR [ecx+28]
	call	edx
	cmp	esi, esp
	call	__RTC_CheckEsp
	mov	DWORD PTR _result$[ebp], eax
	cmp	DWORD PTR _result$[ebp], 0
	jne	SHORT $LN9@TEST_PMC_B
	mov	DWORD PTR tv143[ebp], 1
	jmp	SHORT $LN10@TEST_PMC_B
$LN9@TEST_PMC_B:
	mov	DWORD PTR tv143[ebp], 0
$LN10@TEST_PMC_B:
	mov	eax, DWORD PTR _result$[ebp]
	push	eax
	push	OFFSET $SG95063
	call	_FormatTestMesssage
	add	esp, 8
	push	eax
	mov	ecx, DWORD PTR tv143[ebp]
	push	ecx
	push	3
	mov	edx, DWORD PTR _no$[ebp]
	push	edx
	push	OFFSET $SG95064
	call	_FormatTestLabel
	add	esp, 12					; 0000000cH
	push	eax
	mov	eax, DWORD PTR _env$[ebp]
	push	eax
	call	_TEST_Assert
	add	esp, 16					; 00000010H

; 63   :     TEST_Assert(env, FormatTestLabel(L"PMC_BitwiseOr_L_X (%d.%d)", no, 4), _EQUALS_MEMORY(actual_w_buf, actual_w_buf_size, desired_w_buf, desired_w_buf_size) == 0, L"データの内容が一致しない");

	mov	ecx, DWORD PTR _desired_w_buf_size$[ebp]
	push	ecx
	mov	edx, DWORD PTR _desired_w_buf$[ebp]
	push	edx
	mov	eax, DWORD PTR _actual_w_buf_size$[ebp]
	push	eax
	lea	ecx, DWORD PTR _actual_w_buf$[ebp]
	push	ecx
	call	__EQUALS_MEMORY
	add	esp, 16					; 00000010H
	test	eax, eax
	jne	SHORT $LN11@TEST_PMC_B
	mov	DWORD PTR tv158[ebp], 1
	jmp	SHORT $LN12@TEST_PMC_B
$LN11@TEST_PMC_B:
	mov	DWORD PTR tv158[ebp], 0
$LN12@TEST_PMC_B:
	push	OFFSET $SG95065
	mov	edx, DWORD PTR tv158[ebp]
	push	edx
	push	4
	mov	eax, DWORD PTR _no$[ebp]
	push	eax
	push	OFFSET $SG95066
	call	_FormatTestLabel
	add	esp, 12					; 0000000cH
	push	eax
	mov	ecx, DWORD PTR _env$[ebp]
	push	ecx
	call	_TEST_Assert
	add	esp, 16					; 00000010H

; 64   :     if (w_result == PMC_STATUS_OK)

	cmp	DWORD PTR _w_result$[ebp], 0
	jne	SHORT $LN2@TEST_PMC_B

; 65   :         ep->PMC_Dispose(w);

	mov	esi, esp
	mov	edx, DWORD PTR _w$[ebp]
	push	edx
	mov	eax, DWORD PTR _ep$[ebp]
	mov	ecx, DWORD PTR [eax+16]
	call	ecx
	cmp	esi, esp
	call	__RTC_CheckEsp
$LN2@TEST_PMC_B:

; 66   :     if (v_result == PMC_STATUS_OK)

	cmp	DWORD PTR _v_result$[ebp], 0
	jne	SHORT $LN1@TEST_PMC_B

; 67   :         ep->PMC_Dispose(v);

	mov	esi, esp
	mov	edx, DWORD PTR _v$[ebp]
	push	edx
	mov	eax, DWORD PTR _ep$[ebp]
	mov	ecx, DWORD PTR [eax+16]
	call	ecx
	cmp	esi, esp
	call	__RTC_CheckEsp
$LN1@TEST_PMC_B:

; 68   : }

	push	edx
	mov	ecx, ebp
	push	eax
	lea	edx, DWORD PTR $LN18@TEST_PMC_B
	call	@_RTC_CheckStackVars@8
	pop	eax
	pop	edx
	pop	edi
	pop	esi
	mov	ecx, DWORD PTR __$ArrayPad$[ebp]
	xor	ecx, ebp
	call	@__security_check_cookie@4
	add	esp, 332				; 0000014cH
	cmp	ebp, esp
	call	__RTC_CheckEsp
	mov	esp, ebp
	pop	ebp
	ret	0
	npad	1
$LN18@TEST_PMC_B:
	DD	4
	DD	$LN17@TEST_PMC_B
$LN17@TEST_PMC_B:
	DD	-12					; fffffff4H
	DD	4
	DD	$LN13@TEST_PMC_B
	DD	-24					; ffffffe8H
	DD	4
	DD	$LN14@TEST_PMC_B
	DD	-288					; fffffee0H
	DD	256					; 00000100H
	DD	$LN15@TEST_PMC_B
	DD	-300					; fffffed4H
	DD	4
	DD	$LN16@TEST_PMC_B
$LN16@TEST_PMC_B:
	DB	97					; 00000061H
	DB	99					; 00000063H
	DB	116					; 00000074H
	DB	117					; 00000075H
	DB	97					; 00000061H
	DB	108					; 0000006cH
	DB	95					; 0000005fH
	DB	119					; 00000077H
	DB	95					; 0000005fH
	DB	98					; 00000062H
	DB	117					; 00000075H
	DB	102					; 00000066H
	DB	95					; 0000005fH
	DB	115					; 00000073H
	DB	105					; 00000069H
	DB	122					; 0000007aH
	DB	101					; 00000065H
	DB	0
$LN15@TEST_PMC_B:
	DB	97					; 00000061H
	DB	99					; 00000063H
	DB	116					; 00000074H
	DB	117					; 00000075H
	DB	97					; 00000061H
	DB	108					; 0000006cH
	DB	95					; 0000005fH
	DB	119					; 00000077H
	DB	95					; 0000005fH
	DB	98					; 00000062H
	DB	117					; 00000075H
	DB	102					; 00000066H
	DB	0
$LN14@TEST_PMC_B:
	DB	119					; 00000077H
	DB	0
$LN13@TEST_PMC_B:
	DB	118					; 00000076H
	DB	0
_TEST_PMC_BitwiseOr_L_X ENDP
_TEXT	ENDS
; Function compile flags: /Odtp /RTCsu
; File z:\sources\lunor\repos\rougemeilland\palmtree.math.core.uint\palmtree.math.core.uint\test_op_bitwiseor.c
_TEXT	SEGMENT
tv158 = -332						; size = 4
tv143 = -328						; size = 4
tv92 = -324						; size = 4
tv74 = -320						; size = 4
_w_result$ = -316					; size = 4
_v_result$ = -312					; size = 4
_result$ = -308						; size = 4
_actual_w_buf_size$ = -300				; size = 4
_actual_w_buf$ = -288					; size = 256
_w$ = -24						; size = 4
_v$ = -12						; size = 4
__$ArrayPad$ = -4					; size = 4
_env$ = 8						; size = 4
_ep$ = 12						; size = 4
_no$ = 16						; size = 4
_u$ = 20						; size = 4
_v_buf$ = 24						; size = 4
_v_buf_size$ = 28					; size = 4
_desired_w_buf$ = 32					; size = 4
_desired_w_buf_size$ = 36				; size = 4
_TEST_PMC_BitwiseOr_I_X PROC

; 33   : {

	push	ebp
	mov	ebp, esp
	sub	esp, 332				; 0000014cH
	push	esi
	push	edi
	lea	edi, DWORD PTR [ebp-332]
	mov	ecx, 83					; 00000053H
	mov	eax, -858993460				; ccccccccH
	rep stosd
	mov	eax, DWORD PTR ___security_cookie
	xor	eax, ebp
	mov	DWORD PTR __$ArrayPad$[ebp], eax
	mov	ecx, OFFSET __61ADE7F1_test_op_bitwiseor@c
	call	@__CheckForDebuggerJustMyCode@4

; 34   :     HANDLE v;
; 35   :     HANDLE w;
; 36   :     unsigned char actual_w_buf[256];
; 37   :     size_t actual_w_buf_size;
; 38   :     PMC_STATUS_CODE result;
; 39   :     PMC_STATUS_CODE v_result;
; 40   :     PMC_STATUS_CODE w_result;
; 41   :     TEST_Assert(env, FormatTestLabel(L"PMC_BitwiseOr_I_X (%d.%d)", no, 1), (v_result = ep->PMC_FromByteArray(v_buf, v_buf_size, &v)) == PMC_STATUS_OK, FormatTestMesssage(L"PMC_FromByteArrayの復帰コードが期待通りではない(%d)", v_result));

	mov	esi, esp
	lea	eax, DWORD PTR _v$[ebp]
	push	eax
	mov	ecx, DWORD PTR _v_buf_size$[ebp]
	push	ecx
	mov	edx, DWORD PTR _v_buf$[ebp]
	push	edx
	mov	eax, DWORD PTR _ep$[ebp]
	mov	ecx, DWORD PTR [eax+24]
	call	ecx
	cmp	esi, esp
	call	__RTC_CheckEsp
	mov	DWORD PTR _v_result$[ebp], eax
	cmp	DWORD PTR _v_result$[ebp], 0
	jne	SHORT $LN5@TEST_PMC_B
	mov	DWORD PTR tv74[ebp], 1
	jmp	SHORT $LN6@TEST_PMC_B
$LN5@TEST_PMC_B:
	mov	DWORD PTR tv74[ebp], 0
$LN6@TEST_PMC_B:
	mov	edx, DWORD PTR _v_result$[ebp]
	push	edx
	push	OFFSET $SG95025
	call	_FormatTestMesssage
	add	esp, 8
	push	eax
	mov	eax, DWORD PTR tv74[ebp]
	push	eax
	push	1
	mov	ecx, DWORD PTR _no$[ebp]
	push	ecx
	push	OFFSET $SG95026
	call	_FormatTestLabel
	add	esp, 12					; 0000000cH
	push	eax
	mov	edx, DWORD PTR _env$[ebp]
	push	edx
	call	_TEST_Assert
	add	esp, 16					; 00000010H

; 42   :     TEST_Assert(env, FormatTestLabel(L"PMC_BitwiseOr_I_X (%d.%d)", no, 2), (w_result = ep->PMC_BitwiseOr_I_X(u, v, &w)) == PMC_STATUS_OK, FormatTestMesssage(L"PMC_BitwiseOr_I_Xの復帰コードが期待通りではない(%d)", w_result));

	mov	esi, esp
	lea	eax, DWORD PTR _w$[ebp]
	push	eax
	mov	ecx, DWORD PTR _v$[ebp]
	push	ecx
	mov	edx, DWORD PTR _u$[ebp]
	push	edx
	mov	eax, DWORD PTR _ep$[ebp]
	mov	ecx, DWORD PTR [eax+168]
	call	ecx
	cmp	esi, esp
	call	__RTC_CheckEsp
	mov	DWORD PTR _w_result$[ebp], eax
	cmp	DWORD PTR _w_result$[ebp], 0
	jne	SHORT $LN7@TEST_PMC_B
	mov	DWORD PTR tv92[ebp], 1
	jmp	SHORT $LN8@TEST_PMC_B
$LN7@TEST_PMC_B:
	mov	DWORD PTR tv92[ebp], 0
$LN8@TEST_PMC_B:
	mov	edx, DWORD PTR _w_result$[ebp]
	push	edx
	push	OFFSET $SG95027
	call	_FormatTestMesssage
	add	esp, 8
	push	eax
	mov	eax, DWORD PTR tv92[ebp]
	push	eax
	push	2
	mov	ecx, DWORD PTR _no$[ebp]
	push	ecx
	push	OFFSET $SG95028
	call	_FormatTestLabel
	add	esp, 12					; 0000000cH
	push	eax
	mov	edx, DWORD PTR _env$[ebp]
	push	edx
	call	_TEST_Assert
	add	esp, 16					; 00000010H

; 43   :     TEST_Assert(env, FormatTestLabel(L"PMC_BitwiseOr_I_X (%d.%d)", no, 3), (result = ep->PMC_ToByteArray(w, actual_w_buf, sizeof(actual_w_buf), &actual_w_buf_size)) == PMC_STATUS_OK, FormatTestMesssage(L"PMC_ToByteArrayの復帰コードが期待通りではない(%d)", result));

	mov	esi, esp
	lea	eax, DWORD PTR _actual_w_buf_size$[ebp]
	push	eax
	push	256					; 00000100H
	lea	ecx, DWORD PTR _actual_w_buf$[ebp]
	push	ecx
	mov	edx, DWORD PTR _w$[ebp]
	push	edx
	mov	eax, DWORD PTR _ep$[ebp]
	mov	ecx, DWORD PTR [eax+28]
	call	ecx
	cmp	esi, esp
	call	__RTC_CheckEsp
	mov	DWORD PTR _result$[ebp], eax
	cmp	DWORD PTR _result$[ebp], 0
	jne	SHORT $LN9@TEST_PMC_B
	mov	DWORD PTR tv143[ebp], 1
	jmp	SHORT $LN10@TEST_PMC_B
$LN9@TEST_PMC_B:
	mov	DWORD PTR tv143[ebp], 0
$LN10@TEST_PMC_B:
	mov	edx, DWORD PTR _result$[ebp]
	push	edx
	push	OFFSET $SG95029
	call	_FormatTestMesssage
	add	esp, 8
	push	eax
	mov	eax, DWORD PTR tv143[ebp]
	push	eax
	push	3
	mov	ecx, DWORD PTR _no$[ebp]
	push	ecx
	push	OFFSET $SG95030
	call	_FormatTestLabel
	add	esp, 12					; 0000000cH
	push	eax
	mov	edx, DWORD PTR _env$[ebp]
	push	edx
	call	_TEST_Assert
	add	esp, 16					; 00000010H

; 44   :     TEST_Assert(env, FormatTestLabel(L"PMC_BitwiseOr_I_X (%d.%d)", no, 4), _EQUALS_MEMORY(actual_w_buf, actual_w_buf_size, desired_w_buf, desired_w_buf_size) == 0, L"データの内容が一致しない");

	mov	eax, DWORD PTR _desired_w_buf_size$[ebp]
	push	eax
	mov	ecx, DWORD PTR _desired_w_buf$[ebp]
	push	ecx
	mov	edx, DWORD PTR _actual_w_buf_size$[ebp]
	push	edx
	lea	eax, DWORD PTR _actual_w_buf$[ebp]
	push	eax
	call	__EQUALS_MEMORY
	add	esp, 16					; 00000010H
	test	eax, eax
	jne	SHORT $LN11@TEST_PMC_B
	mov	DWORD PTR tv158[ebp], 1
	jmp	SHORT $LN12@TEST_PMC_B
$LN11@TEST_PMC_B:
	mov	DWORD PTR tv158[ebp], 0
$LN12@TEST_PMC_B:
	push	OFFSET $SG95031
	mov	ecx, DWORD PTR tv158[ebp]
	push	ecx
	push	4
	mov	edx, DWORD PTR _no$[ebp]
	push	edx
	push	OFFSET $SG95032
	call	_FormatTestLabel
	add	esp, 12					; 0000000cH
	push	eax
	mov	eax, DWORD PTR _env$[ebp]
	push	eax
	call	_TEST_Assert
	add	esp, 16					; 00000010H

; 45   :     if (w_result == PMC_STATUS_OK)

	cmp	DWORD PTR _w_result$[ebp], 0
	jne	SHORT $LN2@TEST_PMC_B

; 46   :         ep->PMC_Dispose(w);

	mov	esi, esp
	mov	ecx, DWORD PTR _w$[ebp]
	push	ecx
	mov	edx, DWORD PTR _ep$[ebp]
	mov	eax, DWORD PTR [edx+16]
	call	eax
	cmp	esi, esp
	call	__RTC_CheckEsp
$LN2@TEST_PMC_B:

; 47   :     if (v_result == PMC_STATUS_OK)

	cmp	DWORD PTR _v_result$[ebp], 0
	jne	SHORT $LN1@TEST_PMC_B

; 48   :         ep->PMC_Dispose(v);

	mov	esi, esp
	mov	ecx, DWORD PTR _v$[ebp]
	push	ecx
	mov	edx, DWORD PTR _ep$[ebp]
	mov	eax, DWORD PTR [edx+16]
	call	eax
	cmp	esi, esp
	call	__RTC_CheckEsp
$LN1@TEST_PMC_B:

; 49   : }

	push	edx
	mov	ecx, ebp
	push	eax
	lea	edx, DWORD PTR $LN18@TEST_PMC_B
	call	@_RTC_CheckStackVars@8
	pop	eax
	pop	edx
	pop	edi
	pop	esi
	mov	ecx, DWORD PTR __$ArrayPad$[ebp]
	xor	ecx, ebp
	call	@__security_check_cookie@4
	add	esp, 332				; 0000014cH
	cmp	ebp, esp
	call	__RTC_CheckEsp
	mov	esp, ebp
	pop	ebp
	ret	0
	npad	1
$LN18@TEST_PMC_B:
	DD	4
	DD	$LN17@TEST_PMC_B
$LN17@TEST_PMC_B:
	DD	-12					; fffffff4H
	DD	4
	DD	$LN13@TEST_PMC_B
	DD	-24					; ffffffe8H
	DD	4
	DD	$LN14@TEST_PMC_B
	DD	-288					; fffffee0H
	DD	256					; 00000100H
	DD	$LN15@TEST_PMC_B
	DD	-300					; fffffed4H
	DD	4
	DD	$LN16@TEST_PMC_B
$LN16@TEST_PMC_B:
	DB	97					; 00000061H
	DB	99					; 00000063H
	DB	116					; 00000074H
	DB	117					; 00000075H
	DB	97					; 00000061H
	DB	108					; 0000006cH
	DB	95					; 0000005fH
	DB	119					; 00000077H
	DB	95					; 0000005fH
	DB	98					; 00000062H
	DB	117					; 00000075H
	DB	102					; 00000066H
	DB	95					; 0000005fH
	DB	115					; 00000073H
	DB	105					; 00000069H
	DB	122					; 0000007aH
	DB	101					; 00000065H
	DB	0
$LN15@TEST_PMC_B:
	DB	97					; 00000061H
	DB	99					; 00000063H
	DB	116					; 00000074H
	DB	117					; 00000075H
	DB	97					; 00000061H
	DB	108					; 0000006cH
	DB	95					; 0000005fH
	DB	119					; 00000077H
	DB	95					; 0000005fH
	DB	98					; 00000062H
	DB	117					; 00000075H
	DB	102					; 00000066H
	DB	0
$LN14@TEST_PMC_B:
	DB	119					; 00000077H
	DB	0
$LN13@TEST_PMC_B:
	DB	118					; 00000076H
	DB	0
_TEST_PMC_BitwiseOr_I_X ENDP
_TEXT	ENDS
END
