; Listing generated by Microsoft (R) Optimizing Compiler Version 19.16.27026.1 

	TITLE	Z:\Sources\Lunor\Repos\rougemeilland\Palmtree.Math.Core.Uint\Palmtree.Math.Core.Uint\TEST_op_Pow.c
	.686P
	.XMM
	include listing.inc
	.model	flat

INCLUDELIB MSVCRTD
INCLUDELIB OLDNAMES

msvcjmc	SEGMENT
__7B7A869E_ctype@h DB 01H
__457DD326_basetsd@h DB 01H
__4384A2D9_corecrt_memcpy_s@h DB 01H
__4E51A221_corecrt_wstring@h DB 01H
__2140C079_string@h DB 01H
__1887E595_winnt@h DB 01H
__9FC7C64B_processthreadsapi@h DB 01H
__FA470AEC_memoryapi@h DB 01H
__F37DAFF1_winerror@h DB 01H
__7A450CCC_winbase@h DB 01H
__B4B40122_winioctl@h DB 01H
__86261D59_stralign@h DB 01H
__630249ED_pmc_uint_debug@h DB 01H
__B1951035_test_op_pow@c DB 01H
msvcjmc	ENDS
PUBLIC	_TEST_PMC_Pow_X_I
PUBLIC	__JustMyCode_Default
EXTRN	_TEST_Assert:PROC
EXTRN	_FormatTestLabel:PROC
EXTRN	_FormatTestMesssage:PROC
EXTRN	@_RTC_CheckStackVars@8:PROC
EXTRN	@__CheckForDebuggerJustMyCode@4:PROC
EXTRN	__RTC_CheckEsp:PROC
EXTRN	__RTC_InitBase:PROC
EXTRN	__RTC_Shutdown:PROC
_BSS	SEGMENT
?actual_z_buf@?1??TEST_PMC_Pow_X_I@@9@9 DB 010000H DUP (?) ; `TEST_PMC_Pow_X_I'::`2'::actual_z_buf
_BSS	ENDS
;	COMDAT rtc$TMZ
rtc$TMZ	SEGMENT
__RTC_Shutdown.rtc$TMZ DD FLAT:__RTC_Shutdown
rtc$TMZ	ENDS
;	COMDAT rtc$IMZ
rtc$IMZ	SEGMENT
__RTC_InitBase.rtc$IMZ DD FLAT:__RTC_InitBase
rtc$IMZ	ENDS
_DATA	SEGMENT
$SG94888 DB	'P', 00H, 'M', 00H, 'C', 00H, '_', 00H, 'F', 00H, 'r', 00H
	DB	'o', 00H, 'm', 00H, 'B', 00H, 'y', 00H, 't', 00H, 'e', 00H, 'A'
	DB	00H, 'r', 00H, 'r', 00H, 'a', 00H, 'y', 00H, 'n0', 0a9H, '_0^', 0b3H
	DB	'0', 0fcH, '0', 0c9H, '0L0', 01fH, 'g', 085H, '_', 01aH, 090H, 08aH
	DB	'0g0o0j0D0(', 00H, '%', 00H, 'd', 00H, ')', 00H, 00H, 00H
	ORG $+2
$SG94889 DB	'P', 00H, 'M', 00H, 'C', 00H, '_', 00H, 'P', 00H, 'o', 00H
	DB	'w', 00H, '_', 00H, 'X', 00H, '_', 00H, 'I', 00H, ' ', 00H, '('
	DB	00H, '%', 00H, 'd', 00H, '.', 00H, '%', 00H, 'd', 00H, ')', 00H
	DB	00H, 00H
$SG94890 DB	'P', 00H, 'M', 00H, 'C', 00H, '_', 00H, 'P', 00H, 'o', 00H
	DB	'w', 00H, '_', 00H, 'X', 00H, '_', 00H, 'I', 00H, 'n0', 0a9H, '_'
	DB	'0^', 0b3H, '0', 0fcH, '0', 0c9H, '0L0', 01fH, 'g', 085H, '_', 01aH
	DB	090H, 08aH, '0g0o0j0D0(', 00H, '%', 00H, 'd', 00H, ')', 00H, 00H
	DB	00H
	ORG $+2
$SG94891 DB	'P', 00H, 'M', 00H, 'C', 00H, '_', 00H, 'P', 00H, 'o', 00H
	DB	'w', 00H, '_', 00H, 'X', 00H, '_', 00H, 'I', 00H, ' ', 00H, '('
	DB	00H, '%', 00H, 'd', 00H, '.', 00H, '%', 00H, 'd', 00H, ')', 00H
	DB	00H, 00H
	ORG $+4
$SG94893 DB	'P', 00H, 'M', 00H, 'C', 00H, '_', 00H, 'T', 00H, 'o', 00H
	DB	'B', 00H, 'y', 00H, 't', 00H, 'e', 00H, 'A', 00H, 'r', 00H, 'r'
	DB	00H, 'a', 00H, 'y', 00H, 'n0', 0a9H, '_0^', 0b3H, '0', 0fcH, '0'
	DB	0c9H, '0L0', 01fH, 'g', 085H, '_', 01aH, 090H, 08aH, '0g0o0j0D'
	DB	'0(', 00H, '%', 00H, 'd', 00H, ')', 00H, 00H, 00H
	ORG $+2
$SG94894 DB	'P', 00H, 'M', 00H, 'C', 00H, '_', 00H, 'P', 00H, 'o', 00H
	DB	'w', 00H, '_', 00H, 'X', 00H, '_', 00H, 'I', 00H, ' ', 00H, '('
	DB	00H, '%', 00H, 'd', 00H, '.', 00H, '%', 00H, 'd', 00H, ')', 00H
	DB	00H, 00H
$SG94895 DB	0c7H, '0', 0fcH, '0', 0bfH, '0n0', 085H, 'Q', 0b9H, '[L0', 00H
	DB	'N', 0f4H, 081H, 'W0j0D0', 00H, 00H
	ORG $+2
$SG94896 DB	'P', 00H, 'M', 00H, 'C', 00H, '_', 00H, 'P', 00H, 'o', 00H
	DB	'w', 00H, '_', 00H, 'X', 00H, '_', 00H, 'I', 00H, ' ', 00H, '('
	DB	00H, '%', 00H, 'd', 00H, '.', 00H, '%', 00H, 'd', 00H, ')', 00H
	DB	00H, 00H
_DATA	ENDS
; Function compile flags: /Odt
;	COMDAT __JustMyCode_Default
_TEXT	SEGMENT
__JustMyCode_Default PROC				; COMDAT
	push	ebp
	mov	ebp, esp
	pop	ebp
	ret	0
__JustMyCode_Default ENDP
_TEXT	ENDS
; Function compile flags: /Odtp /RTCsu
; File z:\sources\lunor\repos\rougemeilland\palmtree.math.core.uint\palmtree.math.core.uint\pmc_uint_debug.h
_TEXT	SEGMENT
_buffer1$ = 8						; size = 4
_count1$ = 12						; size = 4
_buffer2$ = 16						; size = 4
_count2$ = 20						; size = 4
__EQUALS_MEMORY PROC

; 151  : {

	push	ebp
	mov	ebp, esp
	mov	ecx, OFFSET __630249ED_pmc_uint_debug@h
	call	@__CheckForDebuggerJustMyCode@4

; 152  :     if (count1 != count2)

	mov	eax, DWORD PTR _count1$[ebp]
	cmp	eax, DWORD PTR _count2$[ebp]
	je	SHORT $LN2@EQUALS_MEM

; 153  :         return (-1);

	or	eax, -1
	jmp	SHORT $LN1@EQUALS_MEM
$LN2@EQUALS_MEM:

; 154  :     while (count1 > 0)

	cmp	DWORD PTR _count1$[ebp], 0
	jbe	SHORT $LN3@EQUALS_MEM

; 155  :     {
; 156  :         if (*buffer1 != *buffer2)

	mov	ecx, DWORD PTR _buffer1$[ebp]
	movzx	edx, BYTE PTR [ecx]
	mov	eax, DWORD PTR _buffer2$[ebp]
	movzx	ecx, BYTE PTR [eax]
	cmp	edx, ecx
	je	SHORT $LN5@EQUALS_MEM

; 157  :             return (-1);

	or	eax, -1
	jmp	SHORT $LN1@EQUALS_MEM
$LN5@EQUALS_MEM:

; 158  :         ++buffer1;

	mov	edx, DWORD PTR _buffer1$[ebp]
	add	edx, 1
	mov	DWORD PTR _buffer1$[ebp], edx

; 159  :         ++buffer2;

	mov	eax, DWORD PTR _buffer2$[ebp]
	add	eax, 1
	mov	DWORD PTR _buffer2$[ebp], eax

; 160  :         --count1;

	mov	ecx, DWORD PTR _count1$[ebp]
	sub	ecx, 1
	mov	DWORD PTR _count1$[ebp], ecx

; 161  :     }

	jmp	SHORT $LN2@EQUALS_MEM
$LN3@EQUALS_MEM:

; 162  :     return (0);

	xor	eax, eax
$LN1@EQUALS_MEM:

; 163  : }

	cmp	ebp, esp
	call	__RTC_CheckEsp
	pop	ebp
	ret	0
__EQUALS_MEMORY ENDP
_TEXT	ENDS
; Function compile flags: /Odtp /RTCsu
; File z:\sources\lunor\repos\rougemeilland\palmtree.math.core.uint\palmtree.math.core.uint\test_op_pow.c
_TEXT	SEGMENT
tv159 = -64						; size = 4
tv144 = -60						; size = 4
tv92 = -56						; size = 4
tv74 = -52						; size = 4
_z_result$ = -48					; size = 4
_x_result$ = -44					; size = 4
_result$ = -40						; size = 4
_actual_z_buf_size$ = -32				; size = 4
_z$ = -20						; size = 4
_x$ = -8						; size = 4
_env$ = 8						; size = 4
_ep$ = 12						; size = 4
_no$ = 16						; size = 4
_x_buf$ = 20						; size = 4
_x_buf_size$ = 24					; size = 4
_y$ = 28						; size = 4
_desired_result_code$ = 32				; size = 4
_desired_z_buf$ = 36					; size = 4
_desired_z_buf_size$ = 40				; size = 4
_TEST_PMC_Pow_X_I PROC

; 33   : {

	push	ebp
	mov	ebp, esp
	sub	esp, 64					; 00000040H
	push	esi
	push	edi
	lea	edi, DWORD PTR [ebp-64]
	mov	ecx, 16					; 00000010H
	mov	eax, -858993460				; ccccccccH
	rep stosd
	mov	ecx, OFFSET __B1951035_test_op_pow@c
	call	@__CheckForDebuggerJustMyCode@4

; 34   :     PMC_HANDLE_UINT x;
; 35   :     PMC_HANDLE_UINT z;
; 36   :     static unsigned char actual_z_buf[0x10000];
; 37   :     size_t actual_z_buf_size;
; 38   :     PMC_STATUS_CODE result;
; 39   :     PMC_STATUS_CODE x_result;
; 40   :     PMC_STATUS_CODE z_result;
; 41   :     TEST_Assert(env, FormatTestLabel(L"PMC_Pow_X_I (%d.%d)", no, 1), (x_result = ep->FromByteArray(x_buf, x_buf_size, &x)) == PMC_STATUS_OK, FormatTestMesssage(L"PMC_FromByteArrayの復帰コードが期待通りではない(%d)", x_result));

	mov	esi, esp
	lea	eax, DWORD PTR _x$[ebp]
	push	eax
	mov	ecx, DWORD PTR _x_buf_size$[ebp]
	push	ecx
	mov	edx, DWORD PTR _x_buf$[ebp]
	push	edx
	mov	eax, DWORD PTR _ep$[ebp]
	mov	ecx, DWORD PTR [eax+24]
	call	ecx
	cmp	esi, esp
	call	__RTC_CheckEsp
	mov	DWORD PTR _x_result$[ebp], eax
	cmp	DWORD PTR _x_result$[ebp], 0
	jne	SHORT $LN6@TEST_PMC_P
	mov	DWORD PTR tv74[ebp], 1
	jmp	SHORT $LN7@TEST_PMC_P
$LN6@TEST_PMC_P:
	mov	DWORD PTR tv74[ebp], 0
$LN7@TEST_PMC_P:
	mov	edx, DWORD PTR _x_result$[ebp]
	push	edx
	push	OFFSET $SG94888
	call	_FormatTestMesssage
	add	esp, 8
	push	eax
	mov	eax, DWORD PTR tv74[ebp]
	push	eax
	push	1
	mov	ecx, DWORD PTR _no$[ebp]
	push	ecx
	push	OFFSET $SG94889
	call	_FormatTestLabel
	add	esp, 12					; 0000000cH
	push	eax
	mov	edx, DWORD PTR _env$[ebp]
	push	edx
	call	_TEST_Assert
	add	esp, 16					; 00000010H

; 42   :     TEST_Assert(env, FormatTestLabel(L"PMC_Pow_X_I (%d.%d)", no, 2), (z_result = ep->Pow_X_I(x, y, &z)) == desired_result_code, FormatTestMesssage(L"PMC_Pow_X_Iの復帰コードが期待通りではない(%d)", z_result));

	mov	esi, esp
	lea	eax, DWORD PTR _z$[ebp]
	push	eax
	mov	ecx, DWORD PTR _y$[ebp]
	push	ecx
	mov	edx, DWORD PTR _x$[ebp]
	push	edx
	mov	eax, DWORD PTR _ep$[ebp]
	mov	ecx, DWORD PTR [eax+268]
	call	ecx
	cmp	esi, esp
	call	__RTC_CheckEsp
	mov	DWORD PTR _z_result$[ebp], eax
	mov	edx, DWORD PTR _z_result$[ebp]
	cmp	edx, DWORD PTR _desired_result_code$[ebp]
	jne	SHORT $LN8@TEST_PMC_P
	mov	DWORD PTR tv92[ebp], 1
	jmp	SHORT $LN9@TEST_PMC_P
$LN8@TEST_PMC_P:
	mov	DWORD PTR tv92[ebp], 0
$LN9@TEST_PMC_P:
	mov	eax, DWORD PTR _z_result$[ebp]
	push	eax
	push	OFFSET $SG94890
	call	_FormatTestMesssage
	add	esp, 8
	push	eax
	mov	ecx, DWORD PTR tv92[ebp]
	push	ecx
	push	2
	mov	edx, DWORD PTR _no$[ebp]
	push	edx
	push	OFFSET $SG94891
	call	_FormatTestLabel
	add	esp, 12					; 0000000cH
	push	eax
	mov	eax, DWORD PTR _env$[ebp]
	push	eax
	call	_TEST_Assert
	add	esp, 16					; 00000010H

; 43   :     if (desired_result_code == PMC_STATUS_OK)

	cmp	DWORD PTR _desired_result_code$[ebp], 0
	jne	$LN2@TEST_PMC_P

; 44   :     {
; 45   :         TEST_Assert(env, FormatTestLabel(L"PMC_Pow_X_I (%d.%d)", no, 3), (result = ep->ToByteArray(z, actual_z_buf, sizeof(actual_z_buf), &actual_z_buf_size)) == PMC_STATUS_OK, FormatTestMesssage(L"PMC_ToByteArrayの復帰コードが期待通りではない(%d)", result));

	mov	esi, esp
	lea	ecx, DWORD PTR _actual_z_buf_size$[ebp]
	push	ecx
	push	65536					; 00010000H
	push	OFFSET ?actual_z_buf@?1??TEST_PMC_Pow_X_I@@9@9
	mov	edx, DWORD PTR _z$[ebp]
	push	edx
	mov	eax, DWORD PTR _ep$[ebp]
	mov	ecx, DWORD PTR [eax+28]
	call	ecx
	cmp	esi, esp
	call	__RTC_CheckEsp
	mov	DWORD PTR _result$[ebp], eax
	cmp	DWORD PTR _result$[ebp], 0
	jne	SHORT $LN10@TEST_PMC_P
	mov	DWORD PTR tv144[ebp], 1
	jmp	SHORT $LN11@TEST_PMC_P
$LN10@TEST_PMC_P:
	mov	DWORD PTR tv144[ebp], 0
$LN11@TEST_PMC_P:
	mov	edx, DWORD PTR _result$[ebp]
	push	edx
	push	OFFSET $SG94893
	call	_FormatTestMesssage
	add	esp, 8
	push	eax
	mov	eax, DWORD PTR tv144[ebp]
	push	eax
	push	3
	mov	ecx, DWORD PTR _no$[ebp]
	push	ecx
	push	OFFSET $SG94894
	call	_FormatTestLabel
	add	esp, 12					; 0000000cH
	push	eax
	mov	edx, DWORD PTR _env$[ebp]
	push	edx
	call	_TEST_Assert
	add	esp, 16					; 00000010H

; 46   :         TEST_Assert(env, FormatTestLabel(L"PMC_Pow_X_I (%d.%d)", no, 4), _EQUALS_MEMORY(actual_z_buf, actual_z_buf_size, desired_z_buf, desired_z_buf_size) == 0, L"データの内容が一致しない");

	mov	eax, DWORD PTR _desired_z_buf_size$[ebp]
	push	eax
	mov	ecx, DWORD PTR _desired_z_buf$[ebp]
	push	ecx
	mov	edx, DWORD PTR _actual_z_buf_size$[ebp]
	push	edx
	push	OFFSET ?actual_z_buf@?1??TEST_PMC_Pow_X_I@@9@9
	call	__EQUALS_MEMORY
	add	esp, 16					; 00000010H
	test	eax, eax
	jne	SHORT $LN12@TEST_PMC_P
	mov	DWORD PTR tv159[ebp], 1
	jmp	SHORT $LN13@TEST_PMC_P
$LN12@TEST_PMC_P:
	mov	DWORD PTR tv159[ebp], 0
$LN13@TEST_PMC_P:
	push	OFFSET $SG94895
	mov	eax, DWORD PTR tv159[ebp]
	push	eax
	push	4
	mov	ecx, DWORD PTR _no$[ebp]
	push	ecx
	push	OFFSET $SG94896
	call	_FormatTestLabel
	add	esp, 12					; 0000000cH
	push	eax
	mov	edx, DWORD PTR _env$[ebp]
	push	edx
	call	_TEST_Assert
	add	esp, 16					; 00000010H
$LN2@TEST_PMC_P:

; 47   :     }
; 48   :     if (z_result == PMC_STATUS_OK)

	cmp	DWORD PTR _z_result$[ebp], 0
	jne	SHORT $LN3@TEST_PMC_P

; 49   :         ep->Dispose(z);

	mov	esi, esp
	mov	eax, DWORD PTR _z$[ebp]
	push	eax
	mov	ecx, DWORD PTR _ep$[ebp]
	mov	edx, DWORD PTR [ecx+16]
	call	edx
	cmp	esi, esp
	call	__RTC_CheckEsp
$LN3@TEST_PMC_P:

; 50   :     if (x_result == PMC_STATUS_OK)

	cmp	DWORD PTR _x_result$[ebp], 0
	jne	SHORT $LN1@TEST_PMC_P

; 51   :         ep->Dispose(x);

	mov	esi, esp
	mov	eax, DWORD PTR _x$[ebp]
	push	eax
	mov	ecx, DWORD PTR _ep$[ebp]
	mov	edx, DWORD PTR [ecx+16]
	call	edx
	cmp	esi, esp
	call	__RTC_CheckEsp
$LN1@TEST_PMC_P:

; 52   : }

	push	edx
	mov	ecx, ebp
	push	eax
	lea	edx, DWORD PTR $LN18@TEST_PMC_P
	call	@_RTC_CheckStackVars@8
	pop	eax
	pop	edx
	pop	edi
	pop	esi
	add	esp, 64					; 00000040H
	cmp	ebp, esp
	call	__RTC_CheckEsp
	mov	esp, ebp
	pop	ebp
	ret	0
	npad	1
$LN18@TEST_PMC_P:
	DD	3
	DD	$LN17@TEST_PMC_P
$LN17@TEST_PMC_P:
	DD	-8					; fffffff8H
	DD	4
	DD	$LN14@TEST_PMC_P
	DD	-20					; ffffffecH
	DD	4
	DD	$LN15@TEST_PMC_P
	DD	-32					; ffffffe0H
	DD	4
	DD	$LN16@TEST_PMC_P
$LN16@TEST_PMC_P:
	DB	97					; 00000061H
	DB	99					; 00000063H
	DB	116					; 00000074H
	DB	117					; 00000075H
	DB	97					; 00000061H
	DB	108					; 0000006cH
	DB	95					; 0000005fH
	DB	122					; 0000007aH
	DB	95					; 0000005fH
	DB	98					; 00000062H
	DB	117					; 00000075H
	DB	102					; 00000066H
	DB	95					; 0000005fH
	DB	115					; 00000073H
	DB	105					; 00000069H
	DB	122					; 0000007aH
	DB	101					; 00000065H
	DB	0
$LN15@TEST_PMC_P:
	DB	122					; 0000007aH
	DB	0
$LN14@TEST_PMC_P:
	DB	120					; 00000078H
	DB	0
_TEST_PMC_Pow_X_I ENDP
_TEXT	ENDS
END
