; Listing generated by Microsoft (R) Optimizing Compiler Version 19.16.27026.1 

	TITLE	Z:\Sources\Lunor\Repos\rougemeilland\Palmtree.Math.Core.Uint\Palmtree.Math.Core.Uint\TEST_op_From_To.c
	.686P
	.XMM
	include listing.inc
	.model	flat

INCLUDELIB MSVCRTD
INCLUDELIB OLDNAMES

msvcjmc	SEGMENT
__7B7A869E_ctype@h DB 01H
__457DD326_basetsd@h DB 01H
__4384A2D9_corecrt_memcpy_s@h DB 01H
__4E51A221_corecrt_wstring@h DB 01H
__2140C079_string@h DB 01H
__1887E595_winnt@h DB 01H
__9FC7C64B_processthreadsapi@h DB 01H
__FA470AEC_memoryapi@h DB 01H
__F37DAFF1_winerror@h DB 01H
__7A450CCC_winbase@h DB 01H
__B4B40122_winioctl@h DB 01H
__86261D59_stralign@h DB 01H
__630249ED_pmc_uint_debug@h DB 01H
__92A13453_test_op_from_to@c DB 01H
msvcjmc	ENDS
PUBLIC	_TEST_PMC_From_I
PUBLIC	_TEST_PMC_From_L
PUBLIC	_TEST_PMC_To_X_I
PUBLIC	_TEST_PMC_To_X_L
PUBLIC	__JustMyCode_Default
EXTRN	_TEST_Assert:PROC
EXTRN	_FormatTestLabel:PROC
EXTRN	_FormatTestMesssage:PROC
EXTRN	@_RTC_CheckStackVars@8:PROC
EXTRN	@__CheckForDebuggerJustMyCode@4:PROC
EXTRN	@__security_check_cookie@4:PROC
EXTRN	__RTC_CheckEsp:PROC
EXTRN	__RTC_InitBase:PROC
EXTRN	__RTC_Shutdown:PROC
EXTRN	___security_cookie:DWORD
;	COMDAT rtc$TMZ
rtc$TMZ	SEGMENT
__RTC_Shutdown.rtc$TMZ DD FLAT:__RTC_Shutdown
rtc$TMZ	ENDS
;	COMDAT rtc$IMZ
rtc$IMZ	SEGMENT
__RTC_InitBase.rtc$IMZ DD FLAT:__RTC_InitBase
rtc$IMZ	ENDS
_DATA	SEGMENT
$SG94689 DB	'P', 00H, 'M', 00H, 'C', 00H, '_', 00H, 'F', 00H, 'r', 00H
	DB	'o', 00H, 'm', 00H, '_', 00H, 'I', 00H, 'n0', 0a9H, '_0^', 0b3H
	DB	'0', 0fcH, '0', 0c9H, '0L0', 01fH, 'g', 085H, '_', 01aH, 090H, 08aH
	DB	'0g0o0j0D0(', 00H, '%', 00H, 'd', 00H, ')', 00H, 00H, 00H
$SG94690 DB	'P', 00H, 'M', 00H, 'C', 00H, '_', 00H, 'F', 00H, 'r', 00H
	DB	'o', 00H, 'm', 00H, '_', 00H, 'I', 00H, ' ', 00H, '(', 00H, '%'
	DB	00H, 'd', 00H, '.', 00H, '%', 00H, 'd', 00H, ')', 00H, 00H, 00H
	ORG $+6
$SG94691 DB	'P', 00H, 'M', 00H, 'C', 00H, '_', 00H, 'T', 00H, 'o', 00H
	DB	'B', 00H, 'y', 00H, 't', 00H, 'e', 00H, 'A', 00H, 'r', 00H, 'r'
	DB	00H, 'a', 00H, 'y', 00H, 'n0', 0a9H, '_0^', 0b3H, '0', 0fcH, '0'
	DB	0c9H, '0L0', 01fH, 'g', 085H, '_', 01aH, 090H, 08aH, '0g0o0j0D'
	DB	'0(', 00H, '%', 00H, 'd', 00H, ')', 00H, 00H, 00H
	ORG $+2
$SG94692 DB	'P', 00H, 'M', 00H, 'C', 00H, '_', 00H, 'F', 00H, 'r', 00H
	DB	'o', 00H, 'm', 00H, '_', 00H, 'I', 00H, ' ', 00H, '(', 00H, '%'
	DB	00H, 'd', 00H, '.', 00H, '%', 00H, 'd', 00H, ')', 00H, 00H, 00H
	ORG $+2
$SG94693 DB	0c7H, '0', 0fcH, '0', 0bfH, '0n0', 085H, 'Q', 0b9H, '[L0', 00H
	DB	'N', 0f4H, 081H, 'W0j0D0', 00H, 00H
	ORG $+2
$SG94694 DB	'P', 00H, 'M', 00H, 'C', 00H, '_', 00H, 'F', 00H, 'r', 00H
	DB	'o', 00H, 'm', 00H, '_', 00H, 'I', 00H, ' ', 00H, '(', 00H, '%'
	DB	00H, 'd', 00H, '.', 00H, '%', 00H, 'd', 00H, ')', 00H, 00H, 00H
	ORG $+2
$SG94714 DB	'P', 00H, 'M', 00H, 'C', 00H, '_', 00H, 'F', 00H, 'r', 00H
	DB	'o', 00H, 'm', 00H, '_', 00H, 'L', 00H, 'n0', 0a9H, '_0^', 0b3H
	DB	'0', 0fcH, '0', 0c9H, '0L0', 01fH, 'g', 085H, '_', 01aH, 090H, 08aH
	DB	'0g0o0j0D0(', 00H, '%', 00H, 'd', 00H, ')', 00H, 00H, 00H
$SG94715 DB	'P', 00H, 'M', 00H, 'C', 00H, '_', 00H, 'F', 00H, 'r', 00H
	DB	'o', 00H, 'm', 00H, '_', 00H, 'L', 00H, ' ', 00H, '(', 00H, '%'
	DB	00H, 'd', 00H, '.', 00H, '%', 00H, 'd', 00H, ')', 00H, 00H, 00H
	ORG $+2
$SG94716 DB	'P', 00H, 'M', 00H, 'C', 00H, '_', 00H, 'T', 00H, 'o', 00H
	DB	'B', 00H, 'y', 00H, 't', 00H, 'e', 00H, 'A', 00H, 'r', 00H, 'r'
	DB	00H, 'a', 00H, 'y', 00H, 'n0', 0a9H, '_0^', 0b3H, '0', 0fcH, '0'
	DB	0c9H, '0L0', 01fH, 'g', 085H, '_', 01aH, 090H, 08aH, '0g0o0j0D'
	DB	'0(', 00H, '%', 00H, 'd', 00H, ')', 00H, 00H, 00H
	ORG $+2
$SG94717 DB	'P', 00H, 'M', 00H, 'C', 00H, '_', 00H, 'F', 00H, 'r', 00H
	DB	'o', 00H, 'm', 00H, '_', 00H, 'L', 00H, ' ', 00H, '(', 00H, '%'
	DB	00H, 'd', 00H, '.', 00H, '%', 00H, 'd', 00H, ')', 00H, 00H, 00H
	ORG $+2
$SG94718 DB	0c7H, '0', 0fcH, '0', 0bfH, '0n0', 085H, 'Q', 0b9H, '[L0', 00H
	DB	'N', 0f4H, 081H, 'W0j0D0', 00H, 00H
	ORG $+2
$SG94719 DB	'P', 00H, 'M', 00H, 'C', 00H, '_', 00H, 'F', 00H, 'r', 00H
	DB	'o', 00H, 'm', 00H, '_', 00H, 'L', 00H, ' ', 00H, '(', 00H, '%'
	DB	00H, 'd', 00H, '.', 00H, '%', 00H, 'd', 00H, ')', 00H, 00H, 00H
	ORG $+6
$SG94740 DB	'P', 00H, 'M', 00H, 'C', 00H, '_', 00H, 'F', 00H, 'r', 00H
	DB	'o', 00H, 'm', 00H, 'B', 00H, 'y', 00H, 't', 00H, 'e', 00H, 'A'
	DB	00H, 'r', 00H, 'r', 00H, 'a', 00H, 'y', 00H, 'n0', 0a9H, '_0^', 0b3H
	DB	'0', 0fcH, '0', 0c9H, '0L0', 01fH, 'g', 085H, '_', 01aH, 090H, 08aH
	DB	'0g0o0j0D0(', 00H, '%', 00H, 'd', 00H, ')', 00H, 00H, 00H
	ORG $+2
$SG94741 DB	'P', 00H, 'M', 00H, 'C', 00H, '_', 00H, 'T', 00H, 'o', 00H
	DB	'_', 00H, 'X', 00H, '_', 00H, 'I', 00H, ' ', 00H, '(', 00H, '%'
	DB	00H, 'd', 00H, '.', 00H, '%', 00H, 'd', 00H, ')', 00H, 00H, 00H
	ORG $+2
$SG94742 DB	'P', 00H, 'M', 00H, 'C', 00H, '_', 00H, 'T', 00H, 'o', 00H
	DB	'_', 00H, 'X', 00H, '_', 00H, 'I', 00H, 'n0', 0a9H, '_0^', 0b3H
	DB	'0', 0fcH, '0', 0c9H, '0L0', 01fH, 'g', 085H, '_', 01aH, 090H, 08aH
	DB	'0g0o0j0D0(', 00H, '%', 00H, 'd', 00H, ')', 00H, 00H, 00H
$SG94743 DB	'P', 00H, 'M', 00H, 'C', 00H, '_', 00H, 'T', 00H, 'o', 00H
	DB	'_', 00H, 'X', 00H, '_', 00H, 'I', 00H, ' ', 00H, '(', 00H, '%'
	DB	00H, 'd', 00H, '.', 00H, '%', 00H, 'd', 00H, ')', 00H, 00H, 00H
	ORG $+2
$SG94745 DB	0c7H, '0', 0fcH, '0', 0bfH, '0n0', 085H, 'Q', 0b9H, '[L0', 00H
	DB	'N', 0f4H, 081H, 'W0j0D0', 00H, 00H
	ORG $+2
$SG94746 DB	'P', 00H, 'M', 00H, 'C', 00H, '_', 00H, 'T', 00H, 'o', 00H
	DB	'_', 00H, 'X', 00H, '_', 00H, 'I', 00H, ' ', 00H, '(', 00H, '%'
	DB	00H, 'd', 00H, '.', 00H, '%', 00H, 'd', 00H, ')', 00H, 00H, 00H
	ORG $+6
$SG94767 DB	'P', 00H, 'M', 00H, 'C', 00H, '_', 00H, 'F', 00H, 'r', 00H
	DB	'o', 00H, 'm', 00H, 'B', 00H, 'y', 00H, 't', 00H, 'e', 00H, 'A'
	DB	00H, 'r', 00H, 'r', 00H, 'a', 00H, 'y', 00H, 'n0', 0a9H, '_0^', 0b3H
	DB	'0', 0fcH, '0', 0c9H, '0L0', 01fH, 'g', 085H, '_', 01aH, 090H, 08aH
	DB	'0g0o0j0D0(', 00H, '%', 00H, 'd', 00H, ')', 00H, 00H, 00H
	ORG $+2
$SG94768 DB	'P', 00H, 'M', 00H, 'C', 00H, '_', 00H, 'T', 00H, 'o', 00H
	DB	'_', 00H, 'X', 00H, '_', 00H, 'L', 00H, ' ', 00H, '(', 00H, '%'
	DB	00H, 'd', 00H, '.', 00H, '%', 00H, 'd', 00H, ')', 00H, 00H, 00H
	ORG $+2
$SG94769 DB	'P', 00H, 'M', 00H, 'C', 00H, '_', 00H, 'T', 00H, 'o', 00H
	DB	'_', 00H, 'X', 00H, '_', 00H, 'I', 00H, 'n0', 0a9H, '_0^', 0b3H
	DB	'0', 0fcH, '0', 0c9H, '0L0', 01fH, 'g', 085H, '_', 01aH, 090H, 08aH
	DB	'0g0o0j0D0(', 00H, '%', 00H, 'd', 00H, ')', 00H, 00H, 00H
$SG94770 DB	'P', 00H, 'M', 00H, 'C', 00H, '_', 00H, 'T', 00H, 'o', 00H
	DB	'_', 00H, 'X', 00H, '_', 00H, 'L', 00H, ' ', 00H, '(', 00H, '%'
	DB	00H, 'd', 00H, '.', 00H, '%', 00H, 'd', 00H, ')', 00H, 00H, 00H
	ORG $+2
$SG94772 DB	0c7H, '0', 0fcH, '0', 0bfH, '0n0', 085H, 'Q', 0b9H, '[L0', 00H
	DB	'N', 0f4H, 081H, 'W0j0D0', 00H, 00H
	ORG $+2
$SG94773 DB	'P', 00H, 'M', 00H, 'C', 00H, '_', 00H, 'T', 00H, 'o', 00H
	DB	'_', 00H, 'X', 00H, '_', 00H, 'L', 00H, ' ', 00H, '(', 00H, '%'
	DB	00H, 'd', 00H, '.', 00H, '%', 00H, 'd', 00H, ')', 00H, 00H, 00H
_DATA	ENDS
; Function compile flags: /Odt
;	COMDAT __JustMyCode_Default
_TEXT	SEGMENT
__JustMyCode_Default PROC				; COMDAT
	push	ebp
	mov	ebp, esp
	pop	ebp
	ret	0
__JustMyCode_Default ENDP
_TEXT	ENDS
; Function compile flags: /Odtp /RTCsu
; File z:\sources\lunor\repos\rougemeilland\palmtree.math.core.uint\palmtree.math.core.uint\pmc_uint_debug.h
_TEXT	SEGMENT
_buffer1$ = 8						; size = 4
_count1$ = 12						; size = 4
_buffer2$ = 16						; size = 4
_count2$ = 20						; size = 4
__EQUALS_MEMORY PROC

; 147  : {

	push	ebp
	mov	ebp, esp
	mov	ecx, OFFSET __630249ED_pmc_uint_debug@h
	call	@__CheckForDebuggerJustMyCode@4

; 148  :     if (count1 != count2)

	mov	eax, DWORD PTR _count1$[ebp]
	cmp	eax, DWORD PTR _count2$[ebp]
	je	SHORT $LN2@EQUALS_MEM

; 149  :         return (-1);

	or	eax, -1
	jmp	SHORT $LN1@EQUALS_MEM
$LN2@EQUALS_MEM:

; 150  :     while (count1 > 0)

	cmp	DWORD PTR _count1$[ebp], 0
	jbe	SHORT $LN3@EQUALS_MEM

; 151  :     {
; 152  :         if (*buffer1 != *buffer2)

	mov	ecx, DWORD PTR _buffer1$[ebp]
	movzx	edx, BYTE PTR [ecx]
	mov	eax, DWORD PTR _buffer2$[ebp]
	movzx	ecx, BYTE PTR [eax]
	cmp	edx, ecx
	je	SHORT $LN5@EQUALS_MEM

; 153  :             return (-1);

	or	eax, -1
	jmp	SHORT $LN1@EQUALS_MEM
$LN5@EQUALS_MEM:

; 154  :         ++buffer1;

	mov	edx, DWORD PTR _buffer1$[ebp]
	add	edx, 1
	mov	DWORD PTR _buffer1$[ebp], edx

; 155  :         ++buffer2;

	mov	eax, DWORD PTR _buffer2$[ebp]
	add	eax, 1
	mov	DWORD PTR _buffer2$[ebp], eax

; 156  :         --count1;

	mov	ecx, DWORD PTR _count1$[ebp]
	sub	ecx, 1
	mov	DWORD PTR _count1$[ebp], ecx

; 157  :     }

	jmp	SHORT $LN2@EQUALS_MEM
$LN3@EQUALS_MEM:

; 158  :     return (0);

	xor	eax, eax
$LN1@EQUALS_MEM:

; 159  : }

	cmp	ebp, esp
	call	__RTC_CheckEsp
	pop	ebp
	ret	0
__EQUALS_MEMORY ENDP
_TEXT	ENDS
; Function compile flags: /Odtp /RTCsu
; File z:\sources\lunor\repos\rougemeilland\palmtree.math.core.uint\palmtree.math.core.uint\test_op_from_to.c
_TEXT	SEGMENT
tv134 = -48						; size = 4
tv91 = -44						; size = 4
tv74 = -40						; size = 4
_x_result$ = -36					; size = 4
_result$ = -32						; size = 4
_rvalue$ = -24						; size = 8
_x$ = -8						; size = 4
_env$ = 8						; size = 4
_ep$ = 12						; size = 4
_no$ = 16						; size = 4
_buf$ = 20						; size = 4
_buf_size$ = 24						; size = 4
_desired_result_code$ = 28				; size = 4
_desired_rvalue$ = 32					; size = 8
_TEST_PMC_To_X_L PROC

; 75   : {

	push	ebp
	mov	ebp, esp
	sub	esp, 48					; 00000030H
	push	esi
	push	edi
	lea	edi, DWORD PTR [ebp-48]
	mov	ecx, 12					; 0000000cH
	mov	eax, -858993460				; ccccccccH
	rep stosd
	mov	ecx, OFFSET __92A13453_test_op_from_to@c
	call	@__CheckForDebuggerJustMyCode@4

; 76   :     PMC_HANDLE_UINT x;
; 77   :     unsigned __int64 rvalue;
; 78   :     PMC_STATUS_CODE result;
; 79   :     PMC_STATUS_CODE x_result;
; 80   :     TEST_Assert(env, FormatTestLabel(L"PMC_To_X_L (%d.%d)", no, 1), (x_result = ep->FromByteArray(buf, buf_size, &x)) == PMC_STATUS_OK, FormatTestMesssage(L"PMC_FromByteArrayの復帰コードが期待通りではない(%d)", x_result));

	mov	esi, esp
	lea	eax, DWORD PTR _x$[ebp]
	push	eax
	mov	ecx, DWORD PTR _buf_size$[ebp]
	push	ecx
	mov	edx, DWORD PTR _buf$[ebp]
	push	edx
	mov	eax, DWORD PTR _ep$[ebp]
	mov	ecx, DWORD PTR [eax+28]
	call	ecx
	cmp	esi, esp
	call	__RTC_CheckEsp
	mov	DWORD PTR _x_result$[ebp], eax
	cmp	DWORD PTR _x_result$[ebp], 0
	jne	SHORT $LN5@TEST_PMC_T
	mov	DWORD PTR tv74[ebp], 1
	jmp	SHORT $LN6@TEST_PMC_T
$LN5@TEST_PMC_T:
	mov	DWORD PTR tv74[ebp], 0
$LN6@TEST_PMC_T:
	mov	edx, DWORD PTR _x_result$[ebp]
	push	edx
	push	OFFSET $SG94767
	call	_FormatTestMesssage
	add	esp, 8
	push	eax
	mov	eax, DWORD PTR tv74[ebp]
	push	eax
	push	1
	mov	ecx, DWORD PTR _no$[ebp]
	push	ecx
	push	OFFSET $SG94768
	call	_FormatTestLabel
	add	esp, 12					; 0000000cH
	push	eax
	mov	edx, DWORD PTR _env$[ebp]
	push	edx
	call	_TEST_Assert
	add	esp, 16					; 00000010H

; 81   :     TEST_Assert(env, FormatTestLabel(L"PMC_To_X_L (%d.%d)", no, 2), (result = ep->To_X_L(x, &rvalue)) == desired_result_code, FormatTestMesssage(L"PMC_To_X_Iの復帰コードが期待通りではない(%d)", result));

	mov	esi, esp
	lea	eax, DWORD PTR _rvalue$[ebp]
	push	eax
	mov	ecx, DWORD PTR _x$[ebp]
	push	ecx
	mov	edx, DWORD PTR _ep$[ebp]
	mov	eax, DWORD PTR [edx+52]
	call	eax
	cmp	esi, esp
	call	__RTC_CheckEsp
	mov	DWORD PTR _result$[ebp], eax
	mov	ecx, DWORD PTR _result$[ebp]
	cmp	ecx, DWORD PTR _desired_result_code$[ebp]
	jne	SHORT $LN7@TEST_PMC_T
	mov	DWORD PTR tv91[ebp], 1
	jmp	SHORT $LN8@TEST_PMC_T
$LN7@TEST_PMC_T:
	mov	DWORD PTR tv91[ebp], 0
$LN8@TEST_PMC_T:
	mov	edx, DWORD PTR _result$[ebp]
	push	edx
	push	OFFSET $SG94769
	call	_FormatTestMesssage
	add	esp, 8
	push	eax
	mov	eax, DWORD PTR tv91[ebp]
	push	eax
	push	2
	mov	ecx, DWORD PTR _no$[ebp]
	push	ecx
	push	OFFSET $SG94770
	call	_FormatTestLabel
	add	esp, 12					; 0000000cH
	push	eax
	mov	edx, DWORD PTR _env$[ebp]
	push	edx
	call	_TEST_Assert
	add	esp, 16					; 00000010H

; 82   :     if (desired_result_code == PMC_STATUS_OK)

	cmp	DWORD PTR _desired_result_code$[ebp], 0
	jne	SHORT $LN2@TEST_PMC_T

; 83   :         TEST_Assert(env, FormatTestLabel(L"PMC_To_X_L (%d.%d)", no, 3), rvalue == desired_rvalue, L"データの内容が一致しない");

	mov	eax, DWORD PTR _rvalue$[ebp]
	cmp	eax, DWORD PTR _desired_rvalue$[ebp]
	jne	SHORT $LN9@TEST_PMC_T
	mov	ecx, DWORD PTR _rvalue$[ebp+4]
	cmp	ecx, DWORD PTR _desired_rvalue$[ebp+4]
	jne	SHORT $LN9@TEST_PMC_T
	mov	DWORD PTR tv134[ebp], 1
	jmp	SHORT $LN10@TEST_PMC_T
$LN9@TEST_PMC_T:
	mov	DWORD PTR tv134[ebp], 0
$LN10@TEST_PMC_T:
	push	OFFSET $SG94772
	mov	edx, DWORD PTR tv134[ebp]
	push	edx
	push	3
	mov	eax, DWORD PTR _no$[ebp]
	push	eax
	push	OFFSET $SG94773
	call	_FormatTestLabel
	add	esp, 12					; 0000000cH
	push	eax
	mov	ecx, DWORD PTR _env$[ebp]
	push	ecx
	call	_TEST_Assert
	add	esp, 16					; 00000010H
$LN2@TEST_PMC_T:

; 84   :     if (x_result == PMC_STATUS_OK)

	cmp	DWORD PTR _x_result$[ebp], 0
	jne	SHORT $LN1@TEST_PMC_T

; 85   :         ep->Dispose(x);

	mov	esi, esp
	mov	edx, DWORD PTR _x$[ebp]
	push	edx
	mov	eax, DWORD PTR _ep$[ebp]
	mov	ecx, DWORD PTR [eax+16]
	call	ecx
	cmp	esi, esp
	call	__RTC_CheckEsp
$LN1@TEST_PMC_T:

; 86   : }

	push	edx
	mov	ecx, ebp
	push	eax
	lea	edx, DWORD PTR $LN14@TEST_PMC_T
	call	@_RTC_CheckStackVars@8
	pop	eax
	pop	edx
	pop	edi
	pop	esi
	add	esp, 48					; 00000030H
	cmp	ebp, esp
	call	__RTC_CheckEsp
	mov	esp, ebp
	pop	ebp
	ret	0
	npad	2
$LN14@TEST_PMC_T:
	DD	2
	DD	$LN13@TEST_PMC_T
$LN13@TEST_PMC_T:
	DD	-8					; fffffff8H
	DD	4
	DD	$LN11@TEST_PMC_T
	DD	-24					; ffffffe8H
	DD	8
	DD	$LN12@TEST_PMC_T
$LN12@TEST_PMC_T:
	DB	114					; 00000072H
	DB	118					; 00000076H
	DB	97					; 00000061H
	DB	108					; 0000006cH
	DB	117					; 00000075H
	DB	101					; 00000065H
	DB	0
$LN11@TEST_PMC_T:
	DB	120					; 00000078H
	DB	0
_TEST_PMC_To_X_L ENDP
_TEXT	ENDS
; Function compile flags: /Odtp /RTCsu
; File z:\sources\lunor\repos\rougemeilland\palmtree.math.core.uint\palmtree.math.core.uint\test_op_from_to.c
_TEXT	SEGMENT
tv134 = -44						; size = 4
tv91 = -40						; size = 4
tv74 = -36						; size = 4
_x_result$ = -32					; size = 4
_result$ = -28						; size = 4
_rvalue$ = -20						; size = 4
_x$ = -8						; size = 4
_env$ = 8						; size = 4
_ep$ = 12						; size = 4
_no$ = 16						; size = 4
_buf$ = 20						; size = 4
_buf_size$ = 24						; size = 4
_desired_result_code$ = 28				; size = 4
_desired_rvalue$ = 32					; size = 4
_TEST_PMC_To_X_I PROC

; 61   : {

	push	ebp
	mov	ebp, esp
	sub	esp, 44					; 0000002cH
	push	esi
	push	edi
	lea	edi, DWORD PTR [ebp-44]
	mov	ecx, 11					; 0000000bH
	mov	eax, -858993460				; ccccccccH
	rep stosd
	mov	ecx, OFFSET __92A13453_test_op_from_to@c
	call	@__CheckForDebuggerJustMyCode@4

; 62   :     PMC_HANDLE_UINT x;
; 63   :     unsigned __int32 rvalue;
; 64   :     PMC_STATUS_CODE result;
; 65   :     PMC_STATUS_CODE x_result;
; 66   :     TEST_Assert(env, FormatTestLabel(L"PMC_To_X_I (%d.%d)", no, 1), (x_result = ep->FromByteArray(buf, buf_size, &x)) == PMC_STATUS_OK, FormatTestMesssage(L"PMC_FromByteArrayの復帰コードが期待通りではない(%d)", x_result));

	mov	esi, esp
	lea	eax, DWORD PTR _x$[ebp]
	push	eax
	mov	ecx, DWORD PTR _buf_size$[ebp]
	push	ecx
	mov	edx, DWORD PTR _buf$[ebp]
	push	edx
	mov	eax, DWORD PTR _ep$[ebp]
	mov	ecx, DWORD PTR [eax+28]
	call	ecx
	cmp	esi, esp
	call	__RTC_CheckEsp
	mov	DWORD PTR _x_result$[ebp], eax
	cmp	DWORD PTR _x_result$[ebp], 0
	jne	SHORT $LN5@TEST_PMC_T
	mov	DWORD PTR tv74[ebp], 1
	jmp	SHORT $LN6@TEST_PMC_T
$LN5@TEST_PMC_T:
	mov	DWORD PTR tv74[ebp], 0
$LN6@TEST_PMC_T:
	mov	edx, DWORD PTR _x_result$[ebp]
	push	edx
	push	OFFSET $SG94740
	call	_FormatTestMesssage
	add	esp, 8
	push	eax
	mov	eax, DWORD PTR tv74[ebp]
	push	eax
	push	1
	mov	ecx, DWORD PTR _no$[ebp]
	push	ecx
	push	OFFSET $SG94741
	call	_FormatTestLabel
	add	esp, 12					; 0000000cH
	push	eax
	mov	edx, DWORD PTR _env$[ebp]
	push	edx
	call	_TEST_Assert
	add	esp, 16					; 00000010H

; 67   :     TEST_Assert(env, FormatTestLabel(L"PMC_To_X_I (%d.%d)", no, 2), (result = ep->To_X_I(x, &rvalue)) == desired_result_code, FormatTestMesssage(L"PMC_To_X_Iの復帰コードが期待通りではない(%d)", result));

	mov	esi, esp
	lea	eax, DWORD PTR _rvalue$[ebp]
	push	eax
	mov	ecx, DWORD PTR _x$[ebp]
	push	ecx
	mov	edx, DWORD PTR _ep$[ebp]
	mov	eax, DWORD PTR [edx+48]
	call	eax
	cmp	esi, esp
	call	__RTC_CheckEsp
	mov	DWORD PTR _result$[ebp], eax
	mov	ecx, DWORD PTR _result$[ebp]
	cmp	ecx, DWORD PTR _desired_result_code$[ebp]
	jne	SHORT $LN7@TEST_PMC_T
	mov	DWORD PTR tv91[ebp], 1
	jmp	SHORT $LN8@TEST_PMC_T
$LN7@TEST_PMC_T:
	mov	DWORD PTR tv91[ebp], 0
$LN8@TEST_PMC_T:
	mov	edx, DWORD PTR _result$[ebp]
	push	edx
	push	OFFSET $SG94742
	call	_FormatTestMesssage
	add	esp, 8
	push	eax
	mov	eax, DWORD PTR tv91[ebp]
	push	eax
	push	2
	mov	ecx, DWORD PTR _no$[ebp]
	push	ecx
	push	OFFSET $SG94743
	call	_FormatTestLabel
	add	esp, 12					; 0000000cH
	push	eax
	mov	edx, DWORD PTR _env$[ebp]
	push	edx
	call	_TEST_Assert
	add	esp, 16					; 00000010H

; 68   :     if (desired_result_code == PMC_STATUS_OK)

	cmp	DWORD PTR _desired_result_code$[ebp], 0
	jne	SHORT $LN2@TEST_PMC_T

; 69   :         TEST_Assert(env, FormatTestLabel(L"PMC_To_X_I (%d.%d)", no, 3), rvalue == desired_rvalue, L"データの内容が一致しない");

	mov	eax, DWORD PTR _rvalue$[ebp]
	cmp	eax, DWORD PTR _desired_rvalue$[ebp]
	jne	SHORT $LN9@TEST_PMC_T
	mov	DWORD PTR tv134[ebp], 1
	jmp	SHORT $LN10@TEST_PMC_T
$LN9@TEST_PMC_T:
	mov	DWORD PTR tv134[ebp], 0
$LN10@TEST_PMC_T:
	push	OFFSET $SG94745
	mov	ecx, DWORD PTR tv134[ebp]
	push	ecx
	push	3
	mov	edx, DWORD PTR _no$[ebp]
	push	edx
	push	OFFSET $SG94746
	call	_FormatTestLabel
	add	esp, 12					; 0000000cH
	push	eax
	mov	eax, DWORD PTR _env$[ebp]
	push	eax
	call	_TEST_Assert
	add	esp, 16					; 00000010H
$LN2@TEST_PMC_T:

; 70   :     if (x_result == PMC_STATUS_OK)

	cmp	DWORD PTR _x_result$[ebp], 0
	jne	SHORT $LN1@TEST_PMC_T

; 71   :         ep->Dispose(x);

	mov	esi, esp
	mov	ecx, DWORD PTR _x$[ebp]
	push	ecx
	mov	edx, DWORD PTR _ep$[ebp]
	mov	eax, DWORD PTR [edx+16]
	call	eax
	cmp	esi, esp
	call	__RTC_CheckEsp
$LN1@TEST_PMC_T:

; 72   : }

	push	edx
	mov	ecx, ebp
	push	eax
	lea	edx, DWORD PTR $LN14@TEST_PMC_T
	call	@_RTC_CheckStackVars@8
	pop	eax
	pop	edx
	pop	edi
	pop	esi
	add	esp, 44					; 0000002cH
	cmp	ebp, esp
	call	__RTC_CheckEsp
	mov	esp, ebp
	pop	ebp
	ret	0
	npad	2
$LN14@TEST_PMC_T:
	DD	2
	DD	$LN13@TEST_PMC_T
$LN13@TEST_PMC_T:
	DD	-8					; fffffff8H
	DD	4
	DD	$LN11@TEST_PMC_T
	DD	-20					; ffffffecH
	DD	4
	DD	$LN12@TEST_PMC_T
$LN12@TEST_PMC_T:
	DB	114					; 00000072H
	DB	118					; 00000076H
	DB	97					; 00000061H
	DB	108					; 0000006cH
	DB	117					; 00000075H
	DB	101					; 00000065H
	DB	0
$LN11@TEST_PMC_T:
	DB	120					; 00000078H
	DB	0
_TEST_PMC_To_X_I ENDP
_TEXT	ENDS
; Function compile flags: /Odtp /RTCsu
; File z:\sources\lunor\repos\rougemeilland\palmtree.math.core.uint\palmtree.math.core.uint\test_op_from_to.c
_TEXT	SEGMENT
tv139 = -312						; size = 4
tv92 = -308						; size = 4
tv73 = -304						; size = 4
_x_result$ = -300					; size = 4
_result$ = -296						; size = 4
_rlength$ = -288					; size = 4
_rbuffer$ = -276					; size = 256
_x$ = -12						; size = 4
__$ArrayPad$ = -4					; size = 4
_env$ = 8						; size = 4
_ep$ = 12						; size = 4
_no$ = 16						; size = 4
_v$ = 20						; size = 8
_buf$ = 28						; size = 4
_buf_size$ = 32						; size = 4
_TEST_PMC_From_L PROC

; 47   : {

	push	ebp
	mov	ebp, esp
	sub	esp, 312				; 00000138H
	push	esi
	push	edi
	lea	edi, DWORD PTR [ebp-312]
	mov	ecx, 78					; 0000004eH
	mov	eax, -858993460				; ccccccccH
	rep stosd
	mov	eax, DWORD PTR ___security_cookie
	xor	eax, ebp
	mov	DWORD PTR __$ArrayPad$[ebp], eax
	mov	ecx, OFFSET __92A13453_test_op_from_to@c
	call	@__CheckForDebuggerJustMyCode@4

; 48   :     PMC_HANDLE_UINT x;
; 49   :     unsigned char rbuffer[256];
; 50   :     size_t rlength;
; 51   :     PMC_STATUS_CODE result;
; 52   :     PMC_STATUS_CODE x_result;
; 53   :     TEST_Assert(env, FormatTestLabel(L"PMC_From_L (%d.%d)", no, 1), (x_result = ep->From_L(v, &x)) == PMC_STATUS_OK, FormatTestMesssage(L"PMC_From_Lの復帰コードが期待通りではない(%d)", x_result));

	mov	esi, esp
	lea	eax, DWORD PTR _x$[ebp]
	push	eax
	mov	ecx, DWORD PTR _v$[ebp+4]
	push	ecx
	mov	edx, DWORD PTR _v$[ebp]
	push	edx
	mov	eax, DWORD PTR _ep$[ebp]
	mov	ecx, DWORD PTR [eax+12]
	call	ecx
	cmp	esi, esp
	call	__RTC_CheckEsp
	mov	DWORD PTR _x_result$[ebp], eax
	cmp	DWORD PTR _x_result$[ebp], 0
	jne	SHORT $LN4@TEST_PMC_F
	mov	DWORD PTR tv73[ebp], 1
	jmp	SHORT $LN5@TEST_PMC_F
$LN4@TEST_PMC_F:
	mov	DWORD PTR tv73[ebp], 0
$LN5@TEST_PMC_F:
	mov	edx, DWORD PTR _x_result$[ebp]
	push	edx
	push	OFFSET $SG94714
	call	_FormatTestMesssage
	add	esp, 8
	push	eax
	mov	eax, DWORD PTR tv73[ebp]
	push	eax
	push	1
	mov	ecx, DWORD PTR _no$[ebp]
	push	ecx
	push	OFFSET $SG94715
	call	_FormatTestLabel
	add	esp, 12					; 0000000cH
	push	eax
	mov	edx, DWORD PTR _env$[ebp]
	push	edx
	call	_TEST_Assert
	add	esp, 16					; 00000010H

; 54   :     TEST_Assert(env, FormatTestLabel(L"PMC_From_L (%d.%d)", no, 2), (result = ep->ToByteArray(x, rbuffer, sizeof(rbuffer), &rlength)) == PMC_STATUS_OK, FormatTestMesssage(L"PMC_ToByteArrayの復帰コードが期待通りではない(%d)", result));

	mov	esi, esp
	lea	eax, DWORD PTR _rlength$[ebp]
	push	eax
	push	256					; 00000100H
	lea	ecx, DWORD PTR _rbuffer$[ebp]
	push	ecx
	mov	edx, DWORD PTR _x$[ebp]
	push	edx
	mov	eax, DWORD PTR _ep$[ebp]
	mov	ecx, DWORD PTR [eax+32]
	call	ecx
	cmp	esi, esp
	call	__RTC_CheckEsp
	mov	DWORD PTR _result$[ebp], eax
	cmp	DWORD PTR _result$[ebp], 0
	jne	SHORT $LN6@TEST_PMC_F
	mov	DWORD PTR tv92[ebp], 1
	jmp	SHORT $LN7@TEST_PMC_F
$LN6@TEST_PMC_F:
	mov	DWORD PTR tv92[ebp], 0
$LN7@TEST_PMC_F:
	mov	edx, DWORD PTR _result$[ebp]
	push	edx
	push	OFFSET $SG94716
	call	_FormatTestMesssage
	add	esp, 8
	push	eax
	mov	eax, DWORD PTR tv92[ebp]
	push	eax
	push	2
	mov	ecx, DWORD PTR _no$[ebp]
	push	ecx
	push	OFFSET $SG94717
	call	_FormatTestLabel
	add	esp, 12					; 0000000cH
	push	eax
	mov	edx, DWORD PTR _env$[ebp]
	push	edx
	call	_TEST_Assert
	add	esp, 16					; 00000010H

; 55   :     TEST_Assert(env, FormatTestLabel(L"PMC_From_L (%d.%d)", no, 3), _EQUALS_MEMORY(rbuffer, rlength, buf, buf_size) == 0, L"データの内容が一致しない");

	mov	eax, DWORD PTR _buf_size$[ebp]
	push	eax
	mov	ecx, DWORD PTR _buf$[ebp]
	push	ecx
	mov	edx, DWORD PTR _rlength$[ebp]
	push	edx
	lea	eax, DWORD PTR _rbuffer$[ebp]
	push	eax
	call	__EQUALS_MEMORY
	add	esp, 16					; 00000010H
	test	eax, eax
	jne	SHORT $LN8@TEST_PMC_F
	mov	DWORD PTR tv139[ebp], 1
	jmp	SHORT $LN9@TEST_PMC_F
$LN8@TEST_PMC_F:
	mov	DWORD PTR tv139[ebp], 0
$LN9@TEST_PMC_F:
	push	OFFSET $SG94718
	mov	ecx, DWORD PTR tv139[ebp]
	push	ecx
	push	3
	mov	edx, DWORD PTR _no$[ebp]
	push	edx
	push	OFFSET $SG94719
	call	_FormatTestLabel
	add	esp, 12					; 0000000cH
	push	eax
	mov	eax, DWORD PTR _env$[ebp]
	push	eax
	call	_TEST_Assert
	add	esp, 16					; 00000010H

; 56   :     if (x_result == PMC_STATUS_OK)

	cmp	DWORD PTR _x_result$[ebp], 0
	jne	SHORT $LN1@TEST_PMC_F

; 57   :         ep->Dispose(x);

	mov	esi, esp
	mov	ecx, DWORD PTR _x$[ebp]
	push	ecx
	mov	edx, DWORD PTR _ep$[ebp]
	mov	eax, DWORD PTR [edx+16]
	call	eax
	cmp	esi, esp
	call	__RTC_CheckEsp
$LN1@TEST_PMC_F:

; 58   : }

	push	edx
	mov	ecx, ebp
	push	eax
	lea	edx, DWORD PTR $LN14@TEST_PMC_F
	call	@_RTC_CheckStackVars@8
	pop	eax
	pop	edx
	pop	edi
	pop	esi
	mov	ecx, DWORD PTR __$ArrayPad$[ebp]
	xor	ecx, ebp
	call	@__security_check_cookie@4
	add	esp, 312				; 00000138H
	cmp	ebp, esp
	call	__RTC_CheckEsp
	mov	esp, ebp
	pop	ebp
	ret	0
$LN14@TEST_PMC_F:
	DD	3
	DD	$LN13@TEST_PMC_F
$LN13@TEST_PMC_F:
	DD	-12					; fffffff4H
	DD	4
	DD	$LN10@TEST_PMC_F
	DD	-276					; fffffeecH
	DD	256					; 00000100H
	DD	$LN11@TEST_PMC_F
	DD	-288					; fffffee0H
	DD	4
	DD	$LN12@TEST_PMC_F
$LN12@TEST_PMC_F:
	DB	114					; 00000072H
	DB	108					; 0000006cH
	DB	101					; 00000065H
	DB	110					; 0000006eH
	DB	103					; 00000067H
	DB	116					; 00000074H
	DB	104					; 00000068H
	DB	0
$LN11@TEST_PMC_F:
	DB	114					; 00000072H
	DB	98					; 00000062H
	DB	117					; 00000075H
	DB	102					; 00000066H
	DB	102					; 00000066H
	DB	101					; 00000065H
	DB	114					; 00000072H
	DB	0
$LN10@TEST_PMC_F:
	DB	120					; 00000078H
	DB	0
_TEST_PMC_From_L ENDP
_TEXT	ENDS
; Function compile flags: /Odtp /RTCsu
; File z:\sources\lunor\repos\rougemeilland\palmtree.math.core.uint\palmtree.math.core.uint\test_op_from_to.c
_TEXT	SEGMENT
tv139 = -312						; size = 4
tv92 = -308						; size = 4
tv73 = -304						; size = 4
_x_result$ = -300					; size = 4
_result$ = -296						; size = 4
_rlength$ = -288					; size = 4
_rbuffer$ = -276					; size = 256
_x$ = -12						; size = 4
__$ArrayPad$ = -4					; size = 4
_env$ = 8						; size = 4
_ep$ = 12						; size = 4
_no$ = 16						; size = 4
_v$ = 20						; size = 4
_buf$ = 24						; size = 4
_buf_size$ = 28						; size = 4
_TEST_PMC_From_I PROC

; 33   : {

	push	ebp
	mov	ebp, esp
	sub	esp, 312				; 00000138H
	push	esi
	push	edi
	lea	edi, DWORD PTR [ebp-312]
	mov	ecx, 78					; 0000004eH
	mov	eax, -858993460				; ccccccccH
	rep stosd
	mov	eax, DWORD PTR ___security_cookie
	xor	eax, ebp
	mov	DWORD PTR __$ArrayPad$[ebp], eax
	mov	ecx, OFFSET __92A13453_test_op_from_to@c
	call	@__CheckForDebuggerJustMyCode@4

; 34   :     PMC_HANDLE_UINT x;
; 35   :     unsigned char rbuffer[256];
; 36   :     size_t rlength;
; 37   :     PMC_STATUS_CODE result;
; 38   :     PMC_STATUS_CODE x_result;
; 39   :     TEST_Assert(env, FormatTestLabel(L"PMC_From_I (%d.%d)", no, 1), (x_result = ep->From_I(v, &x)) == PMC_STATUS_OK, FormatTestMesssage(L"PMC_From_Iの復帰コードが期待通りではない(%d)", x_result));

	mov	esi, esp
	lea	eax, DWORD PTR _x$[ebp]
	push	eax
	mov	ecx, DWORD PTR _v$[ebp]
	push	ecx
	mov	edx, DWORD PTR _ep$[ebp]
	mov	eax, DWORD PTR [edx+8]
	call	eax
	cmp	esi, esp
	call	__RTC_CheckEsp
	mov	DWORD PTR _x_result$[ebp], eax
	cmp	DWORD PTR _x_result$[ebp], 0
	jne	SHORT $LN4@TEST_PMC_F
	mov	DWORD PTR tv73[ebp], 1
	jmp	SHORT $LN5@TEST_PMC_F
$LN4@TEST_PMC_F:
	mov	DWORD PTR tv73[ebp], 0
$LN5@TEST_PMC_F:
	mov	ecx, DWORD PTR _x_result$[ebp]
	push	ecx
	push	OFFSET $SG94689
	call	_FormatTestMesssage
	add	esp, 8
	push	eax
	mov	edx, DWORD PTR tv73[ebp]
	push	edx
	push	1
	mov	eax, DWORD PTR _no$[ebp]
	push	eax
	push	OFFSET $SG94690
	call	_FormatTestLabel
	add	esp, 12					; 0000000cH
	push	eax
	mov	ecx, DWORD PTR _env$[ebp]
	push	ecx
	call	_TEST_Assert
	add	esp, 16					; 00000010H

; 40   :     TEST_Assert(env, FormatTestLabel(L"PMC_From_I (%d.%d)", no, 2), (result = ep->ToByteArray(x, rbuffer, sizeof(rbuffer), &rlength)) == PMC_STATUS_OK, FormatTestMesssage(L"PMC_ToByteArrayの復帰コードが期待通りではない(%d)", result));

	mov	esi, esp
	lea	edx, DWORD PTR _rlength$[ebp]
	push	edx
	push	256					; 00000100H
	lea	eax, DWORD PTR _rbuffer$[ebp]
	push	eax
	mov	ecx, DWORD PTR _x$[ebp]
	push	ecx
	mov	edx, DWORD PTR _ep$[ebp]
	mov	eax, DWORD PTR [edx+32]
	call	eax
	cmp	esi, esp
	call	__RTC_CheckEsp
	mov	DWORD PTR _result$[ebp], eax
	cmp	DWORD PTR _result$[ebp], 0
	jne	SHORT $LN6@TEST_PMC_F
	mov	DWORD PTR tv92[ebp], 1
	jmp	SHORT $LN7@TEST_PMC_F
$LN6@TEST_PMC_F:
	mov	DWORD PTR tv92[ebp], 0
$LN7@TEST_PMC_F:
	mov	ecx, DWORD PTR _result$[ebp]
	push	ecx
	push	OFFSET $SG94691
	call	_FormatTestMesssage
	add	esp, 8
	push	eax
	mov	edx, DWORD PTR tv92[ebp]
	push	edx
	push	2
	mov	eax, DWORD PTR _no$[ebp]
	push	eax
	push	OFFSET $SG94692
	call	_FormatTestLabel
	add	esp, 12					; 0000000cH
	push	eax
	mov	ecx, DWORD PTR _env$[ebp]
	push	ecx
	call	_TEST_Assert
	add	esp, 16					; 00000010H

; 41   :     TEST_Assert(env, FormatTestLabel(L"PMC_From_I (%d.%d)", no, 3), _EQUALS_MEMORY(rbuffer, rlength, buf, buf_size) == 0, L"データの内容が一致しない");

	mov	edx, DWORD PTR _buf_size$[ebp]
	push	edx
	mov	eax, DWORD PTR _buf$[ebp]
	push	eax
	mov	ecx, DWORD PTR _rlength$[ebp]
	push	ecx
	lea	edx, DWORD PTR _rbuffer$[ebp]
	push	edx
	call	__EQUALS_MEMORY
	add	esp, 16					; 00000010H
	test	eax, eax
	jne	SHORT $LN8@TEST_PMC_F
	mov	DWORD PTR tv139[ebp], 1
	jmp	SHORT $LN9@TEST_PMC_F
$LN8@TEST_PMC_F:
	mov	DWORD PTR tv139[ebp], 0
$LN9@TEST_PMC_F:
	push	OFFSET $SG94693
	mov	eax, DWORD PTR tv139[ebp]
	push	eax
	push	3
	mov	ecx, DWORD PTR _no$[ebp]
	push	ecx
	push	OFFSET $SG94694
	call	_FormatTestLabel
	add	esp, 12					; 0000000cH
	push	eax
	mov	edx, DWORD PTR _env$[ebp]
	push	edx
	call	_TEST_Assert
	add	esp, 16					; 00000010H

; 42   :     if (x_result == PMC_STATUS_OK)

	cmp	DWORD PTR _x_result$[ebp], 0
	jne	SHORT $LN1@TEST_PMC_F

; 43   :         ep->Dispose(x);

	mov	esi, esp
	mov	eax, DWORD PTR _x$[ebp]
	push	eax
	mov	ecx, DWORD PTR _ep$[ebp]
	mov	edx, DWORD PTR [ecx+16]
	call	edx
	cmp	esi, esp
	call	__RTC_CheckEsp
$LN1@TEST_PMC_F:

; 44   : }

	push	edx
	mov	ecx, ebp
	push	eax
	lea	edx, DWORD PTR $LN14@TEST_PMC_F
	call	@_RTC_CheckStackVars@8
	pop	eax
	pop	edx
	pop	edi
	pop	esi
	mov	ecx, DWORD PTR __$ArrayPad$[ebp]
	xor	ecx, ebp
	call	@__security_check_cookie@4
	add	esp, 312				; 00000138H
	cmp	ebp, esp
	call	__RTC_CheckEsp
	mov	esp, ebp
	pop	ebp
	ret	0
$LN14@TEST_PMC_F:
	DD	3
	DD	$LN13@TEST_PMC_F
$LN13@TEST_PMC_F:
	DD	-12					; fffffff4H
	DD	4
	DD	$LN10@TEST_PMC_F
	DD	-276					; fffffeecH
	DD	256					; 00000100H
	DD	$LN11@TEST_PMC_F
	DD	-288					; fffffee0H
	DD	4
	DD	$LN12@TEST_PMC_F
$LN12@TEST_PMC_F:
	DB	114					; 00000072H
	DB	108					; 0000006cH
	DB	101					; 00000065H
	DB	110					; 0000006eH
	DB	103					; 00000067H
	DB	116					; 00000074H
	DB	104					; 00000068H
	DB	0
$LN11@TEST_PMC_F:
	DB	114					; 00000072H
	DB	98					; 00000062H
	DB	117					; 00000075H
	DB	102					; 00000066H
	DB	102					; 00000066H
	DB	101					; 00000065H
	DB	114					; 00000072H
	DB	0
$LN10@TEST_PMC_F:
	DB	120					; 00000078H
	DB	0
_TEST_PMC_From_I ENDP
_TEXT	ENDS
END
