; Listing generated by Microsoft (R) Optimizing Compiler Version 19.16.27026.1 

	TITLE	Z:\Sources\Lunor\Repos\rougemeilland\Palmtree.Math.Core.Uint\Palmtree.Math.Core.Uint\TEST_op_Remainder.c
	.686P
	.XMM
	include listing.inc
	.model	flat

INCLUDELIB MSVCRTD
INCLUDELIB OLDNAMES

msvcjmc	SEGMENT
__7B7A869E_ctype@h DB 01H
__457DD326_basetsd@h DB 01H
__4384A2D9_corecrt_memcpy_s@h DB 01H
__4E51A221_corecrt_wstring@h DB 01H
__2140C079_string@h DB 01H
__1887E595_winnt@h DB 01H
__9FC7C64B_processthreadsapi@h DB 01H
__FA470AEC_memoryapi@h DB 01H
__F37DAFF1_winerror@h DB 01H
__7A450CCC_winbase@h DB 01H
__B4B40122_winioctl@h DB 01H
__86261D59_stralign@h DB 01H
__630249ED_pmc_uint_debug@h DB 01H
__8245D7A3_test_op_remainder@c DB 01H
msvcjmc	ENDS
PUBLIC	_TEST_PMC_Remainder_I_X
PUBLIC	_TEST_PMC_Remainder_L_X
PUBLIC	_TEST_PMC_Remainder_X_I
PUBLIC	_TEST_PMC_Remainder_X_L
PUBLIC	_TEST_PMC_Remainder_X_X
PUBLIC	__JustMyCode_Default
EXTRN	_TEST_Assert:PROC
EXTRN	_FormatTestLabel:PROC
EXTRN	_FormatTestMesssage:PROC
EXTRN	@_RTC_CheckStackVars@8:PROC
EXTRN	@__CheckForDebuggerJustMyCode@4:PROC
EXTRN	@__security_check_cookie@4:PROC
EXTRN	__RTC_CheckEsp:PROC
EXTRN	__RTC_InitBase:PROC
EXTRN	__RTC_Shutdown:PROC
EXTRN	___security_cookie:DWORD
;	COMDAT rtc$TMZ
rtc$TMZ	SEGMENT
__RTC_Shutdown.rtc$TMZ DD FLAT:__RTC_Shutdown
rtc$TMZ	ENDS
;	COMDAT rtc$IMZ
rtc$IMZ	SEGMENT
__RTC_InitBase.rtc$IMZ DD FLAT:__RTC_InitBase
rtc$IMZ	ENDS
_DATA	SEGMENT
$SG94613 DB	'P', 00H, 'M', 00H, 'C', 00H, '_', 00H, 'F', 00H, 'r', 00H
	DB	'o', 00H, 'm', 00H, 'B', 00H, 'y', 00H, 't', 00H, 'e', 00H, 'A'
	DB	00H, 'r', 00H, 'r', 00H, 'a', 00H, 'y', 00H, 'n0', 0a9H, '_0^', 0b3H
	DB	'0', 0fcH, '0', 0c9H, '0L0', 01fH, 'g', 085H, '_', 01aH, 090H, 08aH
	DB	'0g0o0j0D0(', 00H, '%', 00H, 'd', 00H, ')', 00H, 00H, 00H
	ORG $+2
$SG94614 DB	'P', 00H, 'M', 00H, 'C', 00H, '_', 00H, 'R', 00H, 'e', 00H
	DB	'm', 00H, 'a', 00H, 'i', 00H, 'n', 00H, 'd', 00H, 'e', 00H, 'r'
	DB	00H, '_', 00H, 'I', 00H, '_', 00H, 'X', 00H, ' ', 00H, '(', 00H
	DB	'%', 00H, 'd', 00H, '.', 00H, '%', 00H, 'd', 00H, ')', 00H, 00H
	DB	00H
$SG94615 DB	'P', 00H, 'M', 00H, 'C', 00H, '_', 00H, 'R', 00H, 'e', 00H
	DB	'm', 00H, 'a', 00H, 'i', 00H, 'n', 00H, 'd', 00H, 'e', 00H, 'r'
	DB	00H, '_', 00H, 'I', 00H, '_', 00H, 'X', 00H, 'n0', 0a9H, '_0^', 0b3H
	DB	'0', 0fcH, '0', 0c9H, '0L0', 01fH, 'g', 085H, '_', 01aH, 090H, 08aH
	DB	'0g0o0j0D0(', 00H, '%', 00H, 'd', 00H, ')', 00H, 00H, 00H
	ORG $+2
$SG94616 DB	'P', 00H, 'M', 00H, 'C', 00H, '_', 00H, 'R', 00H, 'e', 00H
	DB	'm', 00H, 'a', 00H, 'i', 00H, 'n', 00H, 'd', 00H, 'e', 00H, 'r'
	DB	00H, '_', 00H, 'I', 00H, '_', 00H, 'X', 00H, ' ', 00H, '(', 00H
	DB	'%', 00H, 'd', 00H, '.', 00H, '%', 00H, 'd', 00H, ')', 00H, 00H
	DB	00H
$SG94618 DB	'pRYOn0$PL0', 00H, 'N', 0f4H, 081H, 'W0j0D0', 00H, 00H
	ORG $+2
$SG94619 DB	'P', 00H, 'M', 00H, 'C', 00H, '_', 00H, 'R', 00H, 'e', 00H
	DB	'm', 00H, 'a', 00H, 'i', 00H, 'n', 00H, 'd', 00H, 'e', 00H, 'r'
	DB	00H, '_', 00H, 'I', 00H, '_', 00H, 'X', 00H, ' ', 00H, '(', 00H
	DB	'%', 00H, 'd', 00H, '.', 00H, '%', 00H, 'd', 00H, ')', 00H, 00H
	DB	00H
	ORG $+4
$SG94643 DB	'P', 00H, 'M', 00H, 'C', 00H, '_', 00H, 'F', 00H, 'r', 00H
	DB	'o', 00H, 'm', 00H, 'B', 00H, 'y', 00H, 't', 00H, 'e', 00H, 'A'
	DB	00H, 'r', 00H, 'r', 00H, 'a', 00H, 'y', 00H, 'n0', 0a9H, '_0^', 0b3H
	DB	'0', 0fcH, '0', 0c9H, '0L0', 01fH, 'g', 085H, '_', 01aH, 090H, 08aH
	DB	'0g0o0j0D0(', 00H, '%', 00H, 'd', 00H, ')', 00H, 00H, 00H
	ORG $+2
$SG94644 DB	'P', 00H, 'M', 00H, 'C', 00H, '_', 00H, 'R', 00H, 'e', 00H
	DB	'm', 00H, 'a', 00H, 'i', 00H, 'n', 00H, 'd', 00H, 'e', 00H, 'r'
	DB	00H, '_', 00H, 'L', 00H, '_', 00H, 'X', 00H, ' ', 00H, '(', 00H
	DB	'%', 00H, 'd', 00H, '.', 00H, '%', 00H, 'd', 00H, ')', 00H, 00H
	DB	00H
$SG94645 DB	'P', 00H, 'M', 00H, 'C', 00H, '_', 00H, 'R', 00H, 'e', 00H
	DB	'm', 00H, 'a', 00H, 'i', 00H, 'n', 00H, 'd', 00H, 'e', 00H, 'r'
	DB	00H, '_', 00H, 'L', 00H, '_', 00H, 'X', 00H, 'n0', 0a9H, '_0^', 0b3H
	DB	'0', 0fcH, '0', 0c9H, '0L0', 01fH, 'g', 085H, '_', 01aH, 090H, 08aH
	DB	'0g0o0j0D0(', 00H, '%', 00H, 'd', 00H, ')', 00H, 00H, 00H
	ORG $+2
$SG94646 DB	'P', 00H, 'M', 00H, 'C', 00H, '_', 00H, 'R', 00H, 'e', 00H
	DB	'm', 00H, 'a', 00H, 'i', 00H, 'n', 00H, 'd', 00H, 'e', 00H, 'r'
	DB	00H, '_', 00H, 'L', 00H, '_', 00H, 'X', 00H, ' ', 00H, '(', 00H
	DB	'%', 00H, 'd', 00H, '.', 00H, '%', 00H, 'd', 00H, ')', 00H, 00H
	DB	00H
$SG94648 DB	'pRYOn0$PL0', 00H, 'N', 0f4H, 081H, 'W0j0D0', 00H, 00H
	ORG $+2
$SG94649 DB	'P', 00H, 'M', 00H, 'C', 00H, '_', 00H, 'R', 00H, 'e', 00H
	DB	'm', 00H, 'a', 00H, 'i', 00H, 'n', 00H, 'd', 00H, 'e', 00H, 'r'
	DB	00H, '_', 00H, 'L', 00H, '_', 00H, 'X', 00H, ' ', 00H, '(', 00H
	DB	'%', 00H, 'd', 00H, '.', 00H, '%', 00H, 'd', 00H, ')', 00H, 00H
	DB	00H
	ORG $+4
$SG94673 DB	'P', 00H, 'M', 00H, 'C', 00H, '_', 00H, 'F', 00H, 'r', 00H
	DB	'o', 00H, 'm', 00H, 'B', 00H, 'y', 00H, 't', 00H, 'e', 00H, 'A'
	DB	00H, 'r', 00H, 'r', 00H, 'a', 00H, 'y', 00H, 'n0', 0a9H, '_0^', 0b3H
	DB	'0', 0fcH, '0', 0c9H, '0L0', 01fH, 'g', 085H, '_', 01aH, 090H, 08aH
	DB	'0g0o0j0D0(', 00H, '%', 00H, 'd', 00H, ')', 00H, 00H, 00H
	ORG $+2
$SG94674 DB	'P', 00H, 'M', 00H, 'C', 00H, '_', 00H, 'R', 00H, 'e', 00H
	DB	'm', 00H, 'a', 00H, 'i', 00H, 'n', 00H, 'd', 00H, 'e', 00H, 'r'
	DB	00H, '_', 00H, 'X', 00H, '_', 00H, 'I', 00H, ' ', 00H, '(', 00H
	DB	'%', 00H, 'd', 00H, '.', 00H, '%', 00H, 'd', 00H, ')', 00H, 00H
	DB	00H
$SG94675 DB	'P', 00H, 'M', 00H, 'C', 00H, '_', 00H, 'R', 00H, 'e', 00H
	DB	'm', 00H, 'a', 00H, 'i', 00H, 'n', 00H, 'd', 00H, 'e', 00H, 'r'
	DB	00H, '_', 00H, 'X', 00H, '_', 00H, 'I', 00H, 'n0', 0a9H, '_0^', 0b3H
	DB	'0', 0fcH, '0', 0c9H, '0L0', 01fH, 'g', 085H, '_', 01aH, 090H, 08aH
	DB	'0g0o0j0D0(', 00H, '%', 00H, 'd', 00H, ')', 00H, 00H, 00H
	ORG $+2
$SG94676 DB	'P', 00H, 'M', 00H, 'C', 00H, '_', 00H, 'R', 00H, 'e', 00H
	DB	'm', 00H, 'a', 00H, 'i', 00H, 'n', 00H, 'd', 00H, 'e', 00H, 'r'
	DB	00H, '_', 00H, 'X', 00H, '_', 00H, 'I', 00H, ' ', 00H, '(', 00H
	DB	'%', 00H, 'd', 00H, '.', 00H, '%', 00H, 'd', 00H, ')', 00H, 00H
	DB	00H
$SG94678 DB	'pRYOn0$PL0', 00H, 'N', 0f4H, 081H, 'W0j0D0', 00H, 00H
	ORG $+2
$SG94679 DB	'P', 00H, 'M', 00H, 'C', 00H, '_', 00H, 'R', 00H, 'e', 00H
	DB	'm', 00H, 'a', 00H, 'i', 00H, 'n', 00H, 'd', 00H, 'e', 00H, 'r'
	DB	00H, '_', 00H, 'X', 00H, '_', 00H, 'I', 00H, ' ', 00H, '(', 00H
	DB	'%', 00H, 'd', 00H, '.', 00H, '%', 00H, 'd', 00H, ')', 00H, 00H
	DB	00H
	ORG $+4
$SG94703 DB	'P', 00H, 'M', 00H, 'C', 00H, '_', 00H, 'F', 00H, 'r', 00H
	DB	'o', 00H, 'm', 00H, 'B', 00H, 'y', 00H, 't', 00H, 'e', 00H, 'A'
	DB	00H, 'r', 00H, 'r', 00H, 'a', 00H, 'y', 00H, 'n0', 0a9H, '_0^', 0b3H
	DB	'0', 0fcH, '0', 0c9H, '0L0', 01fH, 'g', 085H, '_', 01aH, 090H, 08aH
	DB	'0g0o0j0D0(', 00H, '%', 00H, 'd', 00H, ')', 00H, 00H, 00H
	ORG $+2
$SG94704 DB	'P', 00H, 'M', 00H, 'C', 00H, '_', 00H, 'R', 00H, 'e', 00H
	DB	'm', 00H, 'a', 00H, 'i', 00H, 'n', 00H, 'd', 00H, 'e', 00H, 'r'
	DB	00H, '_', 00H, 'X', 00H, '_', 00H, 'L', 00H, ' ', 00H, '(', 00H
	DB	'%', 00H, 'd', 00H, '.', 00H, '%', 00H, 'd', 00H, ')', 00H, 00H
	DB	00H
$SG94705 DB	'P', 00H, 'M', 00H, 'C', 00H, '_', 00H, 'R', 00H, 'e', 00H
	DB	'm', 00H, 'a', 00H, 'i', 00H, 'n', 00H, 'd', 00H, 'e', 00H, 'r'
	DB	00H, '_', 00H, 'X', 00H, '_', 00H, 'L', 00H, 'n0', 0a9H, '_0^', 0b3H
	DB	'0', 0fcH, '0', 0c9H, '0L0', 01fH, 'g', 085H, '_', 01aH, 090H, 08aH
	DB	'0g0o0j0D0(', 00H, '%', 00H, 'd', 00H, ')', 00H, 00H, 00H
	ORG $+2
$SG94706 DB	'P', 00H, 'M', 00H, 'C', 00H, '_', 00H, 'R', 00H, 'e', 00H
	DB	'm', 00H, 'a', 00H, 'i', 00H, 'n', 00H, 'd', 00H, 'e', 00H, 'r'
	DB	00H, '_', 00H, 'X', 00H, '_', 00H, 'L', 00H, ' ', 00H, '(', 00H
	DB	'%', 00H, 'd', 00H, '.', 00H, '%', 00H, 'd', 00H, ')', 00H, 00H
	DB	00H
$SG94708 DB	'pRYOn0$PL0', 00H, 'N', 0f4H, 081H, 'W0j0D0', 00H, 00H
	ORG $+2
$SG94709 DB	'P', 00H, 'M', 00H, 'C', 00H, '_', 00H, 'R', 00H, 'e', 00H
	DB	'm', 00H, 'a', 00H, 'i', 00H, 'n', 00H, 'd', 00H, 'e', 00H, 'r'
	DB	00H, '_', 00H, 'X', 00H, '_', 00H, 'L', 00H, ' ', 00H, '(', 00H
	DB	'%', 00H, 'd', 00H, '.', 00H, '%', 00H, 'd', 00H, ')', 00H, 00H
	DB	00H
	ORG $+4
$SG94742 DB	'P', 00H, 'M', 00H, 'C', 00H, '_', 00H, 'F', 00H, 'r', 00H
	DB	'o', 00H, 'm', 00H, 'B', 00H, 'y', 00H, 't', 00H, 'e', 00H, 'A'
	DB	00H, 'r', 00H, 'r', 00H, 'a', 00H, 'y', 00H, 'n0', 0a9H, '_0^', 0b3H
	DB	'0', 0fcH, '0', 0c9H, '0L0', 01fH, 'g', 085H, '_', 01aH, 090H, 08aH
	DB	'0g0o0j0D0(', 00H, '%', 00H, 'd', 00H, ')', 00H, 00H, 00H
	ORG $+2
$SG94743 DB	'P', 00H, 'M', 00H, 'C', 00H, '_', 00H, 'R', 00H, 'e', 00H
	DB	'm', 00H, 'a', 00H, 'i', 00H, 'n', 00H, 'd', 00H, 'e', 00H, 'r'
	DB	00H, '_', 00H, 'X', 00H, '_', 00H, 'X', 00H, ' ', 00H, '(', 00H
	DB	'%', 00H, 'd', 00H, '.', 00H, '%', 00H, 'd', 00H, ')', 00H, 00H
	DB	00H
$SG94744 DB	'P', 00H, 'M', 00H, 'C', 00H, '_', 00H, 'F', 00H, 'r', 00H
	DB	'o', 00H, 'm', 00H, 'B', 00H, 'y', 00H, 't', 00H, 'e', 00H, 'A'
	DB	00H, 'r', 00H, 'r', 00H, 'a', 00H, 'y', 00H, 'n0', 0a9H, '_0^', 0b3H
	DB	'0', 0fcH, '0', 0c9H, '0L0', 01fH, 'g', 085H, '_', 01aH, 090H, 08aH
	DB	'0g0o0j0D0(', 00H, '%', 00H, 'd', 00H, ')', 00H, 00H, 00H
	ORG $+2
$SG94745 DB	'P', 00H, 'M', 00H, 'C', 00H, '_', 00H, 'R', 00H, 'e', 00H
	DB	'm', 00H, 'a', 00H, 'i', 00H, 'n', 00H, 'd', 00H, 'e', 00H, 'r'
	DB	00H, '_', 00H, 'X', 00H, '_', 00H, 'X', 00H, ' ', 00H, '(', 00H
	DB	'%', 00H, 'd', 00H, '.', 00H, '%', 00H, 'd', 00H, ')', 00H, 00H
	DB	00H
$SG94746 DB	'P', 00H, 'M', 00H, 'C', 00H, '_', 00H, 'R', 00H, 'e', 00H
	DB	'm', 00H, 'a', 00H, 'i', 00H, 'n', 00H, 'd', 00H, 'e', 00H, 'r'
	DB	00H, '_', 00H, 'X', 00H, '_', 00H, 'X', 00H, 'n0', 0a9H, '_0^', 0b3H
	DB	'0', 0fcH, '0', 0c9H, '0L0', 01fH, 'g', 085H, '_', 01aH, 090H, 08aH
	DB	'0g0o0j0D0(', 00H, '%', 00H, 'd', 00H, ')', 00H, 00H, 00H
	ORG $+2
$SG94747 DB	'P', 00H, 'M', 00H, 'C', 00H, '_', 00H, 'R', 00H, 'e', 00H
	DB	'm', 00H, 'a', 00H, 'i', 00H, 'n', 00H, 'd', 00H, 'e', 00H, 'r'
	DB	00H, '_', 00H, 'X', 00H, '_', 00H, 'X', 00H, ' ', 00H, '(', 00H
	DB	'%', 00H, 'd', 00H, '.', 00H, '%', 00H, 'd', 00H, ')', 00H, 00H
	DB	00H
$SG94749 DB	'P', 00H, 'M', 00H, 'C', 00H, '_', 00H, 'T', 00H, 'o', 00H
	DB	'B', 00H, 'y', 00H, 't', 00H, 'e', 00H, 'A', 00H, 'r', 00H, 'r'
	DB	00H, 'a', 00H, 'y', 00H, 'n0', 0a9H, '_0^', 0b3H, '0', 0fcH, '0'
	DB	0c9H, '0L0', 01fH, 'g', 085H, '_', 01aH, 090H, 08aH, '0g0o0j0D'
	DB	'0(', 00H, '%', 00H, 'd', 00H, ')', 00H, 00H, 00H
	ORG $+2
$SG94750 DB	'P', 00H, 'M', 00H, 'C', 00H, '_', 00H, 'R', 00H, 'e', 00H
	DB	'm', 00H, 'a', 00H, 'i', 00H, 'n', 00H, 'd', 00H, 'e', 00H, 'r'
	DB	00H, '_', 00H, 'X', 00H, '_', 00H, 'X', 00H, ' ', 00H, '(', 00H
	DB	'%', 00H, 'd', 00H, '.', 00H, '%', 00H, 'd', 00H, ')', 00H, 00H
	DB	00H
$SG94751 DB	'pRYOn0$PL0', 00H, 'N', 0f4H, 081H, 'W0j0D0', 00H, 00H
	ORG $+2
$SG94752 DB	'P', 00H, 'M', 00H, 'C', 00H, '_', 00H, 'R', 00H, 'e', 00H
	DB	'm', 00H, 'a', 00H, 'i', 00H, 'n', 00H, 'd', 00H, 'e', 00H, 'r'
	DB	00H, '_', 00H, 'X', 00H, '_', 00H, 'X', 00H, ' ', 00H, '(', 00H
	DB	'%', 00H, 'd', 00H, '.', 00H, '%', 00H, 'd', 00H, ')', 00H, 00H
	DB	00H
_DATA	ENDS
; Function compile flags: /Odt
;	COMDAT __JustMyCode_Default
_TEXT	SEGMENT
__JustMyCode_Default PROC				; COMDAT
	push	ebp
	mov	ebp, esp
	pop	ebp
	ret	0
__JustMyCode_Default ENDP
_TEXT	ENDS
; Function compile flags: /Odtp /RTCsu
; File z:\sources\lunor\repos\rougemeilland\palmtree.math.core.uint\palmtree.math.core.uint\pmc_uint_debug.h
_TEXT	SEGMENT
_buffer1$ = 8						; size = 4
_count1$ = 12						; size = 4
_buffer2$ = 16						; size = 4
_count2$ = 20						; size = 4
__EQUALS_MEMORY PROC

; 153  : {

	push	ebp
	mov	ebp, esp
	mov	ecx, OFFSET __630249ED_pmc_uint_debug@h
	call	@__CheckForDebuggerJustMyCode@4

; 154  :     if (count1 != count2)

	mov	eax, DWORD PTR _count1$[ebp]
	cmp	eax, DWORD PTR _count2$[ebp]
	je	SHORT $LN2@EQUALS_MEM

; 155  :         return (-1);

	or	eax, -1
	jmp	SHORT $LN1@EQUALS_MEM
$LN2@EQUALS_MEM:

; 156  :     while (count1 > 0)

	cmp	DWORD PTR _count1$[ebp], 0
	jbe	SHORT $LN3@EQUALS_MEM

; 157  :     {
; 158  :         if (*buffer1 != *buffer2)

	mov	ecx, DWORD PTR _buffer1$[ebp]
	movzx	edx, BYTE PTR [ecx]
	mov	eax, DWORD PTR _buffer2$[ebp]
	movzx	ecx, BYTE PTR [eax]
	cmp	edx, ecx
	je	SHORT $LN5@EQUALS_MEM

; 159  :             return (-1);

	or	eax, -1
	jmp	SHORT $LN1@EQUALS_MEM
$LN5@EQUALS_MEM:

; 160  :         ++buffer1;

	mov	edx, DWORD PTR _buffer1$[ebp]
	add	edx, 1
	mov	DWORD PTR _buffer1$[ebp], edx

; 161  :         ++buffer2;

	mov	eax, DWORD PTR _buffer2$[ebp]
	add	eax, 1
	mov	DWORD PTR _buffer2$[ebp], eax

; 162  :         --count1;

	mov	ecx, DWORD PTR _count1$[ebp]
	sub	ecx, 1
	mov	DWORD PTR _count1$[ebp], ecx

; 163  :     }

	jmp	SHORT $LN2@EQUALS_MEM
$LN3@EQUALS_MEM:

; 164  :     return (0);

	xor	eax, eax
$LN1@EQUALS_MEM:

; 165  : }

	cmp	ebp, esp
	call	__RTC_CheckEsp
	pop	ebp
	ret	0
__EQUALS_MEMORY ENDP
_TEXT	ENDS
; Function compile flags: /Odtp /RTCsu
; File z:\sources\lunor\repos\rougemeilland\palmtree.math.core.uint\palmtree.math.core.uint\test_op_remainder.c
_TEXT	SEGMENT
tv178 = -352						; size = 4
tv163 = -348						; size = 4
tv143 = -344						; size = 4
tv92 = -340						; size = 4
tv74 = -336						; size = 4
_r_result$ = -332					; size = 4
_v_result$ = -328					; size = 4
_u_result$ = -324					; size = 4
_result$ = -320						; size = 4
_actual_r_buf_size$ = -312				; size = 4
_actual_r_buf$ = -300					; size = 256
_r$ = -36						; size = 4
_v$ = -24						; size = 4
_u$ = -12						; size = 4
__$ArrayPad$ = -4					; size = 4
_env$ = 8						; size = 4
_ep$ = 12						; size = 4
_no$ = 16						; size = 4
_u_buf$ = 20						; size = 4
_u_buf_size$ = 24					; size = 4
_v_buf$ = 28						; size = 4
_v_buf_size$ = 32					; size = 4
_desired_return_code$ = 36				; size = 4
_desired_r_buf$ = 40					; size = 4
_desired_r_buf_size$ = 44				; size = 4
_TEST_PMC_Remainder_X_X PROC

; 97   : {

	push	ebp
	mov	ebp, esp
	sub	esp, 352				; 00000160H
	push	esi
	push	edi
	lea	edi, DWORD PTR [ebp-352]
	mov	ecx, 88					; 00000058H
	mov	eax, -858993460				; ccccccccH
	rep stosd
	mov	eax, DWORD PTR ___security_cookie
	xor	eax, ebp
	mov	DWORD PTR __$ArrayPad$[ebp], eax
	mov	ecx, OFFSET __8245D7A3_test_op_remainder@c
	call	@__CheckForDebuggerJustMyCode@4

; 98   :     PMC_HANDLE_UINT u;
; 99   :     PMC_HANDLE_UINT v;
; 100  :     PMC_HANDLE_UINT r;
; 101  :     unsigned char actual_r_buf[256];
; 102  :     size_t actual_r_buf_size;
; 103  :     PMC_STATUS_CODE result;
; 104  :     PMC_STATUS_CODE u_result;
; 105  :     PMC_STATUS_CODE v_result;
; 106  :     PMC_STATUS_CODE r_result;
; 107  :     TEST_Assert(env, FormatTestLabel(L"PMC_Remainder_X_X (%d.%d)", no, 1), (u_result = ep->FromByteArray(u_buf, u_buf_size, &u)) == PMC_STATUS_OK, FormatTestMesssage(L"PMC_FromByteArrayの復帰コードが期待通りではない(%d)", u_result));

	mov	esi, esp
	lea	eax, DWORD PTR _u$[ebp]
	push	eax
	mov	ecx, DWORD PTR _u_buf_size$[ebp]
	push	ecx
	mov	edx, DWORD PTR _u_buf$[ebp]
	push	edx
	mov	eax, DWORD PTR _ep$[ebp]
	mov	ecx, DWORD PTR [eax+24]
	call	ecx
	cmp	esi, esp
	call	__RTC_CheckEsp
	mov	DWORD PTR _u_result$[ebp], eax
	cmp	DWORD PTR _u_result$[ebp], 0
	jne	SHORT $LN7@TEST_PMC_R
	mov	DWORD PTR tv74[ebp], 1
	jmp	SHORT $LN8@TEST_PMC_R
$LN7@TEST_PMC_R:
	mov	DWORD PTR tv74[ebp], 0
$LN8@TEST_PMC_R:
	mov	edx, DWORD PTR _u_result$[ebp]
	push	edx
	push	OFFSET $SG94742
	call	_FormatTestMesssage
	add	esp, 8
	push	eax
	mov	eax, DWORD PTR tv74[ebp]
	push	eax
	push	1
	mov	ecx, DWORD PTR _no$[ebp]
	push	ecx
	push	OFFSET $SG94743
	call	_FormatTestLabel
	add	esp, 12					; 0000000cH
	push	eax
	mov	edx, DWORD PTR _env$[ebp]
	push	edx
	call	_TEST_Assert
	add	esp, 16					; 00000010H

; 108  :     TEST_Assert(env, FormatTestLabel(L"PMC_Remainder_X_X (%d.%d)", no, 2), (v_result = ep->FromByteArray(v_buf, v_buf_size, &v)) == PMC_STATUS_OK, FormatTestMesssage(L"PMC_FromByteArrayの復帰コードが期待通りではない(%d)", v_result));

	mov	esi, esp
	lea	eax, DWORD PTR _v$[ebp]
	push	eax
	mov	ecx, DWORD PTR _v_buf_size$[ebp]
	push	ecx
	mov	edx, DWORD PTR _v_buf$[ebp]
	push	edx
	mov	eax, DWORD PTR _ep$[ebp]
	mov	ecx, DWORD PTR [eax+24]
	call	ecx
	cmp	esi, esp
	call	__RTC_CheckEsp
	mov	DWORD PTR _v_result$[ebp], eax
	cmp	DWORD PTR _v_result$[ebp], 0
	jne	SHORT $LN9@TEST_PMC_R
	mov	DWORD PTR tv92[ebp], 1
	jmp	SHORT $LN10@TEST_PMC_R
$LN9@TEST_PMC_R:
	mov	DWORD PTR tv92[ebp], 0
$LN10@TEST_PMC_R:
	mov	edx, DWORD PTR _v_result$[ebp]
	push	edx
	push	OFFSET $SG94744
	call	_FormatTestMesssage
	add	esp, 8
	push	eax
	mov	eax, DWORD PTR tv92[ebp]
	push	eax
	push	2
	mov	ecx, DWORD PTR _no$[ebp]
	push	ecx
	push	OFFSET $SG94745
	call	_FormatTestLabel
	add	esp, 12					; 0000000cH
	push	eax
	mov	edx, DWORD PTR _env$[ebp]
	push	edx
	call	_TEST_Assert
	add	esp, 16					; 00000010H

; 109  :     TEST_Assert(env, FormatTestLabel(L"PMC_Remainder_X_X (%d.%d)", no, 3), (r_result = ep->DivRem_X_X(u, v, NULL, &r)) == desired_return_code, FormatTestMesssage(L"PMC_Remainder_X_Xの復帰コードが期待通りではない(%d)", r_result));

	mov	esi, esp
	lea	eax, DWORD PTR _r$[ebp]
	push	eax
	push	0
	mov	ecx, DWORD PTR _v$[ebp]
	push	ecx
	mov	edx, DWORD PTR _u$[ebp]
	push	edx
	mov	eax, DWORD PTR _ep$[ebp]
	mov	ecx, DWORD PTR [eax+128]
	call	ecx
	cmp	esi, esp
	call	__RTC_CheckEsp
	mov	DWORD PTR _r_result$[ebp], eax
	mov	edx, DWORD PTR _r_result$[ebp]
	cmp	edx, DWORD PTR _desired_return_code$[ebp]
	jne	SHORT $LN11@TEST_PMC_R
	mov	DWORD PTR tv143[ebp], 1
	jmp	SHORT $LN12@TEST_PMC_R
$LN11@TEST_PMC_R:
	mov	DWORD PTR tv143[ebp], 0
$LN12@TEST_PMC_R:
	mov	eax, DWORD PTR _r_result$[ebp]
	push	eax
	push	OFFSET $SG94746
	call	_FormatTestMesssage
	add	esp, 8
	push	eax
	mov	ecx, DWORD PTR tv143[ebp]
	push	ecx
	push	3
	mov	edx, DWORD PTR _no$[ebp]
	push	edx
	push	OFFSET $SG94747
	call	_FormatTestLabel
	add	esp, 12					; 0000000cH
	push	eax
	mov	eax, DWORD PTR _env$[ebp]
	push	eax
	call	_TEST_Assert
	add	esp, 16					; 00000010H

; 110  :     if (desired_return_code == PMC_STATUS_OK)

	cmp	DWORD PTR _desired_return_code$[ebp], 0
	jne	$LN2@TEST_PMC_R

; 111  :     {
; 112  :         TEST_Assert(env, FormatTestLabel(L"PMC_Remainder_X_X (%d.%d)", no, 4), (result = ep->ToByteArray(r, actual_r_buf, sizeof(actual_r_buf), &actual_r_buf_size)) == PMC_STATUS_OK, FormatTestMesssage(L"PMC_ToByteArrayの復帰コードが期待通りではない(%d)", result));

	mov	esi, esp
	lea	ecx, DWORD PTR _actual_r_buf_size$[ebp]
	push	ecx
	push	256					; 00000100H
	lea	edx, DWORD PTR _actual_r_buf$[ebp]
	push	edx
	mov	eax, DWORD PTR _r$[ebp]
	push	eax
	mov	ecx, DWORD PTR _ep$[ebp]
	mov	edx, DWORD PTR [ecx+28]
	call	edx
	cmp	esi, esp
	call	__RTC_CheckEsp
	mov	DWORD PTR _result$[ebp], eax
	cmp	DWORD PTR _result$[ebp], 0
	jne	SHORT $LN13@TEST_PMC_R
	mov	DWORD PTR tv163[ebp], 1
	jmp	SHORT $LN14@TEST_PMC_R
$LN13@TEST_PMC_R:
	mov	DWORD PTR tv163[ebp], 0
$LN14@TEST_PMC_R:
	mov	eax, DWORD PTR _result$[ebp]
	push	eax
	push	OFFSET $SG94749
	call	_FormatTestMesssage
	add	esp, 8
	push	eax
	mov	ecx, DWORD PTR tv163[ebp]
	push	ecx
	push	4
	mov	edx, DWORD PTR _no$[ebp]
	push	edx
	push	OFFSET $SG94750
	call	_FormatTestLabel
	add	esp, 12					; 0000000cH
	push	eax
	mov	eax, DWORD PTR _env$[ebp]
	push	eax
	call	_TEST_Assert
	add	esp, 16					; 00000010H

; 113  :         TEST_Assert(env, FormatTestLabel(L"PMC_Remainder_X_X (%d.%d)", no, 5), _EQUALS_MEMORY(actual_r_buf, actual_r_buf_size, desired_r_buf, desired_r_buf_size) == 0, L"剰余の値が一致しない");

	mov	ecx, DWORD PTR _desired_r_buf_size$[ebp]
	push	ecx
	mov	edx, DWORD PTR _desired_r_buf$[ebp]
	push	edx
	mov	eax, DWORD PTR _actual_r_buf_size$[ebp]
	push	eax
	lea	ecx, DWORD PTR _actual_r_buf$[ebp]
	push	ecx
	call	__EQUALS_MEMORY
	add	esp, 16					; 00000010H
	test	eax, eax
	jne	SHORT $LN15@TEST_PMC_R
	mov	DWORD PTR tv178[ebp], 1
	jmp	SHORT $LN16@TEST_PMC_R
$LN15@TEST_PMC_R:
	mov	DWORD PTR tv178[ebp], 0
$LN16@TEST_PMC_R:
	push	OFFSET $SG94751
	mov	edx, DWORD PTR tv178[ebp]
	push	edx
	push	5
	mov	eax, DWORD PTR _no$[ebp]
	push	eax
	push	OFFSET $SG94752
	call	_FormatTestLabel
	add	esp, 12					; 0000000cH
	push	eax
	mov	ecx, DWORD PTR _env$[ebp]
	push	ecx
	call	_TEST_Assert
	add	esp, 16					; 00000010H
$LN2@TEST_PMC_R:

; 114  :     }
; 115  :     if (r_result == PMC_STATUS_OK)

	cmp	DWORD PTR _r_result$[ebp], 0
	jne	SHORT $LN3@TEST_PMC_R

; 116  :     {
; 117  :         ep->Dispose(r);

	mov	esi, esp
	mov	edx, DWORD PTR _r$[ebp]
	push	edx
	mov	eax, DWORD PTR _ep$[ebp]
	mov	ecx, DWORD PTR [eax+16]
	call	ecx
	cmp	esi, esp
	call	__RTC_CheckEsp
$LN3@TEST_PMC_R:

; 118  :     }
; 119  :     if (v_result == PMC_STATUS_OK)

	cmp	DWORD PTR _v_result$[ebp], 0
	jne	SHORT $LN4@TEST_PMC_R

; 120  :         ep->Dispose(v);

	mov	esi, esp
	mov	edx, DWORD PTR _v$[ebp]
	push	edx
	mov	eax, DWORD PTR _ep$[ebp]
	mov	ecx, DWORD PTR [eax+16]
	call	ecx
	cmp	esi, esp
	call	__RTC_CheckEsp
$LN4@TEST_PMC_R:

; 121  :     if (u_result == PMC_STATUS_OK)

	cmp	DWORD PTR _u_result$[ebp], 0
	jne	SHORT $LN1@TEST_PMC_R

; 122  :         ep->Dispose(u);

	mov	esi, esp
	mov	edx, DWORD PTR _u$[ebp]
	push	edx
	mov	eax, DWORD PTR _ep$[ebp]
	mov	ecx, DWORD PTR [eax+16]
	call	ecx
	cmp	esi, esp
	call	__RTC_CheckEsp
$LN1@TEST_PMC_R:

; 123  : }

	push	edx
	mov	ecx, ebp
	push	eax
	lea	edx, DWORD PTR $LN23@TEST_PMC_R
	call	@_RTC_CheckStackVars@8
	pop	eax
	pop	edx
	pop	edi
	pop	esi
	mov	ecx, DWORD PTR __$ArrayPad$[ebp]
	xor	ecx, ebp
	call	@__security_check_cookie@4
	add	esp, 352				; 00000160H
	cmp	ebp, esp
	call	__RTC_CheckEsp
	mov	esp, ebp
	pop	ebp
	ret	0
	npad	3
$LN23@TEST_PMC_R:
	DD	5
	DD	$LN22@TEST_PMC_R
$LN22@TEST_PMC_R:
	DD	-12					; fffffff4H
	DD	4
	DD	$LN17@TEST_PMC_R
	DD	-24					; ffffffe8H
	DD	4
	DD	$LN18@TEST_PMC_R
	DD	-36					; ffffffdcH
	DD	4
	DD	$LN19@TEST_PMC_R
	DD	-300					; fffffed4H
	DD	256					; 00000100H
	DD	$LN20@TEST_PMC_R
	DD	-312					; fffffec8H
	DD	4
	DD	$LN21@TEST_PMC_R
$LN21@TEST_PMC_R:
	DB	97					; 00000061H
	DB	99					; 00000063H
	DB	116					; 00000074H
	DB	117					; 00000075H
	DB	97					; 00000061H
	DB	108					; 0000006cH
	DB	95					; 0000005fH
	DB	114					; 00000072H
	DB	95					; 0000005fH
	DB	98					; 00000062H
	DB	117					; 00000075H
	DB	102					; 00000066H
	DB	95					; 0000005fH
	DB	115					; 00000073H
	DB	105					; 00000069H
	DB	122					; 0000007aH
	DB	101					; 00000065H
	DB	0
$LN20@TEST_PMC_R:
	DB	97					; 00000061H
	DB	99					; 00000063H
	DB	116					; 00000074H
	DB	117					; 00000075H
	DB	97					; 00000061H
	DB	108					; 0000006cH
	DB	95					; 0000005fH
	DB	114					; 00000072H
	DB	95					; 0000005fH
	DB	98					; 00000062H
	DB	117					; 00000075H
	DB	102					; 00000066H
	DB	0
$LN19@TEST_PMC_R:
	DB	114					; 00000072H
	DB	0
$LN18@TEST_PMC_R:
	DB	118					; 00000076H
	DB	0
$LN17@TEST_PMC_R:
	DB	117					; 00000075H
	DB	0
_TEST_PMC_Remainder_X_X ENDP
_TEXT	ENDS
; Function compile flags: /Odtp /RTCsu
; File z:\sources\lunor\repos\rougemeilland\palmtree.math.core.uint\palmtree.math.core.uint\test_op_remainder.c
_TEXT	SEGMENT
tv136 = -48						; size = 4
tv93 = -44						; size = 4
tv74 = -40						; size = 4
_u_result$ = -36					; size = 4
_result$ = -32						; size = 4
_actual_r$ = -24					; size = 8
_u$ = -8						; size = 4
_env$ = 8						; size = 4
_ep$ = 12						; size = 4
_no$ = 16						; size = 4
_u_buf$ = 20						; size = 4
_u_buf_size$ = 24					; size = 4
_v$ = 28						; size = 8
_desired_return_code$ = 36				; size = 4
_desired_r$ = 40					; size = 8
_TEST_PMC_Remainder_X_L PROC

; 81   : {

	push	ebp
	mov	ebp, esp
	sub	esp, 48					; 00000030H
	push	esi
	push	edi
	lea	edi, DWORD PTR [ebp-48]
	mov	ecx, 12					; 0000000cH
	mov	eax, -858993460				; ccccccccH
	rep stosd
	mov	ecx, OFFSET __8245D7A3_test_op_remainder@c
	call	@__CheckForDebuggerJustMyCode@4

; 82   :     PMC_HANDLE_UINT u;
; 83   :     unsigned __int64 actual_r;
; 84   :     PMC_STATUS_CODE result;
; 85   :     PMC_STATUS_CODE u_result;
; 86   :     TEST_Assert(env, FormatTestLabel(L"PMC_Remainder_X_L (%d.%d)", no, 1), (u_result = ep->FromByteArray(u_buf, u_buf_size, &u)) == PMC_STATUS_OK, FormatTestMesssage(L"PMC_FromByteArrayの復帰コードが期待通りではない(%d)", u_result));

	mov	esi, esp
	lea	eax, DWORD PTR _u$[ebp]
	push	eax
	mov	ecx, DWORD PTR _u_buf_size$[ebp]
	push	ecx
	mov	edx, DWORD PTR _u_buf$[ebp]
	push	edx
	mov	eax, DWORD PTR _ep$[ebp]
	mov	ecx, DWORD PTR [eax+24]
	call	ecx
	cmp	esi, esp
	call	__RTC_CheckEsp
	mov	DWORD PTR _u_result$[ebp], eax
	cmp	DWORD PTR _u_result$[ebp], 0
	jne	SHORT $LN5@TEST_PMC_R
	mov	DWORD PTR tv74[ebp], 1
	jmp	SHORT $LN6@TEST_PMC_R
$LN5@TEST_PMC_R:
	mov	DWORD PTR tv74[ebp], 0
$LN6@TEST_PMC_R:
	mov	edx, DWORD PTR _u_result$[ebp]
	push	edx
	push	OFFSET $SG94703
	call	_FormatTestMesssage
	add	esp, 8
	push	eax
	mov	eax, DWORD PTR tv74[ebp]
	push	eax
	push	1
	mov	ecx, DWORD PTR _no$[ebp]
	push	ecx
	push	OFFSET $SG94704
	call	_FormatTestLabel
	add	esp, 12					; 0000000cH
	push	eax
	mov	edx, DWORD PTR _env$[ebp]
	push	edx
	call	_TEST_Assert
	add	esp, 16					; 00000010H

; 87   :     TEST_Assert(env, FormatTestLabel(L"PMC_Remainder_X_L (%d.%d)", no, 2), (result = ep->DivRem_X_L(u, v, NULL, &actual_r)) == desired_return_code, FormatTestMesssage(L"PMC_Remainder_X_Lの復帰コードが期待通りではない(%d)", result));

	mov	esi, esp
	lea	eax, DWORD PTR _actual_r$[ebp]
	push	eax
	push	0
	mov	ecx, DWORD PTR _v$[ebp+4]
	push	ecx
	mov	edx, DWORD PTR _v$[ebp]
	push	edx
	mov	eax, DWORD PTR _u$[ebp]
	push	eax
	mov	ecx, DWORD PTR _ep$[ebp]
	mov	edx, DWORD PTR [ecx+124]
	call	edx
	cmp	esi, esp
	call	__RTC_CheckEsp
	mov	DWORD PTR _result$[ebp], eax
	mov	eax, DWORD PTR _result$[ebp]
	cmp	eax, DWORD PTR _desired_return_code$[ebp]
	jne	SHORT $LN7@TEST_PMC_R
	mov	DWORD PTR tv93[ebp], 1
	jmp	SHORT $LN8@TEST_PMC_R
$LN7@TEST_PMC_R:
	mov	DWORD PTR tv93[ebp], 0
$LN8@TEST_PMC_R:
	mov	ecx, DWORD PTR _result$[ebp]
	push	ecx
	push	OFFSET $SG94705
	call	_FormatTestMesssage
	add	esp, 8
	push	eax
	mov	edx, DWORD PTR tv93[ebp]
	push	edx
	push	2
	mov	eax, DWORD PTR _no$[ebp]
	push	eax
	push	OFFSET $SG94706
	call	_FormatTestLabel
	add	esp, 12					; 0000000cH
	push	eax
	mov	ecx, DWORD PTR _env$[ebp]
	push	ecx
	call	_TEST_Assert
	add	esp, 16					; 00000010H

; 88   :     if (desired_return_code == PMC_STATUS_OK)

	cmp	DWORD PTR _desired_return_code$[ebp], 0
	jne	SHORT $LN2@TEST_PMC_R

; 89   :     {
; 90   :         TEST_Assert(env, FormatTestLabel(L"PMC_Remainder_X_L (%d.%d)", no, 3), actual_r == desired_r, L"剰余の値が一致しない");

	mov	edx, DWORD PTR _actual_r$[ebp]
	cmp	edx, DWORD PTR _desired_r$[ebp]
	jne	SHORT $LN9@TEST_PMC_R
	mov	eax, DWORD PTR _actual_r$[ebp+4]
	cmp	eax, DWORD PTR _desired_r$[ebp+4]
	jne	SHORT $LN9@TEST_PMC_R
	mov	DWORD PTR tv136[ebp], 1
	jmp	SHORT $LN10@TEST_PMC_R
$LN9@TEST_PMC_R:
	mov	DWORD PTR tv136[ebp], 0
$LN10@TEST_PMC_R:
	push	OFFSET $SG94708
	mov	ecx, DWORD PTR tv136[ebp]
	push	ecx
	push	3
	mov	edx, DWORD PTR _no$[ebp]
	push	edx
	push	OFFSET $SG94709
	call	_FormatTestLabel
	add	esp, 12					; 0000000cH
	push	eax
	mov	eax, DWORD PTR _env$[ebp]
	push	eax
	call	_TEST_Assert
	add	esp, 16					; 00000010H
$LN2@TEST_PMC_R:

; 91   :     }
; 92   :     if (u_result == PMC_STATUS_OK)

	cmp	DWORD PTR _u_result$[ebp], 0
	jne	SHORT $LN1@TEST_PMC_R

; 93   :         ep->Dispose(u);

	mov	esi, esp
	mov	ecx, DWORD PTR _u$[ebp]
	push	ecx
	mov	edx, DWORD PTR _ep$[ebp]
	mov	eax, DWORD PTR [edx+16]
	call	eax
	cmp	esi, esp
	call	__RTC_CheckEsp
$LN1@TEST_PMC_R:

; 94   : }

	push	edx
	mov	ecx, ebp
	push	eax
	lea	edx, DWORD PTR $LN14@TEST_PMC_R
	call	@_RTC_CheckStackVars@8
	pop	eax
	pop	edx
	pop	edi
	pop	esi
	add	esp, 48					; 00000030H
	cmp	ebp, esp
	call	__RTC_CheckEsp
	mov	esp, ebp
	pop	ebp
	ret	0
$LN14@TEST_PMC_R:
	DD	2
	DD	$LN13@TEST_PMC_R
$LN13@TEST_PMC_R:
	DD	-8					; fffffff8H
	DD	4
	DD	$LN11@TEST_PMC_R
	DD	-24					; ffffffe8H
	DD	8
	DD	$LN12@TEST_PMC_R
$LN12@TEST_PMC_R:
	DB	97					; 00000061H
	DB	99					; 00000063H
	DB	116					; 00000074H
	DB	117					; 00000075H
	DB	97					; 00000061H
	DB	108					; 0000006cH
	DB	95					; 0000005fH
	DB	114					; 00000072H
	DB	0
$LN11@TEST_PMC_R:
	DB	117					; 00000075H
	DB	0
_TEST_PMC_Remainder_X_L ENDP
_TEXT	ENDS
; Function compile flags: /Odtp /RTCsu
; File z:\sources\lunor\repos\rougemeilland\palmtree.math.core.uint\palmtree.math.core.uint\test_op_remainder.c
_TEXT	SEGMENT
tv136 = -44						; size = 4
tv93 = -40						; size = 4
tv74 = -36						; size = 4
_u_result$ = -32					; size = 4
_result$ = -28						; size = 4
_actual_r$ = -20					; size = 4
_u$ = -8						; size = 4
_env$ = 8						; size = 4
_ep$ = 12						; size = 4
_no$ = 16						; size = 4
_u_buf$ = 20						; size = 4
_u_buf_size$ = 24					; size = 4
_v$ = 28						; size = 4
_desired_return_code$ = 32				; size = 4
_desired_r$ = 36					; size = 4
_TEST_PMC_Remainder_X_I PROC

; 65   : {

	push	ebp
	mov	ebp, esp
	sub	esp, 44					; 0000002cH
	push	esi
	push	edi
	lea	edi, DWORD PTR [ebp-44]
	mov	ecx, 11					; 0000000bH
	mov	eax, -858993460				; ccccccccH
	rep stosd
	mov	ecx, OFFSET __8245D7A3_test_op_remainder@c
	call	@__CheckForDebuggerJustMyCode@4

; 66   :     PMC_HANDLE_UINT u;
; 67   :     unsigned __int32 actual_r;
; 68   :     PMC_STATUS_CODE result;
; 69   :     PMC_STATUS_CODE u_result;
; 70   :     TEST_Assert(env, FormatTestLabel(L"PMC_Remainder_X_I (%d.%d)", no, 1), (u_result = ep->FromByteArray(u_buf, u_buf_size, &u)) == PMC_STATUS_OK, FormatTestMesssage(L"PMC_FromByteArrayの復帰コードが期待通りではない(%d)", u_result));

	mov	esi, esp
	lea	eax, DWORD PTR _u$[ebp]
	push	eax
	mov	ecx, DWORD PTR _u_buf_size$[ebp]
	push	ecx
	mov	edx, DWORD PTR _u_buf$[ebp]
	push	edx
	mov	eax, DWORD PTR _ep$[ebp]
	mov	ecx, DWORD PTR [eax+24]
	call	ecx
	cmp	esi, esp
	call	__RTC_CheckEsp
	mov	DWORD PTR _u_result$[ebp], eax
	cmp	DWORD PTR _u_result$[ebp], 0
	jne	SHORT $LN5@TEST_PMC_R
	mov	DWORD PTR tv74[ebp], 1
	jmp	SHORT $LN6@TEST_PMC_R
$LN5@TEST_PMC_R:
	mov	DWORD PTR tv74[ebp], 0
$LN6@TEST_PMC_R:
	mov	edx, DWORD PTR _u_result$[ebp]
	push	edx
	push	OFFSET $SG94673
	call	_FormatTestMesssage
	add	esp, 8
	push	eax
	mov	eax, DWORD PTR tv74[ebp]
	push	eax
	push	1
	mov	ecx, DWORD PTR _no$[ebp]
	push	ecx
	push	OFFSET $SG94674
	call	_FormatTestLabel
	add	esp, 12					; 0000000cH
	push	eax
	mov	edx, DWORD PTR _env$[ebp]
	push	edx
	call	_TEST_Assert
	add	esp, 16					; 00000010H

; 71   :     TEST_Assert(env, FormatTestLabel(L"PMC_Remainder_X_I (%d.%d)", no, 2), (result = ep->DivRem_X_I(u, v, NULL, &actual_r)) == desired_return_code, FormatTestMesssage(L"PMC_Remainder_X_Iの復帰コードが期待通りではない(%d)", result));

	mov	esi, esp
	lea	eax, DWORD PTR _actual_r$[ebp]
	push	eax
	push	0
	mov	ecx, DWORD PTR _v$[ebp]
	push	ecx
	mov	edx, DWORD PTR _u$[ebp]
	push	edx
	mov	eax, DWORD PTR _ep$[ebp]
	mov	ecx, DWORD PTR [eax+120]
	call	ecx
	cmp	esi, esp
	call	__RTC_CheckEsp
	mov	DWORD PTR _result$[ebp], eax
	mov	edx, DWORD PTR _result$[ebp]
	cmp	edx, DWORD PTR _desired_return_code$[ebp]
	jne	SHORT $LN7@TEST_PMC_R
	mov	DWORD PTR tv93[ebp], 1
	jmp	SHORT $LN8@TEST_PMC_R
$LN7@TEST_PMC_R:
	mov	DWORD PTR tv93[ebp], 0
$LN8@TEST_PMC_R:
	mov	eax, DWORD PTR _result$[ebp]
	push	eax
	push	OFFSET $SG94675
	call	_FormatTestMesssage
	add	esp, 8
	push	eax
	mov	ecx, DWORD PTR tv93[ebp]
	push	ecx
	push	2
	mov	edx, DWORD PTR _no$[ebp]
	push	edx
	push	OFFSET $SG94676
	call	_FormatTestLabel
	add	esp, 12					; 0000000cH
	push	eax
	mov	eax, DWORD PTR _env$[ebp]
	push	eax
	call	_TEST_Assert
	add	esp, 16					; 00000010H

; 72   :     if (desired_return_code == PMC_STATUS_OK)

	cmp	DWORD PTR _desired_return_code$[ebp], 0
	jne	SHORT $LN2@TEST_PMC_R

; 73   :     {
; 74   :         TEST_Assert(env, FormatTestLabel(L"PMC_Remainder_X_I (%d.%d)", no, 3), actual_r == desired_r, L"剰余の値が一致しない");

	mov	ecx, DWORD PTR _actual_r$[ebp]
	cmp	ecx, DWORD PTR _desired_r$[ebp]
	jne	SHORT $LN9@TEST_PMC_R
	mov	DWORD PTR tv136[ebp], 1
	jmp	SHORT $LN10@TEST_PMC_R
$LN9@TEST_PMC_R:
	mov	DWORD PTR tv136[ebp], 0
$LN10@TEST_PMC_R:
	push	OFFSET $SG94678
	mov	edx, DWORD PTR tv136[ebp]
	push	edx
	push	3
	mov	eax, DWORD PTR _no$[ebp]
	push	eax
	push	OFFSET $SG94679
	call	_FormatTestLabel
	add	esp, 12					; 0000000cH
	push	eax
	mov	ecx, DWORD PTR _env$[ebp]
	push	ecx
	call	_TEST_Assert
	add	esp, 16					; 00000010H
$LN2@TEST_PMC_R:

; 75   :     }
; 76   :     if (u_result == PMC_STATUS_OK)

	cmp	DWORD PTR _u_result$[ebp], 0
	jne	SHORT $LN1@TEST_PMC_R

; 77   :         ep->Dispose(u);

	mov	esi, esp
	mov	edx, DWORD PTR _u$[ebp]
	push	edx
	mov	eax, DWORD PTR _ep$[ebp]
	mov	ecx, DWORD PTR [eax+16]
	call	ecx
	cmp	esi, esp
	call	__RTC_CheckEsp
$LN1@TEST_PMC_R:

; 78   : }

	push	edx
	mov	ecx, ebp
	push	eax
	lea	edx, DWORD PTR $LN14@TEST_PMC_R
	call	@_RTC_CheckStackVars@8
	pop	eax
	pop	edx
	pop	edi
	pop	esi
	add	esp, 44					; 0000002cH
	cmp	ebp, esp
	call	__RTC_CheckEsp
	mov	esp, ebp
	pop	ebp
	ret	0
$LN14@TEST_PMC_R:
	DD	2
	DD	$LN13@TEST_PMC_R
$LN13@TEST_PMC_R:
	DD	-8					; fffffff8H
	DD	4
	DD	$LN11@TEST_PMC_R
	DD	-20					; ffffffecH
	DD	4
	DD	$LN12@TEST_PMC_R
$LN12@TEST_PMC_R:
	DB	97					; 00000061H
	DB	99					; 00000063H
	DB	116					; 00000074H
	DB	117					; 00000075H
	DB	97					; 00000061H
	DB	108					; 0000006cH
	DB	95					; 0000005fH
	DB	114					; 00000072H
	DB	0
$LN11@TEST_PMC_R:
	DB	117					; 00000075H
	DB	0
_TEST_PMC_Remainder_X_I ENDP
_TEXT	ENDS
; Function compile flags: /Odtp /RTCsu
; File z:\sources\lunor\repos\rougemeilland\palmtree.math.core.uint\palmtree.math.core.uint\test_op_remainder.c
_TEXT	SEGMENT
tv136 = -48						; size = 4
tv93 = -44						; size = 4
tv74 = -40						; size = 4
_v_result$ = -36					; size = 4
_result$ = -32						; size = 4
_actual_r$ = -24					; size = 8
_v$ = -8						; size = 4
_env$ = 8						; size = 4
_ep$ = 12						; size = 4
_no$ = 16						; size = 4
_u$ = 20						; size = 8
_v_buf$ = 28						; size = 4
_v_buf_size$ = 32					; size = 4
_desired_return_code$ = 36				; size = 4
_desired_r$ = 40					; size = 8
_TEST_PMC_Remainder_L_X PROC

; 49   : {

	push	ebp
	mov	ebp, esp
	sub	esp, 48					; 00000030H
	push	esi
	push	edi
	lea	edi, DWORD PTR [ebp-48]
	mov	ecx, 12					; 0000000cH
	mov	eax, -858993460				; ccccccccH
	rep stosd
	mov	ecx, OFFSET __8245D7A3_test_op_remainder@c
	call	@__CheckForDebuggerJustMyCode@4

; 50   :     PMC_HANDLE_UINT v;
; 51   :     unsigned __int64 actual_r;
; 52   :     PMC_STATUS_CODE result;
; 53   :     PMC_STATUS_CODE v_result;
; 54   :     TEST_Assert(env, FormatTestLabel(L"PMC_Remainder_L_X (%d.%d)", no, 1), (v_result = ep->FromByteArray(v_buf, v_buf_size, &v)) == PMC_STATUS_OK, FormatTestMesssage(L"PMC_FromByteArrayの復帰コードが期待通りではない(%d)", v_result));

	mov	esi, esp
	lea	eax, DWORD PTR _v$[ebp]
	push	eax
	mov	ecx, DWORD PTR _v_buf_size$[ebp]
	push	ecx
	mov	edx, DWORD PTR _v_buf$[ebp]
	push	edx
	mov	eax, DWORD PTR _ep$[ebp]
	mov	ecx, DWORD PTR [eax+24]
	call	ecx
	cmp	esi, esp
	call	__RTC_CheckEsp
	mov	DWORD PTR _v_result$[ebp], eax
	cmp	DWORD PTR _v_result$[ebp], 0
	jne	SHORT $LN5@TEST_PMC_R
	mov	DWORD PTR tv74[ebp], 1
	jmp	SHORT $LN6@TEST_PMC_R
$LN5@TEST_PMC_R:
	mov	DWORD PTR tv74[ebp], 0
$LN6@TEST_PMC_R:
	mov	edx, DWORD PTR _v_result$[ebp]
	push	edx
	push	OFFSET $SG94643
	call	_FormatTestMesssage
	add	esp, 8
	push	eax
	mov	eax, DWORD PTR tv74[ebp]
	push	eax
	push	1
	mov	ecx, DWORD PTR _no$[ebp]
	push	ecx
	push	OFFSET $SG94644
	call	_FormatTestLabel
	add	esp, 12					; 0000000cH
	push	eax
	mov	edx, DWORD PTR _env$[ebp]
	push	edx
	call	_TEST_Assert
	add	esp, 16					; 00000010H

; 55   :     TEST_Assert(env, FormatTestLabel(L"PMC_Remainder_L_X (%d.%d)", no, 2), (result = ep->DivRem_L_X(u, v, NULL, &actual_r)) == desired_return_code, FormatTestMesssage(L"PMC_Remainder_L_Xの復帰コードが期待通りではない(%d)", result));

	mov	esi, esp
	lea	eax, DWORD PTR _actual_r$[ebp]
	push	eax
	push	0
	mov	ecx, DWORD PTR _v$[ebp]
	push	ecx
	mov	edx, DWORD PTR _u$[ebp+4]
	push	edx
	mov	eax, DWORD PTR _u$[ebp]
	push	eax
	mov	ecx, DWORD PTR _ep$[ebp]
	mov	edx, DWORD PTR [ecx+116]
	call	edx
	cmp	esi, esp
	call	__RTC_CheckEsp
	mov	DWORD PTR _result$[ebp], eax
	mov	eax, DWORD PTR _result$[ebp]
	cmp	eax, DWORD PTR _desired_return_code$[ebp]
	jne	SHORT $LN7@TEST_PMC_R
	mov	DWORD PTR tv93[ebp], 1
	jmp	SHORT $LN8@TEST_PMC_R
$LN7@TEST_PMC_R:
	mov	DWORD PTR tv93[ebp], 0
$LN8@TEST_PMC_R:
	mov	ecx, DWORD PTR _result$[ebp]
	push	ecx
	push	OFFSET $SG94645
	call	_FormatTestMesssage
	add	esp, 8
	push	eax
	mov	edx, DWORD PTR tv93[ebp]
	push	edx
	push	2
	mov	eax, DWORD PTR _no$[ebp]
	push	eax
	push	OFFSET $SG94646
	call	_FormatTestLabel
	add	esp, 12					; 0000000cH
	push	eax
	mov	ecx, DWORD PTR _env$[ebp]
	push	ecx
	call	_TEST_Assert
	add	esp, 16					; 00000010H

; 56   :     if (desired_return_code == PMC_STATUS_OK)

	cmp	DWORD PTR _desired_return_code$[ebp], 0
	jne	SHORT $LN2@TEST_PMC_R

; 57   :     {
; 58   :         TEST_Assert(env, FormatTestLabel(L"PMC_Remainder_L_X (%d.%d)", no, 3), actual_r == desired_r, L"剰余の値が一致しない");

	mov	edx, DWORD PTR _actual_r$[ebp]
	cmp	edx, DWORD PTR _desired_r$[ebp]
	jne	SHORT $LN9@TEST_PMC_R
	mov	eax, DWORD PTR _actual_r$[ebp+4]
	cmp	eax, DWORD PTR _desired_r$[ebp+4]
	jne	SHORT $LN9@TEST_PMC_R
	mov	DWORD PTR tv136[ebp], 1
	jmp	SHORT $LN10@TEST_PMC_R
$LN9@TEST_PMC_R:
	mov	DWORD PTR tv136[ebp], 0
$LN10@TEST_PMC_R:
	push	OFFSET $SG94648
	mov	ecx, DWORD PTR tv136[ebp]
	push	ecx
	push	3
	mov	edx, DWORD PTR _no$[ebp]
	push	edx
	push	OFFSET $SG94649
	call	_FormatTestLabel
	add	esp, 12					; 0000000cH
	push	eax
	mov	eax, DWORD PTR _env$[ebp]
	push	eax
	call	_TEST_Assert
	add	esp, 16					; 00000010H
$LN2@TEST_PMC_R:

; 59   :     }
; 60   :     if (v_result == PMC_STATUS_OK)

	cmp	DWORD PTR _v_result$[ebp], 0
	jne	SHORT $LN1@TEST_PMC_R

; 61   :         ep->Dispose(v);

	mov	esi, esp
	mov	ecx, DWORD PTR _v$[ebp]
	push	ecx
	mov	edx, DWORD PTR _ep$[ebp]
	mov	eax, DWORD PTR [edx+16]
	call	eax
	cmp	esi, esp
	call	__RTC_CheckEsp
$LN1@TEST_PMC_R:

; 62   : }

	push	edx
	mov	ecx, ebp
	push	eax
	lea	edx, DWORD PTR $LN14@TEST_PMC_R
	call	@_RTC_CheckStackVars@8
	pop	eax
	pop	edx
	pop	edi
	pop	esi
	add	esp, 48					; 00000030H
	cmp	ebp, esp
	call	__RTC_CheckEsp
	mov	esp, ebp
	pop	ebp
	ret	0
$LN14@TEST_PMC_R:
	DD	2
	DD	$LN13@TEST_PMC_R
$LN13@TEST_PMC_R:
	DD	-8					; fffffff8H
	DD	4
	DD	$LN11@TEST_PMC_R
	DD	-24					; ffffffe8H
	DD	8
	DD	$LN12@TEST_PMC_R
$LN12@TEST_PMC_R:
	DB	97					; 00000061H
	DB	99					; 00000063H
	DB	116					; 00000074H
	DB	117					; 00000075H
	DB	97					; 00000061H
	DB	108					; 0000006cH
	DB	95					; 0000005fH
	DB	114					; 00000072H
	DB	0
$LN11@TEST_PMC_R:
	DB	118					; 00000076H
	DB	0
_TEST_PMC_Remainder_L_X ENDP
_TEXT	ENDS
; Function compile flags: /Odtp /RTCsu
; File z:\sources\lunor\repos\rougemeilland\palmtree.math.core.uint\palmtree.math.core.uint\test_op_remainder.c
_TEXT	SEGMENT
tv136 = -44						; size = 4
tv93 = -40						; size = 4
tv74 = -36						; size = 4
_v_result$ = -32					; size = 4
_result$ = -28						; size = 4
_actual_r$ = -20					; size = 4
_v$ = -8						; size = 4
_env$ = 8						; size = 4
_ep$ = 12						; size = 4
_no$ = 16						; size = 4
_u$ = 20						; size = 4
_v_buf$ = 24						; size = 4
_v_buf_size$ = 28					; size = 4
_desired_return_code$ = 32				; size = 4
_desired_r$ = 36					; size = 4
_TEST_PMC_Remainder_I_X PROC

; 33   : {

	push	ebp
	mov	ebp, esp
	sub	esp, 44					; 0000002cH
	push	esi
	push	edi
	lea	edi, DWORD PTR [ebp-44]
	mov	ecx, 11					; 0000000bH
	mov	eax, -858993460				; ccccccccH
	rep stosd
	mov	ecx, OFFSET __8245D7A3_test_op_remainder@c
	call	@__CheckForDebuggerJustMyCode@4

; 34   :     PMC_HANDLE_UINT v;
; 35   :     unsigned __int32 actual_r;
; 36   :     PMC_STATUS_CODE result;
; 37   :     PMC_STATUS_CODE v_result;
; 38   :     TEST_Assert(env, FormatTestLabel(L"PMC_Remainder_I_X (%d.%d)", no, 1), (v_result = ep->FromByteArray(v_buf, v_buf_size, &v)) == PMC_STATUS_OK, FormatTestMesssage(L"PMC_FromByteArrayの復帰コードが期待通りではない(%d)", v_result));

	mov	esi, esp
	lea	eax, DWORD PTR _v$[ebp]
	push	eax
	mov	ecx, DWORD PTR _v_buf_size$[ebp]
	push	ecx
	mov	edx, DWORD PTR _v_buf$[ebp]
	push	edx
	mov	eax, DWORD PTR _ep$[ebp]
	mov	ecx, DWORD PTR [eax+24]
	call	ecx
	cmp	esi, esp
	call	__RTC_CheckEsp
	mov	DWORD PTR _v_result$[ebp], eax
	cmp	DWORD PTR _v_result$[ebp], 0
	jne	SHORT $LN5@TEST_PMC_R
	mov	DWORD PTR tv74[ebp], 1
	jmp	SHORT $LN6@TEST_PMC_R
$LN5@TEST_PMC_R:
	mov	DWORD PTR tv74[ebp], 0
$LN6@TEST_PMC_R:
	mov	edx, DWORD PTR _v_result$[ebp]
	push	edx
	push	OFFSET $SG94613
	call	_FormatTestMesssage
	add	esp, 8
	push	eax
	mov	eax, DWORD PTR tv74[ebp]
	push	eax
	push	1
	mov	ecx, DWORD PTR _no$[ebp]
	push	ecx
	push	OFFSET $SG94614
	call	_FormatTestLabel
	add	esp, 12					; 0000000cH
	push	eax
	mov	edx, DWORD PTR _env$[ebp]
	push	edx
	call	_TEST_Assert
	add	esp, 16					; 00000010H

; 39   :     TEST_Assert(env, FormatTestLabel(L"PMC_Remainder_I_X (%d.%d)", no, 2), (result = ep->DivRem_I_X(u, v, NULL, &actual_r)) == desired_return_code, FormatTestMesssage(L"PMC_Remainder_I_Xの復帰コードが期待通りではない(%d)", result));

	mov	esi, esp
	lea	eax, DWORD PTR _actual_r$[ebp]
	push	eax
	push	0
	mov	ecx, DWORD PTR _v$[ebp]
	push	ecx
	mov	edx, DWORD PTR _u$[ebp]
	push	edx
	mov	eax, DWORD PTR _ep$[ebp]
	mov	ecx, DWORD PTR [eax+112]
	call	ecx
	cmp	esi, esp
	call	__RTC_CheckEsp
	mov	DWORD PTR _result$[ebp], eax
	mov	edx, DWORD PTR _result$[ebp]
	cmp	edx, DWORD PTR _desired_return_code$[ebp]
	jne	SHORT $LN7@TEST_PMC_R
	mov	DWORD PTR tv93[ebp], 1
	jmp	SHORT $LN8@TEST_PMC_R
$LN7@TEST_PMC_R:
	mov	DWORD PTR tv93[ebp], 0
$LN8@TEST_PMC_R:
	mov	eax, DWORD PTR _result$[ebp]
	push	eax
	push	OFFSET $SG94615
	call	_FormatTestMesssage
	add	esp, 8
	push	eax
	mov	ecx, DWORD PTR tv93[ebp]
	push	ecx
	push	2
	mov	edx, DWORD PTR _no$[ebp]
	push	edx
	push	OFFSET $SG94616
	call	_FormatTestLabel
	add	esp, 12					; 0000000cH
	push	eax
	mov	eax, DWORD PTR _env$[ebp]
	push	eax
	call	_TEST_Assert
	add	esp, 16					; 00000010H

; 40   :     if (desired_return_code == PMC_STATUS_OK)

	cmp	DWORD PTR _desired_return_code$[ebp], 0
	jne	SHORT $LN2@TEST_PMC_R

; 41   :     {
; 42   :         TEST_Assert(env, FormatTestLabel(L"PMC_Remainder_I_X (%d.%d)", no, 3), actual_r == desired_r, L"剰余の値が一致しない");

	mov	ecx, DWORD PTR _actual_r$[ebp]
	cmp	ecx, DWORD PTR _desired_r$[ebp]
	jne	SHORT $LN9@TEST_PMC_R
	mov	DWORD PTR tv136[ebp], 1
	jmp	SHORT $LN10@TEST_PMC_R
$LN9@TEST_PMC_R:
	mov	DWORD PTR tv136[ebp], 0
$LN10@TEST_PMC_R:
	push	OFFSET $SG94618
	mov	edx, DWORD PTR tv136[ebp]
	push	edx
	push	3
	mov	eax, DWORD PTR _no$[ebp]
	push	eax
	push	OFFSET $SG94619
	call	_FormatTestLabel
	add	esp, 12					; 0000000cH
	push	eax
	mov	ecx, DWORD PTR _env$[ebp]
	push	ecx
	call	_TEST_Assert
	add	esp, 16					; 00000010H
$LN2@TEST_PMC_R:

; 43   :     }
; 44   :     if (v_result == PMC_STATUS_OK)

	cmp	DWORD PTR _v_result$[ebp], 0
	jne	SHORT $LN1@TEST_PMC_R

; 45   :         ep->Dispose(v);

	mov	esi, esp
	mov	edx, DWORD PTR _v$[ebp]
	push	edx
	mov	eax, DWORD PTR _ep$[ebp]
	mov	ecx, DWORD PTR [eax+16]
	call	ecx
	cmp	esi, esp
	call	__RTC_CheckEsp
$LN1@TEST_PMC_R:

; 46   : }

	push	edx
	mov	ecx, ebp
	push	eax
	lea	edx, DWORD PTR $LN14@TEST_PMC_R
	call	@_RTC_CheckStackVars@8
	pop	eax
	pop	edx
	pop	edi
	pop	esi
	add	esp, 44					; 0000002cH
	cmp	ebp, esp
	call	__RTC_CheckEsp
	mov	esp, ebp
	pop	ebp
	ret	0
$LN14@TEST_PMC_R:
	DD	2
	DD	$LN13@TEST_PMC_R
$LN13@TEST_PMC_R:
	DD	-8					; fffffff8H
	DD	4
	DD	$LN11@TEST_PMC_R
	DD	-20					; ffffffecH
	DD	4
	DD	$LN12@TEST_PMC_R
$LN12@TEST_PMC_R:
	DB	97					; 00000061H
	DB	99					; 00000063H
	DB	116					; 00000074H
	DB	117					; 00000075H
	DB	97					; 00000061H
	DB	108					; 0000006cH
	DB	95					; 0000005fH
	DB	114					; 00000072H
	DB	0
$LN11@TEST_PMC_R:
	DB	118					; 00000076H
	DB	0
_TEST_PMC_Remainder_I_X ENDP
_TEXT	ENDS
END
